 csi32db

 Timestamp is 5e9db84b (Mon Apr 20 15:57:15 2020)

 Preferred load address is 00400000

 Start         Length     Name                   Class
 0001:00000000 0004e025H .textbss                DATA
 0002:00000000 00005d57H .text                   CODE
 0002:00005d60 00004496H .text$di                CODE
 0002:0000a200 00090152H .text$mn                CODE
 0002:0009a360 0000b07bH .text$x                 CODE
 0002:000a53e0 00001cabH .text$yd                CODE
 0003:00000000 00000104H .CRT$XCA                DATA
 0003:00000104 00000104H .CRT$XCAA               DATA
 0003:00000208 000003ceH .CRT$XCU                DATA
 0003:000005d8 00000104H .CRT$XCZ                DATA
 0003:000006dc 00000104H .CRT$XIA                DATA
 0003:000007e0 00000104H .CRT$XIAA               DATA
 0003:000008e4 00000104H .CRT$XIC                DATA
 0003:000009e8 00000104H .CRT$XIY                DATA
 0003:00000aec 00000104H .CRT$XIZ                DATA
 0003:00000bf0 0000a038H .rdata                  DATA
 0003:0000ac28 00000169H .rdata$debug            DATA
 0003:0000ad94 000007c0H .rdata$r                DATA
 0003:0000b554 00000104H .rtc$IAA                DATA
 0003:0000b658 000001d3H .rtc$IMZ                DATA
 0003:0000b82c 00000104H .rtc$IZZ                DATA
 0003:0000b930 00000104H .rtc$TAA                DATA
 0003:0000ba34 000001d3H .rtc$TMZ                DATA
 0003:0000bc08 00000104H .rtc$TZZ                DATA
 0003:0000bd10 0000972bH .xdata$x                DATA
 0003:0001543b 00000000H .edata                  DATA
 0004:00000000 0000029bH .data                   DATA
 0004:0000029c 00000409H .data$r                 DATA
 0004:000006a8 004fbaacH .bss                    DATA
 0005:00000000 000006c4H .idata$5                DATA
 0005:000006c4 00000104H .idata$2                DATA
 0005:000007c8 00000014H .idata$3                DATA
 0005:000007dc 000006c4H .idata$4                DATA
 0005:00000ea0 0000126fH .idata$6                DATA
 0006:00000000 000005fcH .rsrc$01                DATA
 0006:00000600 00007806H .rsrc$02                DATA

  Address         Publics by Value              Rva+Base       Lib:Object

 0000:00000000       ___guard_fids_count        00000000     <absolute>
 0000:00000000       ___guard_fids_table        00000000     <absolute>
 0000:00000000       ___guard_flags             00000000     <absolute>
 0000:00000000       ___safe_se_handler_count   00000000     <absolute>
 0000:00000000       ___safe_se_handler_table   00000000     <absolute>
 0000:00000000       __except_list              00000000     <absolute>
 0000:00009876       __ldused                   00009876     <absolute>
 0000:00009876       __fltused                  00009876     <absolute>
 0000:00000000       ___ImageBase               00400000     <linker-defined>
 0001:00000000       __enc$textbss$begin        00401000     <linker-defined>
 0001:0004e025       __enc$textbss$end          0044f025     <linker-defined>
 0002:00005b63       _HtmlHelpA@16              00455b63 f   htmlhelp:init.obj
 0002:00005c98       _HtmlHelpW@16              00455c98 f   htmlhelp:init.obj
 0002:0000a200       ??0database@@QAE@PBDHH@Z   0045a200 f   database.obj
 0002:0000a2d0       ?getName@database@@QAEPBDH@Z 0045a2d0 f   database.obj
 0002:0000a470       ?getName@database@@QAE_NHPADH@Z 0045a470 f   database.obj
 0002:0000a660       ?setName@database@@QAE_NHPBD_NPA_N@Z 0045a660 f   database.obj
 0002:0000aab0       ?getIndex@database@@QAEHPBDHH@Z 0045aab0 f   database.obj
 0002:0000ad50       ?getIndex@database@@QAEHPBD_N1@Z 0045ad50 f   database.obj
 0002:0000afe0       ?size@database@@QAEHXZ     0045afe0 f   database.obj
 0002:0000b030       ?exists@database@@QAE_NH@Z 0045b030 f   database.obj
 0002:0000b1b0       ?dump@database@@QAE_NPBD@Z 0045b1b0 f   database.obj
 0002:0000b460       ?loadDump@database@@QAE_NPBD@Z 0045b460 f   database.obj
 0002:0000b760       ?load@database@@AAEXPBDHH@Z 0045b760 f   database.obj
 0002:0000c590       ??$?0AAHAAPBDX@?$pair@HV?$basic_string@DU?$char_traits@D@std@@V?$allocator@D@2@@std@@@std@@QAE@AAHAAPBD@Z 0045c590 f i database.obj
 0002:0000c660       ??$?0AAHV?$basic_string@DU?$char_traits@D@std@@V?$allocator@D@2@@std@@X@?$pair@HV?$basic_string@DU?$char_traits@D@std@@V?$allocator@D@2@@std@@@std@@QAE@AAH$$QAV?$basic_string@DU?$char_traits@D@std@@V?$allocator@D@2@@1@@Z 0045c660 f i database.obj
 0002:0000c730       ??$?0AAV?$_Tree_iterator@V?$_Tree_val@U?$_Tree_simple_types@U?$pair@$$CBHV?$basic_string@DU?$char_traits@D@std@@V?$allocator@D@2@@std@@@std@@@std@@@std@@@std@@_NX@?$pair@V?$_Tree_iterator@V?$_Tree_val@U?$_Tree_simple_types@U?$pair@$$CBHV?$basic_string@DU?$char_traits@D@std@@V?$allocator@D@2@@std@@@std@@@std@@@std@@@std@@_N@std@@QAE@AAV?$_Tree_iterator@V?$_Tree_val@U?$_Tree_simple_types@U?$pair@$$CBHV?$basic_string@DU?$char_traits@D@std@@V?$allocator@D@2@@std@@@std@@@std@@@std@@@1@$$QA_N@Z 0045c730 f i database.obj
 0002:0000c800       ??$?0HV?$basic_string@DU?$char_traits@D@std@@V?$allocator@D@2@@std@@X@?$pair@$$CBHV?$basic_string@DU?$char_traits@D@std@@V?$allocator@D@2@@std@@@std@@QAE@$$QAU?$pair@HV?$basic_string@DU?$char_traits@D@std@@V?$allocator@D@2@@std@@@1@@Z 0045c800 f i database.obj
 0002:0000c8d0       ??$?0U?$_Tree_node@U?$pair@$$CBHV?$basic_string@DU?$char_traits@D@std@@V?$allocator@D@2@@std@@@std@@PAX@std@@@?$allocator@U_Container_proxy@std@@@std@@QAE@ABV?$allocator@U?$_Tree_node@U?$pair@$$CBHV?$basic_string@DU?$char_traits@D@std@@V?$allocator@D@2@@std@@@std@@PAX@std@@@1@@Z 0045c8d0 f i database.obj
 0002:0000c910       ??$?0U?$_Wrap_alloc@V?$allocator@U?$_Tree_node@U?$pair@$$CBHV?$basic_string@DU?$char_traits@D@std@@V?$allocator@D@2@@std@@@std@@PAX@std@@@std@@@std@@@?$_Wrap_alloc@V?$allocator@U_Container_proxy@std@@@std@@@std@@QAE@ABU?$_Wrap_alloc@V?$allocator@U?$_Tree_node@U?$pair@$$CBHV?$basic_string@DU?$char_traits@D@std@@V?$allocator@D@2@@std@@@std@@PAX@std@@@std@@@1@@Z 0045c910 f i database.obj
 0002:0000c970       ??$?0V?$_Tree_iterator@V?$_Tree_val@U?$_Tree_simple_types@U?$pair@$$CBHV?$basic_string@DU?$char_traits@D@std@@V?$allocator@D@2@@std@@@std@@@std@@@std@@@std@@_NX@?$pair@V?$_Tree_iterator@V?$_Tree_val@U?$_Tree_simple_types@U?$pair@$$CBHV?$basic_string@DU?$char_traits@D@std@@V?$allocator@D@2@@std@@@std@@@std@@@std@@@std@@_N@std@@QAE@$$QAV?$_Tree_iterator@V?$_Tree_val@U?$_Tree_simple_types@U?$pair@$$CBHV?$basic_string@DU?$char_traits@D@std@@V?$allocator@D@2@@std@@@std@@@std@@@std@@@1@$$QA_N@Z 0045c970 f i database.obj
 0002:0000ca40       ??$?8DU?$char_traits@D@std@@V?$allocator@D@1@@std@@YA_NABV?$basic_string@DU?$char_traits@D@std@@V?$allocator@D@2@@0@PBD@Z 0045ca40 f i database.obj
 0002:0000cac0       ??$?8DU?$char_traits@D@std@@V?$allocator@D@1@@std@@YA_NPBDABV?$basic_string@DU?$char_traits@D@std@@V?$allocator@D@2@@0@@Z 0045cac0 f i database.obj
 0002:0000cb40       ??$?9DU?$char_traits@D@std@@V?$allocator@D@1@@std@@YA_NPBDABV?$basic_string@DU?$char_traits@D@std@@V?$allocator@D@2@@0@@Z 0045cb40 f i database.obj
 0002:0000cbc0       ??$_Allocate@D@std@@YAPADIPAD@Z 0045cbc0 f i database.obj
 0002:0000cc50       ??$_Allocate@U?$_Tree_node@U?$pair@$$CBHV?$basic_string@DU?$char_traits@D@std@@V?$allocator@D@2@@std@@@std@@PAX@std@@@std@@YAPAU?$_Tree_node@U?$pair@$$CBHV?$basic_string@DU?$char_traits@D@std@@V?$allocator@D@2@@std@@@std@@PAX@0@IPAU10@@Z 0045cc50 f i database.obj
 0002:0000cce0       ??$_Allocate@U_Container_proxy@std@@@std@@YAPAU_Container_proxy@0@IPAU10@@Z 0045cce0 f i database.obj
 0002:0000cd80       ??$_Buynode@U?$pair@HV?$basic_string@DU?$char_traits@D@std@@V?$allocator@D@2@@std@@@std@@@?$_Tree_buy@U?$pair@$$CBHV?$basic_string@DU?$char_traits@D@std@@V?$allocator@D@2@@std@@@std@@V?$allocator@U?$pair@$$CBHV?$basic_string@DU?$char_traits@D@std@@V?$allocator@D@2@@std@@@std@@@2@@std@@QAEPAU?$_Tree_node@U?$pair@$$CBHV?$basic_string@DU?$char_traits@D@std@@V?$allocator@D@2@@std@@@std@@PAX@1@$$QAU?$pair@HV?$basic_string@DU?$char_traits@D@std@@V?$allocator@D@2@@std@@@1@@Z 0045cd80 f i database.obj
 0002:0000cec0       ??$_Buynode_if_nil@AAU?$pair@$$CBHV?$basic_string@DU?$char_traits@D@std@@V?$allocator@D@2@@std@@@std@@@?$_Tree@V?$_Tmap_traits@HV?$basic_string@DU?$char_traits@D@std@@V?$allocator@D@2@@std@@U?$less@H@2@V?$allocator@U?$pair@$$CBHV?$basic_string@DU?$char_traits@D@std@@V?$allocator@D@2@@std@@@std@@@2@$0A@@std@@@std@@IAEPAU?$_Tree_node@U?$pair@$$CBHV?$basic_string@DU?$char_traits@D@std@@V?$allocator@D@2@@std@@@std@@PAX@1@PAU21@AAU?$pair@$$CBHV?$basic_string@DU?$char_traits@D@std@@V?$allocator@D@2@@std@@@1@@Z 0045cec0 f i database.obj
 0002:0000cf00       ??$_Debug_lt_pred@U?$less@H@std@@ABHABH@std@@YA_NU?$less@H@0@ABH1PB_WI@Z 0045cf00 f i database.obj
 0002:0000cfe0       ??$_Debug_pointer@D@std@@YAXPBDPB_WI@Z 0045cfe0 f i database.obj
 0002:0000d050       ??$_Insert_at@AAU?$pair@$$CBHV?$basic_string@DU?$char_traits@D@std@@V?$allocator@D@2@@std@@@std@@PAU?$_Tree_node@U?$pair@$$CBHV?$basic_string@DU?$char_traits@D@std@@V?$allocator@D@2@@std@@@std@@PAX@2@@?$_Tree@V?$_Tmap_traits@HV?$basic_string@DU?$char_traits@D@std@@V?$allocator@D@2@@std@@U?$less@H@2@V?$allocator@U?$pair@$$CBHV?$basic_string@DU?$char_traits@D@std@@V?$allocator@D@2@@std@@@std@@@2@$0A@@std@@@std@@IAE?AV?$_Tree_iterator@V?$_Tree_val@U?$_Tree_simple_types@U?$pair@$$CBHV?$basic_string@DU?$char_traits@D@std@@V?$allocator@D@2@@std@@@std@@@std@@@std@@@1@_NPAU?$_Tree_node@U?$pair@$$CBHV?$basic_string@DU?$char_traits@D@std@@V?$allocator@D@2@@std@@@std@@PAX@1@AAU?$pair@$$CBHV?$basic_string@DU?$char_traits@D@std@@V?$allocator@D@2@@std@@@1@1@Z 0045d050 f i database.obj
 0002:0000d620       ??$_Insert_nohint@AAU?$pair@$$CBHV?$basic_string@DU?$char_traits@D@std@@V?$allocator@D@2@@std@@@std@@PAU?$_Tree_node@U?$pair@$$CBHV?$basic_string@DU?$char_traits@D@std@@V?$allocator@D@2@@std@@@std@@PAX@2@@?$_Tree@V?$_Tmap_traits@HV?$basic_string@DU?$char_traits@D@std@@V?$allocator@D@2@@std@@U?$less@H@2@V?$allocator@U?$pair@$$CBHV?$basic_string@DU?$char_traits@D@std@@V?$allocator@D@2@@std@@@std@@@2@$0A@@std@@@std@@IAE?AU?$pair@V?$_Tree_iterator@V?$_Tree_val@U?$_Tree_simple_types@U?$pair@$$CBHV?$basic_string@DU?$char_traits@D@std@@V?$allocator@D@2@@std@@@std@@@std@@@std@@@std@@_N@1@_NAAU?$pair@$$CBHV?$basic_string@DU?$char_traits@D@std@@V?$allocator@D@2@@std@@@1@PAU?$_Tree_node@U?$pair@$$CBHV?$basic_string@DU?$char_traits@D@std@@V?$allocator@D@2@@std@@@std@@PAX@1@@Z 0045d620 f i database.obj
 0002:0000dc30       ??$_Kfn@$$CBHV?$basic_string@DU?$char_traits@D@std@@V?$allocator@D@2@@std@@@?$_Tmap_traits@HV?$basic_string@DU?$char_traits@D@std@@V?$allocator@D@2@@std@@U?$less@H@2@V?$allocator@U?$pair@$$CBHV?$basic_string@DU?$char_traits@D@std@@V?$allocator@D@2@@std@@@std@@@2@$0A@@std@@SAABHABU?$pair@$$CBHV?$basic_string@DU?$char_traits@D@std@@V?$allocator@D@2@@std@@@1@@Z 0045dc30 f i database.obj
 0002:0000dc70       ??$_Move@AAD@std@@YA$$QADAAD@Z 0045dc70 f i database.obj
 0002:0000dcb0       ??$addressof@$$CBU?$pair@$$CBHV?$basic_string@DU?$char_traits@D@std@@V?$allocator@D@2@@std@@@std@@@std@@YAPBU?$pair@$$CBHV?$basic_string@DU?$char_traits@D@std@@V?$allocator@D@2@@std@@@0@ABU10@@Z 0045dcb0 f i database.obj
 0002:0000dcf0       ??$addressof@D@std@@YAPADAAD@Z 0045dcf0 f i database.obj
 0002:0000dd30       ??$addressof@PAU?$_Tree_node@U?$pair@$$CBHV?$basic_string@DU?$char_traits@D@std@@V?$allocator@D@2@@std@@@std@@PAX@std@@@std@@YAPAPAU?$_Tree_node@U?$pair@$$CBHV?$basic_string@DU?$char_traits@D@std@@V?$allocator@D@2@@std@@@std@@PAX@0@AAPAU10@@Z 0045dd30 f i database.obj
 0002:0000dd70       ??$addressof@U?$pair@$$CBHV?$basic_string@DU?$char_traits@D@std@@V?$allocator@D@2@@std@@@std@@@std@@YAPAU?$pair@$$CBHV?$basic_string@DU?$char_traits@D@std@@V?$allocator@D@2@@std@@@0@AAU10@@Z 0045dd70 f i database.obj
 0002:0000ddb0       ??$construct@PADAAPAD@?$_Wrap_alloc@V?$allocator@D@std@@@std@@QAEXPAPADAAPAD@Z 0045ddb0 f i database.obj
 0002:0000de20       ??$construct@PADAAPAD@?$allocator@D@std@@QAEXPAPADAAPAD@Z 0045de20 f i database.obj
 0002:0000df20       ??$construct@PADAAPAD@?$allocator_traits@V?$allocator@D@std@@@std@@SAXAAV?$allocator@D@1@PAPADAAPAD@Z 0045df20 f i database.obj
 0002:0000df80       ??$construct@PAU?$_Tree_node@U?$pair@$$CBHV?$basic_string@DU?$char_traits@D@std@@V?$allocator@D@2@@std@@@std@@PAX@std@@AAPAU12@@?$_Wrap_alloc@V?$allocator@U?$_Tree_node@U?$pair@$$CBHV?$basic_string@DU?$char_traits@D@std@@V?$allocator@D@2@@std@@@std@@PAX@std@@@std@@@std@@QAEXPAPAU?$_Tree_node@U?$pair@$$CBHV?$basic_string@DU?$char_traits@D@std@@V?$allocator@D@2@@std@@@std@@PAX@1@AAPAU21@@Z 0045df80 f i database.obj
 0002:0000dff0       ??$construct@PAU?$_Tree_node@U?$pair@$$CBHV?$basic_string@DU?$char_traits@D@std@@V?$allocator@D@2@@std@@@std@@PAX@std@@AAPAU12@@?$allocator@U?$_Tree_node@U?$pair@$$CBHV?$basic_string@DU?$char_traits@D@std@@V?$allocator@D@2@@std@@@std@@PAX@std@@@std@@QAEXPAPAU?$_Tree_node@U?$pair@$$CBHV?$basic_string@DU?$char_traits@D@std@@V?$allocator@D@2@@std@@@std@@PAX@1@AAPAU21@@Z 0045dff0 f i database.obj
 0002:0000e0f0       ??$construct@PAU?$_Tree_node@U?$pair@$$CBHV?$basic_string@DU?$char_traits@D@std@@V?$allocator@D@2@@std@@@std@@PAX@std@@AAPAU12@@?$allocator_traits@V?$allocator@U?$_Tree_node@U?$pair@$$CBHV?$basic_string@DU?$char_traits@D@std@@V?$allocator@D@2@@std@@@std@@PAX@std@@@std@@@std@@SAXAAV?$allocator@U?$_Tree_node@U?$pair@$$CBHV?$basic_string@DU?$char_traits@D@std@@V?$allocator@D@2@@std@@@std@@PAX@std@@@1@PAPAU?$_Tree_node@U?$pair@$$CBHV?$basic_string@DU?$char_traits@D@std@@V?$allocator@D@2@@std@@@std@@PAX@1@AAPAU31@@Z 0045e0f0 f i database.obj
 0002:0000e150       ??$construct@U?$pair@$$CBHV?$basic_string@DU?$char_traits@D@std@@V?$allocator@D@2@@std@@@std@@U?$pair@HV?$basic_string@DU?$char_traits@D@std@@V?$allocator@D@2@@std@@@2@@?$_Wrap_alloc@V?$allocator@U?$_Tree_node@U?$pair@$$CBHV?$basic_string@DU?$char_traits@D@std@@V?$allocator@D@2@@std@@@std@@PAX@std@@@std@@@std@@QAEXPAU?$pair@$$CBHV?$basic_string@DU?$char_traits@D@std@@V?$allocator@D@2@@std@@@1@$$QAU?$pair@HV?$basic_string@DU?$char_traits@D@std@@V?$allocator@D@2@@std@@@1@@Z 0045e150 f i database.obj
 0002:0000e1c0       ??$construct@U?$pair@$$CBHV?$basic_string@DU?$char_traits@D@std@@V?$allocator@D@2@@std@@@std@@U?$pair@HV?$basic_string@DU?$char_traits@D@std@@V?$allocator@D@2@@std@@@2@@?$allocator@U?$_Tree_node@U?$pair@$$CBHV?$basic_string@DU?$char_traits@D@std@@V?$allocator@D@2@@std@@@std@@PAX@std@@@std@@QAEXPAU?$pair@$$CBHV?$basic_string@DU?$char_traits@D@std@@V?$allocator@D@2@@std@@@1@$$QAU?$pair@HV?$basic_string@DU?$char_traits@D@std@@V?$allocator@D@2@@std@@@1@@Z 0045e1c0 f i database.obj
 0002:0000e2c0       ??$construct@U?$pair@$$CBHV?$basic_string@DU?$char_traits@D@std@@V?$allocator@D@2@@std@@@std@@U?$pair@HV?$basic_string@DU?$char_traits@D@std@@V?$allocator@D@2@@std@@@2@@?$allocator_traits@V?$allocator@U?$_Tree_node@U?$pair@$$CBHV?$basic_string@DU?$char_traits@D@std@@V?$allocator@D@2@@std@@@std@@PAX@std@@@std@@@std@@SAXAAV?$allocator@U?$_Tree_node@U?$pair@$$CBHV?$basic_string@DU?$char_traits@D@std@@V?$allocator@D@2@@std@@@std@@PAX@std@@@1@PAU?$pair@$$CBHV?$basic_string@DU?$char_traits@D@std@@V?$allocator@D@2@@std@@@1@$$QAU?$pair@HV?$basic_string@DU?$char_traits@D@std@@V?$allocator@D@2@@std@@@1@@Z 0045e2c0 f i database.obj
 0002:0000e320       ??$construct@U_Container_proxy@std@@U12@@?$_Wrap_alloc@V?$allocator@U_Container_proxy@std@@@std@@@std@@QAEXPAU_Container_proxy@1@$$QAU21@@Z 0045e320 f i database.obj
 0002:0000e390       ??$construct@U_Container_proxy@std@@U12@@?$allocator@U_Container_proxy@std@@@std@@QAEXPAU_Container_proxy@1@$$QAU21@@Z 0045e390 f i database.obj
 0002:0000e4a0       ??$construct@U_Container_proxy@std@@U12@@?$allocator_traits@V?$allocator@U_Container_proxy@std@@@std@@@std@@SAXAAV?$allocator@U_Container_proxy@std@@@1@PAU_Container_proxy@1@$$QAU31@@Z 0045e4a0 f i database.obj
 0002:0000e500       ??$destroy@PAD@?$_Wrap_alloc@V?$allocator@D@std@@@std@@QAEXPAPAD@Z 0045e500 f i database.obj
 0002:0000e560       ??$destroy@PAD@?$allocator@D@std@@QAEXPAPAD@Z 0045e560 f i database.obj
 0002:0000e5a0       ??$destroy@PAD@?$allocator_traits@V?$allocator@D@std@@@std@@SAXAAV?$allocator@D@1@PAPAD@Z 0045e5a0 f i database.obj
 0002:0000e5f0       ??$destroy@PAU?$_Tree_node@U?$pair@$$CBHV?$basic_string@DU?$char_traits@D@std@@V?$allocator@D@2@@std@@@std@@PAX@std@@@?$_Wrap_alloc@V?$allocator@U?$_Tree_node@U?$pair@$$CBHV?$basic_string@DU?$char_traits@D@std@@V?$allocator@D@2@@std@@@std@@PAX@std@@@std@@@std@@QAEXPAPAU?$_Tree_node@U?$pair@$$CBHV?$basic_string@DU?$char_traits@D@std@@V?$allocator@D@2@@std@@@std@@PAX@1@@Z 0045e5f0 f i database.obj
 0002:0000e650       ??$destroy@PAU?$_Tree_node@U?$pair@$$CBHV?$basic_string@DU?$char_traits@D@std@@V?$allocator@D@2@@std@@@std@@PAX@std@@@?$allocator@U?$_Tree_node@U?$pair@$$CBHV?$basic_string@DU?$char_traits@D@std@@V?$allocator@D@2@@std@@@std@@PAX@std@@@std@@QAEXPAPAU?$_Tree_node@U?$pair@$$CBHV?$basic_string@DU?$char_traits@D@std@@V?$allocator@D@2@@std@@@std@@PAX@1@@Z 0045e650 f i database.obj
 0002:0000e690       ??$destroy@PAU?$_Tree_node@U?$pair@$$CBHV?$basic_string@DU?$char_traits@D@std@@V?$allocator@D@2@@std@@@std@@PAX@std@@@?$allocator_traits@V?$allocator@U?$_Tree_node@U?$pair@$$CBHV?$basic_string@DU?$char_traits@D@std@@V?$allocator@D@2@@std@@@std@@PAX@std@@@std@@@std@@SAXAAV?$allocator@U?$_Tree_node@U?$pair@$$CBHV?$basic_string@DU?$char_traits@D@std@@V?$allocator@D@2@@std@@@std@@PAX@std@@@1@PAPAU?$_Tree_node@U?$pair@$$CBHV?$basic_string@DU?$char_traits@D@std@@V?$allocator@D@2@@std@@@std@@PAX@1@@Z 0045e690 f i database.obj
 0002:0000e6e0       ??$destroy@U?$pair@$$CBHV?$basic_string@DU?$char_traits@D@std@@V?$allocator@D@2@@std@@@std@@@?$_Wrap_alloc@V?$allocator@U?$_Tree_node@U?$pair@$$CBHV?$basic_string@DU?$char_traits@D@std@@V?$allocator@D@2@@std@@@std@@PAX@std@@@std@@@std@@QAEXPAU?$pair@$$CBHV?$basic_string@DU?$char_traits@D@std@@V?$allocator@D@2@@std@@@1@@Z 0045e6e0 f i database.obj
 0002:0000e740       ??$destroy@U?$pair@$$CBHV?$basic_string@DU?$char_traits@D@std@@V?$allocator@D@2@@std@@@std@@@?$allocator@U?$_Tree_node@U?$pair@$$CBHV?$basic_string@DU?$char_traits@D@std@@V?$allocator@D@2@@std@@@std@@PAX@std@@@std@@QAEXPAU?$pair@$$CBHV?$basic_string@DU?$char_traits@D@std@@V?$allocator@D@2@@std@@@1@@Z 0045e740 f i database.obj
 0002:0000e7a0       ??$destroy@U?$pair@$$CBHV?$basic_string@DU?$char_traits@D@std@@V?$allocator@D@2@@std@@@std@@@?$allocator_traits@V?$allocator@U?$_Tree_node@U?$pair@$$CBHV?$basic_string@DU?$char_traits@D@std@@V?$allocator@D@2@@std@@@std@@PAX@std@@@std@@@std@@SAXAAV?$allocator@U?$_Tree_node@U?$pair@$$CBHV?$basic_string@DU?$char_traits@D@std@@V?$allocator@D@2@@std@@@std@@PAX@std@@@1@PAU?$pair@$$CBHV?$basic_string@DU?$char_traits@D@std@@V?$allocator@D@2@@std@@@1@@Z 0045e7a0 f i database.obj
 0002:0000e7f0       ??$destroy@U_Container_proxy@std@@@?$_Wrap_alloc@V?$allocator@U_Container_proxy@std@@@std@@@std@@QAEXPAU_Container_proxy@1@@Z 0045e7f0 f i database.obj
 0002:0000e850       ??$destroy@U_Container_proxy@std@@@?$allocator@U_Container_proxy@std@@@std@@QAEXPAU_Container_proxy@1@@Z 0045e850 f i database.obj
 0002:0000e890       ??$destroy@U_Container_proxy@std@@@?$allocator_traits@V?$allocator@U_Container_proxy@std@@@std@@@std@@SAXAAV?$allocator@U_Container_proxy@std@@@1@PAU_Container_proxy@1@@Z 0045e890 f i database.obj
 0002:0000e8e0       ??$forward@AAH@std@@YAAAHAAH@Z 0045e8e0 f i database.obj
 0002:0000e920       ??$forward@AAPAD@std@@YAAAPADAAPAD@Z 0045e920 f i database.obj
 0002:0000e960       ??$forward@AAPAU?$_Tree_node@U?$pair@$$CBHV?$basic_string@DU?$char_traits@D@std@@V?$allocator@D@2@@std@@@std@@PAX@std@@@std@@YAAAPAU?$_Tree_node@U?$pair@$$CBHV?$basic_string@DU?$char_traits@D@std@@V?$allocator@D@2@@std@@@std@@PAX@0@AAPAU10@@Z 0045e960 f i database.obj
 0002:0000e9a0       ??$forward@AAPBD@std@@YAAAPBDAAPBD@Z 0045e9a0 f i database.obj
 0002:0000e9e0       ??$forward@AAU?$pair@$$CBHV?$basic_string@DU?$char_traits@D@std@@V?$allocator@D@2@@std@@@std@@@std@@YAAAU?$pair@$$CBHV?$basic_string@DU?$char_traits@D@std@@V?$allocator@D@2@@std@@@0@AAU10@@Z 0045e9e0 f i database.obj
 0002:0000ea20       ??$forward@AAV?$_Tree_iterator@V?$_Tree_val@U?$_Tree_simple_types@U?$pair@$$CBHV?$basic_string@DU?$char_traits@D@std@@V?$allocator@D@2@@std@@@std@@@std@@@std@@@std@@@std@@YAAAV?$_Tree_iterator@V?$_Tree_val@U?$_Tree_simple_types@U?$pair@$$CBHV?$basic_string@DU?$char_traits@D@std@@V?$allocator@D@2@@std@@@std@@@std@@@std@@@0@AAV10@@Z 0045ea20 f i database.obj
 0002:0000ea60       ??$forward@ABH@std@@YAABHABH@Z 0045ea60 f i database.obj
 0002:0000eaa0       ??$forward@H@std@@YA$$QAHAAH@Z 0045eaa0 f i database.obj
 0002:0000eae0       ??$forward@U?$pair@HV?$basic_string@DU?$char_traits@D@std@@V?$allocator@D@2@@std@@@std@@@std@@YA$$QAU?$pair@HV?$basic_string@DU?$char_traits@D@std@@V?$allocator@D@2@@std@@@0@AAU10@@Z 0045eae0 f i database.obj
 0002:0000eb20       ??$forward@U_Container_proxy@std@@@std@@YA$$QAU_Container_proxy@0@AAU10@@Z 0045eb20 f i database.obj
 0002:0000eb60       ??$forward@V?$_Tree_iterator@V?$_Tree_val@U?$_Tree_simple_types@U?$pair@$$CBHV?$basic_string@DU?$char_traits@D@std@@V?$allocator@D@2@@std@@@std@@@std@@@std@@@std@@@std@@YA$$QAV?$_Tree_iterator@V?$_Tree_val@U?$_Tree_simple_types@U?$pair@$$CBHV?$basic_string@DU?$char_traits@D@std@@V?$allocator@D@2@@std@@@std@@@std@@@std@@@0@AAV10@@Z 0045eb60 f i database.obj
 0002:0000eba0       ??$forward@V?$basic_string@DU?$char_traits@D@std@@V?$allocator@D@2@@std@@@std@@YA$$QAV?$basic_string@DU?$char_traits@D@std@@V?$allocator@D@2@@0@AAV10@@Z 0045eba0 f i database.obj
 0002:0000ebe0       ??$forward@_N@std@@YA$$QA_NAA_N@Z 0045ebe0 f i database.obj
 0002:0000ec20       ??$insert@U?$pair@HV?$basic_string@DU?$char_traits@D@std@@V?$allocator@D@2@@std@@@std@@@?$_Tree@V?$_Tmap_traits@HV?$basic_string@DU?$char_traits@D@std@@V?$allocator@D@2@@std@@U?$less@H@2@V?$allocator@U?$pair@$$CBHV?$basic_string@DU?$char_traits@D@std@@V?$allocator@D@2@@std@@@std@@@2@$0A@@std@@@std@@QAE?AU?$pair@V?$_Tree_iterator@V?$_Tree_val@U?$_Tree_simple_types@U?$pair@$$CBHV?$basic_string@DU?$char_traits@D@std@@V?$allocator@D@2@@std@@@std@@@std@@@std@@@std@@_N@1@$$QAU?$pair@HV?$basic_string@DU?$char_traits@D@std@@V?$allocator@D@2@@std@@@1@@Z 0045ec20 f i database.obj
 0002:0000ed10       ??$swap@D@std@@YAXAAD0@Z   0045ed10 f i database.obj
 0002:0000edd0       ??0?$_Iterator012@Ubidirectional_iterator_tag@std@@U?$pair@$$CBHV?$basic_string@DU?$char_traits@D@std@@V?$allocator@D@2@@std@@@2@HPBU32@ABU32@U_Iterator_base12@2@@std@@QAE@ABU01@@Z 0045edd0 f i database.obj
 0002:0000ee70       ??0?$_Iterator012@Ubidirectional_iterator_tag@std@@U?$pair@$$CBHV?$basic_string@DU?$char_traits@D@std@@V?$allocator@D@2@@std@@@2@HPBU32@ABU32@U_Iterator_base12@2@@std@@QAE@XZ 0045ee70 f i database.obj
 0002:0000ef10       ??0?$_String_alloc@$0A@U?$_String_base_types@DV?$allocator@D@std@@@std@@@std@@QAE@ABV?$allocator@D@1@@Z 0045ef10 f i database.obj
 0002:0000efc0       ??0?$_String_val@U?$_Simple_types@D@std@@@std@@QAE@XZ 0045efc0 f i database.obj
 0002:0000f080       ??0?$_Tree@V?$_Tmap_traits@HV?$basic_string@DU?$char_traits@D@std@@V?$allocator@D@2@@std@@U?$less@H@2@V?$allocator@U?$pair@$$CBHV?$basic_string@DU?$char_traits@D@std@@V?$allocator@D@2@@std@@@std@@@2@$0A@@std@@@std@@QAE@ABU?$less@H@1@ABV?$allocator@U?$pair@$$CBHV?$basic_string@DU?$char_traits@D@std@@V?$allocator@D@2@@std@@@std@@@1@@Z 0045f080 f i database.obj
 0002:0000f130       ??0?$_Tree_alloc@$0A@U?$_Tree_base_types@U?$pair@$$CBHV?$basic_string@DU?$char_traits@D@std@@V?$allocator@D@2@@std@@@std@@V?$allocator@U?$pair@$$CBHV?$basic_string@DU?$char_traits@D@std@@V?$allocator@D@2@@std@@@std@@@2@@std@@@std@@QAE@ABV?$allocator@U?$pair@$$CBHV?$basic_string@DU?$char_traits@D@std@@V?$allocator@D@2@@std@@@std@@@1@@Z 0045f130 f i database.obj
 0002:0000f230       ??0?$_Tree_buy@U?$pair@$$CBHV?$basic_string@DU?$char_traits@D@std@@V?$allocator@D@2@@std@@@std@@V?$allocator@U?$pair@$$CBHV?$basic_string@DU?$char_traits@D@std@@V?$allocator@D@2@@std@@@std@@@2@@std@@QAE@ABV?$allocator@U?$pair@$$CBHV?$basic_string@DU?$char_traits@D@std@@V?$allocator@D@2@@std@@@std@@@1@@Z 0045f230 f i database.obj
 0002:0000f2d0       ??0?$_Tree_comp@$0A@V?$_Tmap_traits@HV?$basic_string@DU?$char_traits@D@std@@V?$allocator@D@2@@std@@U?$less@H@2@V?$allocator@U?$pair@$$CBHV?$basic_string@DU?$char_traits@D@std@@V?$allocator@D@2@@std@@@std@@@2@$0A@@std@@@std@@QAE@ABU?$less@H@1@ABV?$allocator@U?$pair@$$CBHV?$basic_string@DU?$char_traits@D@std@@V?$allocator@D@2@@std@@@std@@@1@@Z 0045f2d0 f i database.obj
 0002:0000f370       ??0?$_Tree_const_iterator@V?$_Tree_val@U?$_Tree_simple_types@U?$pair@$$CBHV?$basic_string@DU?$char_traits@D@std@@V?$allocator@D@2@@std@@@std@@@std@@@std@@@std@@QAE@ABV01@@Z 0045f370 f i database.obj
 0002:0000f410       ??0?$_Tree_const_iterator@V?$_Tree_val@U?$_Tree_simple_types@U?$pair@$$CBHV?$basic_string@DU?$char_traits@D@std@@V?$allocator@D@2@@std@@@std@@@std@@@std@@@std@@QAE@PAU?$_Tree_node@U?$pair@$$CBHV?$basic_string@DU?$char_traits@D@std@@V?$allocator@D@2@@std@@@std@@PAX@1@PBV?$_Tree_val@U?$_Tree_simple_types@U?$pair@$$CBHV?$basic_string@DU?$char_traits@D@std@@V?$allocator@D@2@@std@@@std@@@std@@@1@@Z 0045f410 f i database.obj
 0002:0000f4c0       ??0?$_Tree_const_iterator@V?$_Tree_val@U?$_Tree_simple_types@U?$pair@$$CBHV?$basic_string@DU?$char_traits@D@std@@V?$allocator@D@2@@std@@@std@@@std@@@std@@@std@@QAE@XZ 0045f4c0 f i database.obj
 0002:0000f560       ??0?$_Tree_iterator@V?$_Tree_val@U?$_Tree_simple_types@U?$pair@$$CBHV?$basic_string@DU?$char_traits@D@std@@V?$allocator@D@2@@std@@@std@@@std@@@std@@@std@@QAE@ABV01@@Z 0045f560 f i database.obj
 0002:0000f600       ??0?$_Tree_iterator@V?$_Tree_val@U?$_Tree_simple_types@U?$pair@$$CBHV?$basic_string@DU?$char_traits@D@std@@V?$allocator@D@2@@std@@@std@@@std@@@std@@@std@@QAE@PAU?$_Tree_node@U?$pair@$$CBHV?$basic_string@DU?$char_traits@D@std@@V?$allocator@D@2@@std@@@std@@PAX@1@PBV?$_Tree_val@U?$_Tree_simple_types@U?$pair@$$CBHV?$basic_string@DU?$char_traits@D@std@@V?$allocator@D@2@@std@@@std@@@std@@@1@@Z 0045f600 f i database.obj
 0002:0000f6b0       ??0?$_Tree_iterator@V?$_Tree_val@U?$_Tree_simple_types@U?$pair@$$CBHV?$basic_string@DU?$char_traits@D@std@@V?$allocator@D@2@@std@@@std@@@std@@@std@@@std@@QAE@XZ 0045f6b0 f i database.obj
 0002:0000f750       ??0?$_Tree_unchecked_const_iterator@V?$_Tree_val@U?$_Tree_simple_types@U?$pair@$$CBHV?$basic_string@DU?$char_traits@D@std@@V?$allocator@D@2@@std@@@std@@@std@@@std@@U_Iterator_base12@2@@std@@QAE@ABV01@@Z 0045f750 f i database.obj
 0002:0000f800       ??0?$_Tree_unchecked_const_iterator@V?$_Tree_val@U?$_Tree_simple_types@U?$pair@$$CBHV?$basic_string@DU?$char_traits@D@std@@V?$allocator@D@2@@std@@@std@@@std@@@std@@U_Iterator_base12@2@@std@@QAE@PAU?$_Tree_node@U?$pair@$$CBHV?$basic_string@DU?$char_traits@D@std@@V?$allocator@D@2@@std@@@std@@PAX@1@PBV?$_Tree_val@U?$_Tree_simple_types@U?$pair@$$CBHV?$basic_string@DU?$char_traits@D@std@@V?$allocator@D@2@@std@@@std@@@std@@@1@@Z 0045f800 f i database.obj
 0002:0000f8c0       ??0?$_Tree_unchecked_const_iterator@V?$_Tree_val@U?$_Tree_simple_types@U?$pair@$$CBHV?$basic_string@DU?$char_traits@D@std@@V?$allocator@D@2@@std@@@std@@@std@@@std@@U_Iterator_base12@2@@std@@QAE@XZ 0045f8c0 f i database.obj
 0002:0000f970       ??0?$_Tree_val@U?$_Tree_simple_types@U?$pair@$$CBHV?$basic_string@DU?$char_traits@D@std@@V?$allocator@D@2@@std@@@std@@@std@@@std@@QAE@XZ 0045f970 f i database.obj
 0002:0000fa30       ??0?$_Wrap_alloc@V?$allocator@D@std@@@std@@QAE@XZ 0045fa30 f i database.obj
 0002:0000fa90       ??0?$_Wrap_alloc@V?$allocator@U?$_Tree_node@U?$pair@$$CBHV?$basic_string@DU?$char_traits@D@std@@V?$allocator@D@2@@std@@@std@@PAX@std@@@std@@@std@@QAE@XZ 0045fa90 f i database.obj
 0002:0000faf0       ??0?$allocator@D@std@@QAE@XZ 0045faf0 f i database.obj
 0002:0000fb30       ??0?$allocator@U?$_Tree_node@U?$pair@$$CBHV?$basic_string@DU?$char_traits@D@std@@V?$allocator@D@2@@std@@@std@@PAX@std@@@std@@QAE@XZ 0045fb30 f i database.obj
 0002:0000fb70       ??0?$allocator@U?$pair@$$CBHV?$basic_string@DU?$char_traits@D@std@@V?$allocator@D@2@@std@@@std@@@std@@QAE@XZ 0045fb70 f i database.obj
 0002:0000fbb0       ??0?$allocator@U_Container_proxy@std@@@std@@QAE@XZ 0045fbb0 f i database.obj
 0002:0000fbf0       ??0?$basic_string@DU?$char_traits@D@std@@V?$allocator@D@2@@std@@QAE@$$QAV01@@Z 0045fbf0 f i database.obj
 0002:0000fcd0       ??0?$basic_string@DU?$char_traits@D@std@@V?$allocator@D@2@@std@@QAE@PBD@Z 0045fcd0 f i database.obj
 0002:0000fda0       ??0?$basic_string@DU?$char_traits@D@std@@V?$allocator@D@2@@std@@QAE@XZ 0045fda0 f i database.obj
 0002:0000fe60       ??0?$map@HV?$basic_string@DU?$char_traits@D@std@@V?$allocator@D@2@@std@@U?$less@H@2@V?$allocator@U?$pair@$$CBHV?$basic_string@DU?$char_traits@D@std@@V?$allocator@D@2@@std@@@std@@@2@@std@@QAE@XZ 0045fe60 f i database.obj
 0002:0000ff10       ??0_Container_proxy@std@@QAE@XZ 0045ff10 f i database.obj
 0002:0000ff60       ??0_Generic_error_category@std@@QAE@XZ 0045ff60 f i database.obj
 0002:00010010       ??0_Ignore@std@@QAE@XZ     00460010 f i database.obj
 0002:00010050       ??0_Iostream_error_category@std@@QAE@XZ 00460050 f i database.obj
 0002:00010100       ??0_Iterator_base12@std@@QAE@ABU01@@Z 00460100 f i database.obj
 0002:00010180       ??0_Iterator_base12@std@@QAE@XZ 00460180 f i database.obj
 0002:000101d0       ??0_System_error_category@std@@QAE@XZ 004601d0 f i database.obj
 0002:00010280       ??0error_category@std@@QAE@XZ 00460280 f i database.obj
 0002:000102d0       ??0error_condition@std@@QAE@HABVerror_category@1@@Z 004602d0 f i database.obj
 0002:00010320       ??1?$_Iterator012@Ubidirectional_iterator_tag@std@@U?$pair@$$CBHV?$basic_string@DU?$char_traits@D@std@@V?$allocator@D@2@@std@@@2@HPBU32@ABU32@U_Iterator_base12@2@@std@@QAE@XZ 00460320 f i database.obj
 0002:000103c0       ??1?$_String_alloc@$0A@U?$_String_base_types@DV?$allocator@D@std@@@std@@@std@@QAE@XZ 004603c0 f i database.obj
 0002:00010460       ??1?$_String_val@U?$_Simple_types@D@std@@@std@@QAE@XZ 00460460 f i database.obj
 0002:00010510       ??1?$_Tree@V?$_Tmap_traits@HV?$basic_string@DU?$char_traits@D@std@@V?$allocator@D@2@@std@@U?$less@H@2@V?$allocator@U?$pair@$$CBHV?$basic_string@DU?$char_traits@D@std@@V?$allocator@D@2@@std@@@std@@@2@$0A@@std@@@std@@QAE@XZ 00460510 f i database.obj
 0002:000105b0       ??1?$_Tree_alloc@$0A@U?$_Tree_base_types@U?$pair@$$CBHV?$basic_string@DU?$char_traits@D@std@@V?$allocator@D@2@@std@@@std@@V?$allocator@U?$pair@$$CBHV?$basic_string@DU?$char_traits@D@std@@V?$allocator@D@2@@std@@@std@@@2@@std@@@std@@QAE@XZ 004605b0 f i database.obj
 0002:00010670       ??1?$_Tree_buy@U?$pair@$$CBHV?$basic_string@DU?$char_traits@D@std@@V?$allocator@D@2@@std@@@std@@V?$allocator@U?$pair@$$CBHV?$basic_string@DU?$char_traits@D@std@@V?$allocator@D@2@@std@@@std@@@2@@std@@QAE@XZ 00460670 f i database.obj
 0002:00010710       ??1?$_Tree_comp@$0A@V?$_Tmap_traits@HV?$basic_string@DU?$char_traits@D@std@@V?$allocator@D@2@@std@@U?$less@H@2@V?$allocator@U?$pair@$$CBHV?$basic_string@DU?$char_traits@D@std@@V?$allocator@D@2@@std@@@std@@@2@$0A@@std@@@std@@QAE@XZ 00460710 f i database.obj
 0002:000107b0       ??1?$_Tree_const_iterator@V?$_Tree_val@U?$_Tree_simple_types@U?$pair@$$CBHV?$basic_string@DU?$char_traits@D@std@@V?$allocator@D@2@@std@@@std@@@std@@@std@@@std@@QAE@XZ 004607b0 f i database.obj
 0002:00010850       ??1?$_Tree_iterator@V?$_Tree_val@U?$_Tree_simple_types@U?$pair@$$CBHV?$basic_string@DU?$char_traits@D@std@@V?$allocator@D@2@@std@@@std@@@std@@@std@@@std@@QAE@XZ 00460850 f i database.obj
 0002:000108f0       ??1?$_Tree_unchecked_const_iterator@V?$_Tree_val@U?$_Tree_simple_types@U?$pair@$$CBHV?$basic_string@DU?$char_traits@D@std@@V?$allocator@D@2@@std@@@std@@@std@@@std@@U_Iterator_base12@2@@std@@QAE@XZ 004608f0 f i database.obj
 0002:00010990       ??1?$_Tree_val@U?$_Tree_simple_types@U?$pair@$$CBHV?$basic_string@DU?$char_traits@D@std@@V?$allocator@D@2@@std@@@std@@@std@@@std@@QAE@XZ 00460990 f i database.obj
 0002:00010a40       ??1?$basic_string@DU?$char_traits@D@std@@V?$allocator@D@2@@std@@QAE@XZ 00460a40 f i database.obj
 0002:00010af0       ??1?$map@HV?$basic_string@DU?$char_traits@D@std@@V?$allocator@D@2@@std@@U?$less@H@2@V?$allocator@U?$pair@$$CBHV?$basic_string@DU?$char_traits@D@std@@V?$allocator@D@2@@std@@@std@@@2@@std@@QAE@XZ 00460af0 f i database.obj
 0002:00010b90       ??1?$pair@$$CBHV?$basic_string@DU?$char_traits@D@std@@V?$allocator@D@2@@std@@@std@@QAE@XZ 00460b90 f i database.obj
 0002:00010c30       ??1?$pair@HV?$basic_string@DU?$char_traits@D@std@@V?$allocator@D@2@@std@@@std@@QAE@XZ 00460c30 f i database.obj
 0002:00010cd0       ??1?$pair@V?$_Tree_iterator@V?$_Tree_val@U?$_Tree_simple_types@U?$pair@$$CBHV?$basic_string@DU?$char_traits@D@std@@V?$allocator@D@2@@std@@@std@@@std@@@std@@@std@@_N@std@@QAE@XZ 00460cd0 f i database.obj
 0002:00010d70       ??1_Generic_error_category@std@@UAE@XZ 00460d70 f i database.obj
 0002:00010e10       ??1_Iostream_error_category@std@@UAE@XZ 00460e10 f i database.obj
 0002:00010eb0       ??1_Iterator_base12@std@@QAE@XZ 00460eb0 f i database.obj
 0002:00010fb0       ??1_System_error_category@std@@UAE@XZ 00460fb0 f i database.obj
 0002:00011050       ??1database@@UAE@XZ        00461050 f i database.obj
 0002:00011110       ??1error_category@std@@UAE@XZ 00461110 f i database.obj
 0002:00011150       ??2@YAPAXIPAX@Z            00461150 f i database.obj
 0002:00011190       ??3@YAXPAX0@Z              00461190 f i database.obj
 0002:000111c0       ??4?$_Iterator012@Ubidirectional_iterator_tag@std@@U?$pair@$$CBHV?$basic_string@DU?$char_traits@D@std@@V?$allocator@D@2@@std@@@2@HPBU32@ABU32@U_Iterator_base12@2@@std@@QAEAAU01@ABU01@@Z 004611c0 f i database.obj
 0002:00011220       ??4?$_Tree_const_iterator@V?$_Tree_val@U?$_Tree_simple_types@U?$pair@$$CBHV?$basic_string@DU?$char_traits@D@std@@V?$allocator@D@2@@std@@@std@@@std@@@std@@@std@@QAEAAV01@ABV01@@Z 00461220 f i database.obj
 0002:00011280       ??4?$_Tree_iterator@V?$_Tree_val@U?$_Tree_simple_types@U?$pair@$$CBHV?$basic_string@DU?$char_traits@D@std@@V?$allocator@D@2@@std@@@std@@@std@@@std@@@std@@QAEAAV01@ABV01@@Z 00461280 f i database.obj
 0002:000112e0       ??4?$_Tree_unchecked_const_iterator@V?$_Tree_val@U?$_Tree_simple_types@U?$pair@$$CBHV?$basic_string@DU?$char_traits@D@std@@V?$allocator@D@2@@std@@@std@@@std@@@std@@U_Iterator_base12@2@@std@@QAEAAV01@ABV01@@Z 004612e0 f i database.obj
 0002:00011350       ??4?$basic_string@DU?$char_traits@D@std@@V?$allocator@D@2@@std@@QAEAAV01@PBD@Z 00461350 f i database.obj
 0002:000113b0       ??4_Iterator_base12@std@@QAEAAU01@ABU01@@Z 004613b0 f i database.obj
 0002:000114f0       ??8?$_Tree_const_iterator@V?$_Tree_val@U?$_Tree_simple_types@U?$pair@$$CBHV?$basic_string@DU?$char_traits@D@std@@V?$allocator@D@2@@std@@@std@@@std@@@std@@@std@@QBE_NABV01@@Z 004614f0 f i database.obj
 0002:00011650       ??8error_category@std@@QBE_NABV01@@Z 00461650 f i database.obj
 0002:000116c0       ??8error_condition@std@@QBE_NABV01@@Z 004616c0 f i database.obj
 0002:00011770       ??9?$_Tree_const_iterator@V?$_Tree_val@U?$_Tree_simple_types@U?$pair@$$CBHV?$basic_string@DU?$char_traits@D@std@@V?$allocator@D@2@@std@@@std@@@std@@@std@@@std@@QBE_NABV01@@Z 00461770 f i database.obj
 0002:00011800       ??C?$_Tree_const_iterator@V?$_Tree_val@U?$_Tree_simple_types@U?$pair@$$CBHV?$basic_string@DU?$char_traits@D@std@@V?$allocator@D@2@@std@@@std@@@std@@@std@@@std@@QBEPBU?$pair@$$CBHV?$basic_string@DU?$char_traits@D@std@@V?$allocator@D@2@@std@@@1@XZ 00461800 f i database.obj
 0002:00011860       ??C?$_Tree_iterator@V?$_Tree_val@U?$_Tree_simple_types@U?$pair@$$CBHV?$basic_string@DU?$char_traits@D@std@@V?$allocator@D@2@@std@@@std@@@std@@@std@@@std@@QBEPAU?$pair@$$CBHV?$basic_string@DU?$char_traits@D@std@@V?$allocator@D@2@@std@@@1@XZ 00461860 f i database.obj
 0002:000118c0       ??D?$_Tree_const_iterator@V?$_Tree_val@U?$_Tree_simple_types@U?$pair@$$CBHV?$basic_string@DU?$char_traits@D@std@@V?$allocator@D@2@@std@@@std@@@std@@@std@@@std@@QBEABU?$pair@$$CBHV?$basic_string@DU?$char_traits@D@std@@V?$allocator@D@2@@std@@@1@XZ 004618c0 f i database.obj
 0002:00011a00       ??D?$_Tree_iterator@V?$_Tree_val@U?$_Tree_simple_types@U?$pair@$$CBHV?$basic_string@DU?$char_traits@D@std@@V?$allocator@D@2@@std@@@std@@@std@@@std@@@std@@QBEAAU?$pair@$$CBHV?$basic_string@DU?$char_traits@D@std@@V?$allocator@D@2@@std@@@1@XZ 00461a00 f i database.obj
 0002:00011a50       ??E?$_Tree_const_iterator@V?$_Tree_val@U?$_Tree_simple_types@U?$pair@$$CBHV?$basic_string@DU?$char_traits@D@std@@V?$allocator@D@2@@std@@@std@@@std@@@std@@@std@@QAE?AV01@H@Z 00461a50 f i database.obj
 0002:00011b70       ??E?$_Tree_const_iterator@V?$_Tree_val@U?$_Tree_simple_types@U?$pair@$$CBHV?$basic_string@DU?$char_traits@D@std@@V?$allocator@D@2@@std@@@std@@@std@@@std@@@std@@QAEAAV01@XZ 00461b70 f i database.obj
 0002:00011cb0       ??E?$_Tree_iterator@V?$_Tree_val@U?$_Tree_simple_types@U?$pair@$$CBHV?$basic_string@DU?$char_traits@D@std@@V?$allocator@D@2@@std@@@std@@@std@@@std@@@std@@QAEAAV01@XZ 00461cb0 f i database.obj
 0002:00011d10       ??E?$_Tree_unchecked_const_iterator@V?$_Tree_val@U?$_Tree_simple_types@U?$pair@$$CBHV?$basic_string@DU?$char_traits@D@std@@V?$allocator@D@2@@std@@@std@@@std@@@std@@U_Iterator_base12@2@@std@@QAEAAV01@XZ 00461d10 f i database.obj
 0002:00011e40       ??F?$_Tree_const_iterator@V?$_Tree_val@U?$_Tree_simple_types@U?$pair@$$CBHV?$basic_string@DU?$char_traits@D@std@@V?$allocator@D@2@@std@@@std@@@std@@@std@@@std@@QAEAAV01@XZ 00461e40 f i database.obj
 0002:00012020       ??F?$_Tree_iterator@V?$_Tree_val@U?$_Tree_simple_types@U?$pair@$$CBHV?$basic_string@DU?$char_traits@D@std@@V?$allocator@D@2@@std@@@std@@@std@@@std@@@std@@QAEAAV01@XZ 00462020 f i database.obj
 0002:00012080       ??F?$_Tree_unchecked_const_iterator@V?$_Tree_val@U?$_Tree_simple_types@U?$pair@$$CBHV?$basic_string@DU?$char_traits@D@std@@V?$allocator@D@2@@std@@@std@@@std@@@std@@U_Iterator_base12@2@@std@@QAEAAV01@XZ 00462080 f i database.obj
 0002:000121e0       ??R?$less@H@std@@QBE_NABH0@Z 004621e0 f i database.obj
 0002:00012250       ??_G?$pair@$$CBHV?$basic_string@DU?$char_traits@D@std@@V?$allocator@D@2@@std@@@std@@QAEPAXI@Z 00462250 f i database.obj
 0002:000122c0       ??_E_Generic_error_category@std@@UAEPAXI@Z 004622c0 f i database.obj
 0002:000122c0       ??_G_Generic_error_category@std@@UAEPAXI@Z 004622c0 f i database.obj
 0002:00012330       ??_E_Iostream_error_category@std@@UAEPAXI@Z 00462330 f i database.obj
 0002:00012330       ??_G_Iostream_error_category@std@@UAEPAXI@Z 00462330 f i database.obj
 0002:000123a0       ??_G_System_error_category@std@@UAEPAXI@Z 004623a0 f i database.obj
 0002:000123a0       ??_E_System_error_category@std@@UAEPAXI@Z 004623a0 f i database.obj
 0002:00012410       ??_Gdatabase@@UAEPAXI@Z    00462410 f i database.obj
 0002:00012410       ??_Edatabase@@UAEPAXI@Z    00462410 f i database.obj
 0002:00012480       ??_Eerror_category@std@@UAEPAXI@Z 00462480 f i database.obj
 0002:00012480       ??_Gerror_category@std@@UAEPAXI@Z 00462480 f i database.obj
 0002:000124f0       ?_Adopt@_Iterator_base12@std@@QAEXPBU_Container_base12@2@@Z 004624f0 f i database.obj
 0002:000126a0       ?_Alloc_proxy@?$_String_alloc@$0A@U?$_String_base_types@DV?$allocator@D@std@@@std@@@std@@QAEXXZ 004626a0 f i database.obj
 0002:00012770       ?_Alloc_proxy@?$_Tree_alloc@$0A@U?$_Tree_base_types@U?$pair@$$CBHV?$basic_string@DU?$char_traits@D@std@@V?$allocator@D@2@@std@@@std@@V?$allocator@U?$pair@$$CBHV?$basic_string@DU?$char_traits@D@std@@V?$allocator@D@2@@std@@@std@@@2@@std@@@std@@QAEXXZ 00462770 f i database.obj
 0002:00012850       ?_Assign_rv@?$basic_string@DU?$char_traits@D@std@@V?$allocator@D@2@@std@@QAEX$$QAV12@@Z 00462850 f i database.obj
 0002:00012940       ?_Buyheadnode@?$_Tree_alloc@$0A@U?$_Tree_base_types@U?$pair@$$CBHV?$basic_string@DU?$char_traits@D@std@@V?$allocator@D@2@@std@@@std@@V?$allocator@U?$pair@$$CBHV?$basic_string@DU?$char_traits@D@std@@V?$allocator@D@2@@std@@@std@@@2@@std@@@std@@QAEPAU?$_Tree_node@U?$pair@$$CBHV?$basic_string@DU?$char_traits@D@std@@V?$allocator@D@2@@std@@@std@@PAX@2@XZ 00462940 f i database.obj
 0002:00012b50       ?_Buynode0@?$_Tree_buy@U?$pair@$$CBHV?$basic_string@DU?$char_traits@D@std@@V?$allocator@D@2@@std@@@std@@V?$allocator@U?$pair@$$CBHV?$basic_string@DU?$char_traits@D@std@@V?$allocator@D@2@@std@@@std@@@2@@std@@QAEPAU?$_Tree_node@U?$pair@$$CBHV?$basic_string@DU?$char_traits@D@std@@V?$allocator@D@2@@std@@@std@@PAX@2@XZ 00462b50 f i database.obj
 0002:00012d10       ?_Clrcont@_Iterator_base12@std@@QAEXXZ 00462d10 f i database.obj
 0002:00012d50       ?_Color@?$_Tree_val@U?$_Tree_simple_types@U?$pair@$$CBHV?$basic_string@DU?$char_traits@D@std@@V?$allocator@D@2@@std@@@std@@@std@@@std@@SAAADPAU?$_Tree_node@U?$pair@$$CBHV?$basic_string@DU?$char_traits@D@std@@V?$allocator@D@2@@std@@@std@@PAX@2@@Z 00462d50 f i database.obj
 0002:00012d90       ?_Copy@?$basic_string@DU?$char_traits@D@std@@V?$allocator@D@2@@std@@QAEXII@Z 00462d90 f i database.obj
 0002:00013010       ?_Destroy_if_not_nil@?$_Tree@V?$_Tmap_traits@HV?$basic_string@DU?$char_traits@D@std@@V?$allocator@D@2@@std@@U?$less@H@2@V?$allocator@U?$pair@$$CBHV?$basic_string@DU?$char_traits@D@std@@V?$allocator@D@2@@std@@@std@@@2@$0A@@std@@@std@@IAEXPAU?$_Tree_node@U?$pair@$$CBHV?$basic_string@DU?$char_traits@D@std@@V?$allocator@D@2@@std@@@std@@PAX@2@@Z 00463010 f i database.obj
 0002:000130c0       ?_Eos@?$basic_string@DU?$char_traits@D@std@@V?$allocator@D@2@@std@@QAEXI@Z 004630c0 f i database.obj
 0002:00013140       ?_Erase@?$_Tree@V?$_Tmap_traits@HV?$basic_string@DU?$char_traits@D@std@@V?$allocator@D@2@@std@@U?$less@H@2@V?$allocator@U?$pair@$$CBHV?$basic_string@DU?$char_traits@D@std@@V?$allocator@D@2@@std@@@std@@@2@$0A@@std@@@std@@IAEXPAU?$_Tree_node@U?$pair@$$CBHV?$basic_string@DU?$char_traits@D@std@@V?$allocator@D@2@@std@@@std@@PAX@2@@Z 00463140 f i database.obj
 0002:00013250       ?_Free_proxy@?$_String_alloc@$0A@U?$_String_base_types@DV?$allocator@D@std@@@std@@@std@@QAEXXZ 00463250 f i database.obj
 0002:00013330       ?_Free_proxy@?$_Tree_alloc@$0A@U?$_Tree_base_types@U?$pair@$$CBHV?$basic_string@DU?$char_traits@D@std@@V?$allocator@D@2@@std@@@std@@V?$allocator@U?$pair@$$CBHV?$basic_string@DU?$char_traits@D@std@@V?$allocator@D@2@@std@@@std@@@2@@std@@@std@@QAEXXZ 00463330 f i database.obj
 0002:00013420       ?_Freeheadnode@?$_Tree_alloc@$0A@U?$_Tree_base_types@U?$pair@$$CBHV?$basic_string@DU?$char_traits@D@std@@V?$allocator@D@2@@std@@@std@@V?$allocator@U?$pair@$$CBHV?$basic_string@DU?$char_traits@D@std@@V?$allocator@D@2@@std@@@std@@@2@@std@@@std@@QAEXPAU?$_Tree_node@U?$pair@$$CBHV?$basic_string@DU?$char_traits@D@std@@V?$allocator@D@2@@std@@@std@@PAX@2@@Z 00463420 f i database.obj
 0002:00013530       ?_Freenode0@?$_Tree_buy@U?$pair@$$CBHV?$basic_string@DU?$char_traits@D@std@@V?$allocator@D@2@@std@@@std@@V?$allocator@U?$pair@$$CBHV?$basic_string@DU?$char_traits@D@std@@V?$allocator@D@2@@std@@@std@@@2@@std@@QAEXPAU?$_Tree_node@U?$pair@$$CBHV?$basic_string@DU?$char_traits@D@std@@V?$allocator@D@2@@std@@@std@@PAX@2@@Z 00463530 f i database.obj
 0002:00013640       ?_Getal@?$_String_alloc@$0A@U?$_String_base_types@DV?$allocator@D@std@@@std@@@std@@QBE?AU?$_Wrap_alloc@V?$allocator@D@std@@@2@XZ 00463640 f i database.obj
 0002:000136a0       ?_Getal@?$_Tree_alloc@$0A@U?$_Tree_base_types@U?$pair@$$CBHV?$basic_string@DU?$char_traits@D@std@@V?$allocator@D@2@@std@@@std@@V?$allocator@U?$pair@$$CBHV?$basic_string@DU?$char_traits@D@std@@V?$allocator@D@2@@std@@@std@@@2@@std@@@std@@QBE?AU?$_Wrap_alloc@V?$allocator@U?$_Tree_node@U?$pair@$$CBHV?$basic_string@DU?$char_traits@D@std@@V?$allocator@D@2@@std@@@std@@PAX@std@@@std@@@2@XZ 004636a0 f i database.obj
 0002:00013700       ?_Getcomp@?$_Tree_comp@$0A@V?$_Tmap_traits@HV?$basic_string@DU?$char_traits@D@std@@V?$allocator@D@2@@std@@U?$less@H@2@V?$allocator@U?$pair@$$CBHV?$basic_string@DU?$char_traits@D@std@@V?$allocator@D@2@@std@@@std@@@2@$0A@@std@@@std@@QBE?AU?$less@H@2@XZ 00463700 f i database.obj
 0002:00013740       ?_Getcont@_Iterator_base12@std@@QBEPBU_Container_base12@2@XZ 00463740 f i database.obj
 0002:000137b0       ?_Getpnext@_Iterator_base12@std@@QAEPAPAU12@XZ 004637b0 f i database.obj
 0002:000137f0       ?_Grow@?$basic_string@DU?$char_traits@D@std@@V?$allocator@D@2@@std@@QAE_NI_N@Z 004637f0 f i database.obj
 0002:00013910       ?_Inside@?$basic_string@DU?$char_traits@D@std@@V?$allocator@D@2@@std@@QAE_NPBD@Z 00463910 f i database.obj
 0002:00013990       ?_Isnil@?$_Tree_val@U?$_Tree_simple_types@U?$pair@$$CBHV?$basic_string@DU?$char_traits@D@std@@V?$allocator@D@2@@std@@@std@@@std@@@std@@SAAADPAU?$_Tree_node@U?$pair@$$CBHV?$basic_string@DU?$char_traits@D@std@@V?$allocator@D@2@@std@@@std@@PAX@2@@Z 00463990 f i database.obj
 0002:000139d0       ?_Key@?$_Tree@V?$_Tmap_traits@HV?$basic_string@DU?$char_traits@D@std@@V?$allocator@D@2@@std@@U?$less@H@2@V?$allocator@U?$pair@$$CBHV?$basic_string@DU?$char_traits@D@std@@V?$allocator@D@2@@std@@@std@@@2@$0A@@std@@@std@@IBEABHPAU?$_Tree_node@U?$pair@$$CBHV?$basic_string@DU?$char_traits@D@std@@V?$allocator@D@2@@std@@@std@@PAX@2@@Z 004639d0 f i database.obj
 0002:00013a40       ?_Kfn@?$_Tree@V?$_Tmap_traits@HV?$basic_string@DU?$char_traits@D@std@@V?$allocator@D@2@@std@@U?$less@H@2@V?$allocator@U?$pair@$$CBHV?$basic_string@DU?$char_traits@D@std@@V?$allocator@D@2@@std@@@std@@@2@$0A@@std@@@std@@IBEABHABU?$pair@$$CBHV?$basic_string@DU?$char_traits@D@std@@V?$allocator@D@2@@std@@@2@@Z 00463a40 f i database.obj
 0002:00013aa0       ?_Lbound@?$_Tree@V?$_Tmap_traits@HV?$basic_string@DU?$char_traits@D@std@@V?$allocator@D@2@@std@@U?$less@H@2@V?$allocator@U?$pair@$$CBHV?$basic_string@DU?$char_traits@D@std@@V?$allocator@D@2@@std@@@std@@@2@$0A@@std@@@std@@IAEPAU?$_Tree_node@U?$pair@$$CBHV?$basic_string@DU?$char_traits@D@std@@V?$allocator@D@2@@std@@@std@@PAX@2@ABH@Z 00463aa0 f i database.obj
 0002:00013bb0       ?_Left@?$_Tree_val@U?$_Tree_simple_types@U?$pair@$$CBHV?$basic_string@DU?$char_traits@D@std@@V?$allocator@D@2@@std@@@std@@@std@@@std@@SAAAPAU?$_Tree_node@U?$pair@$$CBHV?$basic_string@DU?$char_traits@D@std@@V?$allocator@D@2@@std@@@std@@PAX@2@PAU32@@Z 00463bb0 f i database.obj
 0002:00013bf0       ?_Lmost@?$_Tree@V?$_Tmap_traits@HV?$basic_string@DU?$char_traits@D@std@@V?$allocator@D@2@@std@@U?$less@H@2@V?$allocator@U?$pair@$$CBHV?$basic_string@DU?$char_traits@D@std@@V?$allocator@D@2@@std@@@std@@@2@$0A@@std@@@std@@IBEAAPAU?$_Tree_node@U?$pair@$$CBHV?$basic_string@DU?$char_traits@D@std@@V?$allocator@D@2@@std@@@std@@PAX@2@XZ 00463bf0 f i database.obj
 0002:00013c50       ?_Lrotate@?$_Tree@V?$_Tmap_traits@HV?$basic_string@DU?$char_traits@D@std@@V?$allocator@D@2@@std@@U?$less@H@2@V?$allocator@U?$pair@$$CBHV?$basic_string@DU?$char_traits@D@std@@V?$allocator@D@2@@std@@@std@@@2@$0A@@std@@@std@@IAEXPAU?$_Tree_node@U?$pair@$$CBHV?$basic_string@DU?$char_traits@D@std@@V?$allocator@D@2@@std@@@std@@PAX@2@@Z 00463c50 f i database.obj
 0002:00013e00       ?_Max@?$_Tree_val@U?$_Tree_simple_types@U?$pair@$$CBHV?$basic_string@DU?$char_traits@D@std@@V?$allocator@D@2@@std@@@std@@@std@@@std@@SAPAU?$_Tree_node@U?$pair@$$CBHV?$basic_string@DU?$char_traits@D@std@@V?$allocator@D@2@@std@@@std@@PAX@2@PAU32@@Z 00463e00 f i database.obj
 0002:00013e80       ?_Min@?$_Tree_val@U?$_Tree_simple_types@U?$pair@$$CBHV?$basic_string@DU?$char_traits@D@std@@V?$allocator@D@2@@std@@@std@@@std@@@std@@SAPAU?$_Tree_node@U?$pair@$$CBHV?$basic_string@DU?$char_traits@D@std@@V?$allocator@D@2@@std@@@std@@PAX@2@PAU32@@Z 00463e80 f i database.obj
 0002:00013f00       ?_Mynode@?$_Tree_unchecked_const_iterator@V?$_Tree_val@U?$_Tree_simple_types@U?$pair@$$CBHV?$basic_string@DU?$char_traits@D@std@@V?$allocator@D@2@@std@@@std@@@std@@@std@@U_Iterator_base12@2@@std@@QBEPAU?$_Tree_node@U?$pair@$$CBHV?$basic_string@DU?$char_traits@D@std@@V?$allocator@D@2@@std@@@std@@PAX@2@XZ 00463f00 f i database.obj
 0002:00013f40       ?_Myptr@?$_String_val@U?$_Simple_types@D@std@@@std@@QAEPADXZ 00463f40 f i database.obj
 0002:00013fd0       ?_Myptr@?$_String_val@U?$_Simple_types@D@std@@@std@@QBEPBDXZ 00463fd0 f i database.obj
 0002:00014060       ?_Myval@?$_Tree_val@U?$_Tree_simple_types@U?$pair@$$CBHV?$basic_string@DU?$char_traits@D@std@@V?$allocator@D@2@@std@@@std@@@std@@@std@@SAAAU?$pair@$$CBHV?$basic_string@DU?$char_traits@D@std@@V?$allocator@D@2@@std@@@2@PAU?$_Tree_node@U?$pair@$$CBHV?$basic_string@DU?$char_traits@D@std@@V?$allocator@D@2@@std@@@std@@PAX@2@@Z 00464060 f i database.obj
 0002:000140a0       ?_Orphan_me@_Iterator_base12@std@@QAEXXZ 004640a0 f i database.obj
 0002:00014170       ?_Orphan_ptr@?$_Tree@V?$_Tmap_traits@HV?$basic_string@DU?$char_traits@D@std@@V?$allocator@D@2@@std@@U?$less@H@2@V?$allocator@U?$pair@$$CBHV?$basic_string@DU?$char_traits@D@std@@V?$allocator@D@2@@std@@@std@@@2@$0A@@std@@@std@@IBEXAAV12@PAU?$_Tree_node@U?$pair@$$CBHV?$basic_string@DU?$char_traits@D@std@@V?$allocator@D@2@@std@@@std@@PAX@2@@Z 00464170 f i database.obj
 0002:00014300       ?_Parent@?$_Tree_val@U?$_Tree_simple_types@U?$pair@$$CBHV?$basic_string@DU?$char_traits@D@std@@V?$allocator@D@2@@std@@@std@@@std@@@std@@SAAAPAU?$_Tree_node@U?$pair@$$CBHV?$basic_string@DU?$char_traits@D@std@@V?$allocator@D@2@@std@@@std@@PAX@2@PAU32@@Z 00464300 f i database.obj
 0002:00014340       ?_Right@?$_Tree_val@U?$_Tree_simple_types@U?$pair@$$CBHV?$basic_string@DU?$char_traits@D@std@@V?$allocator@D@2@@std@@@std@@@std@@@std@@SAAAPAU?$_Tree_node@U?$pair@$$CBHV?$basic_string@DU?$char_traits@D@std@@V?$allocator@D@2@@std@@@std@@PAX@2@PAU32@@Z 00464340 f i database.obj
 0002:00014380       ?_Rmost@?$_Tree@V?$_Tmap_traits@HV?$basic_string@DU?$char_traits@D@std@@V?$allocator@D@2@@std@@U?$less@H@2@V?$allocator@U?$pair@$$CBHV?$basic_string@DU?$char_traits@D@std@@V?$allocator@D@2@@std@@@std@@@2@$0A@@std@@@std@@IBEAAPAU?$_Tree_node@U?$pair@$$CBHV?$basic_string@DU?$char_traits@D@std@@V?$allocator@D@2@@std@@@std@@PAX@2@XZ 00464380 f i database.obj
 0002:000143e0       ?_Root@?$_Tree@V?$_Tmap_traits@HV?$basic_string@DU?$char_traits@D@std@@V?$allocator@D@2@@std@@U?$less@H@2@V?$allocator@U?$pair@$$CBHV?$basic_string@DU?$char_traits@D@std@@V?$allocator@D@2@@std@@@std@@@2@$0A@@std@@@std@@IBEAAPAU?$_Tree_node@U?$pair@$$CBHV?$basic_string@DU?$char_traits@D@std@@V?$allocator@D@2@@std@@@std@@PAX@2@XZ 004643e0 f i database.obj
 0002:00014440       ?_Rrotate@?$_Tree@V?$_Tmap_traits@HV?$basic_string@DU?$char_traits@D@std@@V?$allocator@D@2@@std@@U?$less@H@2@V?$allocator@U?$pair@$$CBHV?$basic_string@DU?$char_traits@D@std@@V?$allocator@D@2@@std@@@std@@@2@$0A@@std@@@std@@IAEXPAU?$_Tree_node@U?$pair@$$CBHV?$basic_string@DU?$char_traits@D@std@@V?$allocator@D@2@@std@@@std@@PAX@2@@Z 00464440 f i database.obj
 0002:000145f0       ?_Tidy@?$_Tree@V?$_Tmap_traits@HV?$basic_string@DU?$char_traits@D@std@@V?$allocator@D@2@@std@@U?$less@H@2@V?$allocator@U?$pair@$$CBHV?$basic_string@DU?$char_traits@D@std@@V?$allocator@D@2@@std@@@std@@@2@$0A@@std@@@std@@IAEXXZ 004645f0 f i database.obj
 0002:00014790       ?_Tidy@?$basic_string@DU?$char_traits@D@std@@V?$allocator@D@2@@std@@QAEX_NI@Z 00464790 f i database.obj
 0002:000148a0       ?_Xlen@?$basic_string@DU?$char_traits@D@std@@V?$allocator@D@2@@std@@QBEXXZ 004648a0 f i database.obj
 0002:00014900       ?_Xran@?$basic_string@DU?$char_traits@D@std@@V?$allocator@D@2@@std@@QBEXXZ 00464900 f i database.obj
 0002:00014960       ?allocate@?$_Wrap_alloc@V?$allocator@D@std@@@std@@QAEPADI@Z 00464960 f i database.obj
 0002:000149c0       ?allocate@?$_Wrap_alloc@V?$allocator@U?$_Tree_node@U?$pair@$$CBHV?$basic_string@DU?$char_traits@D@std@@V?$allocator@D@2@@std@@@std@@PAX@std@@@std@@@std@@QAEPAU?$_Tree_node@U?$pair@$$CBHV?$basic_string@DU?$char_traits@D@std@@V?$allocator@D@2@@std@@@std@@PAX@2@I@Z 004649c0 f i database.obj
 0002:00014a20       ?allocate@?$_Wrap_alloc@V?$allocator@U_Container_proxy@std@@@std@@@std@@QAEPAU_Container_proxy@2@I@Z 00464a20 f i database.obj
 0002:00014a80       ?allocate@?$allocator@D@std@@QAEPADI@Z 00464a80 f i database.obj
 0002:00014ae0       ?allocate@?$allocator@U?$_Tree_node@U?$pair@$$CBHV?$basic_string@DU?$char_traits@D@std@@V?$allocator@D@2@@std@@@std@@PAX@std@@@std@@QAEPAU?$_Tree_node@U?$pair@$$CBHV?$basic_string@DU?$char_traits@D@std@@V?$allocator@D@2@@std@@@std@@PAX@2@I@Z 00464ae0 f i database.obj
 0002:00014b40       ?allocate@?$allocator@U_Container_proxy@std@@@std@@QAEPAU_Container_proxy@2@I@Z 00464b40 f i database.obj
 0002:00014ba0       ?assign@?$basic_string@DU?$char_traits@D@std@@V?$allocator@D@2@@std@@QAEAAV12@ABV12@II@Z 00464ba0 f i database.obj
 0002:00014cb0       ?assign@?$basic_string@DU?$char_traits@D@std@@V?$allocator@D@2@@std@@QAEAAV12@PBD@Z 00464cb0 f i database.obj
 0002:00014d40       ?assign@?$basic_string@DU?$char_traits@D@std@@V?$allocator@D@2@@std@@QAEAAV12@PBDI@Z 00464d40 f i database.obj
 0002:00014e40       ?assign@?$char_traits@D@std@@SAXAADABD@Z 00464e40 f i database.obj
 0002:00014e80       ?begin@?$_Tree@V?$_Tmap_traits@HV?$basic_string@DU?$char_traits@D@std@@V?$allocator@D@2@@std@@U?$less@H@2@V?$allocator@U?$pair@$$CBHV?$basic_string@DU?$char_traits@D@std@@V?$allocator@D@2@@std@@@std@@@2@$0A@@std@@@std@@QAE?AV?$_Tree_iterator@V?$_Tree_val@U?$_Tree_simple_types@U?$pair@$$CBHV?$basic_string@DU?$char_traits@D@std@@V?$allocator@D@2@@std@@@std@@@std@@@std@@@2@XZ 00464e80 f i database.obj
 0002:00014f50       ?c_str@?$basic_string@DU?$char_traits@D@std@@V?$allocator@D@2@@std@@QBEPBDXZ 00464f50 f i database.obj
 0002:00014fa0       ?category@error_code@std@@QBEABVerror_category@2@XZ 00464fa0 f i database.obj
 0002:00014fe0       ?category@error_condition@std@@QBEABVerror_category@2@XZ 00464fe0 f i database.obj
 0002:00015020       ?clear@?$_Tree@V?$_Tmap_traits@HV?$basic_string@DU?$char_traits@D@std@@V?$allocator@D@2@@std@@U?$less@H@2@V?$allocator@U?$pair@$$CBHV?$basic_string@DU?$char_traits@D@std@@V?$allocator@D@2@@std@@@std@@@2@$0A@@std@@@std@@QAEXXZ 00465020 f i database.obj
 0002:000150e0       ?compare@?$basic_string@DU?$char_traits@D@std@@V?$allocator@D@2@@std@@QBEHIIPBDI@Z 004650e0 f i database.obj
 0002:00015250       ?compare@?$basic_string@DU?$char_traits@D@std@@V?$allocator@D@2@@std@@QBEHPBD@Z 00465250 f i database.obj
 0002:000152e0       ?compare@?$char_traits@D@std@@SAHPBD0I@Z 004652e0 f i database.obj
 0002:00015360       ?copy@?$char_traits@D@std@@SAPADPADPBDI@Z 00465360 f i database.obj
 0002:000153e0       ?deallocate@?$_Wrap_alloc@V?$allocator@D@std@@@std@@QAEXPADI@Z 004653e0 f i database.obj
 0002:00015440       ?deallocate@?$_Wrap_alloc@V?$allocator@U?$_Tree_node@U?$pair@$$CBHV?$basic_string@DU?$char_traits@D@std@@V?$allocator@D@2@@std@@@std@@PAX@std@@@std@@@std@@QAEXPAU?$_Tree_node@U?$pair@$$CBHV?$basic_string@DU?$char_traits@D@std@@V?$allocator@D@2@@std@@@std@@PAX@2@I@Z 00465440 f i database.obj
 0002:000154a0       ?deallocate@?$_Wrap_alloc@V?$allocator@U_Container_proxy@std@@@std@@@std@@QAEXPAU_Container_proxy@2@I@Z 004654a0 f i database.obj
 0002:00015500       ?deallocate@?$allocator@D@std@@QAEXPADI@Z 00465500 f i database.obj
 0002:00015560       ?deallocate@?$allocator@U?$_Tree_node@U?$pair@$$CBHV?$basic_string@DU?$char_traits@D@std@@V?$allocator@D@2@@std@@@std@@PAX@std@@@std@@QAEXPAU?$_Tree_node@U?$pair@$$CBHV?$basic_string@DU?$char_traits@D@std@@V?$allocator@D@2@@std@@@std@@PAX@2@I@Z 00465560 f i database.obj
 0002:000155c0       ?deallocate@?$allocator@U_Container_proxy@std@@@std@@QAEXPAU_Container_proxy@2@I@Z 004655c0 f i database.obj
 0002:00015620       ?default_error_condition@_System_error_category@std@@UBE?AVerror_condition@2@H@Z 00465620 f i database.obj
 0002:000156d0       ?default_error_condition@error_category@std@@UBE?AVerror_condition@2@H@Z 004656d0 f i database.obj
 0002:00015730       ?end@?$_Tree@V?$_Tmap_traits@HV?$basic_string@DU?$char_traits@D@std@@V?$allocator@D@2@@std@@U?$less@H@2@V?$allocator@U?$pair@$$CBHV?$basic_string@DU?$char_traits@D@std@@V?$allocator@D@2@@std@@@std@@@2@$0A@@std@@@std@@QAE?AV?$_Tree_iterator@V?$_Tree_val@U?$_Tree_simple_types@U?$pair@$$CBHV?$basic_string@DU?$char_traits@D@std@@V?$allocator@D@2@@std@@@std@@@std@@@std@@@2@XZ 00465730 f i database.obj
 0002:000157f0       ?equivalent@error_category@std@@UBE_NABVerror_code@2@H@Z 004657f0 f i database.obj
 0002:00015890       ?equivalent@error_category@std@@UBE_NHABVerror_condition@2@@Z 00465890 f i database.obj
 0002:00015910       ?erase@?$_Tree@V?$_Tmap_traits@HV?$basic_string@DU?$char_traits@D@std@@V?$allocator@D@2@@std@@U?$less@H@2@V?$allocator@U?$pair@$$CBHV?$basic_string@DU?$char_traits@D@std@@V?$allocator@D@2@@std@@@std@@@2@$0A@@std@@@std@@QAE?AV?$_Tree_iterator@V?$_Tree_val@U?$_Tree_simple_types@U?$pair@$$CBHV?$basic_string@DU?$char_traits@D@std@@V?$allocator@D@2@@std@@@std@@@std@@@std@@@2@V?$_Tree_const_iterator@V?$_Tree_val@U?$_Tree_simple_types@U?$pair@$$CBHV?$basic_string@DU?$char_traits@D@std@@V?$allocator@D@2@@std@@@std@@@std@@@std@@@2@0@Z 00465910 f i database.obj
 0002:00015c40       ?erase@?$_Tree@V?$_Tmap_traits@HV?$basic_string@DU?$char_traits@D@std@@V?$allocator@D@2@@std@@U?$less@H@2@V?$allocator@U?$pair@$$CBHV?$basic_string@DU?$char_traits@D@std@@V?$allocator@D@2@@std@@@std@@@2@$0A@@std@@@std@@QAE?AV?$_Tree_iterator@V?$_Tree_val@U?$_Tree_simple_types@U?$pair@$$CBHV?$basic_string@DU?$char_traits@D@std@@V?$allocator@D@2@@std@@@std@@@std@@@std@@@2@V?$_Tree_const_iterator@V?$_Tree_val@U?$_Tree_simple_types@U?$pair@$$CBHV?$basic_string@DU?$char_traits@D@std@@V?$allocator@D@2@@std@@@std@@@std@@@std@@@2@@Z 00465c40 f i database.obj
 0002:000166c0       ?erase@?$basic_string@DU?$char_traits@D@std@@V?$allocator@D@2@@std@@QAEAAV12@I@Z 004666c0 f i database.obj
 0002:00016740       ?erase@?$basic_string@DU?$char_traits@D@std@@V?$allocator@D@2@@std@@QAEAAV12@II@Z 00466740 f i database.obj
 0002:00016820       ?find@?$_Tree@V?$_Tmap_traits@HV?$basic_string@DU?$char_traits@D@std@@V?$allocator@D@2@@std@@U?$less@H@2@V?$allocator@U?$pair@$$CBHV?$basic_string@DU?$char_traits@D@std@@V?$allocator@D@2@@std@@@std@@@2@$0A@@std@@@std@@QAE?AV?$_Tree_iterator@V?$_Tree_val@U?$_Tree_simple_types@U?$pair@$$CBHV?$basic_string@DU?$char_traits@D@std@@V?$allocator@D@2@@std@@@std@@@std@@@std@@@2@ABH@Z 00466820 f i database.obj
 0002:00016b30       ?generic_category@std@@YAABVerror_category@1@XZ 00466b30 f i database.obj
 0002:00016b70       ?length@?$basic_string@DU?$char_traits@D@std@@V?$allocator@D@2@@std@@QBEIXZ 00466b70 f i database.obj
 0002:00016bb0       ?length@?$char_traits@D@std@@SAIPBD@Z 00466bb0 f i database.obj
 0002:00016c30       ?lower_bound@?$_Tree@V?$_Tmap_traits@HV?$basic_string@DU?$char_traits@D@std@@V?$allocator@D@2@@std@@U?$less@H@2@V?$allocator@U?$pair@$$CBHV?$basic_string@DU?$char_traits@D@std@@V?$allocator@D@2@@std@@@std@@@2@$0A@@std@@@std@@QAE?AV?$_Tree_iterator@V?$_Tree_val@U?$_Tree_simple_types@U?$pair@$$CBHV?$basic_string@DU?$char_traits@D@std@@V?$allocator@D@2@@std@@@std@@@std@@@std@@@2@ABH@Z 00466c30 f i database.obj
 0002:00016d00       ?max_size@?$_Tree@V?$_Tmap_traits@HV?$basic_string@DU?$char_traits@D@std@@V?$allocator@D@2@@std@@U?$less@H@2@V?$allocator@U?$pair@$$CBHV?$basic_string@DU?$char_traits@D@std@@V?$allocator@D@2@@std@@@std@@@2@$0A@@std@@@std@@QBEIXZ 00466d00 f i database.obj
 0002:00016d60       ?max_size@?$_Wrap_alloc@V?$allocator@D@std@@@std@@QBEIXZ 00466d60 f i database.obj
 0002:00016dc0       ?max_size@?$_Wrap_alloc@V?$allocator@U?$_Tree_node@U?$pair@$$CBHV?$basic_string@DU?$char_traits@D@std@@V?$allocator@D@2@@std@@@std@@PAX@std@@@std@@@std@@QBEIXZ 00466dc0 f i database.obj
 0002:00016e20       ?max_size@?$allocator@D@std@@QBEIXZ 00466e20 f i database.obj
 0002:00016e60       ?max_size@?$allocator@U?$_Tree_node@U?$pair@$$CBHV?$basic_string@DU?$char_traits@D@std@@V?$allocator@D@2@@std@@@std@@PAX@std@@@std@@QBEIXZ 00466e60 f i database.obj
 0002:00016ea0       ?max_size@?$allocator_traits@V?$allocator@D@std@@@std@@SAIABV?$allocator@D@2@@Z 00466ea0 f i database.obj
 0002:00016ef0       ?max_size@?$allocator_traits@V?$allocator@U?$_Tree_node@U?$pair@$$CBHV?$basic_string@DU?$char_traits@D@std@@V?$allocator@D@2@@std@@@std@@PAX@std@@@std@@@std@@SAIABV?$allocator@U?$_Tree_node@U?$pair@$$CBHV?$basic_string@DU?$char_traits@D@std@@V?$allocator@D@2@@std@@@std@@PAX@std@@@2@@Z 00466ef0 f i database.obj
 0002:00016f40       ?max_size@?$basic_string@DU?$char_traits@D@std@@V?$allocator@D@2@@std@@QBEIXZ 00466f40 f i database.obj
 0002:00016fe0       ?message@_Generic_error_category@std@@UBE?AV?$basic_string@DU?$char_traits@D@std@@V?$allocator@D@2@@2@H@Z 00466fe0 f i database.obj
 0002:000170e0       ?message@_Iostream_error_category@std@@UBE?AV?$basic_string@DU?$char_traits@D@std@@V?$allocator@D@2@@2@H@Z 004670e0 f i database.obj
 0002:000171e0       ?message@_System_error_category@std@@UBE?AV?$basic_string@DU?$char_traits@D@std@@V?$allocator@D@2@@2@H@Z 004671e0 f i database.obj
 0002:000172e0       ?move@?$char_traits@D@std@@SAPADPADPBDI@Z 004672e0 f i database.obj
 0002:00017370       ?name@_Generic_error_category@std@@UBEPBDXZ 00467370 f i database.obj
 0002:000173b0       ?name@_Iostream_error_category@std@@UBEPBDXZ 004673b0 f i database.obj
 0002:000173f0       ?name@_System_error_category@std@@UBEPBDXZ 004673f0 f i database.obj
 0002:00017430       ?pointer_to@?$pointer_traits@PAU?$pair@$$CBHV?$basic_string@DU?$char_traits@D@std@@V?$allocator@D@2@@std@@@std@@@std@@SAPAU?$pair@$$CBHV?$basic_string@DU?$char_traits@D@std@@V?$allocator@D@2@@std@@@2@AAU32@@Z 00467430 f i database.obj
 0002:00017480       ?pointer_to@?$pointer_traits@PBU?$pair@$$CBHV?$basic_string@DU?$char_traits@D@std@@V?$allocator@D@2@@std@@@std@@@std@@SAPBU?$pair@$$CBHV?$basic_string@DU?$char_traits@D@std@@V?$allocator@D@2@@std@@@2@ABU32@@Z 00467480 f i database.obj
 0002:000174d0       ?size@?$_Tree@V?$_Tmap_traits@HV?$basic_string@DU?$char_traits@D@std@@V?$allocator@D@2@@std@@U?$less@H@2@V?$allocator@U?$pair@$$CBHV?$basic_string@DU?$char_traits@D@std@@V?$allocator@D@2@@std@@@std@@@2@$0A@@std@@@std@@QBEIXZ 004674d0 f i database.obj
 0002:00017510       ?size@?$basic_string@DU?$char_traits@D@std@@V?$allocator@D@2@@std@@QBEIXZ 00467510 f i database.obj
 0002:00017550       ?strchr@@YAPADPADH@Z       00467550 f i database.obj
 0002:000175b0       ?strstr@@YAPADPADPBD@Z     004675b0 f i database.obj
 0002:00017610       ?system_category@std@@YAABVerror_category@1@XZ 00467610 f i database.obj
 0002:00017650       ?value@error_code@std@@QBEHXZ 00467650 f i database.obj
 0002:00017690       ?value@error_condition@std@@QBEHXZ 00467690 f i database.obj
 0002:000176d0       _hypot                     004676d0 f i database.obj
 0002:00017750       ??0databaseMgr@@QAE@PBD@Z  00467750 f   databaseMgr.obj
 0002:000177f0       ??0databaseMgr@@QAE@XZ     004677f0 f   databaseMgr.obj
 0002:00017990       ??1databaseMgr@@UAE@XZ     00467990 f   databaseMgr.obj
 0002:00017a20       ?setPath@databaseMgr@@QAEXPBD@Z 00467a20 f   databaseMgr.obj
 0002:00017af0       ?getName@databaseMgr@@QAEPBDHHH@Z 00467af0 f   databaseMgr.obj
 0002:00017b70       ?getName@databaseMgr@@QAE_NHHHPADH@Z 00467b70 f   databaseMgr.obj
 0002:00017c30       ?getIndex@databaseMgr@@QAEHHHPBDHH@Z 00467c30 f   databaseMgr.obj
 0002:00017ca0       ?getIndex@databaseMgr@@QAEHHHPBD_N1@Z 00467ca0 f   databaseMgr.obj
 0002:00017d10       ?setName@databaseMgr@@QAE_NHHHPBD_NPA_N@Z 00467d10 f   databaseMgr.obj
 0002:00017d90       ?exists@databaseMgr@@QAE_NHHHH@Z 00467d90 f   databaseMgr.obj
 0002:00017e40       ?numLoaded@databaseMgr@@QAEHXZ 00467e40 f   databaseMgr.obj
 0002:00017e90       ?path@databaseMgr@@QAEPBDXZ 00467e90 f   databaseMgr.obj
 0002:00017ec0       ?createDatabase@databaseMgr@@QAE_NPBDHHHHHHHHHHH@Z 00467ec0 f   databaseMgr.obj
 0002:000181d0       ?size@databaseMgr@@QAEHHH@Z 004681d0 f   databaseMgr.obj
 0002:000182d0       ?exists@databaseMgr@@QAEHHH@Z 004682d0 f   databaseMgr.obj
 0002:00018330       ?clear@databaseMgr@@QAEXH@Z 00468330 f   databaseMgr.obj
 0002:00018640       ?dump@databaseMgr@@QAE_NXZ 00468640 f   databaseMgr.obj
 0002:00018900       ?loadDump@databaseMgr@@QAE_NHH@Z 00468900 f   databaseMgr.obj
 0002:00018aa0       ?doCreate@databaseMgr@@AAEPAVdatabase@@HH@Z 00468aa0 f   databaseMgr.obj
 0002:00018b70       ?WritePrivateProfileInt@databaseMgr@@AAEHPBD0H0@Z 00468b70 f   databaseMgr.obj
 0002:00019160       ??$?0AAV?$_Tree_iterator@V?$_Tree_val@U?$_Tree_simple_types@U?$pair@$$CBHPAVdatabase@@@std@@@std@@@std@@@std@@_NX@?$pair@V?$_Tree_iterator@V?$_Tree_val@U?$_Tree_simple_types@U?$pair@$$CBHPAVdatabase@@@std@@@std@@@std@@@std@@_N@std@@QAE@AAV?$_Tree_iterator@V?$_Tree_val@U?$_Tree_simple_types@U?$pair@$$CBHPAVdatabase@@@std@@@std@@@std@@@1@$$QA_N@Z 00469160 f i databaseMgr.obj
 0002:00019230       ??$?0HAAPAVdatabase@@X@?$pair@HPAVdatabase@@@std@@QAE@$$QAHAAPAVdatabase@@@Z 00469230 f i databaseMgr.obj
 0002:000192b0       ??$?0HPAVdatabase@@X@?$pair@$$CBHPAVdatabase@@@std@@QAE@$$QAU?$pair@HPAVdatabase@@@1@@Z 004692b0 f i databaseMgr.obj
 0002:00019330       ??$?0U?$_Tree_node@U?$pair@$$CBHPAVdatabase@@@std@@PAX@std@@@?$allocator@U_Container_proxy@std@@@std@@QAE@ABV?$allocator@U?$_Tree_node@U?$pair@$$CBHPAVdatabase@@@std@@PAX@std@@@1@@Z 00469330 f i databaseMgr.obj
 0002:00019370       ??$?0U?$_Wrap_alloc@V?$allocator@U?$_Tree_node@U?$pair@$$CBHPAVdatabase@@@std@@PAX@std@@@std@@@std@@@?$_Wrap_alloc@V?$allocator@U_Container_proxy@std@@@std@@@std@@QAE@ABU?$_Wrap_alloc@V?$allocator@U?$_Tree_node@U?$pair@$$CBHPAVdatabase@@@std@@PAX@std@@@std@@@1@@Z 00469370 f i databaseMgr.obj
 0002:000193d0       ??$?0V?$_Tree_iterator@V?$_Tree_val@U?$_Tree_simple_types@U?$pair@$$CBHPAVdatabase@@@std@@@std@@@std@@@std@@_NX@?$pair@V?$_Tree_iterator@V?$_Tree_val@U?$_Tree_simple_types@U?$pair@$$CBHPAVdatabase@@@std@@@std@@@std@@@std@@_N@std@@QAE@$$QAV?$_Tree_iterator@V?$_Tree_val@U?$_Tree_simple_types@U?$pair@$$CBHPAVdatabase@@@std@@@std@@@std@@@1@$$QA_N@Z 004693d0 f i databaseMgr.obj
 0002:000194a0       ??$_Allocate@U?$_Tree_node@U?$pair@$$CBHPAVdatabase@@@std@@PAX@std@@@std@@YAPAU?$_Tree_node@U?$pair@$$CBHPAVdatabase@@@std@@PAX@0@IPAU10@@Z 004694a0 f i databaseMgr.obj
 0002:00019530       ??$_Buynode@U?$pair@HPAVdatabase@@@std@@@?$_Tree_buy@U?$pair@$$CBHPAVdatabase@@@std@@V?$allocator@U?$pair@$$CBHPAVdatabase@@@std@@@2@@std@@QAEPAU?$_Tree_node@U?$pair@$$CBHPAVdatabase@@@std@@PAX@1@$$QAU?$pair@HPAVdatabase@@@1@@Z 00469530 f i databaseMgr.obj
 0002:00019670       ??$_Buynode_if_nil@AAU?$pair@$$CBHPAVdatabase@@@std@@@?$_Tree@V?$_Tmap_traits@HPAVdatabase@@U?$less@H@std@@V?$allocator@U?$pair@$$CBHPAVdatabase@@@std@@@3@$0A@@std@@@std@@IAEPAU?$_Tree_node@U?$pair@$$CBHPAVdatabase@@@std@@PAX@1@PAU21@AAU?$pair@$$CBHPAVdatabase@@@1@@Z 00469670 f i databaseMgr.obj
 0002:000196b0       ??$_Insert_at@AAU?$pair@$$CBHPAVdatabase@@@std@@PAU?$_Tree_node@U?$pair@$$CBHPAVdatabase@@@std@@PAX@2@@?$_Tree@V?$_Tmap_traits@HPAVdatabase@@U?$less@H@std@@V?$allocator@U?$pair@$$CBHPAVdatabase@@@std@@@3@$0A@@std@@@std@@IAE?AV?$_Tree_iterator@V?$_Tree_val@U?$_Tree_simple_types@U?$pair@$$CBHPAVdatabase@@@std@@@std@@@std@@@1@_NPAU?$_Tree_node@U?$pair@$$CBHPAVdatabase@@@std@@PAX@1@AAU?$pair@$$CBHPAVdatabase@@@1@1@Z 004696b0 f i databaseMgr.obj
 0002:00019c80       ??$_Insert_nohint@AAU?$pair@$$CBHPAVdatabase@@@std@@PAU?$_Tree_node@U?$pair@$$CBHPAVdatabase@@@std@@PAX@2@@?$_Tree@V?$_Tmap_traits@HPAVdatabase@@U?$less@H@std@@V?$allocator@U?$pair@$$CBHPAVdatabase@@@std@@@3@$0A@@std@@@std@@IAE?AU?$pair@V?$_Tree_iterator@V?$_Tree_val@U?$_Tree_simple_types@U?$pair@$$CBHPAVdatabase@@@std@@@std@@@std@@@std@@_N@1@_NAAU?$pair@$$CBHPAVdatabase@@@1@PAU?$_Tree_node@U?$pair@$$CBHPAVdatabase@@@std@@PAX@1@@Z 00469c80 f i databaseMgr.obj
 0002:0001a290       ??$_Kfn@$$CBHPAVdatabase@@@?$_Tmap_traits@HPAVdatabase@@U?$less@H@std@@V?$allocator@U?$pair@$$CBHPAVdatabase@@@std@@@3@$0A@@std@@SAABHABU?$pair@$$CBHPAVdatabase@@@1@@Z 0046a290 f i databaseMgr.obj
 0002:0001a2d0       ??$addressof@$$CBU?$pair@$$CBHPAVdatabase@@@std@@@std@@YAPBU?$pair@$$CBHPAVdatabase@@@0@ABU10@@Z 0046a2d0 f i databaseMgr.obj
 0002:0001a310       ??$addressof@PAU?$_Tree_node@U?$pair@$$CBHPAVdatabase@@@std@@PAX@std@@@std@@YAPAPAU?$_Tree_node@U?$pair@$$CBHPAVdatabase@@@std@@PAX@0@AAPAU10@@Z 0046a310 f i databaseMgr.obj
 0002:0001a350       ??$addressof@U?$pair@$$CBHPAVdatabase@@@std@@@std@@YAPAU?$pair@$$CBHPAVdatabase@@@0@AAU10@@Z 0046a350 f i databaseMgr.obj
 0002:0001a390       ??$construct@PAU?$_Tree_node@U?$pair@$$CBHPAVdatabase@@@std@@PAX@std@@AAPAU12@@?$_Wrap_alloc@V?$allocator@U?$_Tree_node@U?$pair@$$CBHPAVdatabase@@@std@@PAX@std@@@std@@@std@@QAEXPAPAU?$_Tree_node@U?$pair@$$CBHPAVdatabase@@@std@@PAX@1@AAPAU21@@Z 0046a390 f i databaseMgr.obj
 0002:0001a400       ??$construct@PAU?$_Tree_node@U?$pair@$$CBHPAVdatabase@@@std@@PAX@std@@AAPAU12@@?$allocator@U?$_Tree_node@U?$pair@$$CBHPAVdatabase@@@std@@PAX@std@@@std@@QAEXPAPAU?$_Tree_node@U?$pair@$$CBHPAVdatabase@@@std@@PAX@1@AAPAU21@@Z 0046a400 f i databaseMgr.obj
 0002:0001a500       ??$construct@PAU?$_Tree_node@U?$pair@$$CBHPAVdatabase@@@std@@PAX@std@@AAPAU12@@?$allocator_traits@V?$allocator@U?$_Tree_node@U?$pair@$$CBHPAVdatabase@@@std@@PAX@std@@@std@@@std@@SAXAAV?$allocator@U?$_Tree_node@U?$pair@$$CBHPAVdatabase@@@std@@PAX@std@@@1@PAPAU?$_Tree_node@U?$pair@$$CBHPAVdatabase@@@std@@PAX@1@AAPAU31@@Z 0046a500 f i databaseMgr.obj
 0002:0001a560       ??$construct@U?$pair@$$CBHPAVdatabase@@@std@@U?$pair@HPAVdatabase@@@2@@?$_Wrap_alloc@V?$allocator@U?$_Tree_node@U?$pair@$$CBHPAVdatabase@@@std@@PAX@std@@@std@@@std@@QAEXPAU?$pair@$$CBHPAVdatabase@@@1@$$QAU?$pair@HPAVdatabase@@@1@@Z 0046a560 f i databaseMgr.obj
 0002:0001a5d0       ??$construct@U?$pair@$$CBHPAVdatabase@@@std@@U?$pair@HPAVdatabase@@@2@@?$allocator@U?$_Tree_node@U?$pair@$$CBHPAVdatabase@@@std@@PAX@std@@@std@@QAEXPAU?$pair@$$CBHPAVdatabase@@@1@$$QAU?$pair@HPAVdatabase@@@1@@Z 0046a5d0 f i databaseMgr.obj
 0002:0001a6d0       ??$construct@U?$pair@$$CBHPAVdatabase@@@std@@U?$pair@HPAVdatabase@@@2@@?$allocator_traits@V?$allocator@U?$_Tree_node@U?$pair@$$CBHPAVdatabase@@@std@@PAX@std@@@std@@@std@@SAXAAV?$allocator@U?$_Tree_node@U?$pair@$$CBHPAVdatabase@@@std@@PAX@std@@@1@PAU?$pair@$$CBHPAVdatabase@@@1@$$QAU?$pair@HPAVdatabase@@@1@@Z 0046a6d0 f i databaseMgr.obj
 0002:0001a730       ??$destroy@PAU?$_Tree_node@U?$pair@$$CBHPAVdatabase@@@std@@PAX@std@@@?$_Wrap_alloc@V?$allocator@U?$_Tree_node@U?$pair@$$CBHPAVdatabase@@@std@@PAX@std@@@std@@@std@@QAEXPAPAU?$_Tree_node@U?$pair@$$CBHPAVdatabase@@@std@@PAX@1@@Z 0046a730 f i databaseMgr.obj
 0002:0001a790       ??$destroy@PAU?$_Tree_node@U?$pair@$$CBHPAVdatabase@@@std@@PAX@std@@@?$allocator@U?$_Tree_node@U?$pair@$$CBHPAVdatabase@@@std@@PAX@std@@@std@@QAEXPAPAU?$_Tree_node@U?$pair@$$CBHPAVdatabase@@@std@@PAX@1@@Z 0046a790 f i databaseMgr.obj
 0002:0001a7d0       ??$destroy@PAU?$_Tree_node@U?$pair@$$CBHPAVdatabase@@@std@@PAX@std@@@?$allocator_traits@V?$allocator@U?$_Tree_node@U?$pair@$$CBHPAVdatabase@@@std@@PAX@std@@@std@@@std@@SAXAAV?$allocator@U?$_Tree_node@U?$pair@$$CBHPAVdatabase@@@std@@PAX@std@@@1@PAPAU?$_Tree_node@U?$pair@$$CBHPAVdatabase@@@std@@PAX@1@@Z 0046a7d0 f i databaseMgr.obj
 0002:0001a820       ??$destroy@U?$pair@$$CBHPAVdatabase@@@std@@@?$_Wrap_alloc@V?$allocator@U?$_Tree_node@U?$pair@$$CBHPAVdatabase@@@std@@PAX@std@@@std@@@std@@QAEXPAU?$pair@$$CBHPAVdatabase@@@1@@Z 0046a820 f i databaseMgr.obj
 0002:0001a880       ??$destroy@U?$pair@$$CBHPAVdatabase@@@std@@@?$allocator@U?$_Tree_node@U?$pair@$$CBHPAVdatabase@@@std@@PAX@std@@@std@@QAEXPAU?$pair@$$CBHPAVdatabase@@@1@@Z 0046a880 f i databaseMgr.obj
 0002:0001a8c0       ??$destroy@U?$pair@$$CBHPAVdatabase@@@std@@@?$allocator_traits@V?$allocator@U?$_Tree_node@U?$pair@$$CBHPAVdatabase@@@std@@PAX@std@@@std@@@std@@SAXAAV?$allocator@U?$_Tree_node@U?$pair@$$CBHPAVdatabase@@@std@@PAX@std@@@1@PAU?$pair@$$CBHPAVdatabase@@@1@@Z 0046a8c0 f i databaseMgr.obj
 0002:0001a910       ??$forward@AAPAU?$_Tree_node@U?$pair@$$CBHPAVdatabase@@@std@@PAX@std@@@std@@YAAAPAU?$_Tree_node@U?$pair@$$CBHPAVdatabase@@@std@@PAX@0@AAPAU10@@Z 0046a910 f i databaseMgr.obj
 0002:0001a950       ??$forward@AAPAVdatabase@@@std@@YAAAPAVdatabase@@AAPAV1@@Z 0046a950 f i databaseMgr.obj
 0002:0001a990       ??$forward@AAU?$pair@$$CBHPAVdatabase@@@std@@@std@@YAAAU?$pair@$$CBHPAVdatabase@@@0@AAU10@@Z 0046a990 f i databaseMgr.obj
 0002:0001a9d0       ??$forward@AAV?$_Tree_iterator@V?$_Tree_val@U?$_Tree_simple_types@U?$pair@$$CBHPAVdatabase@@@std@@@std@@@std@@@std@@@std@@YAAAV?$_Tree_iterator@V?$_Tree_val@U?$_Tree_simple_types@U?$pair@$$CBHPAVdatabase@@@std@@@std@@@std@@@0@AAV10@@Z 0046a9d0 f i databaseMgr.obj
 0002:0001aa10       ??$forward@PAVdatabase@@@std@@YA$$QAPAVdatabase@@AAPAV1@@Z 0046aa10 f i databaseMgr.obj
 0002:0001aa50       ??$forward@U?$pair@HPAVdatabase@@@std@@@std@@YA$$QAU?$pair@HPAVdatabase@@@0@AAU10@@Z 0046aa50 f i databaseMgr.obj
 0002:0001aa90       ??$forward@V?$_Tree_iterator@V?$_Tree_val@U?$_Tree_simple_types@U?$pair@$$CBHPAVdatabase@@@std@@@std@@@std@@@std@@@std@@YA$$QAV?$_Tree_iterator@V?$_Tree_val@U?$_Tree_simple_types@U?$pair@$$CBHPAVdatabase@@@std@@@std@@@std@@@0@AAV10@@Z 0046aa90 f i databaseMgr.obj
 0002:0001aad0       ??$insert@U?$pair@HPAVdatabase@@@std@@@?$_Tree@V?$_Tmap_traits@HPAVdatabase@@U?$less@H@std@@V?$allocator@U?$pair@$$CBHPAVdatabase@@@std@@@3@$0A@@std@@@std@@QAE?AU?$pair@V?$_Tree_iterator@V?$_Tree_val@U?$_Tree_simple_types@U?$pair@$$CBHPAVdatabase@@@std@@@std@@@std@@@std@@_N@1@$$QAU?$pair@HPAVdatabase@@@1@@Z 0046aad0 f i databaseMgr.obj
 0002:0001abc0       ??0?$_Iterator012@Ubidirectional_iterator_tag@std@@U?$pair@$$CBHPAVdatabase@@@2@HPBU32@ABU32@U_Iterator_base12@2@@std@@QAE@ABU01@@Z 0046abc0 f i databaseMgr.obj
 0002:0001ac60       ??0?$_Iterator012@Ubidirectional_iterator_tag@std@@U?$pair@$$CBHPAVdatabase@@@2@HPBU32@ABU32@U_Iterator_base12@2@@std@@QAE@XZ 0046ac60 f i databaseMgr.obj
 0002:0001ad00       ??0?$_Tree@V?$_Tmap_traits@HPAVdatabase@@U?$less@H@std@@V?$allocator@U?$pair@$$CBHPAVdatabase@@@std@@@3@$0A@@std@@@std@@QAE@ABU?$less@H@1@ABV?$allocator@U?$pair@$$CBHPAVdatabase@@@std@@@1@@Z 0046ad00 f i databaseMgr.obj
 0002:0001adb0       ??0?$_Tree_alloc@$0A@U?$_Tree_base_types@U?$pair@$$CBHPAVdatabase@@@std@@V?$allocator@U?$pair@$$CBHPAVdatabase@@@std@@@2@@std@@@std@@QAE@ABV?$allocator@U?$pair@$$CBHPAVdatabase@@@std@@@1@@Z 0046adb0 f i databaseMgr.obj
 0002:0001aeb0       ??0?$_Tree_buy@U?$pair@$$CBHPAVdatabase@@@std@@V?$allocator@U?$pair@$$CBHPAVdatabase@@@std@@@2@@std@@QAE@ABV?$allocator@U?$pair@$$CBHPAVdatabase@@@std@@@1@@Z 0046aeb0 f i databaseMgr.obj
 0002:0001af50       ??0?$_Tree_comp@$0A@V?$_Tmap_traits@HPAVdatabase@@U?$less@H@std@@V?$allocator@U?$pair@$$CBHPAVdatabase@@@std@@@3@$0A@@std@@@std@@QAE@ABU?$less@H@1@ABV?$allocator@U?$pair@$$CBHPAVdatabase@@@std@@@1@@Z 0046af50 f i databaseMgr.obj
 0002:0001aff0       ??0?$_Tree_const_iterator@V?$_Tree_val@U?$_Tree_simple_types@U?$pair@$$CBHPAVdatabase@@@std@@@std@@@std@@@std@@QAE@ABV01@@Z 0046aff0 f i databaseMgr.obj
 0002:0001b090       ??0?$_Tree_const_iterator@V?$_Tree_val@U?$_Tree_simple_types@U?$pair@$$CBHPAVdatabase@@@std@@@std@@@std@@@std@@QAE@PAU?$_Tree_node@U?$pair@$$CBHPAVdatabase@@@std@@PAX@1@PBV?$_Tree_val@U?$_Tree_simple_types@U?$pair@$$CBHPAVdatabase@@@std@@@std@@@1@@Z 0046b090 f i databaseMgr.obj
 0002:0001b140       ??0?$_Tree_iterator@V?$_Tree_val@U?$_Tree_simple_types@U?$pair@$$CBHPAVdatabase@@@std@@@std@@@std@@@std@@QAE@ABV01@@Z 0046b140 f i databaseMgr.obj
 0002:0001b1e0       ??0?$_Tree_iterator@V?$_Tree_val@U?$_Tree_simple_types@U?$pair@$$CBHPAVdatabase@@@std@@@std@@@std@@@std@@QAE@PAU?$_Tree_node@U?$pair@$$CBHPAVdatabase@@@std@@PAX@1@PBV?$_Tree_val@U?$_Tree_simple_types@U?$pair@$$CBHPAVdatabase@@@std@@@std@@@1@@Z 0046b1e0 f i databaseMgr.obj
 0002:0001b290       ??0?$_Tree_unchecked_const_iterator@V?$_Tree_val@U?$_Tree_simple_types@U?$pair@$$CBHPAVdatabase@@@std@@@std@@@std@@U_Iterator_base12@2@@std@@QAE@ABV01@@Z 0046b290 f i databaseMgr.obj
 0002:0001b340       ??0?$_Tree_unchecked_const_iterator@V?$_Tree_val@U?$_Tree_simple_types@U?$pair@$$CBHPAVdatabase@@@std@@@std@@@std@@U_Iterator_base12@2@@std@@QAE@PAU?$_Tree_node@U?$pair@$$CBHPAVdatabase@@@std@@PAX@1@PBV?$_Tree_val@U?$_Tree_simple_types@U?$pair@$$CBHPAVdatabase@@@std@@@std@@@1@@Z 0046b340 f i databaseMgr.obj
 0002:0001b400       ??0?$_Tree_val@U?$_Tree_simple_types@U?$pair@$$CBHPAVdatabase@@@std@@@std@@@std@@QAE@XZ 0046b400 f i databaseMgr.obj
 0002:0001b4c0       ??0?$_Wrap_alloc@V?$allocator@U?$_Tree_node@U?$pair@$$CBHPAVdatabase@@@std@@PAX@std@@@std@@@std@@QAE@XZ 0046b4c0 f i databaseMgr.obj
 0002:0001b520       ??0?$allocator@U?$_Tree_node@U?$pair@$$CBHPAVdatabase@@@std@@PAX@std@@@std@@QAE@XZ 0046b520 f i databaseMgr.obj
 0002:0001b560       ??0?$allocator@U?$pair@$$CBHPAVdatabase@@@std@@@std@@QAE@XZ 0046b560 f i databaseMgr.obj
 0002:0001b5a0       ??0?$map@HPAVdatabase@@U?$less@H@std@@V?$allocator@U?$pair@$$CBHPAVdatabase@@@std@@@3@@std@@QAE@XZ 0046b5a0 f i databaseMgr.obj
 0002:0001b650       ??1?$_Iterator012@Ubidirectional_iterator_tag@std@@U?$pair@$$CBHPAVdatabase@@@2@HPBU32@ABU32@U_Iterator_base12@2@@std@@QAE@XZ 0046b650 f i databaseMgr.obj
 0002:0001b6f0       ??1?$_Tree@V?$_Tmap_traits@HPAVdatabase@@U?$less@H@std@@V?$allocator@U?$pair@$$CBHPAVdatabase@@@std@@@3@$0A@@std@@@std@@QAE@XZ 0046b6f0 f i databaseMgr.obj
 0002:0001b790       ??1?$_Tree_alloc@$0A@U?$_Tree_base_types@U?$pair@$$CBHPAVdatabase@@@std@@V?$allocator@U?$pair@$$CBHPAVdatabase@@@std@@@2@@std@@@std@@QAE@XZ 0046b790 f i databaseMgr.obj
 0002:0001b850       ??1?$_Tree_buy@U?$pair@$$CBHPAVdatabase@@@std@@V?$allocator@U?$pair@$$CBHPAVdatabase@@@std@@@2@@std@@QAE@XZ 0046b850 f i databaseMgr.obj
 0002:0001b8f0       ??1?$_Tree_comp@$0A@V?$_Tmap_traits@HPAVdatabase@@U?$less@H@std@@V?$allocator@U?$pair@$$CBHPAVdatabase@@@std@@@3@$0A@@std@@@std@@QAE@XZ 0046b8f0 f i databaseMgr.obj
 0002:0001b990       ??1?$_Tree_const_iterator@V?$_Tree_val@U?$_Tree_simple_types@U?$pair@$$CBHPAVdatabase@@@std@@@std@@@std@@@std@@QAE@XZ 0046b990 f i databaseMgr.obj
 0002:0001ba30       ??1?$_Tree_iterator@V?$_Tree_val@U?$_Tree_simple_types@U?$pair@$$CBHPAVdatabase@@@std@@@std@@@std@@@std@@QAE@XZ 0046ba30 f i databaseMgr.obj
 0002:0001bad0       ??1?$_Tree_unchecked_const_iterator@V?$_Tree_val@U?$_Tree_simple_types@U?$pair@$$CBHPAVdatabase@@@std@@@std@@@std@@U_Iterator_base12@2@@std@@QAE@XZ 0046bad0 f i databaseMgr.obj
 0002:0001bb70       ??1?$_Tree_val@U?$_Tree_simple_types@U?$pair@$$CBHPAVdatabase@@@std@@@std@@@std@@QAE@XZ 0046bb70 f i databaseMgr.obj
 0002:0001bc20       ??1?$map@HPAVdatabase@@U?$less@H@std@@V?$allocator@U?$pair@$$CBHPAVdatabase@@@std@@@3@@std@@QAE@XZ 0046bc20 f i databaseMgr.obj
 0002:0001bcc0       ??1?$pair@V?$_Tree_iterator@V?$_Tree_val@U?$_Tree_simple_types@U?$pair@$$CBHPAVdatabase@@@std@@@std@@@std@@@std@@_N@std@@QAE@XZ 0046bcc0 f i databaseMgr.obj
 0002:0001bd60       ??4?$_Iterator012@Ubidirectional_iterator_tag@std@@U?$pair@$$CBHPAVdatabase@@@2@HPBU32@ABU32@U_Iterator_base12@2@@std@@QAEAAU01@ABU01@@Z 0046bd60 f i databaseMgr.obj
 0002:0001bdc0       ??4?$_Tree_const_iterator@V?$_Tree_val@U?$_Tree_simple_types@U?$pair@$$CBHPAVdatabase@@@std@@@std@@@std@@@std@@QAEAAV01@ABV01@@Z 0046bdc0 f i databaseMgr.obj
 0002:0001be20       ??4?$_Tree_iterator@V?$_Tree_val@U?$_Tree_simple_types@U?$pair@$$CBHPAVdatabase@@@std@@@std@@@std@@@std@@QAEAAV01@ABV01@@Z 0046be20 f i databaseMgr.obj
 0002:0001be80       ??4?$_Tree_unchecked_const_iterator@V?$_Tree_val@U?$_Tree_simple_types@U?$pair@$$CBHPAVdatabase@@@std@@@std@@@std@@U_Iterator_base12@2@@std@@QAEAAV01@ABV01@@Z 0046be80 f i databaseMgr.obj
 0002:0001bef0       ??8?$_Tree_const_iterator@V?$_Tree_val@U?$_Tree_simple_types@U?$pair@$$CBHPAVdatabase@@@std@@@std@@@std@@@std@@QBE_NABV01@@Z 0046bef0 f i databaseMgr.obj
 0002:0001c050       ??9?$_Tree_const_iterator@V?$_Tree_val@U?$_Tree_simple_types@U?$pair@$$CBHPAVdatabase@@@std@@@std@@@std@@@std@@QBE_NABV01@@Z 0046c050 f i databaseMgr.obj
 0002:0001c0e0       ??C?$_Tree_const_iterator@V?$_Tree_val@U?$_Tree_simple_types@U?$pair@$$CBHPAVdatabase@@@std@@@std@@@std@@@std@@QBEPBU?$pair@$$CBHPAVdatabase@@@1@XZ 0046c0e0 f i databaseMgr.obj
 0002:0001c140       ??C?$_Tree_iterator@V?$_Tree_val@U?$_Tree_simple_types@U?$pair@$$CBHPAVdatabase@@@std@@@std@@@std@@@std@@QBEPAU?$pair@$$CBHPAVdatabase@@@1@XZ 0046c140 f i databaseMgr.obj
 0002:0001c1a0       ??D?$_Tree_const_iterator@V?$_Tree_val@U?$_Tree_simple_types@U?$pair@$$CBHPAVdatabase@@@std@@@std@@@std@@@std@@QBEABU?$pair@$$CBHPAVdatabase@@@1@XZ 0046c1a0 f i databaseMgr.obj
 0002:0001c2e0       ??D?$_Tree_iterator@V?$_Tree_val@U?$_Tree_simple_types@U?$pair@$$CBHPAVdatabase@@@std@@@std@@@std@@@std@@QBEAAU?$pair@$$CBHPAVdatabase@@@1@XZ 0046c2e0 f i databaseMgr.obj
 0002:0001c330       ??E?$_Tree_const_iterator@V?$_Tree_val@U?$_Tree_simple_types@U?$pair@$$CBHPAVdatabase@@@std@@@std@@@std@@@std@@QAE?AV01@H@Z 0046c330 f i databaseMgr.obj
 0002:0001c450       ??E?$_Tree_const_iterator@V?$_Tree_val@U?$_Tree_simple_types@U?$pair@$$CBHPAVdatabase@@@std@@@std@@@std@@@std@@QAEAAV01@XZ 0046c450 f i databaseMgr.obj
 0002:0001c590       ??E?$_Tree_iterator@V?$_Tree_val@U?$_Tree_simple_types@U?$pair@$$CBHPAVdatabase@@@std@@@std@@@std@@@std@@QAEAAV01@XZ 0046c590 f i databaseMgr.obj
 0002:0001c5f0       ??E?$_Tree_unchecked_const_iterator@V?$_Tree_val@U?$_Tree_simple_types@U?$pair@$$CBHPAVdatabase@@@std@@@std@@@std@@U_Iterator_base12@2@@std@@QAEAAV01@XZ 0046c5f0 f i databaseMgr.obj
 0002:0001c720       ??F?$_Tree_const_iterator@V?$_Tree_val@U?$_Tree_simple_types@U?$pair@$$CBHPAVdatabase@@@std@@@std@@@std@@@std@@QAEAAV01@XZ 0046c720 f i databaseMgr.obj
 0002:0001c900       ??F?$_Tree_iterator@V?$_Tree_val@U?$_Tree_simple_types@U?$pair@$$CBHPAVdatabase@@@std@@@std@@@std@@@std@@QAEAAV01@XZ 0046c900 f i databaseMgr.obj
 0002:0001c960       ??F?$_Tree_unchecked_const_iterator@V?$_Tree_val@U?$_Tree_simple_types@U?$pair@$$CBHPAVdatabase@@@std@@@std@@@std@@U_Iterator_base12@2@@std@@QAEAAV01@XZ 0046c960 f i databaseMgr.obj
 0002:0001cac0       ??_GdatabaseMgr@@UAEPAXI@Z 0046cac0 f i databaseMgr.obj
 0002:0001cac0       ??_EdatabaseMgr@@UAEPAXI@Z 0046cac0 f i databaseMgr.obj
 0002:0001cb30       ?_Alloc_proxy@?$_Tree_alloc@$0A@U?$_Tree_base_types@U?$pair@$$CBHPAVdatabase@@@std@@V?$allocator@U?$pair@$$CBHPAVdatabase@@@std@@@2@@std@@@std@@QAEXXZ 0046cb30 f i databaseMgr.obj
 0002:0001cc10       ?_Buyheadnode@?$_Tree_alloc@$0A@U?$_Tree_base_types@U?$pair@$$CBHPAVdatabase@@@std@@V?$allocator@U?$pair@$$CBHPAVdatabase@@@std@@@2@@std@@@std@@QAEPAU?$_Tree_node@U?$pair@$$CBHPAVdatabase@@@std@@PAX@2@XZ 0046cc10 f i databaseMgr.obj
 0002:0001ce20       ?_Buynode0@?$_Tree_buy@U?$pair@$$CBHPAVdatabase@@@std@@V?$allocator@U?$pair@$$CBHPAVdatabase@@@std@@@2@@std@@QAEPAU?$_Tree_node@U?$pair@$$CBHPAVdatabase@@@std@@PAX@2@XZ 0046ce20 f i databaseMgr.obj
 0002:0001cfe0       ?_Color@?$_Tree_val@U?$_Tree_simple_types@U?$pair@$$CBHPAVdatabase@@@std@@@std@@@std@@SAAADPAU?$_Tree_node@U?$pair@$$CBHPAVdatabase@@@std@@PAX@2@@Z 0046cfe0 f i databaseMgr.obj
 0002:0001d020       ?_Destroy_if_not_nil@?$_Tree@V?$_Tmap_traits@HPAVdatabase@@U?$less@H@std@@V?$allocator@U?$pair@$$CBHPAVdatabase@@@std@@@3@$0A@@std@@@std@@IAEXPAU?$_Tree_node@U?$pair@$$CBHPAVdatabase@@@std@@PAX@2@@Z 0046d020 f i databaseMgr.obj
 0002:0001d0d0       ?_Erase@?$_Tree@V?$_Tmap_traits@HPAVdatabase@@U?$less@H@std@@V?$allocator@U?$pair@$$CBHPAVdatabase@@@std@@@3@$0A@@std@@@std@@IAEXPAU?$_Tree_node@U?$pair@$$CBHPAVdatabase@@@std@@PAX@2@@Z 0046d0d0 f i databaseMgr.obj
 0002:0001d1e0       ?_Free_proxy@?$_Tree_alloc@$0A@U?$_Tree_base_types@U?$pair@$$CBHPAVdatabase@@@std@@V?$allocator@U?$pair@$$CBHPAVdatabase@@@std@@@2@@std@@@std@@QAEXXZ 0046d1e0 f i databaseMgr.obj
 0002:0001d2d0       ?_Freeheadnode@?$_Tree_alloc@$0A@U?$_Tree_base_types@U?$pair@$$CBHPAVdatabase@@@std@@V?$allocator@U?$pair@$$CBHPAVdatabase@@@std@@@2@@std@@@std@@QAEXPAU?$_Tree_node@U?$pair@$$CBHPAVdatabase@@@std@@PAX@2@@Z 0046d2d0 f i databaseMgr.obj
 0002:0001d3e0       ?_Freenode0@?$_Tree_buy@U?$pair@$$CBHPAVdatabase@@@std@@V?$allocator@U?$pair@$$CBHPAVdatabase@@@std@@@2@@std@@QAEXPAU?$_Tree_node@U?$pair@$$CBHPAVdatabase@@@std@@PAX@2@@Z 0046d3e0 f i databaseMgr.obj
 0002:0001d4f0       ?_Getal@?$_Tree_alloc@$0A@U?$_Tree_base_types@U?$pair@$$CBHPAVdatabase@@@std@@V?$allocator@U?$pair@$$CBHPAVdatabase@@@std@@@2@@std@@@std@@QBE?AU?$_Wrap_alloc@V?$allocator@U?$_Tree_node@U?$pair@$$CBHPAVdatabase@@@std@@PAX@std@@@std@@@2@XZ 0046d4f0 f i databaseMgr.obj
 0002:0001d550       ?_Getcomp@?$_Tree_comp@$0A@V?$_Tmap_traits@HPAVdatabase@@U?$less@H@std@@V?$allocator@U?$pair@$$CBHPAVdatabase@@@std@@@3@$0A@@std@@@std@@QBE?AU?$less@H@2@XZ 0046d550 f i databaseMgr.obj
 0002:0001d590       ?_Isnil@?$_Tree_val@U?$_Tree_simple_types@U?$pair@$$CBHPAVdatabase@@@std@@@std@@@std@@SAAADPAU?$_Tree_node@U?$pair@$$CBHPAVdatabase@@@std@@PAX@2@@Z 0046d590 f i databaseMgr.obj
 0002:0001d5d0       ?_Key@?$_Tree@V?$_Tmap_traits@HPAVdatabase@@U?$less@H@std@@V?$allocator@U?$pair@$$CBHPAVdatabase@@@std@@@3@$0A@@std@@@std@@IBEABHPAU?$_Tree_node@U?$pair@$$CBHPAVdatabase@@@std@@PAX@2@@Z 0046d5d0 f i databaseMgr.obj
 0002:0001d640       ?_Kfn@?$_Tree@V?$_Tmap_traits@HPAVdatabase@@U?$less@H@std@@V?$allocator@U?$pair@$$CBHPAVdatabase@@@std@@@3@$0A@@std@@@std@@IBEABHABU?$pair@$$CBHPAVdatabase@@@2@@Z 0046d640 f i databaseMgr.obj
 0002:0001d6a0       ?_Lbound@?$_Tree@V?$_Tmap_traits@HPAVdatabase@@U?$less@H@std@@V?$allocator@U?$pair@$$CBHPAVdatabase@@@std@@@3@$0A@@std@@@std@@IAEPAU?$_Tree_node@U?$pair@$$CBHPAVdatabase@@@std@@PAX@2@ABH@Z 0046d6a0 f i databaseMgr.obj
 0002:0001d7b0       ?_Left@?$_Tree_val@U?$_Tree_simple_types@U?$pair@$$CBHPAVdatabase@@@std@@@std@@@std@@SAAAPAU?$_Tree_node@U?$pair@$$CBHPAVdatabase@@@std@@PAX@2@PAU32@@Z 0046d7b0 f i databaseMgr.obj
 0002:0001d7f0       ?_Lmost@?$_Tree@V?$_Tmap_traits@HPAVdatabase@@U?$less@H@std@@V?$allocator@U?$pair@$$CBHPAVdatabase@@@std@@@3@$0A@@std@@@std@@IBEAAPAU?$_Tree_node@U?$pair@$$CBHPAVdatabase@@@std@@PAX@2@XZ 0046d7f0 f i databaseMgr.obj
 0002:0001d850       ?_Lrotate@?$_Tree@V?$_Tmap_traits@HPAVdatabase@@U?$less@H@std@@V?$allocator@U?$pair@$$CBHPAVdatabase@@@std@@@3@$0A@@std@@@std@@IAEXPAU?$_Tree_node@U?$pair@$$CBHPAVdatabase@@@std@@PAX@2@@Z 0046d850 f i databaseMgr.obj
 0002:0001da00       ?_Max@?$_Tree_val@U?$_Tree_simple_types@U?$pair@$$CBHPAVdatabase@@@std@@@std@@@std@@SAPAU?$_Tree_node@U?$pair@$$CBHPAVdatabase@@@std@@PAX@2@PAU32@@Z 0046da00 f i databaseMgr.obj
 0002:0001da80       ?_Min@?$_Tree_val@U?$_Tree_simple_types@U?$pair@$$CBHPAVdatabase@@@std@@@std@@@std@@SAPAU?$_Tree_node@U?$pair@$$CBHPAVdatabase@@@std@@PAX@2@PAU32@@Z 0046da80 f i databaseMgr.obj
 0002:0001db00       ?_Mynode@?$_Tree_unchecked_const_iterator@V?$_Tree_val@U?$_Tree_simple_types@U?$pair@$$CBHPAVdatabase@@@std@@@std@@@std@@U_Iterator_base12@2@@std@@QBEPAU?$_Tree_node@U?$pair@$$CBHPAVdatabase@@@std@@PAX@2@XZ 0046db00 f i databaseMgr.obj
 0002:0001db40       ?_Myval@?$_Tree_val@U?$_Tree_simple_types@U?$pair@$$CBHPAVdatabase@@@std@@@std@@@std@@SAAAU?$pair@$$CBHPAVdatabase@@@2@PAU?$_Tree_node@U?$pair@$$CBHPAVdatabase@@@std@@PAX@2@@Z 0046db40 f i databaseMgr.obj
 0002:0001db80       ?_Orphan_ptr@?$_Tree@V?$_Tmap_traits@HPAVdatabase@@U?$less@H@std@@V?$allocator@U?$pair@$$CBHPAVdatabase@@@std@@@3@$0A@@std@@@std@@IBEXAAV12@PAU?$_Tree_node@U?$pair@$$CBHPAVdatabase@@@std@@PAX@2@@Z 0046db80 f i databaseMgr.obj
 0002:0001dd10       ?_Parent@?$_Tree_val@U?$_Tree_simple_types@U?$pair@$$CBHPAVdatabase@@@std@@@std@@@std@@SAAAPAU?$_Tree_node@U?$pair@$$CBHPAVdatabase@@@std@@PAX@2@PAU32@@Z 0046dd10 f i databaseMgr.obj
 0002:0001dd50       ?_Right@?$_Tree_val@U?$_Tree_simple_types@U?$pair@$$CBHPAVdatabase@@@std@@@std@@@std@@SAAAPAU?$_Tree_node@U?$pair@$$CBHPAVdatabase@@@std@@PAX@2@PAU32@@Z 0046dd50 f i databaseMgr.obj
 0002:0001dd90       ?_Rmost@?$_Tree@V?$_Tmap_traits@HPAVdatabase@@U?$less@H@std@@V?$allocator@U?$pair@$$CBHPAVdatabase@@@std@@@3@$0A@@std@@@std@@IBEAAPAU?$_Tree_node@U?$pair@$$CBHPAVdatabase@@@std@@PAX@2@XZ 0046dd90 f i databaseMgr.obj
 0002:0001ddf0       ?_Root@?$_Tree@V?$_Tmap_traits@HPAVdatabase@@U?$less@H@std@@V?$allocator@U?$pair@$$CBHPAVdatabase@@@std@@@3@$0A@@std@@@std@@IBEAAPAU?$_Tree_node@U?$pair@$$CBHPAVdatabase@@@std@@PAX@2@XZ 0046ddf0 f i databaseMgr.obj
 0002:0001de50       ?_Rrotate@?$_Tree@V?$_Tmap_traits@HPAVdatabase@@U?$less@H@std@@V?$allocator@U?$pair@$$CBHPAVdatabase@@@std@@@3@$0A@@std@@@std@@IAEXPAU?$_Tree_node@U?$pair@$$CBHPAVdatabase@@@std@@PAX@2@@Z 0046de50 f i databaseMgr.obj
 0002:0001e000       ?_Tidy@?$_Tree@V?$_Tmap_traits@HPAVdatabase@@U?$less@H@std@@V?$allocator@U?$pair@$$CBHPAVdatabase@@@std@@@3@$0A@@std@@@std@@IAEXXZ 0046e000 f i databaseMgr.obj
 0002:0001e1a0       ?allocate@?$_Wrap_alloc@V?$allocator@U?$_Tree_node@U?$pair@$$CBHPAVdatabase@@@std@@PAX@std@@@std@@@std@@QAEPAU?$_Tree_node@U?$pair@$$CBHPAVdatabase@@@std@@PAX@2@I@Z 0046e1a0 f i databaseMgr.obj
 0002:0001e200       ?allocate@?$allocator@U?$_Tree_node@U?$pair@$$CBHPAVdatabase@@@std@@PAX@std@@@std@@QAEPAU?$_Tree_node@U?$pair@$$CBHPAVdatabase@@@std@@PAX@2@I@Z 0046e200 f i databaseMgr.obj
 0002:0001e260       ?begin@?$_Tree@V?$_Tmap_traits@HPAVdatabase@@U?$less@H@std@@V?$allocator@U?$pair@$$CBHPAVdatabase@@@std@@@3@$0A@@std@@@std@@QAE?AV?$_Tree_iterator@V?$_Tree_val@U?$_Tree_simple_types@U?$pair@$$CBHPAVdatabase@@@std@@@std@@@std@@@2@XZ 0046e260 f i databaseMgr.obj
 0002:0001e330       ?clear@?$_Tree@V?$_Tmap_traits@HPAVdatabase@@U?$less@H@std@@V?$allocator@U?$pair@$$CBHPAVdatabase@@@std@@@3@$0A@@std@@@std@@QAEXXZ 0046e330 f i databaseMgr.obj
 0002:0001e3f0       ?deallocate@?$_Wrap_alloc@V?$allocator@U?$_Tree_node@U?$pair@$$CBHPAVdatabase@@@std@@PAX@std@@@std@@@std@@QAEXPAU?$_Tree_node@U?$pair@$$CBHPAVdatabase@@@std@@PAX@2@I@Z 0046e3f0 f i databaseMgr.obj
 0002:0001e450       ?deallocate@?$allocator@U?$_Tree_node@U?$pair@$$CBHPAVdatabase@@@std@@PAX@std@@@std@@QAEXPAU?$_Tree_node@U?$pair@$$CBHPAVdatabase@@@std@@PAX@2@I@Z 0046e450 f i databaseMgr.obj
 0002:0001e4b0       ?end@?$_Tree@V?$_Tmap_traits@HPAVdatabase@@U?$less@H@std@@V?$allocator@U?$pair@$$CBHPAVdatabase@@@std@@@3@$0A@@std@@@std@@QAE?AV?$_Tree_iterator@V?$_Tree_val@U?$_Tree_simple_types@U?$pair@$$CBHPAVdatabase@@@std@@@std@@@std@@@2@XZ 0046e4b0 f i databaseMgr.obj
 0002:0001e570       ?erase@?$_Tree@V?$_Tmap_traits@HPAVdatabase@@U?$less@H@std@@V?$allocator@U?$pair@$$CBHPAVdatabase@@@std@@@3@$0A@@std@@@std@@QAE?AV?$_Tree_iterator@V?$_Tree_val@U?$_Tree_simple_types@U?$pair@$$CBHPAVdatabase@@@std@@@std@@@std@@@2@V?$_Tree_const_iterator@V?$_Tree_val@U?$_Tree_simple_types@U?$pair@$$CBHPAVdatabase@@@std@@@std@@@std@@@2@0@Z 0046e570 f i databaseMgr.obj
 0002:0001e8a0       ?erase@?$_Tree@V?$_Tmap_traits@HPAVdatabase@@U?$less@H@std@@V?$allocator@U?$pair@$$CBHPAVdatabase@@@std@@@3@$0A@@std@@@std@@QAE?AV?$_Tree_iterator@V?$_Tree_val@U?$_Tree_simple_types@U?$pair@$$CBHPAVdatabase@@@std@@@std@@@std@@@2@V?$_Tree_const_iterator@V?$_Tree_val@U?$_Tree_simple_types@U?$pair@$$CBHPAVdatabase@@@std@@@std@@@std@@@2@@Z 0046e8a0 f i databaseMgr.obj
 0002:0001f320       ?find@?$_Tree@V?$_Tmap_traits@HPAVdatabase@@U?$less@H@std@@V?$allocator@U?$pair@$$CBHPAVdatabase@@@std@@@3@$0A@@std@@@std@@QAE?AV?$_Tree_iterator@V?$_Tree_val@U?$_Tree_simple_types@U?$pair@$$CBHPAVdatabase@@@std@@@std@@@std@@@2@ABH@Z 0046f320 f i databaseMgr.obj
 0002:0001f630       ?getDatabaseObject@databaseMgr@@AAEPAVdatabase@@HH_N@Z 0046f630 f i databaseMgr.obj
 0002:0001f8a0       ?lower_bound@?$_Tree@V?$_Tmap_traits@HPAVdatabase@@U?$less@H@std@@V?$allocator@U?$pair@$$CBHPAVdatabase@@@std@@@3@$0A@@std@@@std@@QAE?AV?$_Tree_iterator@V?$_Tree_val@U?$_Tree_simple_types@U?$pair@$$CBHPAVdatabase@@@std@@@std@@@std@@@2@ABH@Z 0046f8a0 f i databaseMgr.obj
 0002:0001f970       ?max_size@?$_Tree@V?$_Tmap_traits@HPAVdatabase@@U?$less@H@std@@V?$allocator@U?$pair@$$CBHPAVdatabase@@@std@@@3@$0A@@std@@@std@@QBEIXZ 0046f970 f i databaseMgr.obj
 0002:0001f9d0       ?max_size@?$_Wrap_alloc@V?$allocator@U?$_Tree_node@U?$pair@$$CBHPAVdatabase@@@std@@PAX@std@@@std@@@std@@QBEIXZ 0046f9d0 f i databaseMgr.obj
 0002:0001fa30       ?max_size@?$allocator@U?$_Tree_node@U?$pair@$$CBHPAVdatabase@@@std@@PAX@std@@@std@@QBEIXZ 0046fa30 f i databaseMgr.obj
 0002:0001fa70       ?max_size@?$allocator_traits@V?$allocator@U?$_Tree_node@U?$pair@$$CBHPAVdatabase@@@std@@PAX@std@@@std@@@std@@SAIABV?$allocator@U?$_Tree_node@U?$pair@$$CBHPAVdatabase@@@std@@PAX@std@@@2@@Z 0046fa70 f i databaseMgr.obj
 0002:0001fac0       ?pointer_to@?$pointer_traits@PAU?$pair@$$CBHPAVdatabase@@@std@@@std@@SAPAU?$pair@$$CBHPAVdatabase@@@2@AAU32@@Z 0046fac0 f i databaseMgr.obj
 0002:0001fb10       ?pointer_to@?$pointer_traits@PBU?$pair@$$CBHPAVdatabase@@@std@@@std@@SAPBU?$pair@$$CBHPAVdatabase@@@2@ABU32@@Z 0046fb10 f i databaseMgr.obj
 0002:0001fb60       ?size@?$_Tree@V?$_Tmap_traits@HPAVdatabase@@U?$less@H@std@@V?$allocator@U?$pair@$$CBHPAVdatabase@@@std@@@3@$0A@@std@@@std@@QBEIXZ 0046fb60 f i databaseMgr.obj
 0002:0001fba0       ??0Cbncs_strtok@@QAE@XZ    0046fba0 f   b_strtok.obj
 0002:0001fbf0       ??1Cbncs_strtok@@QAE@XZ    0046fbf0 f   b_strtok.obj
 0002:0001fc20       ?Initialise@Cbncs_strtok@@QAEXXZ 0046fc20 f   b_strtok.obj
 0002:0001fc80       ?Tokenise@Cbncs_strtok@@QAEXPADDH@Z 0046fc80 f   b_strtok.obj
 0002:0001fd60       ?Read@Cbncs_strtok@@QAEXPADH@Z 0046fd60 f   b_strtok.obj
 0002:0001ff00       ??0bncs_disklog@@QAE@PBDW4filetype@0@000000@Z 0046ff00 f   bncs_disklog.obj
 0002:0001ff80       ??0bncs_disklog@@QAE@PBDW4filetype@0@@Z 0046ff80 f   bncs_disklog.obj
 0002:0001ffe0       ?write@bncs_disklog@@QAEXPBD00000@Z 0046ffe0 f   bncs_disklog.obj
 0002:00020380       ??1bncs_disklog@@UAE@XZ    00470380 f   bncs_disklog.obj
 0002:000203d0       ?ref@bncs_disklog@@QAEPBDXZ 004703d0 f   bncs_disklog.obj
 0002:00020400       ?clear@bncs_disklog@@QAEXXZ 00470400 f   bncs_disklog.obj
 0002:00020480       ?openLogFile@bncs_disklog@@AAEXPBDW4filetype@1@@Z 00470480 f   bncs_disklog.obj
 0002:00020860       ?initVars@bncs_disklog@@AAEXXZ 00470860 f   bncs_disklog.obj
 0002:000208b0       ?createDirectory@bncs_disklog@@AAEXPBD@Z 004708b0 f   bncs_disklog.obj
 0002:00020a10       ?cleanup@bncs_disklog@@AAEXXZ 00470a10 f   bncs_disklog.obj
 0002:00020d80       ??_Gbncs_disklog@@UAEPAXI@Z 00470d80 f i bncs_disklog.obj
 0002:00020d80       ??_Ebncs_disklog@@UAEPAXI@Z 00470d80 f i bncs_disklog.obj
 0002:00020df0       _GetBNCSConfigDirectory    00470df0 f   bncs_gcd.obj
 0002:00020f90       _GetBNCSSystemDirectory    00470f90 f   bncs_gcd.obj
 0002:00021130       _GetBNCSDLLDirectory       00471130 f   bncs_gcd.obj
 0002:000212d0       _resolveEnvVar             004712d0 f   bncs_gcd.obj
 0002:000216a0       ??0ccCheck@@QAE@ABV?$basic_string@DU?$char_traits@D@std@@V?$allocator@D@2@@std@@@Z 004716a0 f   ccCheck.obj
 0002:00021760       ??1ccCheck@@UAE@XZ         00471760 f   ccCheck.obj
 0002:000217f0       ?setHeader@ccCheck@@QAEXABV?$basic_string@DU?$char_traits@D@std@@V?$allocator@D@2@@std@@@Z 004717f0 f   ccCheck.obj
 0002:00021840       ?checkDevice@ccCheck@@QAE_NI@Z 00471840 f   ccCheck.obj
 0002:00021940       ?checkIndex@ccCheck@@QAE_NI@Z 00471940 f   ccCheck.obj
 0002:00021a40       ?checkSource@ccCheck@@QAE_NH@Z 00471a40 f   ccCheck.obj
 0002:00021b50       ?checkRange@ccCheck@@QAE_NII@Z 00471b50 f   ccCheck.obj
 0002:00021c10       ?checkIndexRange@ccCheck@@QAE_NII@Z 00471c10 f   ccCheck.obj
 0002:00021d10       ?checkDbIndexRange@ccCheck@@QAE_NII@Z 00471d10 f   ccCheck.obj
 0002:00021dd0       ?checkDatabase@ccCheck@@QAE_NII@Z 00471dd0 f   ccCheck.obj
 0002:00021f20       ?checkDatabase@ccCheck@@QAE_NI@Z 00471f20 f   ccCheck.obj
 0002:00022070       ?checkV1Database@ccCheck@@QAE_NI@Z 00472070 f   ccCheck.obj
 0002:00022170       ?checkString@ccCheck@@QAE_NABV?$basic_string@DU?$char_traits@D@std@@V?$allocator@D@2@@std@@@Z 00472170 f   ccCheck.obj
 0002:00022250       ?checkString@ccCheck@@QAE_NABV?$basic_string@DU?$char_traits@D@std@@V?$allocator@D@2@@std@@I@Z 00472250 f   ccCheck.obj
 0002:00022330       ?checkWorkstation@ccCheck@@QAE_NI@Z 00472330 f   ccCheck.obj
 0002:000224a0       ?log@ccCheck@@QAEXABV?$basic_string@DU?$char_traits@D@std@@V?$allocator@D@2@@std@@@Z 004724a0 f   ccCheck.obj
 0002:000225f0       ?setMaxIndex@ccCheck@@QAEXI@Z 004725f0 f   ccCheck.obj
 0002:00022630       ?setMaxSource@ccCheck@@QAEXH@Z 00472630 f   ccCheck.obj
 0002:00022670       ?setMaxDatabase@ccCheck@@QAEXI@Z 00472670 f   ccCheck.obj
 0002:000226b0       ?setMaxDevice@ccCheck@@QAEXI@Z 004726b0 f   ccCheck.obj
 0002:000226f0       ?setMaxString@ccCheck@@QAEXI@Z 004726f0 f   ccCheck.obj
 0002:00022b60       ??$?8DD@std@@YA_NABV?$allocator@D@0@0@Z 00472b60 f i ccCheck.obj
 0002:00022b90       ??$?8V?$allocator@D@std@@V01@@std@@YA_NABU?$_Wrap_alloc@V?$allocator@D@std@@@0@0@Z 00472b90 f i ccCheck.obj
 0002:00022c00       ??$?9V?$allocator@D@std@@V01@@std@@YA_NABU?$_Wrap_alloc@V?$allocator@D@std@@@0@0@Z 00472c00 f i ccCheck.obj
 0002:00022c80       ??$?HDU?$char_traits@D@std@@V?$allocator@D@1@@std@@YA?AV?$basic_string@DU?$char_traits@D@std@@V?$allocator@D@2@@0@$$QAV10@ABV10@@Z 00472c80 f i ccCheck.obj
 0002:00022d50       ??$?HDU?$char_traits@D@std@@V?$allocator@D@1@@std@@YA?AV?$basic_string@DU?$char_traits@D@std@@V?$allocator@D@2@@0@$$QAV10@PBD@Z 00472d50 f i ccCheck.obj
 0002:00022e20       ??$?HDU?$char_traits@D@std@@V?$allocator@D@1@@std@@YA?AV?$basic_string@DU?$char_traits@D@std@@V?$allocator@D@2@@0@ABV10@PBD@Z 00472e20 f i ccCheck.obj
 0002:00022f80       ??$?HDU?$char_traits@D@std@@V?$allocator@D@1@@std@@YA?AV?$basic_string@DU?$char_traits@D@std@@V?$allocator@D@2@@0@PBDABV10@@Z 00472f80 f i ccCheck.obj
 0002:000230e0       ??$move@AAV?$basic_string@DU?$char_traits@D@std@@V?$allocator@D@2@@std@@@std@@YA$$QAV?$basic_string@DU?$char_traits@D@std@@V?$allocator@D@2@@0@AAV10@@Z 004730e0 f i ccCheck.obj
 0002:00023120       ??0?$_Wrap_alloc@V?$allocator@D@std@@@std@@QAE@ABV?$allocator@D@1@@Z 00473120 f i ccCheck.obj
 0002:00023180       ??0?$allocator@D@std@@QAE@ABV01@@Z 00473180 f i ccCheck.obj
 0002:000231c0       ??0?$basic_string@DU?$char_traits@D@std@@V?$allocator@D@2@@std@@QAE@ABV01@@Z 004731c0 f i ccCheck.obj
 0002:000232b0       ??4?$basic_string@DU?$char_traits@D@std@@V?$allocator@D@2@@std@@QAEAAV01@ABV01@@Z 004732b0 f i ccCheck.obj
 0002:00023380       ??Y?$basic_string@DU?$char_traits@D@std@@V?$allocator@D@2@@std@@QAEAAV01@ABV01@@Z 00473380 f i ccCheck.obj
 0002:000233e0       ??Y?$basic_string@DU?$char_traits@D@std@@V?$allocator@D@2@@std@@QAEAAV01@PBD@Z 004733e0 f i ccCheck.obj
 0002:00023440       ??_EccCheck@@UAEPAXI@Z     00473440 f i ccCheck.obj
 0002:00023440       ??_GccCheck@@UAEPAXI@Z     00473440 f i ccCheck.obj
 0002:000234b0       ?_Change_alloc@?$_String_alloc@$0A@U?$_String_base_types@DV?$allocator@D@std@@@std@@@std@@QAEXABU?$_Wrap_alloc@V?$allocator@D@std@@@2@@Z 004734b0 f i ccCheck.obj
 0002:000234f0       ?append@?$basic_string@DU?$char_traits@D@std@@V?$allocator@D@2@@std@@QAEAAV12@ABV12@@Z 004734f0 f i ccCheck.obj
 0002:00023550       ?append@?$basic_string@DU?$char_traits@D@std@@V?$allocator@D@2@@std@@QAEAAV12@ABV12@II@Z 00473550 f i ccCheck.obj
 0002:00023670       ?append@?$basic_string@DU?$char_traits@D@std@@V?$allocator@D@2@@std@@QAEAAV12@PBD@Z 00473670 f i ccCheck.obj
 0002:00023700       ?append@?$basic_string@DU?$char_traits@D@std@@V?$allocator@D@2@@std@@QAEAAV12@PBDI@Z 00473700 f i ccCheck.obj
 0002:00023840       ?assign@?$basic_string@DU?$char_traits@D@std@@V?$allocator@D@2@@std@@QAEAAV12@ABV12@@Z 00473840 f i ccCheck.obj
 0002:000238a0       ?reserve@?$basic_string@DU?$char_traits@D@std@@V?$allocator@D@2@@std@@QAEXI@Z 004738a0 f i ccCheck.obj
 0002:00023940       ?select_on_container_copy_construction@?$_Wrap_alloc@V?$allocator@D@std@@@std@@QBE?AU12@XZ 00473940 f i ccCheck.obj
 0002:000239b0       ?select_on_container_copy_construction@?$allocator@D@std@@QBE?AV12@XZ 004739b0 f i ccCheck.obj
 0002:00023a10       ?select_on_container_copy_construction@?$allocator_traits@V?$allocator@D@std@@@std@@SA?AV?$allocator@D@2@ABV32@@Z 00473a10 f i ccCheck.obj
 0002:00023a70       ?clear@closedDriversList@@SAXXZ 00473a70 f   closedDriversList.obj
 0002:00023ab0       ?add@closedDriversList@@SAXH@Z 00473ab0 f   closedDriversList.obj
 0002:00023be0       ?remove@closedDriversList@@SAXH@Z 00473be0 f   closedDriversList.obj
 0002:00023d40       ?pop@closedDriversList@@SAHXZ 00473d40 f   closedDriversList.obj
 0002:00023ed0       ?item@closedDriversList@@SAHH@Z 00473ed0 f   closedDriversList.obj
 0002:00024070       ?count@closedDriversList@@SAHXZ 00474070 f   closedDriversList.obj
 0002:00024240       ??$?0AAV?$_Tree_const_iterator@V?$_Tree_val@U?$_Tree_simple_types@H@std@@@std@@@std@@_NX@?$pair@V?$_Tree_const_iterator@V?$_Tree_val@U?$_Tree_simple_types@H@std@@@std@@@std@@_N@std@@QAE@AAV?$_Tree_const_iterator@V?$_Tree_val@U?$_Tree_simple_types@H@std@@@std@@@1@$$QA_N@Z 00474240 f i closedDriversList.obj
 0002:00024310       ??$?0U?$_Tree_node@HPAX@std@@@?$allocator@U_Container_proxy@std@@@std@@QAE@ABV?$allocator@U?$_Tree_node@HPAX@std@@@1@@Z 00474310 f i closedDriversList.obj
 0002:00024350       ??$?0U?$_Wrap_alloc@V?$allocator@U?$_Tree_node@HPAX@std@@@std@@@std@@@?$_Wrap_alloc@V?$allocator@U_Container_proxy@std@@@std@@@std@@QAE@ABU?$_Wrap_alloc@V?$allocator@U?$_Tree_node@HPAX@std@@@std@@@1@@Z 00474350 f i closedDriversList.obj
 0002:000243b0       ??$?0V?$_Tree_const_iterator@V?$_Tree_val@U?$_Tree_simple_types@H@std@@@std@@@std@@_NX@?$pair@V?$_Tree_const_iterator@V?$_Tree_val@U?$_Tree_simple_types@H@std@@@std@@@std@@_N@std@@QAE@$$QAV?$_Tree_const_iterator@V?$_Tree_val@U?$_Tree_simple_types@H@std@@@std@@@1@$$QA_N@Z 004743b0 f i closedDriversList.obj
 0002:00024480       ??$_Allocate@U?$_Tree_node@HPAX@std@@@std@@YAPAU?$_Tree_node@HPAX@0@IPAU10@@Z 00474480 f i closedDriversList.obj
 0002:00024510       ??$_Buynode@ABH@?$_Tree_buy@HV?$allocator@H@std@@@std@@QAEPAU?$_Tree_node@HPAX@1@ABH@Z 00474510 f i closedDriversList.obj
 0002:00024650       ??$_Buynode_if_nil@ABH@?$_Tree@V?$_Tset_traits@HU?$less@H@std@@V?$allocator@H@2@$0A@@std@@@std@@IAEPAU?$_Tree_node@HPAX@1@U_Nil@1@ABH@Z 00474650 f i closedDriversList.obj
 0002:000246c0       ??$_Insert_at@ABHU_Nil@std@@@?$_Tree@V?$_Tset_traits@HU?$less@H@std@@V?$allocator@H@2@$0A@@std@@@std@@IAE?AV?$_Tree_const_iterator@V?$_Tree_val@U?$_Tree_simple_types@H@std@@@std@@@1@_NPAU?$_Tree_node@HPAX@1@ABHU_Nil@1@@Z 004746c0 f i closedDriversList.obj
 0002:00024c90       ??$_Insert_nohint@ABHU_Nil@std@@@?$_Tree@V?$_Tset_traits@HU?$less@H@std@@V?$allocator@H@2@$0A@@std@@@std@@IAE?AU?$pair@V?$_Tree_const_iterator@V?$_Tree_val@U?$_Tree_simple_types@H@std@@@std@@@std@@_N@1@_NABHU_Nil@1@@Z 00474c90 f i closedDriversList.obj
 0002:000252a0       ??$addressof@H@std@@YAPAHAAH@Z 004752a0 f i closedDriversList.obj
 0002:000252e0       ??$addressof@PAU?$_Tree_node@HPAX@std@@@std@@YAPAPAU?$_Tree_node@HPAX@0@AAPAU10@@Z 004752e0 f i closedDriversList.obj
 0002:00025320       ??$construct@HABH@?$_Wrap_alloc@V?$allocator@U?$_Tree_node@HPAX@std@@@std@@@std@@QAEXPAHABH@Z 00475320 f i closedDriversList.obj
 0002:00025390       ??$construct@HABH@?$allocator@U?$_Tree_node@HPAX@std@@@std@@QAEXPAHABH@Z 00475390 f i closedDriversList.obj
 0002:00025490       ??$construct@HABH@?$allocator_traits@V?$allocator@U?$_Tree_node@HPAX@std@@@std@@@std@@SAXAAV?$allocator@U?$_Tree_node@HPAX@std@@@1@PAHABH@Z 00475490 f i closedDriversList.obj
 0002:000254f0       ??$construct@PAU?$_Tree_node@HPAX@std@@AAPAU12@@?$_Wrap_alloc@V?$allocator@U?$_Tree_node@HPAX@std@@@std@@@std@@QAEXPAPAU?$_Tree_node@HPAX@1@AAPAU21@@Z 004754f0 f i closedDriversList.obj
 0002:00025560       ??$construct@PAU?$_Tree_node@HPAX@std@@AAPAU12@@?$allocator@U?$_Tree_node@HPAX@std@@@std@@QAEXPAPAU?$_Tree_node@HPAX@1@AAPAU21@@Z 00475560 f i closedDriversList.obj
 0002:00025660       ??$construct@PAU?$_Tree_node@HPAX@std@@AAPAU12@@?$allocator_traits@V?$allocator@U?$_Tree_node@HPAX@std@@@std@@@std@@SAXAAV?$allocator@U?$_Tree_node@HPAX@std@@@1@PAPAU?$_Tree_node@HPAX@1@AAPAU31@@Z 00475660 f i closedDriversList.obj
 0002:000256c0       ??$destroy@H@?$_Wrap_alloc@V?$allocator@U?$_Tree_node@HPAX@std@@@std@@@std@@QAEXPAH@Z 004756c0 f i closedDriversList.obj
 0002:00025720       ??$destroy@H@?$allocator@U?$_Tree_node@HPAX@std@@@std@@QAEXPAH@Z 00475720 f i closedDriversList.obj
 0002:00025760       ??$destroy@H@?$allocator_traits@V?$allocator@U?$_Tree_node@HPAX@std@@@std@@@std@@SAXAAV?$allocator@U?$_Tree_node@HPAX@std@@@1@PAH@Z 00475760 f i closedDriversList.obj
 0002:000257b0       ??$destroy@PAU?$_Tree_node@HPAX@std@@@?$_Wrap_alloc@V?$allocator@U?$_Tree_node@HPAX@std@@@std@@@std@@QAEXPAPAU?$_Tree_node@HPAX@1@@Z 004757b0 f i closedDriversList.obj
 0002:00025810       ??$destroy@PAU?$_Tree_node@HPAX@std@@@?$allocator@U?$_Tree_node@HPAX@std@@@std@@QAEXPAPAU?$_Tree_node@HPAX@1@@Z 00475810 f i closedDriversList.obj
 0002:00025850       ??$destroy@PAU?$_Tree_node@HPAX@std@@@?$allocator_traits@V?$allocator@U?$_Tree_node@HPAX@std@@@std@@@std@@SAXAAV?$allocator@U?$_Tree_node@HPAX@std@@@1@PAPAU?$_Tree_node@HPAX@1@@Z 00475850 f i closedDriversList.obj
 0002:000258a0       ??$forward@AAPAU?$_Tree_node@HPAX@std@@@std@@YAAAPAU?$_Tree_node@HPAX@0@AAPAU10@@Z 004758a0 f i closedDriversList.obj
 0002:000258e0       ??$forward@AAV?$_Tree_const_iterator@V?$_Tree_val@U?$_Tree_simple_types@H@std@@@std@@@std@@@std@@YAAAV?$_Tree_const_iterator@V?$_Tree_val@U?$_Tree_simple_types@H@std@@@std@@@0@AAV10@@Z 004758e0 f i closedDriversList.obj
 0002:00025920       ??$forward@V?$_Tree_const_iterator@V?$_Tree_val@U?$_Tree_simple_types@H@std@@@std@@@std@@@std@@YA$$QAV?$_Tree_const_iterator@V?$_Tree_val@U?$_Tree_simple_types@H@std@@@std@@@0@AAV10@@Z 00475920 f i closedDriversList.obj
 0002:00025960       ??0?$_Iterator012@Ubidirectional_iterator_tag@std@@HHPBHABHU_Iterator_base12@2@@std@@QAE@ABU01@@Z 00475960 f i closedDriversList.obj
 0002:00025a00       ??0?$_Iterator012@Ubidirectional_iterator_tag@std@@HHPBHABHU_Iterator_base12@2@@std@@QAE@XZ 00475a00 f i closedDriversList.obj
 0002:00025aa0       ??0?$_Tree@V?$_Tset_traits@HU?$less@H@std@@V?$allocator@H@2@$0A@@std@@@std@@QAE@ABU?$less@H@1@ABV?$allocator@H@1@@Z 00475aa0 f i closedDriversList.obj
 0002:00025b50       ??0?$_Tree_alloc@$0A@U?$_Tree_base_types@HV?$allocator@H@std@@@std@@@std@@QAE@ABV?$allocator@H@1@@Z 00475b50 f i closedDriversList.obj
 0002:00025c50       ??0?$_Tree_buy@HV?$allocator@H@std@@@std@@QAE@ABV?$allocator@H@1@@Z 00475c50 f i closedDriversList.obj
 0002:00025cf0       ??0?$_Tree_comp@$0A@V?$_Tset_traits@HU?$less@H@std@@V?$allocator@H@2@$0A@@std@@@std@@QAE@ABU?$less@H@1@ABV?$allocator@H@1@@Z 00475cf0 f i closedDriversList.obj
 0002:00025d90       ??0?$_Tree_const_iterator@V?$_Tree_val@U?$_Tree_simple_types@H@std@@@std@@@std@@QAE@ABV01@@Z 00475d90 f i closedDriversList.obj
 0002:00025e30       ??0?$_Tree_const_iterator@V?$_Tree_val@U?$_Tree_simple_types@H@std@@@std@@@std@@QAE@PAU?$_Tree_node@HPAX@1@PBV?$_Tree_val@U?$_Tree_simple_types@H@std@@@1@@Z 00475e30 f i closedDriversList.obj
 0002:00025ee0       ??0?$_Tree_unchecked_const_iterator@V?$_Tree_val@U?$_Tree_simple_types@H@std@@@std@@U_Iterator_base12@2@@std@@QAE@ABV01@@Z 00475ee0 f i closedDriversList.obj
 0002:00025f90       ??0?$_Tree_unchecked_const_iterator@V?$_Tree_val@U?$_Tree_simple_types@H@std@@@std@@U_Iterator_base12@2@@std@@QAE@PAU?$_Tree_node@HPAX@1@PBV?$_Tree_val@U?$_Tree_simple_types@H@std@@@1@@Z 00475f90 f i closedDriversList.obj
 0002:00026050       ??0?$_Tree_val@U?$_Tree_simple_types@H@std@@@std@@QAE@XZ 00476050 f i closedDriversList.obj
 0002:00026110       ??0?$_Wrap_alloc@V?$allocator@U?$_Tree_node@HPAX@std@@@std@@@std@@QAE@XZ 00476110 f i closedDriversList.obj
 0002:00026170       ??0?$allocator@H@std@@QAE@XZ 00476170 f i closedDriversList.obj
 0002:000261b0       ??0?$allocator@U?$_Tree_node@HPAX@std@@@std@@QAE@XZ 004761b0 f i closedDriversList.obj
 0002:000261f0       ??0?$set@HU?$less@H@std@@V?$allocator@H@2@@std@@QAE@XZ 004761f0 f i closedDriversList.obj
 0002:000262a0       ??1?$_Iterator012@Ubidirectional_iterator_tag@std@@HHPBHABHU_Iterator_base12@2@@std@@QAE@XZ 004762a0 f i closedDriversList.obj
 0002:00026340       ??1?$_Tree@V?$_Tset_traits@HU?$less@H@std@@V?$allocator@H@2@$0A@@std@@@std@@QAE@XZ 00476340 f i closedDriversList.obj
 0002:000263e0       ??1?$_Tree_alloc@$0A@U?$_Tree_base_types@HV?$allocator@H@std@@@std@@@std@@QAE@XZ 004763e0 f i closedDriversList.obj
 0002:000264a0       ??1?$_Tree_buy@HV?$allocator@H@std@@@std@@QAE@XZ 004764a0 f i closedDriversList.obj
 0002:00026540       ??1?$_Tree_comp@$0A@V?$_Tset_traits@HU?$less@H@std@@V?$allocator@H@2@$0A@@std@@@std@@QAE@XZ 00476540 f i closedDriversList.obj
 0002:000265e0       ??1?$_Tree_const_iterator@V?$_Tree_val@U?$_Tree_simple_types@H@std@@@std@@@std@@QAE@XZ 004765e0 f i closedDriversList.obj
 0002:00026680       ??1?$_Tree_unchecked_const_iterator@V?$_Tree_val@U?$_Tree_simple_types@H@std@@@std@@U_Iterator_base12@2@@std@@QAE@XZ 00476680 f i closedDriversList.obj
 0002:00026720       ??1?$_Tree_val@U?$_Tree_simple_types@H@std@@@std@@QAE@XZ 00476720 f i closedDriversList.obj
 0002:000267d0       ??1?$pair@V?$_Tree_const_iterator@V?$_Tree_val@U?$_Tree_simple_types@H@std@@@std@@@std@@_N@std@@QAE@XZ 004767d0 f i closedDriversList.obj
 0002:00026870       ??1?$set@HU?$less@H@std@@V?$allocator@H@2@@std@@QAE@XZ 00476870 f i closedDriversList.obj
 0002:00026910       ??8?$_Tree_const_iterator@V?$_Tree_val@U?$_Tree_simple_types@H@std@@@std@@@std@@QBE_NABV01@@Z 00476910 f i closedDriversList.obj
 0002:00026a70       ??9?$_Tree_const_iterator@V?$_Tree_val@U?$_Tree_simple_types@H@std@@@std@@@std@@QBE_NABV01@@Z 00476a70 f i closedDriversList.obj
 0002:00026b00       ??D?$_Tree_const_iterator@V?$_Tree_val@U?$_Tree_simple_types@H@std@@@std@@@std@@QBEABHXZ 00476b00 f i closedDriversList.obj
 0002:00026c40       ??E?$_Tree_const_iterator@V?$_Tree_val@U?$_Tree_simple_types@H@std@@@std@@@std@@QAE?AV01@H@Z 00476c40 f i closedDriversList.obj
 0002:00026d60       ??E?$_Tree_const_iterator@V?$_Tree_val@U?$_Tree_simple_types@H@std@@@std@@@std@@QAEAAV01@XZ 00476d60 f i closedDriversList.obj
 0002:00026ea0       ??E?$_Tree_unchecked_const_iterator@V?$_Tree_val@U?$_Tree_simple_types@H@std@@@std@@U_Iterator_base12@2@@std@@QAEAAV01@XZ 00476ea0 f i closedDriversList.obj
 0002:00026fd0       ??F?$_Tree_const_iterator@V?$_Tree_val@U?$_Tree_simple_types@H@std@@@std@@@std@@QAEAAV01@XZ 00476fd0 f i closedDriversList.obj
 0002:000271b0       ??F?$_Tree_unchecked_const_iterator@V?$_Tree_val@U?$_Tree_simple_types@H@std@@@std@@U_Iterator_base12@2@@std@@QAEAAV01@XZ 004771b0 f i closedDriversList.obj
 0002:00027310       ?_Alloc_proxy@?$_Tree_alloc@$0A@U?$_Tree_base_types@HV?$allocator@H@std@@@std@@@std@@QAEXXZ 00477310 f i closedDriversList.obj
 0002:000273f0       ?_Buyheadnode@?$_Tree_alloc@$0A@U?$_Tree_base_types@HV?$allocator@H@std@@@std@@@std@@QAEPAU?$_Tree_node@HPAX@2@XZ 004773f0 f i closedDriversList.obj
 0002:00027600       ?_Buynode0@?$_Tree_buy@HV?$allocator@H@std@@@std@@QAEPAU?$_Tree_node@HPAX@2@XZ 00477600 f i closedDriversList.obj
 0002:000277c0       ?_Color@?$_Tree_val@U?$_Tree_simple_types@H@std@@@std@@SAAADPAU?$_Tree_node@HPAX@2@@Z 004777c0 f i closedDriversList.obj
 0002:00027800       ?_Destroy_if_not_nil@?$_Tree@V?$_Tset_traits@HU?$less@H@std@@V?$allocator@H@2@$0A@@std@@@std@@IAEXU_Nil@2@@Z 00477800 f i closedDriversList.obj
 0002:00027840       ?_Erase@?$_Tree@V?$_Tset_traits@HU?$less@H@std@@V?$allocator@H@2@$0A@@std@@@std@@IAEXPAU?$_Tree_node@HPAX@2@@Z 00477840 f i closedDriversList.obj
 0002:00027950       ?_Free_proxy@?$_Tree_alloc@$0A@U?$_Tree_base_types@HV?$allocator@H@std@@@std@@@std@@QAEXXZ 00477950 f i closedDriversList.obj
 0002:00027a40       ?_Freeheadnode@?$_Tree_alloc@$0A@U?$_Tree_base_types@HV?$allocator@H@std@@@std@@@std@@QAEXPAU?$_Tree_node@HPAX@2@@Z 00477a40 f i closedDriversList.obj
 0002:00027b50       ?_Freenode0@?$_Tree_buy@HV?$allocator@H@std@@@std@@QAEXPAU?$_Tree_node@HPAX@2@@Z 00477b50 f i closedDriversList.obj
 0002:00027c60       ?_Getal@?$_Tree_alloc@$0A@U?$_Tree_base_types@HV?$allocator@H@std@@@std@@@std@@QBE?AU?$_Wrap_alloc@V?$allocator@U?$_Tree_node@HPAX@std@@@std@@@2@XZ 00477c60 f i closedDriversList.obj
 0002:00027cc0       ?_Getcomp@?$_Tree_comp@$0A@V?$_Tset_traits@HU?$less@H@std@@V?$allocator@H@2@$0A@@std@@@std@@QBE?AU?$less@H@2@XZ 00477cc0 f i closedDriversList.obj
 0002:00027d00       ?_Isnil@?$_Tree_val@U?$_Tree_simple_types@H@std@@@std@@SAAADPAU?$_Tree_node@HPAX@2@@Z 00477d00 f i closedDriversList.obj
 0002:00027d40       ?_Key@?$_Tree@V?$_Tset_traits@HU?$less@H@std@@V?$allocator@H@2@$0A@@std@@@std@@IBEABHPAU?$_Tree_node@HPAX@2@@Z 00477d40 f i closedDriversList.obj
 0002:00027db0       ?_Kfn@?$_Tree@V?$_Tset_traits@HU?$less@H@std@@V?$allocator@H@2@$0A@@std@@@std@@IBEABHABH@Z 00477db0 f i closedDriversList.obj
 0002:00027e10       ?_Kfn@?$_Tset_traits@HU?$less@H@std@@V?$allocator@H@2@$0A@@std@@SAABHABH@Z 00477e10 f i closedDriversList.obj
 0002:00027e50       ?_Lbound@?$_Tree@V?$_Tset_traits@HU?$less@H@std@@V?$allocator@H@2@$0A@@std@@@std@@IAEPAU?$_Tree_node@HPAX@2@ABH@Z 00477e50 f i closedDriversList.obj
 0002:00027f60       ?_Left@?$_Tree_val@U?$_Tree_simple_types@H@std@@@std@@SAAAPAU?$_Tree_node@HPAX@2@PAU32@@Z 00477f60 f i closedDriversList.obj
 0002:00027fa0       ?_Lmost@?$_Tree@V?$_Tset_traits@HU?$less@H@std@@V?$allocator@H@2@$0A@@std@@@std@@IBEAAPAU?$_Tree_node@HPAX@2@XZ 00477fa0 f i closedDriversList.obj
 0002:00028000       ?_Lrotate@?$_Tree@V?$_Tset_traits@HU?$less@H@std@@V?$allocator@H@2@$0A@@std@@@std@@IAEXPAU?$_Tree_node@HPAX@2@@Z 00478000 f i closedDriversList.obj
 0002:000281b0       ?_Max@?$_Tree_val@U?$_Tree_simple_types@H@std@@@std@@SAPAU?$_Tree_node@HPAX@2@PAU32@@Z 004781b0 f i closedDriversList.obj
 0002:00028230       ?_Min@?$_Tree_val@U?$_Tree_simple_types@H@std@@@std@@SAPAU?$_Tree_node@HPAX@2@PAU32@@Z 00478230 f i closedDriversList.obj
 0002:000282b0       ?_Mynode@?$_Tree_unchecked_const_iterator@V?$_Tree_val@U?$_Tree_simple_types@H@std@@@std@@U_Iterator_base12@2@@std@@QBEPAU?$_Tree_node@HPAX@2@XZ 004782b0 f i closedDriversList.obj
 0002:000282f0       ?_Myval@?$_Tree_val@U?$_Tree_simple_types@H@std@@@std@@SAAAHPAU?$_Tree_node@HPAX@2@@Z 004782f0 f i closedDriversList.obj
 0002:00028330       ?_Orphan_ptr@?$_Tree@V?$_Tset_traits@HU?$less@H@std@@V?$allocator@H@2@$0A@@std@@@std@@IBEXAAV12@PAU?$_Tree_node@HPAX@2@@Z 00478330 f i closedDriversList.obj
 0002:000284c0       ?_Parent@?$_Tree_val@U?$_Tree_simple_types@H@std@@@std@@SAAAPAU?$_Tree_node@HPAX@2@PAU32@@Z 004784c0 f i closedDriversList.obj
 0002:00028500       ?_Right@?$_Tree_val@U?$_Tree_simple_types@H@std@@@std@@SAAAPAU?$_Tree_node@HPAX@2@PAU32@@Z 00478500 f i closedDriversList.obj
 0002:00028540       ?_Rmost@?$_Tree@V?$_Tset_traits@HU?$less@H@std@@V?$allocator@H@2@$0A@@std@@@std@@IBEAAPAU?$_Tree_node@HPAX@2@XZ 00478540 f i closedDriversList.obj
 0002:000285a0       ?_Root@?$_Tree@V?$_Tset_traits@HU?$less@H@std@@V?$allocator@H@2@$0A@@std@@@std@@IBEAAPAU?$_Tree_node@HPAX@2@XZ 004785a0 f i closedDriversList.obj
 0002:00028600       ?_Rrotate@?$_Tree@V?$_Tset_traits@HU?$less@H@std@@V?$allocator@H@2@$0A@@std@@@std@@IAEXPAU?$_Tree_node@HPAX@2@@Z 00478600 f i closedDriversList.obj
 0002:000287b0       ?_Tidy@?$_Tree@V?$_Tset_traits@HU?$less@H@std@@V?$allocator@H@2@$0A@@std@@@std@@IAEXXZ 004787b0 f i closedDriversList.obj
 0002:000288d0       ?allocate@?$_Wrap_alloc@V?$allocator@U?$_Tree_node@HPAX@std@@@std@@@std@@QAEPAU?$_Tree_node@HPAX@2@I@Z 004788d0 f i closedDriversList.obj
 0002:00028930       ?allocate@?$allocator@U?$_Tree_node@HPAX@std@@@std@@QAEPAU?$_Tree_node@HPAX@2@I@Z 00478930 f i closedDriversList.obj
 0002:00028990       ?begin@?$_Tree@V?$_Tset_traits@HU?$less@H@std@@V?$allocator@H@2@$0A@@std@@@std@@QAE?AV?$_Tree_const_iterator@V?$_Tree_val@U?$_Tree_simple_types@H@std@@@std@@@2@XZ 00478990 f i closedDriversList.obj
 0002:00028a60       ?clear@?$_Tree@V?$_Tset_traits@HU?$less@H@std@@V?$allocator@H@2@$0A@@std@@@std@@QAEXXZ 00478a60 f i closedDriversList.obj
 0002:00028b20       ?deallocate@?$_Wrap_alloc@V?$allocator@U?$_Tree_node@HPAX@std@@@std@@@std@@QAEXPAU?$_Tree_node@HPAX@2@I@Z 00478b20 f i closedDriversList.obj
 0002:00028b80       ?deallocate@?$allocator@U?$_Tree_node@HPAX@std@@@std@@QAEXPAU?$_Tree_node@HPAX@2@I@Z 00478b80 f i closedDriversList.obj
 0002:00028be0       ?end@?$_Tree@V?$_Tset_traits@HU?$less@H@std@@V?$allocator@H@2@$0A@@std@@@std@@QAE?AV?$_Tree_const_iterator@V?$_Tree_val@U?$_Tree_simple_types@H@std@@@std@@@2@XZ 00478be0 f i closedDriversList.obj
 0002:00028ca0       ?erase@?$_Tree@V?$_Tset_traits@HU?$less@H@std@@V?$allocator@H@2@$0A@@std@@@std@@QAE?AV?$_Tree_const_iterator@V?$_Tree_val@U?$_Tree_simple_types@H@std@@@std@@@2@V32@0@Z 00478ca0 f i closedDriversList.obj
 0002:00028fd0       ?erase@?$_Tree@V?$_Tset_traits@HU?$less@H@std@@V?$allocator@H@2@$0A@@std@@@std@@QAE?AV?$_Tree_const_iterator@V?$_Tree_val@U?$_Tree_simple_types@H@std@@@std@@@2@V32@@Z 00478fd0 f i closedDriversList.obj
 0002:00029a50       ?find@?$_Tree@V?$_Tset_traits@HU?$less@H@std@@V?$allocator@H@2@$0A@@std@@@std@@QAE?AV?$_Tree_const_iterator@V?$_Tree_val@U?$_Tree_simple_types@H@std@@@std@@@2@ABH@Z 00479a50 f i closedDriversList.obj
 0002:00029d60       ?insert@?$_Tree@V?$_Tset_traits@HU?$less@H@std@@V?$allocator@H@2@$0A@@std@@@std@@QAE?AU?$pair@V?$_Tree_const_iterator@V?$_Tree_val@U?$_Tree_simple_types@H@std@@@std@@@std@@_N@2@ABH@Z 00479d60 f i closedDriversList.obj
 0002:00029e30       ?insert@?$set@HU?$less@H@std@@V?$allocator@H@2@@std@@QAE?AU?$pair@V?$_Tree_const_iterator@V?$_Tree_val@U?$_Tree_simple_types@H@std@@@std@@@std@@_N@2@ABH@Z 00479e30 f i closedDriversList.obj
 0002:00029ef0       ?lower_bound@?$_Tree@V?$_Tset_traits@HU?$less@H@std@@V?$allocator@H@2@$0A@@std@@@std@@QAE?AV?$_Tree_const_iterator@V?$_Tree_val@U?$_Tree_simple_types@H@std@@@std@@@2@ABH@Z 00479ef0 f i closedDriversList.obj
 0002:00029fc0       ?max_size@?$_Tree@V?$_Tset_traits@HU?$less@H@std@@V?$allocator@H@2@$0A@@std@@@std@@QBEIXZ 00479fc0 f i closedDriversList.obj
 0002:0002a020       ?max_size@?$_Wrap_alloc@V?$allocator@U?$_Tree_node@HPAX@std@@@std@@@std@@QBEIXZ 0047a020 f i closedDriversList.obj
 0002:0002a080       ?max_size@?$allocator@U?$_Tree_node@HPAX@std@@@std@@QBEIXZ 0047a080 f i closedDriversList.obj
 0002:0002a0c0       ?max_size@?$allocator_traits@V?$allocator@U?$_Tree_node@HPAX@std@@@std@@@std@@SAIABV?$allocator@U?$_Tree_node@HPAX@std@@@2@@Z 0047a0c0 f i closedDriversList.obj
 0002:0002a110       ?size@?$_Tree@V?$_Tset_traits@HU?$less@H@std@@V?$allocator@H@2@$0A@@std@@@std@@QBEIXZ 0047a110 f i closedDriversList.obj
 0002:0002a150       ?CSAbout_About@@YAXXZ      0047a150 f   Csabout.obj
 0002:0002a1b0       ?CSAbout_DialogProc@@YGHPAUHWND__@@GGJ@Z 0047a1b0 f   Csabout.obj
 0002:0002a390       ?CSCache_Init@@YAXXZ       0047a390 f   Cscache.obj
 0002:0002a460       ?CSCache_Closedown@@YAXXZ  0047a460 f   Cscache.obj
 0002:0002a540       ?CSCache_Alloc@@YAHHH@Z    0047a540 f   Cscache.obj
 0002:0002a640       ?CSCache_Test@@YAHHHH@Z    0047a640 f   Cscache.obj
 0002:0002a870       ?CSCache_Check@@YAHPAD@Z   0047a870 f   Cscache.obj
 0002:0002abb0       ?CSCache_TimeoutCheck@@YAXXZ 0047abb0 f   Cscache.obj
 0002:0002aca0       ?CSCache_Clear@@YAXH@Z     0047aca0 f   Cscache.obj
 0002:0002aec0       ?CSCache_WriteString@@YAXHHPBDH@Z 0047aec0 f   Cscache.obj
 0002:0002afa0       ?CSCache_PostedPoll@@YAXXZ 0047afa0 f   Cscache.obj
 0002:0002b4f0       ?CSCache_PostedRTRPoll@@YAXPAD@Z 0047b4f0 f   Cscache.obj
 0002:0002b730       ?CSCache_PostedGPIPoll@@YAXPAD@Z 0047b730 f   Cscache.obj
 0002:0002b970       ?CSCache_PostedINFPoll@@YAXPAD@Z 0047b970 f   Cscache.obj
 0002:0002bb80       ?CSCache_CalcPercent@@YAXXZ 0047bb80 f   Cscache.obj
 0002:0002bc40       ?CSCache_InfoRead@@YAXHHPAD@Z 0047bc40 f   Cscache.obj
 0002:0002bda0       ?CSCache_DeleteOldFiles@@YAXXZ 0047bda0 f   Cscache.obj
 0002:0002bfb0       ?CSCache_CreateFile@@YAHHPAD@Z 0047bfb0 f   Cscache.obj
 0002:0002c0f0       ?CSCache_GetFileHandle@@YAHH@Z 0047c0f0 f   Cscache.obj
 0002:0002c400       ?CSCache_GetData@@YAJPAD@Z 0047c400 f   Cscache.obj
 0002:0002c770       ?CSCache_Index@@YAHPAD@Z   0047c770 f   Cscache.obj
 0002:0002c930       ?CSCache_Profile@@YAHXZ    0047c930 f   Cscache.obj
 0002:0002c9c0       ?CSCache_WriteNumeric@@YAXHHH@Z 0047c9c0 f   Cscache.obj
 0002:0002ca90       ?mkdirRecursive@@YAXPBD@Z  0047ca90 f   Cscache.obj
 0002:0002cc50       ?CSCache_InfoWrite@@YAXHHPBDH@Z 0047cc50 f   Cscache.obj
 0002:0002d790       ??$?0U?$_Wrap_alloc@V?$allocator@VsizedBuffer@@@std@@@std@@@?$_Wrap_alloc@V?$allocator@PAVsizedBuffer@@@std@@@std@@QAE@ABU?$_Wrap_alloc@V?$allocator@VsizedBuffer@@@std@@@1@@Z 0047d790 f i Cscache.obj
 0002:0002d7f0       ??$?0VsizedBuffer@@@?$allocator@PAVsizedBuffer@@@std@@QAE@ABV?$allocator@VsizedBuffer@@@1@@Z 0047d7f0 f i Cscache.obj
 0002:0002d830       ??$_Allocate@PAVsizedBuffer@@@std@@YAPAPAVsizedBuffer@@IPAPAV1@@Z 0047d830 f i Cscache.obj
 0002:0002d8d0       ??$_Allocate@VsizedBuffer@@@std@@YAPAVsizedBuffer@@IPAV1@@Z 0047d8d0 f i Cscache.obj
 0002:0002d970       ??$_Debug_pointer@PAVsizedBuffer@@@std@@YAXPAPAVsizedBuffer@@PB_WI@Z 0047d970 f i Cscache.obj
 0002:0002d9e0       ??$_Debug_range2@PAPAVsizedBuffer@@@std@@YAXPAPAVsizedBuffer@@0PB_WIUrandom_access_iterator_tag@0@@Z 0047d9e0 f i Cscache.obj
 0002:0002da90       ??$_Debug_range@PAPAVsizedBuffer@@@std@@YAXPAPAVsizedBuffer@@0PB_WI@Z 0047da90 f i Cscache.obj
 0002:0002db10       ??$_Destroy_range@U?$_Wrap_alloc@V?$allocator@PAVsizedBuffer@@@std@@@std@@@std@@YAXPAPAVsizedBuffer@@0AAU?$_Wrap_alloc@V?$allocator@PAVsizedBuffer@@@std@@@0@@Z 0047db10 f i Cscache.obj
 0002:0002db90       ??$_Destroy_range@U?$_Wrap_alloc@V?$allocator@PAVsizedBuffer@@@std@@@std@@@std@@YAXPAPAVsizedBuffer@@0AAU?$_Wrap_alloc@V?$allocator@PAVsizedBuffer@@@std@@@0@U_Scalar_ptr_iterator_tag@0@@Z 0047db90 f i Cscache.obj
 0002:0002dbc0       ??$_Fill_n@PAPAVsizedBuffer@@IPAV1@@std@@YAPAPAVsizedBuffer@@PAPAV1@IABQAV1@@Z 0047dbc0 f i Cscache.obj
 0002:0002dc30       ??$_Iter_cat@PAPAVsizedBuffer@@@std@@YA?AUrandom_access_iterator_tag@0@ABQAPAVsizedBuffer@@@Z 0047dc30 f i Cscache.obj
 0002:0002dcb0       ??$_Ptr_cat@PAVsizedBuffer@@PAV1@@std@@YA?AU_Scalar_ptr_iterator_tag@0@PAPAVsizedBuffer@@0@Z 0047dcb0 f i Cscache.obj
 0002:0002dd20       ??$_Rechecked@PAPAVsizedBuffer@@PAPAV1@@std@@YAAAPAPAVsizedBuffer@@AAPAPAV1@PAPAV1@@Z 0047dd20 f i Cscache.obj
 0002:0002dd60       ??$_Unchecked@PAPAVsizedBuffer@@@std@@YAPAPAVsizedBuffer@@PAPAV1@@Z 0047dd60 f i Cscache.obj
 0002:0002dda0       ??$_Uninit_copy@PAPAVsizedBuffer@@PAPAV1@U?$_Wrap_alloc@V?$allocator@PAVsizedBuffer@@@std@@@std@@@std@@YAPAPAVsizedBuffer@@PAPAV1@00AAU?$_Wrap_alloc@V?$allocator@PAVsizedBuffer@@@std@@@0@@Z 0047dda0 f i Cscache.obj
 0002:0002de30       ??$_Uninit_copy@PAVsizedBuffer@@PAV1@@std@@YAPAPAVsizedBuffer@@PAPAV1@00AAU?$_Wrap_alloc@V?$allocator@PAVsizedBuffer@@@std@@@0@U_Scalar_ptr_iterator_tag@0@@Z 0047de30 f i Cscache.obj
 0002:0002def0       ??$_Uninit_def_fill_n@PAVsizedBuffer@@IPAV1@@std@@YAXPAPAVsizedBuffer@@IAAU?$_Wrap_alloc@V?$allocator@PAVsizedBuffer@@@std@@@0@0U_Scalar_ptr_iterator_tag@0@@Z 0047def0 f i Cscache.obj
 0002:0002df60       ??$_Uninitialized_copy@PAPAVsizedBuffer@@PAPAV1@U?$_Wrap_alloc@V?$allocator@PAVsizedBuffer@@@std@@@std@@@std@@YAPAPAVsizedBuffer@@PAPAV1@00AAU?$_Wrap_alloc@V?$allocator@PAVsizedBuffer@@@std@@@0@@Z 0047df60 f i Cscache.obj
 0002:0002e000       ??$_Uninitialized_default_fill_n@PAPAVsizedBuffer@@IU?$_Wrap_alloc@V?$allocator@PAVsizedBuffer@@@std@@@std@@@std@@YAXPAPAVsizedBuffer@@IAAU?$_Wrap_alloc@V?$allocator@PAVsizedBuffer@@@std@@@0@@Z 0047e000 f i Cscache.obj
 0002:0002e090       ??$_Val_type@PAPAVsizedBuffer@@@std@@YAPAPAVsizedBuffer@@PAPAV1@@Z 0047e090 f i Cscache.obj
 0002:0002e0c0       ??$construct@VsizedBuffer@@V1@@?$_Wrap_alloc@V?$allocator@VsizedBuffer@@@std@@@std@@QAEXPAVsizedBuffer@@$$QAV2@@Z 0047e0c0 f i Cscache.obj
 0002:0002e130       ??$construct@VsizedBuffer@@V1@@?$allocator@VsizedBuffer@@@std@@QAEXPAVsizedBuffer@@$$QAV2@@Z 0047e130 f i Cscache.obj
 0002:0002e230       ??$construct@VsizedBuffer@@V1@@?$allocator_traits@V?$allocator@VsizedBuffer@@@std@@@std@@SAXAAV?$allocator@VsizedBuffer@@@1@PAVsizedBuffer@@$$QAV3@@Z 0047e230 f i Cscache.obj
 0002:0002e290       ??$destroy@VsizedBuffer@@@?$_Wrap_alloc@V?$allocator@VsizedBuffer@@@std@@@std@@QAEXPAVsizedBuffer@@@Z 0047e290 f i Cscache.obj
 0002:0002e2f0       ??$destroy@VsizedBuffer@@@?$allocator@VsizedBuffer@@@std@@QAEXPAVsizedBuffer@@@Z 0047e2f0 f i Cscache.obj
 0002:0002e360       ??$destroy@VsizedBuffer@@@?$allocator_traits@V?$allocator@VsizedBuffer@@@std@@@std@@SAXAAV?$allocator@VsizedBuffer@@@1@PAVsizedBuffer@@@Z 0047e360 f i Cscache.obj
 0002:0002e3b0       ??$forward@VsizedBuffer@@@std@@YA$$QAVsizedBuffer@@AAV1@@Z 0047e3b0 f i Cscache.obj
 0002:0002e3f0       ??$move@AAVsizedBuffer@@@std@@YA$$QAVsizedBuffer@@AAV1@@Z 0047e3f0 f i Cscache.obj
 0002:0002e430       ??0?$_Deque_const_iterator@V?$_Deque_val@U?$_Deque_simple_types@VsizedBuffer@@@std@@@std@@@std@@QAE@IPBU_Container_base12@1@@Z 0047e430 f i Cscache.obj
 0002:0002e4f0       ??0?$_Deque_iterator@V?$_Deque_val@U?$_Deque_simple_types@VsizedBuffer@@@std@@@std@@@std@@QAE@IPBU_Container_base12@1@@Z 0047e4f0 f i Cscache.obj
 0002:0002e5a0       ??0?$_Wrap_alloc@V?$allocator@VsizedBuffer@@@std@@@std@@QAE@XZ 0047e5a0 f i Cscache.obj
 0002:0002e600       ??0?$allocator@VsizedBuffer@@@std@@QAE@XZ 0047e600 f i Cscache.obj
 0002:0002e640       ??1?$_Deque_const_iterator@V?$_Deque_val@U?$_Deque_simple_types@VsizedBuffer@@@std@@@std@@@std@@QAE@XZ 0047e640 f i Cscache.obj
 0002:0002e6e0       ??1?$_Deque_iterator@V?$_Deque_val@U?$_Deque_simple_types@VsizedBuffer@@@std@@@std@@@std@@QAE@XZ 0047e6e0 f i Cscache.obj
 0002:0002e780       ??D?$_Deque_const_iterator@V?$_Deque_val@U?$_Deque_simple_types@VsizedBuffer@@@std@@@std@@@std@@QBEABVsizedBuffer@@XZ 0047e780 f i Cscache.obj
 0002:0002e900       ??D?$_Deque_iterator@V?$_Deque_val@U?$_Deque_simple_types@VsizedBuffer@@@std@@@std@@@std@@QBEAAVsizedBuffer@@XZ 0047e900 f i Cscache.obj
 0002:0002e950       ?_Getal@?$_Deque_alloc@$0A@U?$_Deque_base_types@VsizedBuffer@@V?$allocator@VsizedBuffer@@@std@@@std@@@std@@QBE?AU?$_Wrap_alloc@V?$allocator@VsizedBuffer@@@std@@@2@XZ 0047e950 f i Cscache.obj
 0002:0002e9b0       ?_Getblock@?$_Deque_val@U?$_Deque_simple_types@VsizedBuffer@@@std@@@std@@QBEII@Z 0047e9b0 f i Cscache.obj
 0002:0002ea00       ?_Growmap@?$deque@VsizedBuffer@@V?$allocator@VsizedBuffer@@@std@@@std@@IAEXI@Z 0047ea00 f i Cscache.obj
 0002:0002ed00       ?_Orphan_off@?$deque@VsizedBuffer@@V?$allocator@VsizedBuffer@@@std@@@std@@IBEXI@Z 0047ed00 f i Cscache.obj
 0002:0002eed0       ?_Setcont@?$_Deque_const_iterator@V?$_Deque_val@U?$_Deque_simple_types@VsizedBuffer@@@std@@@std@@@std@@QAEXPBV?$_Deque_val@U?$_Deque_simple_types@VsizedBuffer@@@std@@@2@@Z 0047eed0 f i Cscache.obj
 0002:0002ef30       ?_Xlen@?$deque@VsizedBuffer@@V?$allocator@VsizedBuffer@@@std@@@std@@IBEXXZ 0047ef30 f i Cscache.obj
 0002:0002ef90       ?allocate@?$_Wrap_alloc@V?$allocator@PAVsizedBuffer@@@std@@@std@@QAEPAPAVsizedBuffer@@I@Z 0047ef90 f i Cscache.obj
 0002:0002eff0       ?allocate@?$_Wrap_alloc@V?$allocator@VsizedBuffer@@@std@@@std@@QAEPAVsizedBuffer@@I@Z 0047eff0 f i Cscache.obj
 0002:0002f050       ?allocate@?$allocator@PAVsizedBuffer@@@std@@QAEPAPAVsizedBuffer@@I@Z 0047f050 f i Cscache.obj
 0002:0002f0b0       ?allocate@?$allocator@VsizedBuffer@@@std@@QAEPAVsizedBuffer@@I@Z 0047f0b0 f i Cscache.obj
 0002:0002f110       ?begin@?$deque@VsizedBuffer@@V?$allocator@VsizedBuffer@@@std@@@std@@QAE?AV?$_Deque_iterator@V?$_Deque_val@U?$_Deque_simple_types@VsizedBuffer@@@std@@@std@@@2@XZ 0047f110 f i Cscache.obj
 0002:0002f1d0       ?deallocate@?$_Wrap_alloc@V?$allocator@PAVsizedBuffer@@@std@@@std@@QAEXPAPAVsizedBuffer@@I@Z 0047f1d0 f i Cscache.obj
 0002:0002f230       ?deallocate@?$allocator@PAVsizedBuffer@@@std@@QAEXPAPAVsizedBuffer@@I@Z 0047f230 f i Cscache.obj
 0002:0002f290       ?empty@?$deque@VsizedBuffer@@V?$allocator@VsizedBuffer@@@std@@@std@@QBE_NXZ 0047f290 f i Cscache.obj
 0002:0002f300       ?front@?$deque@VsizedBuffer@@V?$allocator@VsizedBuffer@@@std@@@std@@QAEAAVsizedBuffer@@XZ 0047f300 f i Cscache.obj
 0002:0002f3e0       ?front@?$queue@VsizedBuffer@@V?$deque@VsizedBuffer@@V?$allocator@VsizedBuffer@@@std@@@std@@@std@@QAEAAVsizedBuffer@@XZ 0047f3e0 f i Cscache.obj
 0002:0002f430       ?max_size@?$_Wrap_alloc@V?$allocator@VsizedBuffer@@@std@@@std@@QBEIXZ 0047f430 f i Cscache.obj
 0002:0002f490       ?max_size@?$allocator@VsizedBuffer@@@std@@QBEIXZ 0047f490 f i Cscache.obj
 0002:0002f4d0       ?max_size@?$allocator_traits@V?$allocator@VsizedBuffer@@@std@@@std@@SAIABV?$allocator@VsizedBuffer@@@2@@Z 0047f4d0 f i Cscache.obj
 0002:0002f520       ?max_size@?$deque@VsizedBuffer@@V?$allocator@VsizedBuffer@@@std@@@std@@QBEIXZ 0047f520 f i Cscache.obj
 0002:0002f580       ?pop@?$queue@VsizedBuffer@@V?$deque@VsizedBuffer@@V?$allocator@VsizedBuffer@@@std@@@std@@@std@@QAEXXZ 0047f580 f i Cscache.obj
 0002:0002f5d0       ?pop_front@?$deque@VsizedBuffer@@V?$allocator@VsizedBuffer@@@std@@@std@@QAEXXZ 0047f5d0 f i Cscache.obj
 0002:0002f720       ?push@?$queue@VsizedBuffer@@V?$deque@VsizedBuffer@@V?$allocator@VsizedBuffer@@@std@@@std@@@std@@QAEX$$QAVsizedBuffer@@@Z 0047f720 f i Cscache.obj
 0002:0002f790       ?push_back@?$deque@VsizedBuffer@@V?$allocator@VsizedBuffer@@@std@@@std@@QAEX$$QAVsizedBuffer@@@Z 0047f790 f i Cscache.obj
 0002:0002f910       ?size@?$deque@VsizedBuffer@@V?$allocator@VsizedBuffer@@@std@@@std@@QBEIXZ 0047f910 f i Cscache.obj
 0002:0002f950       ?size@?$queue@VsizedBuffer@@V?$deque@VsizedBuffer@@V?$allocator@VsizedBuffer@@@std@@@std@@@std@@QBEIXZ 0047f950 f i Cscache.obj
 0002:0002f9a0       ?CSCmd_BkgRevertive@@YAXPAD@Z 0047f9a0 f   Cscmd.obj
 0002:0002fa10       ?CSCmd_DeviceProfile@@YAXPAD@Z 0047fa10 f   Cscmd.obj
 0002:0002faa0       ?CSCmd_InfoRevertive@@YAXPAD@Z 0047faa0 f   Cscmd.obj
 0002:0002fd80       ?CSCmd_GPIRevertive@@YAXPAD@Z 0047fd80 f   Cscmd.obj
 0002:0002ff80       ?CSCmd_NetAttention@@YAXPAD@Z 0047ff80 f   Cscmd.obj
 0002:0002ffc0       ?CSCmd_NetBroken@@YAXPAD@Z 0047ffc0 f   Cscmd.obj
 0002:00030060       ?CSCmd_NetClose@@YAXPAD@Z  00480060 f   Cscmd.obj
 0002:000303b0       ?CSCmd_NetDisable@@YAXPAD@Z 004803b0 f   Cscmd.obj
 0002:000304f0       ?CSCmd_NetEnable@@YAXPAD@Z 004804f0 f   Cscmd.obj
 0002:00030620       ?CSCmd_NetInquire@@YAXPAD@Z 00480620 f   Cscmd.obj
 0002:00030a30       ?CSCmd_NetLoopTest@@YAXPAD@Z 00480a30 f   Cscmd.obj
 0002:00030aa0       ?CSCmd_NetModify@@YAXPAD@Z 00480aa0 f   Cscmd.obj
 0002:00030d10       ?CSCmd_NetObject@@YAXPAD@Z 00480d10 f   Cscmd.obj
 0002:00030fd0       ?CSCmd_NetPing@@YAXPAD@Z   00480fd0 f   Cscmd.obj
 0002:00031030       ?CSCmd_NetRestart@@YAXPAD@Z 00481030 f   Cscmd.obj
 0002:000310e0       ?CSCmd_NetStatus@@YAXPAD@Z 004810e0 f   Cscmd.obj
 0002:000313d0       ?CSCmd_RtrDatabase@@YAXPAD@Z 004813d0 f   Cscmd.obj
 0002:00031730       ?CSCmd_RtrModify@@YAXPAD@Z 00481730 f   Cscmd.obj
 0002:000319c0       ?CSCmd_RtrRevertive@@YAXPAD@Z 004819c0 f   Cscmd.obj
 0002:00031c40       ?CSCmd_TimeService@@YAXPAD@Z 00481c40 f   Cscmd.obj
 0002:00031e50       ?CSCmd_UniRevertive@@YAXPADH_N@Z 00481e50 f   Cscmd.obj
 0002:00032930       ?CSCmd_Heartbeat@@YAXPBDH_N@Z 00482930 f   Cscmd.obj
 0002:00032fc0       ?CSCmd_CheckSerialNumber@@YAXHK_N@Z 00482fc0 f   Cscmd.obj
 0002:00033330       ?CSCmd_ExtractUniSerial@@YAKPBEH@Z 00483330 f   Cscmd.obj
 0002:000333e0       ?CSCmd_DistributePacketErrorNotification@@YAXH@Z 004833e0 f   Cscmd.obj
 0002:000336a0       ?CSCmd_DoClearCache@@YAXHPBD@Z 004836a0 f   Cscmd.obj
 0002:00033890       ?CSCmd_SendWorkstationStatusRevertive@@YAXHPAVworkstationStatus@@@Z 00483890 f   Cscmd.obj
 0002:00033980       ?CSCmd_SendDeviceStatusRevertive@@YAXHPAVdeviceStatus@@@Z 00483980 f   Cscmd.obj
 0002:00033a70       ?CSCmd_PostedPollParams@@YAXHHHH@Z 00483a70 f   Cscmd.obj
 0002:00033c10       ?CSCmd_BuildWorkstationStatusSlot@@YAXHPAVworkstationStatus@@PAD@Z 00483c10 f   Cscmd.obj
 0002:00033ed0       ?CSCmd_BuildDeviceStatusSlot@@YAXHPAVdeviceStatus@@PAD@Z 00483ed0 f   Cscmd.obj
 0002:000341a0       ?CSCmd_DistributeTxRxStatus@@YAXIJ@Z 004841a0 f   Cscmd.obj
 0002:00034340       ?CSCmd_ConfigChange@@YAXPBD@Z 00484340 f   Cscmd.obj
 0002:00035910       ??$?0AAHVserialError@@X@?$pair@HVserialError@@@std@@QAE@AAH$$QAVserialError@@@Z 00485910 f i Cscmd.obj
 0002:000359e0       ??$?0AAV?$_Tree_iterator@V?$_Tree_val@U?$_Tree_simple_types@U?$pair@$$CBGVserialError@@@std@@@std@@@std@@@std@@_NX@?$pair@V?$_Tree_iterator@V?$_Tree_val@U?$_Tree_simple_types@U?$pair@$$CBGVserialError@@@std@@@std@@@std@@@std@@_N@std@@QAE@AAV?$_Tree_iterator@V?$_Tree_val@U?$_Tree_simple_types@U?$pair@$$CBGVserialError@@@std@@@std@@@std@@@1@$$QA_N@Z 004859e0 f i Cscmd.obj
 0002:00035ab0       ??$?0HVserialError@@X@?$pair@$$CBGVserialError@@@std@@QAE@$$QAU?$pair@HVserialError@@@1@@Z 00485ab0 f i Cscmd.obj
 0002:00035b80       ??$?0V?$_Tree_iterator@V?$_Tree_val@U?$_Tree_simple_types@U?$pair@$$CBGVserialError@@@std@@@std@@@std@@@std@@_NX@?$pair@V?$_Tree_iterator@V?$_Tree_val@U?$_Tree_simple_types@U?$pair@$$CBGVserialError@@@std@@@std@@@std@@@std@@_N@std@@QAE@$$QAV?$_Tree_iterator@V?$_Tree_val@U?$_Tree_simple_types@U?$pair@$$CBGVserialError@@@std@@@std@@@std@@@1@$$QA_N@Z 00485b80 f i Cscmd.obj
 0002:00035c50       ??$_Allocate@U?$_List_node@VdeviceStatusOnHost@@PAX@std@@@std@@YAPAU?$_List_node@VdeviceStatusOnHost@@PAX@0@IPAU10@@Z 00485c50 f i Cscmd.obj
 0002:00035ce0       ??$_Allocate@U?$_Tree_node@U?$pair@$$CBGVserialError@@@std@@PAX@std@@@std@@YAPAU?$_Tree_node@U?$pair@$$CBGVserialError@@@std@@PAX@0@IPAU10@@Z 00485ce0 f i Cscmd.obj
 0002:00035d70       ??$_Buynode@U?$pair@HVserialError@@@std@@@?$_Tree_buy@U?$pair@$$CBGVserialError@@@std@@V?$allocator@U?$pair@$$CBGVserialError@@@std@@@2@@std@@QAEPAU?$_Tree_node@U?$pair@$$CBGVserialError@@@std@@PAX@1@$$QAU?$pair@HVserialError@@@1@@Z 00485d70 f i Cscmd.obj
 0002:00035eb0       ??$_Buynode_if_nil@AAU?$pair@$$CBGVserialError@@@std@@@?$_Tree@V?$_Tmap_traits@GVserialError@@U?$less@G@std@@V?$allocator@U?$pair@$$CBGVserialError@@@std@@@3@$00@std@@@std@@IAEPAU?$_Tree_node@U?$pair@$$CBGVserialError@@@std@@PAX@1@PAU21@AAU?$pair@$$CBGVserialError@@@1@@Z 00485eb0 f i Cscmd.obj
 0002:00035ef0       ??$_Debug_lt_pred@U?$less@G@std@@ABGABG@std@@YA_NU?$less@G@0@ABG1PB_WI@Z 00485ef0 f i Cscmd.obj
 0002:00035fd0       ??$_Insert_at@AAU?$pair@$$CBGVserialError@@@std@@PAU?$_Tree_node@U?$pair@$$CBGVserialError@@@std@@PAX@2@@?$_Tree@V?$_Tmap_traits@GVserialError@@U?$less@G@std@@V?$allocator@U?$pair@$$CBGVserialError@@@std@@@3@$00@std@@@std@@IAE?AV?$_Tree_iterator@V?$_Tree_val@U?$_Tree_simple_types@U?$pair@$$CBGVserialError@@@std@@@std@@@std@@@1@_NPAU?$_Tree_node@U?$pair@$$CBGVserialError@@@std@@PAX@1@AAU?$pair@$$CBGVserialError@@@1@1@Z 00485fd0 f i Cscmd.obj
 0002:000365a0       ??$_Insert_nohint@AAU?$pair@$$CBGVserialError@@@std@@PAU?$_Tree_node@U?$pair@$$CBGVserialError@@@std@@PAX@2@@?$_Tree@V?$_Tmap_traits@GVserialError@@U?$less@G@std@@V?$allocator@U?$pair@$$CBGVserialError@@@std@@@3@$00@std@@@std@@IAE?AU?$pair@V?$_Tree_iterator@V?$_Tree_val@U?$_Tree_simple_types@U?$pair@$$CBGVserialError@@@std@@@std@@@std@@@std@@_N@1@_NAAU?$pair@$$CBGVserialError@@@1@PAU?$_Tree_node@U?$pair@$$CBGVserialError@@@std@@PAX@1@@Z 004865a0 f i Cscmd.obj
 0002:00036bb0       ??$_Kfn@$$CBGVserialError@@@?$_Tmap_traits@GVserialError@@U?$less@G@std@@V?$allocator@U?$pair@$$CBGVserialError@@@std@@@3@$00@std@@SAABGABU?$pair@$$CBGVserialError@@@1@@Z 00486bb0 f i Cscmd.obj
 0002:00036bf0       ??$addressof@PAU?$_List_node@PAUHWND__@@PAX@std@@@std@@YAPAPAU?$_List_node@PAUHWND__@@PAX@0@AAPAU10@@Z 00486bf0 f i Cscmd.obj
 0002:00036c30       ??$addressof@PAU?$_List_node@VdeviceStatusOnHost@@PAX@std@@@std@@YAPAPAU?$_List_node@VdeviceStatusOnHost@@PAX@0@AAPAU10@@Z 00486c30 f i Cscmd.obj
 0002:00036c70       ??$addressof@PAU?$_Tree_node@U?$pair@$$CBGVserialError@@@std@@PAX@std@@@std@@YAPAPAU?$_Tree_node@U?$pair@$$CBGVserialError@@@std@@PAX@0@AAPAU10@@Z 00486c70 f i Cscmd.obj
 0002:00036cb0       ??$addressof@PAUHWND__@@@std@@YAPAPAUHWND__@@AAPAU1@@Z 00486cb0 f i Cscmd.obj
 0002:00036cf0       ??$addressof@U?$pair@$$CBGVserialError@@@std@@@std@@YAPAU?$pair@$$CBGVserialError@@@0@AAU10@@Z 00486cf0 f i Cscmd.obj
 0002:00036d30       ??$addressof@VdeviceStatusOnHost@@@std@@YAPAVdeviceStatusOnHost@@AAV1@@Z 00486d30 f i Cscmd.obj
 0002:00036d70       ??$construct@PAU?$_List_node@VdeviceStatusOnHost@@PAX@std@@AAPAU12@@?$_Wrap_alloc@V?$allocator@U?$_List_node@VdeviceStatusOnHost@@PAX@std@@@std@@@std@@QAEXPAPAU?$_List_node@VdeviceStatusOnHost@@PAX@1@AAPAU21@@Z 00486d70 f i Cscmd.obj
 0002:00036de0       ??$construct@PAU?$_List_node@VdeviceStatusOnHost@@PAX@std@@AAPAU12@@?$allocator@U?$_List_node@VdeviceStatusOnHost@@PAX@std@@@std@@QAEXPAPAU?$_List_node@VdeviceStatusOnHost@@PAX@1@AAPAU21@@Z 00486de0 f i Cscmd.obj
 0002:00036ee0       ??$construct@PAU?$_List_node@VdeviceStatusOnHost@@PAX@std@@AAPAU12@@?$allocator_traits@V?$allocator@U?$_List_node@VdeviceStatusOnHost@@PAX@std@@@std@@@std@@SAXAAV?$allocator@U?$_List_node@VdeviceStatusOnHost@@PAX@std@@@1@PAPAU?$_List_node@VdeviceStatusOnHost@@PAX@1@AAPAU31@@Z 00486ee0 f i Cscmd.obj
 0002:00036f40       ??$construct@PAU?$_Tree_node@U?$pair@$$CBGVserialError@@@std@@PAX@std@@AAPAU12@@?$_Wrap_alloc@V?$allocator@U?$_Tree_node@U?$pair@$$CBGVserialError@@@std@@PAX@std@@@std@@@std@@QAEXPAPAU?$_Tree_node@U?$pair@$$CBGVserialError@@@std@@PAX@1@AAPAU21@@Z 00486f40 f i Cscmd.obj
 0002:00036fb0       ??$construct@PAU?$_Tree_node@U?$pair@$$CBGVserialError@@@std@@PAX@std@@AAPAU12@@?$allocator@U?$_Tree_node@U?$pair@$$CBGVserialError@@@std@@PAX@std@@@std@@QAEXPAPAU?$_Tree_node@U?$pair@$$CBGVserialError@@@std@@PAX@1@AAPAU21@@Z 00486fb0 f i Cscmd.obj
 0002:000370b0       ??$construct@PAU?$_Tree_node@U?$pair@$$CBGVserialError@@@std@@PAX@std@@AAPAU12@@?$allocator_traits@V?$allocator@U?$_Tree_node@U?$pair@$$CBGVserialError@@@std@@PAX@std@@@std@@@std@@SAXAAV?$allocator@U?$_Tree_node@U?$pair@$$CBGVserialError@@@std@@PAX@std@@@1@PAPAU?$_Tree_node@U?$pair@$$CBGVserialError@@@std@@PAX@1@AAPAU31@@Z 004870b0 f i Cscmd.obj
 0002:00037110       ??$construct@U?$pair@$$CBGVserialError@@@std@@U?$pair@HVserialError@@@2@@?$_Wrap_alloc@V?$allocator@U?$_Tree_node@U?$pair@$$CBGVserialError@@@std@@PAX@std@@@std@@@std@@QAEXPAU?$pair@$$CBGVserialError@@@1@$$QAU?$pair@HVserialError@@@1@@Z 00487110 f i Cscmd.obj
 0002:00037180       ??$construct@U?$pair@$$CBGVserialError@@@std@@U?$pair@HVserialError@@@2@@?$allocator@U?$_Tree_node@U?$pair@$$CBGVserialError@@@std@@PAX@std@@@std@@QAEXPAU?$pair@$$CBGVserialError@@@1@$$QAU?$pair@HVserialError@@@1@@Z 00487180 f i Cscmd.obj
 0002:00037280       ??$construct@U?$pair@$$CBGVserialError@@@std@@U?$pair@HVserialError@@@2@@?$allocator_traits@V?$allocator@U?$_Tree_node@U?$pair@$$CBGVserialError@@@std@@PAX@std@@@std@@@std@@SAXAAV?$allocator@U?$_Tree_node@U?$pair@$$CBGVserialError@@@std@@PAX@std@@@1@PAU?$pair@$$CBGVserialError@@@1@$$QAU?$pair@HVserialError@@@1@@Z 00487280 f i Cscmd.obj
 0002:000372e0       ??$destroy@PAU?$_List_node@PAUHWND__@@PAX@std@@@?$_Wrap_alloc@V?$allocator@U?$_List_node@PAUHWND__@@PAX@std@@@std@@@std@@QAEXPAPAU?$_List_node@PAUHWND__@@PAX@1@@Z 004872e0 f i Cscmd.obj
 0002:00037340       ??$destroy@PAU?$_List_node@PAUHWND__@@PAX@std@@@?$allocator@U?$_List_node@PAUHWND__@@PAX@std@@@std@@QAEXPAPAU?$_List_node@PAUHWND__@@PAX@1@@Z 00487340 f i Cscmd.obj
 0002:00037380       ??$destroy@PAU?$_List_node@PAUHWND__@@PAX@std@@@?$allocator_traits@V?$allocator@U?$_List_node@PAUHWND__@@PAX@std@@@std@@@std@@SAXAAV?$allocator@U?$_List_node@PAUHWND__@@PAX@std@@@1@PAPAU?$_List_node@PAUHWND__@@PAX@1@@Z 00487380 f i Cscmd.obj
 0002:000373d0       ??$destroy@PAU?$_List_node@VdeviceStatusOnHost@@PAX@std@@@?$_Wrap_alloc@V?$allocator@U?$_List_node@VdeviceStatusOnHost@@PAX@std@@@std@@@std@@QAEXPAPAU?$_List_node@VdeviceStatusOnHost@@PAX@1@@Z 004873d0 f i Cscmd.obj
 0002:00037430       ??$destroy@PAU?$_List_node@VdeviceStatusOnHost@@PAX@std@@@?$allocator@U?$_List_node@VdeviceStatusOnHost@@PAX@std@@@std@@QAEXPAPAU?$_List_node@VdeviceStatusOnHost@@PAX@1@@Z 00487430 f i Cscmd.obj
 0002:00037470       ??$destroy@PAU?$_List_node@VdeviceStatusOnHost@@PAX@std@@@?$allocator_traits@V?$allocator@U?$_List_node@VdeviceStatusOnHost@@PAX@std@@@std@@@std@@SAXAAV?$allocator@U?$_List_node@VdeviceStatusOnHost@@PAX@std@@@1@PAPAU?$_List_node@VdeviceStatusOnHost@@PAX@1@@Z 00487470 f i Cscmd.obj
 0002:000374c0       ??$destroy@PAU?$_Tree_node@U?$pair@$$CBGVserialError@@@std@@PAX@std@@@?$_Wrap_alloc@V?$allocator@U?$_Tree_node@U?$pair@$$CBGVserialError@@@std@@PAX@std@@@std@@@std@@QAEXPAPAU?$_Tree_node@U?$pair@$$CBGVserialError@@@std@@PAX@1@@Z 004874c0 f i Cscmd.obj
 0002:00037520       ??$destroy@PAU?$_Tree_node@U?$pair@$$CBGVserialError@@@std@@PAX@std@@@?$allocator@U?$_Tree_node@U?$pair@$$CBGVserialError@@@std@@PAX@std@@@std@@QAEXPAPAU?$_Tree_node@U?$pair@$$CBGVserialError@@@std@@PAX@1@@Z 00487520 f i Cscmd.obj
 0002:00037560       ??$destroy@PAU?$_Tree_node@U?$pair@$$CBGVserialError@@@std@@PAX@std@@@?$allocator_traits@V?$allocator@U?$_Tree_node@U?$pair@$$CBGVserialError@@@std@@PAX@std@@@std@@@std@@SAXAAV?$allocator@U?$_Tree_node@U?$pair@$$CBGVserialError@@@std@@PAX@std@@@1@PAPAU?$_Tree_node@U?$pair@$$CBGVserialError@@@std@@PAX@1@@Z 00487560 f i Cscmd.obj
 0002:000375b0       ??$destroy@PAUHWND__@@@?$_Wrap_alloc@V?$allocator@U?$_List_node@PAUHWND__@@PAX@std@@@std@@@std@@QAEXPAPAUHWND__@@@Z 004875b0 f i Cscmd.obj
 0002:00037610       ??$destroy@PAUHWND__@@@?$allocator@U?$_List_node@PAUHWND__@@PAX@std@@@std@@QAEXPAPAUHWND__@@@Z 00487610 f i Cscmd.obj
 0002:00037650       ??$destroy@PAUHWND__@@@?$allocator_traits@V?$allocator@U?$_List_node@PAUHWND__@@PAX@std@@@std@@@std@@SAXAAV?$allocator@U?$_List_node@PAUHWND__@@PAX@std@@@1@PAPAUHWND__@@@Z 00487650 f i Cscmd.obj
 0002:000376a0       ??$destroy@U?$pair@$$CBGVserialError@@@std@@@?$_Wrap_alloc@V?$allocator@U?$_Tree_node@U?$pair@$$CBGVserialError@@@std@@PAX@std@@@std@@@std@@QAEXPAU?$pair@$$CBGVserialError@@@1@@Z 004876a0 f i Cscmd.obj
 0002:00037700       ??$destroy@U?$pair@$$CBGVserialError@@@std@@@?$allocator@U?$_Tree_node@U?$pair@$$CBGVserialError@@@std@@PAX@std@@@std@@QAEXPAU?$pair@$$CBGVserialError@@@1@@Z 00487700 f i Cscmd.obj
 0002:00037760       ??$destroy@U?$pair@$$CBGVserialError@@@std@@@?$allocator_traits@V?$allocator@U?$_Tree_node@U?$pair@$$CBGVserialError@@@std@@PAX@std@@@std@@@std@@SAXAAV?$allocator@U?$_Tree_node@U?$pair@$$CBGVserialError@@@std@@PAX@std@@@1@PAU?$pair@$$CBGVserialError@@@1@@Z 00487760 f i Cscmd.obj
 0002:000377b0       ??$destroy@VdeviceStatusOnHost@@@?$_Wrap_alloc@V?$allocator@U?$_List_node@VdeviceStatusOnHost@@PAX@std@@@std@@@std@@QAEXPAVdeviceStatusOnHost@@@Z 004877b0 f i Cscmd.obj
 0002:00037810       ??$destroy@VdeviceStatusOnHost@@@?$allocator@U?$_List_node@VdeviceStatusOnHost@@PAX@std@@@std@@QAEXPAVdeviceStatusOnHost@@@Z 00487810 f i Cscmd.obj
 0002:00037850       ??$destroy@VdeviceStatusOnHost@@@?$allocator_traits@V?$allocator@U?$_List_node@VdeviceStatusOnHost@@PAX@std@@@std@@@std@@SAXAAV?$allocator@U?$_List_node@VdeviceStatusOnHost@@PAX@std@@@1@PAVdeviceStatusOnHost@@@Z 00487850 f i Cscmd.obj
 0002:000378a0       ??$forward@AAPAU?$_List_node@VdeviceStatusOnHost@@PAX@std@@@std@@YAAAPAU?$_List_node@VdeviceStatusOnHost@@PAX@0@AAPAU10@@Z 004878a0 f i Cscmd.obj
 0002:000378e0       ??$forward@AAPAU?$_Tree_node@U?$pair@$$CBGVserialError@@@std@@PAX@std@@@std@@YAAAPAU?$_Tree_node@U?$pair@$$CBGVserialError@@@std@@PAX@0@AAPAU10@@Z 004878e0 f i Cscmd.obj
 0002:00037920       ??$forward@AAU?$pair@$$CBGVserialError@@@std@@@std@@YAAAU?$pair@$$CBGVserialError@@@0@AAU10@@Z 00487920 f i Cscmd.obj
 0002:00037960       ??$forward@AAV?$_Tree_iterator@V?$_Tree_val@U?$_Tree_simple_types@U?$pair@$$CBGVserialError@@@std@@@std@@@std@@@std@@@std@@YAAAV?$_Tree_iterator@V?$_Tree_val@U?$_Tree_simple_types@U?$pair@$$CBGVserialError@@@std@@@std@@@std@@@0@AAV10@@Z 00487960 f i Cscmd.obj
 0002:000379a0       ??$forward@ABG@std@@YAABGABG@Z 004879a0 f i Cscmd.obj
 0002:000379e0       ??$forward@U?$pair@HVserialError@@@std@@@std@@YA$$QAU?$pair@HVserialError@@@0@AAU10@@Z 004879e0 f i Cscmd.obj
 0002:00037a20       ??$forward@V?$_Tree_iterator@V?$_Tree_val@U?$_Tree_simple_types@U?$pair@$$CBGVserialError@@@std@@@std@@@std@@@std@@@std@@YA$$QAV?$_Tree_iterator@V?$_Tree_val@U?$_Tree_simple_types@U?$pair@$$CBGVserialError@@@std@@@std@@@std@@@0@AAV10@@Z 00487a20 f i Cscmd.obj
 0002:00037a60       ??$forward@VserialError@@@std@@YA$$QAVserialError@@AAV1@@Z 00487a60 f i Cscmd.obj
 0002:00037aa0       ??$insert@U?$pair@HVserialError@@@std@@@?$_Tree@V?$_Tmap_traits@GVserialError@@U?$less@G@std@@V?$allocator@U?$pair@$$CBGVserialError@@@std@@@3@$00@std@@@std@@QAE?AU?$pair@V?$_Tree_iterator@V?$_Tree_val@U?$_Tree_simple_types@U?$pair@$$CBGVserialError@@@std@@@std@@@std@@@std@@_N@1@$$QAU?$pair@HVserialError@@@1@@Z 00487aa0 f i Cscmd.obj
 0002:00037b90       ??$insert@U?$pair@HVserialError@@@std@@@?$multimap@GVserialError@@U?$less@G@std@@V?$allocator@U?$pair@$$CBGVserialError@@@std@@@3@@std@@QAE?AV?$_Tree_iterator@V?$_Tree_val@U?$_Tree_simple_types@U?$pair@$$CBGVserialError@@@std@@@std@@@std@@@1@$$QAU?$pair@HVserialError@@@1@@Z 00487b90 f i Cscmd.obj
 0002:00037ca0       ??$make_pair@AAHVserialError@@@std@@YA?AU?$pair@HVserialError@@@0@AAH$$QAVserialError@@@Z 00487ca0 f i Cscmd.obj
 0002:00037d70       ??0?$_Iterator012@Ubidirectional_iterator_tag@std@@PAUHWND__@@HPBQAU3@ABQAU3@U_Iterator_base12@2@@std@@QAE@ABU01@@Z 00487d70 f i Cscmd.obj
 0002:00037e10       ??0?$_Iterator012@Ubidirectional_iterator_tag@std@@PAUHWND__@@HPBQAU3@ABQAU3@U_Iterator_base12@2@@std@@QAE@XZ 00487e10 f i Cscmd.obj
 0002:00037eb0       ??0?$_Iterator012@Ubidirectional_iterator_tag@std@@U?$pair@$$CBGVserialError@@@2@HPBU32@ABU32@U_Iterator_base12@2@@std@@QAE@ABU01@@Z 00487eb0 f i Cscmd.obj
 0002:00037f50       ??0?$_Iterator012@Ubidirectional_iterator_tag@std@@U?$pair@$$CBGVserialError@@@2@HPBU32@ABU32@U_Iterator_base12@2@@std@@QAE@XZ 00487f50 f i Cscmd.obj
 0002:00037ff0       ??0?$_Iterator012@Ubidirectional_iterator_tag@std@@VdeviceStatusOnHost@@HPBV3@ABV3@U_Iterator_base12@2@@std@@QAE@XZ 00487ff0 f i Cscmd.obj
 0002:00038090       ??0?$_List_alloc@$0A@U?$_List_base_types@VdeviceStatusOnHost@@V?$allocator@VdeviceStatusOnHost@@@std@@@std@@@std@@QAE@ABV?$allocator@VdeviceStatusOnHost@@@1@@Z 00488090 f i Cscmd.obj
 0002:00038190       ??0?$_List_buy@VdeviceStatusOnHost@@V?$allocator@VdeviceStatusOnHost@@@std@@@std@@QAE@ABV?$allocator@VdeviceStatusOnHost@@@1@@Z 00488190 f i Cscmd.obj
 0002:00038230       ??0?$_List_const_iterator@V?$_List_val@U?$_List_simple_types@PAUHWND__@@@std@@@std@@@std@@QAE@ABV01@@Z 00488230 f i Cscmd.obj
 0002:000382d0       ??0?$_List_const_iterator@V?$_List_val@U?$_List_simple_types@PAUHWND__@@@std@@@std@@@std@@QAE@PAU?$_List_node@PAUHWND__@@PAX@1@PBV?$_List_val@U?$_List_simple_types@PAUHWND__@@@std@@@1@@Z 004882d0 f i Cscmd.obj
 0002:00038380       ??0?$_List_const_iterator@V?$_List_val@U?$_List_simple_types@VdeviceStatusOnHost@@@std@@@std@@@std@@QAE@PAU?$_List_node@VdeviceStatusOnHost@@PAX@1@PBV?$_List_val@U?$_List_simple_types@VdeviceStatusOnHost@@@std@@@1@@Z 00488380 f i Cscmd.obj
 0002:00038430       ??0?$_List_iterator@V?$_List_val@U?$_List_simple_types@PAUHWND__@@@std@@@std@@@std@@QAE@PAU?$_List_node@PAUHWND__@@PAX@1@PBV?$_List_val@U?$_List_simple_types@PAUHWND__@@@std@@@1@@Z 00488430 f i Cscmd.obj
 0002:000384e0       ??0?$_List_iterator@V?$_List_val@U?$_List_simple_types@VdeviceStatusOnHost@@@std@@@std@@@std@@QAE@PAU?$_List_node@VdeviceStatusOnHost@@PAX@1@PBV?$_List_val@U?$_List_simple_types@VdeviceStatusOnHost@@@std@@@1@@Z 004884e0 f i Cscmd.obj
 0002:00038590       ??0?$_List_unchecked_const_iterator@V?$_List_val@U?$_List_simple_types@PAUHWND__@@@std@@@std@@U_Iterator_base12@2@@std@@QAE@ABV01@@Z 00488590 f i Cscmd.obj
 0002:00038640       ??0?$_List_unchecked_const_iterator@V?$_List_val@U?$_List_simple_types@PAUHWND__@@@std@@@std@@U_Iterator_base12@2@@std@@QAE@PAU?$_List_node@PAUHWND__@@PAX@1@PBV?$_List_val@U?$_List_simple_types@PAUHWND__@@@std@@@1@@Z 00488640 f i Cscmd.obj
 0002:00038700       ??0?$_List_unchecked_const_iterator@V?$_List_val@U?$_List_simple_types@VdeviceStatusOnHost@@@std@@@std@@U_Iterator_base12@2@@std@@QAE@PAU?$_List_node@VdeviceStatusOnHost@@PAX@1@PBV?$_List_val@U?$_List_simple_types@VdeviceStatusOnHost@@@std@@@1@@Z 00488700 f i Cscmd.obj
 0002:000387c0       ??0?$_List_val@U?$_List_simple_types@VdeviceStatusOnHost@@@std@@@std@@QAE@XZ 004887c0 f i Cscmd.obj
 0002:00038880       ??0?$_Tree_const_iterator@V?$_Tree_val@U?$_Tree_simple_types@U?$pair@$$CBGVserialError@@@std@@@std@@@std@@@std@@QAE@ABV01@@Z 00488880 f i Cscmd.obj
 0002:00038920       ??0?$_Tree_const_iterator@V?$_Tree_val@U?$_Tree_simple_types@U?$pair@$$CBGVserialError@@@std@@@std@@@std@@@std@@QAE@PAU?$_Tree_node@U?$pair@$$CBGVserialError@@@std@@PAX@1@PBV?$_Tree_val@U?$_Tree_simple_types@U?$pair@$$CBGVserialError@@@std@@@std@@@1@@Z 00488920 f i Cscmd.obj
 0002:000389d0       ??0?$_Tree_iterator@V?$_Tree_val@U?$_Tree_simple_types@U?$pair@$$CBGVserialError@@@std@@@std@@@std@@@std@@QAE@ABV01@@Z 004889d0 f i Cscmd.obj
 0002:00038a70       ??0?$_Tree_iterator@V?$_Tree_val@U?$_Tree_simple_types@U?$pair@$$CBGVserialError@@@std@@@std@@@std@@@std@@QAE@PAU?$_Tree_node@U?$pair@$$CBGVserialError@@@std@@PAX@1@PBV?$_Tree_val@U?$_Tree_simple_types@U?$pair@$$CBGVserialError@@@std@@@std@@@1@@Z 00488a70 f i Cscmd.obj
 0002:00038b20       ??0?$_Tree_unchecked_const_iterator@V?$_Tree_val@U?$_Tree_simple_types@U?$pair@$$CBGVserialError@@@std@@@std@@@std@@U_Iterator_base12@2@@std@@QAE@ABV01@@Z 00488b20 f i Cscmd.obj
 0002:00038bd0       ??0?$_Tree_unchecked_const_iterator@V?$_Tree_val@U?$_Tree_simple_types@U?$pair@$$CBGVserialError@@@std@@@std@@@std@@U_Iterator_base12@2@@std@@QAE@PAU?$_Tree_node@U?$pair@$$CBGVserialError@@@std@@PAX@1@PBV?$_Tree_val@U?$_Tree_simple_types@U?$pair@$$CBGVserialError@@@std@@@std@@@1@@Z 00488bd0 f i Cscmd.obj
 0002:00038c90       ??0?$_Wrap_alloc@V?$allocator@U?$_List_node@PAUHWND__@@PAX@std@@@std@@@std@@QAE@XZ 00488c90 f i Cscmd.obj
 0002:00038cf0       ??0?$_Wrap_alloc@V?$allocator@U?$_List_node@VdeviceStatusOnHost@@PAX@std@@@std@@@std@@QAE@XZ 00488cf0 f i Cscmd.obj
 0002:00038d50       ??0?$_Wrap_alloc@V?$allocator@U?$_Tree_node@U?$pair@$$CBGVserialError@@@std@@PAX@std@@@std@@@std@@QAE@XZ 00488d50 f i Cscmd.obj
 0002:00038db0       ??0?$_Wrap_alloc@V?$allocator@U_Container_proxy@std@@@std@@@std@@QAE@XZ 00488db0 f i Cscmd.obj
 0002:00038e10       ??0?$allocator@U?$_List_node@PAUHWND__@@PAX@std@@@std@@QAE@XZ 00488e10 f i Cscmd.obj
 0002:00038e50       ??0?$allocator@U?$_List_node@VdeviceStatusOnHost@@PAX@std@@@std@@QAE@XZ 00488e50 f i Cscmd.obj
 0002:00038e90       ??0?$allocator@U?$_Tree_node@U?$pair@$$CBGVserialError@@@std@@PAX@std@@@std@@QAE@XZ 00488e90 f i Cscmd.obj
 0002:00038ed0       ??0?$allocator@VdeviceStatusOnHost@@@std@@QAE@XZ 00488ed0 f i Cscmd.obj
 0002:00038f10       ??0?$list@VdeviceStatusOnHost@@V?$allocator@VdeviceStatusOnHost@@@std@@@std@@QAE@XZ 00488f10 f i Cscmd.obj
 0002:00038fc0       ??0serialError@@QAE@ABV0@@Z 00488fc0 f i Cscmd.obj
 0002:000390e0       ??0serialError@@QAE@HKK@Z  004890e0 f i Cscmd.obj
 0002:000391d0       ??1?$_Iterator012@Ubidirectional_iterator_tag@std@@PAUHWND__@@HPBQAU3@ABQAU3@U_Iterator_base12@2@@std@@QAE@XZ 004891d0 f i Cscmd.obj
 0002:00039270       ??1?$_Iterator012@Ubidirectional_iterator_tag@std@@U?$pair@$$CBGVserialError@@@2@HPBU32@ABU32@U_Iterator_base12@2@@std@@QAE@XZ 00489270 f i Cscmd.obj
 0002:00039310       ??1?$_Iterator012@Ubidirectional_iterator_tag@std@@VdeviceStatusOnHost@@HPBV3@ABV3@U_Iterator_base12@2@@std@@QAE@XZ 00489310 f i Cscmd.obj
 0002:000393b0       ??1?$_List_alloc@$0A@U?$_List_base_types@VdeviceStatusOnHost@@V?$allocator@VdeviceStatusOnHost@@@std@@@std@@@std@@QAE@XZ 004893b0 f i Cscmd.obj
 0002:00039470       ??1?$_List_buy@VdeviceStatusOnHost@@V?$allocator@VdeviceStatusOnHost@@@std@@@std@@QAE@XZ 00489470 f i Cscmd.obj
 0002:00039510       ??1?$_List_const_iterator@V?$_List_val@U?$_List_simple_types@PAUHWND__@@@std@@@std@@@std@@QAE@XZ 00489510 f i Cscmd.obj
 0002:000395b0       ??1?$_List_const_iterator@V?$_List_val@U?$_List_simple_types@VdeviceStatusOnHost@@@std@@@std@@@std@@QAE@XZ 004895b0 f i Cscmd.obj
 0002:00039650       ??1?$_List_iterator@V?$_List_val@U?$_List_simple_types@PAUHWND__@@@std@@@std@@@std@@QAE@XZ 00489650 f i Cscmd.obj
 0002:000396f0       ??1?$_List_iterator@V?$_List_val@U?$_List_simple_types@VdeviceStatusOnHost@@@std@@@std@@@std@@QAE@XZ 004896f0 f i Cscmd.obj
 0002:00039790       ??1?$_List_unchecked_const_iterator@V?$_List_val@U?$_List_simple_types@PAUHWND__@@@std@@@std@@U_Iterator_base12@2@@std@@QAE@XZ 00489790 f i Cscmd.obj
 0002:00039830       ??1?$_List_unchecked_const_iterator@V?$_List_val@U?$_List_simple_types@VdeviceStatusOnHost@@@std@@@std@@U_Iterator_base12@2@@std@@QAE@XZ 00489830 f i Cscmd.obj
 0002:000398d0       ??1?$_List_val@U?$_List_simple_types@VdeviceStatusOnHost@@@std@@@std@@QAE@XZ 004898d0 f i Cscmd.obj
 0002:00039980       ??1?$_Tree_const_iterator@V?$_Tree_val@U?$_Tree_simple_types@U?$pair@$$CBGVserialError@@@std@@@std@@@std@@@std@@QAE@XZ 00489980 f i Cscmd.obj
 0002:00039a20       ??1?$_Tree_iterator@V?$_Tree_val@U?$_Tree_simple_types@U?$pair@$$CBGVserialError@@@std@@@std@@@std@@@std@@QAE@XZ 00489a20 f i Cscmd.obj
 0002:00039ac0       ??1?$_Tree_unchecked_const_iterator@V?$_Tree_val@U?$_Tree_simple_types@U?$pair@$$CBGVserialError@@@std@@@std@@@std@@U_Iterator_base12@2@@std@@QAE@XZ 00489ac0 f i Cscmd.obj
 0002:00039b60       ??1?$list@VdeviceStatusOnHost@@V?$allocator@VdeviceStatusOnHost@@@std@@@std@@QAE@XZ 00489b60 f i Cscmd.obj
 0002:00039c00       ??1?$pair@$$CBGVserialError@@@std@@QAE@XZ 00489c00 f i Cscmd.obj
 0002:00039ca0       ??1?$pair@HVserialError@@@std@@QAE@XZ 00489ca0 f i Cscmd.obj
 0002:00039d40       ??1?$pair@V?$_Tree_iterator@V?$_Tree_val@U?$_Tree_simple_types@U?$pair@$$CBGVserialError@@@std@@@std@@@std@@@std@@_N@std@@QAE@XZ 00489d40 f i Cscmd.obj
 0002:00039de0       ??1serialError@@QAE@XZ     00489de0 f i Cscmd.obj
 0002:00039e60       ??4?$_Iterator012@Ubidirectional_iterator_tag@std@@PAUHWND__@@HPBQAU3@ABQAU3@U_Iterator_base12@2@@std@@QAEAAU01@ABU01@@Z 00489e60 f i Cscmd.obj
 0002:00039ec0       ??4?$_List_const_iterator@V?$_List_val@U?$_List_simple_types@PAUHWND__@@@std@@@std@@@std@@QAEAAV01@ABV01@@Z 00489ec0 f i Cscmd.obj
 0002:00039f20       ??4?$_List_iterator@V?$_List_val@U?$_List_simple_types@PAUHWND__@@@std@@@std@@@std@@QAEAAV01@ABV01@@Z 00489f20 f i Cscmd.obj
 0002:00039f80       ??4?$_List_unchecked_const_iterator@V?$_List_val@U?$_List_simple_types@PAUHWND__@@@std@@@std@@U_Iterator_base12@2@@std@@QAEAAV01@ABV01@@Z 00489f80 f i Cscmd.obj
 0002:00039ff0       ??8?$_List_const_iterator@V?$_List_val@U?$_List_simple_types@PAUHWND__@@@std@@@std@@@std@@QBE_NABV01@@Z 00489ff0 f i Cscmd.obj
 0002:0003a150       ??8?$_List_const_iterator@V?$_List_val@U?$_List_simple_types@VdeviceStatusOnHost@@@std@@@std@@@std@@QBE_NABV01@@Z 0048a150 f i Cscmd.obj
 0002:0003a2b0       ??8?$_Tree_const_iterator@V?$_Tree_val@U?$_Tree_simple_types@U?$pair@$$CBGVserialError@@@std@@@std@@@std@@@std@@QBE_NABV01@@Z 0048a2b0 f i Cscmd.obj
 0002:0003a410       ??9?$_List_const_iterator@V?$_List_val@U?$_List_simple_types@PAUHWND__@@@std@@@std@@@std@@QBE_NABV01@@Z 0048a410 f i Cscmd.obj
 0002:0003a4a0       ??9?$_List_const_iterator@V?$_List_val@U?$_List_simple_types@VdeviceStatusOnHost@@@std@@@std@@@std@@QBE_NABV01@@Z 0048a4a0 f i Cscmd.obj
 0002:0003a530       ??C?$_List_iterator@V?$_List_val@U?$_List_simple_types@VdeviceStatusOnHost@@@std@@@std@@@std@@QBEPAVdeviceStatusOnHost@@XZ 0048a530 f i Cscmd.obj
 0002:0003a590       ??D?$_List_const_iterator@V?$_List_val@U?$_List_simple_types@PAUHWND__@@@std@@@std@@@std@@QBEABQAUHWND__@@XZ 0048a590 f i Cscmd.obj
 0002:0003a6d0       ??D?$_List_const_iterator@V?$_List_val@U?$_List_simple_types@VdeviceStatusOnHost@@@std@@@std@@@std@@QBEABVdeviceStatusOnHost@@XZ 0048a6d0 f i Cscmd.obj
 0002:0003a810       ??D?$_List_iterator@V?$_List_val@U?$_List_simple_types@PAUHWND__@@@std@@@std@@@std@@QBEAAPAUHWND__@@XZ 0048a810 f i Cscmd.obj
 0002:0003a860       ??D?$_List_iterator@V?$_List_val@U?$_List_simple_types@VdeviceStatusOnHost@@@std@@@std@@@std@@QBEAAVdeviceStatusOnHost@@XZ 0048a860 f i Cscmd.obj
 0002:0003a8b0       ??E?$_List_const_iterator@V?$_List_val@U?$_List_simple_types@PAUHWND__@@@std@@@std@@@std@@QAE?AV01@H@Z 0048a8b0 f i Cscmd.obj
 0002:0003a9d0       ??E?$_List_const_iterator@V?$_List_val@U?$_List_simple_types@PAUHWND__@@@std@@@std@@@std@@QAEAAV01@XZ 0048a9d0 f i Cscmd.obj
 0002:0003ab20       ??E?$_List_const_iterator@V?$_List_val@U?$_List_simple_types@VdeviceStatusOnHost@@@std@@@std@@@std@@QAEAAV01@XZ 0048ab20 f i Cscmd.obj
 0002:0003ac70       ??E?$_List_iterator@V?$_List_val@U?$_List_simple_types@PAUHWND__@@@std@@@std@@@std@@QAEAAV01@XZ 0048ac70 f i Cscmd.obj
 0002:0003acd0       ??E?$_List_iterator@V?$_List_val@U?$_List_simple_types@VdeviceStatusOnHost@@@std@@@std@@@std@@QAEAAV01@XZ 0048acd0 f i Cscmd.obj
 0002:0003ad30       ??F?$_Tree_const_iterator@V?$_Tree_val@U?$_Tree_simple_types@U?$pair@$$CBGVserialError@@@std@@@std@@@std@@@std@@QAEAAV01@XZ 0048ad30 f i Cscmd.obj
 0002:0003af10       ??F?$_Tree_iterator@V?$_Tree_val@U?$_Tree_simple_types@U?$pair@$$CBGVserialError@@@std@@@std@@@std@@@std@@QAEAAV01@XZ 0048af10 f i Cscmd.obj
 0002:0003af70       ??F?$_Tree_unchecked_const_iterator@V?$_Tree_val@U?$_Tree_simple_types@U?$pair@$$CBGVserialError@@@std@@@std@@@std@@U_Iterator_base12@2@@std@@QAEAAV01@XZ 0048af70 f i Cscmd.obj
 0002:0003b0d0       ??R?$less@G@std@@QBE_NABG0@Z 0048b0d0 f i Cscmd.obj
 0002:0003b140       ??_G?$pair@$$CBGVserialError@@@std@@QAEPAXI@Z 0048b140 f i Cscmd.obj
 0002:0003b1b0       ?_Alloc_proxy@?$_List_alloc@$0A@U?$_List_base_types@VdeviceStatusOnHost@@V?$allocator@VdeviceStatusOnHost@@@std@@@std@@@std@@QAEXXZ 0048b1b0 f i Cscmd.obj
 0002:0003b280       ?_Buyheadnode@?$_List_alloc@$0A@U?$_List_base_types@VdeviceStatusOnHost@@V?$allocator@VdeviceStatusOnHost@@@std@@@std@@@std@@QAEPAU?$_List_node@VdeviceStatusOnHost@@PAX@2@XZ 0048b280 f i Cscmd.obj
 0002:0003b2e0       ?_Buynode0@?$_List_alloc@$0A@U?$_List_base_types@VdeviceStatusOnHost@@V?$allocator@VdeviceStatusOnHost@@@std@@@std@@@std@@QAEPAU?$_List_node@VdeviceStatusOnHost@@PAX@2@PAU32@0@Z 0048b2e0 f i Cscmd.obj
 0002:0003b470       ?_Buynode0@?$_Tree_buy@U?$pair@$$CBGVserialError@@@std@@V?$allocator@U?$pair@$$CBGVserialError@@@std@@@2@@std@@QAEPAU?$_Tree_node@U?$pair@$$CBGVserialError@@@std@@PAX@2@XZ 0048b470 f i Cscmd.obj
 0002:0003b630       ?_Color@?$_Tree_val@U?$_Tree_simple_types@U?$pair@$$CBGVserialError@@@std@@@std@@@std@@SAAADPAU?$_Tree_node@U?$pair@$$CBGVserialError@@@std@@PAX@2@@Z 0048b630 f i Cscmd.obj
 0002:0003b670       ?_Destroy_if_not_nil@?$_Tree@V?$_Tmap_traits@GVserialError@@U?$less@G@std@@V?$allocator@U?$pair@$$CBGVserialError@@@std@@@3@$00@std@@@std@@IAEXPAU?$_Tree_node@U?$pair@$$CBGVserialError@@@std@@PAX@2@@Z 0048b670 f i Cscmd.obj
 0002:0003b720       ?_Free_proxy@?$_List_alloc@$0A@U?$_List_base_types@VdeviceStatusOnHost@@V?$allocator@VdeviceStatusOnHost@@@std@@@std@@@std@@QAEXXZ 0048b720 f i Cscmd.obj
 0002:0003b800       ?_Freeheadnode@?$_List_alloc@$0A@U?$_List_base_types@VdeviceStatusOnHost@@V?$allocator@VdeviceStatusOnHost@@@std@@@std@@@std@@QAEXPAU?$_List_node@VdeviceStatusOnHost@@PAX@2@@Z 0048b800 f i Cscmd.obj
 0002:0003b8e0       ?_Freenode0@?$_Tree_buy@U?$pair@$$CBGVserialError@@@std@@V?$allocator@U?$pair@$$CBGVserialError@@@std@@@2@@std@@QAEXPAU?$_Tree_node@U?$pair@$$CBGVserialError@@@std@@PAX@2@@Z 0048b8e0 f i Cscmd.obj
 0002:0003b9f0       ?_Freenode@?$_List_buy@PAUHWND__@@V?$allocator@PAUHWND__@@@std@@@std@@QAEXPAU?$_List_node@PAUHWND__@@PAX@2@@Z 0048b9f0 f i Cscmd.obj
 0002:0003bb00       ?_Freenode@?$_List_buy@VdeviceStatusOnHost@@V?$allocator@VdeviceStatusOnHost@@@std@@@std@@QAEXPAU?$_List_node@VdeviceStatusOnHost@@PAX@2@@Z 0048bb00 f i Cscmd.obj
 0002:0003bc10       ?_Getal@?$_List_alloc@$0A@U?$_List_base_types@PAUHWND__@@V?$allocator@PAUHWND__@@@std@@@std@@@std@@QBE?AU?$_Wrap_alloc@V?$allocator@U?$_List_node@PAUHWND__@@PAX@std@@@std@@@2@XZ 0048bc10 f i Cscmd.obj
 0002:0003bc70       ?_Getal@?$_List_alloc@$0A@U?$_List_base_types@VdeviceStatusOnHost@@V?$allocator@VdeviceStatusOnHost@@@std@@@std@@@std@@QBE?AU?$_Wrap_alloc@V?$allocator@U?$_List_node@VdeviceStatusOnHost@@PAX@std@@@std@@@2@XZ 0048bc70 f i Cscmd.obj
 0002:0003bcd0       ?_Getal@?$_Tree_alloc@$0A@U?$_Tree_base_types@U?$pair@$$CBGVserialError@@@std@@V?$allocator@U?$pair@$$CBGVserialError@@@std@@@2@@std@@@std@@QBE?AU?$_Wrap_alloc@V?$allocator@U?$_Tree_node@U?$pair@$$CBGVserialError@@@std@@PAX@std@@@std@@@2@XZ 0048bcd0 f i Cscmd.obj
 0002:0003bd30       ?_Getcomp@?$_Tree_comp@$0A@V?$_Tmap_traits@GVserialError@@U?$less@G@std@@V?$allocator@U?$pair@$$CBGVserialError@@@std@@@3@$00@std@@@std@@QBE?AU?$less@G@2@XZ 0048bd30 f i Cscmd.obj
 0002:0003bd70       ?_Isnil@?$_Tree_val@U?$_Tree_simple_types@U?$pair@$$CBGVserialError@@@std@@@std@@@std@@SAAADPAU?$_Tree_node@U?$pair@$$CBGVserialError@@@std@@PAX@2@@Z 0048bd70 f i Cscmd.obj
 0002:0003bdb0       ?_Key@?$_Tree@V?$_Tmap_traits@GVserialError@@U?$less@G@std@@V?$allocator@U?$pair@$$CBGVserialError@@@std@@@3@$00@std@@@std@@IBEABGPAU?$_Tree_node@U?$pair@$$CBGVserialError@@@std@@PAX@2@@Z 0048bdb0 f i Cscmd.obj
 0002:0003be20       ?_Kfn@?$_Tree@V?$_Tmap_traits@GVserialError@@U?$less@G@std@@V?$allocator@U?$pair@$$CBGVserialError@@@std@@@3@$00@std@@@std@@IBEABGABU?$pair@$$CBGVserialError@@@2@@Z 0048be20 f i Cscmd.obj
 0002:0003be80       ?_Left@?$_Tree_val@U?$_Tree_simple_types@U?$pair@$$CBGVserialError@@@std@@@std@@@std@@SAAAPAU?$_Tree_node@U?$pair@$$CBGVserialError@@@std@@PAX@2@PAU32@@Z 0048be80 f i Cscmd.obj
 0002:0003bec0       ?_Lmost@?$_Tree@V?$_Tmap_traits@GVserialError@@U?$less@G@std@@V?$allocator@U?$pair@$$CBGVserialError@@@std@@@3@$00@std@@@std@@IBEAAPAU?$_Tree_node@U?$pair@$$CBGVserialError@@@std@@PAX@2@XZ 0048bec0 f i Cscmd.obj
 0002:0003bf20       ?_Lrotate@?$_Tree@V?$_Tmap_traits@GVserialError@@U?$less@G@std@@V?$allocator@U?$pair@$$CBGVserialError@@@std@@@3@$00@std@@@std@@IAEXPAU?$_Tree_node@U?$pair@$$CBGVserialError@@@std@@PAX@2@@Z 0048bf20 f i Cscmd.obj
 0002:0003c0d0       ?_Make_iter@?$list@PAUHWND__@@V?$allocator@PAUHWND__@@@std@@@std@@QBE?AV?$_List_iterator@V?$_List_val@U?$_List_simple_types@PAUHWND__@@@std@@@std@@@2@V?$_List_const_iterator@V?$_List_val@U?$_List_simple_types@PAUHWND__@@@std@@@std@@@2@@Z 0048c0d0 f i Cscmd.obj
 0002:0003c1a0       ?_Max@?$_Tree_val@U?$_Tree_simple_types@U?$pair@$$CBGVserialError@@@std@@@std@@@std@@SAPAU?$_Tree_node@U?$pair@$$CBGVserialError@@@std@@PAX@2@PAU32@@Z 0048c1a0 f i Cscmd.obj
 0002:0003c220       ?_Mynode@?$_List_unchecked_const_iterator@V?$_List_val@U?$_List_simple_types@PAUHWND__@@@std@@@std@@U_Iterator_base12@2@@std@@QBEPAU?$_List_node@PAUHWND__@@PAX@2@XZ 0048c220 f i Cscmd.obj
 0002:0003c260       ?_Mynode@?$_Tree_unchecked_const_iterator@V?$_Tree_val@U?$_Tree_simple_types@U?$pair@$$CBGVserialError@@@std@@@std@@@std@@U_Iterator_base12@2@@std@@QBEPAU?$_Tree_node@U?$pair@$$CBGVserialError@@@std@@PAX@2@XZ 0048c260 f i Cscmd.obj
 0002:0003c2a0       ?_Myval@?$_List_val@U?$_List_simple_types@PAUHWND__@@@std@@@std@@SAAAPAUHWND__@@PAU?$_List_node@PAUHWND__@@PAX@2@@Z 0048c2a0 f i Cscmd.obj
 0002:0003c2e0       ?_Myval@?$_List_val@U?$_List_simple_types@VdeviceStatusOnHost@@@std@@@std@@SAAAVdeviceStatusOnHost@@PAU?$_List_node@VdeviceStatusOnHost@@PAX@2@@Z 0048c2e0 f i Cscmd.obj
 0002:0003c320       ?_Myval@?$_Tree_val@U?$_Tree_simple_types@U?$pair@$$CBGVserialError@@@std@@@std@@@std@@SAAAU?$pair@$$CBGVserialError@@@2@PAU?$_Tree_node@U?$pair@$$CBGVserialError@@@std@@PAX@2@@Z 0048c320 f i Cscmd.obj
 0002:0003c360       ?_Nextnode@?$_List_val@U?$_List_simple_types@PAUHWND__@@@std@@@std@@SAAAPAU?$_List_node@PAUHWND__@@PAX@2@PAU32@@Z 0048c360 f i Cscmd.obj
 0002:0003c3a0       ?_Nextnode@?$_List_val@U?$_List_simple_types@VdeviceStatusOnHost@@@std@@@std@@SAAAPAU?$_List_node@VdeviceStatusOnHost@@PAX@2@PAU32@@Z 0048c3a0 f i Cscmd.obj
 0002:0003c3e0       ?_Orphan_ptr@?$list@PAUHWND__@@V?$allocator@PAUHWND__@@@std@@@std@@QBEXAAV12@PAU?$_List_node@PAUHWND__@@PAX@2@@Z 0048c3e0 f i Cscmd.obj
 0002:0003c570       ?_Orphan_ptr@?$list@VdeviceStatusOnHost@@V?$allocator@VdeviceStatusOnHost@@@std@@@std@@QBEXAAV12@PAU?$_List_node@VdeviceStatusOnHost@@PAX@2@@Z 0048c570 f i Cscmd.obj
 0002:0003c700       ?_Parent@?$_Tree_val@U?$_Tree_simple_types@U?$pair@$$CBGVserialError@@@std@@@std@@@std@@SAAAPAU?$_Tree_node@U?$pair@$$CBGVserialError@@@std@@PAX@2@PAU32@@Z 0048c700 f i Cscmd.obj
 0002:0003c740       ?_Prevnode@?$_List_val@U?$_List_simple_types@PAUHWND__@@@std@@@std@@SAAAPAU?$_List_node@PAUHWND__@@PAX@2@PAU32@@Z 0048c740 f i Cscmd.obj
 0002:0003c780       ?_Prevnode@?$_List_val@U?$_List_simple_types@VdeviceStatusOnHost@@@std@@@std@@SAAAPAU?$_List_node@VdeviceStatusOnHost@@PAX@2@PAU32@@Z 0048c780 f i Cscmd.obj
 0002:0003c7c0       ?_Right@?$_Tree_val@U?$_Tree_simple_types@U?$pair@$$CBGVserialError@@@std@@@std@@@std@@SAAAPAU?$_Tree_node@U?$pair@$$CBGVserialError@@@std@@PAX@2@PAU32@@Z 0048c7c0 f i Cscmd.obj
 0002:0003c800       ?_Rmost@?$_Tree@V?$_Tmap_traits@GVserialError@@U?$less@G@std@@V?$allocator@U?$pair@$$CBGVserialError@@@std@@@3@$00@std@@@std@@IBEAAPAU?$_Tree_node@U?$pair@$$CBGVserialError@@@std@@PAX@2@XZ 0048c800 f i Cscmd.obj
 0002:0003c860       ?_Root@?$_Tree@V?$_Tmap_traits@GVserialError@@U?$less@G@std@@V?$allocator@U?$pair@$$CBGVserialError@@@std@@@3@$00@std@@@std@@IBEAAPAU?$_Tree_node@U?$pair@$$CBGVserialError@@@std@@PAX@2@XZ 0048c860 f i Cscmd.obj
 0002:0003c8c0       ?_Rrotate@?$_Tree@V?$_Tmap_traits@GVserialError@@U?$less@G@std@@V?$allocator@U?$pair@$$CBGVserialError@@@std@@@3@$00@std@@@std@@IAEXPAU?$_Tree_node@U?$pair@$$CBGVserialError@@@std@@PAX@2@@Z 0048c8c0 f i Cscmd.obj
 0002:0003ca70       ?_Tidy@?$list@VdeviceStatusOnHost@@V?$allocator@VdeviceStatusOnHost@@@std@@@std@@QAEXXZ 0048ca70 f i Cscmd.obj
 0002:0003cac0       ?_Unlinknode@?$list@PAUHWND__@@V?$allocator@PAUHWND__@@@std@@@std@@QAEPAU?$_List_node@PAUHWND__@@PAX@2@V?$_List_const_iterator@V?$_List_val@U?$_List_simple_types@PAUHWND__@@@std@@@std@@@2@@Z 0048cac0 f i Cscmd.obj
 0002:0003cc50       ?allocate@?$_Wrap_alloc@V?$allocator@U?$_List_node@VdeviceStatusOnHost@@PAX@std@@@std@@@std@@QAEPAU?$_List_node@VdeviceStatusOnHost@@PAX@2@I@Z 0048cc50 f i Cscmd.obj
 0002:0003ccb0       ?allocate@?$_Wrap_alloc@V?$allocator@U?$_Tree_node@U?$pair@$$CBGVserialError@@@std@@PAX@std@@@std@@@std@@QAEPAU?$_Tree_node@U?$pair@$$CBGVserialError@@@std@@PAX@2@I@Z 0048ccb0 f i Cscmd.obj
 0002:0003cd10       ?allocate@?$allocator@U?$_List_node@VdeviceStatusOnHost@@PAX@std@@@std@@QAEPAU?$_List_node@VdeviceStatusOnHost@@PAX@2@I@Z 0048cd10 f i Cscmd.obj
 0002:0003cd70       ?allocate@?$allocator@U?$_Tree_node@U?$pair@$$CBGVserialError@@@std@@PAX@std@@@std@@QAEPAU?$_Tree_node@U?$pair@$$CBGVserialError@@@std@@PAX@2@I@Z 0048cd70 f i Cscmd.obj
 0002:0003cdd0       ?begin@?$_Tree@V?$_Tmap_traits@GVserialError@@U?$less@G@std@@V?$allocator@U?$pair@$$CBGVserialError@@@std@@@3@$00@std@@@std@@QAE?AV?$_Tree_iterator@V?$_Tree_val@U?$_Tree_simple_types@U?$pair@$$CBGVserialError@@@std@@@std@@@std@@@2@XZ 0048cdd0 f i Cscmd.obj
 0002:0003cea0       ?begin@?$list@PAUHWND__@@V?$allocator@PAUHWND__@@@std@@@std@@QAE?AV?$_List_iterator@V?$_List_val@U?$_List_simple_types@PAUHWND__@@@std@@@std@@@2@XZ 0048cea0 f i Cscmd.obj
 0002:0003cf70       ?begin@?$list@VdeviceStatusOnHost@@V?$allocator@VdeviceStatusOnHost@@@std@@@std@@QAE?AV?$_List_iterator@V?$_List_val@U?$_List_simple_types@VdeviceStatusOnHost@@@std@@@std@@@2@XZ 0048cf70 f i Cscmd.obj
 0002:0003d040       ?clear@?$list@VdeviceStatusOnHost@@V?$allocator@VdeviceStatusOnHost@@@std@@@std@@QAEXXZ 0048d040 f i Cscmd.obj
 0002:0003d140       ?deallocate@?$_Wrap_alloc@V?$allocator@U?$_List_node@PAUHWND__@@PAX@std@@@std@@@std@@QAEXPAU?$_List_node@PAUHWND__@@PAX@2@I@Z 0048d140 f i Cscmd.obj
 0002:0003d1a0       ?deallocate@?$_Wrap_alloc@V?$allocator@U?$_List_node@VdeviceStatusOnHost@@PAX@std@@@std@@@std@@QAEXPAU?$_List_node@VdeviceStatusOnHost@@PAX@2@I@Z 0048d1a0 f i Cscmd.obj
 0002:0003d200       ?deallocate@?$_Wrap_alloc@V?$allocator@U?$_Tree_node@U?$pair@$$CBGVserialError@@@std@@PAX@std@@@std@@@std@@QAEXPAU?$_Tree_node@U?$pair@$$CBGVserialError@@@std@@PAX@2@I@Z 0048d200 f i Cscmd.obj
 0002:0003d260       ?deallocate@?$allocator@U?$_List_node@PAUHWND__@@PAX@std@@@std@@QAEXPAU?$_List_node@PAUHWND__@@PAX@2@I@Z 0048d260 f i Cscmd.obj
 0002:0003d2c0       ?deallocate@?$allocator@U?$_List_node@VdeviceStatusOnHost@@PAX@std@@@std@@QAEXPAU?$_List_node@VdeviceStatusOnHost@@PAX@2@I@Z 0048d2c0 f i Cscmd.obj
 0002:0003d320       ?deallocate@?$allocator@U?$_Tree_node@U?$pair@$$CBGVserialError@@@std@@PAX@std@@@std@@QAEXPAU?$_Tree_node@U?$pair@$$CBGVserialError@@@std@@PAX@2@I@Z 0048d320 f i Cscmd.obj
 0002:0003d380       ?end@?$list@PAUHWND__@@V?$allocator@PAUHWND__@@@std@@@std@@QAE?AV?$_List_iterator@V?$_List_val@U?$_List_simple_types@PAUHWND__@@@std@@@std@@@2@XZ 0048d380 f i Cscmd.obj
 0002:0003d440       ?end@?$list@VdeviceStatusOnHost@@V?$allocator@VdeviceStatusOnHost@@@std@@@std@@QAE?AV?$_List_iterator@V?$_List_val@U?$_List_simple_types@VdeviceStatusOnHost@@@std@@@std@@@2@XZ 0048d440 f i Cscmd.obj
 0002:0003d500       ?erase@?$list@PAUHWND__@@V?$allocator@PAUHWND__@@@std@@@std@@QAE?AV?$_List_iterator@V?$_List_val@U?$_List_simple_types@PAUHWND__@@@std@@@std@@@2@V?$_List_const_iterator@V?$_List_val@U?$_List_simple_types@PAUHWND__@@@std@@@std@@@2@@Z 0048d500 f i Cscmd.obj
 0002:0003d670       ?max_size@?$_Tree@V?$_Tmap_traits@GVserialError@@U?$less@G@std@@V?$allocator@U?$pair@$$CBGVserialError@@@std@@@3@$00@std@@@std@@QBEIXZ 0048d670 f i Cscmd.obj
 0002:0003d6d0       ?max_size@?$_Wrap_alloc@V?$allocator@U?$_Tree_node@U?$pair@$$CBGVserialError@@@std@@PAX@std@@@std@@@std@@QBEIXZ 0048d6d0 f i Cscmd.obj
 0002:0003d730       ?max_size@?$allocator@U?$_Tree_node@U?$pair@$$CBGVserialError@@@std@@PAX@std@@@std@@QBEIXZ 0048d730 f i Cscmd.obj
 0002:0003d770       ?max_size@?$allocator_traits@V?$allocator@U?$_Tree_node@U?$pair@$$CBGVserialError@@@std@@PAX@std@@@std@@@std@@SAIABV?$allocator@U?$_Tree_node@U?$pair@$$CBGVserialError@@@std@@PAX@std@@@2@@Z 0048d770 f i Cscmd.obj
 0002:0003d7c0       ?pointer_to@?$pointer_traits@PAVdeviceStatusOnHost@@@std@@SAPAVdeviceStatusOnHost@@AAV3@@Z 0048d7c0 f i Cscmd.obj
 0002:0003d810       ?state@deviceStatusOnHost@@QAEHXZ 0048d810 f i Cscmd.obj
 0002:0003d850       ?workstation@deviceStatusOnHost@@QAEHXZ 0048d850 f i Cscmd.obj
 0002:0003d890       ?CSComDog_OpenComm@@YAXXZ  0048d890 f   CSCOMDOG.obj
 0002:0003d8c0       ?CSComDog_Closedown@@YAXXZ 0048d8c0 f   CSCOMDOG.obj
 0002:0003d8f0       ?CSComDog_SendData@@YAXPADH@Z 0048d8f0 f   CSCOMDOG.obj
 0002:0003d940       ?CSDbase_Init@@YAXXZ       0048d940 f   Csdbase.obj
 0002:0003dc50       ?CSDbase_GetGRDDirectory@@YAXXZ 0048dc50 f   Csdbase.obj
 0002:0003dde0       ?CSDbase_GetGPIDDirectory@@YAXXZ 0048dde0 f   Csdbase.obj
 0002:0003df90       ?CSDbase_GetIDDirectory@@YAXXZ 0048df90 f   Csdbase.obj
 0002:0003e140       ?CSDbase_GetDEVDirectory@@YAXXZ 0048e140 f   Csdbase.obj
 0002:0003e2f0       ?CSDbase_LoadGRDINI@@YAXH@Z 0048e2f0 f   Csdbase.obj
 0002:0003ebd0       ?CSDbase_LoadGPIDINI@@YAXH@Z 0048ebd0 f   Csdbase.obj
 0002:0003ecc0       ?CSDbase_LoadINFOINI@@YAXH@Z 0048ecc0 f   Csdbase.obj
 0002:0003ee50       ?CSDbase_LoadDEVINI@@YAXH@Z 0048ee50 f   Csdbase.obj
 0002:0003f880       ?CSDbase_Closedown@@YAXXZ  0048f880 f   Csdbase.obj
 0002:0003f920       ?CSDbase_GetDatabaseName@@YAXJ@Z 0048f920 f   Csdbase.obj
 0002:0003fa70       ?CSDbase_GetDbaseName@@YAPADGHG@Z 0048fa70 f   Csdbase.obj
 0002:0003fe80       ?CSDbase_GetDatabaseIndex@@YAHIJ@Z 0048fe80 f   Csdbase.obj
 0002:00040080       ?CSDBase_DialogProc@@YGHPAUHWND__@@GGJ@Z 00490080 f   Csdbase.obj
 0002:00040180       ?CSDbase_SaveCDF@@YAXH@Z   00490180 f   Csdbase.obj
 0002:00040360       ?CSDbase_SaveGRDEntry@@YAXHHHPAD@Z 00490360 f   Csdbase.obj
 0002:00040610       ?CSDbase_SaveDEVEntry@@YAXHHHPAD@Z 00490610 f   Csdbase.obj
 0002:00040a00       ?CSDbase_GetMappedId@@YAHIJ@Z 00490a00 f   Csdbase.obj
 0002:00040ba0       ?CSDbase_GetDBList@@YAPADH@Z 00490ba0 f   Csdbase.obj
 0002:00040ef0       ?CSDbase_checkAddedDevice@@YA_NH@Z 00490ef0 f   Csdbase.obj
 0002:00041db0       ?CSDbExt_Init@@YAXXZ       00491db0 f   csdbext.obj
 0002:00041e00       ?CSDbExt_CompileDBFiles@@YAXH@Z 00491e00 f   csdbext.obj
 0002:000420a0       ?CSDbExt_SetName@@YAXHHHPAD@Z 004920a0 f   csdbext.obj
 0002:00042180       ?CSDbExt_GetName@@YAXJ@Z   00492180 f   csdbext.obj
 0002:00042340       ?CSDbExt_GetIndex@@YAHJ@Z  00492340 f   csdbext.obj
 0002:00042610       ?CSDbExt_CreateFile@@YAHPAD@Z 00492610 f   csdbext.obj
 0002:00042720       ?CSDbExt_UpdateFile@@YAXHHPAD0@Z 00492720 f   csdbext.obj
 0002:000428e0       ?CSDbExt_AccessFile@@YAHHH@Z 004928e0 f   csdbext.obj
 0002:00042d70       ?CSDialog_DialogProc@@YGHPAUHWND__@@GGJ@Z 00492d70 f   Csdialog.obj
 0002:00042e10       ?CSDialog_Init@@YAXXZ      00492e10 f   Csdialog.obj
 0002:00042e70       ?CSDialog_InitDialog@@YAXXZ 00492e70 f   Csdialog.obj
 0002:00042eb0       ?CSDialog_Clear@@YAXXZ     00492eb0 f   Csdialog.obj
 0002:00042fe0       ?CSDialog_SetStatics@@YAXXZ 00492fe0 f   Csdialog.obj
 0002:000431e0       ?CSDialog_Status@@YAXXZ    004931e0 f   Csdialog.obj
 0002:00043df0       _WinMain@16                00493df0 f   Csimain.obj
 0002:00044030       ?InitApplication@@YAHPAUHINSTANCE__@@@Z 00494030 f   Csimain.obj
 0002:00044140       ?InitInstance@@YAHPAUHINSTANCE__@@H@Z 00494140 f   Csimain.obj
 0002:000442a0       ?MainWndProc@@YGJPAUHWND__@@IIJ@Z 004942a0 f   Csimain.obj
 0002:00046f40       ?CSMain_Init@@YAXXZ        00496f40 f   Csimain.obj
 0002:00047870       ?CSMain_Closedown@@YAXXZ   00497870 f   Csimain.obj
 0002:000479f0       ?CSMain_Closedown2@@YAXXZ  004979f0 f   Csimain.obj
 0002:00047bb0       ?CSMain_Closedown3@@YAXXZ  00497bb0 f   Csimain.obj
 0002:00047c40       ?CSMain_UpdateTitle@@YAXXZ 00497c40 f   Csimain.obj
 0002:00047dd0       ?CSMain_Session@@YAXXZ     00497dd0 f   Csimain.obj
 0002:00048170       ?CSMain_Client@@YAXXZ      00498170 f   Csimain.obj
 0002:00048510       ?CSMain_Driver@@YAXXZ      00498510 f   Csimain.obj
 0002:000488b0       ?CSMain_Diag@@YAXXZ        004988b0 f   Csimain.obj
 0002:0004a980       ?CSMain_DiagExt@@YAXXZ     0049a980 f   Csimain.obj
 0002:0004ab20       ?CSMain_Debug@@YAXXZ       0049ab20 f   Csimain.obj
 0002:0004ac00       ?CSMain_Cache@@YAXXZ       0049ac00 f   Csimain.obj
 0002:0004ae30       ?CSMain_CacheToggle@@YAXG@Z 0049ae30 f   Csimain.obj
 0002:0004aea0       ?CSMain_TxCmd@@YAXIPAD@Z   0049aea0 f   Csimain.obj
 0002:0004b3a0       ?CSMain_BuffDevCtlCmd@@YAXPADH@Z 0049b3a0 f   Csimain.obj
 0002:0004b480       ?CSMain_TxDevCtlBuff@@YAXXZ 0049b480 f   Csimain.obj
 0002:0004b670       ?CSMain_TxTimeService@@YAXXZ 0049b670 f   Csimain.obj
 0002:0004b7f0       ?CSMain_GetDevProperties@@YAHIJ@Z 0049b7f0 f   Csimain.obj
 0002:0004ba60       ?CSMain_StatusUpdate@@YAXXZ 0049ba60 f   Csimain.obj
 0002:0004bcb0       ?CSMain_TxRxRetry@@YAXXZ   0049bcb0 f   Csimain.obj
 0002:0004bf80       ?CSMain_IncrementUpTimer@@YAXXZ 0049bf80 f   Csimain.obj
 0002:0004c020       ?CSMain_GetDevTxRxMode@@YAHJ@Z 0049c020 f   Csimain.obj
 0002:0004c090       ?CSMain_SetDevTxRxMode@@YAXIJ_N@Z 0049c090 f   Csimain.obj
 0002:0004c570       ?CSMain_TxPostDirectMessage@@YAXHPADH@Z 0049c570 f   Csimain.obj
 0002:0004c640       ?CSMain_RxPostDirectMessage@@YAXIJ@Z 0049c640 f   Csimain.obj
 0002:0004c7c0       ?CSMain_NetReset@@YAXXZ    0049c7c0 f   Csimain.obj
 0002:0004c800       ?CSMain_DumpSessions@@YAXXZ 0049c800 f   Csimain.obj
 0002:0004c880       ?CSMain_FlushCacheOnErrorToggle@@YAXXZ 0049c880 f   Csimain.obj
 0002:0004c940       ?CSMain_SendPacketSerialNumberToggle@@YAXXZ 0049c940 f   Csimain.obj
 0002:0004ca00       ?CSMain_SendCommandSerialNumberToggle@@YAXXZ 0049ca00 f   Csimain.obj
 0002:0004cac0       ?CSMain_LogStats@@YAXXZ    0049cac0 f   Csimain.obj
 0002:0004ce70       ?configStatusDialogProc@@YGHPAUHWND__@@IIJ@Z 0049ce70 f   Csimain.obj
 0002:0004d2b0       ?CSMain_DoHelp@@YAXXZ      0049d2b0 f   Csimain.obj
 0002:0004d3b0       ?CSMain_SendHeartbeat@@YA_N_N@Z 0049d3b0 f   Csimain.obj
 0002:0004d730       ?CSMain_SendHeartbeatPacket@@YAX_NPBEHH@Z 0049d730 f   Csimain.obj
 0002:0004dac0       ?CSMain_TxPacketRecoveryPackets@@YAXXZ 0049dac0 f   Csimain.obj
 0002:0004dea0       ?CSMain_PRAC@@YAKPBEH@Z    0049dea0 f   Csimain.obj
 0002:0004dff0       ?CSMain_UnPRAC@@YA_NPBEHK@Z 0049dff0 f   Csimain.obj
 0002:0004e100       ?CSMain_DoFinalCleanup@@YAXXZ 0049e100 f   Csimain.obj
 0002:0004e460       ?CSMain_InitGlobals@@YAXXZ 0049e460 f   Csimain.obj
 0002:0004e820       ?clientCheck@@YAXPAUHWND__@@@Z 0049e820 f   Csimain.obj
 0002:0004e980       ?timerProc@@YGXPAUHWND__@@IIK@Z 0049e980 f   Csimain.obj
 0002:0004ea10       ?CSMain_HeartbeatTimeoutThread@@YAXPAX@Z 0049ea10 f   Csimain.obj
 0002:0004ec90       ?CSMain_SendHeartbeatSoon@@YAXXZ 0049ec90 f   Csimain.obj
 0002:0004ece0       ?isSecure@@YA_NXZ          0049ece0 f   Csimain.obj
 0002:00051a40       ??$?0U?$_Tree_node@U?$pair@$$CBGVserialError@@@std@@PAX@std@@@?$allocator@U_Container_proxy@std@@@std@@QAE@ABV?$allocator@U?$_Tree_node@U?$pair@$$CBGVserialError@@@std@@PAX@std@@@1@@Z 004a1a40 f i Csimain.obj
 0002:00051a80       ??$?0U?$_Tree_node@U?$pair@$$CBKVsizedBuffer@@@std@@PAX@std@@@?$allocator@U_Container_proxy@std@@@std@@QAE@ABV?$allocator@U?$_Tree_node@U?$pair@$$CBKVsizedBuffer@@@std@@PAX@std@@@1@@Z 004a1a80 f i Csimain.obj
 0002:00051ac0       ??$?0U?$_Wrap_alloc@V?$allocator@U?$_Tree_node@U?$pair@$$CBGVserialError@@@std@@PAX@std@@@std@@@std@@@?$_Wrap_alloc@V?$allocator@U_Container_proxy@std@@@std@@@std@@QAE@ABU?$_Wrap_alloc@V?$allocator@U?$_Tree_node@U?$pair@$$CBGVserialError@@@std@@PAX@std@@@std@@@1@@Z 004a1ac0 f i Csimain.obj
 0002:00051b20       ??$?0U?$_Wrap_alloc@V?$allocator@U?$_Tree_node@U?$pair@$$CBKVsizedBuffer@@@std@@PAX@std@@@std@@@std@@@?$_Wrap_alloc@V?$allocator@U_Container_proxy@std@@@std@@@std@@QAE@ABU?$_Wrap_alloc@V?$allocator@U?$_Tree_node@U?$pair@$$CBKVsizedBuffer@@@std@@PAX@std@@@std@@@1@@Z 004a1b20 f i Csimain.obj
 0002:00051b80       ??$_Allocate@U?$_List_node@PAUHWND__@@PAX@std@@@std@@YAPAU?$_List_node@PAUHWND__@@PAX@0@IPAU10@@Z 004a1b80 f i Csimain.obj
 0002:00051c10       ??$_Allocate@U?$_List_node@VserialError@@PAX@std@@@std@@YAPAU?$_List_node@VserialError@@PAX@0@IPAU10@@Z 004a1c10 f i Csimain.obj
 0002:00051cb0       ??$_Allocate@U?$_Tree_node@U?$pair@$$CBKVsizedBuffer@@@std@@PAX@std@@@std@@YAPAU?$_Tree_node@U?$pair@$$CBKVsizedBuffer@@@std@@PAX@0@IPAU10@@Z 004a1cb0 f i Csimain.obj
 0002:00051d40       ??$_Buynode@PAUHWND__@@@?$_List_buy@PAUHWND__@@V?$allocator@PAUHWND__@@@std@@@std@@QAEPAU?$_List_node@PAUHWND__@@PAX@1@PAU21@0$$QAPAUHWND__@@@Z 004a1d40 f i Csimain.obj
 0002:00051e80       ??$_Insert@PAUHWND__@@@?$list@PAUHWND__@@V?$allocator@PAUHWND__@@@std@@@std@@QAEXV?$_List_unchecked_const_iterator@V?$_List_val@U?$_List_simple_types@PAUHWND__@@@std@@@std@@U_Iterator_base0@2@@1@$$QAPAUHWND__@@@Z 004a1e80 f i Csimain.obj
 0002:00051f50       ??$addressof@PAU?$_List_node@VserialError@@PAX@std@@@std@@YAPAPAU?$_List_node@VserialError@@PAX@0@AAPAU10@@Z 004a1f50 f i Csimain.obj
 0002:00051f90       ??$addressof@PAU?$_Tree_node@U?$pair@$$CBKVsizedBuffer@@@std@@PAX@std@@@std@@YAPAPAU?$_Tree_node@U?$pair@$$CBKVsizedBuffer@@@std@@PAX@0@AAPAU10@@Z 004a1f90 f i Csimain.obj
 0002:00051fd0       ??$addressof@U?$pair@$$CBKVsizedBuffer@@@std@@@std@@YAPAU?$pair@$$CBKVsizedBuffer@@@0@AAU10@@Z 004a1fd0 f i Csimain.obj
 0002:00052010       ??$addressof@VserialError@@@std@@YAPAVserialError@@AAV1@@Z 004a2010 f i Csimain.obj
 0002:00052050       ??$construct@PAU?$_List_node@PAUHWND__@@PAX@std@@AAPAU12@@?$_Wrap_alloc@V?$allocator@U?$_List_node@PAUHWND__@@PAX@std@@@std@@@std@@QAEXPAPAU?$_List_node@PAUHWND__@@PAX@1@AAPAU21@@Z 004a2050 f i Csimain.obj
 0002:000520c0       ??$construct@PAU?$_List_node@PAUHWND__@@PAX@std@@AAPAU12@@?$allocator@U?$_List_node@PAUHWND__@@PAX@std@@@std@@QAEXPAPAU?$_List_node@PAUHWND__@@PAX@1@AAPAU21@@Z 004a20c0 f i Csimain.obj
 0002:000521c0       ??$construct@PAU?$_List_node@PAUHWND__@@PAX@std@@AAPAU12@@?$allocator_traits@V?$allocator@U?$_List_node@PAUHWND__@@PAX@std@@@std@@@std@@SAXAAV?$allocator@U?$_List_node@PAUHWND__@@PAX@std@@@1@PAPAU?$_List_node@PAUHWND__@@PAX@1@AAPAU31@@Z 004a21c0 f i Csimain.obj
 0002:00052220       ??$construct@PAU?$_List_node@VserialError@@PAX@std@@AAPAU12@@?$_Wrap_alloc@V?$allocator@U?$_List_node@VserialError@@PAX@std@@@std@@@std@@QAEXPAPAU?$_List_node@VserialError@@PAX@1@AAPAU21@@Z 004a2220 f i Csimain.obj
 0002:00052290       ??$construct@PAU?$_List_node@VserialError@@PAX@std@@AAPAU12@@?$allocator@U?$_List_node@VserialError@@PAX@std@@@std@@QAEXPAPAU?$_List_node@VserialError@@PAX@1@AAPAU21@@Z 004a2290 f i Csimain.obj
 0002:00052390       ??$construct@PAU?$_List_node@VserialError@@PAX@std@@AAPAU12@@?$allocator_traits@V?$allocator@U?$_List_node@VserialError@@PAX@std@@@std@@@std@@SAXAAV?$allocator@U?$_List_node@VserialError@@PAX@std@@@1@PAPAU?$_List_node@VserialError@@PAX@1@AAPAU31@@Z 004a2390 f i Csimain.obj
 0002:000523f0       ??$construct@PAU?$_Tree_node@U?$pair@$$CBKVsizedBuffer@@@std@@PAX@std@@AAPAU12@@?$_Wrap_alloc@V?$allocator@U?$_Tree_node@U?$pair@$$CBKVsizedBuffer@@@std@@PAX@std@@@std@@@std@@QAEXPAPAU?$_Tree_node@U?$pair@$$CBKVsizedBuffer@@@std@@PAX@1@AAPAU21@@Z 004a23f0 f i Csimain.obj
 0002:00052460       ??$construct@PAU?$_Tree_node@U?$pair@$$CBKVsizedBuffer@@@std@@PAX@std@@AAPAU12@@?$allocator@U?$_Tree_node@U?$pair@$$CBKVsizedBuffer@@@std@@PAX@std@@@std@@QAEXPAPAU?$_Tree_node@U?$pair@$$CBKVsizedBuffer@@@std@@PAX@1@AAPAU21@@Z 004a2460 f i Csimain.obj
 0002:00052560       ??$construct@PAU?$_Tree_node@U?$pair@$$CBKVsizedBuffer@@@std@@PAX@std@@AAPAU12@@?$allocator_traits@V?$allocator@U?$_Tree_node@U?$pair@$$CBKVsizedBuffer@@@std@@PAX@std@@@std@@@std@@SAXAAV?$allocator@U?$_Tree_node@U?$pair@$$CBKVsizedBuffer@@@std@@PAX@std@@@1@PAPAU?$_Tree_node@U?$pair@$$CBKVsizedBuffer@@@std@@PAX@1@AAPAU31@@Z 004a2560 f i Csimain.obj
 0002:000525c0       ??$construct@PAUHWND__@@PAU1@@?$_Wrap_alloc@V?$allocator@U?$_List_node@PAUHWND__@@PAX@std@@@std@@@std@@QAEXPAPAUHWND__@@$$QAPAU2@@Z 004a25c0 f i Csimain.obj
 0002:00052630       ??$construct@PAUHWND__@@PAU1@@?$allocator@U?$_List_node@PAUHWND__@@PAX@std@@@std@@QAEXPAPAUHWND__@@$$QAPAU2@@Z 004a2630 f i Csimain.obj
 0002:00052730       ??$construct@PAUHWND__@@PAU1@@?$allocator_traits@V?$allocator@U?$_List_node@PAUHWND__@@PAX@std@@@std@@@std@@SAXAAV?$allocator@U?$_List_node@PAUHWND__@@PAX@std@@@1@PAPAUHWND__@@$$QAPAU3@@Z 004a2730 f i Csimain.obj
 0002:00052790       ??$destroy@PAU?$_List_node@VserialError@@PAX@std@@@?$_Wrap_alloc@V?$allocator@U?$_List_node@VserialError@@PAX@std@@@std@@@std@@QAEXPAPAU?$_List_node@VserialError@@PAX@1@@Z 004a2790 f i Csimain.obj
 0002:000527f0       ??$destroy@PAU?$_List_node@VserialError@@PAX@std@@@?$allocator@U?$_List_node@VserialError@@PAX@std@@@std@@QAEXPAPAU?$_List_node@VserialError@@PAX@1@@Z 004a27f0 f i Csimain.obj
 0002:00052830       ??$destroy@PAU?$_List_node@VserialError@@PAX@std@@@?$allocator_traits@V?$allocator@U?$_List_node@VserialError@@PAX@std@@@std@@@std@@SAXAAV?$allocator@U?$_List_node@VserialError@@PAX@std@@@1@PAPAU?$_List_node@VserialError@@PAX@1@@Z 004a2830 f i Csimain.obj
 0002:00052880       ??$destroy@PAU?$_Tree_node@U?$pair@$$CBKVsizedBuffer@@@std@@PAX@std@@@?$_Wrap_alloc@V?$allocator@U?$_Tree_node@U?$pair@$$CBKVsizedBuffer@@@std@@PAX@std@@@std@@@std@@QAEXPAPAU?$_Tree_node@U?$pair@$$CBKVsizedBuffer@@@std@@PAX@1@@Z 004a2880 f i Csimain.obj
 0002:000528e0       ??$destroy@PAU?$_Tree_node@U?$pair@$$CBKVsizedBuffer@@@std@@PAX@std@@@?$allocator@U?$_Tree_node@U?$pair@$$CBKVsizedBuffer@@@std@@PAX@std@@@std@@QAEXPAPAU?$_Tree_node@U?$pair@$$CBKVsizedBuffer@@@std@@PAX@1@@Z 004a28e0 f i Csimain.obj
 0002:00052920       ??$destroy@PAU?$_Tree_node@U?$pair@$$CBKVsizedBuffer@@@std@@PAX@std@@@?$allocator_traits@V?$allocator@U?$_Tree_node@U?$pair@$$CBKVsizedBuffer@@@std@@PAX@std@@@std@@@std@@SAXAAV?$allocator@U?$_Tree_node@U?$pair@$$CBKVsizedBuffer@@@std@@PAX@std@@@1@PAPAU?$_Tree_node@U?$pair@$$CBKVsizedBuffer@@@std@@PAX@1@@Z 004a2920 f i Csimain.obj
 0002:00052970       ??$destroy@PAVsizedBuffer@@@?$_Wrap_alloc@V?$allocator@VsizedBuffer@@@std@@@std@@QAEXPAPAVsizedBuffer@@@Z 004a2970 f i Csimain.obj
 0002:000529d0       ??$destroy@PAVsizedBuffer@@@?$allocator@VsizedBuffer@@@std@@QAEXPAPAVsizedBuffer@@@Z 004a29d0 f i Csimain.obj
 0002:00052a10       ??$destroy@PAVsizedBuffer@@@?$allocator_traits@V?$allocator@VsizedBuffer@@@std@@@std@@SAXAAV?$allocator@VsizedBuffer@@@1@PAPAVsizedBuffer@@@Z 004a2a10 f i Csimain.obj
 0002:00052a60       ??$destroy@U?$pair@$$CBKVsizedBuffer@@@std@@@?$_Wrap_alloc@V?$allocator@U?$_Tree_node@U?$pair@$$CBKVsizedBuffer@@@std@@PAX@std@@@std@@@std@@QAEXPAU?$pair@$$CBKVsizedBuffer@@@1@@Z 004a2a60 f i Csimain.obj
 0002:00052ac0       ??$destroy@U?$pair@$$CBKVsizedBuffer@@@std@@@?$allocator@U?$_Tree_node@U?$pair@$$CBKVsizedBuffer@@@std@@PAX@std@@@std@@QAEXPAU?$pair@$$CBKVsizedBuffer@@@1@@Z 004a2ac0 f i Csimain.obj
 0002:00052b20       ??$destroy@U?$pair@$$CBKVsizedBuffer@@@std@@@?$allocator_traits@V?$allocator@U?$_Tree_node@U?$pair@$$CBKVsizedBuffer@@@std@@PAX@std@@@std@@@std@@SAXAAV?$allocator@U?$_Tree_node@U?$pair@$$CBKVsizedBuffer@@@std@@PAX@std@@@1@PAU?$pair@$$CBKVsizedBuffer@@@1@@Z 004a2b20 f i Csimain.obj
 0002:00052b70       ??$destroy@VserialError@@@?$_Wrap_alloc@V?$allocator@U?$_List_node@VserialError@@PAX@std@@@std@@@std@@QAEXPAVserialError@@@Z 004a2b70 f i Csimain.obj
 0002:00052bd0       ??$destroy@VserialError@@@?$allocator@U?$_List_node@VserialError@@PAX@std@@@std@@QAEXPAVserialError@@@Z 004a2bd0 f i Csimain.obj
 0002:00052c30       ??$destroy@VserialError@@@?$allocator_traits@V?$allocator@U?$_List_node@VserialError@@PAX@std@@@std@@@std@@SAXAAV?$allocator@U?$_List_node@VserialError@@PAX@std@@@1@PAVserialError@@@Z 004a2c30 f i Csimain.obj
 0002:00052c80       ??$forward@AAPAU?$_List_node@PAUHWND__@@PAX@std@@@std@@YAAAPAU?$_List_node@PAUHWND__@@PAX@0@AAPAU10@@Z 004a2c80 f i Csimain.obj
 0002:00052cc0       ??$forward@AAPAU?$_List_node@VserialError@@PAX@std@@@std@@YAAAPAU?$_List_node@VserialError@@PAX@0@AAPAU10@@Z 004a2cc0 f i Csimain.obj
 0002:00052d00       ??$forward@AAPAU?$_Tree_node@U?$pair@$$CBKVsizedBuffer@@@std@@PAX@std@@@std@@YAAAPAU?$_Tree_node@U?$pair@$$CBKVsizedBuffer@@@std@@PAX@0@AAPAU10@@Z 004a2d00 f i Csimain.obj
 0002:00052d40       ??$forward@PAUHWND__@@@std@@YA$$QAPAUHWND__@@AAPAU1@@Z 004a2d40 f i Csimain.obj
 0002:00052d80       ??0?$_Deque_alloc@$0A@U?$_Deque_base_types@VsizedBuffer@@V?$allocator@VsizedBuffer@@@std@@@std@@@std@@QAE@ABV?$allocator@VsizedBuffer@@@1@@Z 004a2d80 f i Csimain.obj
 0002:00052e30       ??0?$_Deque_val@U?$_Deque_simple_types@VsizedBuffer@@@std@@@std@@QAE@XZ 004a2e30 f i Csimain.obj
 0002:00052f10       ??0?$_Iterator012@Ubidirectional_iterator_tag@std@@U?$pair@$$CBKVsizedBuffer@@@2@HPBU32@ABU32@U_Iterator_base12@2@@std@@QAE@ABU01@@Z 004a2f10 f i Csimain.obj
 0002:00052fb0       ??0?$_Iterator012@Ubidirectional_iterator_tag@std@@U?$pair@$$CBKVsizedBuffer@@@2@HPBU32@ABU32@U_Iterator_base12@2@@std@@QAE@XZ 004a2fb0 f i Csimain.obj
 0002:00053050       ??0?$_Iterator012@Ubidirectional_iterator_tag@std@@VserialError@@HPBV3@ABV3@U_Iterator_base12@2@@std@@QAE@ABU01@@Z 004a3050 f i Csimain.obj
 0002:000530f0       ??0?$_Iterator012@Ubidirectional_iterator_tag@std@@VserialError@@HPBV3@ABV3@U_Iterator_base12@2@@std@@QAE@XZ 004a30f0 f i Csimain.obj
 0002:00053190       ??0?$_List_alloc@$0A@U?$_List_base_types@PAUHWND__@@V?$allocator@PAUHWND__@@@std@@@std@@@std@@QAE@ABV?$allocator@PAUHWND__@@@1@@Z 004a3190 f i Csimain.obj
 0002:00053290       ??0?$_List_alloc@$0A@U?$_List_base_types@VserialError@@V?$allocator@VserialError@@@std@@@std@@@std@@QAE@ABV?$allocator@VserialError@@@1@@Z 004a3290 f i Csimain.obj
 0002:00053390       ??0?$_List_buy@PAUHWND__@@V?$allocator@PAUHWND__@@@std@@@std@@QAE@ABV?$allocator@PAUHWND__@@@1@@Z 004a3390 f i Csimain.obj
 0002:00053430       ??0?$_List_buy@VserialError@@V?$allocator@VserialError@@@std@@@std@@QAE@ABV?$allocator@VserialError@@@1@@Z 004a3430 f i Csimain.obj
 0002:000534d0       ??0?$_List_const_iterator@V?$_List_val@U?$_List_simple_types@VserialError@@@std@@@std@@@std@@QAE@ABV01@@Z 004a34d0 f i Csimain.obj
 0002:00053570       ??0?$_List_const_iterator@V?$_List_val@U?$_List_simple_types@VserialError@@@std@@@std@@@std@@QAE@PAU?$_List_node@VserialError@@PAX@1@PBV?$_List_val@U?$_List_simple_types@VserialError@@@std@@@1@@Z 004a3570 f i Csimain.obj
 0002:00053620       ??0?$_List_iterator@V?$_List_val@U?$_List_simple_types@VserialError@@@std@@@std@@@std@@QAE@PAU?$_List_node@VserialError@@PAX@1@PBV?$_List_val@U?$_List_simple_types@VserialError@@@std@@@1@@Z 004a3620 f i Csimain.obj
 0002:000536d0       ??0?$_List_unchecked_const_iterator@V?$_List_val@U?$_List_simple_types@PAUHWND__@@@std@@@std@@U_Iterator_base0@2@@std@@QAE@PAU?$_List_node@PAUHWND__@@PAX@1@PBV?$_List_val@U?$_List_simple_types@PAUHWND__@@@std@@@1@@Z 004a36d0 f i Csimain.obj
 0002:00053740       ??0?$_List_unchecked_const_iterator@V?$_List_val@U?$_List_simple_types@VserialError@@@std@@@std@@U_Iterator_base12@2@@std@@QAE@ABV01@@Z 004a3740 f i Csimain.obj
 0002:000537f0       ??0?$_List_unchecked_const_iterator@V?$_List_val@U?$_List_simple_types@VserialError@@@std@@@std@@U_Iterator_base12@2@@std@@QAE@PAU?$_List_node@VserialError@@PAX@1@PBV?$_List_val@U?$_List_simple_types@VserialError@@@std@@@1@@Z 004a37f0 f i Csimain.obj
 0002:000538b0       ??0?$_List_unchecked_iterator@V?$_List_val@U?$_List_simple_types@PAUHWND__@@@std@@@std@@@std@@QAE@PAU?$_List_node@PAUHWND__@@PAX@1@PBV?$_List_val@U?$_List_simple_types@PAUHWND__@@@std@@@1@@Z 004a38b0 f i Csimain.obj
 0002:00053910       ??0?$_List_val@U?$_List_simple_types@PAUHWND__@@@std@@@std@@QAE@XZ 004a3910 f i Csimain.obj
 0002:000539d0       ??0?$_List_val@U?$_List_simple_types@VserialError@@@std@@@std@@QAE@XZ 004a39d0 f i Csimain.obj
 0002:00053a90       ??0?$_Tree@V?$_Tmap_traits@GVserialError@@U?$less@G@std@@V?$allocator@U?$pair@$$CBGVserialError@@@std@@@3@$00@std@@@std@@QAE@ABU?$less@G@1@ABV?$allocator@U?$pair@$$CBGVserialError@@@std@@@1@@Z 004a3a90 f i Csimain.obj
 0002:00053b40       ??0?$_Tree@V?$_Tmap_traits@KVsizedBuffer@@U?$less@K@std@@V?$allocator@U?$pair@$$CBKVsizedBuffer@@@std@@@3@$0A@@std@@@std@@QAE@ABU?$less@K@1@ABV?$allocator@U?$pair@$$CBKVsizedBuffer@@@std@@@1@@Z 004a3b40 f i Csimain.obj
 0002:00053bf0       ??0?$_Tree_alloc@$0A@U?$_Tree_base_types@U?$pair@$$CBGVserialError@@@std@@V?$allocator@U?$pair@$$CBGVserialError@@@std@@@2@@std@@@std@@QAE@ABV?$allocator@U?$pair@$$CBGVserialError@@@std@@@1@@Z 004a3bf0 f i Csimain.obj
 0002:00053cf0       ??0?$_Tree_alloc@$0A@U?$_Tree_base_types@U?$pair@$$CBKVsizedBuffer@@@std@@V?$allocator@U?$pair@$$CBKVsizedBuffer@@@std@@@2@@std@@@std@@QAE@ABV?$allocator@U?$pair@$$CBKVsizedBuffer@@@std@@@1@@Z 004a3cf0 f i Csimain.obj
 0002:00053df0       ??0?$_Tree_buy@U?$pair@$$CBGVserialError@@@std@@V?$allocator@U?$pair@$$CBGVserialError@@@std@@@2@@std@@QAE@ABV?$allocator@U?$pair@$$CBGVserialError@@@std@@@1@@Z 004a3df0 f i Csimain.obj
 0002:00053e90       ??0?$_Tree_buy@U?$pair@$$CBKVsizedBuffer@@@std@@V?$allocator@U?$pair@$$CBKVsizedBuffer@@@std@@@2@@std@@QAE@ABV?$allocator@U?$pair@$$CBKVsizedBuffer@@@std@@@1@@Z 004a3e90 f i Csimain.obj
 0002:00053f30       ??0?$_Tree_comp@$0A@V?$_Tmap_traits@GVserialError@@U?$less@G@std@@V?$allocator@U?$pair@$$CBGVserialError@@@std@@@3@$00@std@@@std@@QAE@ABU?$less@G@1@ABV?$allocator@U?$pair@$$CBGVserialError@@@std@@@1@@Z 004a3f30 f i Csimain.obj
 0002:00053fd0       ??0?$_Tree_comp@$0A@V?$_Tmap_traits@KVsizedBuffer@@U?$less@K@std@@V?$allocator@U?$pair@$$CBKVsizedBuffer@@@std@@@3@$0A@@std@@@std@@QAE@ABU?$less@K@1@ABV?$allocator@U?$pair@$$CBKVsizedBuffer@@@std@@@1@@Z 004a3fd0 f i Csimain.obj
 0002:00054070       ??0?$_Tree_const_iterator@V?$_Tree_val@U?$_Tree_simple_types@H@std@@@std@@@std@@QAE@XZ 004a4070 f i Csimain.obj
 0002:00054110       ??0?$_Tree_const_iterator@V?$_Tree_val@U?$_Tree_simple_types@U?$pair@$$CBGVserialError@@@std@@@std@@@std@@@std@@QAE@XZ 004a4110 f i Csimain.obj
 0002:000541b0       ??0?$_Tree_const_iterator@V?$_Tree_val@U?$_Tree_simple_types@U?$pair@$$CBKVsizedBuffer@@@std@@@std@@@std@@@std@@QAE@ABV01@@Z 004a41b0 f i Csimain.obj
 0002:00054250       ??0?$_Tree_const_iterator@V?$_Tree_val@U?$_Tree_simple_types@U?$pair@$$CBKVsizedBuffer@@@std@@@std@@@std@@@std@@QAE@PAU?$_Tree_node@U?$pair@$$CBKVsizedBuffer@@@std@@PAX@1@PBV?$_Tree_val@U?$_Tree_simple_types@U?$pair@$$CBKVsizedBuffer@@@std@@@std@@@1@@Z 004a4250 f i Csimain.obj
 0002:00054300       ??0?$_Tree_iterator@V?$_Tree_val@U?$_Tree_simple_types@U?$pair@$$CBGVserialError@@@std@@@std@@@std@@@std@@QAE@XZ 004a4300 f i Csimain.obj
 0002:000543a0       ??0?$_Tree_iterator@V?$_Tree_val@U?$_Tree_simple_types@U?$pair@$$CBKVsizedBuffer@@@std@@@std@@@std@@@std@@QAE@PAU?$_Tree_node@U?$pair@$$CBKVsizedBuffer@@@std@@PAX@1@PBV?$_Tree_val@U?$_Tree_simple_types@U?$pair@$$CBKVsizedBuffer@@@std@@@std@@@1@@Z 004a43a0 f i Csimain.obj
 0002:00054450       ??0?$_Tree_unchecked_const_iterator@V?$_Tree_val@U?$_Tree_simple_types@H@std@@@std@@U_Iterator_base12@2@@std@@QAE@XZ 004a4450 f i Csimain.obj
 0002:00054500       ??0?$_Tree_unchecked_const_iterator@V?$_Tree_val@U?$_Tree_simple_types@U?$pair@$$CBGVserialError@@@std@@@std@@@std@@U_Iterator_base12@2@@std@@QAE@XZ 004a4500 f i Csimain.obj
 0002:000545b0       ??0?$_Tree_unchecked_const_iterator@V?$_Tree_val@U?$_Tree_simple_types@U?$pair@$$CBKVsizedBuffer@@@std@@@std@@@std@@U_Iterator_base12@2@@std@@QAE@ABV01@@Z 004a45b0 f i Csimain.obj
 0002:00054660       ??0?$_Tree_unchecked_const_iterator@V?$_Tree_val@U?$_Tree_simple_types@U?$pair@$$CBKVsizedBuffer@@@std@@@std@@@std@@U_Iterator_base12@2@@std@@QAE@PAU?$_Tree_node@U?$pair@$$CBKVsizedBuffer@@@std@@PAX@1@PBV?$_Tree_val@U?$_Tree_simple_types@U?$pair@$$CBKVsizedBuffer@@@std@@@std@@@1@@Z 004a4660 f i Csimain.obj
 0002:00054720       ??0?$_Tree_val@U?$_Tree_simple_types@U?$pair@$$CBGVserialError@@@std@@@std@@@std@@QAE@XZ 004a4720 f i Csimain.obj
 0002:000547e0       ??0?$_Tree_val@U?$_Tree_simple_types@U?$pair@$$CBKVsizedBuffer@@@std@@@std@@@std@@QAE@XZ 004a47e0 f i Csimain.obj
 0002:000548a0       ??0?$_Wrap_alloc@V?$allocator@U?$_List_node@VserialError@@PAX@std@@@std@@@std@@QAE@XZ 004a48a0 f i Csimain.obj
 0002:00054900       ??0?$_Wrap_alloc@V?$allocator@U?$_Tree_node@U?$pair@$$CBKVsizedBuffer@@@std@@PAX@std@@@std@@@std@@QAE@XZ 004a4900 f i Csimain.obj
 0002:00054960       ??0?$allocator@PAUHWND__@@@std@@QAE@XZ 004a4960 f i Csimain.obj
 0002:000549a0       ??0?$allocator@U?$_List_node@VserialError@@PAX@std@@@std@@QAE@XZ 004a49a0 f i Csimain.obj
 0002:000549e0       ??0?$allocator@U?$_Tree_node@U?$pair@$$CBKVsizedBuffer@@@std@@PAX@std@@@std@@QAE@XZ 004a49e0 f i Csimain.obj
 0002:00054a20       ??0?$allocator@U?$pair@$$CBGVserialError@@@std@@@std@@QAE@XZ 004a4a20 f i Csimain.obj
 0002:00054a60       ??0?$allocator@U?$pair@$$CBKVsizedBuffer@@@std@@@std@@QAE@XZ 004a4a60 f i Csimain.obj
 0002:00054aa0       ??0?$allocator@VserialError@@@std@@QAE@XZ 004a4aa0 f i Csimain.obj
 0002:00054ae0       ??0?$deque@VsizedBuffer@@V?$allocator@VsizedBuffer@@@std@@@std@@QAE@XZ 004a4ae0 f i Csimain.obj
 0002:00054b90       ??0?$list@PAUHWND__@@V?$allocator@PAUHWND__@@@std@@@std@@QAE@XZ 004a4b90 f i Csimain.obj
 0002:00054c40       ??0?$list@VserialError@@V?$allocator@VserialError@@@std@@@std@@QAE@XZ 004a4c40 f i Csimain.obj
 0002:00054cf0       ??0?$map@KVsizedBuffer@@U?$less@K@std@@V?$allocator@U?$pair@$$CBKVsizedBuffer@@@std@@@3@@std@@QAE@XZ 004a4cf0 f i Csimain.obj
 0002:00054da0       ??0?$multimap@GVserialError@@U?$less@G@std@@V?$allocator@U?$pair@$$CBGVserialError@@@std@@@3@@std@@QAE@XZ 004a4da0 f i Csimain.obj
 0002:00054e50       ??0?$queue@VsizedBuffer@@V?$deque@VsizedBuffer@@V?$allocator@VsizedBuffer@@@std@@@std@@@std@@QAE@XZ 004a4e50 f i Csimain.obj
 0002:00054ef0       ??1?$_Deque_alloc@$0A@U?$_Deque_base_types@VsizedBuffer@@V?$allocator@VsizedBuffer@@@std@@@std@@@std@@QAE@XZ 004a4ef0 f i Csimain.obj
 0002:00054f90       ??1?$_Deque_val@U?$_Deque_simple_types@VsizedBuffer@@@std@@@std@@QAE@XZ 004a4f90 f i Csimain.obj
 0002:00055040       ??1?$_Iterator012@Ubidirectional_iterator_tag@std@@U?$pair@$$CBKVsizedBuffer@@@2@HPBU32@ABU32@U_Iterator_base12@2@@std@@QAE@XZ 004a5040 f i Csimain.obj
 0002:000550e0       ??1?$_Iterator012@Ubidirectional_iterator_tag@std@@VserialError@@HPBV3@ABV3@U_Iterator_base12@2@@std@@QAE@XZ 004a50e0 f i Csimain.obj
 0002:00055180       ??1?$_List_alloc@$0A@U?$_List_base_types@PAUHWND__@@V?$allocator@PAUHWND__@@@std@@@std@@@std@@QAE@XZ 004a5180 f i Csimain.obj
 0002:00055240       ??1?$_List_alloc@$0A@U?$_List_base_types@VserialError@@V?$allocator@VserialError@@@std@@@std@@@std@@QAE@XZ 004a5240 f i Csimain.obj
 0002:00055300       ??1?$_List_buy@PAUHWND__@@V?$allocator@PAUHWND__@@@std@@@std@@QAE@XZ 004a5300 f i Csimain.obj
 0002:000553a0       ??1?$_List_buy@VserialError@@V?$allocator@VserialError@@@std@@@std@@QAE@XZ 004a53a0 f i Csimain.obj
 0002:00055440       ??1?$_List_const_iterator@V?$_List_val@U?$_List_simple_types@VserialError@@@std@@@std@@@std@@QAE@XZ 004a5440 f i Csimain.obj
 0002:000554e0       ??1?$_List_iterator@V?$_List_val@U?$_List_simple_types@VserialError@@@std@@@std@@@std@@QAE@XZ 004a54e0 f i Csimain.obj
 0002:00055580       ??1?$_List_unchecked_const_iterator@V?$_List_val@U?$_List_simple_types@VserialError@@@std@@@std@@U_Iterator_base12@2@@std@@QAE@XZ 004a5580 f i Csimain.obj
 0002:00055620       ??1?$_List_val@U?$_List_simple_types@PAUHWND__@@@std@@@std@@QAE@XZ 004a5620 f i Csimain.obj
 0002:000556d0       ??1?$_List_val@U?$_List_simple_types@VserialError@@@std@@@std@@QAE@XZ 004a56d0 f i Csimain.obj
 0002:00055780       ??1?$_Tree@V?$_Tmap_traits@GVserialError@@U?$less@G@std@@V?$allocator@U?$pair@$$CBGVserialError@@@std@@@3@$00@std@@@std@@QAE@XZ 004a5780 f i Csimain.obj
 0002:00055820       ??1?$_Tree@V?$_Tmap_traits@KVsizedBuffer@@U?$less@K@std@@V?$allocator@U?$pair@$$CBKVsizedBuffer@@@std@@@3@$0A@@std@@@std@@QAE@XZ 004a5820 f i Csimain.obj
 0002:000558c0       ??1?$_Tree_alloc@$0A@U?$_Tree_base_types@U?$pair@$$CBGVserialError@@@std@@V?$allocator@U?$pair@$$CBGVserialError@@@std@@@2@@std@@@std@@QAE@XZ 004a58c0 f i Csimain.obj
 0002:00055980       ??1?$_Tree_alloc@$0A@U?$_Tree_base_types@U?$pair@$$CBKVsizedBuffer@@@std@@V?$allocator@U?$pair@$$CBKVsizedBuffer@@@std@@@2@@std@@@std@@QAE@XZ 004a5980 f i Csimain.obj
 0002:00055a40       ??1?$_Tree_buy@U?$pair@$$CBGVserialError@@@std@@V?$allocator@U?$pair@$$CBGVserialError@@@std@@@2@@std@@QAE@XZ 004a5a40 f i Csimain.obj
 0002:00055ae0       ??1?$_Tree_buy@U?$pair@$$CBKVsizedBuffer@@@std@@V?$allocator@U?$pair@$$CBKVsizedBuffer@@@std@@@2@@std@@QAE@XZ 004a5ae0 f i Csimain.obj
 0002:00055b80       ??1?$_Tree_comp@$0A@V?$_Tmap_traits@GVserialError@@U?$less@G@std@@V?$allocator@U?$pair@$$CBGVserialError@@@std@@@3@$00@std@@@std@@QAE@XZ 004a5b80 f i Csimain.obj
 0002:00055c20       ??1?$_Tree_comp@$0A@V?$_Tmap_traits@KVsizedBuffer@@U?$less@K@std@@V?$allocator@U?$pair@$$CBKVsizedBuffer@@@std@@@3@$0A@@std@@@std@@QAE@XZ 004a5c20 f i Csimain.obj
 0002:00055cc0       ??1?$_Tree_const_iterator@V?$_Tree_val@U?$_Tree_simple_types@U?$pair@$$CBKVsizedBuffer@@@std@@@std@@@std@@@std@@QAE@XZ 004a5cc0 f i Csimain.obj
 0002:00055d60       ??1?$_Tree_iterator@V?$_Tree_val@U?$_Tree_simple_types@U?$pair@$$CBKVsizedBuffer@@@std@@@std@@@std@@@std@@QAE@XZ 004a5d60 f i Csimain.obj
 0002:00055e00       ??1?$_Tree_unchecked_const_iterator@V?$_Tree_val@U?$_Tree_simple_types@U?$pair@$$CBKVsizedBuffer@@@std@@@std@@@std@@U_Iterator_base12@2@@std@@QAE@XZ 004a5e00 f i Csimain.obj
 0002:00055ea0       ??1?$_Tree_val@U?$_Tree_simple_types@U?$pair@$$CBGVserialError@@@std@@@std@@@std@@QAE@XZ 004a5ea0 f i Csimain.obj
 0002:00055f50       ??1?$_Tree_val@U?$_Tree_simple_types@U?$pair@$$CBKVsizedBuffer@@@std@@@std@@@std@@QAE@XZ 004a5f50 f i Csimain.obj
 0002:00056000       ??1?$deque@VsizedBuffer@@V?$allocator@VsizedBuffer@@@std@@@std@@QAE@XZ 004a6000 f i Csimain.obj
 0002:000560a0       ??1?$list@PAUHWND__@@V?$allocator@PAUHWND__@@@std@@@std@@QAE@XZ 004a60a0 f i Csimain.obj
 0002:00056140       ??1?$list@VserialError@@V?$allocator@VserialError@@@std@@@std@@QAE@XZ 004a6140 f i Csimain.obj
 0002:000561e0       ??1?$map@KVsizedBuffer@@U?$less@K@std@@V?$allocator@U?$pair@$$CBKVsizedBuffer@@@std@@@3@@std@@QAE@XZ 004a61e0 f i Csimain.obj
 0002:00056280       ??1?$multimap@GVserialError@@U?$less@G@std@@V?$allocator@U?$pair@$$CBGVserialError@@@std@@@3@@std@@QAE@XZ 004a6280 f i Csimain.obj
 0002:00056320       ??1?$pair@$$CBKVsizedBuffer@@@std@@QAE@XZ 004a6320 f i Csimain.obj
 0002:000563c0       ??1?$queue@VsizedBuffer@@V?$deque@VsizedBuffer@@V?$allocator@VsizedBuffer@@@std@@@std@@@std@@QAE@XZ 004a63c0 f i Csimain.obj
 0002:00056460       ??4?$_Iterator012@Ubidirectional_iterator_tag@std@@HHPBHABHU_Iterator_base12@2@@std@@QAEAAU01@ABU01@@Z 004a6460 f i Csimain.obj
 0002:000564c0       ??4?$_Iterator012@Ubidirectional_iterator_tag@std@@U?$pair@$$CBGVserialError@@@2@HPBU32@ABU32@U_Iterator_base12@2@@std@@QAEAAU01@ABU01@@Z 004a64c0 f i Csimain.obj
 0002:00056520       ??4?$_Tree_const_iterator@V?$_Tree_val@U?$_Tree_simple_types@H@std@@@std@@@std@@QAEAAV01@ABV01@@Z 004a6520 f i Csimain.obj
 0002:00056580       ??4?$_Tree_const_iterator@V?$_Tree_val@U?$_Tree_simple_types@U?$pair@$$CBGVserialError@@@std@@@std@@@std@@@std@@QAEAAV01@ABV01@@Z 004a6580 f i Csimain.obj
 0002:000565e0       ??4?$_Tree_iterator@V?$_Tree_val@U?$_Tree_simple_types@U?$pair@$$CBGVserialError@@@std@@@std@@@std@@@std@@QAEAAV01@ABV01@@Z 004a65e0 f i Csimain.obj
 0002:00056640       ??4?$_Tree_unchecked_const_iterator@V?$_Tree_val@U?$_Tree_simple_types@H@std@@@std@@U_Iterator_base12@2@@std@@QAEAAV01@ABV01@@Z 004a6640 f i Csimain.obj
 0002:000566b0       ??4?$_Tree_unchecked_const_iterator@V?$_Tree_val@U?$_Tree_simple_types@U?$pair@$$CBGVserialError@@@std@@@std@@@std@@U_Iterator_base12@2@@std@@QAEAAV01@ABV01@@Z 004a66b0 f i Csimain.obj
 0002:00056720       ??8?$_Tree_const_iterator@V?$_Tree_val@U?$_Tree_simple_types@U?$pair@$$CBKVsizedBuffer@@@std@@@std@@@std@@@std@@QBE_NABV01@@Z 004a6720 f i Csimain.obj
 0002:00056880       ??9?$_Tree_const_iterator@V?$_Tree_val@U?$_Tree_simple_types@U?$pair@$$CBGVserialError@@@std@@@std@@@std@@@std@@QBE_NABV01@@Z 004a6880 f i Csimain.obj
 0002:00056910       ??9?$_Tree_const_iterator@V?$_Tree_val@U?$_Tree_simple_types@U?$pair@$$CBKVsizedBuffer@@@std@@@std@@@std@@@std@@QBE_NABV01@@Z 004a6910 f i Csimain.obj
 0002:000569a0       ??C?$_Tree_iterator@V?$_Tree_val@U?$_Tree_simple_types@U?$pair@$$CBGVserialError@@@std@@@std@@@std@@@std@@QBEPAU?$pair@$$CBGVserialError@@@1@XZ 004a69a0 f i Csimain.obj
 0002:00056a00       ??C?$_Tree_iterator@V?$_Tree_val@U?$_Tree_simple_types@U?$pair@$$CBKVsizedBuffer@@@std@@@std@@@std@@@std@@QBEPAU?$pair@$$CBKVsizedBuffer@@@1@XZ 004a6a00 f i Csimain.obj
 0002:00056a60       ??D?$_List_const_iterator@V?$_List_val@U?$_List_simple_types@VserialError@@@std@@@std@@@std@@QBEABVserialError@@XZ 004a6a60 f i Csimain.obj
 0002:00056ba0       ??D?$_List_iterator@V?$_List_val@U?$_List_simple_types@VserialError@@@std@@@std@@@std@@QBEAAVserialError@@XZ 004a6ba0 f i Csimain.obj
 0002:00056bf0       ??D?$_Tree_const_iterator@V?$_Tree_val@U?$_Tree_simple_types@U?$pair@$$CBGVserialError@@@std@@@std@@@std@@@std@@QBEABU?$pair@$$CBGVserialError@@@1@XZ 004a6bf0 f i Csimain.obj
 0002:00056d30       ??D?$_Tree_const_iterator@V?$_Tree_val@U?$_Tree_simple_types@U?$pair@$$CBKVsizedBuffer@@@std@@@std@@@std@@@std@@QBEABU?$pair@$$CBKVsizedBuffer@@@1@XZ 004a6d30 f i Csimain.obj
 0002:00056e70       ??D?$_Tree_iterator@V?$_Tree_val@U?$_Tree_simple_types@U?$pair@$$CBGVserialError@@@std@@@std@@@std@@@std@@QBEAAU?$pair@$$CBGVserialError@@@1@XZ 004a6e70 f i Csimain.obj
 0002:00056ec0       ??D?$_Tree_iterator@V?$_Tree_val@U?$_Tree_simple_types@U?$pair@$$CBKVsizedBuffer@@@std@@@std@@@std@@@std@@QBEAAU?$pair@$$CBKVsizedBuffer@@@1@XZ 004a6ec0 f i Csimain.obj
 0002:00056f10       ??E?$_List_const_iterator@V?$_List_val@U?$_List_simple_types@VserialError@@@std@@@std@@@std@@QAE?AV01@H@Z 004a6f10 f i Csimain.obj
 0002:00057030       ??E?$_List_const_iterator@V?$_List_val@U?$_List_simple_types@VserialError@@@std@@@std@@@std@@QAEAAV01@XZ 004a7030 f i Csimain.obj
 0002:00057180       ??E?$_Tree_const_iterator@V?$_Tree_val@U?$_Tree_simple_types@U?$pair@$$CBGVserialError@@@std@@@std@@@std@@@std@@QAE?AV01@H@Z 004a7180 f i Csimain.obj
 0002:000572a0       ??E?$_Tree_const_iterator@V?$_Tree_val@U?$_Tree_simple_types@U?$pair@$$CBGVserialError@@@std@@@std@@@std@@@std@@QAEAAV01@XZ 004a72a0 f i Csimain.obj
 0002:000573e0       ??E?$_Tree_const_iterator@V?$_Tree_val@U?$_Tree_simple_types@U?$pair@$$CBKVsizedBuffer@@@std@@@std@@@std@@@std@@QAE?AV01@H@Z 004a73e0 f i Csimain.obj
 0002:00057500       ??E?$_Tree_const_iterator@V?$_Tree_val@U?$_Tree_simple_types@U?$pair@$$CBKVsizedBuffer@@@std@@@std@@@std@@@std@@QAEAAV01@XZ 004a7500 f i Csimain.obj
 0002:00057640       ??E?$_Tree_iterator@V?$_Tree_val@U?$_Tree_simple_types@U?$pair@$$CBGVserialError@@@std@@@std@@@std@@@std@@QAEAAV01@XZ 004a7640 f i Csimain.obj
 0002:000576a0       ??E?$_Tree_iterator@V?$_Tree_val@U?$_Tree_simple_types@U?$pair@$$CBKVsizedBuffer@@@std@@@std@@@std@@@std@@QAEAAV01@XZ 004a76a0 f i Csimain.obj
 0002:00057700       ??E?$_Tree_unchecked_const_iterator@V?$_Tree_val@U?$_Tree_simple_types@U?$pair@$$CBGVserialError@@@std@@@std@@@std@@U_Iterator_base12@2@@std@@QAEAAV01@XZ 004a7700 f i Csimain.obj
 0002:00057830       ??E?$_Tree_unchecked_const_iterator@V?$_Tree_val@U?$_Tree_simple_types@U?$pair@$$CBKVsizedBuffer@@@std@@@std@@@std@@U_Iterator_base12@2@@std@@QAEAAV01@XZ 004a7830 f i Csimain.obj
 0002:00057960       ??_G?$pair@$$CBKVsizedBuffer@@@std@@QAEPAXI@Z 004a7960 f i Csimain.obj
 0002:000579d0       ??_GserialError@@QAEPAXI@Z 004a79d0 f i Csimain.obj
 0002:00057a40       ?_Adopt@_Iterator_base0@std@@QAEXPBX@Z 004a7a40 f i Csimain.obj
 0002:00057a80       ?_Alloc_proxy@?$_Deque_alloc@$0A@U?$_Deque_base_types@VsizedBuffer@@V?$allocator@VsizedBuffer@@@std@@@std@@@std@@QAEXXZ 004a7a80 f i Csimain.obj
 0002:00057b50       ?_Alloc_proxy@?$_List_alloc@$0A@U?$_List_base_types@PAUHWND__@@V?$allocator@PAUHWND__@@@std@@@std@@@std@@QAEXXZ 004a7b50 f i Csimain.obj
 0002:00057c20       ?_Alloc_proxy@?$_List_alloc@$0A@U?$_List_base_types@VserialError@@V?$allocator@VserialError@@@std@@@std@@@std@@QAEXXZ 004a7c20 f i Csimain.obj
 0002:00057cf0       ?_Alloc_proxy@?$_Tree_alloc@$0A@U?$_Tree_base_types@U?$pair@$$CBGVserialError@@@std@@V?$allocator@U?$pair@$$CBGVserialError@@@std@@@2@@std@@@std@@QAEXXZ 004a7cf0 f i Csimain.obj
 0002:00057dd0       ?_Alloc_proxy@?$_Tree_alloc@$0A@U?$_Tree_base_types@U?$pair@$$CBKVsizedBuffer@@@std@@V?$allocator@U?$pair@$$CBKVsizedBuffer@@@std@@@2@@std@@@std@@QAEXXZ 004a7dd0 f i Csimain.obj
 0002:00057eb0       ?_Buyheadnode@?$_List_alloc@$0A@U?$_List_base_types@PAUHWND__@@V?$allocator@PAUHWND__@@@std@@@std@@@std@@QAEPAU?$_List_node@PAUHWND__@@PAX@2@XZ 004a7eb0 f i Csimain.obj
 0002:00057f10       ?_Buyheadnode@?$_List_alloc@$0A@U?$_List_base_types@VserialError@@V?$allocator@VserialError@@@std@@@std@@@std@@QAEPAU?$_List_node@VserialError@@PAX@2@XZ 004a7f10 f i Csimain.obj
 0002:00057f70       ?_Buyheadnode@?$_Tree_alloc@$0A@U?$_Tree_base_types@U?$pair@$$CBGVserialError@@@std@@V?$allocator@U?$pair@$$CBGVserialError@@@std@@@2@@std@@@std@@QAEPAU?$_Tree_node@U?$pair@$$CBGVserialError@@@std@@PAX@2@XZ 004a7f70 f i Csimain.obj
 0002:00058180       ?_Buyheadnode@?$_Tree_alloc@$0A@U?$_Tree_base_types@U?$pair@$$CBKVsizedBuffer@@@std@@V?$allocator@U?$pair@$$CBKVsizedBuffer@@@std@@@2@@std@@@std@@QAEPAU?$_Tree_node@U?$pair@$$CBKVsizedBuffer@@@std@@PAX@2@XZ 004a8180 f i Csimain.obj
 0002:00058390       ?_Buynode0@?$_List_alloc@$0A@U?$_List_base_types@PAUHWND__@@V?$allocator@PAUHWND__@@@std@@@std@@@std@@QAEPAU?$_List_node@PAUHWND__@@PAX@2@PAU32@0@Z 004a8390 f i Csimain.obj
 0002:00058520       ?_Buynode0@?$_List_alloc@$0A@U?$_List_base_types@VserialError@@V?$allocator@VserialError@@@std@@@std@@@std@@QAEPAU?$_List_node@VserialError@@PAX@2@PAU32@0@Z 004a8520 f i Csimain.obj
 0002:000586b0       ?_Color@?$_Tree_val@U?$_Tree_simple_types@U?$pair@$$CBKVsizedBuffer@@@std@@@std@@@std@@SAAADPAU?$_Tree_node@U?$pair@$$CBKVsizedBuffer@@@std@@PAX@2@@Z 004a86b0 f i Csimain.obj
 0002:000586f0       ?_Erase@?$_Tree@V?$_Tmap_traits@GVserialError@@U?$less@G@std@@V?$allocator@U?$pair@$$CBGVserialError@@@std@@@3@$00@std@@@std@@IAEXPAU?$_Tree_node@U?$pair@$$CBGVserialError@@@std@@PAX@2@@Z 004a86f0 f i Csimain.obj
 0002:00058800       ?_Erase@?$_Tree@V?$_Tmap_traits@KVsizedBuffer@@U?$less@K@std@@V?$allocator@U?$pair@$$CBKVsizedBuffer@@@std@@@3@$0A@@std@@@std@@IAEXPAU?$_Tree_node@U?$pair@$$CBKVsizedBuffer@@@std@@PAX@2@@Z 004a8800 f i Csimain.obj
 0002:00058910       ?_Free_proxy@?$_Deque_alloc@$0A@U?$_Deque_base_types@VsizedBuffer@@V?$allocator@VsizedBuffer@@@std@@@std@@@std@@QAEXXZ 004a8910 f i Csimain.obj
 0002:000589f0       ?_Free_proxy@?$_List_alloc@$0A@U?$_List_base_types@PAUHWND__@@V?$allocator@PAUHWND__@@@std@@@std@@@std@@QAEXXZ 004a89f0 f i Csimain.obj
 0002:00058ad0       ?_Free_proxy@?$_List_alloc@$0A@U?$_List_base_types@VserialError@@V?$allocator@VserialError@@@std@@@std@@@std@@QAEXXZ 004a8ad0 f i Csimain.obj
 0002:00058bb0       ?_Free_proxy@?$_Tree_alloc@$0A@U?$_Tree_base_types@U?$pair@$$CBGVserialError@@@std@@V?$allocator@U?$pair@$$CBGVserialError@@@std@@@2@@std@@@std@@QAEXXZ 004a8bb0 f i Csimain.obj
 0002:00058ca0       ?_Free_proxy@?$_Tree_alloc@$0A@U?$_Tree_base_types@U?$pair@$$CBKVsizedBuffer@@@std@@V?$allocator@U?$pair@$$CBKVsizedBuffer@@@std@@@2@@std@@@std@@QAEXXZ 004a8ca0 f i Csimain.obj
 0002:00058d90       ?_Freeheadnode@?$_List_alloc@$0A@U?$_List_base_types@PAUHWND__@@V?$allocator@PAUHWND__@@@std@@@std@@@std@@QAEXPAU?$_List_node@PAUHWND__@@PAX@2@@Z 004a8d90 f i Csimain.obj
 0002:00058e70       ?_Freeheadnode@?$_List_alloc@$0A@U?$_List_base_types@VserialError@@V?$allocator@VserialError@@@std@@@std@@@std@@QAEXPAU?$_List_node@VserialError@@PAX@2@@Z 004a8e70 f i Csimain.obj
 0002:00058f50       ?_Freeheadnode@?$_Tree_alloc@$0A@U?$_Tree_base_types@U?$pair@$$CBGVserialError@@@std@@V?$allocator@U?$pair@$$CBGVserialError@@@std@@@2@@std@@@std@@QAEXPAU?$_Tree_node@U?$pair@$$CBGVserialError@@@std@@PAX@2@@Z 004a8f50 f i Csimain.obj
 0002:00059060       ?_Freeheadnode@?$_Tree_alloc@$0A@U?$_Tree_base_types@U?$pair@$$CBKVsizedBuffer@@@std@@V?$allocator@U?$pair@$$CBKVsizedBuffer@@@std@@@2@@std@@@std@@QAEXPAU?$_Tree_node@U?$pair@$$CBKVsizedBuffer@@@std@@PAX@2@@Z 004a9060 f i Csimain.obj
 0002:00059170       ?_Freenode@?$_List_buy@VserialError@@V?$allocator@VserialError@@@std@@@std@@QAEXPAU?$_List_node@VserialError@@PAX@2@@Z 004a9170 f i Csimain.obj
 0002:00059280       ?_Getal@?$_List_alloc@$0A@U?$_List_base_types@VserialError@@V?$allocator@VserialError@@@std@@@std@@@std@@QBE?AU?$_Wrap_alloc@V?$allocator@U?$_List_node@VserialError@@PAX@std@@@std@@@2@XZ 004a9280 f i Csimain.obj
 0002:000592e0       ?_Getal@?$_Tree_alloc@$0A@U?$_Tree_base_types@U?$pair@$$CBKVsizedBuffer@@@std@@V?$allocator@U?$pair@$$CBKVsizedBuffer@@@std@@@2@@std@@@std@@QBE?AU?$_Wrap_alloc@V?$allocator@U?$_Tree_node@U?$pair@$$CBKVsizedBuffer@@@std@@PAX@std@@@std@@@2@XZ 004a92e0 f i Csimain.obj
 0002:00059340       ?_Incsize@?$list@PAUHWND__@@V?$allocator@PAUHWND__@@@std@@@std@@QAEXI@Z 004a9340 f i Csimain.obj
 0002:000593d0       ?_Isnil@?$_Tree_val@U?$_Tree_simple_types@U?$pair@$$CBKVsizedBuffer@@@std@@@std@@@std@@SAAADPAU?$_Tree_node@U?$pair@$$CBKVsizedBuffer@@@std@@PAX@2@@Z 004a93d0 f i Csimain.obj
 0002:00059410       ?_Lbound@?$_Tree@V?$_Tmap_traits@GVserialError@@U?$less@G@std@@V?$allocator@U?$pair@$$CBGVserialError@@@std@@@3@$00@std@@@std@@IAEPAU?$_Tree_node@U?$pair@$$CBGVserialError@@@std@@PAX@2@ABG@Z 004a9410 f i Csimain.obj
 0002:00059520       ?_Left@?$_Tree_val@U?$_Tree_simple_types@U?$pair@$$CBKVsizedBuffer@@@std@@@std@@@std@@SAAAPAU?$_Tree_node@U?$pair@$$CBKVsizedBuffer@@@std@@PAX@2@PAU32@@Z 004a9520 f i Csimain.obj
 0002:00059560       ?_Lmost@?$_Tree@V?$_Tmap_traits@KVsizedBuffer@@U?$less@K@std@@V?$allocator@U?$pair@$$CBKVsizedBuffer@@@std@@@3@$0A@@std@@@std@@IBEAAPAU?$_Tree_node@U?$pair@$$CBKVsizedBuffer@@@std@@PAX@2@XZ 004a9560 f i Csimain.obj
 0002:000595c0       ?_Lrotate@?$_Tree@V?$_Tmap_traits@KVsizedBuffer@@U?$less@K@std@@V?$allocator@U?$pair@$$CBKVsizedBuffer@@@std@@@3@$0A@@std@@@std@@IAEXPAU?$_Tree_node@U?$pair@$$CBKVsizedBuffer@@@std@@PAX@2@@Z 004a95c0 f i Csimain.obj
 0002:00059770       ?_Make_iter@?$list@VserialError@@V?$allocator@VserialError@@@std@@@std@@QBE?AV?$_List_iterator@V?$_List_val@U?$_List_simple_types@VserialError@@@std@@@std@@@2@V?$_List_const_iterator@V?$_List_val@U?$_List_simple_types@VserialError@@@std@@@std@@@2@@Z 004a9770 f i Csimain.obj
 0002:00059840       ?_Max@?$_Tree_val@U?$_Tree_simple_types@U?$pair@$$CBKVsizedBuffer@@@std@@@std@@@std@@SAPAU?$_Tree_node@U?$pair@$$CBKVsizedBuffer@@@std@@PAX@2@PAU32@@Z 004a9840 f i Csimain.obj
 0002:000598c0       ?_Min@?$_Tree_val@U?$_Tree_simple_types@U?$pair@$$CBGVserialError@@@std@@@std@@@std@@SAPAU?$_Tree_node@U?$pair@$$CBGVserialError@@@std@@PAX@2@PAU32@@Z 004a98c0 f i Csimain.obj
 0002:00059940       ?_Min@?$_Tree_val@U?$_Tree_simple_types@U?$pair@$$CBKVsizedBuffer@@@std@@@std@@@std@@SAPAU?$_Tree_node@U?$pair@$$CBKVsizedBuffer@@@std@@PAX@2@PAU32@@Z 004a9940 f i Csimain.obj
 0002:000599c0       ?_Mynode@?$_List_unchecked_const_iterator@V?$_List_val@U?$_List_simple_types@PAUHWND__@@@std@@@std@@U_Iterator_base0@2@@std@@QBEPAU?$_List_node@PAUHWND__@@PAX@2@XZ 004a99c0 f i Csimain.obj
 0002:00059a00       ?_Mynode@?$_List_unchecked_const_iterator@V?$_List_val@U?$_List_simple_types@VserialError@@@std@@@std@@U_Iterator_base12@2@@std@@QBEPAU?$_List_node@VserialError@@PAX@2@XZ 004a9a00 f i Csimain.obj
 0002:00059a40       ?_Mynode@?$_Tree_unchecked_const_iterator@V?$_Tree_val@U?$_Tree_simple_types@U?$pair@$$CBKVsizedBuffer@@@std@@@std@@@std@@U_Iterator_base12@2@@std@@QBEPAU?$_Tree_node@U?$pair@$$CBKVsizedBuffer@@@std@@PAX@2@XZ 004a9a40 f i Csimain.obj
 0002:00059a80       ?_Myval@?$_List_val@U?$_List_simple_types@VserialError@@@std@@@std@@SAAAVserialError@@PAU?$_List_node@VserialError@@PAX@2@@Z 004a9a80 f i Csimain.obj
 0002:00059ac0       ?_Myval@?$_Tree_val@U?$_Tree_simple_types@U?$pair@$$CBKVsizedBuffer@@@std@@@std@@@std@@SAAAU?$pair@$$CBKVsizedBuffer@@@2@PAU?$_Tree_node@U?$pair@$$CBKVsizedBuffer@@@std@@PAX@2@@Z 004a9ac0 f i Csimain.obj
 0002:00059b00       ?_Nextnode@?$_List_val@U?$_List_simple_types@VserialError@@@std@@@std@@SAAAPAU?$_List_node@VserialError@@PAX@2@PAU32@@Z 004a9b00 f i Csimain.obj
 0002:00059b40       ?_Orphan_ptr@?$_Tree@V?$_Tmap_traits@GVserialError@@U?$less@G@std@@V?$allocator@U?$pair@$$CBGVserialError@@@std@@@3@$00@std@@@std@@IBEXAAV12@PAU?$_Tree_node@U?$pair@$$CBGVserialError@@@std@@PAX@2@@Z 004a9b40 f i Csimain.obj
 0002:00059cd0       ?_Orphan_ptr@?$_Tree@V?$_Tmap_traits@KVsizedBuffer@@U?$less@K@std@@V?$allocator@U?$pair@$$CBKVsizedBuffer@@@std@@@3@$0A@@std@@@std@@IBEXAAV12@PAU?$_Tree_node@U?$pair@$$CBKVsizedBuffer@@@std@@PAX@2@@Z 004a9cd0 f i Csimain.obj
 0002:00059e60       ?_Orphan_ptr@?$list@VserialError@@V?$allocator@VserialError@@@std@@@std@@QBEXAAV12@PAU?$_List_node@VserialError@@PAX@2@@Z 004a9e60 f i Csimain.obj
 0002:00059ff0       ?_Parent@?$_Tree_val@U?$_Tree_simple_types@U?$pair@$$CBKVsizedBuffer@@@std@@@std@@@std@@SAAAPAU?$_Tree_node@U?$pair@$$CBKVsizedBuffer@@@std@@PAX@2@PAU32@@Z 004a9ff0 f i Csimain.obj
 0002:0005a030       ?_Prevnode@?$_List_val@U?$_List_simple_types@VserialError@@@std@@@std@@SAAAPAU?$_List_node@VserialError@@PAX@2@PAU32@@Z 004aa030 f i Csimain.obj
 0002:0005a070       ?_Right@?$_Tree_val@U?$_Tree_simple_types@U?$pair@$$CBKVsizedBuffer@@@std@@@std@@@std@@SAAAPAU?$_Tree_node@U?$pair@$$CBKVsizedBuffer@@@std@@PAX@2@PAU32@@Z 004aa070 f i Csimain.obj
 0002:0005a0b0       ?_Rmost@?$_Tree@V?$_Tmap_traits@KVsizedBuffer@@U?$less@K@std@@V?$allocator@U?$pair@$$CBKVsizedBuffer@@@std@@@3@$0A@@std@@@std@@IBEAAPAU?$_Tree_node@U?$pair@$$CBKVsizedBuffer@@@std@@PAX@2@XZ 004aa0b0 f i Csimain.obj
 0002:0005a110       ?_Root@?$_Tree@V?$_Tmap_traits@KVsizedBuffer@@U?$less@K@std@@V?$allocator@U?$pair@$$CBKVsizedBuffer@@@std@@@3@$0A@@std@@@std@@IBEAAPAU?$_Tree_node@U?$pair@$$CBKVsizedBuffer@@@std@@PAX@2@XZ 004aa110 f i Csimain.obj
 0002:0005a170       ?_Rrotate@?$_Tree@V?$_Tmap_traits@KVsizedBuffer@@U?$less@K@std@@V?$allocator@U?$pair@$$CBKVsizedBuffer@@@std@@@3@$0A@@std@@@std@@IAEXPAU?$_Tree_node@U?$pair@$$CBKVsizedBuffer@@@std@@PAX@2@@Z 004aa170 f i Csimain.obj
 0002:0005a320       ?_Tidy@?$_Tree@V?$_Tmap_traits@GVserialError@@U?$less@G@std@@V?$allocator@U?$pair@$$CBGVserialError@@@std@@@3@$00@std@@@std@@IAEXXZ 004aa320 f i Csimain.obj
 0002:0005a4c0       ?_Tidy@?$_Tree@V?$_Tmap_traits@KVsizedBuffer@@U?$less@K@std@@V?$allocator@U?$pair@$$CBKVsizedBuffer@@@std@@@3@$0A@@std@@@std@@IAEXXZ 004aa4c0 f i Csimain.obj
 0002:0005a660       ?_Tidy@?$deque@VsizedBuffer@@V?$allocator@VsizedBuffer@@@std@@@std@@IAEXXZ 004aa660 f i Csimain.obj
 0002:0005a7f0       ?_Tidy@?$list@PAUHWND__@@V?$allocator@PAUHWND__@@@std@@@std@@QAEXXZ 004aa7f0 f i Csimain.obj
 0002:0005a840       ?_Tidy@?$list@VserialError@@V?$allocator@VserialError@@@std@@@std@@QAEXXZ 004aa840 f i Csimain.obj
 0002:0005a890       ?_Unchecked_end@?$list@PAUHWND__@@V?$allocator@PAUHWND__@@@std@@@std@@QAE?AV?$_List_unchecked_iterator@V?$_List_val@U?$_List_simple_types@PAUHWND__@@@std@@@std@@@2@XZ 004aa890 f i Csimain.obj
 0002:0005a900       ?_Unlinknode@?$list@VserialError@@V?$allocator@VserialError@@@std@@@std@@QAEPAU?$_List_node@VserialError@@PAX@2@V?$_List_const_iterator@V?$_List_val@U?$_List_simple_types@VserialError@@@std@@@std@@@2@@Z 004aa900 f i Csimain.obj
 0002:0005aa90       ?allocate@?$_Wrap_alloc@V?$allocator@U?$_List_node@PAUHWND__@@PAX@std@@@std@@@std@@QAEPAU?$_List_node@PAUHWND__@@PAX@2@I@Z 004aaa90 f i Csimain.obj
 0002:0005aaf0       ?allocate@?$_Wrap_alloc@V?$allocator@U?$_List_node@VserialError@@PAX@std@@@std@@@std@@QAEPAU?$_List_node@VserialError@@PAX@2@I@Z 004aaaf0 f i Csimain.obj
 0002:0005ab50       ?allocate@?$_Wrap_alloc@V?$allocator@U?$_Tree_node@U?$pair@$$CBKVsizedBuffer@@@std@@PAX@std@@@std@@@std@@QAEPAU?$_Tree_node@U?$pair@$$CBKVsizedBuffer@@@std@@PAX@2@I@Z 004aab50 f i Csimain.obj
 0002:0005abb0       ?allocate@?$allocator@U?$_List_node@PAUHWND__@@PAX@std@@@std@@QAEPAU?$_List_node@PAUHWND__@@PAX@2@I@Z 004aabb0 f i Csimain.obj
 0002:0005ac10       ?allocate@?$allocator@U?$_List_node@VserialError@@PAX@std@@@std@@QAEPAU?$_List_node@VserialError@@PAX@2@I@Z 004aac10 f i Csimain.obj
 0002:0005ac70       ?allocate@?$allocator@U?$_Tree_node@U?$pair@$$CBKVsizedBuffer@@@std@@PAX@std@@@std@@QAEPAU?$_Tree_node@U?$pair@$$CBKVsizedBuffer@@@std@@PAX@2@I@Z 004aac70 f i Csimain.obj
 0002:0005acd0       ?areAllCorrected@serialError@@QAE_NXZ 004aacd0 f i Csimain.obj
 0002:0005ada0       ?begin@?$_Tree@V?$_Tmap_traits@KVsizedBuffer@@U?$less@K@std@@V?$allocator@U?$pair@$$CBKVsizedBuffer@@@std@@@3@$0A@@std@@@std@@QAE?AV?$_Tree_iterator@V?$_Tree_val@U?$_Tree_simple_types@U?$pair@$$CBKVsizedBuffer@@@std@@@std@@@std@@@2@XZ 004aada0 f i Csimain.obj
 0002:0005ae70       ?begin@?$list@VserialError@@V?$allocator@VserialError@@@std@@@std@@QAE?AV?$_List_iterator@V?$_List_val@U?$_List_simple_types@VserialError@@@std@@@std@@@2@XZ 004aae70 f i Csimain.obj
 0002:0005af40       ?clear@?$_Tree@V?$_Tmap_traits@GVserialError@@U?$less@G@std@@V?$allocator@U?$pair@$$CBGVserialError@@@std@@@3@$00@std@@@std@@QAEXXZ 004aaf40 f i Csimain.obj
 0002:0005b000       ?clear@?$_Tree@V?$_Tmap_traits@KVsizedBuffer@@U?$less@K@std@@V?$allocator@U?$pair@$$CBKVsizedBuffer@@@std@@@3@$0A@@std@@@std@@QAEXXZ 004ab000 f i Csimain.obj
 0002:0005b0c0       ?clear@?$list@PAUHWND__@@V?$allocator@PAUHWND__@@@std@@@std@@QAEXXZ 004ab0c0 f i Csimain.obj
 0002:0005b1c0       ?clear@?$list@VserialError@@V?$allocator@VserialError@@@std@@@std@@QAEXXZ 004ab1c0 f i Csimain.obj
 0002:0005b2c0       ?deallocate@?$_Wrap_alloc@V?$allocator@U?$_List_node@VserialError@@PAX@std@@@std@@@std@@QAEXPAU?$_List_node@VserialError@@PAX@2@I@Z 004ab2c0 f i Csimain.obj
 0002:0005b320       ?deallocate@?$_Wrap_alloc@V?$allocator@U?$_Tree_node@U?$pair@$$CBKVsizedBuffer@@@std@@PAX@std@@@std@@@std@@QAEXPAU?$_Tree_node@U?$pair@$$CBKVsizedBuffer@@@std@@PAX@2@I@Z 004ab320 f i Csimain.obj
 0002:0005b380       ?deallocate@?$_Wrap_alloc@V?$allocator@VsizedBuffer@@@std@@@std@@QAEXPAVsizedBuffer@@I@Z 004ab380 f i Csimain.obj
 0002:0005b3e0       ?deallocate@?$allocator@U?$_List_node@VserialError@@PAX@std@@@std@@QAEXPAU?$_List_node@VserialError@@PAX@2@I@Z 004ab3e0 f i Csimain.obj
 0002:0005b440       ?deallocate@?$allocator@U?$_Tree_node@U?$pair@$$CBKVsizedBuffer@@@std@@PAX@std@@@std@@QAEXPAU?$_Tree_node@U?$pair@$$CBKVsizedBuffer@@@std@@PAX@2@I@Z 004ab440 f i Csimain.obj
 0002:0005b4a0       ?deallocate@?$allocator@VsizedBuffer@@@std@@QAEXPAVsizedBuffer@@I@Z 004ab4a0 f i Csimain.obj
 0002:0005b500       ?end@?$_Tree@V?$_Tmap_traits@GVserialError@@U?$less@G@std@@V?$allocator@U?$pair@$$CBGVserialError@@@std@@@3@$00@std@@@std@@QAE?AV?$_Tree_iterator@V?$_Tree_val@U?$_Tree_simple_types@U?$pair@$$CBGVserialError@@@std@@@std@@@std@@@2@XZ 004ab500 f i Csimain.obj
 0002:0005b5c0       ?end@?$_Tree@V?$_Tmap_traits@KVsizedBuffer@@U?$less@K@std@@V?$allocator@U?$pair@$$CBKVsizedBuffer@@@std@@@3@$0A@@std@@@std@@QAE?AV?$_Tree_iterator@V?$_Tree_val@U?$_Tree_simple_types@U?$pair@$$CBKVsizedBuffer@@@std@@@std@@@std@@@2@XZ 004ab5c0 f i Csimain.obj
 0002:0005b680       ?end@serialError@@QAEKXZ   004ab680 f i Csimain.obj
 0002:0005b6c0       ?erase@?$_Tree@V?$_Tmap_traits@GVserialError@@U?$less@G@std@@V?$allocator@U?$pair@$$CBGVserialError@@@std@@@3@$00@std@@@std@@QAE?AV?$_Tree_iterator@V?$_Tree_val@U?$_Tree_simple_types@U?$pair@$$CBGVserialError@@@std@@@std@@@std@@@2@V?$_Tree_const_iterator@V?$_Tree_val@U?$_Tree_simple_types@U?$pair@$$CBGVserialError@@@std@@@std@@@std@@@2@0@Z 004ab6c0 f i Csimain.obj
 0002:0005b9f0       ?erase@?$_Tree@V?$_Tmap_traits@GVserialError@@U?$less@G@std@@V?$allocator@U?$pair@$$CBGVserialError@@@std@@@3@$00@std@@@std@@QAE?AV?$_Tree_iterator@V?$_Tree_val@U?$_Tree_simple_types@U?$pair@$$CBGVserialError@@@std@@@std@@@std@@@2@V?$_Tree_const_iterator@V?$_Tree_val@U?$_Tree_simple_types@U?$pair@$$CBGVserialError@@@std@@@std@@@std@@@2@@Z 004ab9f0 f i Csimain.obj
 0002:0005c470       ?erase@?$_Tree@V?$_Tmap_traits@KVsizedBuffer@@U?$less@K@std@@V?$allocator@U?$pair@$$CBKVsizedBuffer@@@std@@@3@$0A@@std@@@std@@QAE?AV?$_Tree_iterator@V?$_Tree_val@U?$_Tree_simple_types@U?$pair@$$CBKVsizedBuffer@@@std@@@std@@@std@@@2@V?$_Tree_const_iterator@V?$_Tree_val@U?$_Tree_simple_types@U?$pair@$$CBKVsizedBuffer@@@std@@@std@@@std@@@2@0@Z 004ac470 f i Csimain.obj
 0002:0005c7a0       ?erase@?$_Tree@V?$_Tmap_traits@KVsizedBuffer@@U?$less@K@std@@V?$allocator@U?$pair@$$CBKVsizedBuffer@@@std@@@3@$0A@@std@@@std@@QAE?AV?$_Tree_iterator@V?$_Tree_val@U?$_Tree_simple_types@U?$pair@$$CBKVsizedBuffer@@@std@@@std@@@std@@@2@V?$_Tree_const_iterator@V?$_Tree_val@U?$_Tree_simple_types@U?$pair@$$CBKVsizedBuffer@@@std@@@std@@@std@@@2@@Z 004ac7a0 f i Csimain.obj
 0002:0005d220       ?erase@?$list@VserialError@@V?$allocator@VserialError@@@std@@@std@@QAE?AV?$_List_iterator@V?$_List_val@U?$_List_simple_types@VserialError@@@std@@@std@@@2@V?$_List_const_iterator@V?$_List_val@U?$_List_simple_types@VserialError@@@std@@@std@@@2@@Z 004ad220 f i Csimain.obj
 0002:0005d390       ?find@?$_Tree@V?$_Tmap_traits@GVserialError@@U?$less@G@std@@V?$allocator@U?$pair@$$CBGVserialError@@@std@@@3@$00@std@@@std@@QAE?AV?$_Tree_iterator@V?$_Tree_val@U?$_Tree_simple_types@U?$pair@$$CBGVserialError@@@std@@@std@@@std@@@2@ABG@Z 004ad390 f i Csimain.obj
 0002:0005d6a0       ?front@?$list@VserialError@@V?$allocator@VserialError@@@std@@@std@@QAEAAVserialError@@XZ 004ad6a0 f i Csimain.obj
 0002:0005d780       ?incRetries@serialError@@QAEHXZ 004ad780 f i Csimain.obj
 0002:0005d7e0       ?lower_bound@?$_Tree@V?$_Tmap_traits@GVserialError@@U?$less@G@std@@V?$allocator@U?$pair@$$CBGVserialError@@@std@@@3@$00@std@@@std@@QAE?AV?$_Tree_iterator@V?$_Tree_val@U?$_Tree_simple_types@U?$pair@$$CBGVserialError@@@std@@@std@@@std@@@2@ABG@Z 004ad7e0 f i Csimain.obj
 0002:0005d8b0       ?max_size@?$_Wrap_alloc@V?$allocator@U?$_List_node@PAUHWND__@@PAX@std@@@std@@@std@@QBEIXZ 004ad8b0 f i Csimain.obj
 0002:0005d910       ?max_size@?$allocator@U?$_List_node@PAUHWND__@@PAX@std@@@std@@QBEIXZ 004ad910 f i Csimain.obj
 0002:0005d950       ?max_size@?$allocator_traits@V?$allocator@U?$_List_node@PAUHWND__@@PAX@std@@@std@@@std@@SAIABV?$allocator@U?$_List_node@PAUHWND__@@PAX@std@@@2@@Z 004ad950 f i Csimain.obj
 0002:0005d9a0       ?max_size@?$list@PAUHWND__@@V?$allocator@PAUHWND__@@@std@@@std@@QBEIXZ 004ad9a0 f i Csimain.obj
 0002:0005da00       ?pointer_to@?$pointer_traits@PAU?$pair@$$CBGVserialError@@@std@@@std@@SAPAU?$pair@$$CBGVserialError@@@2@AAU32@@Z 004ada00 f i Csimain.obj
 0002:0005da50       ?pointer_to@?$pointer_traits@PAU?$pair@$$CBKVsizedBuffer@@@std@@@std@@SAPAU?$pair@$$CBKVsizedBuffer@@@2@AAU32@@Z 004ada50 f i Csimain.obj
 0002:0005daa0       ?pop_back@?$deque@VsizedBuffer@@V?$allocator@VsizedBuffer@@@std@@@std@@QAEXXZ 004adaa0 f i Csimain.obj
 0002:0005dbe0       ?pop_front@?$list@VserialError@@V?$allocator@VserialError@@@std@@@std@@QAEXXZ 004adbe0 f i Csimain.obj
 0002:0005dd10       ?push_back@?$list@PAUHWND__@@V?$allocator@PAUHWND__@@@std@@@std@@QAEX$$QAPAUHWND__@@@Z 004add10 f i Csimain.obj
 0002:0005dda0       ?retries@serialError@@QAEHXZ 004adda0 f i Csimain.obj
 0002:0005dde0       ?sentAt@serialError@@QAEKXZ 004adde0 f i Csimain.obj
 0002:0005de20       ?setSentAt@serialError@@QAEXK@Z 004ade20 f i Csimain.obj
 0002:0005de70       ?size@?$_Tree@V?$_Tmap_traits@KVsizedBuffer@@U?$less@K@std@@V?$allocator@U?$pair@$$CBKVsizedBuffer@@@std@@@3@$0A@@std@@@std@@QBEIXZ 004ade70 f i Csimain.obj
 0002:0005deb0       ?size@?$list@VserialError@@V?$allocator@VserialError@@@std@@@std@@QBEIXZ 004adeb0 f i Csimain.obj
 0002:0005def0       ?start@serialError@@QAEKXZ 004adef0 f i Csimain.obj
 0002:0005df30       ?workstation@serialError@@QAEHXZ 004adf30 f i Csimain.obj
 0002:0005df70       ?CSLicens_License@@YAXXZ   004adf70 f   CSLICENS.obj
 0002:0005dfd0       ?CSLicens_DialogProc@@YGHPAUHWND__@@GGJ@Z 004adfd0 f   CSLICENS.obj
 0002:0005e330       ?CSNDI_Init@@YAXXZ         004ae330 f   Csndi.obj
 0002:0005e4e0       ?CSNDI_SendToDriver@@YAXPADH@Z 004ae4e0 f   Csndi.obj
 0002:0005ee00       ?CSNDI_RegDeviceId@@YAHIJHE@Z 004aee00 f   Csndi.obj
 0002:0005f220       ?CSNDI_UnRegDeviceId@@YAHIJ@Z 004af220 f   Csndi.obj
 0002:0005f560       ?CSNDI_UnRegAllDeviceIds@@YAHI@Z 004af560 f   Csndi.obj
 0002:0005f5f0       ?CSNDI_IncDriver@@YAHPAUHWND__@@@Z 004af5f0 f   Csndi.obj
 0002:0005f6c0       ?CSNDI_DecDriver@@YAXPAUHWND__@@@Z 004af6c0 f   Csndi.obj
 0002:0005f750       ?CSNDI_Revertive@@YAXIJH@Z 004af750 f   Csndi.obj
 0002:0005f7a0       ?CSNDI_Revertive@@YAXIJH_N@Z 004af7a0 f   Csndi.obj
 0002:00060080       ?CSNDI_UniChangeRevertive@@YAXHPADHH@Z 004b0080 f   Csndi.obj
 0002:00060190       ?CSNDI_UniPollRevertive@@YAXHHPADHHH@Z 004b0190 f   Csndi.obj
 0002:000603c0       ?CSNDI_TxPacket@@YAXXZ     004b03c0 f   Csndi.obj
 0002:00060820       ?CSNDI_UniBuffReset@@YAXXZ 004b0820 f   Csndi.obj
 0002:00060920       ?CSNDI_UniFileBuffReset@@YAXXZ 004b0920 f   Csndi.obj
 0002:00060a20       ?CSNDI_SendSystemMsg@@YAXPAD@Z 004b0a20 f   Csndi.obj
 0002:00060b10       ?CSNDI_SendVerbatimMsg@@YAXJ@Z 004b0b10 f   Csndi.obj
 0002:00060c40       ?CSNDI_SendErrorMsg@@YAXPAD@Z 004b0c40 f   Csndi.obj
 0002:00060ea0       ?CSNDI_SendRevPacket@@YAXIJ@Z 004b0ea0 f   Csndi.obj
 0002:00060fc0       ?CSNDI_RegAllDeviceIds@@YAXI@Z 004b0fc0 f   Csndi.obj
 0002:00061b60       ??$?0AAV?$_Tree_iterator@V?$_Tree_val@U?$_Tree_simple_types@U?$pair@$$CBKVsizedBuffer@@@std@@@std@@@std@@@std@@_NX@?$pair@V?$_Tree_iterator@V?$_Tree_val@U?$_Tree_simple_types@U?$pair@$$CBKVsizedBuffer@@@std@@@std@@@std@@@std@@_N@std@@QAE@AAV?$_Tree_iterator@V?$_Tree_val@U?$_Tree_simple_types@U?$pair@$$CBKVsizedBuffer@@@std@@@std@@@std@@@1@$$QA_N@Z 004b1b60 f i Csndi.obj
 0002:00061c30       ??$?0KVsizedBuffer@@X@?$pair@$$CBKVsizedBuffer@@@std@@QAE@$$QAU?$pair@KVsizedBuffer@@@1@@Z 004b1c30 f i Csndi.obj
 0002:00061d00       ??$?0KVsizedBuffer@@X@?$pair@KVsizedBuffer@@@std@@QAE@$$QAK$$QAVsizedBuffer@@@Z 004b1d00 f i Csndi.obj
 0002:00061dd0       ??$?0V?$_Tree_iterator@V?$_Tree_val@U?$_Tree_simple_types@U?$pair@$$CBKVsizedBuffer@@@std@@@std@@@std@@@std@@_NX@?$pair@V?$_Tree_iterator@V?$_Tree_val@U?$_Tree_simple_types@U?$pair@$$CBKVsizedBuffer@@@std@@@std@@@std@@@std@@_N@std@@QAE@$$QAV?$_Tree_iterator@V?$_Tree_val@U?$_Tree_simple_types@U?$pair@$$CBKVsizedBuffer@@@std@@@std@@@std@@@1@$$QA_N@Z 004b1dd0 f i Csndi.obj
 0002:00061ea0       ??$_Buynode@U?$pair@KVsizedBuffer@@@std@@@?$_Tree_buy@U?$pair@$$CBKVsizedBuffer@@@std@@V?$allocator@U?$pair@$$CBKVsizedBuffer@@@std@@@2@@std@@QAEPAU?$_Tree_node@U?$pair@$$CBKVsizedBuffer@@@std@@PAX@1@$$QAU?$pair@KVsizedBuffer@@@1@@Z 004b1ea0 f i Csndi.obj
 0002:00061fe0       ??$_Buynode_if_nil@AAU?$pair@$$CBKVsizedBuffer@@@std@@@?$_Tree@V?$_Tmap_traits@KVsizedBuffer@@U?$less@K@std@@V?$allocator@U?$pair@$$CBKVsizedBuffer@@@std@@@3@$0A@@std@@@std@@IAEPAU?$_Tree_node@U?$pair@$$CBKVsizedBuffer@@@std@@PAX@1@PAU21@AAU?$pair@$$CBKVsizedBuffer@@@1@@Z 004b1fe0 f i Csndi.obj
 0002:00062020       ??$_Debug_lt_pred@U?$less@K@std@@ABKABK@std@@YA_NU?$less@K@0@ABK1PB_WI@Z 004b2020 f i Csndi.obj
 0002:00062100       ??$_Insert_at@AAU?$pair@$$CBKVsizedBuffer@@@std@@PAU?$_Tree_node@U?$pair@$$CBKVsizedBuffer@@@std@@PAX@2@@?$_Tree@V?$_Tmap_traits@KVsizedBuffer@@U?$less@K@std@@V?$allocator@U?$pair@$$CBKVsizedBuffer@@@std@@@3@$0A@@std@@@std@@IAE?AV?$_Tree_iterator@V?$_Tree_val@U?$_Tree_simple_types@U?$pair@$$CBKVsizedBuffer@@@std@@@std@@@std@@@1@_NPAU?$_Tree_node@U?$pair@$$CBKVsizedBuffer@@@std@@PAX@1@AAU?$pair@$$CBKVsizedBuffer@@@1@1@Z 004b2100 f i Csndi.obj
 0002:000626d0       ??$_Insert_nohint@AAU?$pair@$$CBKVsizedBuffer@@@std@@PAU?$_Tree_node@U?$pair@$$CBKVsizedBuffer@@@std@@PAX@2@@?$_Tree@V?$_Tmap_traits@KVsizedBuffer@@U?$less@K@std@@V?$allocator@U?$pair@$$CBKVsizedBuffer@@@std@@@3@$0A@@std@@@std@@IAE?AU?$pair@V?$_Tree_iterator@V?$_Tree_val@U?$_Tree_simple_types@U?$pair@$$CBKVsizedBuffer@@@std@@@std@@@std@@@std@@_N@1@_NAAU?$pair@$$CBKVsizedBuffer@@@1@PAU?$_Tree_node@U?$pair@$$CBKVsizedBuffer@@@std@@PAX@1@@Z 004b26d0 f i Csndi.obj
 0002:00062ce0       ??$_Kfn@$$CBKVsizedBuffer@@@?$_Tmap_traits@KVsizedBuffer@@U?$less@K@std@@V?$allocator@U?$pair@$$CBKVsizedBuffer@@@std@@@3@$0A@@std@@SAABKABU?$pair@$$CBKVsizedBuffer@@@1@@Z 004b2ce0 f i Csndi.obj
 0002:00062d20       ??$construct@U?$pair@$$CBKVsizedBuffer@@@std@@U?$pair@KVsizedBuffer@@@2@@?$_Wrap_alloc@V?$allocator@U?$_Tree_node@U?$pair@$$CBKVsizedBuffer@@@std@@PAX@std@@@std@@@std@@QAEXPAU?$pair@$$CBKVsizedBuffer@@@1@$$QAU?$pair@KVsizedBuffer@@@1@@Z 004b2d20 f i Csndi.obj
 0002:00062d90       ??$construct@U?$pair@$$CBKVsizedBuffer@@@std@@U?$pair@KVsizedBuffer@@@2@@?$allocator@U?$_Tree_node@U?$pair@$$CBKVsizedBuffer@@@std@@PAX@std@@@std@@QAEXPAU?$pair@$$CBKVsizedBuffer@@@1@$$QAU?$pair@KVsizedBuffer@@@1@@Z 004b2d90 f i Csndi.obj
 0002:00062e90       ??$construct@U?$pair@$$CBKVsizedBuffer@@@std@@U?$pair@KVsizedBuffer@@@2@@?$allocator_traits@V?$allocator@U?$_Tree_node@U?$pair@$$CBKVsizedBuffer@@@std@@PAX@std@@@std@@@std@@SAXAAV?$allocator@U?$_Tree_node@U?$pair@$$CBKVsizedBuffer@@@std@@PAX@std@@@1@PAU?$pair@$$CBKVsizedBuffer@@@1@$$QAU?$pair@KVsizedBuffer@@@1@@Z 004b2e90 f i Csndi.obj
 0002:00062ef0       ??$forward@AAU?$pair@$$CBKVsizedBuffer@@@std@@@std@@YAAAU?$pair@$$CBKVsizedBuffer@@@0@AAU10@@Z 004b2ef0 f i Csndi.obj
 0002:00062f30       ??$forward@AAV?$_Tree_iterator@V?$_Tree_val@U?$_Tree_simple_types@U?$pair@$$CBKVsizedBuffer@@@std@@@std@@@std@@@std@@@std@@YAAAV?$_Tree_iterator@V?$_Tree_val@U?$_Tree_simple_types@U?$pair@$$CBKVsizedBuffer@@@std@@@std@@@std@@@0@AAV10@@Z 004b2f30 f i Csndi.obj
 0002:00062f70       ??$forward@ABK@std@@YAABKABK@Z 004b2f70 f i Csndi.obj
 0002:00062fb0       ??$forward@K@std@@YA$$QAKAAK@Z 004b2fb0 f i Csndi.obj
 0002:00062ff0       ??$forward@U?$pair@KVsizedBuffer@@@std@@@std@@YA$$QAU?$pair@KVsizedBuffer@@@0@AAU10@@Z 004b2ff0 f i Csndi.obj
 0002:00063030       ??$forward@V?$_Tree_iterator@V?$_Tree_val@U?$_Tree_simple_types@U?$pair@$$CBKVsizedBuffer@@@std@@@std@@@std@@@std@@@std@@YA$$QAV?$_Tree_iterator@V?$_Tree_val@U?$_Tree_simple_types@U?$pair@$$CBKVsizedBuffer@@@std@@@std@@@std@@@0@AAV10@@Z 004b3030 f i Csndi.obj
 0002:00063070       ??$insert@U?$pair@KVsizedBuffer@@@std@@@?$_Tree@V?$_Tmap_traits@KVsizedBuffer@@U?$less@K@std@@V?$allocator@U?$pair@$$CBKVsizedBuffer@@@std@@@3@$0A@@std@@@std@@QAE?AU?$pair@V?$_Tree_iterator@V?$_Tree_val@U?$_Tree_simple_types@U?$pair@$$CBKVsizedBuffer@@@std@@@std@@@std@@@std@@_N@1@$$QAU?$pair@KVsizedBuffer@@@1@@Z 004b3070 f i Csndi.obj
 0002:00063160       ??$make_pair@KVsizedBuffer@@@std@@YA?AU?$pair@KVsizedBuffer@@@0@$$QAK$$QAVsizedBuffer@@@Z 004b3160 f i Csndi.obj
 0002:00063230       ??0?$_Tree_iterator@V?$_Tree_val@U?$_Tree_simple_types@U?$pair@$$CBKVsizedBuffer@@@std@@@std@@@std@@@std@@QAE@ABV01@@Z 004b3230 f i Csndi.obj
 0002:000632d0       ??1?$pair@KVsizedBuffer@@@std@@QAE@XZ 004b32d0 f i Csndi.obj
 0002:00063370       ??1?$pair@V?$_Tree_iterator@V?$_Tree_val@U?$_Tree_simple_types@U?$pair@$$CBKVsizedBuffer@@@std@@@std@@@std@@@std@@_N@std@@QAE@XZ 004b3370 f i Csndi.obj
 0002:00063410       ??F?$_Tree_const_iterator@V?$_Tree_val@U?$_Tree_simple_types@U?$pair@$$CBKVsizedBuffer@@@std@@@std@@@std@@@std@@QAEAAV01@XZ 004b3410 f i Csndi.obj
 0002:000635f0       ??F?$_Tree_iterator@V?$_Tree_val@U?$_Tree_simple_types@U?$pair@$$CBKVsizedBuffer@@@std@@@std@@@std@@@std@@QAEAAV01@XZ 004b35f0 f i Csndi.obj
 0002:00063650       ??F?$_Tree_unchecked_const_iterator@V?$_Tree_val@U?$_Tree_simple_types@U?$pair@$$CBKVsizedBuffer@@@std@@@std@@@std@@U_Iterator_base12@2@@std@@QAEAAV01@XZ 004b3650 f i Csndi.obj
 0002:000637b0       ??R?$less@K@std@@QBE_NABK0@Z 004b37b0 f i Csndi.obj
 0002:00063820       ??_GCbncs_strtok@@QAEPAXI@Z 004b3820 f i Csndi.obj
 0002:00063890       ?_Buynode0@?$_Tree_buy@U?$pair@$$CBKVsizedBuffer@@@std@@V?$allocator@U?$pair@$$CBKVsizedBuffer@@@std@@@2@@std@@QAEPAU?$_Tree_node@U?$pair@$$CBKVsizedBuffer@@@std@@PAX@2@XZ 004b3890 f i Csndi.obj
 0002:00063a50       ?_Destroy_if_not_nil@?$_Tree@V?$_Tmap_traits@KVsizedBuffer@@U?$less@K@std@@V?$allocator@U?$pair@$$CBKVsizedBuffer@@@std@@@3@$0A@@std@@@std@@IAEXPAU?$_Tree_node@U?$pair@$$CBKVsizedBuffer@@@std@@PAX@2@@Z 004b3a50 f i Csndi.obj
 0002:00063b00       ?_Freenode0@?$_Tree_buy@U?$pair@$$CBKVsizedBuffer@@@std@@V?$allocator@U?$pair@$$CBKVsizedBuffer@@@std@@@2@@std@@QAEXPAU?$_Tree_node@U?$pair@$$CBKVsizedBuffer@@@std@@PAX@2@@Z 004b3b00 f i Csndi.obj
 0002:00063c10       ?_Getcomp@?$_Tree_comp@$0A@V?$_Tmap_traits@KVsizedBuffer@@U?$less@K@std@@V?$allocator@U?$pair@$$CBKVsizedBuffer@@@std@@@3@$0A@@std@@@std@@QBE?AU?$less@K@2@XZ 004b3c10 f i Csndi.obj
 0002:00063c50       ?_Key@?$_Tree@V?$_Tmap_traits@KVsizedBuffer@@U?$less@K@std@@V?$allocator@U?$pair@$$CBKVsizedBuffer@@@std@@@3@$0A@@std@@@std@@IBEABKPAU?$_Tree_node@U?$pair@$$CBKVsizedBuffer@@@std@@PAX@2@@Z 004b3c50 f i Csndi.obj
 0002:00063cc0       ?_Kfn@?$_Tree@V?$_Tmap_traits@KVsizedBuffer@@U?$less@K@std@@V?$allocator@U?$pair@$$CBKVsizedBuffer@@@std@@@3@$0A@@std@@@std@@IBEABKABU?$pair@$$CBKVsizedBuffer@@@2@@Z 004b3cc0 f i Csndi.obj
 0002:00063d20       ?max_size@?$_Tree@V?$_Tmap_traits@KVsizedBuffer@@U?$less@K@std@@V?$allocator@U?$pair@$$CBKVsizedBuffer@@@std@@@3@$0A@@std@@@std@@QBEIXZ 004b3d20 f i Csndi.obj
 0002:00063d80       ?max_size@?$_Wrap_alloc@V?$allocator@U?$_Tree_node@U?$pair@$$CBKVsizedBuffer@@@std@@PAX@std@@@std@@@std@@QBEIXZ 004b3d80 f i Csndi.obj
 0002:00063de0       ?max_size@?$allocator@U?$_Tree_node@U?$pair@$$CBKVsizedBuffer@@@std@@PAX@std@@@std@@QBEIXZ 004b3de0 f i Csndi.obj
 0002:00063e20       ?max_size@?$allocator_traits@V?$allocator@U?$_Tree_node@U?$pair@$$CBKVsizedBuffer@@@std@@PAX@std@@@std@@@std@@SAIABV?$allocator@U?$_Tree_node@U?$pair@$$CBKVsizedBuffer@@@std@@PAX@std@@@2@@Z 004b3e20 f i Csndi.obj
 0002:00063e70       ?CSNetCli_SendPollFile@@YAXHHPAD@Z 004b3e70 f   Csnetcli.obj
 0002:00063fc0       ?CSNetCli_Call@@YA_NH@Z    004b3fc0 f   Csnetcli.obj
 0002:00064100       ?CSNetCli_CallAccepted@@YAXE@Z 004b4100 f   Csnetcli.obj
 0002:00064240       ?CSNetCli_TxSessionRequest@@YAXPAD@Z 004b4240 f   Csnetcli.obj
 0002:00064510       ?CSNetCli_SessionQHandler@@YAXXZ 004b4510 f   Csnetcli.obj
 0002:000646b0       ?CSNetCli_TxData@@YAXXZ    004b46b0 f   Csnetcli.obj
 0002:00064740       ?CSNetCli_RxData@@YAXPADH@Z 004b4740 f   Csnetcli.obj
 0002:00064900       ?CSNetCli_SendRequest@@YAXPAD@Z 004b4900 f   Csnetcli.obj
 0002:00064a00       ?CSNetCli_NotifyResult@@YAXXZ 004b4a00 f   Csnetcli.obj
 0002:00064aa0       ?CSNetCli_DevDisconnect@@YAXH@Z 004b4aa0 f   Csnetcli.obj
 0002:00064b10       ?CSNetCli_DevWrite@@YAXJ@Z 004b4b10 f   Csnetcli.obj
 0002:00064f80       ?CSNetMsg_NetMsgRx@@YAXIJ@Z 004b4f80 f   CSNETMSG.obj
 0002:00065200       ?CSNetMsg_SendDG@@YAXPAU_NCB@@@Z 004b5200 f   CSNETMSG.obj
 0002:000652b0       ?CSNetMsg_Listen@@YAXPAU_NCB@@@Z 004b52b0 f   CSNETMSG.obj
 0002:00065390       ?CSNetMsg_Call@@YAXPAU_NCB@@@Z 004b5390 f   CSNETMSG.obj
 0002:00065480       ?CSNetMsg_Send@@YAXPAU_NCB@@@Z 004b5480 f   CSNETMSG.obj
 0002:00065520       ?CSNetMsg_Receive@@YAXPAU_NCB@@@Z 004b5520 f   CSNETMSG.obj
 0002:00065810       ?CSNetSes_Init@@YAXXZ      004b5810 f   Csnetses.obj
 0002:00065970       ?CSNetSes_Closedown@@YAXXZ 004b5970 f   Csnetses.obj
 0002:00065a30       ?CSNetSes_PostRx@@YAXXZ    004b5a30 f   Csnetses.obj
 0002:00065af0       ?CSNetSes_RdyToTx@@YAXXZ   004b5af0 f   Csnetses.obj
 0002:00065b40       ?CSNetSes_Receive@@YAXPADH@Z 004b5b40 f   Csnetses.obj
 0002:00065bb0       ?CSNetSes_Send@@YAHPADH@Z  004b5bb0 f   Csnetses.obj
 0002:00065c80       ?CSNetSes_FlushQ@@YAXXZ    004b5c80 f   Csnetses.obj
 0002:00065d00       ?CSNetSes_HangUp@@YAXXZ    004b5d00 f   Csnetses.obj
 0002:00065db0       ?CSNetSes_SessionClosed@@YAXXZ 004b5db0 f   Csnetses.obj
 0002:00065e40       ?CSNetSes_SessionClear@@YAXXZ 004b5e40 f   Csnetses.obj
 0002:00065fd0       ?CSNetSes_MakeDirFile@@YAHXZ 004b5fd0 f   Csnetses.obj
 0002:00066360       ?CSNetSes_OpenReadFile@@YAXXZ 004b6360 f   Csnetses.obj
 0002:00066430       ?CSNetSes_ReadFile@@YAXXZ  004b6430 f   Csnetses.obj
 0002:00066620       ?CSNetSes_OpenWriteFile@@YAXXZ 004b6620 f   Csnetses.obj
 0002:000666c0       ?CSNetSes_WriteFile@@YAXPADH@Z 004b66c0 f   Csnetses.obj
 0002:000667a0       ?CSNetSes_CloseFile@@YAXXZ 004b67a0 f   Csnetses.obj
 0002:00066810       ?CSNetSes_TimeoutChk@@YAXXZ 004b6810 f   Csnetses.obj
 0002:00066b50       ?CSNetSes_ClientClosing@@YAXI@Z 004b6b50 f   Csnetses.obj
 0002:00066ba0       ?CSNetSes_DespatchPollFile@@YAXXZ 004b6ba0 f   Csnetses.obj
 0002:00067200       ?CSNetSrv_PostListen@@YAXXZ 004b7200 f   Csnetsrv.obj
 0002:00067320       ?CSNetSrv_ListenAccepted@@YAXE@Z 004b7320 f   Csnetsrv.obj
 0002:000673b0       ?CSNetSrv_TxData@@YAXXZ    004b73b0 f   Csnetsrv.obj
 0002:00067430       ?CSNetSrv_RxData@@YAXPADH@Z 004b7430 f   Csnetsrv.obj
 0002:00067990       ?CSNetSup_Init@@YAHXZ      004b7990 f   Csnetsup.obj
 0002:00067cf0       ?CSNetSup_InitClient@@YAXXZ 004b7cf0 f   Csnetsup.obj
 0002:00067f30       ?CSNetSup_InitDriver@@YAXXZ 004b7f30 f   Csnetsup.obj
 0002:00068110       ?CSNetSup_InitPktRec@@YAXXZ 004b8110 f   Csnetsup.obj
 0002:00068340       ?CSNetSup_Closedown@@YAXXZ 004b8340 f   Csnetsup.obj
 0002:000683f0       ?CSNetSup_CloseClient@@YAXXZ 004b83f0 f   Csnetsup.obj
 0002:000684b0       ?CSNetSup_CloseDriver@@YAXXZ 004b84b0 f   Csnetsup.obj
 0002:00068570       ?CSNetSup_ClosePktRec@@YAXXZ 004b8570 f   Csnetsup.obj
 0002:00068630       ?CSNetSup_NetSendDG@@YAHPBDPADH@Z 004b8630 f   Csnetsup.obj
 0002:00068750       ?CSNetSup_ReplaceNCB@@YAHPAU_NCB@@0@Z 004b8750 f   Csnetsup.obj
 0002:000688a0       ?CSNetSup_SendToClients@@YAXPADH_N@Z 004b88a0 f   Csnetsup.obj
 0002:00068930       ?CSNetSup_NetReset@@YAXXZ  004b8930 f   Csnetsup.obj
 0002:00068e90       ?CSParser_ParseCmd@@YAXPADH_N@Z 004b8e90 f   CSPARSER.obj
 0002:000693d0       ?CSProf_Init@@YAXXZ        004b93d0 f   Csprof.obj
 0002:0006bb10       ?CSProf_ReadWinPos@@YAXXZ  004bbb10 f   Csprof.obj
 0002:0006bc70       ?CSProf_WriteWinPos@@YAXJ@Z 004bbc70 f   Csprof.obj
 0002:0006bdf0       ?CSProf_DevCreate@@YAXHHHH@Z 004bbdf0 f   Csprof.obj
 0002:0006c3d0       ?CSProf_LoadRedundancyMaster@@YAXXZ 004bc3d0 f   Csprof.obj
 0002:0006d5a0       ?CSReg_Init@@YAXXZ         004bd5a0 f   Csreg.obj
 0002:0006d670       ?CSReg_Closedown@@YAXXZ    004bd670 f   Csreg.obj
 0002:0006d7b0       ?CSReg_AddClientDevReg@@YAXIJ@Z 004bd7b0 f   Csreg.obj
 0002:0006db30       ?CSReg_UnRegDevice@@YAXIJ@Z 004bdb30 f   Csreg.obj
 0002:0006dc30       ?CSReg_RemClientDevReg@@YAXIJ@Z 004bdc30 f   Csreg.obj
 0002:0006df80       ?CSReg_ClrClientDevReg@@YAXPAUHWND__@@H@Z 004bdf80 f   Csreg.obj
 0002:0006e1a0       ?CSReg_ClrClientAllDevReg@@YAXPAUHWND__@@@Z 004be1a0 f   Csreg.obj
 0002:0006e280       ?CSReg_RegClient@@YAHPAUHWND__@@E@Z 004be280 f   Csreg.obj
 0002:0006e570       ?CSReg_UnregClient@@YAXI@Z 004be570 f   Csreg.obj
 0002:0006e860       ?CSReg_GetClientRegIdx@@YAHPAUHWND__@@@Z 004be860 f   Csreg.obj
 0002:0006e8d0       ?CSReg_GetClientDevIdx@@YAHHH@Z 004be8d0 f   Csreg.obj
 0002:0006e960       ?CSReg_IsClientRegForDevIdx@@YAHHGG@Z 004be960 f   Csreg.obj
 0002:0006ea70       ?CSReg_UpdateClient@@YAXHGHPADHH@Z 004bea70 f   Csreg.obj
 0002:0006ec50       ?CSReg_CheckForClientName@@YAHPAD@Z 004bec50 f   Csreg.obj
 0002:0006edf0       ?CSReg_ShowClientTable@@YAXXZ 004bedf0 f   Csreg.obj
 0002:0006f090       ?CSReg_DistributeNetMsgUpdate@@YAXPAD@Z 004bf090 f   Csreg.obj
 0002:0006f310       ?CSReg_GetBottomWindow@@YAPAUHWND__@@XZ 004bf310 f   Csreg.obj
 0002:0006f3d0       ?CSReg_GetRegExtent@@YAJH@Z 004bf3d0 f   Csreg.obj
 0002:0006f5e0       ?CSReg_RegNetMsgUpdate@@YA_NPAUHWND__@@@Z 004bf5e0 f   Csreg.obj
 0002:0006f660       ?CSReg_UnregNetMsgUpdate@@YA_NPAUHWND__@@@Z 004bf660 f   Csreg.obj
 0002:0006f7e0       ?CSReg_RegNetTxRxStatus@@YA_NPAUHWND__@@@Z 004bf7e0 f   Csreg.obj
 0002:0006f860       ?CSReg_UnregNetTxRxStatus@@YA_NPAUHWND__@@@Z 004bf860 f   Csreg.obj
 0002:000702f0       ??$_Buynode@ABQAUHWND__@@@?$_List_buy@PAUHWND__@@V?$allocator@PAUHWND__@@@std@@@std@@QAEPAU?$_List_node@PAUHWND__@@PAX@1@PAU21@0ABQAUHWND__@@@Z 004c02f0 f i Csreg.obj
 0002:00070430       ??$_Insert@ABQAUHWND__@@@?$list@PAUHWND__@@V?$allocator@PAUHWND__@@@std@@@std@@QAEXV?$_List_unchecked_const_iterator@V?$_List_val@U?$_List_simple_types@PAUHWND__@@@std@@@std@@U_Iterator_base0@2@@1@ABQAUHWND__@@@Z 004c0430 f i Csreg.obj
 0002:00070500       ??$construct@PAUHWND__@@ABQAU1@@?$_Wrap_alloc@V?$allocator@U?$_List_node@PAUHWND__@@PAX@std@@@std@@@std@@QAEXPAPAUHWND__@@ABQAU2@@Z 004c0500 f i Csreg.obj
 0002:00070570       ??$construct@PAUHWND__@@ABQAU1@@?$allocator@U?$_List_node@PAUHWND__@@PAX@std@@@std@@QAEXPAPAUHWND__@@ABQAU2@@Z 004c0570 f i Csreg.obj
 0002:00070670       ??$construct@PAUHWND__@@ABQAU1@@?$allocator_traits@V?$allocator@U?$_List_node@PAUHWND__@@PAX@std@@@std@@@std@@SAXAAV?$allocator@U?$_List_node@PAUHWND__@@PAX@std@@@1@PAPAUHWND__@@ABQAU3@@Z 004c0670 f i Csreg.obj
 0002:000706d0       ??$forward@ABQAUHWND__@@@std@@YAABQAUHWND__@@ABQAU1@@Z 004c06d0 f i Csreg.obj
 0002:00070710       ?push_back@?$list@PAUHWND__@@V?$allocator@PAUHWND__@@@std@@@std@@QAEXABQAUHWND__@@@Z 004c0710 f i Csreg.obj
 0002:00070790       ?BNCSSendMessage@@YAJPAUHWND__@@0IIJHHHE@Z 004c0790 f   CSSNDMSG.obj
 0002:00070920       ?ODS@@YAXPAD@Z             004c0920 f   CSSUFU.obj
 0002:000709e0       ?ods@@YAXPBDZZ             004c09e0 f   CSSUFU.obj
 0002:00070ab0       ?OSM@@YAXPAD@Z             004c0ab0 f   CSSUFU.obj
 0002:00070af0       ?ODM@@YAXH@Z               004c0af0 f   CSSUFU.obj
 0002:00070bf0       ?GetArguments@@YAXPBDH@Z   004c0bf0 f   CSSUFU.obj
 0002:00070e20       ?FileExists@@YAHPAD@Z      004c0e20 f   CSSUFU.obj
 0002:00070ea0       ?FileIsNewer@@YAHPAD0@Z    004c0ea0 f   CSSUFU.obj
 0002:00071080       ?GetMaxMin@@YAXPADPAH1@Z   004c1080 f   CSSUFU.obj
 0002:00071290       ?Add_CRLF@@YAXPAD@Z        004c1290 f   CSSUFU.obj
 0002:00071300       ?RemoveWildcards@@YAXPAD@Z 004c1300 f   CSSUFU.obj
 0002:00071620       ??0deviceStatus@@QAE@H@Z   004c1620 f   deviceStatus.obj
 0002:000716c0       ?deviceUpdate@deviceStatus@@QAE_NHHH@Z 004c16c0 f   deviceStatus.obj
 0002:00071880       ?deviceRemove@deviceStatus@@QAE_NH@Z 004c1880 f   deviceStatus.obj
 0002:000719f0       ??1deviceStatus@@UAE@XZ    004c19f0 f   deviceStatus.obj
 0002:00071a80       ?status@deviceStatus@@QAEXAAV?$list@VdeviceStatusOnHost@@V?$allocator@VdeviceStatusOnHost@@@std@@@std@@@Z 004c1a80 f   deviceStatus.obj
 0002:00071bb0       ?decrementTimeout@deviceStatus@@QAE_NH@Z 004c1bb0 f   deviceStatus.obj
 0002:00071d70       ?hosts@deviceStatus@@QAEHXZ 004c1d70 f   deviceStatus.obj
 0002:00071dc0       ?device@deviceStatus@@QAEHXZ 004c1dc0 f   deviceStatus.obj
 0002:00071ff0       ??$?0AAHVdeviceStatusOnHost@@X@?$pair@HVdeviceStatusOnHost@@@std@@QAE@AAH$$QAVdeviceStatusOnHost@@@Z 004c1ff0 f i deviceStatus.obj
 0002:00072080       ??$?0AAV?$_Tree_iterator@V?$_Tree_val@U?$_Tree_simple_types@U?$pair@$$CBHVdeviceStatusOnHost@@@std@@@std@@@std@@@std@@_NX@?$pair@V?$_Tree_iterator@V?$_Tree_val@U?$_Tree_simple_types@U?$pair@$$CBHVdeviceStatusOnHost@@@std@@@std@@@std@@@std@@_N@std@@QAE@AAV?$_Tree_iterator@V?$_Tree_val@U?$_Tree_simple_types@U?$pair@$$CBHVdeviceStatusOnHost@@@std@@@std@@@std@@@1@$$QA_N@Z 004c2080 f i deviceStatus.obj
 0002:00072150       ??$?0HVdeviceStatusOnHost@@X@?$pair@$$CBHVdeviceStatusOnHost@@@std@@QAE@$$QAU?$pair@HVdeviceStatusOnHost@@@1@@Z 004c2150 f i deviceStatus.obj
 0002:000721f0       ??$?0U?$_Tree_node@U?$pair@$$CBHVdeviceStatusOnHost@@@std@@PAX@std@@@?$allocator@U_Container_proxy@std@@@std@@QAE@ABV?$allocator@U?$_Tree_node@U?$pair@$$CBHVdeviceStatusOnHost@@@std@@PAX@std@@@1@@Z 004c21f0 f i deviceStatus.obj
 0002:00072230       ??$?0U?$_Wrap_alloc@V?$allocator@U?$_Tree_node@U?$pair@$$CBHVdeviceStatusOnHost@@@std@@PAX@std@@@std@@@std@@@?$_Wrap_alloc@V?$allocator@U_Container_proxy@std@@@std@@@std@@QAE@ABU?$_Wrap_alloc@V?$allocator@U?$_Tree_node@U?$pair@$$CBHVdeviceStatusOnHost@@@std@@PAX@std@@@std@@@1@@Z 004c2230 f i deviceStatus.obj
 0002:00072290       ??$?0V?$_Tree_iterator@V?$_Tree_val@U?$_Tree_simple_types@U?$pair@$$CBHVdeviceStatusOnHost@@@std@@@std@@@std@@@std@@_NX@?$pair@V?$_Tree_iterator@V?$_Tree_val@U?$_Tree_simple_types@U?$pair@$$CBHVdeviceStatusOnHost@@@std@@@std@@@std@@@std@@_N@std@@QAE@$$QAV?$_Tree_iterator@V?$_Tree_val@U?$_Tree_simple_types@U?$pair@$$CBHVdeviceStatusOnHost@@@std@@@std@@@std@@@1@$$QA_N@Z 004c2290 f i deviceStatus.obj
 0002:00072360       ??$_Allocate@U?$_Tree_node@U?$pair@$$CBHVdeviceStatusOnHost@@@std@@PAX@std@@@std@@YAPAU?$_Tree_node@U?$pair@$$CBHVdeviceStatusOnHost@@@std@@PAX@0@IPAU10@@Z 004c2360 f i deviceStatus.obj
 0002:00072400       ??$_Buynode@ABVdeviceStatusOnHost@@@?$_List_buy@VdeviceStatusOnHost@@V?$allocator@VdeviceStatusOnHost@@@std@@@std@@QAEPAU?$_List_node@VdeviceStatusOnHost@@PAX@1@PAU21@0ABVdeviceStatusOnHost@@@Z 004c2400 f i deviceStatus.obj
 0002:00072540       ??$_Buynode@U?$pair@HVdeviceStatusOnHost@@@std@@@?$_Tree_buy@U?$pair@$$CBHVdeviceStatusOnHost@@@std@@V?$allocator@U?$pair@$$CBHVdeviceStatusOnHost@@@std@@@2@@std@@QAEPAU?$_Tree_node@U?$pair@$$CBHVdeviceStatusOnHost@@@std@@PAX@1@$$QAU?$pair@HVdeviceStatusOnHost@@@1@@Z 004c2540 f i deviceStatus.obj
 0002:00072680       ??$_Buynode_if_nil@AAU?$pair@$$CBHVdeviceStatusOnHost@@@std@@@?$_Tree@V?$_Tmap_traits@HVdeviceStatusOnHost@@U?$less@H@std@@V?$allocator@U?$pair@$$CBHVdeviceStatusOnHost@@@std@@@3@$0A@@std@@@std@@IAEPAU?$_Tree_node@U?$pair@$$CBHVdeviceStatusOnHost@@@std@@PAX@1@PAU21@AAU?$pair@$$CBHVdeviceStatusOnHost@@@1@@Z 004c2680 f i deviceStatus.obj
 0002:000726c0       ??$_Insert@ABVdeviceStatusOnHost@@@?$list@VdeviceStatusOnHost@@V?$allocator@VdeviceStatusOnHost@@@std@@@std@@QAEXV?$_List_unchecked_const_iterator@V?$_List_val@U?$_List_simple_types@VdeviceStatusOnHost@@@std@@@std@@U_Iterator_base0@2@@1@ABVdeviceStatusOnHost@@@Z 004c26c0 f i deviceStatus.obj
 0002:00072790       ??$_Insert_at@AAU?$pair@$$CBHVdeviceStatusOnHost@@@std@@PAU?$_Tree_node@U?$pair@$$CBHVdeviceStatusOnHost@@@std@@PAX@2@@?$_Tree@V?$_Tmap_traits@HVdeviceStatusOnHost@@U?$less@H@std@@V?$allocator@U?$pair@$$CBHVdeviceStatusOnHost@@@std@@@3@$0A@@std@@@std@@IAE?AV?$_Tree_iterator@V?$_Tree_val@U?$_Tree_simple_types@U?$pair@$$CBHVdeviceStatusOnHost@@@std@@@std@@@std@@@1@_NPAU?$_Tree_node@U?$pair@$$CBHVdeviceStatusOnHost@@@std@@PAX@1@AAU?$pair@$$CBHVdeviceStatusOnHost@@@1@1@Z 004c2790 f i deviceStatus.obj
 0002:00072d60       ??$_Insert_nohint@AAU?$pair@$$CBHVdeviceStatusOnHost@@@std@@PAU?$_Tree_node@U?$pair@$$CBHVdeviceStatusOnHost@@@std@@PAX@2@@?$_Tree@V?$_Tmap_traits@HVdeviceStatusOnHost@@U?$less@H@std@@V?$allocator@U?$pair@$$CBHVdeviceStatusOnHost@@@std@@@3@$0A@@std@@@std@@IAE?AU?$pair@V?$_Tree_iterator@V?$_Tree_val@U?$_Tree_simple_types@U?$pair@$$CBHVdeviceStatusOnHost@@@std@@@std@@@std@@@std@@_N@1@_NAAU?$pair@$$CBHVdeviceStatusOnHost@@@1@PAU?$_Tree_node@U?$pair@$$CBHVdeviceStatusOnHost@@@std@@PAX@1@@Z 004c2d60 f i deviceStatus.obj
 0002:00073370       ??$_Kfn@$$CBHVdeviceStatusOnHost@@@?$_Tmap_traits@HVdeviceStatusOnHost@@U?$less@H@std@@V?$allocator@U?$pair@$$CBHVdeviceStatusOnHost@@@std@@@3@$0A@@std@@SAABHABU?$pair@$$CBHVdeviceStatusOnHost@@@1@@Z 004c3370 f i deviceStatus.obj
 0002:000733b0       ??$addressof@PAU?$_Tree_node@U?$pair@$$CBHVdeviceStatusOnHost@@@std@@PAX@std@@@std@@YAPAPAU?$_Tree_node@U?$pair@$$CBHVdeviceStatusOnHost@@@std@@PAX@0@AAPAU10@@Z 004c33b0 f i deviceStatus.obj
 0002:000733f0       ??$addressof@U?$pair@$$CBHVdeviceStatusOnHost@@@std@@@std@@YAPAU?$pair@$$CBHVdeviceStatusOnHost@@@0@AAU10@@Z 004c33f0 f i deviceStatus.obj
 0002:00073430       ??$construct@PAU?$_Tree_node@U?$pair@$$CBHVdeviceStatusOnHost@@@std@@PAX@std@@AAPAU12@@?$_Wrap_alloc@V?$allocator@U?$_Tree_node@U?$pair@$$CBHVdeviceStatusOnHost@@@std@@PAX@std@@@std@@@std@@QAEXPAPAU?$_Tree_node@U?$pair@$$CBHVdeviceStatusOnHost@@@std@@PAX@1@AAPAU21@@Z 004c3430 f i deviceStatus.obj
 0002:000734a0       ??$construct@PAU?$_Tree_node@U?$pair@$$CBHVdeviceStatusOnHost@@@std@@PAX@std@@AAPAU12@@?$allocator@U?$_Tree_node@U?$pair@$$CBHVdeviceStatusOnHost@@@std@@PAX@std@@@std@@QAEXPAPAU?$_Tree_node@U?$pair@$$CBHVdeviceStatusOnHost@@@std@@PAX@1@AAPAU21@@Z 004c34a0 f i deviceStatus.obj
 0002:000735a0       ??$construct@PAU?$_Tree_node@U?$pair@$$CBHVdeviceStatusOnHost@@@std@@PAX@std@@AAPAU12@@?$allocator_traits@V?$allocator@U?$_Tree_node@U?$pair@$$CBHVdeviceStatusOnHost@@@std@@PAX@std@@@std@@@std@@SAXAAV?$allocator@U?$_Tree_node@U?$pair@$$CBHVdeviceStatusOnHost@@@std@@PAX@std@@@1@PAPAU?$_Tree_node@U?$pair@$$CBHVdeviceStatusOnHost@@@std@@PAX@1@AAPAU31@@Z 004c35a0 f i deviceStatus.obj
 0002:00073600       ??$construct@U?$pair@$$CBHVdeviceStatusOnHost@@@std@@U?$pair@HVdeviceStatusOnHost@@@2@@?$_Wrap_alloc@V?$allocator@U?$_Tree_node@U?$pair@$$CBHVdeviceStatusOnHost@@@std@@PAX@std@@@std@@@std@@QAEXPAU?$pair@$$CBHVdeviceStatusOnHost@@@1@$$QAU?$pair@HVdeviceStatusOnHost@@@1@@Z 004c3600 f i deviceStatus.obj
 0002:00073670       ??$construct@U?$pair@$$CBHVdeviceStatusOnHost@@@std@@U?$pair@HVdeviceStatusOnHost@@@2@@?$allocator@U?$_Tree_node@U?$pair@$$CBHVdeviceStatusOnHost@@@std@@PAX@std@@@std@@QAEXPAU?$pair@$$CBHVdeviceStatusOnHost@@@1@$$QAU?$pair@HVdeviceStatusOnHost@@@1@@Z 004c3670 f i deviceStatus.obj
 0002:00073770       ??$construct@U?$pair@$$CBHVdeviceStatusOnHost@@@std@@U?$pair@HVdeviceStatusOnHost@@@2@@?$allocator_traits@V?$allocator@U?$_Tree_node@U?$pair@$$CBHVdeviceStatusOnHost@@@std@@PAX@std@@@std@@@std@@SAXAAV?$allocator@U?$_Tree_node@U?$pair@$$CBHVdeviceStatusOnHost@@@std@@PAX@std@@@1@PAU?$pair@$$CBHVdeviceStatusOnHost@@@1@$$QAU?$pair@HVdeviceStatusOnHost@@@1@@Z 004c3770 f i deviceStatus.obj
 0002:000737d0       ??$construct@VdeviceStatusOnHost@@ABV1@@?$_Wrap_alloc@V?$allocator@U?$_List_node@VdeviceStatusOnHost@@PAX@std@@@std@@@std@@QAEXPAVdeviceStatusOnHost@@ABV2@@Z 004c37d0 f i deviceStatus.obj
 0002:00073840       ??$construct@VdeviceStatusOnHost@@ABV1@@?$allocator@U?$_List_node@VdeviceStatusOnHost@@PAX@std@@@std@@QAEXPAVdeviceStatusOnHost@@ABV2@@Z 004c3840 f i deviceStatus.obj
 0002:00073950       ??$construct@VdeviceStatusOnHost@@ABV1@@?$allocator_traits@V?$allocator@U?$_List_node@VdeviceStatusOnHost@@PAX@std@@@std@@@std@@SAXAAV?$allocator@U?$_List_node@VdeviceStatusOnHost@@PAX@std@@@1@PAVdeviceStatusOnHost@@ABV3@@Z 004c3950 f i deviceStatus.obj
 0002:000739b0       ??$destroy@PAU?$_Tree_node@U?$pair@$$CBHVdeviceStatusOnHost@@@std@@PAX@std@@@?$_Wrap_alloc@V?$allocator@U?$_Tree_node@U?$pair@$$CBHVdeviceStatusOnHost@@@std@@PAX@std@@@std@@@std@@QAEXPAPAU?$_Tree_node@U?$pair@$$CBHVdeviceStatusOnHost@@@std@@PAX@1@@Z 004c39b0 f i deviceStatus.obj
 0002:00073a10       ??$destroy@PAU?$_Tree_node@U?$pair@$$CBHVdeviceStatusOnHost@@@std@@PAX@std@@@?$allocator@U?$_Tree_node@U?$pair@$$CBHVdeviceStatusOnHost@@@std@@PAX@std@@@std@@QAEXPAPAU?$_Tree_node@U?$pair@$$CBHVdeviceStatusOnHost@@@std@@PAX@1@@Z 004c3a10 f i deviceStatus.obj
 0002:00073a50       ??$destroy@PAU?$_Tree_node@U?$pair@$$CBHVdeviceStatusOnHost@@@std@@PAX@std@@@?$allocator_traits@V?$allocator@U?$_Tree_node@U?$pair@$$CBHVdeviceStatusOnHost@@@std@@PAX@std@@@std@@@std@@SAXAAV?$allocator@U?$_Tree_node@U?$pair@$$CBHVdeviceStatusOnHost@@@std@@PAX@std@@@1@PAPAU?$_Tree_node@U?$pair@$$CBHVdeviceStatusOnHost@@@std@@PAX@1@@Z 004c3a50 f i deviceStatus.obj
 0002:00073aa0       ??$destroy@U?$pair@$$CBHVdeviceStatusOnHost@@@std@@@?$_Wrap_alloc@V?$allocator@U?$_Tree_node@U?$pair@$$CBHVdeviceStatusOnHost@@@std@@PAX@std@@@std@@@std@@QAEXPAU?$pair@$$CBHVdeviceStatusOnHost@@@1@@Z 004c3aa0 f i deviceStatus.obj
 0002:00073b00       ??$destroy@U?$pair@$$CBHVdeviceStatusOnHost@@@std@@@?$allocator@U?$_Tree_node@U?$pair@$$CBHVdeviceStatusOnHost@@@std@@PAX@std@@@std@@QAEXPAU?$pair@$$CBHVdeviceStatusOnHost@@@1@@Z 004c3b00 f i deviceStatus.obj
 0002:00073b40       ??$destroy@U?$pair@$$CBHVdeviceStatusOnHost@@@std@@@?$allocator_traits@V?$allocator@U?$_Tree_node@U?$pair@$$CBHVdeviceStatusOnHost@@@std@@PAX@std@@@std@@@std@@SAXAAV?$allocator@U?$_Tree_node@U?$pair@$$CBHVdeviceStatusOnHost@@@std@@PAX@std@@@1@PAU?$pair@$$CBHVdeviceStatusOnHost@@@1@@Z 004c3b40 f i deviceStatus.obj
 0002:00073b90       ??$forward@AAPAU?$_Tree_node@U?$pair@$$CBHVdeviceStatusOnHost@@@std@@PAX@std@@@std@@YAAAPAU?$_Tree_node@U?$pair@$$CBHVdeviceStatusOnHost@@@std@@PAX@0@AAPAU10@@Z 004c3b90 f i deviceStatus.obj
 0002:00073bd0       ??$forward@AAU?$pair@$$CBHVdeviceStatusOnHost@@@std@@@std@@YAAAU?$pair@$$CBHVdeviceStatusOnHost@@@0@AAU10@@Z 004c3bd0 f i deviceStatus.obj
 0002:00073c10       ??$forward@AAV?$_Tree_iterator@V?$_Tree_val@U?$_Tree_simple_types@U?$pair@$$CBHVdeviceStatusOnHost@@@std@@@std@@@std@@@std@@@std@@YAAAV?$_Tree_iterator@V?$_Tree_val@U?$_Tree_simple_types@U?$pair@$$CBHVdeviceStatusOnHost@@@std@@@std@@@std@@@0@AAV10@@Z 004c3c10 f i deviceStatus.obj
 0002:00073c50       ??$forward@ABVdeviceStatusOnHost@@@std@@YAABVdeviceStatusOnHost@@ABV1@@Z 004c3c50 f i deviceStatus.obj
 0002:00073c90       ??$forward@U?$pair@HVdeviceStatusOnHost@@@std@@@std@@YA$$QAU?$pair@HVdeviceStatusOnHost@@@0@AAU10@@Z 004c3c90 f i deviceStatus.obj
 0002:00073cd0       ??$forward@V?$_Tree_iterator@V?$_Tree_val@U?$_Tree_simple_types@U?$pair@$$CBHVdeviceStatusOnHost@@@std@@@std@@@std@@@std@@@std@@YA$$QAV?$_Tree_iterator@V?$_Tree_val@U?$_Tree_simple_types@U?$pair@$$CBHVdeviceStatusOnHost@@@std@@@std@@@std@@@0@AAV10@@Z 004c3cd0 f i deviceStatus.obj
 0002:00073d10       ??$forward@VdeviceStatusOnHost@@@std@@YA$$QAVdeviceStatusOnHost@@AAV1@@Z 004c3d10 f i deviceStatus.obj
 0002:00073d50       ??$insert@U?$pair@HVdeviceStatusOnHost@@@std@@@?$_Tree@V?$_Tmap_traits@HVdeviceStatusOnHost@@U?$less@H@std@@V?$allocator@U?$pair@$$CBHVdeviceStatusOnHost@@@std@@@3@$0A@@std@@@std@@QAE?AU?$pair@V?$_Tree_iterator@V?$_Tree_val@U?$_Tree_simple_types@U?$pair@$$CBHVdeviceStatusOnHost@@@std@@@std@@@std@@@std@@_N@1@$$QAU?$pair@HVdeviceStatusOnHost@@@1@@Z 004c3d50 f i deviceStatus.obj
 0002:00073e40       ??$make_pair@AAHVdeviceStatusOnHost@@@std@@YA?AU?$pair@HVdeviceStatusOnHost@@@0@AAH$$QAVdeviceStatusOnHost@@@Z 004c3e40 f i deviceStatus.obj
 0002:00073eb0       ??0?$_Iterator012@Ubidirectional_iterator_tag@std@@U?$pair@$$CBHVdeviceStatusOnHost@@@2@HPBU32@ABU32@U_Iterator_base12@2@@std@@QAE@ABU01@@Z 004c3eb0 f i deviceStatus.obj
 0002:00073f50       ??0?$_Iterator012@Ubidirectional_iterator_tag@std@@U?$pair@$$CBHVdeviceStatusOnHost@@@2@HPBU32@ABU32@U_Iterator_base12@2@@std@@QAE@XZ 004c3f50 f i deviceStatus.obj
 0002:00073ff0       ??0?$_List_unchecked_const_iterator@V?$_List_val@U?$_List_simple_types@VdeviceStatusOnHost@@@std@@@std@@U_Iterator_base0@2@@std@@QAE@PAU?$_List_node@VdeviceStatusOnHost@@PAX@1@PBV?$_List_val@U?$_List_simple_types@VdeviceStatusOnHost@@@std@@@1@@Z 004c3ff0 f i deviceStatus.obj
 0002:00074060       ??0?$_List_unchecked_iterator@V?$_List_val@U?$_List_simple_types@VdeviceStatusOnHost@@@std@@@std@@@std@@QAE@PAU?$_List_node@VdeviceStatusOnHost@@PAX@1@PBV?$_List_val@U?$_List_simple_types@VdeviceStatusOnHost@@@std@@@1@@Z 004c4060 f i deviceStatus.obj
 0002:000740c0       ??0?$_Tree@V?$_Tmap_traits@HVdeviceStatusOnHost@@U?$less@H@std@@V?$allocator@U?$pair@$$CBHVdeviceStatusOnHost@@@std@@@3@$0A@@std@@@std@@QAE@ABU?$less@H@1@ABV?$allocator@U?$pair@$$CBHVdeviceStatusOnHost@@@std@@@1@@Z 004c40c0 f i deviceStatus.obj
 0002:00074170       ??0?$_Tree_alloc@$0A@U?$_Tree_base_types@U?$pair@$$CBHVdeviceStatusOnHost@@@std@@V?$allocator@U?$pair@$$CBHVdeviceStatusOnHost@@@std@@@2@@std@@@std@@QAE@ABV?$allocator@U?$pair@$$CBHVdeviceStatusOnHost@@@std@@@1@@Z 004c4170 f i deviceStatus.obj
 0002:00074270       ??0?$_Tree_buy@U?$pair@$$CBHVdeviceStatusOnHost@@@std@@V?$allocator@U?$pair@$$CBHVdeviceStatusOnHost@@@std@@@2@@std@@QAE@ABV?$allocator@U?$pair@$$CBHVdeviceStatusOnHost@@@std@@@1@@Z 004c4270 f i deviceStatus.obj
 0002:00074310       ??0?$_Tree_comp@$0A@V?$_Tmap_traits@HVdeviceStatusOnHost@@U?$less@H@std@@V?$allocator@U?$pair@$$CBHVdeviceStatusOnHost@@@std@@@3@$0A@@std@@@std@@QAE@ABU?$less@H@1@ABV?$allocator@U?$pair@$$CBHVdeviceStatusOnHost@@@std@@@1@@Z 004c4310 f i deviceStatus.obj
 0002:000743b0       ??0?$_Tree_const_iterator@V?$_Tree_val@U?$_Tree_simple_types@U?$pair@$$CBHVdeviceStatusOnHost@@@std@@@std@@@std@@@std@@QAE@ABV01@@Z 004c43b0 f i deviceStatus.obj
 0002:00074450       ??0?$_Tree_const_iterator@V?$_Tree_val@U?$_Tree_simple_types@U?$pair@$$CBHVdeviceStatusOnHost@@@std@@@std@@@std@@@std@@QAE@PAU?$_Tree_node@U?$pair@$$CBHVdeviceStatusOnHost@@@std@@PAX@1@PBV?$_Tree_val@U?$_Tree_simple_types@U?$pair@$$CBHVdeviceStatusOnHost@@@std@@@std@@@1@@Z 004c4450 f i deviceStatus.obj
 0002:00074500       ??0?$_Tree_iterator@V?$_Tree_val@U?$_Tree_simple_types@U?$pair@$$CBHVdeviceStatusOnHost@@@std@@@std@@@std@@@std@@QAE@ABV01@@Z 004c4500 f i deviceStatus.obj
 0002:000745a0       ??0?$_Tree_iterator@V?$_Tree_val@U?$_Tree_simple_types@U?$pair@$$CBHVdeviceStatusOnHost@@@std@@@std@@@std@@@std@@QAE@PAU?$_Tree_node@U?$pair@$$CBHVdeviceStatusOnHost@@@std@@PAX@1@PBV?$_Tree_val@U?$_Tree_simple_types@U?$pair@$$CBHVdeviceStatusOnHost@@@std@@@std@@@1@@Z 004c45a0 f i deviceStatus.obj
 0002:00074650       ??0?$_Tree_unchecked_const_iterator@V?$_Tree_val@U?$_Tree_simple_types@U?$pair@$$CBHVdeviceStatusOnHost@@@std@@@std@@@std@@U_Iterator_base12@2@@std@@QAE@ABV01@@Z 004c4650 f i deviceStatus.obj
 0002:00074700       ??0?$_Tree_unchecked_const_iterator@V?$_Tree_val@U?$_Tree_simple_types@U?$pair@$$CBHVdeviceStatusOnHost@@@std@@@std@@@std@@U_Iterator_base12@2@@std@@QAE@PAU?$_Tree_node@U?$pair@$$CBHVdeviceStatusOnHost@@@std@@PAX@1@PBV?$_Tree_val@U?$_Tree_simple_types@U?$pair@$$CBHVdeviceStatusOnHost@@@std@@@std@@@1@@Z 004c4700 f i deviceStatus.obj
 0002:000747c0       ??0?$_Tree_val@U?$_Tree_simple_types@U?$pair@$$CBHVdeviceStatusOnHost@@@std@@@std@@@std@@QAE@XZ 004c47c0 f i deviceStatus.obj
 0002:00074880       ??0?$_Wrap_alloc@V?$allocator@U?$_Tree_node@U?$pair@$$CBHVdeviceStatusOnHost@@@std@@PAX@std@@@std@@@std@@QAE@XZ 004c4880 f i deviceStatus.obj
 0002:000748e0       ??0?$allocator@U?$_Tree_node@U?$pair@$$CBHVdeviceStatusOnHost@@@std@@PAX@std@@@std@@QAE@XZ 004c48e0 f i deviceStatus.obj
 0002:00074920       ??0?$allocator@U?$pair@$$CBHVdeviceStatusOnHost@@@std@@@std@@QAE@XZ 004c4920 f i deviceStatus.obj
 0002:00074960       ??0?$map@HVdeviceStatusOnHost@@U?$less@H@std@@V?$allocator@U?$pair@$$CBHVdeviceStatusOnHost@@@std@@@3@@std@@QAE@XZ 004c4960 f i deviceStatus.obj
 0002:00074a10       ??0deviceStatusOnHost@@QAE@HHH@Z 004c4a10 f i deviceStatus.obj
 0002:00074a70       ??1?$_Iterator012@Ubidirectional_iterator_tag@std@@U?$pair@$$CBHVdeviceStatusOnHost@@@2@HPBU32@ABU32@U_Iterator_base12@2@@std@@QAE@XZ 004c4a70 f i deviceStatus.obj
 0002:00074b10       ??1?$_Tree@V?$_Tmap_traits@HVdeviceStatusOnHost@@U?$less@H@std@@V?$allocator@U?$pair@$$CBHVdeviceStatusOnHost@@@std@@@3@$0A@@std@@@std@@QAE@XZ 004c4b10 f i deviceStatus.obj
 0002:00074bb0       ??1?$_Tree_alloc@$0A@U?$_Tree_base_types@U?$pair@$$CBHVdeviceStatusOnHost@@@std@@V?$allocator@U?$pair@$$CBHVdeviceStatusOnHost@@@std@@@2@@std@@@std@@QAE@XZ 004c4bb0 f i deviceStatus.obj
 0002:00074c70       ??1?$_Tree_buy@U?$pair@$$CBHVdeviceStatusOnHost@@@std@@V?$allocator@U?$pair@$$CBHVdeviceStatusOnHost@@@std@@@2@@std@@QAE@XZ 004c4c70 f i deviceStatus.obj
 0002:00074d10       ??1?$_Tree_comp@$0A@V?$_Tmap_traits@HVdeviceStatusOnHost@@U?$less@H@std@@V?$allocator@U?$pair@$$CBHVdeviceStatusOnHost@@@std@@@3@$0A@@std@@@std@@QAE@XZ 004c4d10 f i deviceStatus.obj
 0002:00074db0       ??1?$_Tree_const_iterator@V?$_Tree_val@U?$_Tree_simple_types@U?$pair@$$CBHVdeviceStatusOnHost@@@std@@@std@@@std@@@std@@QAE@XZ 004c4db0 f i deviceStatus.obj
 0002:00074e50       ??1?$_Tree_iterator@V?$_Tree_val@U?$_Tree_simple_types@U?$pair@$$CBHVdeviceStatusOnHost@@@std@@@std@@@std@@@std@@QAE@XZ 004c4e50 f i deviceStatus.obj
 0002:00074ef0       ??1?$_Tree_unchecked_const_iterator@V?$_Tree_val@U?$_Tree_simple_types@U?$pair@$$CBHVdeviceStatusOnHost@@@std@@@std@@@std@@U_Iterator_base12@2@@std@@QAE@XZ 004c4ef0 f i deviceStatus.obj
 0002:00074f90       ??1?$_Tree_val@U?$_Tree_simple_types@U?$pair@$$CBHVdeviceStatusOnHost@@@std@@@std@@@std@@QAE@XZ 004c4f90 f i deviceStatus.obj
 0002:00075040       ??1?$map@HVdeviceStatusOnHost@@U?$less@H@std@@V?$allocator@U?$pair@$$CBHVdeviceStatusOnHost@@@std@@@3@@std@@QAE@XZ 004c5040 f i deviceStatus.obj
 0002:000750e0       ??1?$pair@V?$_Tree_iterator@V?$_Tree_val@U?$_Tree_simple_types@U?$pair@$$CBHVdeviceStatusOnHost@@@std@@@std@@@std@@@std@@_N@std@@QAE@XZ 004c50e0 f i deviceStatus.obj
 0002:00075180       ??4?$_Iterator012@Ubidirectional_iterator_tag@std@@U?$pair@$$CBHVdeviceStatusOnHost@@@2@HPBU32@ABU32@U_Iterator_base12@2@@std@@QAEAAU01@ABU01@@Z 004c5180 f i deviceStatus.obj
 0002:000751e0       ??4?$_Tree_const_iterator@V?$_Tree_val@U?$_Tree_simple_types@U?$pair@$$CBHVdeviceStatusOnHost@@@std@@@std@@@std@@@std@@QAEAAV01@ABV01@@Z 004c51e0 f i deviceStatus.obj
 0002:00075240       ??4?$_Tree_iterator@V?$_Tree_val@U?$_Tree_simple_types@U?$pair@$$CBHVdeviceStatusOnHost@@@std@@@std@@@std@@@std@@QAEAAV01@ABV01@@Z 004c5240 f i deviceStatus.obj
 0002:000752a0       ??4?$_Tree_unchecked_const_iterator@V?$_Tree_val@U?$_Tree_simple_types@U?$pair@$$CBHVdeviceStatusOnHost@@@std@@@std@@@std@@U_Iterator_base12@2@@std@@QAEAAV01@ABV01@@Z 004c52a0 f i deviceStatus.obj
 0002:00075310       ??8?$_Tree_const_iterator@V?$_Tree_val@U?$_Tree_simple_types@U?$pair@$$CBHVdeviceStatusOnHost@@@std@@@std@@@std@@@std@@QBE_NABV01@@Z 004c5310 f i deviceStatus.obj
 0002:00075470       ??9?$_Tree_const_iterator@V?$_Tree_val@U?$_Tree_simple_types@U?$pair@$$CBHVdeviceStatusOnHost@@@std@@@std@@@std@@@std@@QBE_NABV01@@Z 004c5470 f i deviceStatus.obj
 0002:00075500       ??C?$_Tree_iterator@V?$_Tree_val@U?$_Tree_simple_types@U?$pair@$$CBHVdeviceStatusOnHost@@@std@@@std@@@std@@@std@@QBEPAU?$pair@$$CBHVdeviceStatusOnHost@@@1@XZ 004c5500 f i deviceStatus.obj
 0002:00075560       ??D?$_Tree_const_iterator@V?$_Tree_val@U?$_Tree_simple_types@U?$pair@$$CBHVdeviceStatusOnHost@@@std@@@std@@@std@@@std@@QBEABU?$pair@$$CBHVdeviceStatusOnHost@@@1@XZ 004c5560 f i deviceStatus.obj
 0002:000756a0       ??D?$_Tree_iterator@V?$_Tree_val@U?$_Tree_simple_types@U?$pair@$$CBHVdeviceStatusOnHost@@@std@@@std@@@std@@@std@@QBEAAU?$pair@$$CBHVdeviceStatusOnHost@@@1@XZ 004c56a0 f i deviceStatus.obj
 0002:000756f0       ??E?$_Tree_const_iterator@V?$_Tree_val@U?$_Tree_simple_types@U?$pair@$$CBHVdeviceStatusOnHost@@@std@@@std@@@std@@@std@@QAE?AV01@H@Z 004c56f0 f i deviceStatus.obj
 0002:00075810       ??E?$_Tree_const_iterator@V?$_Tree_val@U?$_Tree_simple_types@U?$pair@$$CBHVdeviceStatusOnHost@@@std@@@std@@@std@@@std@@QAEAAV01@XZ 004c5810 f i deviceStatus.obj
 0002:00075950       ??E?$_Tree_iterator@V?$_Tree_val@U?$_Tree_simple_types@U?$pair@$$CBHVdeviceStatusOnHost@@@std@@@std@@@std@@@std@@QAEAAV01@XZ 004c5950 f i deviceStatus.obj
 0002:000759b0       ??E?$_Tree_unchecked_const_iterator@V?$_Tree_val@U?$_Tree_simple_types@U?$pair@$$CBHVdeviceStatusOnHost@@@std@@@std@@@std@@U_Iterator_base12@2@@std@@QAEAAV01@XZ 004c59b0 f i deviceStatus.obj
 0002:00075ae0       ??F?$_Tree_const_iterator@V?$_Tree_val@U?$_Tree_simple_types@U?$pair@$$CBHVdeviceStatusOnHost@@@std@@@std@@@std@@@std@@QAEAAV01@XZ 004c5ae0 f i deviceStatus.obj
 0002:00075cc0       ??F?$_Tree_iterator@V?$_Tree_val@U?$_Tree_simple_types@U?$pair@$$CBHVdeviceStatusOnHost@@@std@@@std@@@std@@@std@@QAEAAV01@XZ 004c5cc0 f i deviceStatus.obj
 0002:00075d20       ??F?$_Tree_unchecked_const_iterator@V?$_Tree_val@U?$_Tree_simple_types@U?$pair@$$CBHVdeviceStatusOnHost@@@std@@@std@@@std@@U_Iterator_base12@2@@std@@QAEAAV01@XZ 004c5d20 f i deviceStatus.obj
 0002:00075e80       ??_GdeviceStatus@@UAEPAXI@Z 004c5e80 f i deviceStatus.obj
 0002:00075e80       ??_EdeviceStatus@@UAEPAXI@Z 004c5e80 f i deviceStatus.obj
 0002:00075ef0       ?_Alloc_proxy@?$_Tree_alloc@$0A@U?$_Tree_base_types@U?$pair@$$CBHVdeviceStatusOnHost@@@std@@V?$allocator@U?$pair@$$CBHVdeviceStatusOnHost@@@std@@@2@@std@@@std@@QAEXXZ 004c5ef0 f i deviceStatus.obj
 0002:00075fd0       ?_Buyheadnode@?$_Tree_alloc@$0A@U?$_Tree_base_types@U?$pair@$$CBHVdeviceStatusOnHost@@@std@@V?$allocator@U?$pair@$$CBHVdeviceStatusOnHost@@@std@@@2@@std@@@std@@QAEPAU?$_Tree_node@U?$pair@$$CBHVdeviceStatusOnHost@@@std@@PAX@2@XZ 004c5fd0 f i deviceStatus.obj
 0002:000761e0       ?_Buynode0@?$_Tree_buy@U?$pair@$$CBHVdeviceStatusOnHost@@@std@@V?$allocator@U?$pair@$$CBHVdeviceStatusOnHost@@@std@@@2@@std@@QAEPAU?$_Tree_node@U?$pair@$$CBHVdeviceStatusOnHost@@@std@@PAX@2@XZ 004c61e0 f i deviceStatus.obj
 0002:000763a0       ?_Color@?$_Tree_val@U?$_Tree_simple_types@U?$pair@$$CBHVdeviceStatusOnHost@@@std@@@std@@@std@@SAAADPAU?$_Tree_node@U?$pair@$$CBHVdeviceStatusOnHost@@@std@@PAX@2@@Z 004c63a0 f i deviceStatus.obj
 0002:000763e0       ?_Destroy_if_not_nil@?$_Tree@V?$_Tmap_traits@HVdeviceStatusOnHost@@U?$less@H@std@@V?$allocator@U?$pair@$$CBHVdeviceStatusOnHost@@@std@@@3@$0A@@std@@@std@@IAEXPAU?$_Tree_node@U?$pair@$$CBHVdeviceStatusOnHost@@@std@@PAX@2@@Z 004c63e0 f i deviceStatus.obj
 0002:00076490       ?_Erase@?$_Tree@V?$_Tmap_traits@HVdeviceStatusOnHost@@U?$less@H@std@@V?$allocator@U?$pair@$$CBHVdeviceStatusOnHost@@@std@@@3@$0A@@std@@@std@@IAEXPAU?$_Tree_node@U?$pair@$$CBHVdeviceStatusOnHost@@@std@@PAX@2@@Z 004c6490 f i deviceStatus.obj
 0002:000765a0       ?_Free_proxy@?$_Tree_alloc@$0A@U?$_Tree_base_types@U?$pair@$$CBHVdeviceStatusOnHost@@@std@@V?$allocator@U?$pair@$$CBHVdeviceStatusOnHost@@@std@@@2@@std@@@std@@QAEXXZ 004c65a0 f i deviceStatus.obj
 0002:00076690       ?_Freeheadnode@?$_Tree_alloc@$0A@U?$_Tree_base_types@U?$pair@$$CBHVdeviceStatusOnHost@@@std@@V?$allocator@U?$pair@$$CBHVdeviceStatusOnHost@@@std@@@2@@std@@@std@@QAEXPAU?$_Tree_node@U?$pair@$$CBHVdeviceStatusOnHost@@@std@@PAX@2@@Z 004c6690 f i deviceStatus.obj
 0002:000767a0       ?_Freenode0@?$_Tree_buy@U?$pair@$$CBHVdeviceStatusOnHost@@@std@@V?$allocator@U?$pair@$$CBHVdeviceStatusOnHost@@@std@@@2@@std@@QAEXPAU?$_Tree_node@U?$pair@$$CBHVdeviceStatusOnHost@@@std@@PAX@2@@Z 004c67a0 f i deviceStatus.obj
 0002:000768b0       ?_Getal@?$_Tree_alloc@$0A@U?$_Tree_base_types@U?$pair@$$CBHVdeviceStatusOnHost@@@std@@V?$allocator@U?$pair@$$CBHVdeviceStatusOnHost@@@std@@@2@@std@@@std@@QBE?AU?$_Wrap_alloc@V?$allocator@U?$_Tree_node@U?$pair@$$CBHVdeviceStatusOnHost@@@std@@PAX@std@@@std@@@2@XZ 004c68b0 f i deviceStatus.obj
 0002:00076910       ?_Getcomp@?$_Tree_comp@$0A@V?$_Tmap_traits@HVdeviceStatusOnHost@@U?$less@H@std@@V?$allocator@U?$pair@$$CBHVdeviceStatusOnHost@@@std@@@3@$0A@@std@@@std@@QBE?AU?$less@H@2@XZ 004c6910 f i deviceStatus.obj
 0002:00076950       ?_Incsize@?$list@VdeviceStatusOnHost@@V?$allocator@VdeviceStatusOnHost@@@std@@@std@@QAEXI@Z 004c6950 f i deviceStatus.obj
 0002:000769e0       ?_Isnil@?$_Tree_val@U?$_Tree_simple_types@U?$pair@$$CBHVdeviceStatusOnHost@@@std@@@std@@@std@@SAAADPAU?$_Tree_node@U?$pair@$$CBHVdeviceStatusOnHost@@@std@@PAX@2@@Z 004c69e0 f i deviceStatus.obj
 0002:00076a20       ?_Key@?$_Tree@V?$_Tmap_traits@HVdeviceStatusOnHost@@U?$less@H@std@@V?$allocator@U?$pair@$$CBHVdeviceStatusOnHost@@@std@@@3@$0A@@std@@@std@@IBEABHPAU?$_Tree_node@U?$pair@$$CBHVdeviceStatusOnHost@@@std@@PAX@2@@Z 004c6a20 f i deviceStatus.obj
 0002:00076a90       ?_Kfn@?$_Tree@V?$_Tmap_traits@HVdeviceStatusOnHost@@U?$less@H@std@@V?$allocator@U?$pair@$$CBHVdeviceStatusOnHost@@@std@@@3@$0A@@std@@@std@@IBEABHABU?$pair@$$CBHVdeviceStatusOnHost@@@2@@Z 004c6a90 f i deviceStatus.obj
 0002:00076af0       ?_Lbound@?$_Tree@V?$_Tmap_traits@HVdeviceStatusOnHost@@U?$less@H@std@@V?$allocator@U?$pair@$$CBHVdeviceStatusOnHost@@@std@@@3@$0A@@std@@@std@@IAEPAU?$_Tree_node@U?$pair@$$CBHVdeviceStatusOnHost@@@std@@PAX@2@ABH@Z 004c6af0 f i deviceStatus.obj
 0002:00076c00       ?_Left@?$_Tree_val@U?$_Tree_simple_types@U?$pair@$$CBHVdeviceStatusOnHost@@@std@@@std@@@std@@SAAAPAU?$_Tree_node@U?$pair@$$CBHVdeviceStatusOnHost@@@std@@PAX@2@PAU32@@Z 004c6c00 f i deviceStatus.obj
 0002:00076c40       ?_Lmost@?$_Tree@V?$_Tmap_traits@HVdeviceStatusOnHost@@U?$less@H@std@@V?$allocator@U?$pair@$$CBHVdeviceStatusOnHost@@@std@@@3@$0A@@std@@@std@@IBEAAPAU?$_Tree_node@U?$pair@$$CBHVdeviceStatusOnHost@@@std@@PAX@2@XZ 004c6c40 f i deviceStatus.obj
 0002:00076ca0       ?_Lrotate@?$_Tree@V?$_Tmap_traits@HVdeviceStatusOnHost@@U?$less@H@std@@V?$allocator@U?$pair@$$CBHVdeviceStatusOnHost@@@std@@@3@$0A@@std@@@std@@IAEXPAU?$_Tree_node@U?$pair@$$CBHVdeviceStatusOnHost@@@std@@PAX@2@@Z 004c6ca0 f i deviceStatus.obj
 0002:00076e50       ?_Max@?$_Tree_val@U?$_Tree_simple_types@U?$pair@$$CBHVdeviceStatusOnHost@@@std@@@std@@@std@@SAPAU?$_Tree_node@U?$pair@$$CBHVdeviceStatusOnHost@@@std@@PAX@2@PAU32@@Z 004c6e50 f i deviceStatus.obj
 0002:00076ed0       ?_Min@?$_Tree_val@U?$_Tree_simple_types@U?$pair@$$CBHVdeviceStatusOnHost@@@std@@@std@@@std@@SAPAU?$_Tree_node@U?$pair@$$CBHVdeviceStatusOnHost@@@std@@PAX@2@PAU32@@Z 004c6ed0 f i deviceStatus.obj
 0002:00076f50       ?_Mynode@?$_List_unchecked_const_iterator@V?$_List_val@U?$_List_simple_types@VdeviceStatusOnHost@@@std@@@std@@U_Iterator_base0@2@@std@@QBEPAU?$_List_node@VdeviceStatusOnHost@@PAX@2@XZ 004c6f50 f i deviceStatus.obj
 0002:00076f90       ?_Mynode@?$_Tree_unchecked_const_iterator@V?$_Tree_val@U?$_Tree_simple_types@U?$pair@$$CBHVdeviceStatusOnHost@@@std@@@std@@@std@@U_Iterator_base12@2@@std@@QBEPAU?$_Tree_node@U?$pair@$$CBHVdeviceStatusOnHost@@@std@@PAX@2@XZ 004c6f90 f i deviceStatus.obj
 0002:00076fd0       ?_Myval@?$_Tree_val@U?$_Tree_simple_types@U?$pair@$$CBHVdeviceStatusOnHost@@@std@@@std@@@std@@SAAAU?$pair@$$CBHVdeviceStatusOnHost@@@2@PAU?$_Tree_node@U?$pair@$$CBHVdeviceStatusOnHost@@@std@@PAX@2@@Z 004c6fd0 f i deviceStatus.obj
 0002:00077010       ?_Orphan_ptr@?$_Tree@V?$_Tmap_traits@HVdeviceStatusOnHost@@U?$less@H@std@@V?$allocator@U?$pair@$$CBHVdeviceStatusOnHost@@@std@@@3@$0A@@std@@@std@@IBEXAAV12@PAU?$_Tree_node@U?$pair@$$CBHVdeviceStatusOnHost@@@std@@PAX@2@@Z 004c7010 f i deviceStatus.obj
 0002:000771a0       ?_Parent@?$_Tree_val@U?$_Tree_simple_types@U?$pair@$$CBHVdeviceStatusOnHost@@@std@@@std@@@std@@SAAAPAU?$_Tree_node@U?$pair@$$CBHVdeviceStatusOnHost@@@std@@PAX@2@PAU32@@Z 004c71a0 f i deviceStatus.obj
 0002:000771e0       ?_Right@?$_Tree_val@U?$_Tree_simple_types@U?$pair@$$CBHVdeviceStatusOnHost@@@std@@@std@@@std@@SAAAPAU?$_Tree_node@U?$pair@$$CBHVdeviceStatusOnHost@@@std@@PAX@2@PAU32@@Z 004c71e0 f i deviceStatus.obj
 0002:00077220       ?_Rmost@?$_Tree@V?$_Tmap_traits@HVdeviceStatusOnHost@@U?$less@H@std@@V?$allocator@U?$pair@$$CBHVdeviceStatusOnHost@@@std@@@3@$0A@@std@@@std@@IBEAAPAU?$_Tree_node@U?$pair@$$CBHVdeviceStatusOnHost@@@std@@PAX@2@XZ 004c7220 f i deviceStatus.obj
 0002:00077280       ?_Root@?$_Tree@V?$_Tmap_traits@HVdeviceStatusOnHost@@U?$less@H@std@@V?$allocator@U?$pair@$$CBHVdeviceStatusOnHost@@@std@@@3@$0A@@std@@@std@@IBEAAPAU?$_Tree_node@U?$pair@$$CBHVdeviceStatusOnHost@@@std@@PAX@2@XZ 004c7280 f i deviceStatus.obj
 0002:000772e0       ?_Rrotate@?$_Tree@V?$_Tmap_traits@HVdeviceStatusOnHost@@U?$less@H@std@@V?$allocator@U?$pair@$$CBHVdeviceStatusOnHost@@@std@@@3@$0A@@std@@@std@@IAEXPAU?$_Tree_node@U?$pair@$$CBHVdeviceStatusOnHost@@@std@@PAX@2@@Z 004c72e0 f i deviceStatus.obj
 0002:00077490       ?_Tidy@?$_Tree@V?$_Tmap_traits@HVdeviceStatusOnHost@@U?$less@H@std@@V?$allocator@U?$pair@$$CBHVdeviceStatusOnHost@@@std@@@3@$0A@@std@@@std@@IAEXXZ 004c7490 f i deviceStatus.obj
 0002:00077630       ?_Unchecked_end@?$list@VdeviceStatusOnHost@@V?$allocator@VdeviceStatusOnHost@@@std@@@std@@QAE?AV?$_List_unchecked_iterator@V?$_List_val@U?$_List_simple_types@VdeviceStatusOnHost@@@std@@@std@@@2@XZ 004c7630 f i deviceStatus.obj
 0002:000776a0       ?allocate@?$_Wrap_alloc@V?$allocator@U?$_Tree_node@U?$pair@$$CBHVdeviceStatusOnHost@@@std@@PAX@std@@@std@@@std@@QAEPAU?$_Tree_node@U?$pair@$$CBHVdeviceStatusOnHost@@@std@@PAX@2@I@Z 004c76a0 f i deviceStatus.obj
 0002:00077700       ?allocate@?$allocator@U?$_Tree_node@U?$pair@$$CBHVdeviceStatusOnHost@@@std@@PAX@std@@@std@@QAEPAU?$_Tree_node@U?$pair@$$CBHVdeviceStatusOnHost@@@std@@PAX@2@I@Z 004c7700 f i deviceStatus.obj
 0002:00077760       ?begin@?$_Tree@V?$_Tmap_traits@HVdeviceStatusOnHost@@U?$less@H@std@@V?$allocator@U?$pair@$$CBHVdeviceStatusOnHost@@@std@@@3@$0A@@std@@@std@@QAE?AV?$_Tree_iterator@V?$_Tree_val@U?$_Tree_simple_types@U?$pair@$$CBHVdeviceStatusOnHost@@@std@@@std@@@std@@@2@XZ 004c7760 f i deviceStatus.obj
 0002:00077830       ?clear@?$_Tree@V?$_Tmap_traits@HVdeviceStatusOnHost@@U?$less@H@std@@V?$allocator@U?$pair@$$CBHVdeviceStatusOnHost@@@std@@@3@$0A@@std@@@std@@QAEXXZ 004c7830 f i deviceStatus.obj
 0002:000778f0       ?deallocate@?$_Wrap_alloc@V?$allocator@U?$_Tree_node@U?$pair@$$CBHVdeviceStatusOnHost@@@std@@PAX@std@@@std@@@std@@QAEXPAU?$_Tree_node@U?$pair@$$CBHVdeviceStatusOnHost@@@std@@PAX@2@I@Z 004c78f0 f i deviceStatus.obj
 0002:00077950       ?deallocate@?$allocator@U?$_Tree_node@U?$pair@$$CBHVdeviceStatusOnHost@@@std@@PAX@std@@@std@@QAEXPAU?$_Tree_node@U?$pair@$$CBHVdeviceStatusOnHost@@@std@@PAX@2@I@Z 004c7950 f i deviceStatus.obj
 0002:000779b0       ?decrementTimeout@deviceStatusOnHost@@QAE_NH@Z 004c79b0 f i deviceStatus.obj
 0002:00077a20       ?end@?$_Tree@V?$_Tmap_traits@HVdeviceStatusOnHost@@U?$less@H@std@@V?$allocator@U?$pair@$$CBHVdeviceStatusOnHost@@@std@@@3@$0A@@std@@@std@@QAE?AV?$_Tree_iterator@V?$_Tree_val@U?$_Tree_simple_types@U?$pair@$$CBHVdeviceStatusOnHost@@@std@@@std@@@std@@@2@XZ 004c7a20 f i deviceStatus.obj
 0002:00077ae0       ?erase@?$_Tree@V?$_Tmap_traits@HVdeviceStatusOnHost@@U?$less@H@std@@V?$allocator@U?$pair@$$CBHVdeviceStatusOnHost@@@std@@@3@$0A@@std@@@std@@QAE?AV?$_Tree_iterator@V?$_Tree_val@U?$_Tree_simple_types@U?$pair@$$CBHVdeviceStatusOnHost@@@std@@@std@@@std@@@2@V?$_Tree_const_iterator@V?$_Tree_val@U?$_Tree_simple_types@U?$pair@$$CBHVdeviceStatusOnHost@@@std@@@std@@@std@@@2@0@Z 004c7ae0 f i deviceStatus.obj
 0002:00077e10       ?erase@?$_Tree@V?$_Tmap_traits@HVdeviceStatusOnHost@@U?$less@H@std@@V?$allocator@U?$pair@$$CBHVdeviceStatusOnHost@@@std@@@3@$0A@@std@@@std@@QAE?AV?$_Tree_iterator@V?$_Tree_val@U?$_Tree_simple_types@U?$pair@$$CBHVdeviceStatusOnHost@@@std@@@std@@@std@@@2@V?$_Tree_const_iterator@V?$_Tree_val@U?$_Tree_simple_types@U?$pair@$$CBHVdeviceStatusOnHost@@@std@@@std@@@std@@@2@@Z 004c7e10 f i deviceStatus.obj
 0002:00078890       ?find@?$_Tree@V?$_Tmap_traits@HVdeviceStatusOnHost@@U?$less@H@std@@V?$allocator@U?$pair@$$CBHVdeviceStatusOnHost@@@std@@@3@$0A@@std@@@std@@QAE?AV?$_Tree_iterator@V?$_Tree_val@U?$_Tree_simple_types@U?$pair@$$CBHVdeviceStatusOnHost@@@std@@@std@@@std@@@2@ABH@Z 004c8890 f i deviceStatus.obj
 0002:00078ba0       ?lower_bound@?$_Tree@V?$_Tmap_traits@HVdeviceStatusOnHost@@U?$less@H@std@@V?$allocator@U?$pair@$$CBHVdeviceStatusOnHost@@@std@@@3@$0A@@std@@@std@@QAE?AV?$_Tree_iterator@V?$_Tree_val@U?$_Tree_simple_types@U?$pair@$$CBHVdeviceStatusOnHost@@@std@@@std@@@std@@@2@ABH@Z 004c8ba0 f i deviceStatus.obj
 0002:00078c70       ?max_size@?$_Tree@V?$_Tmap_traits@HVdeviceStatusOnHost@@U?$less@H@std@@V?$allocator@U?$pair@$$CBHVdeviceStatusOnHost@@@std@@@3@$0A@@std@@@std@@QBEIXZ 004c8c70 f i deviceStatus.obj
 0002:00078cd0       ?max_size@?$_Wrap_alloc@V?$allocator@U?$_List_node@VdeviceStatusOnHost@@PAX@std@@@std@@@std@@QBEIXZ 004c8cd0 f i deviceStatus.obj
 0002:00078d30       ?max_size@?$_Wrap_alloc@V?$allocator@U?$_Tree_node@U?$pair@$$CBHVdeviceStatusOnHost@@@std@@PAX@std@@@std@@@std@@QBEIXZ 004c8d30 f i deviceStatus.obj
 0002:00078d90       ?max_size@?$allocator@U?$_List_node@VdeviceStatusOnHost@@PAX@std@@@std@@QBEIXZ 004c8d90 f i deviceStatus.obj
 0002:00078dd0       ?max_size@?$allocator@U?$_Tree_node@U?$pair@$$CBHVdeviceStatusOnHost@@@std@@PAX@std@@@std@@QBEIXZ 004c8dd0 f i deviceStatus.obj
 0002:00078e10       ?max_size@?$allocator_traits@V?$allocator@U?$_List_node@VdeviceStatusOnHost@@PAX@std@@@std@@@std@@SAIABV?$allocator@U?$_List_node@VdeviceStatusOnHost@@PAX@std@@@2@@Z 004c8e10 f i deviceStatus.obj
 0002:00078e60       ?max_size@?$allocator_traits@V?$allocator@U?$_Tree_node@U?$pair@$$CBHVdeviceStatusOnHost@@@std@@PAX@std@@@std@@@std@@SAIABV?$allocator@U?$_Tree_node@U?$pair@$$CBHVdeviceStatusOnHost@@@std@@PAX@std@@@2@@Z 004c8e60 f i deviceStatus.obj
 0002:00078eb0       ?max_size@?$list@VdeviceStatusOnHost@@V?$allocator@VdeviceStatusOnHost@@@std@@@std@@QBEIXZ 004c8eb0 f i deviceStatus.obj
 0002:00078f10       ?pointer_to@?$pointer_traits@PAU?$pair@$$CBHVdeviceStatusOnHost@@@std@@@std@@SAPAU?$pair@$$CBHVdeviceStatusOnHost@@@2@AAU32@@Z 004c8f10 f i deviceStatus.obj
 0002:00078f60       ?push_back@?$list@VdeviceStatusOnHost@@V?$allocator@VdeviceStatusOnHost@@@std@@@std@@QAEXABVdeviceStatusOnHost@@@Z 004c8f60 f i deviceStatus.obj
 0002:00078fe0       ?setState@deviceStatusOnHost@@QAE_NH@Z 004c8fe0 f i deviceStatus.obj
 0002:00079040       ?setTimeout@deviceStatusOnHost@@QAEXH@Z 004c9040 f i deviceStatus.obj
 0002:00079090       ?size@?$_Tree@V?$_Tmap_traits@HVdeviceStatusOnHost@@U?$less@H@std@@V?$allocator@U?$pair@$$CBHVdeviceStatusOnHost@@@std@@@3@$0A@@std@@@std@@QBEIXZ 004c9090 f i deviceStatus.obj
 0002:000790d0       ??0structured_exception@@QAE@ABU_EXCEPTION_POINTERS@@@Z 004c90d0 f   except.obj
 0002:00079150       ?install@structured_exception@@SAXXZ 004c9150 f   except.obj
 0002:000791a0       ?what@structured_exception@@QBEIXZ 004c91a0 f   except.obj
 0002:000791d0       ?where@structured_exception@@QBEPBXXZ 004c91d0 f   except.obj
 0002:00079200       ?more@structured_exception@@QBEKXZ 004c9200 f   except.obj
 0002:00079310       ??0externalsListDialog@@QAE@XZ 004c9310 f   externalsListDialog.obj
 0002:000793d0       ??1externalsListDialog@@UAE@XZ 004c93d0 f   externalsListDialog.obj
 0002:00079480       ?init@externalsListDialog@@QAEXPAUHINSTANCE__@@PAUHWND__@@@Z 004c9480 f   externalsListDialog.obj
 0002:000794c0       ?show@externalsListDialog@@QAEXXZ 004c94c0 f   externalsListDialog.obj
 0002:00079820       ?hide@externalsListDialog@@QAEXXZ 004c9820 f   externalsListDialog.obj
 0002:00079890       ?toggleShow@externalsListDialog@@QAEXXZ 004c9890 f   externalsListDialog.obj
 0002:000798f0       ?addClient@externalsListDialog@@QAEXPAUHWND__@@H@Z 004c98f0 f   externalsListDialog.obj
 0002:00079a30       ?removeClient@externalsListDialog@@QAEXPAUHWND__@@@Z 004c9a30 f   externalsListDialog.obj
 0002:00079a90       ?addDriver@externalsListDialog@@QAEXHPAUHWND__@@H@Z 004c9a90 f   externalsListDialog.obj
 0002:00079c20       ?removeDriver@externalsListDialog@@QAEXPAUHWND__@@@Z 004c9c20 f   externalsListDialog.obj
 0002:00079c80       ?setSize@externalsListDialog@@QAEXHH@Z 004c9c80 f   externalsListDialog.obj
 0002:00079db0       ?setTime@externalsListDialog@@QAEXPAUHWND__@@K@Z 004c9db0 f   externalsListDialog.obj
 0002:0007a160       ?externalsListWndProc@externalsListDialog@@CGHPAUHWND__@@GGJ@Z 004ca160 f   externalsListDialog.obj
 0002:0007a3b0       ?addHWNDToList@externalsListDialog@@AAEHPAUHWND__@@0@Z 004ca3b0 f   externalsListDialog.obj
 0002:0007a7f0       ?removeHWNDFromList@externalsListDialog@@AAEXPAUHWND__@@0@Z 004ca7f0 f   externalsListDialog.obj
 0002:0007aa00       ?load@externalsListDialog@@AAEXXZ 004caa00 f   externalsListDialog.obj
 0002:0007aae0       ?getModuleName@externalsListDialog@@AAEXPAUHWND__@@PADH@Z 004caae0 f   externalsListDialog.obj
 0002:0007ae00       ?EnumChildProc@@YGHPAUHWND__@@J@Z 004cae00 f   externalsListDialog.obj
 0002:0007b550       ??$?0AAV?$_Tree_iterator@V?$_Tree_val@U?$_Tree_simple_types@U?$pair@QAUHWND__@@K@std@@@std@@@std@@@std@@_NX@?$pair@V?$_Tree_iterator@V?$_Tree_val@U?$_Tree_simple_types@U?$pair@QAUHWND__@@K@std@@@std@@@std@@@std@@_N@std@@QAE@AAV?$_Tree_iterator@V?$_Tree_val@U?$_Tree_simple_types@U?$pair@QAUHWND__@@K@std@@@std@@@std@@@1@$$QA_N@Z 004cb550 f i externalsListDialog.obj
 0002:0007b620       ??$?0ABQAUHWND__@@$$$V@?$pair@QAUHWND__@@K@std@@QAE@Upiecewise_construct_t@1@V?$tuple@ABQAUHWND__@@@1@V?$tuple@$$$V@1@@Z 004cb620 f i externalsListDialog.obj
 0002:0007b6b0       ??$?0ABQAUHWND__@@@?$_Tuple_val@ABQAUHWND__@@@std@@QAE@ABQAUHWND__@@@Z 004cb6b0 f i externalsListDialog.obj
 0002:0007b710       ??$?0ABQAUHWND__@@PAPAX@?$tuple@ABQAUHWND__@@@std@@QAE@$$QAV01@@Z 004cb710 f i externalsListDialog.obj
 0002:0007b7a0       ??$?0U?$_Tree_node@U?$pair@QAUHWND__@@K@std@@PAX@std@@@?$allocator@U_Container_proxy@std@@@std@@QAE@ABV?$allocator@U?$_Tree_node@U?$pair@QAUHWND__@@K@std@@PAX@std@@@1@@Z 004cb7a0 f i externalsListDialog.obj
 0002:0007b7e0       ??$?0U?$_Wrap_alloc@V?$allocator@U?$_Tree_node@U?$pair@QAUHWND__@@K@std@@PAX@std@@@std@@@std@@@?$_Wrap_alloc@V?$allocator@U_Container_proxy@std@@@std@@@std@@QAE@ABU?$_Wrap_alloc@V?$allocator@U?$_Tree_node@U?$pair@QAUHWND__@@K@std@@PAX@std@@@std@@@1@@Z 004cb7e0 f i externalsListDialog.obj
 0002:0007b840       ??$?0V?$_Tree_iterator@V?$_Tree_val@U?$_Tree_simple_types@U?$pair@QAUHWND__@@K@std@@@std@@@std@@@std@@_NX@?$pair@V?$_Tree_iterator@V?$_Tree_val@U?$_Tree_simple_types@U?$pair@QAUHWND__@@K@std@@@std@@@std@@@std@@_N@std@@QAE@$$QAV?$_Tree_iterator@V?$_Tree_val@U?$_Tree_simple_types@U?$pair@QAUHWND__@@K@std@@@std@@@std@@@1@$$QA_N@Z 004cb840 f i externalsListDialog.obj
 0002:0007b910       ??$?0V?$tuple@ABQAUHWND__@@@std@@V?$tuple@$$$V@1@$0A@$S@?$pair@QAUHWND__@@K@std@@QAE@AAV?$tuple@ABQAUHWND__@@@1@AAV?$tuple@$$$V@1@U?$_Arg_idx@$0A@@1@U?$_Arg_idx@$S@1@@Z 004cb910 f i externalsListDialog.obj
 0002:0007b990       ??$_Allocate@U?$_Tree_node@U?$pair@QAUHWND__@@K@std@@PAX@std@@@std@@YAPAU?$_Tree_node@U?$pair@QAUHWND__@@K@std@@PAX@0@IPAU10@@Z 004cb990 f i externalsListDialog.obj
 0002:0007ba20       ??$_Buynode@ABUpiecewise_construct_t@std@@V?$tuple@ABQAUHWND__@@@2@V?$tuple@$$$V@2@@?$_Tree_buy@U?$pair@QAUHWND__@@K@std@@V?$allocator@U?$pair@QAUHWND__@@K@std@@@2@@std@@QAEPAU?$_Tree_node@U?$pair@QAUHWND__@@K@std@@PAX@1@ABUpiecewise_construct_t@1@$$QAV?$tuple@ABQAUHWND__@@@1@$$QAV?$tuple@$$$V@1@@Z 004cba20 f i externalsListDialog.obj
 0002:0007bb80       ??$_Buynode_if_nil@AAU?$pair@QAUHWND__@@K@std@@@?$_Tree@V?$_Tmap_traits@PAUHWND__@@KU?$less@PAUHWND__@@@std@@V?$allocator@U?$pair@QAUHWND__@@K@std@@@3@$0A@@std@@@std@@IAEPAU?$_Tree_node@U?$pair@QAUHWND__@@K@std@@PAX@1@PAU21@AAU?$pair@QAUHWND__@@K@1@@Z 004cbb80 f i externalsListDialog.obj
 0002:0007bbc0       ??$_Debug_lt_pred@U?$less@PAUHWND__@@@std@@ABQAUHWND__@@ABQAU3@@std@@YA_NU?$less@PAUHWND__@@@0@ABQAUHWND__@@1PB_WI@Z 004cbbc0 f i externalsListDialog.obj
 0002:0007bca0       ??$_Insert_at@AAU?$pair@QAUHWND__@@K@std@@PAU?$_Tree_node@U?$pair@QAUHWND__@@K@std@@PAX@2@@?$_Tree@V?$_Tmap_traits@PAUHWND__@@KU?$less@PAUHWND__@@@std@@V?$allocator@U?$pair@QAUHWND__@@K@std@@@3@$0A@@std@@@std@@IAE?AV?$_Tree_iterator@V?$_Tree_val@U?$_Tree_simple_types@U?$pair@QAUHWND__@@K@std@@@std@@@std@@@1@_NPAU?$_Tree_node@U?$pair@QAUHWND__@@K@std@@PAX@1@AAU?$pair@QAUHWND__@@K@1@1@Z 004cbca0 f i externalsListDialog.obj
 0002:0007c270       ??$_Insert_hint@AAU?$pair@QAUHWND__@@K@std@@PAU?$_Tree_node@U?$pair@QAUHWND__@@K@std@@PAX@2@@?$_Tree@V?$_Tmap_traits@PAUHWND__@@KU?$less@PAUHWND__@@@std@@V?$allocator@U?$pair@QAUHWND__@@K@std@@@3@$0A@@std@@@std@@IAE?AV?$_Tree_iterator@V?$_Tree_val@U?$_Tree_simple_types@U?$pair@QAUHWND__@@K@std@@@std@@@std@@@1@V?$_Tree_const_iterator@V?$_Tree_val@U?$_Tree_simple_types@U?$pair@QAUHWND__@@K@std@@@std@@@std@@@1@AAU?$pair@QAUHWND__@@K@1@PAU?$_Tree_node@U?$pair@QAUHWND__@@K@std@@PAX@1@@Z 004cc270 f i externalsListDialog.obj
 0002:0007d350       ??$_Insert_nohint@AAU?$pair@QAUHWND__@@K@std@@PAU?$_Tree_node@U?$pair@QAUHWND__@@K@std@@PAX@2@@?$_Tree@V?$_Tmap_traits@PAUHWND__@@KU?$less@PAUHWND__@@@std@@V?$allocator@U?$pair@QAUHWND__@@K@std@@@3@$0A@@std@@@std@@IAE?AU?$pair@V?$_Tree_iterator@V?$_Tree_val@U?$_Tree_simple_types@U?$pair@QAUHWND__@@K@std@@@std@@@std@@@std@@_N@1@_NAAU?$pair@QAUHWND__@@K@1@PAU?$_Tree_node@U?$pair@QAUHWND__@@K@std@@PAX@1@@Z 004cd350 f i externalsListDialog.obj
 0002:0007d960       ??$_Kfn@QAUHWND__@@K@?$_Tmap_traits@PAUHWND__@@KU?$less@PAUHWND__@@@std@@V?$allocator@U?$pair@QAUHWND__@@K@std@@@3@$0A@@std@@SAABQAUHWND__@@ABU?$pair@QAUHWND__@@K@1@@Z 004cd960 f i externalsListDialog.obj
 0002:0007d9a0       ??$addressof@PAU?$_Tree_node@U?$pair@QAUHWND__@@K@std@@PAX@std@@@std@@YAPAPAU?$_Tree_node@U?$pair@QAUHWND__@@K@std@@PAX@0@AAPAU10@@Z 004cd9a0 f i externalsListDialog.obj
 0002:0007d9e0       ??$addressof@U?$pair@QAUHWND__@@K@std@@@std@@YAPAU?$pair@QAUHWND__@@K@0@AAU10@@Z 004cd9e0 f i externalsListDialog.obj
 0002:0007da20       ??$construct@PAU?$_Tree_node@U?$pair@QAUHWND__@@K@std@@PAX@std@@AAPAU12@@?$_Wrap_alloc@V?$allocator@U?$_Tree_node@U?$pair@QAUHWND__@@K@std@@PAX@std@@@std@@@std@@QAEXPAPAU?$_Tree_node@U?$pair@QAUHWND__@@K@std@@PAX@1@AAPAU21@@Z 004cda20 f i externalsListDialog.obj
 0002:0007da90       ??$construct@PAU?$_Tree_node@U?$pair@QAUHWND__@@K@std@@PAX@std@@AAPAU12@@?$allocator@U?$_Tree_node@U?$pair@QAUHWND__@@K@std@@PAX@std@@@std@@QAEXPAPAU?$_Tree_node@U?$pair@QAUHWND__@@K@std@@PAX@1@AAPAU21@@Z 004cda90 f i externalsListDialog.obj
 0002:0007db90       ??$construct@PAU?$_Tree_node@U?$pair@QAUHWND__@@K@std@@PAX@std@@AAPAU12@@?$allocator_traits@V?$allocator@U?$_Tree_node@U?$pair@QAUHWND__@@K@std@@PAX@std@@@std@@@std@@SAXAAV?$allocator@U?$_Tree_node@U?$pair@QAUHWND__@@K@std@@PAX@std@@@1@PAPAU?$_Tree_node@U?$pair@QAUHWND__@@K@std@@PAX@1@AAPAU31@@Z 004cdb90 f i externalsListDialog.obj
 0002:0007dbf0       ??$construct@U?$pair@QAUHWND__@@K@std@@ABUpiecewise_construct_t@2@V?$tuple@ABQAUHWND__@@@2@V?$tuple@$$$V@2@@?$_Wrap_alloc@V?$allocator@U?$_Tree_node@U?$pair@QAUHWND__@@K@std@@PAX@std@@@std@@@std@@QAEXPAU?$pair@QAUHWND__@@K@1@ABUpiecewise_construct_t@1@$$QAV?$tuple@ABQAUHWND__@@@1@$$QAV?$tuple@$$$V@1@@Z 004cdbf0 f i externalsListDialog.obj
 0002:0007dc80       ??$construct@U?$pair@QAUHWND__@@K@std@@ABUpiecewise_construct_t@2@V?$tuple@ABQAUHWND__@@@2@V?$tuple@$$$V@2@@?$allocator@U?$_Tree_node@U?$pair@QAUHWND__@@K@std@@PAX@std@@@std@@QAEXPAU?$pair@QAUHWND__@@K@1@ABUpiecewise_construct_t@1@$$QAV?$tuple@ABQAUHWND__@@@1@$$QAV?$tuple@$$$V@1@@Z 004cdc80 f i externalsListDialog.obj
 0002:0007ddc0       ??$construct@U?$pair@QAUHWND__@@K@std@@ABUpiecewise_construct_t@2@V?$tuple@ABQAUHWND__@@@2@V?$tuple@$$$V@2@@?$allocator_traits@V?$allocator@U?$_Tree_node@U?$pair@QAUHWND__@@K@std@@PAX@std@@@std@@@std@@SAXAAV?$allocator@U?$_Tree_node@U?$pair@QAUHWND__@@K@std@@PAX@std@@@1@PAU?$pair@QAUHWND__@@K@1@ABUpiecewise_construct_t@1@$$QAV?$tuple@ABQAUHWND__@@@1@$$QAV?$tuple@$$$V@1@@Z 004cddc0 f i externalsListDialog.obj
 0002:0007de40       ??$destroy@PAU?$_Tree_node@U?$pair@QAUHWND__@@K@std@@PAX@std@@@?$_Wrap_alloc@V?$allocator@U?$_Tree_node@U?$pair@QAUHWND__@@K@std@@PAX@std@@@std@@@std@@QAEXPAPAU?$_Tree_node@U?$pair@QAUHWND__@@K@std@@PAX@1@@Z 004cde40 f i externalsListDialog.obj
 0002:0007dea0       ??$destroy@PAU?$_Tree_node@U?$pair@QAUHWND__@@K@std@@PAX@std@@@?$allocator@U?$_Tree_node@U?$pair@QAUHWND__@@K@std@@PAX@std@@@std@@QAEXPAPAU?$_Tree_node@U?$pair@QAUHWND__@@K@std@@PAX@1@@Z 004cdea0 f i externalsListDialog.obj
 0002:0007dee0       ??$destroy@PAU?$_Tree_node@U?$pair@QAUHWND__@@K@std@@PAX@std@@@?$allocator_traits@V?$allocator@U?$_Tree_node@U?$pair@QAUHWND__@@K@std@@PAX@std@@@std@@@std@@SAXAAV?$allocator@U?$_Tree_node@U?$pair@QAUHWND__@@K@std@@PAX@std@@@1@PAPAU?$_Tree_node@U?$pair@QAUHWND__@@K@std@@PAX@1@@Z 004cdee0 f i externalsListDialog.obj
 0002:0007df30       ??$destroy@U?$pair@QAUHWND__@@K@std@@@?$_Wrap_alloc@V?$allocator@U?$_Tree_node@U?$pair@QAUHWND__@@K@std@@PAX@std@@@std@@@std@@QAEXPAU?$pair@QAUHWND__@@K@1@@Z 004cdf30 f i externalsListDialog.obj
 0002:0007df90       ??$destroy@U?$pair@QAUHWND__@@K@std@@@?$allocator@U?$_Tree_node@U?$pair@QAUHWND__@@K@std@@PAX@std@@@std@@QAEXPAU?$pair@QAUHWND__@@K@1@@Z 004cdf90 f i externalsListDialog.obj
 0002:0007dfd0       ??$destroy@U?$pair@QAUHWND__@@K@std@@@?$allocator_traits@V?$allocator@U?$_Tree_node@U?$pair@QAUHWND__@@K@std@@PAX@std@@@std@@@std@@SAXAAV?$allocator@U?$_Tree_node@U?$pair@QAUHWND__@@K@std@@PAX@std@@@1@PAU?$pair@QAUHWND__@@K@1@@Z 004cdfd0 f i externalsListDialog.obj
 0002:0007e020       ??$emplace_hint@ABUpiecewise_construct_t@std@@V?$tuple@ABQAUHWND__@@@2@V?$tuple@$$$V@2@@?$_Tree@V?$_Tmap_traits@PAUHWND__@@KU?$less@PAUHWND__@@@std@@V?$allocator@U?$pair@QAUHWND__@@K@std@@@3@$0A@@std@@@std@@QAE?AV?$_Tree_iterator@V?$_Tree_val@U?$_Tree_simple_types@U?$pair@QAUHWND__@@K@std@@@std@@@std@@@1@V?$_Tree_const_iterator@V?$_Tree_val@U?$_Tree_simple_types@U?$pair@QAUHWND__@@K@std@@@std@@@std@@@1@ABUpiecewise_construct_t@1@$$QAV?$tuple@ABQAUHWND__@@@1@$$QAV?$tuple@$$$V@1@@Z 004ce020 f i externalsListDialog.obj
 0002:0007e180       ??$forward@AAPAU?$_Tree_node@U?$pair@QAUHWND__@@K@std@@PAX@std@@@std@@YAAAPAU?$_Tree_node@U?$pair@QAUHWND__@@K@std@@PAX@0@AAPAU10@@Z 004ce180 f i externalsListDialog.obj
 0002:0007e1c0       ??$forward@AAU?$pair@QAUHWND__@@K@std@@@std@@YAAAU?$pair@QAUHWND__@@K@0@AAU10@@Z 004ce1c0 f i externalsListDialog.obj
 0002:0007e200       ??$forward@AAV?$_Tree_iterator@V?$_Tree_val@U?$_Tree_simple_types@U?$pair@QAUHWND__@@K@std@@@std@@@std@@@std@@@std@@YAAAV?$_Tree_iterator@V?$_Tree_val@U?$_Tree_simple_types@U?$pair@QAUHWND__@@K@std@@@std@@@std@@@0@AAV10@@Z 004ce200 f i externalsListDialog.obj
 0002:0007e240       ??$forward@ABUpiecewise_construct_t@std@@@std@@YAABUpiecewise_construct_t@0@ABU10@@Z 004ce240 f i externalsListDialog.obj
 0002:0007e280       ??$forward@V?$_Tree_iterator@V?$_Tree_val@U?$_Tree_simple_types@U?$pair@QAUHWND__@@K@std@@@std@@@std@@@std@@@std@@YA$$QAV?$_Tree_iterator@V?$_Tree_val@U?$_Tree_simple_types@U?$pair@QAUHWND__@@K@std@@@std@@@std@@@0@AAV10@@Z 004ce280 f i externalsListDialog.obj
 0002:0007e2c0       ??$forward@V?$tuple@$$$V@std@@@std@@YA$$QAV?$tuple@$$$V@0@AAV10@@Z 004ce2c0 f i externalsListDialog.obj
 0002:0007e300       ??$forward@V?$tuple@ABQAUHWND__@@@std@@@std@@YA$$QAV?$tuple@ABQAUHWND__@@@0@AAV10@@Z 004ce300 f i externalsListDialog.obj
 0002:0007e340       ??$forward_as_tuple@ABQAUHWND__@@@std@@YA?AV?$tuple@ABQAUHWND__@@@0@ABQAUHWND__@@@Z 004ce340 f i externalsListDialog.obj
 0002:0007e3a0       ??$get@$0A@ABQAUHWND__@@@std@@YAABQAUHWND__@@$$QAV?$tuple@ABQAUHWND__@@@0@@Z 004ce3a0 f i externalsListDialog.obj
 0002:0007e3f0       ??$move@AAV?$tuple@ABQAUHWND__@@@std@@@std@@YA$$QAV?$tuple@ABQAUHWND__@@@0@AAV10@@Z 004ce3f0 f i externalsListDialog.obj
 0002:0007e430       ??0?$_Iterator012@Ubidirectional_iterator_tag@std@@U?$pair@QAUHWND__@@K@2@HPBU32@ABU32@U_Iterator_base12@2@@std@@QAE@ABU01@@Z 004ce430 f i externalsListDialog.obj
 0002:0007e4d0       ??0?$_Iterator012@Ubidirectional_iterator_tag@std@@U?$pair@QAUHWND__@@K@2@HPBU32@ABU32@U_Iterator_base12@2@@std@@QAE@XZ 004ce4d0 f i externalsListDialog.obj
 0002:0007e570       ??0?$_Tree@V?$_Tmap_traits@PAUHWND__@@KU?$less@PAUHWND__@@@std@@V?$allocator@U?$pair@QAUHWND__@@K@std@@@3@$0A@@std@@@std@@QAE@ABU?$less@PAUHWND__@@@1@ABV?$allocator@U?$pair@QAUHWND__@@K@std@@@1@@Z 004ce570 f i externalsListDialog.obj
 0002:0007e620       ??0?$_Tree_alloc@$0A@U?$_Tree_base_types@U?$pair@QAUHWND__@@K@std@@V?$allocator@U?$pair@QAUHWND__@@K@std@@@2@@std@@@std@@QAE@ABV?$allocator@U?$pair@QAUHWND__@@K@std@@@1@@Z 004ce620 f i externalsListDialog.obj
 0002:0007e720       ??0?$_Tree_buy@U?$pair@QAUHWND__@@K@std@@V?$allocator@U?$pair@QAUHWND__@@K@std@@@2@@std@@QAE@ABV?$allocator@U?$pair@QAUHWND__@@K@std@@@1@@Z 004ce720 f i externalsListDialog.obj
 0002:0007e7c0       ??0?$_Tree_comp@$0A@V?$_Tmap_traits@PAUHWND__@@KU?$less@PAUHWND__@@@std@@V?$allocator@U?$pair@QAUHWND__@@K@std@@@3@$0A@@std@@@std@@QAE@ABU?$less@PAUHWND__@@@1@ABV?$allocator@U?$pair@QAUHWND__@@K@std@@@1@@Z 004ce7c0 f i externalsListDialog.obj
 0002:0007e860       ??0?$_Tree_const_iterator@V?$_Tree_val@U?$_Tree_simple_types@U?$pair@QAUHWND__@@K@std@@@std@@@std@@@std@@QAE@ABV01@@Z 004ce860 f i externalsListDialog.obj
 0002:0007e900       ??0?$_Tree_const_iterator@V?$_Tree_val@U?$_Tree_simple_types@U?$pair@QAUHWND__@@K@std@@@std@@@std@@@std@@QAE@PAU?$_Tree_node@U?$pair@QAUHWND__@@K@std@@PAX@1@PBV?$_Tree_val@U?$_Tree_simple_types@U?$pair@QAUHWND__@@K@std@@@std@@@1@@Z 004ce900 f i externalsListDialog.obj
 0002:0007e9b0       ??0?$_Tree_const_iterator@V?$_Tree_val@U?$_Tree_simple_types@U?$pair@QAUHWND__@@K@std@@@std@@@std@@@std@@QAE@XZ 004ce9b0 f i externalsListDialog.obj
 0002:0007ea50       ??0?$_Tree_iterator@V?$_Tree_val@U?$_Tree_simple_types@U?$pair@QAUHWND__@@K@std@@@std@@@std@@@std@@QAE@ABV01@@Z 004cea50 f i externalsListDialog.obj
 0002:0007eaf0       ??0?$_Tree_iterator@V?$_Tree_val@U?$_Tree_simple_types@U?$pair@QAUHWND__@@K@std@@@std@@@std@@@std@@QAE@PAU?$_Tree_node@U?$pair@QAUHWND__@@K@std@@PAX@1@PBV?$_Tree_val@U?$_Tree_simple_types@U?$pair@QAUHWND__@@K@std@@@std@@@1@@Z 004ceaf0 f i externalsListDialog.obj
 0002:0007eba0       ??0?$_Tree_unchecked_const_iterator@V?$_Tree_val@U?$_Tree_simple_types@U?$pair@QAUHWND__@@K@std@@@std@@@std@@U_Iterator_base12@2@@std@@QAE@ABV01@@Z 004ceba0 f i externalsListDialog.obj
 0002:0007ec50       ??0?$_Tree_unchecked_const_iterator@V?$_Tree_val@U?$_Tree_simple_types@U?$pair@QAUHWND__@@K@std@@@std@@@std@@U_Iterator_base12@2@@std@@QAE@PAU?$_Tree_node@U?$pair@QAUHWND__@@K@std@@PAX@1@PBV?$_Tree_val@U?$_Tree_simple_types@U?$pair@QAUHWND__@@K@std@@@std@@@1@@Z 004cec50 f i externalsListDialog.obj
 0002:0007ed10       ??0?$_Tree_unchecked_const_iterator@V?$_Tree_val@U?$_Tree_simple_types@U?$pair@QAUHWND__@@K@std@@@std@@@std@@U_Iterator_base12@2@@std@@QAE@XZ 004ced10 f i externalsListDialog.obj
 0002:0007edc0       ??0?$_Tree_val@U?$_Tree_simple_types@U?$pair@QAUHWND__@@K@std@@@std@@@std@@QAE@XZ 004cedc0 f i externalsListDialog.obj
 0002:0007ee80       ??0?$_Wrap_alloc@V?$allocator@U?$_Tree_node@U?$pair@QAUHWND__@@K@std@@PAX@std@@@std@@@std@@QAE@XZ 004cee80 f i externalsListDialog.obj
 0002:0007eee0       ??0?$allocator@U?$_Tree_node@U?$pair@QAUHWND__@@K@std@@PAX@std@@@std@@QAE@XZ 004ceee0 f i externalsListDialog.obj
 0002:0007ef20       ??0?$allocator@U?$pair@QAUHWND__@@K@std@@@std@@QAE@XZ 004cef20 f i externalsListDialog.obj
 0002:0007ef60       ??0?$map@PAUHWND__@@KU?$less@PAUHWND__@@@std@@V?$allocator@U?$pair@QAUHWND__@@K@std@@@3@@std@@QAE@XZ 004cef60 f i externalsListDialog.obj
 0002:0007f010       ??0?$tuple@$$$V@std@@QAE@ABV01@@Z 004cf010 f i externalsListDialog.obj
 0002:0007f050       ??0?$tuple@$$$V@std@@QAE@XZ 004cf050 f i externalsListDialog.obj
 0002:0007f090       ??0?$tuple@ABQAUHWND__@@@std@@QAE@ABQAUHWND__@@@Z 004cf090 f i externalsListDialog.obj
 0002:0007f100       ??1?$_Iterator012@Ubidirectional_iterator_tag@std@@U?$pair@QAUHWND__@@K@2@HPBU32@ABU32@U_Iterator_base12@2@@std@@QAE@XZ 004cf100 f i externalsListDialog.obj
 0002:0007f1a0       ??1?$_Tree@V?$_Tmap_traits@PAUHWND__@@KU?$less@PAUHWND__@@@std@@V?$allocator@U?$pair@QAUHWND__@@K@std@@@3@$0A@@std@@@std@@QAE@XZ 004cf1a0 f i externalsListDialog.obj
 0002:0007f240       ??1?$_Tree_alloc@$0A@U?$_Tree_base_types@U?$pair@QAUHWND__@@K@std@@V?$allocator@U?$pair@QAUHWND__@@K@std@@@2@@std@@@std@@QAE@XZ 004cf240 f i externalsListDialog.obj
 0002:0007f300       ??1?$_Tree_buy@U?$pair@QAUHWND__@@K@std@@V?$allocator@U?$pair@QAUHWND__@@K@std@@@2@@std@@QAE@XZ 004cf300 f i externalsListDialog.obj
 0002:0007f3a0       ??1?$_Tree_comp@$0A@V?$_Tmap_traits@PAUHWND__@@KU?$less@PAUHWND__@@@std@@V?$allocator@U?$pair@QAUHWND__@@K@std@@@3@$0A@@std@@@std@@QAE@XZ 004cf3a0 f i externalsListDialog.obj
 0002:0007f440       ??1?$_Tree_const_iterator@V?$_Tree_val@U?$_Tree_simple_types@U?$pair@QAUHWND__@@K@std@@@std@@@std@@@std@@QAE@XZ 004cf440 f i externalsListDialog.obj
 0002:0007f4e0       ??1?$_Tree_iterator@V?$_Tree_val@U?$_Tree_simple_types@U?$pair@QAUHWND__@@K@std@@@std@@@std@@@std@@QAE@XZ 004cf4e0 f i externalsListDialog.obj
 0002:0007f580       ??1?$_Tree_unchecked_const_iterator@V?$_Tree_val@U?$_Tree_simple_types@U?$pair@QAUHWND__@@K@std@@@std@@@std@@U_Iterator_base12@2@@std@@QAE@XZ 004cf580 f i externalsListDialog.obj
 0002:0007f620       ??1?$_Tree_val@U?$_Tree_simple_types@U?$pair@QAUHWND__@@K@std@@@std@@@std@@QAE@XZ 004cf620 f i externalsListDialog.obj
 0002:0007f6d0       ??1?$map@PAUHWND__@@KU?$less@PAUHWND__@@@std@@V?$allocator@U?$pair@QAUHWND__@@K@std@@@3@@std@@QAE@XZ 004cf6d0 f i externalsListDialog.obj
 0002:0007f770       ??1?$pair@V?$_Tree_iterator@V?$_Tree_val@U?$_Tree_simple_types@U?$pair@QAUHWND__@@K@std@@@std@@@std@@@std@@_N@std@@QAE@XZ 004cf770 f i externalsListDialog.obj
 0002:0007f810       ??4?$_Iterator012@Ubidirectional_iterator_tag@std@@U?$pair@QAUHWND__@@K@2@HPBU32@ABU32@U_Iterator_base12@2@@std@@QAEAAU01@ABU01@@Z 004cf810 f i externalsListDialog.obj
 0002:0007f870       ??4?$_Tree_const_iterator@V?$_Tree_val@U?$_Tree_simple_types@U?$pair@QAUHWND__@@K@std@@@std@@@std@@@std@@QAEAAV01@ABV01@@Z 004cf870 f i externalsListDialog.obj
 0002:0007f8d0       ??4?$_Tree_iterator@V?$_Tree_val@U?$_Tree_simple_types@U?$pair@QAUHWND__@@K@std@@@std@@@std@@@std@@QAEAAV01@ABV01@@Z 004cf8d0 f i externalsListDialog.obj
 0002:0007f930       ??4?$_Tree_unchecked_const_iterator@V?$_Tree_val@U?$_Tree_simple_types@U?$pair@QAUHWND__@@K@std@@@std@@@std@@U_Iterator_base12@2@@std@@QAEAAV01@ABV01@@Z 004cf930 f i externalsListDialog.obj
 0002:0007f9a0       ??8?$_Tree_const_iterator@V?$_Tree_val@U?$_Tree_simple_types@U?$pair@QAUHWND__@@K@std@@@std@@@std@@@std@@QBE_NABV01@@Z 004cf9a0 f i externalsListDialog.obj
 0002:0007fb00       ??9?$_Tree_const_iterator@V?$_Tree_val@U?$_Tree_simple_types@U?$pair@QAUHWND__@@K@std@@@std@@@std@@@std@@QBE_NABV01@@Z 004cfb00 f i externalsListDialog.obj
 0002:0007fb90       ??A?$map@PAUHWND__@@KU?$less@PAUHWND__@@@std@@V?$allocator@U?$pair@QAUHWND__@@K@std@@@3@@std@@QAEAAKABQAUHWND__@@@Z 004cfb90 f i externalsListDialog.obj
 0002:0007fe60       ??C?$_Tree_iterator@V?$_Tree_val@U?$_Tree_simple_types@U?$pair@QAUHWND__@@K@std@@@std@@@std@@@std@@QBEPAU?$pair@QAUHWND__@@K@1@XZ 004cfe60 f i externalsListDialog.obj
 0002:0007fec0       ??D?$_Tree_const_iterator@V?$_Tree_val@U?$_Tree_simple_types@U?$pair@QAUHWND__@@K@std@@@std@@@std@@@std@@QBEABU?$pair@QAUHWND__@@K@1@XZ 004cfec0 f i externalsListDialog.obj
 0002:00080000       ??D?$_Tree_iterator@V?$_Tree_val@U?$_Tree_simple_types@U?$pair@QAUHWND__@@K@std@@@std@@@std@@@std@@QBEAAU?$pair@QAUHWND__@@K@1@XZ 004d0000 f i externalsListDialog.obj
 0002:00080050       ??E?$_Tree_const_iterator@V?$_Tree_val@U?$_Tree_simple_types@U?$pair@QAUHWND__@@K@std@@@std@@@std@@@std@@QAE?AV01@H@Z 004d0050 f i externalsListDialog.obj
 0002:00080170       ??E?$_Tree_const_iterator@V?$_Tree_val@U?$_Tree_simple_types@U?$pair@QAUHWND__@@K@std@@@std@@@std@@@std@@QAEAAV01@XZ 004d0170 f i externalsListDialog.obj
 0002:000802b0       ??E?$_Tree_unchecked_const_iterator@V?$_Tree_val@U?$_Tree_simple_types@U?$pair@QAUHWND__@@K@std@@@std@@@std@@U_Iterator_base12@2@@std@@QAEAAV01@XZ 004d02b0 f i externalsListDialog.obj
 0002:000803e0       ??F?$_Tree_const_iterator@V?$_Tree_val@U?$_Tree_simple_types@U?$pair@QAUHWND__@@K@std@@@std@@@std@@@std@@QAEAAV01@XZ 004d03e0 f i externalsListDialog.obj
 0002:000805c0       ??F?$_Tree_iterator@V?$_Tree_val@U?$_Tree_simple_types@U?$pair@QAUHWND__@@K@std@@@std@@@std@@@std@@QAEAAV01@XZ 004d05c0 f i externalsListDialog.obj
 0002:00080620       ??F?$_Tree_unchecked_const_iterator@V?$_Tree_val@U?$_Tree_simple_types@U?$pair@QAUHWND__@@K@std@@@std@@@std@@U_Iterator_base12@2@@std@@QAEAAV01@XZ 004d0620 f i externalsListDialog.obj
 0002:00080780       ??R?$less@PAUHWND__@@@std@@QBE_NABQAUHWND__@@0@Z 004d0780 f i externalsListDialog.obj
 0002:000807f0       ??_GexternalsListDialog@@UAEPAXI@Z 004d07f0 f i externalsListDialog.obj
 0002:000807f0       ??_EexternalsListDialog@@UAEPAXI@Z 004d07f0 f i externalsListDialog.obj
 0002:00080860       ?_Alloc_proxy@?$_Tree_alloc@$0A@U?$_Tree_base_types@U?$pair@QAUHWND__@@K@std@@V?$allocator@U?$pair@QAUHWND__@@K@std@@@2@@std@@@std@@QAEXXZ 004d0860 f i externalsListDialog.obj
 0002:00080940       ?_Buyheadnode@?$_Tree_alloc@$0A@U?$_Tree_base_types@U?$pair@QAUHWND__@@K@std@@V?$allocator@U?$pair@QAUHWND__@@K@std@@@2@@std@@@std@@QAEPAU?$_Tree_node@U?$pair@QAUHWND__@@K@std@@PAX@2@XZ 004d0940 f i externalsListDialog.obj
 0002:00080b50       ?_Buynode0@?$_Tree_buy@U?$pair@QAUHWND__@@K@std@@V?$allocator@U?$pair@QAUHWND__@@K@std@@@2@@std@@QAEPAU?$_Tree_node@U?$pair@QAUHWND__@@K@std@@PAX@2@XZ 004d0b50 f i externalsListDialog.obj
 0002:00080d10       ?_Color@?$_Tree_val@U?$_Tree_simple_types@U?$pair@QAUHWND__@@K@std@@@std@@@std@@SAAADPAU?$_Tree_node@U?$pair@QAUHWND__@@K@std@@PAX@2@@Z 004d0d10 f i externalsListDialog.obj
 0002:00080d50       ?_Destroy_if_not_nil@?$_Tree@V?$_Tmap_traits@PAUHWND__@@KU?$less@PAUHWND__@@@std@@V?$allocator@U?$pair@QAUHWND__@@K@std@@@3@$0A@@std@@@std@@IAEXPAU?$_Tree_node@U?$pair@QAUHWND__@@K@std@@PAX@2@@Z 004d0d50 f i externalsListDialog.obj
 0002:00080e00       ?_Erase@?$_Tree@V?$_Tmap_traits@PAUHWND__@@KU?$less@PAUHWND__@@@std@@V?$allocator@U?$pair@QAUHWND__@@K@std@@@3@$0A@@std@@@std@@IAEXPAU?$_Tree_node@U?$pair@QAUHWND__@@K@std@@PAX@2@@Z 004d0e00 f i externalsListDialog.obj
 0002:00080f10       ?_Free_proxy@?$_Tree_alloc@$0A@U?$_Tree_base_types@U?$pair@QAUHWND__@@K@std@@V?$allocator@U?$pair@QAUHWND__@@K@std@@@2@@std@@@std@@QAEXXZ 004d0f10 f i externalsListDialog.obj
 0002:00081000       ?_Freeheadnode@?$_Tree_alloc@$0A@U?$_Tree_base_types@U?$pair@QAUHWND__@@K@std@@V?$allocator@U?$pair@QAUHWND__@@K@std@@@2@@std@@@std@@QAEXPAU?$_Tree_node@U?$pair@QAUHWND__@@K@std@@PAX@2@@Z 004d1000 f i externalsListDialog.obj
 0002:00081110       ?_Freenode0@?$_Tree_buy@U?$pair@QAUHWND__@@K@std@@V?$allocator@U?$pair@QAUHWND__@@K@std@@@2@@std@@QAEXPAU?$_Tree_node@U?$pair@QAUHWND__@@K@std@@PAX@2@@Z 004d1110 f i externalsListDialog.obj
 0002:00081220       ?_Get_rest@?$tuple@ABQAUHWND__@@@std@@QAEAAV?$tuple@$$$V@2@XZ 004d1220 f i externalsListDialog.obj
 0002:00081260       ?_Getal@?$_Tree_alloc@$0A@U?$_Tree_base_types@U?$pair@QAUHWND__@@K@std@@V?$allocator@U?$pair@QAUHWND__@@K@std@@@2@@std@@@std@@QBE?AU?$_Wrap_alloc@V?$allocator@U?$_Tree_node@U?$pair@QAUHWND__@@K@std@@PAX@std@@@std@@@2@XZ 004d1260 f i externalsListDialog.obj
 0002:000812c0       ?_Getcomp@?$_Tree_comp@$0A@V?$_Tmap_traits@PAUHWND__@@KU?$less@PAUHWND__@@@std@@V?$allocator@U?$pair@QAUHWND__@@K@std@@@3@$0A@@std@@@std@@QBE?AU?$less@PAUHWND__@@@2@XZ 004d12c0 f i externalsListDialog.obj
 0002:00081300       ?_Isnil@?$_Tree_val@U?$_Tree_simple_types@U?$pair@QAUHWND__@@K@std@@@std@@@std@@SAAADPAU?$_Tree_node@U?$pair@QAUHWND__@@K@std@@PAX@2@@Z 004d1300 f i externalsListDialog.obj
 0002:00081340       ?_Key@?$_Tree@V?$_Tmap_traits@PAUHWND__@@KU?$less@PAUHWND__@@@std@@V?$allocator@U?$pair@QAUHWND__@@K@std@@@3@$0A@@std@@@std@@IBEABQAUHWND__@@PAU?$_Tree_node@U?$pair@QAUHWND__@@K@std@@PAX@2@@Z 004d1340 f i externalsListDialog.obj
 0002:000813b0       ?_Kfn@?$_Tree@V?$_Tmap_traits@PAUHWND__@@KU?$less@PAUHWND__@@@std@@V?$allocator@U?$pair@QAUHWND__@@K@std@@@3@$0A@@std@@@std@@IBEABQAUHWND__@@ABU?$pair@QAUHWND__@@K@2@@Z 004d13b0 f i externalsListDialog.obj
 0002:00081410       ?_Lbound@?$_Tree@V?$_Tmap_traits@PAUHWND__@@KU?$less@PAUHWND__@@@std@@V?$allocator@U?$pair@QAUHWND__@@K@std@@@3@$0A@@std@@@std@@IAEPAU?$_Tree_node@U?$pair@QAUHWND__@@K@std@@PAX@2@ABQAUHWND__@@@Z 004d1410 f i externalsListDialog.obj
 0002:00081520       ?_Left@?$_Tree_val@U?$_Tree_simple_types@U?$pair@QAUHWND__@@K@std@@@std@@@std@@SAAAPAU?$_Tree_node@U?$pair@QAUHWND__@@K@std@@PAX@2@PAU32@@Z 004d1520 f i externalsListDialog.obj
 0002:00081560       ?_Lmost@?$_Tree@V?$_Tmap_traits@PAUHWND__@@KU?$less@PAUHWND__@@@std@@V?$allocator@U?$pair@QAUHWND__@@K@std@@@3@$0A@@std@@@std@@IBEAAPAU?$_Tree_node@U?$pair@QAUHWND__@@K@std@@PAX@2@XZ 004d1560 f i externalsListDialog.obj
 0002:000815c0       ?_Lrotate@?$_Tree@V?$_Tmap_traits@PAUHWND__@@KU?$less@PAUHWND__@@@std@@V?$allocator@U?$pair@QAUHWND__@@K@std@@@3@$0A@@std@@@std@@IAEXPAU?$_Tree_node@U?$pair@QAUHWND__@@K@std@@PAX@2@@Z 004d15c0 f i externalsListDialog.obj
 0002:00081770       ?_Max@?$_Tree_val@U?$_Tree_simple_types@U?$pair@QAUHWND__@@K@std@@@std@@@std@@SAPAU?$_Tree_node@U?$pair@QAUHWND__@@K@std@@PAX@2@PAU32@@Z 004d1770 f i externalsListDialog.obj
 0002:000817f0       ?_Min@?$_Tree_val@U?$_Tree_simple_types@U?$pair@QAUHWND__@@K@std@@@std@@@std@@SAPAU?$_Tree_node@U?$pair@QAUHWND__@@K@std@@PAX@2@PAU32@@Z 004d17f0 f i externalsListDialog.obj
 0002:00081870       ?_Mynode@?$_Tree_unchecked_const_iterator@V?$_Tree_val@U?$_Tree_simple_types@U?$pair@QAUHWND__@@K@std@@@std@@@std@@U_Iterator_base12@2@@std@@QBEPAU?$_Tree_node@U?$pair@QAUHWND__@@K@std@@PAX@2@XZ 004d1870 f i externalsListDialog.obj
 0002:000818b0       ?_Myval@?$_Tree_val@U?$_Tree_simple_types@U?$pair@QAUHWND__@@K@std@@@std@@@std@@SAAAU?$pair@QAUHWND__@@K@2@PAU?$_Tree_node@U?$pair@QAUHWND__@@K@std@@PAX@2@@Z 004d18b0 f i externalsListDialog.obj
 0002:000818f0       ?_Orphan_ptr@?$_Tree@V?$_Tmap_traits@PAUHWND__@@KU?$less@PAUHWND__@@@std@@V?$allocator@U?$pair@QAUHWND__@@K@std@@@3@$0A@@std@@@std@@IBEXAAV12@PAU?$_Tree_node@U?$pair@QAUHWND__@@K@std@@PAX@2@@Z 004d18f0 f i externalsListDialog.obj
 0002:00081a80       ?_Parent@?$_Tree_val@U?$_Tree_simple_types@U?$pair@QAUHWND__@@K@std@@@std@@@std@@SAAAPAU?$_Tree_node@U?$pair@QAUHWND__@@K@std@@PAX@2@PAU32@@Z 004d1a80 f i externalsListDialog.obj
 0002:00081ac0       ?_Right@?$_Tree_val@U?$_Tree_simple_types@U?$pair@QAUHWND__@@K@std@@@std@@@std@@SAAAPAU?$_Tree_node@U?$pair@QAUHWND__@@K@std@@PAX@2@PAU32@@Z 004d1ac0 f i externalsListDialog.obj
 0002:00081b00       ?_Rmost@?$_Tree@V?$_Tmap_traits@PAUHWND__@@KU?$less@PAUHWND__@@@std@@V?$allocator@U?$pair@QAUHWND__@@K@std@@@3@$0A@@std@@@std@@IBEAAPAU?$_Tree_node@U?$pair@QAUHWND__@@K@std@@PAX@2@XZ 004d1b00 f i externalsListDialog.obj
 0002:00081b60       ?_Root@?$_Tree@V?$_Tmap_traits@PAUHWND__@@KU?$less@PAUHWND__@@@std@@V?$allocator@U?$pair@QAUHWND__@@K@std@@@3@$0A@@std@@@std@@IBEAAPAU?$_Tree_node@U?$pair@QAUHWND__@@K@std@@PAX@2@XZ 004d1b60 f i externalsListDialog.obj
 0002:00081bc0       ?_Rrotate@?$_Tree@V?$_Tmap_traits@PAUHWND__@@KU?$less@PAUHWND__@@@std@@V?$allocator@U?$pair@QAUHWND__@@K@std@@@3@$0A@@std@@@std@@IAEXPAU?$_Tree_node@U?$pair@QAUHWND__@@K@std@@PAX@2@@Z 004d1bc0 f i externalsListDialog.obj
 0002:00081d70       ?_Tidy@?$_Tree@V?$_Tmap_traits@PAUHWND__@@KU?$less@PAUHWND__@@@std@@V?$allocator@U?$pair@QAUHWND__@@K@std@@@3@$0A@@std@@@std@@IAEXXZ 004d1d70 f i externalsListDialog.obj
 0002:00081f10       ?allocate@?$_Wrap_alloc@V?$allocator@U?$_Tree_node@U?$pair@QAUHWND__@@K@std@@PAX@std@@@std@@@std@@QAEPAU?$_Tree_node@U?$pair@QAUHWND__@@K@std@@PAX@2@I@Z 004d1f10 f i externalsListDialog.obj
 0002:00081f70       ?allocate@?$allocator@U?$_Tree_node@U?$pair@QAUHWND__@@K@std@@PAX@std@@@std@@QAEPAU?$_Tree_node@U?$pair@QAUHWND__@@K@std@@PAX@2@I@Z 004d1f70 f i externalsListDialog.obj
 0002:00081fd0       ?begin@?$_Tree@V?$_Tmap_traits@PAUHWND__@@KU?$less@PAUHWND__@@@std@@V?$allocator@U?$pair@QAUHWND__@@K@std@@@3@$0A@@std@@@std@@QAE?AV?$_Tree_iterator@V?$_Tree_val@U?$_Tree_simple_types@U?$pair@QAUHWND__@@K@std@@@std@@@std@@@2@XZ 004d1fd0 f i externalsListDialog.obj
 0002:000820a0       ?clear@?$_Tree@V?$_Tmap_traits@PAUHWND__@@KU?$less@PAUHWND__@@@std@@V?$allocator@U?$pair@QAUHWND__@@K@std@@@3@$0A@@std@@@std@@QAEXXZ 004d20a0 f i externalsListDialog.obj
 0002:00082160       ?deallocate@?$_Wrap_alloc@V?$allocator@U?$_Tree_node@U?$pair@QAUHWND__@@K@std@@PAX@std@@@std@@@std@@QAEXPAU?$_Tree_node@U?$pair@QAUHWND__@@K@std@@PAX@2@I@Z 004d2160 f i externalsListDialog.obj
 0002:000821c0       ?deallocate@?$allocator@U?$_Tree_node@U?$pair@QAUHWND__@@K@std@@PAX@std@@@std@@QAEXPAU?$_Tree_node@U?$pair@QAUHWND__@@K@std@@PAX@2@I@Z 004d21c0 f i externalsListDialog.obj
 0002:00082220       ?end@?$_Tree@V?$_Tmap_traits@PAUHWND__@@KU?$less@PAUHWND__@@@std@@V?$allocator@U?$pair@QAUHWND__@@K@std@@@3@$0A@@std@@@std@@QAE?AV?$_Tree_iterator@V?$_Tree_val@U?$_Tree_simple_types@U?$pair@QAUHWND__@@K@std@@@std@@@std@@@2@XZ 004d2220 f i externalsListDialog.obj
 0002:000822e0       ?erase@?$_Tree@V?$_Tmap_traits@PAUHWND__@@KU?$less@PAUHWND__@@@std@@V?$allocator@U?$pair@QAUHWND__@@K@std@@@3@$0A@@std@@@std@@QAE?AV?$_Tree_iterator@V?$_Tree_val@U?$_Tree_simple_types@U?$pair@QAUHWND__@@K@std@@@std@@@std@@@2@V?$_Tree_const_iterator@V?$_Tree_val@U?$_Tree_simple_types@U?$pair@QAUHWND__@@K@std@@@std@@@std@@@2@0@Z 004d22e0 f i externalsListDialog.obj
 0002:00082610       ?erase@?$_Tree@V?$_Tmap_traits@PAUHWND__@@KU?$less@PAUHWND__@@@std@@V?$allocator@U?$pair@QAUHWND__@@K@std@@@3@$0A@@std@@@std@@QAE?AV?$_Tree_iterator@V?$_Tree_val@U?$_Tree_simple_types@U?$pair@QAUHWND__@@K@std@@@std@@@std@@@2@V?$_Tree_const_iterator@V?$_Tree_val@U?$_Tree_simple_types@U?$pair@QAUHWND__@@K@std@@@std@@@std@@@2@@Z 004d2610 f i externalsListDialog.obj
 0002:00083090       ?find@?$_Tree@V?$_Tmap_traits@PAUHWND__@@KU?$less@PAUHWND__@@@std@@V?$allocator@U?$pair@QAUHWND__@@K@std@@@3@$0A@@std@@@std@@QAE?AV?$_Tree_iterator@V?$_Tree_val@U?$_Tree_simple_types@U?$pair@QAUHWND__@@K@std@@@std@@@std@@@2@ABQAUHWND__@@@Z 004d3090 f i externalsListDialog.obj
 0002:000833a0       ?lower_bound@?$_Tree@V?$_Tmap_traits@PAUHWND__@@KU?$less@PAUHWND__@@@std@@V?$allocator@U?$pair@QAUHWND__@@K@std@@@3@$0A@@std@@@std@@QAE?AV?$_Tree_iterator@V?$_Tree_val@U?$_Tree_simple_types@U?$pair@QAUHWND__@@K@std@@@std@@@std@@@2@ABQAUHWND__@@@Z 004d33a0 f i externalsListDialog.obj
 0002:00083470       ?max_size@?$_Tree@V?$_Tmap_traits@PAUHWND__@@KU?$less@PAUHWND__@@@std@@V?$allocator@U?$pair@QAUHWND__@@K@std@@@3@$0A@@std@@@std@@QBEIXZ 004d3470 f i externalsListDialog.obj
 0002:000834d0       ?max_size@?$_Wrap_alloc@V?$allocator@U?$_Tree_node@U?$pair@QAUHWND__@@K@std@@PAX@std@@@std@@@std@@QBEIXZ 004d34d0 f i externalsListDialog.obj
 0002:00083530       ?max_size@?$allocator@U?$_Tree_node@U?$pair@QAUHWND__@@K@std@@PAX@std@@@std@@QBEIXZ 004d3530 f i externalsListDialog.obj
 0002:00083570       ?max_size@?$allocator_traits@V?$allocator@U?$_Tree_node@U?$pair@QAUHWND__@@K@std@@PAX@std@@@std@@@std@@SAIABV?$allocator@U?$_Tree_node@U?$pair@QAUHWND__@@K@std@@PAX@std@@@2@@Z 004d3570 f i externalsListDialog.obj
 0002:000835c0       ?pointer_to@?$pointer_traits@PAU?$pair@QAUHWND__@@K@std@@@std@@SAPAU?$pair@QAUHWND__@@K@2@AAU32@@Z 004d35c0 f i externalsListDialog.obj
 0002:00083610       ?size@?$_Tree@V?$_Tmap_traits@PAUHWND__@@KU?$less@PAUHWND__@@@std@@V?$allocator@U?$pair@QAUHWND__@@K@std@@@3@$0A@@std@@@std@@QBEIXZ 004d3610 f i externalsListDialog.obj
 0002:00083650       ??0CGetArguments@@QAE@PBDH@Z 004d3650 f   GetArguments.obj
 0002:00083a10       ??1CGetArguments@@UAE@XZ   004d3a10 f   GetArguments.obj
 0002:00083b50       ??_GCGetArguments@@UAEPAXI@Z 004d3b50 f i GetArguments.obj
 0002:00083b50       ??_ECGetArguments@@UAEPAXI@Z 004d3b50 f i GetArguments.obj
 0002:00083bc0       ??0networkInterface@@QAE@XZ 004d3bc0 f   networkInterface.obj
 0002:00083cf0       ??1networkInterface@@UAE@XZ 004d3cf0 f   networkInterface.obj
 0002:00083d50       ?netOpen@networkInterface@@QAE_NHHH@Z 004d3d50 f   networkInterface.obj
 0002:00084060       ?netClose@networkInterface@@QAEXXZ 004d4060 f   networkInterface.obj
 0002:00084160       ?isOk@networkInterface@@QAE_NXZ 004d4160 f   networkInterface.obj
 0002:000841a0       ?netTx@networkInterface@@QAEXPBDH@Z 004d41a0 f   networkInterface.obj
 0002:00084210       ?rxThread@@YAXPAX@Z        004d4210 f   networkInterface.obj
 0002:00084480       ?name@networkInterface@@QAEPBDXZ 004d4480 f   networkInterface.obj
 0002:000844c0       ?netRx@networkInterface@@MAEXPBEH@Z 004d44c0 f   networkInterface.obj
 0002:00084860       ??_GnetworkInterface@@UAEPAXI@Z 004d4860 f i networkInterface.obj
 0002:00084860       ??_EnetworkInterface@@UAEPAXI@Z 004d4860 f i networkInterface.obj
 0002:000848d0       ??0networkInterfaceImpl@@QAE@XZ 004d48d0 f   networkInterfaceImpl.obj
 0002:00084910       ??1networkInterfaceImpl@@UAE@XZ 004d4910 f   networkInterfaceImpl.obj
 0002:00084950       ?netRx@networkInterfaceImpl@@SAXPBEH@Z 004d4950 f   networkInterfaceImpl.obj
 0002:00085e40       ??$?0AAKAAVsizedBuffer@@X@?$pair@KVsizedBuffer@@@std@@QAE@AAKAAVsizedBuffer@@@Z 004d5e40 f i networkInterfaceImpl.obj
 0002:00085f10       ??$?0AAKVsizedBuffer@@X@?$pair@KVsizedBuffer@@@std@@QAE@AAK$$QAVsizedBuffer@@@Z 004d5f10 f i networkInterfaceImpl.obj
 0002:00085fe0       ??$?0ABK$$$V@?$pair@$$CBKVsizedBuffer@@@std@@QAE@Upiecewise_construct_t@1@V?$tuple@ABK@1@V?$tuple@$$$V@1@@Z 004d5fe0 f i networkInterfaceImpl.obj
 0002:000860b0       ??$?0ABK@?$_Tuple_val@ABK@std@@QAE@ABK@Z 004d60b0 f i networkInterfaceImpl.obj
 0002:00086110       ??$?0ABKPAPAX@?$tuple@ABK@std@@QAE@$$QAV01@@Z 004d6110 f i networkInterfaceImpl.obj
 0002:000861a0       ??$?0V?$tuple@ABK@std@@V?$tuple@$$$V@1@$0A@$S@?$pair@$$CBKVsizedBuffer@@@std@@QAE@AAV?$tuple@ABK@1@AAV?$tuple@$$$V@1@U?$_Arg_idx@$0A@@1@U?$_Arg_idx@$S@1@@Z 004d61a0 f i networkInterfaceImpl.obj
 0002:00086270       ??$_Buynode@ABUpiecewise_construct_t@std@@V?$tuple@ABK@2@V?$tuple@$$$V@2@@?$_Tree_buy@U?$pair@$$CBKVsizedBuffer@@@std@@V?$allocator@U?$pair@$$CBKVsizedBuffer@@@std@@@2@@std@@QAEPAU?$_Tree_node@U?$pair@$$CBKVsizedBuffer@@@std@@PAX@1@ABUpiecewise_construct_t@1@$$QAV?$tuple@ABK@1@$$QAV?$tuple@$$$V@1@@Z 004d6270 f i networkInterfaceImpl.obj
 0002:000863d0       ??$_Buynode@VserialError@@@?$_List_buy@VserialError@@V?$allocator@VserialError@@@std@@@std@@QAEPAU?$_List_node@VserialError@@PAX@1@PAU21@0$$QAVserialError@@@Z 004d63d0 f i networkInterfaceImpl.obj
 0002:00086510       ??$_Insert@VserialError@@@?$list@VserialError@@V?$allocator@VserialError@@@std@@@std@@QAEXV?$_List_unchecked_const_iterator@V?$_List_val@U?$_List_simple_types@VserialError@@@std@@@std@@U_Iterator_base0@2@@1@$$QAVserialError@@@Z 004d6510 f i networkInterfaceImpl.obj
 0002:000865e0       ??$_Insert_hint@AAU?$pair@$$CBKVsizedBuffer@@@std@@PAU?$_Tree_node@U?$pair@$$CBKVsizedBuffer@@@std@@PAX@2@@?$_Tree@V?$_Tmap_traits@KVsizedBuffer@@U?$less@K@std@@V?$allocator@U?$pair@$$CBKVsizedBuffer@@@std@@@3@$0A@@std@@@std@@IAE?AV?$_Tree_iterator@V?$_Tree_val@U?$_Tree_simple_types@U?$pair@$$CBKVsizedBuffer@@@std@@@std@@@std@@@1@V?$_Tree_const_iterator@V?$_Tree_val@U?$_Tree_simple_types@U?$pair@$$CBKVsizedBuffer@@@std@@@std@@@std@@@1@AAU?$pair@$$CBKVsizedBuffer@@@1@PAU?$_Tree_node@U?$pair@$$CBKVsizedBuffer@@@std@@PAX@1@@Z 004d65e0 f i networkInterfaceImpl.obj
 0002:000876c0       ??$construct@U?$pair@$$CBKVsizedBuffer@@@std@@ABUpiecewise_construct_t@2@V?$tuple@ABK@2@V?$tuple@$$$V@2@@?$_Wrap_alloc@V?$allocator@U?$_Tree_node@U?$pair@$$CBKVsizedBuffer@@@std@@PAX@std@@@std@@@std@@QAEXPAU?$pair@$$CBKVsizedBuffer@@@1@ABUpiecewise_construct_t@1@$$QAV?$tuple@ABK@1@$$QAV?$tuple@$$$V@1@@Z 004d76c0 f i networkInterfaceImpl.obj
 0002:00087750       ??$construct@U?$pair@$$CBKVsizedBuffer@@@std@@ABUpiecewise_construct_t@2@V?$tuple@ABK@2@V?$tuple@$$$V@2@@?$allocator@U?$_Tree_node@U?$pair@$$CBKVsizedBuffer@@@std@@PAX@std@@@std@@QAEXPAU?$pair@$$CBKVsizedBuffer@@@1@ABUpiecewise_construct_t@1@$$QAV?$tuple@ABK@1@$$QAV?$tuple@$$$V@1@@Z 004d7750 f i networkInterfaceImpl.obj
 0002:00087890       ??$construct@U?$pair@$$CBKVsizedBuffer@@@std@@ABUpiecewise_construct_t@2@V?$tuple@ABK@2@V?$tuple@$$$V@2@@?$allocator_traits@V?$allocator@U?$_Tree_node@U?$pair@$$CBKVsizedBuffer@@@std@@PAX@std@@@std@@@std@@SAXAAV?$allocator@U?$_Tree_node@U?$pair@$$CBKVsizedBuffer@@@std@@PAX@std@@@1@PAU?$pair@$$CBKVsizedBuffer@@@1@ABUpiecewise_construct_t@1@$$QAV?$tuple@ABK@1@$$QAV?$tuple@$$$V@1@@Z 004d7890 f i networkInterfaceImpl.obj
 0002:00087910       ??$construct@VserialError@@V1@@?$_Wrap_alloc@V?$allocator@U?$_List_node@VserialError@@PAX@std@@@std@@@std@@QAEXPAVserialError@@$$QAV2@@Z 004d7910 f i networkInterfaceImpl.obj
 0002:00087980       ??$construct@VserialError@@V1@@?$allocator@U?$_List_node@VserialError@@PAX@std@@@std@@QAEXPAVserialError@@$$QAV2@@Z 004d7980 f i networkInterfaceImpl.obj
 0002:00087a80       ??$construct@VserialError@@V1@@?$allocator_traits@V?$allocator@U?$_List_node@VserialError@@PAX@std@@@std@@@std@@SAXAAV?$allocator@U?$_List_node@VserialError@@PAX@std@@@1@PAVserialError@@$$QAV3@@Z 004d7a80 f i networkInterfaceImpl.obj
 0002:00087ae0       ??$emplace_hint@ABUpiecewise_construct_t@std@@V?$tuple@ABK@2@V?$tuple@$$$V@2@@?$_Tree@V?$_Tmap_traits@KVsizedBuffer@@U?$less@K@std@@V?$allocator@U?$pair@$$CBKVsizedBuffer@@@std@@@3@$0A@@std@@@std@@QAE?AV?$_Tree_iterator@V?$_Tree_val@U?$_Tree_simple_types@U?$pair@$$CBKVsizedBuffer@@@std@@@std@@@std@@@1@V?$_Tree_const_iterator@V?$_Tree_val@U?$_Tree_simple_types@U?$pair@$$CBKVsizedBuffer@@@std@@@std@@@std@@@1@ABUpiecewise_construct_t@1@$$QAV?$tuple@ABK@1@$$QAV?$tuple@$$$V@1@@Z 004d7ae0 f i networkInterfaceImpl.obj
 0002:00087c40       ??$forward@AAK@std@@YAAAKAAK@Z 004d7c40 f i networkInterfaceImpl.obj
 0002:00087c80       ??$forward@AAVsizedBuffer@@@std@@YAAAVsizedBuffer@@AAV1@@Z 004d7c80 f i networkInterfaceImpl.obj
 0002:00087cc0       ??$forward@V?$tuple@ABK@std@@@std@@YA$$QAV?$tuple@ABK@0@AAV10@@Z 004d7cc0 f i networkInterfaceImpl.obj
 0002:00087d00       ??$forward_as_tuple@ABK@std@@YA?AV?$tuple@ABK@0@ABK@Z 004d7d00 f i networkInterfaceImpl.obj
 0002:00087d60       ??$get@$0A@ABK@std@@YAABK$$QAV?$tuple@ABK@0@@Z 004d7d60 f i networkInterfaceImpl.obj
 0002:00087db0       ??$make_pair@AAKAAVsizedBuffer@@@std@@YA?AU?$pair@KVsizedBuffer@@@0@AAKAAVsizedBuffer@@@Z 004d7db0 f i networkInterfaceImpl.obj
 0002:00087e80       ??$make_pair@AAKVsizedBuffer@@@std@@YA?AU?$pair@KVsizedBuffer@@@0@AAK$$QAVsizedBuffer@@@Z 004d7e80 f i networkInterfaceImpl.obj
 0002:00087f50       ??$move@AAV?$tuple@ABK@std@@@std@@YA$$QAV?$tuple@ABK@0@AAV10@@Z 004d7f50 f i networkInterfaceImpl.obj
 0002:00087f90       ??0?$_List_unchecked_const_iterator@V?$_List_val@U?$_List_simple_types@VserialError@@@std@@@std@@U_Iterator_base0@2@@std@@QAE@PAU?$_List_node@VserialError@@PAX@1@PBV?$_List_val@U?$_List_simple_types@VserialError@@@std@@@1@@Z 004d7f90 f i networkInterfaceImpl.obj
 0002:00088000       ??0?$_List_unchecked_iterator@V?$_List_val@U?$_List_simple_types@VserialError@@@std@@@std@@@std@@QAE@PAU?$_List_node@VserialError@@PAX@1@PBV?$_List_val@U?$_List_simple_types@VserialError@@@std@@@1@@Z 004d8000 f i networkInterfaceImpl.obj
 0002:00088060       ??0?$_Tree_const_iterator@V?$_Tree_val@U?$_Tree_simple_types@U?$pair@$$CBKVsizedBuffer@@@std@@@std@@@std@@@std@@QAE@XZ 004d8060 f i networkInterfaceImpl.obj
 0002:00088100       ??0?$_Tree_unchecked_const_iterator@V?$_Tree_val@U?$_Tree_simple_types@U?$pair@$$CBKVsizedBuffer@@@std@@@std@@@std@@U_Iterator_base12@2@@std@@QAE@XZ 004d8100 f i networkInterfaceImpl.obj
 0002:000881b0       ??0?$tuple@ABK@std@@QAE@ABK@Z 004d81b0 f i networkInterfaceImpl.obj
 0002:00088220       ??4?$_Iterator012@Ubidirectional_iterator_tag@std@@U?$pair@$$CBKVsizedBuffer@@@2@HPBU32@ABU32@U_Iterator_base12@2@@std@@QAEAAU01@ABU01@@Z 004d8220 f i networkInterfaceImpl.obj
 0002:00088280       ??4?$_Tree_const_iterator@V?$_Tree_val@U?$_Tree_simple_types@U?$pair@$$CBKVsizedBuffer@@@std@@@std@@@std@@@std@@QAEAAV01@ABV01@@Z 004d8280 f i networkInterfaceImpl.obj
 0002:000882e0       ??4?$_Tree_iterator@V?$_Tree_val@U?$_Tree_simple_types@U?$pair@$$CBKVsizedBuffer@@@std@@@std@@@std@@@std@@QAEAAV01@ABV01@@Z 004d82e0 f i networkInterfaceImpl.obj
 0002:00088340       ??4?$_Tree_unchecked_const_iterator@V?$_Tree_val@U?$_Tree_simple_types@U?$pair@$$CBKVsizedBuffer@@@std@@@std@@@std@@U_Iterator_base12@2@@std@@QAEAAV01@ABV01@@Z 004d8340 f i networkInterfaceImpl.obj
 0002:000883b0       ??8serialError@@QAE_NABV0@@Z 004d83b0 f i networkInterfaceImpl.obj
 0002:00088430       ??A?$map@KVsizedBuffer@@U?$less@K@std@@V?$allocator@U?$pair@$$CBKVsizedBuffer@@@std@@@3@@std@@QAEAAVsizedBuffer@@ABK@Z 004d8430 f i networkInterfaceImpl.obj
 0002:00088700       ??_GnetworkInterfaceImpl@@UAEPAXI@Z 004d8700 f i networkInterfaceImpl.obj
 0002:00088700       ??_EnetworkInterfaceImpl@@UAEPAXI@Z 004d8700 f i networkInterfaceImpl.obj
 0002:00088770       ?_Get_rest@?$tuple@ABK@std@@QAEAAV?$tuple@$$$V@2@XZ 004d8770 f i networkInterfaceImpl.obj
 0002:000887b0       ?_Incsize@?$list@VserialError@@V?$allocator@VserialError@@@std@@@std@@QAEXI@Z 004d87b0 f i networkInterfaceImpl.obj
 0002:00088840       ?_Lbound@?$_Tree@V?$_Tmap_traits@KVsizedBuffer@@U?$less@K@std@@V?$allocator@U?$pair@$$CBKVsizedBuffer@@@std@@@3@$0A@@std@@@std@@IAEPAU?$_Tree_node@U?$pair@$$CBKVsizedBuffer@@@std@@PAX@2@ABK@Z 004d8840 f i networkInterfaceImpl.obj
 0002:00088950       ?_Mynode@?$_List_unchecked_const_iterator@V?$_List_val@U?$_List_simple_types@VserialError@@@std@@@std@@U_Iterator_base0@2@@std@@QBEPAU?$_List_node@VserialError@@PAX@2@XZ 004d8950 f i networkInterfaceImpl.obj
 0002:00088990       ?_Unchecked_end@?$list@VserialError@@V?$allocator@VserialError@@@std@@@std@@QAE?AV?$_List_unchecked_iterator@V?$_List_val@U?$_List_simple_types@VserialError@@@std@@@std@@@2@XZ 004d8990 f i networkInterfaceImpl.obj
 0002:00088a00       ?find@?$_Tree@V?$_Tmap_traits@KVsizedBuffer@@U?$less@K@std@@V?$allocator@U?$pair@$$CBKVsizedBuffer@@@std@@@3@$0A@@std@@@std@@QAE?AV?$_Tree_iterator@V?$_Tree_val@U?$_Tree_simple_types@U?$pair@$$CBKVsizedBuffer@@@std@@@std@@@std@@@2@ABK@Z 004d8a00 f i networkInterfaceImpl.obj
 0002:00088d10       ?lower_bound@?$_Tree@V?$_Tmap_traits@KVsizedBuffer@@U?$less@K@std@@V?$allocator@U?$pair@$$CBKVsizedBuffer@@@std@@@3@$0A@@std@@@std@@QAE?AV?$_Tree_iterator@V?$_Tree_val@U?$_Tree_simple_types@U?$pair@$$CBKVsizedBuffer@@@std@@@std@@@std@@@2@ABK@Z 004d8d10 f i networkInterfaceImpl.obj
 0002:00088de0       ?max_size@?$_Wrap_alloc@V?$allocator@U?$_List_node@VserialError@@PAX@std@@@std@@@std@@QBEIXZ 004d8de0 f i networkInterfaceImpl.obj
 0002:00088e40       ?max_size@?$allocator@U?$_List_node@VserialError@@PAX@std@@@std@@QBEIXZ 004d8e40 f i networkInterfaceImpl.obj
 0002:00088e80       ?max_size@?$allocator_traits@V?$allocator@U?$_List_node@VserialError@@PAX@std@@@std@@@std@@SAIABV?$allocator@U?$_List_node@VserialError@@PAX@std@@@2@@Z 004d8e80 f i networkInterfaceImpl.obj
 0002:00088ed0       ?max_size@?$list@VserialError@@V?$allocator@VserialError@@@std@@@std@@QBEIXZ 004d8ed0 f i networkInterfaceImpl.obj
 0002:00088f30       ?push_back@?$list@VserialError@@V?$allocator@VserialError@@@std@@@std@@QAEX$$QAVserialError@@@Z 004d8f30 f i networkInterfaceImpl.obj
 0002:00088fc0       ?setCorrected@serialError@@QAE_NK@Z 004d8fc0 f i networkInterfaceImpl.obj
 0002:00089070       ??0pktRecoveryDialog@@QAE@XZ 004d9070 f   pktRecoveryDialog.obj
 0002:000890b0       ?init@pktRecoveryDialog@@QAEXPAUHINSTANCE__@@PAUHWND__@@@Z 004d90b0 f   pktRecoveryDialog.obj
 0002:00089110       ??1pktRecoveryDialog@@UAE@XZ 004d9110 f   pktRecoveryDialog.obj
 0002:00089170       ?show@pktRecoveryDialog@@QAEXXZ 004d9170 f   pktRecoveryDialog.obj
 0002:000891e0       ?hide@pktRecoveryDialog@@QAEXXZ 004d91e0 f   pktRecoveryDialog.obj
 0002:00089250       ?pktRecoveryWndProc@pktRecoveryDialog@@CGHPAUHWND__@@GGJ@Z 004d9250 f   pktRecoveryDialog.obj
 0002:00089580       ??_GpktRecoveryDialog@@UAEPAXI@Z 004d9580 f i pktRecoveryDialog.obj
 0002:00089580       ??_EpktRecoveryDialog@@UAEPAXI@Z 004d9580 f i pktRecoveryDialog.obj
 0002:000895f0       ?size@?$_Tree@V?$_Tmap_traits@GVserialError@@U?$less@G@std@@V?$allocator@U?$pair@$$CBGVserialError@@@std@@@3@$00@std@@@std@@QBEIXZ 004d95f0 f i pktRecoveryDialog.obj
 0002:00089630       ?GetPrivateINIString@@YAXPBD00PADKQAD@Z 004d9630 f   PROFILE.obj
 0002:00089720       ?WritePrivateINIString@@YAXPBD000@Z 004d9720 f   PROFILE.obj
 0002:00089940       ?GetEnvironmentType@@YAHXZ 004d9940 f   PROFILE.obj
 0002:000899f0       ?GetINIPath@@YAPADPBD@Z    004d99f0 f   PROFILE.obj
 0002:00089b50       ?GetTempPathA@@YAPADXZ     004d9b50 f   PROFILE.obj
 0002:00089dd0       ??0sizedBuffer@@QAE@XZ     004d9dd0 f   sizedBuffer.obj
 0002:00089e20       ??0sizedBuffer@@QAE@PBEHH@Z 004d9e20 f   sizedBuffer.obj
 0002:00089ee0       ??0sizedBuffer@@QAE@ABV0@@Z 004d9ee0 f   sizedBuffer.obj
 0002:00089f40       ??1sizedBuffer@@UAE@XZ     004d9f40 f   sizedBuffer.obj
 0002:00089fb0       ??0sizedBuffer@@QAE@$$QAV0@@Z 004d9fb0 f   sizedBuffer.obj
 0002:0008a030       ??4sizedBuffer@@QAEAAV0@$$QAV0@@Z 004da030 f   sizedBuffer.obj
 0002:0008a0c0       ?size@sizedBuffer@@QBEHXZ  004da0c0 f   sizedBuffer.obj
 0002:0008a0f0       ?data@sizedBuffer@@QBEPBEXZ 004da0f0 f   sizedBuffer.obj
 0002:0008a120       ?ref@sizedBuffer@@QBEHXZ   004da120 f   sizedBuffer.obj
 0002:0008a150       ??4sizedBuffer@@QAEAAV0@ABV0@@Z 004da150 f   sizedBuffer.obj
 0002:0008a1d0       ??8@YA_NABVsizedBuffer@@0@Z 004da1d0 f   sizedBuffer.obj
 0002:0008a250       ??AsizedBuffer@@QBEEH@Z    004da250 f   sizedBuffer.obj
 0002:0008a2a0       ?doCopy@sizedBuffer@@AAEXABV1@@Z 004da2a0 f   sizedBuffer.obj
 0002:0008a4d0       ??_EsizedBuffer@@UAEPAXI@Z 004da4d0 f i sizedBuffer.obj
 0002:0008a4d0       ??_GsizedBuffer@@UAEPAXI@Z 004da4d0 f i sizedBuffer.obj
 0002:0008a540       ?fnSplitString@@YAHPAD0HPAPAD@Z 004da540 f   SplitString.obj
 0002:0008a700       ??0supersededMemory@@QAE@XZ 004da700 f   supersededMemory.obj
 0002:0008a7a0       ??1supersededMemory@@UAE@XZ 004da7a0 f   supersededMemory.obj
 0002:0008a840       ?add@supersededMemory@@QAEXHHK@Z 004da840 f   supersededMemory.obj
 0002:0008aad0       ?isSuperseded@supersededMemory@@QAE_NHHK@Z 004daad0 f   supersededMemory.obj
 0002:0008acc0       ?cleanup@supersededMemory@@QAEXK@Z 004dacc0 f   supersededMemory.obj
 0002:0008ae60       ?dump@supersededMemory@@QAEXXZ 004dae60 f   supersededMemory.obj
 0002:0008b260       ??$?0AAKAAKX@?$pair@KK@std@@QAE@AAK0@Z 004db260 f i supersededMemory.obj
 0002:0008b2e0       ??$?0AAV?$_Tree_iterator@V?$_Tree_val@U?$_Tree_simple_types@U?$pair@$$CBKK@std@@@std@@@std@@@std@@_NX@?$pair@V?$_Tree_iterator@V?$_Tree_val@U?$_Tree_simple_types@U?$pair@$$CBKK@std@@@std@@@std@@@std@@_N@std@@QAE@AAV?$_Tree_iterator@V?$_Tree_val@U?$_Tree_simple_types@U?$pair@$$CBKK@std@@@std@@@std@@@1@$$QA_N@Z 004db2e0 f i supersededMemory.obj
 0002:0008b3b0       ??$?0KKX@?$pair@$$CBKK@std@@QAE@$$QAU?$pair@KK@1@@Z 004db3b0 f i supersededMemory.obj
 0002:0008b430       ??$?0U?$_Tree_node@U?$pair@$$CBKK@std@@PAX@std@@@?$allocator@U_Container_proxy@std@@@std@@QAE@ABV?$allocator@U?$_Tree_node@U?$pair@$$CBKK@std@@PAX@std@@@1@@Z 004db430 f i supersededMemory.obj
 0002:0008b470       ??$?0U?$_Wrap_alloc@V?$allocator@U?$_Tree_node@U?$pair@$$CBKK@std@@PAX@std@@@std@@@std@@@?$_Wrap_alloc@V?$allocator@U_Container_proxy@std@@@std@@@std@@QAE@ABU?$_Wrap_alloc@V?$allocator@U?$_Tree_node@U?$pair@$$CBKK@std@@PAX@std@@@std@@@1@@Z 004db470 f i supersededMemory.obj
 0002:0008b4d0       ??$?0V?$_Tree_iterator@V?$_Tree_val@U?$_Tree_simple_types@U?$pair@$$CBKK@std@@@std@@@std@@@std@@_NX@?$pair@V?$_Tree_iterator@V?$_Tree_val@U?$_Tree_simple_types@U?$pair@$$CBKK@std@@@std@@@std@@@std@@_N@std@@QAE@$$QAV?$_Tree_iterator@V?$_Tree_val@U?$_Tree_simple_types@U?$pair@$$CBKK@std@@@std@@@std@@@1@$$QA_N@Z 004db4d0 f i supersededMemory.obj
 0002:0008b5a0       ??$_Allocate@U?$_Tree_node@U?$pair@$$CBKK@std@@PAX@std@@@std@@YAPAU?$_Tree_node@U?$pair@$$CBKK@std@@PAX@0@IPAU10@@Z 004db5a0 f i supersededMemory.obj
 0002:0008b630       ??$_Buynode@U?$pair@KK@std@@@?$_Tree_buy@U?$pair@$$CBKK@std@@V?$allocator@U?$pair@$$CBKK@std@@@2@@std@@QAEPAU?$_Tree_node@U?$pair@$$CBKK@std@@PAX@1@$$QAU?$pair@KK@1@@Z 004db630 f i supersededMemory.obj
 0002:0008b770       ??$_Buynode_if_nil@AAU?$pair@$$CBKK@std@@@?$_Tree@V?$_Tmap_traits@KKU?$less@K@std@@V?$allocator@U?$pair@$$CBKK@std@@@2@$0A@@std@@@std@@IAEPAU?$_Tree_node@U?$pair@$$CBKK@std@@PAX@1@PAU21@AAU?$pair@$$CBKK@1@@Z 004db770 f i supersededMemory.obj
 0002:0008b7b0       ??$_Insert_at@AAU?$pair@$$CBKK@std@@PAU?$_Tree_node@U?$pair@$$CBKK@std@@PAX@2@@?$_Tree@V?$_Tmap_traits@KKU?$less@K@std@@V?$allocator@U?$pair@$$CBKK@std@@@2@$0A@@std@@@std@@IAE?AV?$_Tree_iterator@V?$_Tree_val@U?$_Tree_simple_types@U?$pair@$$CBKK@std@@@std@@@std@@@1@_NPAU?$_Tree_node@U?$pair@$$CBKK@std@@PAX@1@AAU?$pair@$$CBKK@1@1@Z 004db7b0 f i supersededMemory.obj
 0002:0008bd80       ??$_Insert_nohint@AAU?$pair@$$CBKK@std@@PAU?$_Tree_node@U?$pair@$$CBKK@std@@PAX@2@@?$_Tree@V?$_Tmap_traits@KKU?$less@K@std@@V?$allocator@U?$pair@$$CBKK@std@@@2@$0A@@std@@@std@@IAE?AU?$pair@V?$_Tree_iterator@V?$_Tree_val@U?$_Tree_simple_types@U?$pair@$$CBKK@std@@@std@@@std@@@std@@_N@1@_NAAU?$pair@$$CBKK@1@PAU?$_Tree_node@U?$pair@$$CBKK@std@@PAX@1@@Z 004dbd80 f i supersededMemory.obj
 0002:0008c390       ??$_Kfn@$$CBKK@?$_Tmap_traits@KKU?$less@K@std@@V?$allocator@U?$pair@$$CBKK@std@@@2@$0A@@std@@SAABKABU?$pair@$$CBKK@1@@Z 004dc390 f i supersededMemory.obj
 0002:0008c3d0       ??$addressof@PAU?$_Tree_node@U?$pair@$$CBKK@std@@PAX@std@@@std@@YAPAPAU?$_Tree_node@U?$pair@$$CBKK@std@@PAX@0@AAPAU10@@Z 004dc3d0 f i supersededMemory.obj
 0002:0008c410       ??$addressof@U?$pair@$$CBKK@std@@@std@@YAPAU?$pair@$$CBKK@0@AAU10@@Z 004dc410 f i supersededMemory.obj
 0002:0008c450       ??$construct@PAU?$_Tree_node@U?$pair@$$CBKK@std@@PAX@std@@AAPAU12@@?$_Wrap_alloc@V?$allocator@U?$_Tree_node@U?$pair@$$CBKK@std@@PAX@std@@@std@@@std@@QAEXPAPAU?$_Tree_node@U?$pair@$$CBKK@std@@PAX@1@AAPAU21@@Z 004dc450 f i supersededMemory.obj
 0002:0008c4c0       ??$construct@PAU?$_Tree_node@U?$pair@$$CBKK@std@@PAX@std@@AAPAU12@@?$allocator@U?$_Tree_node@U?$pair@$$CBKK@std@@PAX@std@@@std@@QAEXPAPAU?$_Tree_node@U?$pair@$$CBKK@std@@PAX@1@AAPAU21@@Z 004dc4c0 f i supersededMemory.obj
 0002:0008c5c0       ??$construct@PAU?$_Tree_node@U?$pair@$$CBKK@std@@PAX@std@@AAPAU12@@?$allocator_traits@V?$allocator@U?$_Tree_node@U?$pair@$$CBKK@std@@PAX@std@@@std@@@std@@SAXAAV?$allocator@U?$_Tree_node@U?$pair@$$CBKK@std@@PAX@std@@@1@PAPAU?$_Tree_node@U?$pair@$$CBKK@std@@PAX@1@AAPAU31@@Z 004dc5c0 f i supersededMemory.obj
 0002:0008c620       ??$construct@U?$pair@$$CBKK@std@@U?$pair@KK@2@@?$_Wrap_alloc@V?$allocator@U?$_Tree_node@U?$pair@$$CBKK@std@@PAX@std@@@std@@@std@@QAEXPAU?$pair@$$CBKK@1@$$QAU?$pair@KK@1@@Z 004dc620 f i supersededMemory.obj
 0002:0008c690       ??$construct@U?$pair@$$CBKK@std@@U?$pair@KK@2@@?$allocator@U?$_Tree_node@U?$pair@$$CBKK@std@@PAX@std@@@std@@QAEXPAU?$pair@$$CBKK@1@$$QAU?$pair@KK@1@@Z 004dc690 f i supersededMemory.obj
 0002:0008c790       ??$construct@U?$pair@$$CBKK@std@@U?$pair@KK@2@@?$allocator_traits@V?$allocator@U?$_Tree_node@U?$pair@$$CBKK@std@@PAX@std@@@std@@@std@@SAXAAV?$allocator@U?$_Tree_node@U?$pair@$$CBKK@std@@PAX@std@@@1@PAU?$pair@$$CBKK@1@$$QAU?$pair@KK@1@@Z 004dc790 f i supersededMemory.obj
 0002:0008c7f0       ??$destroy@PAU?$_Tree_node@U?$pair@$$CBKK@std@@PAX@std@@@?$_Wrap_alloc@V?$allocator@U?$_Tree_node@U?$pair@$$CBKK@std@@PAX@std@@@std@@@std@@QAEXPAPAU?$_Tree_node@U?$pair@$$CBKK@std@@PAX@1@@Z 004dc7f0 f i supersededMemory.obj
 0002:0008c850       ??$destroy@PAU?$_Tree_node@U?$pair@$$CBKK@std@@PAX@std@@@?$allocator@U?$_Tree_node@U?$pair@$$CBKK@std@@PAX@std@@@std@@QAEXPAPAU?$_Tree_node@U?$pair@$$CBKK@std@@PAX@1@@Z 004dc850 f i supersededMemory.obj
 0002:0008c890       ??$destroy@PAU?$_Tree_node@U?$pair@$$CBKK@std@@PAX@std@@@?$allocator_traits@V?$allocator@U?$_Tree_node@U?$pair@$$CBKK@std@@PAX@std@@@std@@@std@@SAXAAV?$allocator@U?$_Tree_node@U?$pair@$$CBKK@std@@PAX@std@@@1@PAPAU?$_Tree_node@U?$pair@$$CBKK@std@@PAX@1@@Z 004dc890 f i supersededMemory.obj
 0002:0008c8e0       ??$destroy@U?$pair@$$CBKK@std@@@?$_Wrap_alloc@V?$allocator@U?$_Tree_node@U?$pair@$$CBKK@std@@PAX@std@@@std@@@std@@QAEXPAU?$pair@$$CBKK@1@@Z 004dc8e0 f i supersededMemory.obj
 0002:0008c940       ??$destroy@U?$pair@$$CBKK@std@@@?$allocator@U?$_Tree_node@U?$pair@$$CBKK@std@@PAX@std@@@std@@QAEXPAU?$pair@$$CBKK@1@@Z 004dc940 f i supersededMemory.obj
 0002:0008c980       ??$destroy@U?$pair@$$CBKK@std@@@?$allocator_traits@V?$allocator@U?$_Tree_node@U?$pair@$$CBKK@std@@PAX@std@@@std@@@std@@SAXAAV?$allocator@U?$_Tree_node@U?$pair@$$CBKK@std@@PAX@std@@@1@PAU?$pair@$$CBKK@1@@Z 004dc980 f i supersededMemory.obj
 0002:0008c9d0       ??$forward@AAPAU?$_Tree_node@U?$pair@$$CBKK@std@@PAX@std@@@std@@YAAAPAU?$_Tree_node@U?$pair@$$CBKK@std@@PAX@0@AAPAU10@@Z 004dc9d0 f i supersededMemory.obj
 0002:0008ca10       ??$forward@AAU?$pair@$$CBKK@std@@@std@@YAAAU?$pair@$$CBKK@0@AAU10@@Z 004dca10 f i supersededMemory.obj
 0002:0008ca50       ??$forward@AAV?$_Tree_iterator@V?$_Tree_val@U?$_Tree_simple_types@U?$pair@$$CBKK@std@@@std@@@std@@@std@@@std@@YAAAV?$_Tree_iterator@V?$_Tree_val@U?$_Tree_simple_types@U?$pair@$$CBKK@std@@@std@@@std@@@0@AAV10@@Z 004dca50 f i supersededMemory.obj
 0002:0008ca90       ??$forward@U?$pair@KK@std@@@std@@YA$$QAU?$pair@KK@0@AAU10@@Z 004dca90 f i supersededMemory.obj
 0002:0008cad0       ??$forward@V?$_Tree_iterator@V?$_Tree_val@U?$_Tree_simple_types@U?$pair@$$CBKK@std@@@std@@@std@@@std@@@std@@YA$$QAV?$_Tree_iterator@V?$_Tree_val@U?$_Tree_simple_types@U?$pair@$$CBKK@std@@@std@@@std@@@0@AAV10@@Z 004dcad0 f i supersededMemory.obj
 0002:0008cb10       ??$insert@U?$pair@KK@std@@@?$_Tree@V?$_Tmap_traits@KKU?$less@K@std@@V?$allocator@U?$pair@$$CBKK@std@@@2@$0A@@std@@@std@@QAE?AU?$pair@V?$_Tree_iterator@V?$_Tree_val@U?$_Tree_simple_types@U?$pair@$$CBKK@std@@@std@@@std@@@std@@_N@1@$$QAU?$pair@KK@1@@Z 004dcb10 f i supersededMemory.obj
 0002:0008cc00       ??$make_pair@AAKAAK@std@@YA?AU?$pair@KK@0@AAK0@Z 004dcc00 f i supersededMemory.obj
 0002:0008cc70       ??0?$_Iterator012@Ubidirectional_iterator_tag@std@@U?$pair@$$CBKK@2@HPBU32@ABU32@U_Iterator_base12@2@@std@@QAE@ABU01@@Z 004dcc70 f i supersededMemory.obj
 0002:0008cd10       ??0?$_Iterator012@Ubidirectional_iterator_tag@std@@U?$pair@$$CBKK@2@HPBU32@ABU32@U_Iterator_base12@2@@std@@QAE@XZ 004dcd10 f i supersededMemory.obj
 0002:0008cdb0       ??0?$_Tree@V?$_Tmap_traits@KKU?$less@K@std@@V?$allocator@U?$pair@$$CBKK@std@@@2@$0A@@std@@@std@@QAE@ABU?$less@K@1@ABV?$allocator@U?$pair@$$CBKK@std@@@1@@Z 004dcdb0 f i supersededMemory.obj
 0002:0008ce60       ??0?$_Tree_alloc@$0A@U?$_Tree_base_types@U?$pair@$$CBKK@std@@V?$allocator@U?$pair@$$CBKK@std@@@2@@std@@@std@@QAE@ABV?$allocator@U?$pair@$$CBKK@std@@@1@@Z 004dce60 f i supersededMemory.obj
 0002:0008cf60       ??0?$_Tree_buy@U?$pair@$$CBKK@std@@V?$allocator@U?$pair@$$CBKK@std@@@2@@std@@QAE@ABV?$allocator@U?$pair@$$CBKK@std@@@1@@Z 004dcf60 f i supersededMemory.obj
 0002:0008d000       ??0?$_Tree_comp@$0A@V?$_Tmap_traits@KKU?$less@K@std@@V?$allocator@U?$pair@$$CBKK@std@@@2@$0A@@std@@@std@@QAE@ABU?$less@K@1@ABV?$allocator@U?$pair@$$CBKK@std@@@1@@Z 004dd000 f i supersededMemory.obj
 0002:0008d0a0       ??0?$_Tree_const_iterator@V?$_Tree_val@U?$_Tree_simple_types@U?$pair@$$CBKK@std@@@std@@@std@@@std@@QAE@ABV01@@Z 004dd0a0 f i supersededMemory.obj
 0002:0008d140       ??0?$_Tree_const_iterator@V?$_Tree_val@U?$_Tree_simple_types@U?$pair@$$CBKK@std@@@std@@@std@@@std@@QAE@PAU?$_Tree_node@U?$pair@$$CBKK@std@@PAX@1@PBV?$_Tree_val@U?$_Tree_simple_types@U?$pair@$$CBKK@std@@@std@@@1@@Z 004dd140 f i supersededMemory.obj
 0002:0008d1f0       ??0?$_Tree_iterator@V?$_Tree_val@U?$_Tree_simple_types@U?$pair@$$CBKK@std@@@std@@@std@@@std@@QAE@ABV01@@Z 004dd1f0 f i supersededMemory.obj
 0002:0008d290       ??0?$_Tree_iterator@V?$_Tree_val@U?$_Tree_simple_types@U?$pair@$$CBKK@std@@@std@@@std@@@std@@QAE@PAU?$_Tree_node@U?$pair@$$CBKK@std@@PAX@1@PBV?$_Tree_val@U?$_Tree_simple_types@U?$pair@$$CBKK@std@@@std@@@1@@Z 004dd290 f i supersededMemory.obj
 0002:0008d340       ??0?$_Tree_unchecked_const_iterator@V?$_Tree_val@U?$_Tree_simple_types@U?$pair@$$CBKK@std@@@std@@@std@@U_Iterator_base12@2@@std@@QAE@ABV01@@Z 004dd340 f i supersededMemory.obj
 0002:0008d3f0       ??0?$_Tree_unchecked_const_iterator@V?$_Tree_val@U?$_Tree_simple_types@U?$pair@$$CBKK@std@@@std@@@std@@U_Iterator_base12@2@@std@@QAE@PAU?$_Tree_node@U?$pair@$$CBKK@std@@PAX@1@PBV?$_Tree_val@U?$_Tree_simple_types@U?$pair@$$CBKK@std@@@std@@@1@@Z 004dd3f0 f i supersededMemory.obj
 0002:0008d4b0       ??0?$_Tree_val@U?$_Tree_simple_types@U?$pair@$$CBKK@std@@@std@@@std@@QAE@XZ 004dd4b0 f i supersededMemory.obj
 0002:0008d570       ??0?$_Wrap_alloc@V?$allocator@U?$_Tree_node@U?$pair@$$CBKK@std@@PAX@std@@@std@@@std@@QAE@XZ 004dd570 f i supersededMemory.obj
 0002:0008d5d0       ??0?$allocator@U?$_Tree_node@U?$pair@$$CBKK@std@@PAX@std@@@std@@QAE@XZ 004dd5d0 f i supersededMemory.obj
 0002:0008d610       ??0?$allocator@U?$pair@$$CBKK@std@@@std@@QAE@XZ 004dd610 f i supersededMemory.obj
 0002:0008d650       ??0?$map@KKU?$less@K@std@@V?$allocator@U?$pair@$$CBKK@std@@@2@@std@@QAE@XZ 004dd650 f i supersededMemory.obj
 0002:0008d700       ??1?$_Iterator012@Ubidirectional_iterator_tag@std@@U?$pair@$$CBKK@2@HPBU32@ABU32@U_Iterator_base12@2@@std@@QAE@XZ 004dd700 f i supersededMemory.obj
 0002:0008d7a0       ??1?$_Tree@V?$_Tmap_traits@KKU?$less@K@std@@V?$allocator@U?$pair@$$CBKK@std@@@2@$0A@@std@@@std@@QAE@XZ 004dd7a0 f i supersededMemory.obj
 0002:0008d840       ??1?$_Tree_alloc@$0A@U?$_Tree_base_types@U?$pair@$$CBKK@std@@V?$allocator@U?$pair@$$CBKK@std@@@2@@std@@@std@@QAE@XZ 004dd840 f i supersededMemory.obj
 0002:0008d900       ??1?$_Tree_buy@U?$pair@$$CBKK@std@@V?$allocator@U?$pair@$$CBKK@std@@@2@@std@@QAE@XZ 004dd900 f i supersededMemory.obj
 0002:0008d9a0       ??1?$_Tree_comp@$0A@V?$_Tmap_traits@KKU?$less@K@std@@V?$allocator@U?$pair@$$CBKK@std@@@2@$0A@@std@@@std@@QAE@XZ 004dd9a0 f i supersededMemory.obj
 0002:0008da40       ??1?$_Tree_const_iterator@V?$_Tree_val@U?$_Tree_simple_types@U?$pair@$$CBKK@std@@@std@@@std@@@std@@QAE@XZ 004dda40 f i supersededMemory.obj
 0002:0008dae0       ??1?$_Tree_iterator@V?$_Tree_val@U?$_Tree_simple_types@U?$pair@$$CBKK@std@@@std@@@std@@@std@@QAE@XZ 004ddae0 f i supersededMemory.obj
 0002:0008db80       ??1?$_Tree_unchecked_const_iterator@V?$_Tree_val@U?$_Tree_simple_types@U?$pair@$$CBKK@std@@@std@@@std@@U_Iterator_base12@2@@std@@QAE@XZ 004ddb80 f i supersededMemory.obj
 0002:0008dc20       ??1?$_Tree_val@U?$_Tree_simple_types@U?$pair@$$CBKK@std@@@std@@@std@@QAE@XZ 004ddc20 f i supersededMemory.obj
 0002:0008dcd0       ??1?$map@KKU?$less@K@std@@V?$allocator@U?$pair@$$CBKK@std@@@2@@std@@QAE@XZ 004ddcd0 f i supersededMemory.obj
 0002:0008dd70       ??1?$pair@V?$_Tree_iterator@V?$_Tree_val@U?$_Tree_simple_types@U?$pair@$$CBKK@std@@@std@@@std@@@std@@_N@std@@QAE@XZ 004ddd70 f i supersededMemory.obj
 0002:0008de10       ??4?$_Iterator012@Ubidirectional_iterator_tag@std@@U?$pair@$$CBKK@2@HPBU32@ABU32@U_Iterator_base12@2@@std@@QAEAAU01@ABU01@@Z 004dde10 f i supersededMemory.obj
 0002:0008de70       ??4?$_Tree_const_iterator@V?$_Tree_val@U?$_Tree_simple_types@U?$pair@$$CBKK@std@@@std@@@std@@@std@@QAEAAV01@ABV01@@Z 004dde70 f i supersededMemory.obj
 0002:0008ded0       ??4?$_Tree_iterator@V?$_Tree_val@U?$_Tree_simple_types@U?$pair@$$CBKK@std@@@std@@@std@@@std@@QAEAAV01@ABV01@@Z 004dded0 f i supersededMemory.obj
 0002:0008df30       ??4?$_Tree_unchecked_const_iterator@V?$_Tree_val@U?$_Tree_simple_types@U?$pair@$$CBKK@std@@@std@@@std@@U_Iterator_base12@2@@std@@QAEAAV01@ABV01@@Z 004ddf30 f i supersededMemory.obj
 0002:0008dfa0       ??8?$_Tree_const_iterator@V?$_Tree_val@U?$_Tree_simple_types@U?$pair@$$CBKK@std@@@std@@@std@@@std@@QBE_NABV01@@Z 004ddfa0 f i supersededMemory.obj
 0002:0008e100       ??9?$_Tree_const_iterator@V?$_Tree_val@U?$_Tree_simple_types@U?$pair@$$CBKK@std@@@std@@@std@@@std@@QBE_NABV01@@Z 004de100 f i supersededMemory.obj
 0002:0008e190       ??C?$_Tree_iterator@V?$_Tree_val@U?$_Tree_simple_types@U?$pair@$$CBKK@std@@@std@@@std@@@std@@QBEPAU?$pair@$$CBKK@1@XZ 004de190 f i supersededMemory.obj
 0002:0008e1f0       ??D?$_Tree_const_iterator@V?$_Tree_val@U?$_Tree_simple_types@U?$pair@$$CBKK@std@@@std@@@std@@@std@@QBEABU?$pair@$$CBKK@1@XZ 004de1f0 f i supersededMemory.obj
 0002:0008e330       ??D?$_Tree_iterator@V?$_Tree_val@U?$_Tree_simple_types@U?$pair@$$CBKK@std@@@std@@@std@@@std@@QBEAAU?$pair@$$CBKK@1@XZ 004de330 f i supersededMemory.obj
 0002:0008e380       ??E?$_Tree_const_iterator@V?$_Tree_val@U?$_Tree_simple_types@U?$pair@$$CBKK@std@@@std@@@std@@@std@@QAE?AV01@H@Z 004de380 f i supersededMemory.obj
 0002:0008e4a0       ??E?$_Tree_const_iterator@V?$_Tree_val@U?$_Tree_simple_types@U?$pair@$$CBKK@std@@@std@@@std@@@std@@QAEAAV01@XZ 004de4a0 f i supersededMemory.obj
 0002:0008e5e0       ??E?$_Tree_iterator@V?$_Tree_val@U?$_Tree_simple_types@U?$pair@$$CBKK@std@@@std@@@std@@@std@@QAEAAV01@XZ 004de5e0 f i supersededMemory.obj
 0002:0008e640       ??E?$_Tree_unchecked_const_iterator@V?$_Tree_val@U?$_Tree_simple_types@U?$pair@$$CBKK@std@@@std@@@std@@U_Iterator_base12@2@@std@@QAEAAV01@XZ 004de640 f i supersededMemory.obj
 0002:0008e770       ??F?$_Tree_const_iterator@V?$_Tree_val@U?$_Tree_simple_types@U?$pair@$$CBKK@std@@@std@@@std@@@std@@QAEAAV01@XZ 004de770 f i supersededMemory.obj
 0002:0008e950       ??F?$_Tree_iterator@V?$_Tree_val@U?$_Tree_simple_types@U?$pair@$$CBKK@std@@@std@@@std@@@std@@QAEAAV01@XZ 004de950 f i supersededMemory.obj
 0002:0008e9b0       ??F?$_Tree_unchecked_const_iterator@V?$_Tree_val@U?$_Tree_simple_types@U?$pair@$$CBKK@std@@@std@@@std@@U_Iterator_base12@2@@std@@QAEAAV01@XZ 004de9b0 f i supersededMemory.obj
 0002:0008eb10       ??_EsupersededMemory@@UAEPAXI@Z 004deb10 f i supersededMemory.obj
 0002:0008eb10       ??_GsupersededMemory@@UAEPAXI@Z 004deb10 f i supersededMemory.obj
 0002:0008eb80       ?_Alloc_proxy@?$_Tree_alloc@$0A@U?$_Tree_base_types@U?$pair@$$CBKK@std@@V?$allocator@U?$pair@$$CBKK@std@@@2@@std@@@std@@QAEXXZ 004deb80 f i supersededMemory.obj
 0002:0008ec60       ?_Buyheadnode@?$_Tree_alloc@$0A@U?$_Tree_base_types@U?$pair@$$CBKK@std@@V?$allocator@U?$pair@$$CBKK@std@@@2@@std@@@std@@QAEPAU?$_Tree_node@U?$pair@$$CBKK@std@@PAX@2@XZ 004dec60 f i supersededMemory.obj
 0002:0008ee70       ?_Buynode0@?$_Tree_buy@U?$pair@$$CBKK@std@@V?$allocator@U?$pair@$$CBKK@std@@@2@@std@@QAEPAU?$_Tree_node@U?$pair@$$CBKK@std@@PAX@2@XZ 004dee70 f i supersededMemory.obj
 0002:0008f030       ?_Color@?$_Tree_val@U?$_Tree_simple_types@U?$pair@$$CBKK@std@@@std@@@std@@SAAADPAU?$_Tree_node@U?$pair@$$CBKK@std@@PAX@2@@Z 004df030 f i supersededMemory.obj
 0002:0008f070       ?_Destroy_if_not_nil@?$_Tree@V?$_Tmap_traits@KKU?$less@K@std@@V?$allocator@U?$pair@$$CBKK@std@@@2@$0A@@std@@@std@@IAEXPAU?$_Tree_node@U?$pair@$$CBKK@std@@PAX@2@@Z 004df070 f i supersededMemory.obj
 0002:0008f120       ?_Erase@?$_Tree@V?$_Tmap_traits@KKU?$less@K@std@@V?$allocator@U?$pair@$$CBKK@std@@@2@$0A@@std@@@std@@IAEXPAU?$_Tree_node@U?$pair@$$CBKK@std@@PAX@2@@Z 004df120 f i supersededMemory.obj
 0002:0008f230       ?_Free_proxy@?$_Tree_alloc@$0A@U?$_Tree_base_types@U?$pair@$$CBKK@std@@V?$allocator@U?$pair@$$CBKK@std@@@2@@std@@@std@@QAEXXZ 004df230 f i supersededMemory.obj
 0002:0008f320       ?_Freeheadnode@?$_Tree_alloc@$0A@U?$_Tree_base_types@U?$pair@$$CBKK@std@@V?$allocator@U?$pair@$$CBKK@std@@@2@@std@@@std@@QAEXPAU?$_Tree_node@U?$pair@$$CBKK@std@@PAX@2@@Z 004df320 f i supersededMemory.obj
 0002:0008f430       ?_Freenode0@?$_Tree_buy@U?$pair@$$CBKK@std@@V?$allocator@U?$pair@$$CBKK@std@@@2@@std@@QAEXPAU?$_Tree_node@U?$pair@$$CBKK@std@@PAX@2@@Z 004df430 f i supersededMemory.obj
 0002:0008f540       ?_Getal@?$_Tree_alloc@$0A@U?$_Tree_base_types@U?$pair@$$CBKK@std@@V?$allocator@U?$pair@$$CBKK@std@@@2@@std@@@std@@QBE?AU?$_Wrap_alloc@V?$allocator@U?$_Tree_node@U?$pair@$$CBKK@std@@PAX@std@@@std@@@2@XZ 004df540 f i supersededMemory.obj
 0002:0008f5a0       ?_Getcomp@?$_Tree_comp@$0A@V?$_Tmap_traits@KKU?$less@K@std@@V?$allocator@U?$pair@$$CBKK@std@@@2@$0A@@std@@@std@@QBE?AU?$less@K@2@XZ 004df5a0 f i supersededMemory.obj
 0002:0008f5e0       ?_Isnil@?$_Tree_val@U?$_Tree_simple_types@U?$pair@$$CBKK@std@@@std@@@std@@SAAADPAU?$_Tree_node@U?$pair@$$CBKK@std@@PAX@2@@Z 004df5e0 f i supersededMemory.obj
 0002:0008f620       ?_Key@?$_Tree@V?$_Tmap_traits@KKU?$less@K@std@@V?$allocator@U?$pair@$$CBKK@std@@@2@$0A@@std@@@std@@IBEABKPAU?$_Tree_node@U?$pair@$$CBKK@std@@PAX@2@@Z 004df620 f i supersededMemory.obj
 0002:0008f690       ?_Kfn@?$_Tree@V?$_Tmap_traits@KKU?$less@K@std@@V?$allocator@U?$pair@$$CBKK@std@@@2@$0A@@std@@@std@@IBEABKABU?$pair@$$CBKK@2@@Z 004df690 f i supersededMemory.obj
 0002:0008f6f0       ?_Lbound@?$_Tree@V?$_Tmap_traits@KKU?$less@K@std@@V?$allocator@U?$pair@$$CBKK@std@@@2@$0A@@std@@@std@@IAEPAU?$_Tree_node@U?$pair@$$CBKK@std@@PAX@2@ABK@Z 004df6f0 f i supersededMemory.obj
 0002:0008f800       ?_Left@?$_Tree_val@U?$_Tree_simple_types@U?$pair@$$CBKK@std@@@std@@@std@@SAAAPAU?$_Tree_node@U?$pair@$$CBKK@std@@PAX@2@PAU32@@Z 004df800 f i supersededMemory.obj
 0002:0008f840       ?_Lmost@?$_Tree@V?$_Tmap_traits@KKU?$less@K@std@@V?$allocator@U?$pair@$$CBKK@std@@@2@$0A@@std@@@std@@IBEAAPAU?$_Tree_node@U?$pair@$$CBKK@std@@PAX@2@XZ 004df840 f i supersededMemory.obj
 0002:0008f8a0       ?_Lrotate@?$_Tree@V?$_Tmap_traits@KKU?$less@K@std@@V?$allocator@U?$pair@$$CBKK@std@@@2@$0A@@std@@@std@@IAEXPAU?$_Tree_node@U?$pair@$$CBKK@std@@PAX@2@@Z 004df8a0 f i supersededMemory.obj
 0002:0008fa50       ?_Max@?$_Tree_val@U?$_Tree_simple_types@U?$pair@$$CBKK@std@@@std@@@std@@SAPAU?$_Tree_node@U?$pair@$$CBKK@std@@PAX@2@PAU32@@Z 004dfa50 f i supersededMemory.obj
 0002:0008fad0       ?_Min@?$_Tree_val@U?$_Tree_simple_types@U?$pair@$$CBKK@std@@@std@@@std@@SAPAU?$_Tree_node@U?$pair@$$CBKK@std@@PAX@2@PAU32@@Z 004dfad0 f i supersededMemory.obj
 0002:0008fb50       ?_Mynode@?$_Tree_unchecked_const_iterator@V?$_Tree_val@U?$_Tree_simple_types@U?$pair@$$CBKK@std@@@std@@@std@@U_Iterator_base12@2@@std@@QBEPAU?$_Tree_node@U?$pair@$$CBKK@std@@PAX@2@XZ 004dfb50 f i supersededMemory.obj
 0002:0008fb90       ?_Myval@?$_Tree_val@U?$_Tree_simple_types@U?$pair@$$CBKK@std@@@std@@@std@@SAAAU?$pair@$$CBKK@2@PAU?$_Tree_node@U?$pair@$$CBKK@std@@PAX@2@@Z 004dfb90 f i supersededMemory.obj
 0002:0008fbd0       ?_Orphan_ptr@?$_Tree@V?$_Tmap_traits@KKU?$less@K@std@@V?$allocator@U?$pair@$$CBKK@std@@@2@$0A@@std@@@std@@IBEXAAV12@PAU?$_Tree_node@U?$pair@$$CBKK@std@@PAX@2@@Z 004dfbd0 f i supersededMemory.obj
 0002:0008fd60       ?_Parent@?$_Tree_val@U?$_Tree_simple_types@U?$pair@$$CBKK@std@@@std@@@std@@SAAAPAU?$_Tree_node@U?$pair@$$CBKK@std@@PAX@2@PAU32@@Z 004dfd60 f i supersededMemory.obj
 0002:0008fda0       ?_Right@?$_Tree_val@U?$_Tree_simple_types@U?$pair@$$CBKK@std@@@std@@@std@@SAAAPAU?$_Tree_node@U?$pair@$$CBKK@std@@PAX@2@PAU32@@Z 004dfda0 f i supersededMemory.obj
 0002:0008fde0       ?_Rmost@?$_Tree@V?$_Tmap_traits@KKU?$less@K@std@@V?$allocator@U?$pair@$$CBKK@std@@@2@$0A@@std@@@std@@IBEAAPAU?$_Tree_node@U?$pair@$$CBKK@std@@PAX@2@XZ 004dfde0 f i supersededMemory.obj
 0002:0008fe40       ?_Root@?$_Tree@V?$_Tmap_traits@KKU?$less@K@std@@V?$allocator@U?$pair@$$CBKK@std@@@2@$0A@@std@@@std@@IBEAAPAU?$_Tree_node@U?$pair@$$CBKK@std@@PAX@2@XZ 004dfe40 f i supersededMemory.obj
 0002:0008fea0       ?_Rrotate@?$_Tree@V?$_Tmap_traits@KKU?$less@K@std@@V?$allocator@U?$pair@$$CBKK@std@@@2@$0A@@std@@@std@@IAEXPAU?$_Tree_node@U?$pair@$$CBKK@std@@PAX@2@@Z 004dfea0 f i supersededMemory.obj
 0002:00090050       ?_Tidy@?$_Tree@V?$_Tmap_traits@KKU?$less@K@std@@V?$allocator@U?$pair@$$CBKK@std@@@2@$0A@@std@@@std@@IAEXXZ 004e0050 f i supersededMemory.obj
 0002:000901f0       ?allocate@?$_Wrap_alloc@V?$allocator@U?$_Tree_node@U?$pair@$$CBKK@std@@PAX@std@@@std@@@std@@QAEPAU?$_Tree_node@U?$pair@$$CBKK@std@@PAX@2@I@Z 004e01f0 f i supersededMemory.obj
 0002:00090250       ?allocate@?$allocator@U?$_Tree_node@U?$pair@$$CBKK@std@@PAX@std@@@std@@QAEPAU?$_Tree_node@U?$pair@$$CBKK@std@@PAX@2@I@Z 004e0250 f i supersededMemory.obj
 0002:000902b0       ?begin@?$_Tree@V?$_Tmap_traits@KKU?$less@K@std@@V?$allocator@U?$pair@$$CBKK@std@@@2@$0A@@std@@@std@@QAE?AV?$_Tree_iterator@V?$_Tree_val@U?$_Tree_simple_types@U?$pair@$$CBKK@std@@@std@@@std@@@2@XZ 004e02b0 f i supersededMemory.obj
 0002:00090380       ?clear@?$_Tree@V?$_Tmap_traits@KKU?$less@K@std@@V?$allocator@U?$pair@$$CBKK@std@@@2@$0A@@std@@@std@@QAEXXZ 004e0380 f i supersededMemory.obj
 0002:00090440       ?deallocate@?$_Wrap_alloc@V?$allocator@U?$_Tree_node@U?$pair@$$CBKK@std@@PAX@std@@@std@@@std@@QAEXPAU?$_Tree_node@U?$pair@$$CBKK@std@@PAX@2@I@Z 004e0440 f i supersededMemory.obj
 0002:000904a0       ?deallocate@?$allocator@U?$_Tree_node@U?$pair@$$CBKK@std@@PAX@std@@@std@@QAEXPAU?$_Tree_node@U?$pair@$$CBKK@std@@PAX@2@I@Z 004e04a0 f i supersededMemory.obj
 0002:00090500       ?end@?$_Tree@V?$_Tmap_traits@KKU?$less@K@std@@V?$allocator@U?$pair@$$CBKK@std@@@2@$0A@@std@@@std@@QAE?AV?$_Tree_iterator@V?$_Tree_val@U?$_Tree_simple_types@U?$pair@$$CBKK@std@@@std@@@std@@@2@XZ 004e0500 f i supersededMemory.obj
 0002:000905c0       ?erase@?$_Tree@V?$_Tmap_traits@KKU?$less@K@std@@V?$allocator@U?$pair@$$CBKK@std@@@2@$0A@@std@@@std@@QAE?AV?$_Tree_iterator@V?$_Tree_val@U?$_Tree_simple_types@U?$pair@$$CBKK@std@@@std@@@std@@@2@V?$_Tree_const_iterator@V?$_Tree_val@U?$_Tree_simple_types@U?$pair@$$CBKK@std@@@std@@@std@@@2@0@Z 004e05c0 f i supersededMemory.obj
 0002:000908f0       ?erase@?$_Tree@V?$_Tmap_traits@KKU?$less@K@std@@V?$allocator@U?$pair@$$CBKK@std@@@2@$0A@@std@@@std@@QAE?AV?$_Tree_iterator@V?$_Tree_val@U?$_Tree_simple_types@U?$pair@$$CBKK@std@@@std@@@std@@@2@V?$_Tree_const_iterator@V?$_Tree_val@U?$_Tree_simple_types@U?$pair@$$CBKK@std@@@std@@@std@@@2@@Z 004e08f0 f i supersededMemory.obj
 0002:00091370       ?find@?$_Tree@V?$_Tmap_traits@KKU?$less@K@std@@V?$allocator@U?$pair@$$CBKK@std@@@2@$0A@@std@@@std@@QAE?AV?$_Tree_iterator@V?$_Tree_val@U?$_Tree_simple_types@U?$pair@$$CBKK@std@@@std@@@std@@@2@ABK@Z 004e1370 f i supersededMemory.obj
 0002:00091680       ?lower_bound@?$_Tree@V?$_Tmap_traits@KKU?$less@K@std@@V?$allocator@U?$pair@$$CBKK@std@@@2@$0A@@std@@@std@@QAE?AV?$_Tree_iterator@V?$_Tree_val@U?$_Tree_simple_types@U?$pair@$$CBKK@std@@@std@@@std@@@2@ABK@Z 004e1680 f i supersededMemory.obj
 0002:00091750       ?max_size@?$_Tree@V?$_Tmap_traits@KKU?$less@K@std@@V?$allocator@U?$pair@$$CBKK@std@@@2@$0A@@std@@@std@@QBEIXZ 004e1750 f i supersededMemory.obj
 0002:000917b0       ?max_size@?$_Wrap_alloc@V?$allocator@U?$_Tree_node@U?$pair@$$CBKK@std@@PAX@std@@@std@@@std@@QBEIXZ 004e17b0 f i supersededMemory.obj
 0002:00091810       ?max_size@?$allocator@U?$_Tree_node@U?$pair@$$CBKK@std@@PAX@std@@@std@@QBEIXZ 004e1810 f i supersededMemory.obj
 0002:00091850       ?max_size@?$allocator_traits@V?$allocator@U?$_Tree_node@U?$pair@$$CBKK@std@@PAX@std@@@std@@@std@@SAIABV?$allocator@U?$_Tree_node@U?$pair@$$CBKK@std@@PAX@std@@@2@@Z 004e1850 f i supersededMemory.obj
 0002:000918a0       ?pointer_to@?$pointer_traits@PAU?$pair@$$CBKK@std@@@std@@SAPAU?$pair@$$CBKK@2@AAU32@@Z 004e18a0 f i supersededMemory.obj
 0002:000918f0       ??0workstationStatus@@QAE@HHKKKK@Z 004e18f0 f   workstationStatus.obj
 0002:00091960       ??1workstationStatus@@UAE@XZ 004e1960 f   workstationStatus.obj
 0002:000919a0       ?timeout@workstationStatus@@QAEHXZ 004e19a0 f   workstationStatus.obj
 0002:000919d0       ?decrementTimeout@workstationStatus@@QAEHH@Z 004e19d0 f   workstationStatus.obj
 0002:00091a30       ?setTimeout@workstationStatus@@QAEXH@Z 004e1a30 f   workstationStatus.obj
 0002:00091a70       ?upTime@workstationStatus@@QAEKXZ 004e1a70 f   workstationStatus.obj
 0002:00091aa0       ?currentTime@workstationStatus@@QAEKXZ 004e1aa0 f   workstationStatus.obj
 0002:00091ad0       ?workstation@workstationStatus@@QAEHXZ 004e1ad0 f   workstationStatus.obj
 0002:00091b00       ?setUpTime@workstationStatus@@QAEXK@Z 004e1b00 f   workstationStatus.obj
 0002:00091b40       ?setCurrentTime@workstationStatus@@QAEXK@Z 004e1b40 f   workstationStatus.obj
 0002:00091b80       ?unrecoverableErrors@workstationStatus@@QAEKXZ 004e1b80 f   workstationStatus.obj
 0002:00091bb0       ?setUnrecoverableErrors@workstationStatus@@QAE_NK@Z 004e1bb0 f   workstationStatus.obj
 0002:00091c00       ?recoverableErrors@workstationStatus@@QAEKXZ 004e1c00 f   workstationStatus.obj
 0002:00091c30       ?setRecoverableErrors@workstationStatus@@QAE_NK@Z 004e1c30 f   workstationStatus.obj
 0002:00091d60       ??_GworkstationStatus@@UAEPAXI@Z 004e1d60 f i workstationStatus.obj
 0002:00091d60       ??_EworkstationStatus@@UAEPAXI@Z 004e1d60 f i workstationStatus.obj
 0002:00091dd0       _NetCmdCode@8              004e1dd0 f   bbcnb32db_static:BBCNB32.obj
 0002:00091ef0       _NetRetCode@8              004e1ef0 f   bbcnb32db_static:BBCNB32.obj
 0002:00092050       _NetVersion@0              004e2050 f   bbcnb32db_static:BBCNB32.obj
 0002:00092090       _PostRoutine@4             004e2090 f   bbcnb32db_static:BBCNB32.obj
 0002:000921e0       _PostRoutineNCBDGRECV@4    004e21e0 f   bbcnb32db_static:BBCNB32.obj
 0002:00092500       _NetDebugMode@4            004e2500 f   bbcnb32db_static:BBCNB32.obj
 0002:00092530       _NetSetNameFilter@4        004e2530 f   bbcnb32db_static:BBCNB32.obj
 0002:00092610       _NetODS                    004e2610 f   bbcnb32db_static:BBCNB32.obj
 0002:000926c0       _bbcnb32Init               004e26c0 f   bbcnb32db_static:BBCNB32.obj
 0002:00092720       _bbcnb32Cleanup            004e2720 f   bbcnb32db_static:BBCNB32.obj
 0002:00092780       ?dgMsgQueueSize@@YAHXZ     004e2780 f   bbcnb32db_static:BBCNB32.obj
 0002:000927f0       ?dgMsgQueueNextItem@@YA?AVsizedBuffer@@XZ 004e27f0 f   bbcnb32db_static:BBCNB32.obj
 0002:00092900       ?dumpCurrentThreadId@@YAXXZ 004e2900 f   bbcnb32db_static:BBCNB32.obj
 0002:000929c0       _DllMain@12                004e29c0 f   bbcnb32db_static:BBCNB32.obj
 0002:00092a30       ?NetGetErrorString@@YAPADE@Z 004e2a30 f   bbcnb32db_static:BBCNB32.obj
 0002:00092de0       _NetCopyName@8             004e2de0 f   bbcnb32db_static:NCBSUFU.obj
 0002:00092e80       _NetDumpSessionStatus@8    004e2e80 f   bbcnb32db_static:NCBSUFU.obj
 0002:00093490       _NetAllocNcbAndBuf@4       004e3490 f   bbcnb32db_static:NCBALLOC.obj
 0002:00093510       _NetNcbFree@4              004e3510 f   bbcnb32db_static:NCBALLOC.obj
 0002:00093590       _NetAddName@12             004e3590 f   bbcnb32db_static:NCBCALLS.obj
 0002:00093630       _NetAddGroupName@12        004e3630 f   bbcnb32db_static:NCBCALLS.obj
 0002:000936d0       _NetDeleteName@12          004e36d0 f   bbcnb32db_static:NCBCALLS.obj
 0002:00093780       _NetHangUp@8               004e3780 f   bbcnb32db_static:NCBCALLS.obj
 0002:00093800       _NetCancel@8               004e3800 f   bbcnb32db_static:NCBCALLS.obj
 0002:00093880       _NetReset@12               004e3880 f   bbcnb32db_static:NCBCALLS.obj
 0002:00093910       _NetAdaptorStatus@20       004e3910 f   bbcnb32db_static:NCBCALLS.obj
 0002:000939e0       _NetSessionStatus@20       004e39e0 f   bbcnb32db_static:NCBCALLS.obj
 0002:00093ad0       _NetCall@28                004e3ad0 f   bbcnb32db_static:NCBCALLS.obj
 0002:00093bb0       _NetListen@28              004e3bb0 f   bbcnb32db_static:NCBCALLS.obj
 0002:00093c90       _NetSend@24                004e3c90 f   bbcnb32db_static:NCBCALLS.obj
 0002:00093d70       _NetSendDG@28              004e3d70 f   bbcnb32db_static:NCBCALLS.obj
 0002:00093e90       _NetSendBCDG@24            004e3e90 f   bbcnb32db_static:NCBCALLS.obj
 0002:00093f70       _NetReceive@20             004e3f70 f   bbcnb32db_static:NCBCALLS.obj
 0002:00094030       _NetReceiveAny@20          004e4030 f   bbcnb32db_static:NCBCALLS.obj
 0002:000940f0       _NetReceiveDG@20           004e40f0 f   bbcnb32db_static:NCBCALLS.obj
 0002:000941b0       _NetReceiveBCDG@20         004e41b0 f   bbcnb32db_static:NCBCALLS.obj
 0002:00094270       ?NetEnumAdaptors@@YGEPAU_LANA_ENUM@@@Z 004e4270 f   bbcnb32db_static:NCBCALLS.obj
 0002:00094640       ??0cBncsVersion@@QAE@PBD@Z 004e4640 f   bncsversioninfo:cBncsVersion.obj
 0002:00094de0       ??1cBncsVersion@@UAE@XZ    004e4de0 f   bncsversioninfo:cBncsVersion.obj
 0002:00094ef0       ??_GcBncsVersion@@UAEPAXI@Z 004e4ef0 f i bncsversioninfo:cBncsVersion.obj
 0002:00094ef0       ??_EcBncsVersion@@UAEPAXI@Z 004e4ef0 f i bncsversioninfo:cBncsVersion.obj
 0002:00094f20       ?strpbrk@@YAPADPADPBD@Z    004e4f20 f i bncsversioninfo:cBncsVersion.obj
 0002:00094f2c       _GetFileVersionInfoSizeA@8 004e4f2c f   version:VERSION.dll
 0002:00094f32       _GetFileVersionInfoA@16    004e4f32 f   version:VERSION.dll
 0002:00094f38       _VerQueryValueA@16         004e4f38 f   version:VERSION.dll
 0002:00094f3e       _PathFileExistsA@4         004e4f3e f   Shlwapi:SHLWAPI.dll
 0002:00094f44       _ntohl@4                   004e4f44 f   ws2_32:WS2_32.dll
 0002:00094f4a       _ntohs@4                   004e4f4a f   ws2_32:WS2_32.dll
 0002:00094f50       _htonl@4                   004e4f50 f   ws2_32:WS2_32.dll
 0002:00094f56       _htons@4                   004e4f56 f   ws2_32:WS2_32.dll
 0002:00094f5c       _bind@12                   004e4f5c f   ws2_32:WS2_32.dll
 0002:00094f62       _closesocket@4             004e4f62 f   ws2_32:WS2_32.dll
 0002:00094f68       _recv@16                   004e4f68 f   ws2_32:WS2_32.dll
 0002:00094f6e       _sendto@24                 004e4f6e f   ws2_32:WS2_32.dll
 0002:00094f74       _setsockopt@20             004e4f74 f   ws2_32:WS2_32.dll
 0002:00094f7a       _WSAStartup@8              004e4f7a f   ws2_32:WS2_32.dll
 0002:00094f80       _WSACleanup@0              004e4f80 f   ws2_32:WS2_32.dll
 0002:00094f86       _WSAGetLastError@0         004e4f86 f   ws2_32:WS2_32.dll
 0002:00094f8c       _WSACloseEvent@4           004e4f8c f   ws2_32:WS2_32.dll
 0002:00094f92       _WSACreateEvent@0          004e4f92 f   ws2_32:WS2_32.dll
 0002:00094f98       _WSAEventSelect@12         004e4f98 f   ws2_32:WS2_32.dll
 0002:00094f9e       _WSASetEvent@4             004e4f9e f   ws2_32:WS2_32.dll
 0002:00094fa4       _WSASocketA@24             004e4fa4 f   ws2_32:WS2_32.dll
 0002:00094faa       _WSAWaitForMultipleEvents@20 004e4faa f   ws2_32:WS2_32.dll
 0002:00094fb0       _BNCS32RxMessage           004e4fb0 f   bncsif32db:BNCSIF32db.dll
 0002:00094fb6       _BNCS32TxMessage           004e4fb6 f   bncsif32db:BNCSIF32db.dll
 0002:00094fc0       _BNCS32SendMessage         004e4fc0 f   bncswm32db:BncsWM32.obj
 0002:00095100       _BNCS32ReceiveMessage      004e5100 f   bncswm32db:BncsWM32.obj
 0002:00095346       _setCsiHwnd                004e5346 f   handlesharedb:handleSharedb.dll
 0002:0009534c       _OutputDebugStringA@4      004e534c f   kernel32:KERNEL32.dll
 0002:00095352       _GetPrivateProfileIntA@16  004e5352 f   kernel32:KERNEL32.dll
 0002:00095358       _GetPrivateProfileStringA@24 004e5358 f   kernel32:KERNEL32.dll
 0002:0009535e       _WritePrivateProfileStringA@16 004e535e f   kernel32:KERNEL32.dll
 0002:00095364       _GetWindowsDirectoryA@8    004e5364 f   kernel32:KERNEL32.dll
 0002:0009536a       _GetLastError@0            004e536a f   kernel32:KERNEL32.dll
 0002:00095370       _WriteFile@20              004e5370 f   kernel32:KERNEL32.dll
 0002:00095376       _SetEndOfFile@4            004e5376 f   kernel32:KERNEL32.dll
 0002:0009537c       _SetFilePointer@16         004e537c f   kernel32:KERNEL32.dll
 0002:00095382       _CloseHandle@4             004e5382 f   kernel32:KERNEL32.dll
 0002:00095388       _GetSystemTime@4           004e5388 f   kernel32:KERNEL32.dll
 0002:0009538e       _GetLocalTime@4            004e538e f   kernel32:KERNEL32.dll
 0002:00095394       _CreateFileA@28            004e5394 f   kernel32:KERNEL32.dll
 0002:0009539a       _GlobalAlloc@8             004e539a f   kernel32:KERNEL32.dll
 0002:000953a0       _GlobalLock@4              004e53a0 f   kernel32:KERNEL32.dll
 0002:000953a6       _GlobalUnlock@4            004e53a6 f   kernel32:KERNEL32.dll
 0002:000953ac       _GlobalFree@4              004e53ac f   kernel32:KERNEL32.dll
 0002:000953b2       _ReleaseMutex@4            004e53b2 f   kernel32:KERNEL32.dll
 0002:000953b8       _WaitForSingleObject@8     004e53b8 f   kernel32:KERNEL32.dll
 0002:000953be       _FindClose@4               004e53be f   kernel32:KERNEL32.dll
 0002:000953c4       _lstrcpynA@12              004e53c4 f   kernel32:KERNEL32.dll
 0002:000953ca       _lstrcpyA@8                004e53ca f   kernel32:KERNEL32.dll
 0002:000953d0       __lopen@8                  004e53d0 f   kernel32:KERNEL32.dll
 0002:000953d6       __lcreat@8                 004e53d6 f   kernel32:KERNEL32.dll
 0002:000953dc       __lread@12                 004e53dc f   kernel32:KERNEL32.dll
 0002:000953e2       __lwrite@12                004e53e2 f   kernel32:KERNEL32.dll
 0002:000953e8       __lclose@4                 004e53e8 f   kernel32:KERNEL32.dll
 0002:000953ee       __llseek@12                004e53ee f   kernel32:KERNEL32.dll
 0002:000953f4       _FindFirstFileA@8          004e53f4 f   kernel32:KERNEL32.dll
 0002:000953fa       _FindNextFileA@8           004e53fa f   kernel32:KERNEL32.dll
 0002:00095400       _SetLocalTime@4            004e5400 f   kernel32:KERNEL32.dll
 0002:00095406       _lstrcmpA@8                004e5406 f   kernel32:KERNEL32.dll
 0002:0009540c       _FreeLibrary@4             004e540c f   kernel32:KERNEL32.dll
 0002:00095412       _GetProcAddress@8          004e5412 f   kernel32:KERNEL32.dll
 0002:00095418       _Sleep@4                   004e5418 f   kernel32:KERNEL32.dll
 0002:0009541e       _WinExec@8                 004e541e f   kernel32:KERNEL32.dll
 0002:00095424       _GetTickCount@0            004e5424 f   kernel32:KERNEL32.dll
 0002:0009542a       _lstrcatA@8                004e542a f   kernel32:KERNEL32.dll
 0002:00095430       _lstrlenA@4                004e5430 f   kernel32:KERNEL32.dll
 0002:00095436       _CreateMutexA@12           004e5436 f   kernel32:KERNEL32.dll
 0002:0009543c       _LoadLibraryA@4            004e543c f   kernel32:KERNEL32.dll
 0002:00095442       _GetModuleFileNameA@12     004e5442 f   kernel32:KERNEL32.dll
 0002:00095448       _IsBadReadPtr@8            004e5448 f   kernel32:KERNEL32.dll
 0002:0009544e       _GetPrivateProfileSectionA@16 004e544e f   kernel32:KERNEL32.dll
 0002:00095454       _GetTempPathA@8            004e5454 f   kernel32:KERNEL32.dll
 0002:0009545a       _OpenProcess@12            004e545a f   kernel32:KERNEL32.dll
 0002:00095460       _SetEvent@4                004e5460 f   kernel32:KERNEL32.dll
 0002:00095466       _ResetEvent@4              004e5466 f   kernel32:KERNEL32.dll
 0002:0009546c       _CreateEventA@16           004e546c f   kernel32:KERNEL32.dll
 0002:00095472       _GetCurrentThread@0        004e5472 f   kernel32:KERNEL32.dll
 0002:00095478       _GetCurrentThreadId@0      004e5478 f   kernel32:KERNEL32.dll
 0002:0009547e       _SetThreadPriority@8       004e547e f   kernel32:KERNEL32.dll
 0002:00095484       _DialogBoxParamA@20        004e5484 f   user32:USER32.dll
 0002:0009548a       _EndDialog@8               004e548a f   user32:USER32.dll
 0002:00095490       _SetDlgItemTextA@12        004e5490 f   user32:USER32.dll
 0002:00095496       _PeekMessageA@20           004e5496 f   user32:USER32.dll
 0002:0009549c       _PostMessageA@16           004e549c f   user32:USER32.dll
 0002:000954a2       _ExitWindowsEx@8           004e54a2 f   user32:USER32.dll
 0002:000954a8       _SendMessageA@16           004e54a8 f   user32:USER32.dll
 0002:000954ae       _IsWindow@4                004e54ae f   user32:USER32.dll
 0002:000954b4       _SetTimer@16               004e54b4 f   user32:USER32.dll
 0002:000954ba       _SetWindowTextA@8          004e54ba f   user32:USER32.dll
 0002:000954c0       _DestroyWindow@4           004e54c0 f   user32:USER32.dll
 0002:000954c6       _CreateDialogParamA@20     004e54c6 f   user32:USER32.dll
 0002:000954cc       _UpdateWindow@4            004e54cc f   user32:USER32.dll
 0002:000954d2       _IsIconic@4                004e54d2 f   user32:USER32.dll
 0002:000954d8       _GetMessageA@16            004e54d8 f   user32:USER32.dll
 0002:000954de       _TranslateMessage@4        004e54de f   user32:USER32.dll
 0002:000954e4       _DispatchMessageA@4        004e54e4 f   user32:USER32.dll
 0002:000954ea       _SetMessageQueue@4         004e54ea f   user32:USER32.dll
 0002:000954f0       _SendMessageTimeoutA@28    004e54f0 f   user32:USER32.dll
 0002:000954f6       _DefWindowProcA@16         004e54f6 f   user32:USER32.dll
 0002:000954fc       _PostQuitMessage@4         004e54fc f   user32:USER32.dll
 0002:00095502       _RegisterClassA@4          004e5502 f   user32:USER32.dll
 0002:00095508       _CreateWindowExA@48        004e5508 f   user32:USER32.dll
 0002:0009550e       _ShowWindow@8              004e550e f   user32:USER32.dll
 0002:00095514       _SetWindowPos@28           004e5514 f   user32:USER32.dll
 0002:0009551a       _GetDlgItem@8              004e551a f   user32:USER32.dll
 0002:00095520       _KillTimer@8               004e5520 f   user32:USER32.dll
 0002:00095526       _EnableWindow@8            004e5526 f   user32:USER32.dll
 0002:0009552c       _GetSystemMetrics@4        004e552c f   user32:USER32.dll
 0002:00095532       _GetMenu@4                 004e5532 f   user32:USER32.dll
 0002:00095538       _CheckMenuItem@12          004e5538 f   user32:USER32.dll
 0002:0009553e       _MessageBoxA@16            004e553e f   user32:USER32.dll
 0002:00095544       _MessageBeep@4             004e5544 f   user32:USER32.dll
 0002:0009554a       _FindWindowA@8             004e554a f   user32:USER32.dll
 0002:00095550       _GetClassNameA@12          004e5550 f   user32:USER32.dll
 0002:00095556       _LoadCursorA@8             004e5556 f   user32:USER32.dll
 0002:0009555c       _LoadIconA@8               004e555c f   user32:USER32.dll
 0002:00095562       _GetWindowRect@8           004e5562 f   user32:USER32.dll
 0002:00095568       _GetDesktopWindow@0        004e5568 f   user32:USER32.dll
 0002:0009556e       _GetWindow@8               004e556e f   user32:USER32.dll
 0002:00095574       _LoadStringA@16            004e5574 f   user32:USER32.dll
 0002:0009557a       _GetWindowLongA@8          004e557a f   user32:USER32.dll
 0002:00095580       _EnumChildWindows@12       004e5580 f   user32:USER32.dll
 0002:00095586       _GetWindowThreadProcessId@8 004e5586 f   user32:USER32.dll
 0002:0009558c       _SetDlgItemInt@16          004e558c f   user32:USER32.dll
 0002:00095592       _wsprintfA                 004e5592 f   user32:USER32.dll
 0002:00095598       _GetStockObject@4          004e5598 f   gdi32:GDI32.dll
 0002:0009559e       _RegCloseKey@4             004e559e f   advapi32:ADVAPI32.dll
 0002:000955a4       _RegQueryValueExA@24       004e55a4 f   advapi32:ADVAPI32.dll
 0002:000955aa       _RegOpenKeyExA@20          004e55aa f   advapi32:ADVAPI32.dll
 0002:000955b0       _ShellExecuteA@24          004e55b0 f   shell32:SHELL32.dll
 0002:000955b6       ??0_Lockit@std@@QAE@H@Z    004e55b6 f   msvcprtd:MSVCP120D.dll
 0002:000955bc       ??1_Lockit@std@@QAE@XZ     004e55bc f   msvcprtd:MSVCP120D.dll
 0002:000955d0       ??_U@YAPAXI@Z              004e55d0 f   msvcprtd:newaop_s.obj
 0002:000955e6       ?_Debug_message@std@@YAXPB_W0I@Z 004e55e6 f   msvcprtd:MSVCP120D.dll
 0002:000955ec       ??0_Container_base12@std@@QAE@XZ 004e55ec f   msvcprtd:MSVCP120D.dll
 0002:000955f2       ??1_Container_base12@std@@QAE@XZ 004e55f2 f   msvcprtd:MSVCP120D.dll
 0002:000955f8       ?_Getpfirst@_Container_base12@std@@QBEPAPAU_Iterator_base12@2@XZ 004e55f8 f   msvcprtd:MSVCP120D.dll
 0002:000955fe       ?_Orphan_all@_Container_base12@std@@QAEXXZ 004e55fe f   msvcprtd:MSVCP120D.dll
 0002:00095604       ?_Xbad_alloc@std@@YAXXZ    004e5604 f   msvcprtd:MSVCP120D.dll
 0002:0009560a       ?_Xlength_error@std@@YAXPBD@Z 004e560a f   msvcprtd:MSVCP120D.dll
 0002:00095610       ?_Xout_of_range@std@@YAXPBD@Z 004e5610 f   msvcprtd:MSVCP120D.dll
 0002:00095616       ??0id@locale@std@@QAE@I@Z  004e5616 f   msvcprtd:MSVCP120D.dll
 0002:0009561c       ?_Syserror_map@std@@YAPBDH@Z 004e561c f   msvcprtd:MSVCP120D.dll
 0002:00095622       ?_Winerror_map@std@@YAPBDH@Z 004e5622 f   msvcprtd:MSVCP120D.dll
 0002:00095628       __purecall                 004e5628 f   MSVCRTD:MSVCR120D.dll
 0002:0009562e       ??2@YAPAXI@Z               004e562e f   MSVCRTD:MSVCR120D.dll
 0002:00095634       ??3@YAXPAX@Z               004e5634 f   MSVCRTD:MSVCR120D.dll
 0002:00095640       ___atonexitinit            004e5640 f   MSVCRTD:atonexit.obj
 0002:00095720       __onexit                   004e5720 f   MSVCRTD:atonexit.obj
 0002:00095860       _atexit                    004e5860 f   MSVCRTD:atonexit.obj
 0002:000958a0       ___raise_securityfailure   004e58a0 f   MSVCRTD:gs_report.obj
 0002:00095900       ___report_gsfailure        004e5900 f   MSVCRTD:gs_report.obj
 0002:00095a50       ___report_rangecheckfailure 004e5a50 f   MSVCRTD:gs_report.obj
 0002:00095a60       ___report_securityfailure  004e5a60 f   MSVCRTD:gs_report.obj
 0002:00095b70       ___report_securityfailureEx 004e5b70 f   MSVCRTD:gs_report.obj
 0002:00095cde       __invalid_parameter        004e5cde f   MSVCRTD:MSVCR120D.dll
 0002:00095ce4       _memcmp                    004e5ce4 f   MSVCRTD:MSVCR120D.dll
 0002:00095cea       _memcpy                    004e5cea f   MSVCRTD:MSVCR120D.dll
 0002:00095cf0       _strcpy                    004e5cf0 f   MSVCRTD:MSVCR120D.dll
 0002:00095cf6       _strcat                    004e5cf6 f   MSVCRTD:MSVCR120D.dll
 0002:00095cfc       _strcmp                    004e5cfc f   MSVCRTD:MSVCR120D.dll
 0002:00095d02       _strlen                    004e5d02 f   MSVCRTD:MSVCR120D.dll
 0002:00095d08       _memmove                   004e5d08 f   MSVCRTD:MSVCR120D.dll
 0002:00095d0e       _strchr                    004e5d0e f   MSVCRTD:MSVCR120D.dll
 0002:00095d14       __strlwr                   004e5d14 f   MSVCRTD:MSVCR120D.dll
 0002:00095d1a       _strncmp                   004e5d1a f   MSVCRTD:MSVCR120D.dll
 0002:00095d20       _strncpy                   004e5d20 f   MSVCRTD:MSVCR120D.dll
 0002:00095d26       _strstr                    004e5d26 f   MSVCRTD:MSVCR120D.dll
 0002:00095d2c       _atoi                      004e5d2c f   MSVCRTD:MSVCR120D.dll
 0002:00095d32       __hypot                    004e5d32 f   MSVCRTD:MSVCR120D.dll
 0002:00095d38       ??_V@YAXPAX@Z              004e5d38 f   MSVCRTD:MSVCR120D.dll
 0002:00095d3e       _fclose                    004e5d3e f   MSVCRTD:MSVCR120D.dll
 0002:00095d44       _fgets                     004e5d44 f   MSVCRTD:MSVCR120D.dll
 0002:00095d4a       _fopen                     004e5d4a f   MSVCRTD:MSVCR120D.dll
 0002:00095d50       _fopen_s                   004e5d50 f   MSVCRTD:MSVCR120D.dll
 0002:00095d56       _fputs                     004e5d56 f   MSVCRTD:MSVCR120D.dll
 0002:00095d5c       _sprintf                   004e5d5c f   MSVCRTD:MSVCR120D.dll
 0002:00095d62       __CrtDbgReportW            004e5d62 f   MSVCRTD:MSVCR120D.dll
 0002:00095d70       @_RTC_AllocaHelper@12      004e5d70 f   MSVCRTD:stack.obj
 0002:00095db0       @_RTC_CheckStackVars2@12   004e5db0 f   MSVCRTD:stack.obj
 0002:00095ec0       @_RTC_CheckStackVars@8     004e5ec0 f   MSVCRTD:stack.obj
 0002:00095f30       __RTC_CheckEsp             004e5f30 f   MSVCRTD:stack.obj
 0002:00095f60       @__security_check_cookie@4 004e5f60 f   MSVCRTD:secchk.obj
 0002:00095f72       __CxxThrowException@8      004e5f72 f   MSVCRTD:MSVCR120D.dll
 0002:00095f80       __RTC_InitBase             004e5f80 f   MSVCRTD:init.obj
 0002:00095fc0       __RTC_Shutdown             004e5fc0 f   MSVCRTD:init.obj
 0002:00095fd8       ___CxxFrameHandler3        004e5fd8 f   MSVCRTD:MSVCR120D.dll
 0002:00095fe0       __alloca_probe             004e5fe0 f   MSVCRTD:chkstk.obj
 0002:00095fe0       __chkstk                   004e5fe0 f   MSVCRTD:chkstk.obj
 0002:00096020       ??0type_info@@AAE@ABV0@@Z  004e6020 f   MSVCRTD:ti_inst.obj
 0002:00096040       ??4type_info@@AAEAAV0@ABV0@@Z 004e6040 f   MSVCRTD:ti_inst.obj
 0002:00096060       ??_Etype_info@@UAEPAXI@Z   004e6060 f i MSVCRTD:ti_inst.obj
 0002:000960f0       _getenv                    004e60f0 f   MSVCRTD:MSVCR120D.dll
 0002:000960f6       _memset                    004e60f6 f   MSVCRTD:MSVCR120D.dll
 0002:000960fc       _strtok                    004e60fc f   MSVCRTD:MSVCR120D.dll
 0002:00096102       __localtime32              004e6102 f   MSVCRTD:MSVCR120D.dll
 0002:00096108       __time32                   004e6108 f   MSVCRTD:MSVCR120D.dll
 0002:0009610e       __mkdir                    004e610e f   MSVCRTD:MSVCR120D.dll
 0002:00096114       _sprintf_s                 004e6114 f   MSVCRTD:MSVCR120D.dll
 0002:0009611a       _remove                    004e611a f   MSVCRTD:MSVCR120D.dll
 0002:00096120       _sscanf                    004e6120 f   MSVCRTD:MSVCR120D.dll
 0002:00096126       _feof                      004e6126 f   MSVCRTD:MSVCR120D.dll
 0002:0009612c       _fgetc                     004e612c f   MSVCRTD:MSVCR120D.dll
 0002:00096132       _fputc                     004e6132 f   MSVCRTD:MSVCR120D.dll
 0002:00096138       __stricmp                  004e6138 f   MSVCRTD:MSVCR120D.dll
 0002:0009613e       _exit                      004e613e f   MSVCRTD:MSVCR120D.dll
 0002:00096144       _rand                      004e6144 f   MSVCRTD:MSVCR120D.dll
 0002:0009614a       __beginthread              004e614a f   MSVCRTD:MSVCR120D.dll
 0002:000962f0       ?_RTC_AllocaFailure@@YAXPAXPAU_RTC_ALLOCA_NODE@@H@Z 004e62f0 f   MSVCRTD:error.obj
 0002:000964d0       ?_RTC_Failure@@YAXPAXH@Z   004e64d0 f   MSVCRTD:error.obj
 0002:00096540       ?_RTC_StackFailure@@YAXPAXPBD@Z 004e6540 f   MSVCRTD:error.obj
 0002:000969a0       __RTC_UninitUse            004e69a0 f   MSVCRTD:error.obj
 0002:00096aca       _printf                    004e6aca f   MSVCRTD:MSVCR120D.dll
 0002:00096ad0       __strupr                   004e6ad0 f   MSVCRTD:MSVCR120D.dll
 0002:00096ad6       _vsprintf                  004e6ad6 f   MSVCRTD:MSVCR120D.dll
 0002:00096adc       ?_set_se_translator@@YAP6AXIPAU_EXCEPTION_POINTERS@@@ZP6AXI0@Z@Z 004e6adc f   MSVCRTD:MSVCR120D.dll
 0002:00096ae2       __endthread                004e6ae2 f   MSVCRTD:MSVCR120D.dll
 0002:00096c10       _NtCurrentTeb              004e6c10 f i MSVCRTD:crtexew.obj
 0002:00096c20       _WinMainCRTStartup         004e6c20 f   MSVCRTD:crtexew.obj
 0002:00097082       _calloc                    004e7082 f   MSVCRTD:MSVCR120D.dll
 0002:00097088       _free                      004e7088 f   MSVCRTD:MSVCR120D.dll
 0002:0009708e       _strpbrk                   004e708e f   MSVCRTD:MSVCR120D.dll
 0002:00097094       _malloc                    004e7094 f   MSVCRTD:MSVCR120D.dll
 0002:0009709a       __lock                     004e709a f   MSVCRTD:MSVCR120D.dll
 0002:000970a0       __unlock                   004e70a0 f   MSVCRTD:MSVCR120D.dll
 0002:000970a6       __calloc_dbg               004e70a6 f   MSVCRTD:MSVCR120D.dll
 0002:000970ac       ___dllonexit               004e70ac f   MSVCRTD:MSVCR120D.dll
 0002:000970c0       __except_handler4          004e70c0 f   MSVCRTD:chandler4gs.obj
 0002:000970f0       __crt_debugger_hook        004e70f0 f   MSVCRTD:MSVCR120D.dll
 0002:000970f6       ___crtUnhandledException   004e70f6 f   MSVCRTD:MSVCR120D.dll
 0002:000970fc       ___crtTerminateProcess     004e70fc f   MSVCRTD:MSVCR120D.dll
 0002:00097110       ?_RTC_GetErrorFunc@@YAP6AHHPBDH00ZZPBX@Z 004e7110 f   MSVCRTD:userapi.obj
 0002:00097120       ?_RTC_GetErrorFuncW@@YAP6AHHPB_WH00ZZPBX@Z 004e7120 f   MSVCRTD:userapi.obj
 0002:00097130       __RTC_GetErrDesc           004e7130 f   MSVCRTD:userapi.obj
 0002:00097150       __RTC_NumErrors            004e7150 f   MSVCRTD:userapi.obj
 0002:00097160       __RTC_SetErrorFunc         004e7160 f   MSVCRTD:userapi.obj
 0002:00097190       __RTC_SetErrorFuncW        004e7190 f   MSVCRTD:userapi.obj
 0002:000971c0       __RTC_SetErrorType         004e71c0 f   MSVCRTD:userapi.obj
 0002:000971ec       __CRT_RTC_INITW            004e71ec f   MSVCRTD:MSVCR120D.dll
 0002:00097200       ??_M@YGXPAXIHP6EX0@Z@Z     004e7200 f   MSVCRTD:ehvecdtr.obj
 0002:00097320       ?__ArrayUnwind@@YGXPAXIHP6EX0@Z@Z 004e7320 f   MSVCRTD:ehvecdtr.obj
 0002:000973cc       ??1type_info@@UAE@XZ       004e73cc f   MSVCRTD:MSVCR120D.dll
 0002:00097940       ?_RTC_GetSrcLine@@YAHPAEPA_WKPAH1K@Z 004e7940 f   MSVCRTD:pdblkup.obj
 0002:00097ca0       ?__CxxUnhandledExceptionFilter@@YGJPAU_EXCEPTION_POINTERS@@@Z 004e7ca0 f   MSVCRTD:unhandld.obj
 0002:00097d20       ___CxxSetUnhandledExceptionFilter 004e7d20 f   MSVCRTD:unhandld.obj
 0002:00097d3a       __XcptFilter               004e7d3a f   MSVCRTD:MSVCR120D.dll
 0002:00097d40       ___crtGetShowWindowMode    004e7d40 f   MSVCRTD:MSVCR120D.dll
 0002:00097d46       __amsg_exit                004e7d46 f   MSVCRTD:MSVCR120D.dll
 0002:00097d50       __setargv                  004e7d50 f   MSVCRTD:dllargv.obj
 0002:00097d58       ___getmainargs             004e7d58 f   MSVCRTD:MSVCR120D.dll
 0002:00097d5e       ___set_app_type            004e7d5e f   MSVCRTD:MSVCR120D.dll
 0002:00097d64       __CrtSetCheckCount         004e7d64 f   MSVCRTD:MSVCR120D.dll
 0002:00097d70       __FindPESection            004e7d70 f   MSVCRTD:pesect.obj
 0002:00097e00       __IsNonwritableInCurrentImage 004e7e00 f   MSVCRTD:pesect.obj
 0002:00097f80       __ValidateImageBase        004e7f80 f   MSVCRTD:pesect.obj
 0002:00097ff4       __exit                     004e7ff4 f   MSVCRTD:MSVCR120D.dll
 0002:00097ffa       __cexit                    004e7ffa f   MSVCRTD:MSVCR120D.dll
 0002:00098000       ___security_init_cookie    004e8000 f   MSVCRTD:gs_support.obj
 0002:00098120       __matherr                  004e8120 f   MSVCRTD:merr.obj
 0002:00098128       __ismbblead                004e8128 f   MSVCRTD:MSVCR120D.dll
 0002:00098130       __RTC_Initialize           004e8130 f   MSVCRTD:initsect.obj
 0002:00098160       __RTC_Terminate            004e8160 f   MSVCRTD:initsect.obj
 0002:0009818e       __configthreadlocale       004e818e f   MSVCRTD:MSVCR120D.dll
 0002:000981a0       __invoke_watson_if_error   004e81a0 f i MSVCRTD:fp8.obj
 0002:000981d0       __setdefaultprecision      004e81d0 f   MSVCRTD:fp8.obj
 0002:00098212       ___setusermatherr          004e8212 f   MSVCRTD:MSVCR120D.dll
 0002:00098218       __initterm_e               004e8218 f   MSVCRTD:MSVCR120D.dll
 0002:0009821e       __initterm                 004e821e f   MSVCRTD:MSVCR120D.dll
 0002:00098224       __except_handler4_common   004e8224 f   MSVCRTD:MSVCR120D.dll
 0002:0009822a       ?terminate@@YAXXZ          004e822a f   MSVCRTD:MSVCR120D.dll
 0002:00098230       _wcscpy_s                  004e8230 f   MSVCRTD:MSVCR120D.dll
 0002:00098236       __wmakepath_s              004e8236 f   MSVCRTD:MSVCR120D.dll
 0002:0009823c       __wsplitpath_s             004e823c f   MSVCRTD:MSVCR120D.dll
 0002:00098242       ___crtSetUnhandledExceptionFilter 004e8242 f   MSVCRTD:MSVCR120D.dll
 0002:00098248       __invoke_watson            004e8248 f   MSVCRTD:MSVCR120D.dll
 0002:0009824e       __controlfp_s              004e824e f   MSVCRTD:MSVCR120D.dll
 0002:00098254       _Netbios@4                 004e8254 f   netapi32:NETAPI32.dll
 0002:0009825a       _EncodePointer@4           004e825a f   kernel32:KERNEL32.dll
 0002:00098260       _DecodePointer@4           004e8260 f   kernel32:KERNEL32.dll
 0002:00098266       _IsDebuggerPresent@0       004e8266 f   kernel32:KERNEL32.dll
 0002:0009826c       _IsProcessorFeaturePresent@4 004e826c f   kernel32:KERNEL32.dll
 0002:00098272       _RaiseException@16         004e8272 f   kernel32:KERNEL32.dll
 0002:00098278       _LoadLibraryExW@12         004e8278 f   kernel32:KERNEL32.dll
 0002:0009827e       _MultiByteToWideChar@24    004e827e f   kernel32:KERNEL32.dll
 0002:00098284       _WideCharToMultiByte@32    004e8284 f   kernel32:KERNEL32.dll
 0002:0009828a       _HeapAlloc@12              004e828a f   kernel32:KERNEL32.dll
 0002:00098290       _HeapFree@12               004e8290 f   kernel32:KERNEL32.dll
 0002:00098296       _GetProcessHeap@0          004e8296 f   kernel32:KERNEL32.dll
 0002:0009829c       _VirtualQuery@12           004e829c f   kernel32:KERNEL32.dll
 0002:000982a2       _GetModuleFileNameW@12     004e82a2 f   kernel32:KERNEL32.dll
 0002:000982a8       _GetModuleHandleW@4        004e82a8 f   kernel32:KERNEL32.dll
 0002:000982ae       _QueryPerformanceCounter@4 004e82ae f   kernel32:KERNEL32.dll
 0002:000982b4       _GetCurrentProcessId@0     004e82b4 f   kernel32:KERNEL32.dll
 0002:000982ba       _GetSystemTimeAsFileTime@4 004e82ba f   kernel32:KERNEL32.dll
 0003:00000000       ___xc_a                    004f8000     MSVCRTD:cinitexe.obj
 0003:000005d8       ___xc_z                    004f85d8     MSVCRTD:cinitexe.obj
 0003:000006dc       ___xi_a                    004f86dc     MSVCRTD:cinitexe.obj
 0003:00000aec       ___xi_z                    004f8aec     MSVCRTD:cinitexe.obj
 0003:00000c28       ??_C@_1JA@EKKHPHED@?$AAc?$AA?3?$AA?2?$AAp?$AAr?$AAo?$AAg?$AAr?$AAa?$AAm?$AA?5?$AAf?$AAi?$AAl?$AAe?$AAs?$AA?5?$AA?$CI?$AAx?$AA8?$AA6?$AA?$CJ?$AA?2?$AAm?$AAi?$AAc?$AAr?$AAo?$AAs?$AAo?$AAf?$AAt@ 004f8c28     database.obj
 0003:00000cd4       ??_C@_1DC@POOIKBAO@?$AAI?$AAT?$AAE?$AAR?$AAA?$AAT?$AAO?$AAR?$AA?5?$AAL?$AAI?$AAS?$AAT?$AA?5?$AAC?$AAO?$AAR?$AAR?$AAU?$AAP?$AAT?$AAE?$AAD?$AA?$CB?$AA?$AA@ 004f8cd4     database.obj
 0003:00000d14       ??_7error_category@std@@6B@ 004f8d14     database.obj
 0003:00000d38       ??_7_Generic_error_category@std@@6B@ 004f8d38     database.obj
 0003:00000d58       ??_C@_07DCLBNMLN@generic?$AA@ 004f8d58     database.obj
 0003:00000d64       ??_C@_0O@BFJCFAAK@unknown?5error?$AA@ 004f8d64     database.obj
 0003:00000d78       ??_7_Iostream_error_category@std@@6B@ 004f8d78     database.obj
 0003:00000d98       ??_C@_08LLGCOLLL@iostream?$AA@ 004f8d98     database.obj
 0003:00000da4       ??_C@_0BG@PADBLCHM@iostream?5stream?5error?$AA@ 004f8da4     database.obj
 0003:00000dc4       ??_7_System_error_category@std@@6B@ 004f8dc4     database.obj
 0003:00000de4       ??_C@_06FHFOAHML@system?$AA@ 004f8de4     database.obj
 0003:00000df0       ??_7database@@6B@          004f8df0     database.obj
 0003:00000df8       ??_C@_0BA@MNCCGPDL@?$CFs?2dev_?$CF03d?4ini?$AA@ 004f8df8     database.obj
 0003:00000e0c       ??_C@_0BA@POEEPAJD@DatabaseSize_?$CFd?$AA@ 004f8e0c     database.obj
 0003:00000e20       ??_C@_08HDBDMMBI@Database?$AA@ 004f8e20     database.obj
 0003:00000e2c       ??_C@_0BA@BPJACOFK@DatabaseFile_?$CFd?$AA@ 004f8e2c     database.obj
 0003:00000e40       ??_C@_0BA@JEKJJHOL@dev_?$CF03d?4db?$CF04d?$AA@ 004f8e40     database.obj
 0003:00000e54       ??_C@_0BN@EOGGJMBF@database?3?3load?5?9?5Can?8t?5find?5?$AA@ 004f8e54     database.obj
 0003:00000e78       ??_C@_0BD@EHJDLHKE@?5setting?5in?5file?3?5?$AA@ 004f8e78     database.obj
 0003:00000e90       ??_C@_0BJ@FGPGKDMA@?4?5Does?5this?5file?5exist?$DP?6?$AA@ 004f8e90     database.obj
 0003:00000eb0       ??_C@_05BMGBEOOC@?$CFs?2?$CFs?$AA@ 004f8eb0     database.obj
 0003:00000eb8       ??_C@_01KDCPPGHE@r?$AA@    004f8eb8     database.obj
 0003:00000ebc       ??_C@_0L@PNKOEJPL@?$FLDatabase_?$AA@ 004f8ebc     database.obj
 0003:00000ecc       ??_C@_0CD@HAOBKGHO@database?3?3load?5?9?5can?8t?5open?5file@ 004f8ecc     database.obj
 0003:00000ef8       ??_C@_01EEMJAFIK@?6?$AA@   004f8ef8     database.obj
 0003:00000efc       ??_C@_03JMFMNIFM@?9?9?9?$AA@ 004f8efc     database.obj
 0003:00000f00       ??_C@_03HDCFNBIM@?$CB?$CB?$CB?$AA@ 004f8f00     database.obj
 0003:00000f04       ??_C@_0M@FNLNBOHL@Database_?$CFd?$AA@ 004f8f04     database.obj
 0003:00000f14       ??_C@_04OCCELDNI@?$CF04d?$AA@ 004f8f14     database.obj
 0003:00000f1c       ??_C@_01BJJEKLCA@?$CC?$AA@ 004f8f1c     database.obj
 0003:00000f20       ??_C@_0BE@LBLKBJAO@?$CFs?2dev_?$CF03d?4?$CFd?4dump?$AA@ 004f8f20     database.obj
 0003:00000f38       ??_C@_02CHHAKFFB@w?$CL?$AA@ 004f8f38     database.obj
 0003:00000f3c       ??_C@_06FDPGNIHM@?$CFd?0?$CFs?6?$AA@ 004f8f3c     database.obj
 0003:00000f44       ??_C@_0CO@KHOPDBPJ@database?3?5can?8t?5open?5file?5?$CIfilen@ 004f8f44     database.obj
 0003:00000f80       ??_C@_1IO@JLPDPDPD@?$AAc?$AA?3?$AA?2?$AAp?$AAr?$AAo?$AAg?$AAr?$AAa?$AAm?$AA?5?$AAf?$AAi?$AAl?$AAe?$AAs?$AA?5?$AA?$CI?$AAx?$AA8?$AA6?$AA?$CJ?$AA?2?$AAm?$AAi?$AAc?$AAr?$AAo?$AAs?$AAo?$AAf?$AAt@ 004f8f80     database.obj
 0003:00001030       ??_C@_1IK@HBAODOLH@?$AAc?$AA?3?$AA?2?$AAp?$AAr?$AAo?$AAg?$AAr?$AAa?$AAm?$AA?5?$AAf?$AAi?$AAl?$AAe?$AAs?$AA?5?$AA?$CI?$AAx?$AA8?$AA6?$AA?$CJ?$AA?2?$AAm?$AAi?$AAc?$AAr?$AAo?$AAs?$AAo?$AAf?$AAt@ 004f9030     database.obj
 0003:000010d8       ??_C@_1EG@EHJFMBHJ@?$AAm?$AAa?$AAp?$AA?1?$AAs?$AAe?$AAt?$AA?5?$AAi?$AAt?$AAe?$AAr?$AAa?$AAt?$AAo?$AAr?$AA?5?$AAn?$AAo?$AAt?$AA?5?$AAi?$AAn?$AAc?$AAr?$AAe?$AAm?$AAe?$AAn?$AAt?$AAa?$AAb@ 004f90d8     database.obj
 0003:0000112c       ??_C@_0CE@OFMIGAMM@Standard?5C?$CL?$CL?5Libraries?5Out?5of?5Ra@ 004f912c     database.obj
 0003:00001158       ??_C@_1FG@IBPIFFN@?$AA?$CC?$AAS?$AAt?$AAa?$AAn?$AAd?$AAa?$AAr?$AAd?$AA?5?$AAC?$AA?$CL?$AA?$CL?$AA?5?$AAL?$AAi?$AAb?$AAr?$AAa?$AAr?$AAi?$AAe?$AAs?$AA?5?$AAO?$AAu?$AAt?$AA?5?$AAo?$AAf?$AA?5?$AAR@ 004f9158     database.obj
 0003:000011c0       ??_C@_15GANGMFKL@?$AA?$CF?$AAs?$AA?$AA@ 004f91c0     database.obj
 0003:000011c8       ??_C@_1BKO@BHAKMAAJ@?$AAs?$AAt?$AAd?$AA?3?$AA?3?$AA_?$AAT?$AAr?$AAe?$AAe?$AA_?$AAc?$AAo?$AAn?$AAs?$AAt?$AA_?$AAi?$AAt?$AAe?$AAr?$AAa?$AAt?$AAo?$AAr?$AA?$DM?$AAc?$AAl?$AAa?$AAs?$AAs?$AA?5@ 004f91c8     database.obj
 0003:000013cc       ??_C@_1BO@MEPPHOO@?$AA?$CC?$AAo?$AAu?$AAt?$AA?5?$AAo?$AAf?$AA?5?$AAr?$AAa?$AAn?$AAg?$AAe?$AA?$CC?$AA?$AA@ 004f93cc     database.obj
 0003:000013f0       ??_C@_1DO@CFEEPGGJ@?$AAm?$AAa?$AAp?$AA?1?$AAs?$AAe?$AAt?$AA?5?$AAi?$AAt?$AAe?$AAr?$AAa?$AAt?$AAo?$AAr?$AAs?$AA?5?$AAi?$AAn?$AAc?$AAo?$AAm?$AAp?$AAa?$AAt?$AAi?$AAb?$AAl?$AAe?$AA?$AA@ 004f93f0     database.obj
 0003:0000143c       ??_C@_0CI@FNPHFCCM@Standard?5C?$CL?$CL?5Libraries?5Invalid?5A@ 004f943c     database.obj
 0003:00001470       ??_C@_1FO@GJIHNDLM@?$AA?$CC?$AAS?$AAt?$AAa?$AAn?$AAd?$AAa?$AAr?$AAd?$AA?5?$AAC?$AA?$CL?$AA?$CL?$AA?5?$AAL?$AAi?$AAb?$AAr?$AAa?$AAr?$AAi?$AAe?$AAs?$AA?5?$AAI?$AAn?$AAv?$AAa?$AAl?$AAi?$AAd?$AA?5@ 004f9470     database.obj
 0003:000014e0       ??_C@_1BKO@LHPHCJMM@?$AAs?$AAt?$AAd?$AA?3?$AA?3?$AA_?$AAT?$AAr?$AAe?$AAe?$AA_?$AAc?$AAo?$AAn?$AAs?$AAt?$AA_?$AAi?$AAt?$AAe?$AAr?$AAa?$AAt?$AAo?$AAr?$AA?$DM?$AAc?$AAl?$AAa?$AAs?$AAs?$AA?5@ 004f94e0     database.obj
 0003:000016e4       ??_C@_1CG@JNLFBNGN@?$AA?$CC?$AAi?$AAn?$AAv?$AAa?$AAl?$AAi?$AAd?$AA?5?$AAa?$AAr?$AAg?$AAu?$AAm?$AAe?$AAn?$AAt?$AA?$CC?$AA?$AA@ 004f96e4     database.obj
 0003:00001718       ??_C@_1EI@FHEHNNNM@?$AAm?$AAa?$AAp?$AA?1?$AAs?$AAe?$AAt?$AA?5?$AAi?$AAt?$AAe?$AAr?$AAa?$AAt?$AAo?$AAr?$AA?5?$AAn?$AAo?$AAt?$AA?5?$AAd?$AAe?$AAr?$AAe?$AAf?$AAe?$AAr?$AAe?$AAn?$AAc?$AAa@ 004f9718     database.obj
 0003:00001770       ??_C@_1BKM@NHEBIPM@?$AAs?$AAt?$AAd?$AA?3?$AA?3?$AA_?$AAT?$AAr?$AAe?$AAe?$AA_?$AAc?$AAo?$AAn?$AAs?$AAt?$AA_?$AAi?$AAt?$AAe?$AAr?$AAa?$AAt?$AAo?$AAr?$AA?$DM?$AAc?$AAl?$AAa?$AAs?$AAs?$AA?5@ 004f9770     database.obj
 0003:00001974       ??_C@_0BA@JFNIOLAK@string?5too?5long?$AA@ 004f9974     database.obj
 0003:00001988       ??_C@_0BI@CFPLBAOH@invalid?5string?5position?$AA@ 004f9988     database.obj
 0003:000019a8       ??_C@_1EK@PPDBPCAN@?$AAm?$AAa?$AAp?$AA?1?$AAs?$AAe?$AAt?$AA?5?$AAe?$AAr?$AAa?$AAs?$AAe?$AA?5?$AAi?$AAt?$AAe?$AAr?$AAa?$AAt?$AAo?$AAr?$AA?5?$AAo?$AAu?$AAt?$AAs?$AAi?$AAd?$AAe?$AA?5?$AAr@ 004f99a8     database.obj
 0003:00001a00       ??_C@_1CK@EOPGIILJ@?$AAi?$AAn?$AAv?$AAa?$AAl?$AAi?$AAd?$AA?5?$AAn?$AAu?$AAl?$AAl?$AA?5?$AAp?$AAo?$AAi?$AAn?$AAt?$AAe?$AAr?$AA?$AA@ 004f9a00     database.obj
 0003:00001a34       ??_C@_1CE@IGJMOCCK@?$AAi?$AAn?$AAv?$AAa?$AAl?$AAi?$AAd?$AA?5?$AAo?$AAp?$AAe?$AAr?$AAa?$AAt?$AAo?$AAr?$AA?$DM?$AA?$AA@ 004f9a34     database.obj
 0003:00001a60       ??_C@_1EG@OKCGOALM@?$AAm?$AAa?$AAp?$AA?1?$AAs?$AAe?$AAt?$AA?5?$AAi?$AAt?$AAe?$AAr?$AAa?$AAt?$AAo?$AAr?$AA?5?$AAn?$AAo?$AAt?$AA?5?$AAd?$AAe?$AAc?$AAr?$AAe?$AAm?$AAe?$AAn?$AAt?$AAa?$AAb@ 004f9a60     database.obj
 0003:00001ab8       ??_C@_1BKO@OEDIHMMI@?$AAs?$AAt?$AAd?$AA?3?$AA?3?$AA_?$AAT?$AAr?$AAe?$AAe?$AA_?$AAc?$AAo?$AAn?$AAs?$AAt?$AA_?$AAi?$AAt?$AAe?$AAr?$AAa?$AAt?$AAo?$AAr?$AA?$DM?$AAc?$AAl?$AAa?$AAs?$AAs?$AA?5@ 004f9ab8     database.obj
 0003:00001cbc       ??_C@_0BE@JONHPENG@map?1set?$DMT?$DO?5too?5long?$AA@ 004f9cbc     database.obj
 0003:00001cd4       ??_C@_00CNPNBAHC@?$AA@     004f9cd4     databaseMgr.obj
 0003:00001cd8       ??_C@_02DPKJAMEF@?$CFd?$AA@ 004f9cd8     databaseMgr.obj
 0003:00001ce0       ??_7databaseMgr@@6B@       004f9ce0     databaseMgr.obj
 0003:00001ce8       ??_C@_07JBEBLGDD@CC_ROOT?$AA@ 004f9ce8     databaseMgr.obj
 0003:00001cf4       ??_C@_09DDAHAMBK@CC_SYSTEM?$AA@ 004f9cf4     databaseMgr.obj
 0003:00001d00       ??_C@_0BE@PHFFEGCA@?$CFs?2?$CFs?2config?2system?$AA@ 004f9d00     databaseMgr.obj
 0003:00001d18       ??_C@_0BD@FFAKGAPP@c?3?2bncs_config?4ini?$AA@ 004f9d18     databaseMgr.obj
 0003:00001d30       ??_C@_0L@DHJBNFFA@ConfigPath?$AA@ 004f9d30     databaseMgr.obj
 0003:00001d40       ??_C@_06LLCHJONG@Config?$AA@ 004f9d40     databaseMgr.obj
 0003:00001d48       ??_C@_09KJFGGFMG@Device?5?$CFd?$AA@ 004f9d48     databaseMgr.obj
 0003:00001d54       ??_C@_04FABLJDN@Name?$AA@  004f9d54     databaseMgr.obj
 0003:00001d5c       ??_C@_06OIEJKIHP@Device?$AA@ 004f9d5c     databaseMgr.obj
 0003:00001d64       ??_C@_0P@ONIBKGMN@DatabaseSize_0?$AA@ 004f9d64     databaseMgr.obj
 0003:00001d78       ??_C@_0P@PEJKJHIM@DatabaseSize_1?$AA@ 004f9d78     databaseMgr.obj
 0003:00001d8c       ??_C@_0P@NPLHMEEP@DatabaseSize_2?$AA@ 004f9d8c     databaseMgr.obj
 0003:00001da0       ??_C@_0P@MGKMPFAO@DatabaseSize_3?$AA@ 004f9da0     databaseMgr.obj
 0003:00001db4       ??_C@_0P@IJONGDMJ@DatabaseSize_4?$AA@ 004f9db4     databaseMgr.obj
 0003:00001dc8       ??_C@_0P@JAPGFCII@DatabaseSize_5?$AA@ 004f9dc8     databaseMgr.obj
 0003:00001ddc       ??_C@_0P@LLNLABEL@DatabaseSize_6?$AA@ 004f9ddc     databaseMgr.obj
 0003:00001df0       ??_C@_0P@KCMADAAK@DatabaseSize_7?$AA@ 004f9df0     databaseMgr.obj
 0003:00001e04       ??_C@_0P@CFFICMMF@DatabaseSize_8?$AA@ 004f9e04     databaseMgr.obj
 0003:00001e18       ??_C@_0P@DMEDBNIE@DatabaseSize_9?$AA@ 004f9e18     databaseMgr.obj
 0003:00001e2c       ??_C@_0L@DNMHFEPG@?$CFs?2?$CFs?2data?$AA@ 004f9e2c     databaseMgr.obj
 0003:00001e3c       ??_C@_0BN@CDBCPLJ@path?5to?5databaseMgr?5dump?5is?3?$AA@ 004f9e3c     databaseMgr.obj
 0003:00001e60       ??_C@_1BBO@GEEHCEOG@?$AAs?$AAt?$AAd?$AA?3?$AA?3?$AA_?$AAT?$AAr?$AAe?$AAe?$AA_?$AAc?$AAo?$AAn?$AAs?$AAt?$AA_?$AAi?$AAt?$AAe?$AAr?$AAa?$AAt?$AAo?$AAr?$AA?$DM?$AAc?$AAl?$AAa?$AAs?$AAs?$AA?5@ 004f9e60     databaseMgr.obj
 0003:00001fb8       ??_C@_1BBM@PCJOLFCG@?$AAs?$AAt?$AAd?$AA?3?$AA?3?$AA_?$AAT?$AAr?$AAe?$AAe?$AA_?$AAc?$AAo?$AAn?$AAs?$AAt?$AA_?$AAi?$AAt?$AAe?$AAr?$AAa?$AAt?$AAo?$AAr?$AA?$DM?$AAc?$AAl?$AAa?$AAs?$AAs?$AA?5@ 004f9fb8     databaseMgr.obj
 0003:00002110       ??_C@_1BBO@MELKMNCD@?$AAs?$AAt?$AAd?$AA?3?$AA?3?$AA_?$AAT?$AAr?$AAe?$AAe?$AA_?$AAc?$AAo?$AAn?$AAs?$AAt?$AA_?$AAi?$AAt?$AAe?$AAr?$AAa?$AAt?$AAo?$AAr?$AA?$DM?$AAc?$AAl?$AAa?$AAs?$AAs?$AA?5@ 004fa110     databaseMgr.obj
 0003:00002268       ??_C@_1BBO@DHIIHBOC@?$AAs?$AAt?$AAd?$AA?3?$AA?3?$AA_?$AAT?$AAr?$AAe?$AAe?$AA_?$AAc?$AAo?$AAn?$AAs?$AAt?$AA_?$AAi?$AAt?$AAe?$AAr?$AAa?$AAt?$AAo?$AAr?$AA?$DM?$AAc?$AAl?$AAa?$AAs?$AAs?$AA?5@ 004fa268     databaseMgr.obj
 0003:000023c4       ??_7bncs_disklog@@6B@      004fa3c4     bncs_disklog.obj
 0003:000023cc       ??_C@_0L@ILPMAFPO@?$CFs?2?$CFs?2logs?$AA@ 004fa3cc     bncs_disklog.obj
 0003:000023dc       ??_C@_0M@EEBKEKAD@c?3?2bncslogs?$AA@ 004fa3dc     bncs_disklog.obj
 0003:000023ec       ??_C@_0BG@DPKAAFIM@localtime?5has?5failed?6?$AA@ 004fa3ec     bncs_disklog.obj
 0003:00002408       ??_C@_0N@GLHMENIG@?$CFs?2?$CFs?2?$CFs?4log?$AA@ 004fa408     bncs_disklog.obj
 0003:00002418       ??_C@_0BH@EBDFGIGN@?$CFs?2?$CFs?2?$CF04d?$CF02d?$CF02d?4log?$AA@ 004fa418     bncs_disklog.obj
 0003:00002434       ??_C@_0BM@MFEMPJOF@?$CFs?2?$CFs?2?$CF04d?$CF02d?$CF02d?9?$CF02d?4log?$AA@ 004fa434     bncs_disklog.obj
 0003:00002458       ??_C@_0CE@NIPIAOPO@bncs_disklog?3?5Can?8t?5open?5log?5fil@ 004fa458     bncs_disklog.obj
 0003:00002484       ??_C@_0CE@NLINMDII@?$CF02d?1?$CF02d?1?$CF04d?5?$CF02d?3?$CF02d?3?$CF02d?4?$CF0@ 004fa484     bncs_disklog.obj
 0003:000024b0       ??_C@_02KEGNLNML@?0?5?$AA@ 004fa4b0     bncs_disklog.obj
 0003:000024b4       ??_C@_02PCIJFNDE@?$AN?6?$AA@ 004fa4b4     bncs_disklog.obj
 0003:000024b8       ??_C@_01KICIPPFI@?2?$AA@   004fa4b8     bncs_disklog.obj
 0003:000024bc       ??_C@_01FGNFDNOH@?$CF?$AA@ 004fa4bc     bncs_gcd.obj
 0003:000024c0       ??_C@_04OKGDLNCL@NONE?$AA@ 004fa4c0     bncs_gcd.obj
 0003:000024c8       ??_C@_0BC@PJNFDIL@?$CFs?2?$CFs?2windows?2bin?$AA@ 004fa4c8     bncs_gcd.obj
 0003:000024e0       ??_C@_0L@LGPNDKFG@SystemPath?$AA@ 004fa4e0     bncs_gcd.obj
 0003:000024f0       ??_C@_0BC@EDPHGLLE@?$CFs?2?$CFs?2windows?2lib?$AA@ 004fa4f0     bncs_gcd.obj
 0003:00002508       ?npos@?$basic_string@DU?$char_traits@D@std@@V?$allocator@D@2@@std@@2IB 004fa508     ccCheck.obj
 0003:0000250c       ??_C@_02LMMGGCAJ@?3?5?$AA@ 004fa50c     ccCheck.obj
 0003:00002514       ??_7ccCheck@@6B@           004fa514     ccCheck.obj
 0003:0000251c       ??_C@_0CJ@PMKCGGCL@Device?5Number?5of?5out?5range?5?$CIless@ 004fa51c     ccCheck.obj
 0003:00002550       ??_C@_0CL@LCKFFHKG@Device?5Number?5of?5out?5range?5?$CI?$DO?5MA@ 004fa550     ccCheck.obj
 0003:00002584       ??_C@_0CI@IGLAJDJI@Index?5Number?5of?5out?5range?5?$CIless?5@ 004fa584     ccCheck.obj
 0003:000025b4       ??_C@_0CI@PMCCDFOB@Index?5Number?5of?5out?5range?5?$CI?$DO?5MAX@ 004fa5b4     ccCheck.obj
 0003:000025e4       ??_C@_0DC@OGFBPEGN@Source?5Number?5of?5out?5range?5?$CIless@ 004fa5e4     ccCheck.obj
 0003:00002620       ??_C@_0CJ@EKBPLHLJ@Source?5Number?5of?5out?5range?5?$CI?$DO?5MA@ 004fa620     ccCheck.obj
 0003:00002654       ??_C@_0BK@BPKEILLL@Invalid?5range?5?$CIstart?$DOend?$CJ?$AA@ 004fa654     ccCheck.obj
 0003:00002674       ??_C@_0BN@GMGDKPOE@Invalid?5DB?5range?5?$CIstart?$DOend?$CJ?$AA@ 004fa674     ccCheck.obj
 0003:00002698       ??_C@_0BP@FBPPACIB@Invalid?5database?5?$CIless?5than?50?$CJ?$AA@ 004fa698     ccCheck.obj
 0003:000026c0       ??_C@_0BK@LPOMIHEL@Invalid?5database?5?$CI?$CFd?$DO?$DN?$CFd?$CJ?$AA@ 004fa6c0     ccCheck.obj
 0003:000026e0       ??_C@_0CC@INPPJMAN@Invalid?5V1?5database?5?$CIless?5than?50@ 004fa6e0     ccCheck.obj
 0003:00002708       ??_C@_0BJ@FEDIHLOJ@Invalid?5V1?5database?5?$CI?$DO1?$CJ?$AA@ 004fa708     ccCheck.obj
 0003:00002728       ??_C@_0BM@OBNIHFBG@Note?3?5string?5?$DO?5characters?3?5?$AA@ 004fa728     ccCheck.obj
 0003:0000274c       ??_C@_0CF@IABOACOB@Workstation?5number?5invalid?5?$CI?$DM?51?$CJ@ 004fa74c     ccCheck.obj
 0003:00002778       ??_C@_0DE@NBJHIANK@Workstation?5number?5invalid?5?$CI?$DO?5MA@ 004fa778     ccCheck.obj
 0003:000027b8       ??_C@_0BC@CMAJLKHG@String?5too?5long?3?5?$AA@ 004fa7b8     ccCheck.obj
 0003:000027d0       ??_C@_1MG@EJJEEIDE@?$AAs?$AAt?$AAd?$AA?3?$AA?3?$AA_?$AAT?$AAr?$AAe?$AAe?$AA_?$AAc?$AAo?$AAn?$AAs?$AAt?$AA_?$AAi?$AAt?$AAe?$AAr?$AAa?$AAt?$AAo?$AAr?$AA?$DM?$AAc?$AAl?$AAa?$AAs?$AAs?$AA?5@ 004fa7d0     closedDriversList.obj
 0003:000028c0       ??_C@_1MI@HPECIIFL@?$AAs?$AAt?$AAd?$AA?3?$AA?3?$AA_?$AAT?$AAr?$AAe?$AAe?$AA_?$AAc?$AAo?$AAn?$AAs?$AAt?$AA_?$AAi?$AAt?$AAe?$AAr?$AAa?$AAt?$AAo?$AAr?$AA?$DM?$AAc?$AAl?$AAa?$AAs?$AAs?$AA?5@ 004fa8c0     closedDriversList.obj
 0003:000029b0       ??_C@_1MI@NPLPGBJO@?$AAs?$AAt?$AAd?$AA?3?$AA?3?$AA_?$AAT?$AAr?$AAe?$AAe?$AA_?$AAc?$AAo?$AAn?$AAs?$AAt?$AA_?$AAi?$AAt?$AAe?$AAr?$AAa?$AAt?$AAo?$AAr?$AA?$DM?$AAc?$AAl?$AAa?$AAs?$AAs?$AA?5@ 004fa9b0     closedDriversList.obj
 0003:00002aa0       ??_C@_1MI@IMHADEJK@?$AAs?$AAt?$AAd?$AA?3?$AA?3?$AA_?$AAT?$AAr?$AAe?$AAe?$AA_?$AAc?$AAo?$AAn?$AAs?$AAt?$AA_?$AAi?$AAt?$AAe?$AAr?$AAa?$AAt?$AAo?$AAr?$AA?$DM?$AAc?$AAl?$AAa?$AAs?$AAs?$AA?5@ 004faaa0     closedDriversList.obj
 0003:00002b90       ??_C@_05NPNNLANM@ABOUT?$AA@ 004fab90     Csabout.obj
 0003:00002b98       ??_C@_0BA@GEPECOA@Version?5?$CFs?5?9?5?$CFs?$AA@ 004fab98     Csabout.obj
 0003:00002bac       ??_C@_08JNEIIPLE@15?356?354?$AA@ 004fabac     Csabout.obj
 0003:00002bb8       ??_C@_0M@BKMHKHNE@Apr?520?52020?$AA@ 004fabb8     Csabout.obj
 0003:00002bc8       ??_C@_07FCJAGJJB@?$CFs?5?9?5?$CFs?$AA@ 004fabc8     Csabout.obj
 0003:00002bd4       ??_C@_0CC@EKIBBCFC@Cache?5test?5for?5driver?5?$CFd?4?4?4?4?4?4?4?4@ 004fabd4     Cscache.obj
 0003:00002bfc       ??_C@_0CN@OEMBOGPE@Cache?5test?5for?5driver?5?$CFd?5?9?5can?8t@ 004fabfc     Cscache.obj
 0003:00002c34       ??_C@_0DC@CEAKEBH@Cache?5test?5for?5driver?5?$CFd?5?9?5handl@ 004fac34     Cscache.obj
 0003:00002c70       ??_C@_0CN@KHDKAC@Cache?5test?5for?5driver?5?$CFd?5value?5o@ 004fac70     Cscache.obj
 0003:00002ca8       ??_C@_0CD@BCFKMHNJ@Cache?5test?5for?5driver?5?$CFd?5yields?5@ 004faca8     Cscache.obj
 0003:00002cd4       ??_C@_0CK@BPFPENIK@CSCache_Clear?3?5Device?5number?5inv@ 004facd4     Cscache.obj
 0003:00002d08       ??_C@_05JFADILIK@CSI32?$AA@ 004fad08     Cscache.obj
 0003:00002d10       ??_C@_0BF@MLHJIMCA@CSCache_PostedPoll?$CI?$CJ?$AA@ 004fad10     Cscache.obj
 0003:00002d30       ??_C@_0EB@IJMBPNME@CSCache_PostedPoll?5?9?5start?5of?5wo@ 004fad30     Cscache.obj
 0003:00002d80       ??_C@_0DM@GCCLFHN@CSCache_PostedPoll?5?9?5start?5of?5de@ 004fad80     Cscache.obj
 0003:00002dc8       ??_C@_0EE@GGFEJIJD@CSI32?3?5CSCache_PostedRTRPoll?3?5in@ 004fadc8     Cscache.obj
 0003:00002e1c       ??_C@_0BH@KPJDIJIA@RR?5?$CF03d?5?$CF03d?5?$CF03d?5?8?$CFs?8?$AA@ 004fae1c     Cscache.obj
 0003:00002e38       ??_C@_0EE@GOCLPFEH@CSI32?3?5CSCache_PostedGPIPoll?3?5in@ 004fae38     Cscache.obj
 0003:00002e8c       ??_C@_0BH@CMKHPBHO@GR?5?$CF03d?5?$CF03d?5?$CF03d?5?8?$CFd?8?$AA@ 004fae8c     Cscache.obj
 0003:00002ea8       ??_C@_0BH@NILNHFNH@IR?5?$CF03d?5?$CF03d?5?$CF03d?5?8?$CFs?8?$AA@ 004faea8     Cscache.obj
 0003:00002ec4       ??_C@_01CLKCMJKC@?5?$AA@   004faec4     Cscache.obj
 0003:00002ec8       ??_C@_05HOPBAMFM@?9?5?9?5?9?$AA@ 004faec8     Cscache.obj
 0003:00002ed0       ??_C@_0CD@LJFHCDPC@CSCache_InfoRead?3?5cache?5READ?5err@ 004faed0     Cscache.obj
 0003:00002efc       ??_C@_0CD@PMBFLPJC@CSCache_InfoRead?3?5cache?5SEEK?5err@ 004faefc     Cscache.obj
 0003:00002f28       ??_C@_0BA@MBBCEMEI@?$CFs?2CSI_?$CF03d?4ICF?$AA@ 004faf28     Cscache.obj
 0003:00002f3c       ??_C@_0BP@CMDOEJPJ@Unable?5to?5open?5cache?5file?5?8?$CFs?8?$AA@ 004faf3c     Cscache.obj
 0003:00002f64       ??_C@_0N@EIJCKHGM@?$CFs?2CSI_?$CK?4ICF?$AA@ 004faf64     Cscache.obj
 0003:00002f74       ??_C@_01GBGANLPD@0?$AA@    004faf74     Cscache.obj
 0003:00002f78       ??_C@_04IDGPBBML@BNCS?$AA@ 004faf78     Cscache.obj
 0003:00002f80       ??_C@_0L@HPMOMCOD@?9?9?1?9?9?1?9?9?9?9?$AA@ 004faf80     Cscache.obj
 0003:00002f90       ??_C@_1IK@DNCJHBGE@?$AAc?$AA?3?$AA?2?$AAp?$AAr?$AAo?$AAg?$AAr?$AAa?$AAm?$AA?5?$AAf?$AAi?$AAl?$AAe?$AAs?$AA?5?$AA?$CI?$AAx?$AA8?$AA6?$AA?$CJ?$AA?2?$AAm?$AAi?$AAc?$AAr?$AAo?$AAs?$AAo?$AAf?$AAt@ 004faf90     Cscache.obj
 0003:00003038       ??_C@_1CO@FNIDKHMC@?$AAd?$AAe?$AAq?$AAu?$AAe?$AA?5?$AAe?$AAm?$AAp?$AAt?$AAy?$AA?5?$AAb?$AAe?$AAf?$AAo?$AAr?$AAe?$AA?5?$AAp?$AAo?$AAp?$AA?$AA@ 004fb038     Cscache.obj
 0003:00003070       ??_C@_0BC@KBDMBKEH@deque?$DMT?$DO?5too?5long?$AA@ 004fb070     Cscache.obj
 0003:00003088       ??_C@_1EE@INPCGGNP@?$AAd?$AAe?$AAq?$AAu?$AAe?$AA?5?$AAi?$AAt?$AAe?$AAr?$AAa?$AAt?$AAo?$AAr?$AA?5?$AAn?$AAo?$AAt?$AA?5?$AAd?$AAe?$AAr?$AAe?$AAf?$AAe?$AAr?$AAe?$AAn?$AAc?$AAa?$AAb?$AAl@ 004fb088     Cscache.obj
 0003:000030e0       ??_C@_1OI@NJMIJIMJ@?$AAs?$AAt?$AAd?$AA?3?$AA?3?$AA_?$AAD?$AAe?$AAq?$AAu?$AAe?$AA_?$AAc?$AAo?$AAn?$AAs?$AAt?$AA_?$AAi?$AAt?$AAe?$AAr?$AAa?$AAt?$AAo?$AAr?$AA?$DM?$AAc?$AAl?$AAa?$AAs?$AAs@ 004fb0e0     Cscache.obj
 0003:000031f8       ??_C@_1CO@DGLIKNHI@?$AAi?$AAn?$AAv?$AAa?$AAl?$AAi?$AAd?$AA?5?$AAi?$AAt?$AAe?$AAr?$AAa?$AAt?$AAo?$AAr?$AA?5?$AAr?$AAa?$AAn?$AAg?$AAe?$AA?$AA@ 004fb1f8     Cscache.obj
 0003:00003230       ??_C@_1IO@HFHPAKCC@?$AAc?$AA?3?$AA?2?$AAp?$AAr?$AAo?$AAg?$AAr?$AAa?$AAm?$AA?5?$AAf?$AAi?$AAl?$AAe?$AAs?$AA?5?$AA?$CI?$AAx?$AA8?$AA6?$AA?$CJ?$AA?2?$AAm?$AAi?$AAc?$AAr?$AAo?$AAs?$AAo?$AAf?$AAt@ 004fb230     Cscache.obj
 0003:000032dc       ??_C@_0N@LAFOMMIJ@NA?5?$CF03d?5?$CF03d?$AA@ 004fb2dc     Cscmd.obj
 0003:000032ec       ??_C@_05DIALNFFA@?$CFs?5?$CFd?$AA@ 004fb2ec     Cscmd.obj
 0003:000032f4       ??_C@_07MEPHJPEC@CSI?4INI?$AA@ 004fb2f4     Cscmd.obj
 0003:00003300       ??_C@_09FMACHHHI@CSIEnable?$AA@ 004fb300     Cscmd.obj
 0003:0000330c       ??_C@_07BGDMAJAE@Network?$AA@ 004fb30c     Cscmd.obj
 0003:00003318       ??_C@_0CC@KFOKGEBC@CSI32?5V?$CFs?5?$CIWS?$CF02d?$CJ?5?9?5?$CB?5Disabled?5@ 004fb318     Cscmd.obj
 0003:00003340       ??_C@_01HIHLOKLC@1?$AA@    004fb340     Cscmd.obj
 0003:00003344       ??_C@_0BD@CKAJGPLN@CSI32?5V?$CFs?5?$CIWS?$CF02d?$CJ?$AA@ 004fb344     Cscmd.obj
 0003:0000335c       ??_C@_0BC@JKLEHOEA@NO?5?$CF03d?5?$CF03d?5?$CF03d?$AA@ 004fb35c     Cscmd.obj
 0003:00003374       ??_C@_0DM@IIFAIOI@Master?5Device?5?$CFd?5is?5Tx?1Rx?5on?5WS?5@ 004fb374     Cscmd.obj
 0003:000033bc       ??_C@_0DC@FIKCGKNE@Device?5?$CFd?5is?5Tx?1Rx?5on?5WS?5?$CFd?0?5rev@ 004fb3bc     Cscmd.obj
 0003:000033f8       ??_C@_0BD@BJMPLGLC@this?5client?5has?5?$CFd?$AA@ 004fb3f8     Cscmd.obj
 0003:00003410       ??_C@_0CD@LLMBINEK@?$CF02d?5?$CF02d?5?$CF04d?5?$CF02d?5?$CF02d?5?$CF02d?5?$CF0@ 004fb410     Cscmd.obj
 0003:0000343c       ??_C@_0CJ@GBFNODBK@Can?8t?5set?5time?5from?5timestamp?4?5E@ 004fb43c     Cscmd.obj
 0003:00003470       ??_C@_02LMHINHBC@HB?$AA@   004fb470     Cscmd.obj
 0003:00003474       ??_C@_0DA@CLBHFDAD@CSCmd_Heartbeat?3?5illegal?5worksta@ 004fb474     Cscmd.obj
 0003:000034b0       ??_C@_0FC@JGIHNAFB@Packet?5serial?5number?5error?5from?5@ 004fb4b0     Cscmd.obj
 0003:00003518       ??_C@_0ED@LHPOHKEF@Packet?5serial?5number?5error?3?5got?1@ 004fb518     Cscmd.obj
 0003:00003568       ??_C@_0DD@OJLNHDF@Cleared?5cache?5following?5packet?5e@ 004fb568     Cscmd.obj
 0003:000035a8       ??_C@_03DPLIHHLN@?$CFd?0?$AA@ 004fb5a8     Cscmd.obj
 0003:000035ac       ??_C@_0BM@HMHKIDLG@?$CFd?0?$CF02d?0?$CF02d?0?$CF02d?0?$CF02d?0?$CF02d?$AA@ 004fb5ac     Cscmd.obj
 0003:000035d0       ??_C@_0BB@IPBLDINE@0?000?000?000?000?000?$AA@ 004fb5d0     Cscmd.obj
 0003:000035e4       ??_C@_0CA@CLAOGGME@?$CFd?0?$CF02d?0?$CF02d?0?$CF02d?0?$CFs?0?$CFld?0?$CFld?0?$CFs?$AA@ 004fb5e4     Cscmd.obj
 0003:0000360c       ??_C@_08LBGAIFHM@starting?$AA@ 004fb60c     Cscmd.obj
 0003:00003618       ??_C@_05MLOKNOLM@?$CF03dT?$AA@ 004fb618     Cscmd.obj
 0003:00003620       ??_C@_05JNLAHJDK@?$CF03dR?$AA@ 004fb620     Cscmd.obj
 0003:00003628       ??_C@_05NHHCGLGL@?$CF03dB?$AA@ 004fb628     Cscmd.obj
 0003:00003630       ??_C@_01IHBHIGKO@?0?$AA@   004fb630     Cscmd.obj
 0003:00003634       ??_C@_0P@NIJOMKEP@IP?5?$CFd?5?$CFd?5?$CFd?5?$CFd?$AA@ 004fb634     Cscmd.obj
 0003:00003648       ??_C@_1II@JJNHCLOG@?$AAc?$AA?3?$AA?2?$AAp?$AAr?$AAo?$AAg?$AAr?$AAa?$AAm?$AA?5?$AAf?$AAi?$AAl?$AAe?$AAs?$AA?5?$AA?$CI?$AAx?$AA8?$AA6?$AA?$CJ?$AA?2?$AAm?$AAi?$AAc?$AAr?$AAo?$AAs?$AAo?$AAf?$AAt@ 004fb648     Cscmd.obj
 0003:000036f0       ??_C@_1EE@BBMFLDOC@?$AAl?$AAi?$AAs?$AAt?$AA?5?$AAe?$AAr?$AAa?$AAs?$AAe?$AA?5?$AAi?$AAt?$AAe?$AAr?$AAa?$AAt?$AAo?$AAr?$AA?5?$AAo?$AAu?$AAt?$AAs?$AAi?$AAd?$AAe?$AA?5?$AAr?$AAa?$AAn?$AAg@ 004fb6f0     Cscmd.obj
 0003:00003748       ??_C@_1EC@HILJLMMC@?$AAl?$AAi?$AAs?$AAt?$AA?5?$AAi?$AAt?$AAe?$AAr?$AAa?$AAt?$AAo?$AAr?$AA?5?$AAn?$AAo?$AAt?$AA?5?$AAd?$AAe?$AAr?$AAe?$AAf?$AAe?$AAr?$AAe?$AAn?$AAc?$AAa?$AAb?$AAl?$AAe@ 004fb748     Cscmd.obj
 0003:00003798       ??_C@_1NO@HOHILHLO@?$AAs?$AAt?$AAd?$AA?3?$AA?3?$AA_?$AAL?$AAi?$AAs?$AAt?$AA_?$AAc?$AAo?$AAn?$AAs?$AAt?$AA_?$AAi?$AAt?$AAe?$AAr?$AAa?$AAt?$AAo?$AAr?$AA?$DM?$AAc?$AAl?$AAa?$AAs?$AAs?$AA?5@ 004fb798     Cscmd.obj
 0003:000038a8       ??_C@_1EA@DOGAGKDH@?$AAl?$AAi?$AAs?$AAt?$AA?5?$AAi?$AAt?$AAe?$AAr?$AAa?$AAt?$AAo?$AAr?$AA?5?$AAn?$AAo?$AAt?$AA?5?$AAi?$AAn?$AAc?$AAr?$AAe?$AAm?$AAe?$AAn?$AAt?$AAa?$AAb?$AAl?$AAe?$AA?$AA@ 004fb8a8     Cscmd.obj
 0003:000038f8       ??_C@_1OA@JDCMCAPL@?$AAs?$AAt?$AAd?$AA?3?$AA?3?$AA_?$AAL?$AAi?$AAs?$AAt?$AA_?$AAc?$AAo?$AAn?$AAs?$AAt?$AA_?$AAi?$AAt?$AAe?$AAr?$AAa?$AAt?$AAo?$AAr?$AA?$DM?$AAc?$AAl?$AAa?$AAs?$AAs?$AA?5@ 004fb8f8     Cscmd.obj
 0003:00003a04       ??_C@_1DI@MDELDGPI@?$AAl?$AAi?$AAs?$AAt?$AA?5?$AAi?$AAt?$AAe?$AAr?$AAa?$AAt?$AAo?$AAr?$AAs?$AA?5?$AAi?$AAn?$AAc?$AAo?$AAm?$AAp?$AAa?$AAt?$AAi?$AAb?$AAl?$AAe?$AA?$AA@ 004fba04     Cscmd.obj
 0003:00003a48       ??_C@_1OA@DDNBMJDO@?$AAs?$AAt?$AAd?$AA?3?$AA?3?$AA_?$AAL?$AAi?$AAs?$AAt?$AA_?$AAc?$AAo?$AAn?$AAs?$AAt?$AA_?$AAi?$AAt?$AAe?$AAr?$AAa?$AAt?$AAo?$AAr?$AA?$DM?$AAc?$AAl?$AAa?$AAs?$AAs?$AA?5@ 004fba48     Cscmd.obj
 0003:00003b58       ??_C@_1PC@NKKAOICB@?$AAs?$AAt?$AAd?$AA?3?$AA?3?$AA_?$AAL?$AAi?$AAs?$AAt?$AA_?$AAc?$AAo?$AAn?$AAs?$AAt?$AA_?$AAi?$AAt?$AAe?$AAr?$AAa?$AAt?$AAo?$AAr?$AA?$DM?$AAc?$AAl?$AAa?$AAs?$AAs?$AA?5@ 004fbb58     Cscmd.obj
 0003:00003c80       ??_C@_1PC@HKFNABOE@?$AAs?$AAt?$AAd?$AA?3?$AA?3?$AA_?$AAL?$AAi?$AAs?$AAt?$AA_?$AAc?$AAo?$AAn?$AAs?$AAt?$AA_?$AAi?$AAt?$AAe?$AAr?$AAa?$AAt?$AAo?$AAr?$AA?$DM?$AAc?$AAl?$AAa?$AAs?$AAs?$AA?5@ 004fbc80     Cscmd.obj
 0003:00003da8       ??_C@_1PA@CEFBFMHD@?$AAs?$AAt?$AAd?$AA?3?$AA?3?$AA_?$AAL?$AAi?$AAs?$AAt?$AA_?$AAc?$AAo?$AAn?$AAs?$AAt?$AA_?$AAi?$AAt?$AAe?$AAr?$AAa?$AAt?$AAo?$AAr?$AA?$DM?$AAc?$AAl?$AAa?$AAs?$AAs?$AA?5@ 004fbda8     Cscmd.obj
 0003:00003ec8       ??_C@_1BDG@HKEBEKF@?$AAs?$AAt?$AAd?$AA?3?$AA?3?$AA_?$AAT?$AAr?$AAe?$AAe?$AA_?$AAc?$AAo?$AAn?$AAs?$AAt?$AA_?$AAi?$AAt?$AAe?$AAr?$AAa?$AAt?$AAo?$AAr?$AA?$DM?$AAc?$AAl?$AAa?$AAs?$AAs?$AA?5@ 004fbec8     Cscmd.obj
 0003:00004040       ??_C@_1BDG@FEGLEBKB@?$AAs?$AAt?$AAd?$AA?3?$AA?3?$AA_?$AAT?$AAr?$AAe?$AAe?$AA_?$AAc?$AAo?$AAn?$AAs?$AAt?$AA_?$AAi?$AAt?$AAe?$AAr?$AAa?$AAt?$AAo?$AAr?$AA?$DM?$AAc?$AAl?$AAa?$AAs?$AAs?$AA?5@ 004fc040     Cscmd.obj
 0003:000041b4       ??_C@_0BN@NJLADOJF@CSI32?5?9?5Workstation?5?$CFd?5?9?5V?$CFs?$AA@ 004fc1b4     Csdbase.obj
 0003:000041d8       ??_C@_0N@JBMIKOEK@DataBaseLoad?$AA@ 004fc1d8     Csdbase.obj
 0003:000041e8       ??_C@_0BJ@JPGOGDFK@?5Attaching?5to?5network?4?4?4?$AA@ 004fc1e8     Csdbase.obj
 0003:00004208       ??_C@_0BP@LKJNMKCP@Control?5System?5Interface?5?9?5V?$CFs?$AA@ 004fc208     Csdbase.obj
 0003:00004230       ??_C@_09CBJIEDON@GRD_?$CK?4INI?$AA@ 004fc230     Csdbase.obj
 0003:0000423c       ??_C@_0L@LNABNACG@GPID_?$CK?4INI?$AA@ 004fc23c     Csdbase.obj
 0003:0000424c       ??_C@_08HGOIPPEA@ID_?$CK?4INI?$AA@ 004fc24c     Csdbase.obj
 0003:00004258       ??_C@_09DMJAOBAA@DEV_?$CK?4INI?$AA@ 004fc258     Csdbase.obj
 0003:00004264       ??_C@_03NJJKGAHE@0?01?$AA@ 004fc264     Csdbase.obj
 0003:00004268       ??_C@_0P@IMJHKPKK@?$CFsDEV_?$CF03d?4INI?$AA@ 004fc268     Csdbase.obj
 0003:0000427c       ??_C@_0BC@PMNFBOHA@DatabaseFile_?$CF01d?$AA@ 004fc27c     Csdbase.obj
 0003:00004294       ??_C@_0BA@FFBAGKED@?$FLDatabase_?$CF01d?$FN?$AA@ 004fc294     Csdbase.obj
 0003:000042a8       ??_C@_04HDOCAJNK@?$CFs?$CFs?$AA@ 004fc2a8     Csdbase.obj
 0003:000042b0       ??_C@_03LEIBKMN@?0?$CFd?$AA@ 004fc2b0     Csdbase.obj
 0003:000042b4       ??_C@_0M@LGJGCHHC@GRD?5?9?$DO?5?$CF03d?$AA@ 004fc2b4     Csdbase.obj
 0003:000042c4       ??_C@_0P@LPEHLKBN@?$CFsGRD_?$CF03d?4INI?$AA@ 004fc2c4     Csdbase.obj
 0003:000042d8       ??_C@_0P@GJCFNGNH@?$CFsDEV_?$CF03d?4CDF?$AA@ 004fc2d8     Csdbase.obj
 0003:000042ec       ??_C@_07IHOKLMHB@Sources?$AA@ 004fc2ec     Csdbase.obj
 0003:000042f8       ??_C@_06KJABCPFL@Router?$AA@ 004fc2f8     Csdbase.obj
 0003:00004300       ??_C@_0N@JMMDPLMO@Destinations?$AA@ 004fc300     Csdbase.obj
 0003:00004310       ??_C@_0L@JDDOKKBM@Index_?$CF03d?$AA@ 004fc310     Csdbase.obj
 0003:00004320       ??_C@_02PGHGPEOM@?91?$AA@  004fc320     Csdbase.obj
 0003:00004324       ??_C@_0M@OGNIBAPN@?9?5?9?5?9?0?9?5?9?5?9?$AA@ 004fc324     Csdbase.obj
 0003:00004334       ??_C@_02JDPG@rb?$AA@       004fc334     Csdbase.obj
 0003:00004338       ??_C@_0M@GFJOHFBP@DEV?5?9?$DO?5?$CF03d?$AA@ 004fc338     Csdbase.obj
 0003:00004348       ??_C@_0N@IDEJEKPD@INFO?5?9?$DO?5?$CF03d?$AA@ 004fc348     Csdbase.obj
 0003:00004358       ??_C@_0M@IOEJLGPM@ID_?$CF03d?4LCK?$AA@ 004fc358     Csdbase.obj
 0003:00004368       ??_C@_08EAFBCPDL@SlotSize?$AA@ 004fc368     Csdbase.obj
 0003:00004374       ??_C@_0O@PIILMNHI@Configuration?$AA@ 004fc374     Csdbase.obj
 0003:00004384       ??_C@_05KMEKLDKF@Slots?$AA@ 004fc384     Csdbase.obj
 0003:0000438c       ??_C@_0N@HJHMPMEE@DEV_?$CF03d?4INI?$AA@ 004fc38c     Csdbase.obj
 0003:0000439c       ??_C@_0O@IDNCBOJL@DEV_?$CF03d?4DB?$CFd?$AA@ 004fc39c     Csdbase.obj
 0003:000043ac       ??_C@_02JLHCEMDI@64?$AA@   004fc3ac     Csdbase.obj
 0003:000043b0       ??_C@_0P@DHMHHHIG@DatabaseFile_0?$AA@ 004fc3b0     Csdbase.obj
 0003:000043c4       ??_C@_0P@CONMEGMH@DatabaseFile_1?$AA@ 004fc3c4     Csdbase.obj
 0003:000043d8       ??_C@_0O@FGJDHJBC@Database_?$CF01d?$AA@ 004fc3d8     Csdbase.obj
 0003:000043e8       ??_C@_0N@JMMOIFDJ@DEV_?$CF03d?4CDF?$AA@ 004fc3e8     Csdbase.obj
 0003:000043f8       ??_C@_02GMLFBBN@wb?$AA@    004fc3f8     Csdbase.obj
 0003:000043fc       ??_C@_0DA@CHPFOME@CSDbase_GetDatabaseName?3?5paramet@ 004fc3fc     Csdbase.obj
 0003:00004438       ??_C@_06BKPBEGPJ@R?54?5?$CFd?$AA@ 004fc438     Csdbase.obj
 0003:00004440       ??_C@_07MEGFEJGN@?$CBError?$CB?$AA@ 004fc440     Csdbase.obj
 0003:0000444c       ??_C@_0BC@IOMKNPJ@Index?5?$CFd?0?5Size?5?$CFd?$AA@ 004fc44c     Csdbase.obj
 0003:00004464       ??_C@_05HHFOOOHO@?$CFs?0?$CFs?$AA@ 004fc464     Csdbase.obj
 0003:0000446c       ??_C@_04GNHGENPN@DEV_?$AA@ 004fc46c     Csdbase.obj
 0003:00004474       ??_C@_0N@FJFECOOC@dev_?$CF03d?4ini?$AA@ 004fc474     Csdbase.obj
 0003:00004484       ??_C@_0P@IBGMGCNG@?$CFsDEV_?$CF03d?4ini?$AA@ 004fc484     csdbext.obj
 0003:00004498       ??_C@_0BA@FDNOLJHL@?$CFsDEV_?$CF03d?4CD?$CFd?$AA@ 004fc498     csdbext.obj
 0003:000044ac       ??_C@_0CN@DJCJMLEF@Creating?5high?5order?5database?5cac@ 004fc4ac     csdbext.obj
 0003:000044e4       ??_C@_0CC@EJGEMGMK@Updating?5high?5order?5database?5?8?$CFs@ 004fc4e4     csdbext.obj
 0003:0000450c       ??_C@_07IDCAFMIK@INFOBOX?$AA@ 004fc50c     Csdialog.obj
 0003:00004518       ??_C@_04OHGLKFFN@?$CF03d?$AA@ 004fc518     Csdialog.obj
 0003:00004520       ??_C@_04OEOPHBDD@?$CF01d?$AA@ 004fc520     Csdialog.obj
 0003:00004528       ??_C@_05MNLODOPG@?$CF08ld?$AA@ 004fc528     Csdialog.obj
 0003:00004530       ??_C@_04OGKJMPGK@?$CF02d?$AA@ 004fc530     Csdialog.obj
 0003:00004538       ??_C@_04OBKAGHLG@?$CF06d?$AA@ 004fc538     Csdialog.obj
 0003:00004540       ??_C@_04OLDOEKLM@?$CF08d?$AA@ 004fc540     Csdialog.obj
 0003:00004548       ??_C@_06ECLMOOEJ@?$CF02d?$CF?$CF?$AA@ 004fc548     Csdialog.obj
 0003:00004550       ??_C@_0EL@HLAAHCJK@NetSendDG?5?9?5more?5than?59999?5buffe@ 004fc550     Csdialog.obj
 0003:000045b0       ??_C@_0EK@DOEAMFAK@I?8ve?5had?5to?5say?5we?8re?5all?5correc@ 004fc5b0     Csimain.obj
 0003:00004608       ??_C@_09EOPPABOA@CC_SECURE?$AA@ 004fc608     Csimain.obj
 0003:00004618       ??_C@_0ED@CCILOOFI@csi32?5V?$CFs?5started?5up?9?9?9?9?9?9?9?9?9?9?9?9@ 004fc618     Csimain.obj
 0003:00004668       ??_C@_0BH@KADLOJBJ@CSI32_MAIN_APPLICATION?$AA@ 004fc668     Csimain.obj
 0003:00004688       ??_C@_0EC@JMOJMCDO@Request?5to?5start?5CSI32?5when?5an?5i@ 004fc688     Csimain.obj
 0003:000046d8       ??_C@_04IFEHPILC@Menu?$AA@ 004fc6d8     Csimain.obj
 0003:000046e0       ??_C@_0BE@JPJNFPAL@CSI32?5?9?5Starting?5up?$AA@ 004fc6e0     Csimain.obj
 0003:000046f8       ??_C@_01DCLJPIOD@?$CB?$AA@ 004fc6f8     Csimain.obj
 0003:000046fc       ??_C@_02OEIPDHIL@PR?$AA@   004fc6fc     Csimain.obj
 0003:00004700       ??_C@_0DC@JPNHPPFH@Error?5corrected?$CB?5workstation?5?$CFd?5@ 004fc700     Csimain.obj
 0003:00004740       ??_C@_0EE@LDAGBHJE@Cleared?5cache?5following?5packet?5e@ 004fc740     Csimain.obj
 0003:00004794       ??_C@_0BA@PPDEJJFL@NETWORK_MANAGER?$AA@ 004fc794     Csimain.obj
 0003:000047a8       ??_C@_09POOIEEMK@WS?$CF03d?5?9?5?$AA@ 004fc7a8     Csimain.obj
 0003:000047b4       ??_C@_0DF@EAJCFHNK@CSI32?3?5simulating?5RX?5unreliabili@ 004fc7b4     Csimain.obj
 0003:000047f4       ??_C@_0M@DDNOHNFA@CONFIG_VIEW?$AA@ 004fc7f4     Csimain.obj
 0003:00004804       ??_C@_07PIGLAMMC@csi?4ini?$AA@ 004fc804     Csimain.obj
 0003:00004810       ??_C@_04PMOCAHAA@open?$AA@ 004fc810     Csimain.obj
 0003:00004818       ??_C@_02KJDGAJLC@CC?$AA@   004fc818     Csimain.obj
 0003:0000481c       ??_C@_0CL@LPIBGCE@BBC_REGCLIENT?1CSI_CONNECT32?5?9?5AP@ 004fc81c     Csimain.obj
 0003:00004850       ??_C@_0CO@JPPBMNOD@BBC_REGCLIENT32?1CSI_CONNECT32?5?9?5@ 004fc850     Csimain.obj
 0003:00004888       ??_C@_0BA@HOCGIIEH@iCacheEnable?$DN?$CFd?$AA@ 004fc888     Csimain.obj
 0003:0000489c       ??_C@_0BP@DJNANFAB@CSServer?5handle?5already?5in?5use?$AA@ 004fc89c     Csimain.obj
 0003:000048c4       ??_C@_0BP@NMACJOBP@FBCSlink?5handle?5already?5in?5use?$AA@ 004fc8c4     Csimain.obj
 0003:000048f0       ??_C@_0EG@FBAMMNKP@Attempt?5to?5register?5redundancy?5m@ 004fc8f0     Csimain.obj
 0003:00004948       ??_C@_0EF@NFNIPIOK@Attempt?5to?5register?5redundancy?5m@ 004fc948     Csimain.obj
 0003:0000499c       ??_C@_0CH@KGFOBGAI@Setting?5redundancy?5master?5for?5?$CFd@ 004fc99c     Csimain.obj
 0003:000049d0       ??_C@_0FO@FKAHELLC@Attempt?5to?5register?5redundancy?5m@ 004fc9d0     Csimain.obj
 0003:00004a40       ??_C@_0N@GHEGDKMD@csi32fix?4exe?$AA@ 004fca40     Csimain.obj
 0003:00004a50       ??_C@_0M@MNAONKKF@csi32?5Error?$AA@ 004fca50     Csimain.obj
 0003:00004a60       ??_C@_0JM@ILMJPPHO@Cannot?5start?5csi32fix?4exe?5?9?5this@ 004fca60     Csimain.obj
 0003:00004b1c       ??_C@_0L@CBNGBLIF@bwcc32?4dll?$AA@ 004fcb1c     Csimain.obj
 0003:00004b2c       ??_C@_0M@BMPOINFK@CSI32?5Error?$AA@ 004fcb2c     Csimain.obj
 0003:00004b3c       ??_C@_0DA@EIOIHAIM@Cannot?5load?5Borland?5controls?5lib@ 004fcb3c     Csimain.obj
 0003:00004b78       ??_C@_0N@PDOBLJOO@BWCCRegister?$AA@ 004fcb78     Csimain.obj
 0003:00004b88       ??_C@_09KCLNJDLN@Disabled?$CB?$AA@ 004fcb88     Csimain.obj
 0003:00004b94       ??_C@_09MPNAHAN@?$CB?5Error?5?$CB?$AA@ 004fcb94     Csimain.obj
 0003:00004ba0       ??_C@_0FF@GKKPAKEO@Workstation?5number?5not?5set?5in?5bn@ 004fcba0     Csimain.obj
 0003:00004c08       ??_C@_0IJ@FCDKCF@Workstation?5number?5not?5set?5in?5CS@ 004fcc08     Csimain.obj
 0003:00004cb0       ??_C@_0FC@BLLKILHF@A?5valid?5licence?5key?5file?5?8bncs_k@ 004fccb0     Csimain.obj
 0003:00004d18       ??_C@_0GL@OLHGFPIH@The?5workstation?5number?5in?5the?5CS@ 004fcd18     Csimain.obj
 0003:00004d98       ??_C@_0P@BDCFFBNC@Starting?5?9?5V?$CFs?$AA@ 004fcd98     Csimain.obj
 0003:00004dac       ??_C@_0DO@IMOMGOKL@?$CBWarning?$CB?5?3?5There?5are?5?$CFd?5INI?5fil@ 004fcdac     Csimain.obj
 0003:00004df8       ??_C@_07PMHLEHMN@NL?5?$CF03d?$AA@ 004fcdf8     Csimain.obj
 0003:00004e04       ??_C@_0CC@ILHGOCFA@CSI32?5?9?5Messaging?5Fix?5applicatio@ 004fce04     Csimain.obj
 0003:00004e2c       ??_C@_0CC@CHLPFHOJ@inf32?5?9?5Messaging?5Fix?5applicatio@ 004fce2c     Csimain.obj
 0003:00004e54       ??_C@_0CC@FFPAPCBO@grd32?5?9?5Messaging?5Fix?5applicatio@ 004fce54     Csimain.obj
 0003:00004e7c       ??_C@_0BB@OMJOGLEN@?4?4?4?5Closing?5down?$AA@ 004fce7c     Csimain.obj
 0003:00004e90       ??_C@_0N@ONINMHPM@csi_lock?4tmp?$AA@ 004fce90     Csimain.obj
 0003:00004ea0       ??_C@_0DI@LIIOFFHL@?$CKUNRELIABLE?$CK?5CSI32?5?9?5V?$CFs?5?9?5?$CFs?5?9?5@ 004fcea0     Csimain.obj
 0003:00004ee4       ??_C@_0CL@DLIEKGGG@CSI32?5?9?5V?$CFs?5?9?5?$CFs?5?9?5Workstation?5?$CF@ 004fcee4     Csimain.obj
 0003:00004f18       ??_C@_0O@HOOPOMCF@?5?9?5Loopback?5O?$AA@ 004fcf18     Csimain.obj
 0003:00004f28       ??_C@_01EFFIKLCJ@n?$AA@    004fcf28     Csimain.obj
 0003:00004f2c       ??_C@_02HPEDFNFO@ff?$AA@   004fcf2c     Csimain.obj
 0003:00004f30       ??_C@_03LKHCFACI@nly?$AA@  004fcf30     Csimain.obj
 0003:00004f34       ??_C@_0BA@GHFKPBHA@?5?9?5?$CB?5Disabled?5?$CB?$AA@ 004fcf34     Csimain.obj
 0003:00004f48       ??_C@_08PJGOPNMK@DiagMode?$AA@ 004fcf48     Csimain.obj
 0003:00004f54       ??_C@_0M@KLCHMOKB@Diagnostics?$AA@ 004fcf54     Csimain.obj
 0003:00004f64       ??_C@_0P@NDALLNJE@DiagModeExtend?$AA@ 004fcf64     Csimain.obj
 0003:00004f78       ??_C@_09DAMNBEKD@DebugMode?$AA@ 004fcf78     Csimain.obj
 0003:00004f84       ??_C@_0O@HBFIENKE@SessionEnable?$AA@ 004fcf84     Csimain.obj
 0003:00004f94       ??_C@_0N@DFIPDPGD@ClientEnable?$AA@ 004fcf94     Csimain.obj
 0003:00004fa4       ??_C@_0N@CFHGKKGI@DriverEnable?$AA@ 004fcfa4     Csimain.obj
 0003:00004fb4       ??_C@_0M@FPBKNPFP@CacheEnable?$AA@ 004fcfb4     Csimain.obj
 0003:00004fc4       ??_C@_05BEHOCFPE@Cache?$AA@ 004fcfc4     Csimain.obj
 0003:00004fcc       ??_C@_0CB@IMAEOPIP@CSMain_TxCmd?3?5device?5number?5zero@ 004fcfcc     Csimain.obj
 0003:00004ff4       ??_C@_0CO@IKKBEPAN@CSMain_TxCmd?3?5device?5number?5more@ 004fcff4     Csimain.obj
 0003:0000502c       ??_C@_0CP@EHFCIFFE@?$CBError?$CB?5?3?5Client?5tried?5sending?5?$CF@ 004fd02c     Csimain.obj
 0003:00005064       ??_C@_0BC@IAMHHMAJ@GRD_?$CF03d?5?5?5?5?5?5?5?5?5?$AA@ 004fd064     Csimain.obj
 0003:0000507c       ??_C@_0BC@OHBNFGLM@GPID_?$CF03d?5?5?5?5?5?5?5?5?$AA@ 004fd07c     Csimain.obj
 0003:00005094       ??_C@_0BC@IFIJBFEN@ID_?$CF03d?5?5?5?5?5?5?5?5?5?5?$AA@ 004fd094     Csimain.obj
 0003:000050ac       ??_C@_0BC@EPJNIDBF@BS_?$CF03d?5?5?5?5?5?5?5?5?5?5?$AA@ 004fd0ac     Csimain.obj
 0003:000050c4       ??_C@_01JLIPDDHJ@?3?$AA@   004fd0c4     Csimain.obj
 0003:000050c8       ??_C@_0O@IPMGEACO@?3NN?5?$CF03d?5?$CF08x?$AA@ 004fd0c8     Csimain.obj
 0003:000050d8       ??_C@_0CK@EELHMHKM@TS?5?$CF02d?5?$CF2d?5?$CF04d?5?$CF02d?5?$CF02d?5?$CF02d?5@ 004fd0d8     Csimain.obj
 0003:0000510c       ??_C@_03JDANDILB@?$CFd?5?$AA@ 004fd10c     Csimain.obj
 0003:00005110       ??_C@_06JNINJID@?5?$CFd?5?$CFd?$AA@ 004fd110     Csimain.obj
 0003:00005118       ??_C@_0EJ@JNKFPPKP@?$DMCSI?$DO?500?0?$CF03d?0?$CF02d?0?$CFd?0?$CFd?0?$CFd?0?$CFd?0?$CF@ 004fd118     Csimain.obj
 0003:00005170       ??_C@_0BD@POFMOEAB@?$DMCSI?$DO?501?0?$CF03d?0?$CF02d?$AA@ 004fd170     Csimain.obj
 0003:00005188       ??_C@_0BE@NHLOAPDJ@not?5Txrx?5?9?5checking?$AA@ 004fd188     Csimain.obj
 0003:000051a0       ??_C@_0BG@DNGNOEOL@not?5Txrx?5?9?5setting?5so?$AA@ 004fd1a0     Csimain.obj
 0003:000051bc       ??_C@_0O@BFDDCKOF@NC?5?$CF03ld?5?$CF03d?$AA@ 004fd1bc     Csimain.obj
 0003:000051cc       ??_C@_0O@CPGMEMMD@NI?5?$CF03ld?5?$CF03d?$AA@ 004fd1cc     Csimain.obj
 0003:000051dc       ??_C@_0O@HFGPJPKO@NA?5?$CF03ld?5?$CF03d?$AA@ 004fd1dc     Csimain.obj
 0003:000051ec       ??_C@_0BA@HAEMMOH@NO?5?$CF03ld?50?5?$CF03d?$AA@ 004fd1ec     Csimain.obj
 0003:00005200       ??_C@_0O@MIKFPDGA@NB?5?$CF03ld?5?$CF03d?$AA@ 004fd200     Csimain.obj
 0003:00005210       ??_C@_0CO@DOHFNCCE@Incomplete?5session?5status?5messag@ 004fd210     Csimain.obj
 0003:00005248       ??_C@_0BI@EBCCELHM@ClearCacheOnPacketError?$AA@ 004fd248     Csimain.obj
 0003:00005264       ??_C@_0BI@PBACOFEK@SendPacketSerialNumbers?$AA@ 004fd264     Csimain.obj
 0003:00005280       ??_C@_0BJ@BAOPCMGH@SendCommandSerialNumbers?$AA@ 004fd280     Csimain.obj
 0003:000052a0       ??_C@_0EK@BKJOGNGD@csi32?5shut?5down?9?9?9?9?9?9?9?9?9?9?9?9?9?9?9?9?9@ 004fd2a0     Csimain.obj
 0003:000052f8       ??_C@_0DB@OIKDBPMN@Drivers?3?5Mx?3?5?$CF08ld?5Tx?3?5?$CF08ld?5Rx?3@ 004fd2f8     Csimain.obj
 0003:00005334       ??_C@_0DL@GLMPFKHP@Clients?3?5Mx?3?5?$CF08ld?5Tx?3?5?$CF08ld?5Rx?3@ 004fd334     Csimain.obj
 0003:0000537c       ??_C@_0BP@GHKBNILH@NetSend?5HWM?3?5?5?5?5?5?5?5?5?5?5?5?5?5?$CF08ld?$AA@ 004fd37c     Csimain.obj
 0003:000053a4       ??_C@_0BP@CAIHLAAO@NetSend?5Errors?3?5?5?5?5?5?5?5?5?5?5?$CF08ld?$AA@ 004fd3a4     Csimain.obj
 0003:000053cc       ??_C@_0BP@HDACACAL@Cache?5poll?5queue?5HWM?3?5?5?5?5?$CF08ld?$AA@ 004fd3cc     Csimain.obj
 0003:000053f4       ??_C@_0BP@GLCMHEGC@Receive?5queue?5HWM?3?5?5?5?5?5?5?5?$CF08ld?$AA@ 004fd3f4     Csimain.obj
 0003:0000541c       ??_C@_0BP@GPCFIDAG@Rev?5pkt?5ser?5num?5errs?3?5?5?5?5?$CF08ld?$AA@ 004fd41c     Csimain.obj
 0003:00005444       ??_C@_0BP@DACBFECC@Unrecoverable?5pkt?5errs?3?5?5?$CF08ld?$AA@ 004fd444     Csimain.obj
 0003:0000546c       ??_C@_0BP@HOCNICJK@Relevant?5recovered?5pkts?3?5?$CF08ld?$AA@ 004fd46c     Csimain.obj
 0003:00005494       ??_C@_0BP@CCPLDFOK@Irrelevant?5recoverd?5pkts?3?$CF08ld?$AA@ 004fd494     Csimain.obj
 0003:000054c0       ??_C@_0EK@EEGIEKK@?9?9?9?9?9?9?9?9?9?9?9?9?9?9?9?9?9?9?9?9?9?9?9?9?9?9?9?9?9?9?9?9@ 004fd4c0     Csimain.obj
 0003:00005518       ??_C@_04JLMDILM@?4exe?$AA@ 004fd518     Csimain.obj
 0003:00005520       ??_C@_04PICIEOBI@?4chm?$AA@ 004fd520     Csimain.obj
 0003:00005528       ??_C@_02OBAMLDBN@PE?$AA@   004fd528     Csimain.obj
 0003:0000552c       ??_C@_0BA@DPJEINPK@Workstation?5?$CFd?6?$AA@ 004fd52c     Csimain.obj
 0003:00005540       ??_C@_07ONPBMBOP@message?$AA@ 004fd540     Csimain.obj
 0003:0000554c       ??_C@_03BFKAHOOJ@csi?$AA@  004fd54c     Csimain.obj
 0003:00005550       ??_C@_06FJHNOCKE@thread?$AA@ 004fd550     Csimain.obj
 0003:00005558       ??_C@_0BA@GFEJKLCD@Overflow?$AB?$KM?$AF?$AH?$AD?$KM?$GA?$AA@ 004fd558     Csimain.obj
 0003:00005570       ??_C@_1BDG@KHFJPNGA@?$AAs?$AAt?$AAd?$AA?3?$AA?3?$AA_?$AAT?$AAr?$AAe?$AAe?$AA_?$AAc?$AAo?$AAn?$AAs?$AAt?$AA_?$AAi?$AAt?$AAe?$AAr?$AAa?$AAt?$AAo?$AAr?$AA?$DM?$AAc?$AAl?$AAa?$AAs?$AAs?$AA?5@ 004fd570     Csimain.obj
 0003:000056e8       ??_C@_1BDE@KKDNEHCJ@?$AAs?$AAt?$AAd?$AA?3?$AA?3?$AA_?$AAT?$AAr?$AAe?$AAe?$AA_?$AAc?$AAo?$AAn?$AAs?$AAt?$AA_?$AAi?$AAt?$AAe?$AAr?$AAa?$AAt?$AAo?$AAr?$AA?$DM?$AAc?$AAl?$AAa?$AAs?$AAs?$AA?5@ 004fd6e8     Csimain.obj
 0003:00005860       ??_C@_1BDE@KMAKOOM@?$AAs?$AAt?$AAd?$AA?3?$AA?3?$AA_?$AAT?$AAr?$AAe?$AAe?$AA_?$AAc?$AAo?$AAn?$AAs?$AAt?$AA_?$AAi?$AAt?$AAe?$AAr?$AAa?$AAt?$AAo?$AAr?$AA?$DM?$AAc?$AAl?$AAa?$AAs?$AAs?$AA?5@ 004fd860     Csimain.obj
 0003:000059d8       ??_C@_1BDE@HLLKKFOL@?$AAs?$AAt?$AAd?$AA?3?$AA?3?$AA_?$AAT?$AAr?$AAe?$AAe?$AA_?$AAc?$AAo?$AAn?$AAs?$AAt?$AA_?$AAi?$AAt?$AAe?$AAr?$AAa?$AAt?$AAo?$AAr?$AA?$DM?$AAc?$AAl?$AAa?$AAs?$AAs?$AA?5@ 004fd9d8     Csimain.obj
 0003:00005b50       ??_C@_1BDC@BNIBAEOH@?$AAs?$AAt?$AAd?$AA?3?$AA?3?$AA_?$AAT?$AAr?$AAe?$AAe?$AA_?$AAc?$AAo?$AAn?$AAs?$AAt?$AA_?$AAi?$AAt?$AAe?$AAr?$AAa?$AAt?$AAo?$AAr?$AA?$DM?$AAc?$AAl?$AAa?$AAs?$AAs?$AA?5@ 004fdb50     Csimain.obj
 0003:00005cc0       ??_C@_1OC@CKENBPGG@?$AAs?$AAt?$AAd?$AA?3?$AA?3?$AA_?$AAL?$AAi?$AAs?$AAt?$AA_?$AAc?$AAo?$AAn?$AAs?$AAt?$AA_?$AAi?$AAt?$AAe?$AAr?$AAa?$AAt?$AAo?$AAr?$AA?$DM?$AAc?$AAl?$AAa?$AAs?$AAs?$AA?5@ 004fdcc0     Csimain.obj
 0003:00005dd0       ??_C@_1OE@CMABAAD@?$AAs?$AAt?$AAd?$AA?3?$AA?3?$AA_?$AAL?$AAi?$AAs?$AAt?$AA_?$AAc?$AAo?$AAn?$AAs?$AAt?$AA_?$AAi?$AAt?$AAe?$AAr?$AAa?$AAt?$AAo?$AAr?$AA?$DM?$AAc?$AAl?$AAa?$AAs?$AAs?$AA?5@ 004fddd0     Csimain.obj
 0003:00005ee4       ??_C@_0BB@MOGOBHAF@list?$DMT?$DO?5too?5long?$AA@ 004fdee4     Csimain.obj
 0003:00005ef8       ??_C@_07LEJMGMMC@LICENSE?$AA@ 004fdef8     CSLICENS.obj
 0003:00005f04       ??_C@_0BB@IJGCILIH@licensed?5to?5?8?$CFs?8?$AA@ 004fdf04     CSLICENS.obj
 0003:00005f18       ??_C@_0BE@MLCKBDBE@Licence?5expiry?5?3?5?$CFs?$AA@ 004fdf18     CSLICENS.obj
 0003:00005f30       ??_C@_0BB@NJOCLLEC@Max?5Drivers?5?3?5?$CFd?$AA@ 004fdf30     CSLICENS.obj
 0003:00005f44       ??_C@_0BB@EPKNBEOB@Max?5Devices?5?3?5?$CFd?$AA@ 004fdf44     CSLICENS.obj
 0003:00005f58       ??_C@_0BE@EKHKPGMK@Maximum?5Users?5?3?9?5?$CFd?$AA@ 004fdf58     CSLICENS.obj
 0003:00005f70       ??_C@_0BI@LMAJPMNF@This?5is?5workstation?5?$CFd?4?$AA@ 004fdf70     CSLICENS.obj
 0003:00005f8c       ??_C@_05GBEJKOJK@CSI?$CFd?$AA@ 004fdf8c     Csndi.obj
 0003:00005f94       ??_C@_03BIFLLDJF@CSI?$AA@  004fdf94     Csndi.obj
 0003:00005f98       ??_C@_0BL@BBGMHEPI@sending?5command?5to?5gateway?$AA@ 004fdf98     Csndi.obj
 0003:00005fb8       ??_C@_0DI@GPLLBNHM@CSI32?3?5IPC?5failure?5but?5not?5delet@ 004fdfb8     Csndi.obj
 0003:00005ffc       ??_C@_0DI@GCANPJID@Request?5to?5register?5device?5?$CFld?5f@ 004fdffc     Csndi.obj
 0003:00006040       ??_C@_0DO@IDJEAMKK@Removing?5registration?5for?5device@ 004fe040     Csndi.obj
 0003:0000608c       ??_C@_0CC@IIONBMAF@Number?5of?5drivers?5exceeds?5licens@ 004fe08c     Csndi.obj
 0003:000060b4       ??_C@_0DJ@KOECCOFI@Device?5?$CFd?5is?5already?5registered?5@ 004fe0b4     Csndi.obj
 0003:000060f8       ??_C@_0DD@DMEMLEKB@Driver?5hWnd?5?$CF04x?5is?5unregisterin@ 004fe0f8     Csndi.obj
 0003:00006138       ??_C@_0N@FMGFFCBG@NC?5?$CF03d?5?$CF03d?$AA@ 004fe138     Csndi.obj
 0003:00006148       ??_C@_0DK@NBNKEFLP@Request?5to?5send?5UNIMESSAGE?5with?5@ 004fe148     Csndi.obj
 0003:00006190       ??_C@_0BC@OJFONGBH@?$CFs?2CP?$CF03d?$CF03d?4TMP?$AA@ 004fe190     Csndi.obj
 0003:000061a8       ??_C@_0CI@PKJBIJNB@Unable?5to?5open?5temporary?5poll?5fi@ 004fe1a8     Csndi.obj
 0003:000061d8       ??_C@_0CI@KGIEEGCE@Error?5?3?5?5Could?5not?5close?5temp?5po@ 004fe1d8     Csndi.obj
 0003:00006208       ??_C@_08ICEILEAN@CSI?5?3?5?$CFs?$AA@ 004fe208     Csndi.obj
 0003:00006214       ??_C@_07MCOIDKDE@?$DM?$CFd?$DO?5?$CFs?$AA@ 004fe214     Csndi.obj
 0003:00006220       ??_C@_0CA@EIGCKBGG@?$CBError?5?9?$DO?5CSI?5?$CFs?5on?5WS?5?$CFd?5?9?$DO?5?$CFs?$AA@ 004fe220     Csndi.obj
 0003:00006248       ??_C@_1BDE@FJAPPLOI@?$AAs?$AAt?$AAd?$AA?3?$AA?3?$AA_?$AAT?$AAr?$AAe?$AAe?$AA_?$AAc?$AAo?$AAn?$AAs?$AAt?$AA_?$AAi?$AAt?$AAe?$AAr?$AAa?$AAt?$AAo?$AAr?$AA?$DM?$AAc?$AAl?$AAa?$AAs?$AAs?$AA?5@ 004fe248     Csndi.obj
 0003:000063bc       ??_C@_0BB@LOJFOIFL@RP?5?$CFd?5?$CFs?5?9?9?9?50?50?$AA@ 004fe3bc     Csnetcli.obj
 0003:000063d0       ??_C@_0BB@FNGKJNKK@GP?5?$CFd?5?$CFs?5?9?9?9?50?50?$AA@ 004fe3d0     Csnetcli.obj
 0003:000063e4       ??_C@_0BB@BMEOGFDM@IP?5?$CFd?5?$CFs?5?9?9?9?50?50?$AA@ 004fe3e4     Csnetcli.obj
 0003:000063f8       ??_C@_0CB@BHJIEGPD@Attempting?5to?5send?5poll?5file?5?4?4?4@ 004fe3f8     Csnetcli.obj
 0003:00006420       ??_C@_0BE@DLOBAGHK@?$CFs?5?$CFd?5?$CFs?5?$CFs?5?$CFd?5?$CF08x?$AA@ 004fe420     Csnetcli.obj
 0003:00006438       ??_C@_0BG@CIFCOILK@?$CF02x?5?$CFd?5?$CFs?5?$CFs?5?$CFd?5?$CF08x?$AA@ 004fe438     Csnetcli.obj
 0003:00006454       ??_C@_0BE@JBBGJNFG@?$CFx?5?$CFd?5?$CFs?5?$CFs?5?$CFd?5?$CF08x?$AA@ 004fe454     Csnetcli.obj
 0003:0000646c       ??_C@_0BD@GKKLFGLG@WORKSTATION_?$CF02d?5?5?$AA@ 004fe46c     Csnetcli.obj
 0003:00006484       ??_C@_04CNJBKMPC@Call?$AA@ 004fe484     Csnetcli.obj
 0003:0000648c       ??_C@_0BE@HMAOEPFA@?$DMCS?$DO?9NCBCALL?5failed?$AA@ 004fe48c     Csnetcli.obj
 0003:000064a4       ??_C@_0BE@PEHHLDLF@?8Call?5Accepted?8?5?5?$CFd?$AA@ 004fe4a4     Csnetcli.obj
 0003:000064bc       ??_C@_0BM@CIDNMLMJ@Info?5for?5Status?5waiting?4?4?4?4?$AA@ 004fe4bc     Csnetcli.obj
 0003:000064e0       ??_C@_08MAONNLAM@?$CFx?5?$CFd?5?$CFs?$AA@ 004fe4e0     Csnetcli.obj
 0003:000064ec       ??_C@_0DI@FAELMNJJ@?$CBError?5?9?5CSNetCli_RxData?$CI?$CJ?5Inval@ 004fe4ec     Csnetcli.obj
 0003:00006530       ??_C@_0DG@HPOLDCPD@?$CBError?5?9?5Received?5invalid?5sessio@ 004fe530     Csnetcli.obj
 0003:00006570       ??_C@_0BE@DGJHEPHF@Sending?5request?4?4?4?5?$AA@ 004fe570     Csnetcli.obj
 0003:00006588       ??_C@_0L@BKPKPAFL@?$CF02x?5?$CFd?5?$CFs?$AA@ 004fe588     Csnetcli.obj
 0003:00006598       ??_C@_0BO@JLINNFPF@Session?5Result?5?3?50x?$CF04x?5?$CFd?5?$CFd?$AA@ 004fe598     Csnetcli.obj
 0003:000065bc       ??_C@_0CJ@CLIBAIOP@Network?5fail?5?$CIand?5HWND_BROADCAST@ 004fe5bc     CSNETMSG.obj
 0003:000065f0       ??_C@_0N@KFGLIDNA@Network?5fail?$AA@ 004fe5f0     CSNETMSG.obj
 0003:00006600       ??_C@_0CA@IECIEFHA@BBC_NETSTATUSMSG?0?5NETWORK_FAIL?6?$AA@ 004fe600     CSNETMSG.obj
 0003:00006628       ??_C@_0BE@GKBJCBFM@?$DMCS?$DO?9MSG?9Unexpected?$AA@ 004fe628     CSNETMSG.obj
 0003:00006640       ??_C@_0BK@OINPOCEL@?$DMCS?$DO?9MSG?9NCBDGSEND?5failed?$AA@ 004fe640     CSNETMSG.obj
 0003:00006660       ??_C@_0BH@HIHIBOHH@?$DMCS?$DO?9MSG?9LISTEN?5failed?$AA@ 004fe660     CSNETMSG.obj
 0003:0000667c       ??_C@_0BF@JIEOBOEK@?$DMCS?$DO?9MSG?9CALL?5failed?$AA@ 004fe67c     CSNETMSG.obj
 0003:00006698       ??_C@_0BE@FKNDEING@Attempting?5retry?4?4?4?$AA@ 004fe698     CSNETMSG.obj
 0003:000066b0       ??_C@_0BI@NLJDMCBE@?$DMCS?$DO?9MSG?9NCBSEND?5failed?$AA@ 004fe6b0     CSNETMSG.obj
 0003:000066cc       ??_C@_0BI@DHPOGPDM@?$DMCS?$DO?9MSG?9NCBRECV?5failed?$AA@ 004fe6cc     CSNETMSG.obj
 0003:000066e8       ??_C@_0BJ@INENAIPB@NetReceive?$CI?$CJ?5post?5failed?$AA@ 004fe6e8     Csnetses.obj
 0003:00006708       ??_C@_0BI@DHFJFODO@?$DMCS?$DO?9IMM?9NCBSEND?5failed?$AA@ 004fe708     Csnetses.obj
 0003:00006724       ??_C@_0BO@HMMCGDCA@Forcing?5closure?5on?5Tx?5session?$AA@ 004fe724     Csnetses.obj
 0003:00006748       ??_C@_0CF@FBJEMGHI@Hanging?5up?5aborted?5session?5on?5LS@ 004fe748     Csnetses.obj
 0003:00006774       ??_C@_0CC@IGNJELJO@Alive?5session?5on?5LSN?5?$CFd?5?9?5Tick?5?$CF@ 004fe774     Csnetses.obj
 0003:0000679c       ??_C@_0CK@GHANJOF@Hanging?5up?5zombie?5alive?5session?5@ 004fe79c     Csnetses.obj
 0003:000067d0       ??_C@_0CF@BLEJPALA@?$DMCS?$DO?9IMM?9NCBHANGUP?5failed?5on?5ses@ 004fe7d0     Csnetses.obj
 0003:000067fc       ??_C@_0BD@EKIGHHEL@Hanging?5up?5session?$AA@ 004fe7fc     Csnetses.obj
 0003:00006814       ??_C@_0BL@KMCFJCLF@Deleting?5temporary?5file?5?$CFs?$AA@ 004fe814     Csnetses.obj
 0003:00006834       ??_C@_0BB@CKNKCEGB@?$CFs?2CSI0_?$CF03d?4TMP?$AA@ 004fe834     Csnetses.obj
 0003:00006848       ??_C@_0CD@JHIIGMEA@Unable?5to?5open?5directory?5file?5?8?$CF@ 004fe848     Csnetses.obj
 0003:00006874       ??_C@_0BA@CDMAOEJM@Directory?5of?5?$CFs?$AA@ 004fe874     Csnetses.obj
 0003:00006888       ??_C@_0P@BIECMILO@?$CFs?5?5?5?5?5?5?5?5?5?5?5?5?$AA@ 004fe888     Csnetses.obj
 0003:0000689c       ??_C@_0BH@NPCLKEEP@?9?9?9?5?$CFd?5files?5found?5?9?9?9?$AA@ 004fe89c     Csnetses.obj
 0003:000068b8       ??_C@_0BJ@ECLBCBFK@Unable?5to?5open?5file?5?8?$CFs?8?$AA@ 004fe8b8     Csnetses.obj
 0003:000068d8       ??_C@_0CA@LNIKGBON@Unable?5to?5read?5from?5file?50x?$CF04x?$AA@ 004fe8d8     Csnetses.obj
 0003:00006900       ??_C@_03KPJEKKJC@EOF?$AA@  004fe900     Csnetses.obj
 0003:00006904       ??_C@_0CB@NAPGHLLO@TX?5?3?5Sending?5?$CFd?5bytes?5on?5session@ 004fe904     Csnetses.obj
 0003:0000692c       ??_C@_0L@EGGPGGEG@Read?5?3?5EOF?$AA@ 004fe92c     Csnetses.obj
 0003:0000693c       ??_C@_0BO@NGAHMOCH@Error?5?3?5?5Could?5not?5close?5file?$AA@ 004fe93c     Csnetses.obj
 0003:00006960       ??_C@_0P@DKFADINI@Posting?5Listen?$AA@ 004fe960     Csnetsrv.obj
 0003:00006974       ??_C@_01NBENCBCI@?$CK?$AA@ 004fe974     Csnetsrv.obj
 0003:00006978       ??_C@_0BI@BIGHCCCB@NetListen?$CI?$CJ?5post?5failed?$AA@ 004fe978     Csnetsrv.obj
 0003:00006994       ??_C@_0BC@HLFGEFAM@?8Listen?8?5accepted?$AA@ 004fe994     Csnetsrv.obj
 0003:000069ac       ??_C@_0DA@LIMJBABF@?$CBError?5?9?5CSNetSrv_TxData?$CI?$CJ?5inval@ 004fe9ac     Csnetsrv.obj
 0003:000069e8       ??_C@_0CG@JDIJBPMD@SRX?3?5Incoming?5request?5on?5session@ 004fe9e8     Csnetsrv.obj
 0003:00006a18       ??_C@_08MFGOFPJK@?$CFx?5?$CFd?5?$CFd?$AA@ 004fea18     Csnetsrv.obj
 0003:00006a24       ??_C@_0BD@OECDJMPD@SRX?5?3?51st?5Dir?5File?$AA@ 004fea24     Csnetsrv.obj
 0003:00006a3c       ??_C@_0CC@NDNJBNBD@?$CBError?5?9?5Directory?5does?5not?5exis@ 004fea3c     Csnetsrv.obj
 0003:00006a64       ??_C@_0BD@OJNBIAED@SRX?5?3?51st?5Get?5File?$AA@ 004fea64     Csnetsrv.obj
 0003:00006a7c       ??_C@_0BE@COCMOEPL@SRX?5?3?51st?5Poll?5File?$AA@ 004fea7c     Csnetsrv.obj
 0003:00006a94       ??_C@_0BE@CBPPJMHM@SRX?5?3?51st?5Send?5File?$AA@ 004fea94     Csnetsrv.obj
 0003:00006aac       ??_C@_0DA@KGEDHPPN@?$CBError?5?9?5CSNetSrv_RxData?$CI?$CJ?5Inval@ 004feaac     Csnetsrv.obj
 0003:00006ae8       ??_C@_0BE@FNJOLJKH@SRX?5?3?52st?5Send?5File?$AA@ 004feae8     Csnetsrv.obj
 0003:00006b00       ??_C@_0CK@OPJCINAO@?$CBError?5?92?9?5CSNetSrv_RxData?$CI?$CJ?5ses@ 004feb00     Csnetsrv.obj
 0003:00006b34       ??_C@_0BB@KGCPINME@DEVICE_CONTROL?$CFd?$AA@ 004feb34     Csnetsup.obj
 0003:00006b48       ??_C@_0P@JIFIOMKO@DEVICE_CONTROL?$AA@ 004feb48     Csnetsup.obj
 0003:00006b60       ??_C@_0HL@LKFKNLFE@Unable?5to?5access?5the?5network?4?5Th@ 004feb60     Csnetsup.obj
 0003:00006bf4       ??_C@_0P@ICEPHMNP@STATUS_CHANNEL?$AA@ 004febf4     Csnetsup.obj
 0003:00006c08       ??_C@_0CH@OLKDAECM@Network?5OK?5?$CIand?5HWND_BROADCAST?5f@ 004fec08     Csnetsup.obj
 0003:00006c38       ??_C@_0L@DBNNJMAJ@Network?5OK?$AA@ 004fec38     Csnetsup.obj
 0003:00006c48       ??_C@_0BO@NJKHEGGB@BBC_NETSTATUSMSG?0?5NETWORK_OK?6?$AA@ 004fec48     Csnetsup.obj
 0003:00006c70       ??_C@_0EA@FJKBEEDL@Unable?5to?5initialise?5network?5int@ 004fec70     Csnetsup.obj
 0003:00006cbc       ??_C@_0BL@OKBPCIDF@NetReceiveDG?$CI?$CJ?5post?5failed?$AA@ 004fecbc     Csnetsup.obj
 0003:00006cdc       ??_C@_0DK@EKONMPM@Unable?5to?5initialise?5network?5int@ 004fecdc     Csnetsup.obj
 0003:00006d24       ??_C@_0BG@ODCCBDMJ@?$DMCS?$DO?9NCBCANCEL?5failed?$AA@ 004fed24     Csnetsup.obj
 0003:00006d40       ??_C@_0P@BAGDBHOH@BNCSRECOVERY?$CFd?$AA@ 004fed40     Csnetsup.obj
 0003:00006d54       ??_C@_0N@EAGNEHFF@BNCSRECOVERY?$AA@ 004fed54     Csnetsup.obj
 0003:00006d68       ??_C@_0EJ@HHIEMNCC@Unable?5to?5initialise?5network?5int@ 004fed68     Csnetsup.obj
 0003:00006dc0       ??_C@_0CA@BEBHLEGI@?$DMCS?$DO?9NCBSENDDG?5failed?5?9?$DO?50x?$CF02x?$AA@ 004fedc0     Csnetsup.obj
 0003:00006de8       ??_C@_0CK@OGJMFJBM@Network?5connection?5reset?5after?5?$CF@ 004fede8     Csnetsup.obj
 0003:00006e1c       ??_C@_0BG@FGBIFJKI@Network?5reset?5failed?4?$AA@ 004fee1c     Csnetsup.obj
 0003:00006e38       ??_C@_0P@PKHJHOPF@CC_WORKSTATION?$AA@ 004fee38     Csprof.obj
 0003:00006e4c       ??_C@_0M@CILGCIDH@Workstation?$AA@ 004fee4c     Csprof.obj
 0003:00006e5c       ??_C@_0N@GPPMMPMD@APPLCORE?4INI?$AA@ 004fee5c     Csprof.obj
 0003:00006e6c       ??_C@_06JIODDOFH@System?$AA@ 004fee6c     Csprof.obj
 0003:00006e74       ??_C@_0P@IOLOJICH@DefaultAdaptor?$AA@ 004fee74     Csprof.obj
 0003:00006e88       ??_C@_07DMJBFPJJ@Channel?$AA@ 004fee88     Csprof.obj
 0003:00006e94       ??_C@_0O@HMCAEAJL@NetworkEnable?$AA@ 004fee94     Csprof.obj
 0003:00006ea4       ??_C@_0BE@HIDEDMDD@StatusChannelEnable?$AA@ 004feea4     Csprof.obj
 0003:00006ebc       ??_C@_0O@DDGEDIMC@ClientBuffers?$AA@ 004feebc     Csprof.obj
 0003:00006ecc       ??_C@_02PIBHCBOA@20?$AA@   004feecc     Csprof.obj
 0003:00006ed0       ??_C@_0O@KEKGBINP@DriverBuffers?$AA@ 004feed0     Csprof.obj
 0003:00006ee0       ??_C@_01FAMBOPH@4?$AA@     004feee0     Csprof.obj
 0003:00006ee4       ??_C@_0P@DGCALIKD@SessionBuffers?$AA@ 004feee4     Csprof.obj
 0003:00006ef8       ??_C@_01KJLJFBPL@8?$AA@    004feef8     Csprof.obj
 0003:00006efc       ??_C@_0BD@JHICPLAP@PktRecoveryBuffers?$AA@ 004feefc     Csprof.obj
 0003:00006f14       ??_C@_06CKGENIKG@Enable?$AA@ 004fef14     Csprof.obj
 0003:00006f1c       ??_C@_0P@NHAOFHHM@PacketRecovery?$AA@ 004fef1c     Csprof.obj
 0003:00006f30       ??_C@_0L@LHKCOLPF@DeafToSelf?$AA@ 004fef30     Csprof.obj
 0003:00006f40       ??_C@_0BF@FLOMIBDB@DevIniMustExistForV2?$AA@ 004fef40     Csprof.obj
 0003:00006f5c       ??_C@_0P@OGKHCCNN@LoopbackEnable?$AA@ 004fef5c     Csprof.obj
 0003:00006f70       ??_C@_0P@PENJPLEF@HWMBufferFlush?$AA@ 004fef70     Csprof.obj
 0003:00006f84       ??_C@_0O@GKMBIJHA@HWMCacheFlush?$AA@ 004fef84     Csprof.obj
 0003:00006f94       ??_C@_0BA@HJKBOIOI@V1Compatibility?$AA@ 004fef94     Csprof.obj
 0003:00006fa8       ??_C@_0M@CGJONPBF@HangUpDelay?$AA@ 004fefa8     Csprof.obj
 0003:00006fb8       ??_C@_04JJEEECCE@1500?$AA@ 004fefb8     Csprof.obj
 0003:00006fc0       ??_C@_0BA@JCPAPJBH@PeerPollRefresh?$AA@ 004fefc0     Csprof.obj
 0003:00006fd4       ??_C@_0P@PFKKGMBO@UseMemoryCache?$AA@ 004fefd4     Csprof.obj
 0003:00006fe8       ??_C@_0BF@CMHLHMGB@ClearCacheOnNetClose?$AA@ 004fefe8     Csprof.obj
 0003:00007004       ??_C@_0BM@PLLMMKIP@DistributeBBC_NETTXRXSTATUS?$AA@ 004ff004     Csprof.obj
 0003:00007028       ??_C@_0BL@DKDAHHBM@DistributeBBC_NETMSGUPDATE?$AA@ 004ff028     Csprof.obj
 0003:00007048       ??_C@_0BA@MHCFCJAL@HeartbeatEnable?$AA@ 004ff048     Csprof.obj
 0003:0000705c       ??_C@_0BB@GCIBFPJN@HeartbeatTimeout?$AA@ 004ff05c     Csprof.obj
 0003:00007070       ??_C@_02PPBOIJDM@60?$AA@   004ff070     Csprof.obj
 0003:00007074       ??_C@_02PKFBJPLJ@10?$AA@   004ff074     Csprof.obj
 0003:00007078       ??_C@_09OEJFPKAI@CacheSize?$AA@ 004ff078     Csprof.obj
 0003:00007084       ??_C@_04CGNBOOAP@8192?$AA@ 004ff084     Csprof.obj
 0003:0000708c       ??_C@_09BDBJKAEP@CacheLife?$AA@ 004ff08c     Csprof.obj
 0003:00007098       ??_C@_0BB@LEKFHEJN@TimeServerEnable?$AA@ 004ff098     Csprof.obj
 0003:000070ac       ??_C@_0L@JAJNDELA@TimeServer?$AA@ 004ff0ac     Csprof.obj
 0003:000070bc       ??_C@_0BB@JINCHM@TimeServerPeriod?$AA@ 004ff0bc     Csprof.obj
 0003:000070d0       ??_C@_0P@CLJPELBH@ClosedownDelay?$AA@ 004ff0d0     Csprof.obj
 0003:000070e4       ??_C@_04MHPHMCPO@Misc?$AA@ 004ff0e4     Csprof.obj
 0003:000070ec       ??_C@_0BA@OEAMJOKB@WatchDogComPort?$AA@ 004ff0ec     Csprof.obj
 0003:00007100       ??_C@_0BG@HLJDLNAC@DisableWatchdogOnExit?$AA@ 004ff100     Csprof.obj
 0003:0000711c       ??_C@_0BA@HPIKGCJO@TxRxRetryPeriod?$AA@ 004ff11c     Csprof.obj
 0003:00007130       ??_C@_0L@OFMEDLMB@MaxClients?$AA@ 004ff130     Csprof.obj
 0003:00007140       ??_C@_04MJHCKDHM@1024?$AA@ 004ff140     Csprof.obj
 0003:00007148       ??_C@_0BE@BIGPLCJE@CompileHighOrderDBs?$AA@ 004ff148     Csprof.obj
 0003:00007160       ??_C@_0P@LEKIIJHD@SelectiveCache?$AA@ 004ff160     Csprof.obj
 0003:00007174       ??_C@_0BB@FAMNHNMP@TxRecoveryWindow?$AA@ 004ff174     Csprof.obj
 0003:00007188       ??_C@_03GNABGMEE@100?$AA@  004ff188     Csprof.obj
 0003:0000718c       ??_C@_0BO@LEEJJAMO@MaxRecoveryMessageHoldoff?$CIms?$CJ?$AA@ 004ff18c     Csprof.obj
 0003:000071b0       ??_C@_04OJDKMIMG@2000?$AA@ 004ff1b0     Csprof.obj
 0003:000071b8       ??_C@_0BG@GDLGJNEG@SimulateUnreliability?$AA@ 004ff1b8     Csprof.obj
 0003:000071d4       ??_C@_0BE@JINAOCB@UnreliabilityTxRate?$AA@ 004ff1d4     Csprof.obj
 0003:000071ec       ??_C@_0BF@MEGAMGHJ@UnreliabilityTxCount?$AA@ 004ff1ec     Csprof.obj
 0003:00007208       ??_C@_01FDFGLJHB@2?$AA@    004ff208     Csprof.obj
 0003:0000720c       ??_C@_0BE@GKFNDLBL@UnreliabilityRxRate?$AA@ 004ff20c     Csprof.obj
 0003:00007224       ??_C@_0BF@CAPMPPO@UnreliabilityRxCount?$AA@ 004ff224     Csprof.obj
 0003:00007240       ??_C@_0BE@OJPCKKGG@MaxRecoveryRequests?$AA@ 004ff240     Csprof.obj
 0003:00007258       ??_C@_01BMBHCPLG@5?$AA@    004ff258     Csprof.obj
 0003:0000725c       ??_C@_0BO@FEHGNHNG@RecoveryRequestRepeatRate?$CIms?$CJ?$AA@ 004ff25c     Csprof.obj
 0003:00007280       ??_C@_0BK@MHDLIHJA@MaxRecoveryPacketsPerTick?$AA@ 004ff280     Csprof.obj
 0003:000072a0       ??_C@_0BD@FPEGEEKL@DeviceInfodriverId?$AA@ 004ff2a0     Csprof.obj
 0003:000072b8       ??_C@_06PGDKHFME@Status?$AA@ 004ff2b8     Csprof.obj
 0003:000072c0       ??_C@_0BI@EHEIGEGG@WorkstationInfodriverId?$AA@ 004ff2c0     Csprof.obj
 0003:000072dc       ??_C@_0BD@NENIJMPA@StartupDelay?$CIsecs?$CJ?$AA@ 004ff2dc     Csprof.obj
 0003:000072f4       ??_C@_02OGAFLIHN@61?$AA@   004ff2f4     Csprof.obj
 0003:000072f8       ??_C@_0CF@KANFKNBH@UseMemoryDatabaseOnly?$CIno_V1_supp@ 004ff2f8     Csprof.obj
 0003:00007324       ??_C@_0BM@GBEMMOLJ@HWND_BROADCAST_NETSTATUSMSG?$AA@ 004ff324     Csprof.obj
 0003:00007348       ??_C@_0BB@NIIMMDMA@WindowsMessaging?$AA@ 004ff348     Csprof.obj
 0003:0000735c       ??_C@_0BP@FKPJIDGF@HWND_BROADCAST_CSICLOSEWARNING?$AA@ 004ff35c     Csprof.obj
 0003:00007384       ??_C@_0BI@KAOLPFFN@HWND_BROADCAST_APPREADY?$AA@ 004ff384     Csprof.obj
 0003:000073a0       ??_C@_04BNBIIKFM@Xpos?$AA@ 004ff3a0     Csprof.obj
 0003:000073a8       ??_C@_06BKKJGDHO@Window?$AA@ 004ff3a8     Csprof.obj
 0003:000073b0       ??_C@_04CAHIKDOM@Ypos?$AA@ 004ff3b0     Csprof.obj
 0003:000073b8       ??_C@_0M@MDKLCBNG@Device?5?$CF03d?$AA@ 004ff3b8     Csprof.obj
 0003:000073c8       ??_C@_0L@KIGPDKKP@Database_0?$AA@ 004ff3c8     Csprof.obj
 0003:000073d8       ??_C@_0L@LBHEALOO@Database_1?$AA@ 004ff3d8     Csprof.obj
 0003:000073e8       ??_C@_0BB@PFCHHDGA@RedundancyMaster?$AA@ 004ff3e8     Csprof.obj
 0003:000073fc       ??_C@_0CM@EGDCDPEA@Redundancy?5Master?5?9?5master?5entry@ 004ff3fc     Csprof.obj
 0003:00007430       ??_C@_0CN@FMOOOPDJ@RedundancyMaster?5?9?5start?5of?5rang@ 004ff430     Csprof.obj
 0003:00007468       ??_C@_0CL@EAEIMGJJ@RedundancyMaster?5?9?5end?5of?5range?5@ 004ff468     Csprof.obj
 0003:0000749c       ??_C@_0DB@OIBPOEGC@Redundancy?5Master?5?9?5start?5of?5ran@ 004ff49c     Csprof.obj
 0003:000074d8       ??_C@_0CL@MMGPAPGD@Redundancy?5Master?5?9?5slave?5entry?5@ 004ff4d8     Csprof.obj
 0003:0000750c       ??_C@_0BM@FHDCCLI@RedundancyMaster?$FL?5?$CFd?5?$FN?5?$DN?5?$CFd?$AA@ 004ff50c     Csprof.obj
 0003:00007530       ??_C@_0DF@GKDOBLOK@Attempting?5to?5register?5new?5clien@ 004ff530     Csreg.obj
 0003:00007570       ??_C@_0CI@HKAIEEFA@Unable?5to?5register?5new?5client?5hW@ 004ff570     Csreg.obj
 0003:000075a0       ??_C@_0DB@IFGGNMJP@Registration?5already?5exists?5for?5@ 004ff5a0     Csreg.obj
 0003:000075dc       ??_C@_0DC@FFADMPDF@Attempting?5to?5unregister?5client?5@ 004ff5dc     Csreg.obj
 0003:00007618       ??_C@_0BE@MKLDGJOI@Unreg?5ok?5HWM?5now?5?$CFd?$AA@ 004ff618     Csreg.obj
 0003:00007630       ??_C@_0DB@HAJNKIAA@Failed?5to?5unregister?5client?5as?5c@ 004ff630     Csreg.obj
 0003:0000766c       ??_C@_0CK@NHGLBHIH@Add?5?$CFd?0?5Dev?5?$CFd?0?5Min?5?$CFd?0?5Max?5?$CFd?0?5@ 004ff66c     Csreg.obj
 0003:000076a0       ??_C@_0DG@JNCBDMLI@Adding?5new?5registration?5for?5inde@ 004ff6a0     Csreg.obj
 0003:000076e0       ??_C@_0DK@EMHDGCBB@Creating?5reg?5at?5client?5index?5?$CFd?5@ 004ff6e0     Csreg.obj
 0003:00007728       ??_C@_0DA@BALAGCAD@Registration?5table?5already?5full?5@ 004ff728     Csreg.obj
 0003:00007764       ??_C@_0DC@LOFEKGAC@Couldn?8t?5find?5or?5create?5reg?5inde@ 004ff764     Csreg.obj
 0003:000077a0       ??_C@_0DL@HCCLLBMC@Unable?5to?5add?5reg?5for?5hWnd?50x04x@ 004ff7a0     Csreg.obj
 0003:000077e8       ??_C@_0CG@DLBKCNGP@Rem?5Dev?5?$CFd?0?5Min?5?$CFd?0?5Max?5?$CFd?0?5Hand@ 004ff7e8     Csreg.obj
 0003:00007818       ??_C@_0EO@KBLHAMBJ@Removing?5client?5index?5?$CFd?5?$CIhWnd?5?$CF@ 004ff818     Csreg.obj
 0003:00007878       ??_C@_0CL@CECBPFFE@Removing?5reg?5range?5for?5entry?5?$CFd?0@ 004ff878     Csreg.obj
 0003:000078ac       ??_C@_0DI@DNCGCMMD@Couldn?8t?5find?5or?5remove?5reg?5inde@ 004ff8ac     Csreg.obj
 0003:000078f0       ??_C@_0DP@INEMCKBG@Unable?5to?5remove?5reg?5for?5hWnd?50x@ 004ff8f0     Csreg.obj
 0003:0000793c       ??_C@_0DI@HNPOHBBO@Removing?5registration?5for?5device@ 004ff93c     Csreg.obj
 0003:00007980       ??_C@_0DA@EKDOEOBC@Removing?5dev?5reg?5?$CFd?5for?5hWnd?50x?$CF@ 004ff980     Csreg.obj
 0003:000079bc       ??_C@_0DJ@BLPIHNB@Removing?5all?5registrations?5for?5c@ 004ff9bc     Csreg.obj
 0003:00007a00       ??_C@_0DN@LALHCPLP@CSI32?3?5IPC?5failure?5but?5not?5delet@ 004ffa00     Csreg.obj
 0003:00007a4c       ??_C@_0DO@MOMIAFCF@CSI32?3?5IPC?5failure?5but?5not?5delet@ 004ffa4c     Csreg.obj
 0003:00007a98       ??_C@_0DO@FMLPLPNO@CSI32?3?5IPC?5failure?5but?5not?5delet@ 004ffa98     Csreg.obj
 0003:00007ae4       ??_C@_0BN@IALJLHKD@CSReg_CheckForClientName?$CI?$CFs?$CJ?$AA@ 004ffae4     Csreg.obj
 0003:00007b08       ??_C@_0CK@BGBOCOOP@CSReg_CheckForClientName?$CI?$CFs?$CJ?5ret@ 004ffb08     Csreg.obj
 0003:00007b3c       ??_C@_0CL@KBHDLLHO@?9?9?9?9?9?9?9?9?9?9?9?9?9?9?9?9?9?9?9?9?9?9?9?9?9?9?9?9?9?9?9?9@ 004ffb3c     Csreg.obj
 0003:00007b70       ??_C@_0ED@KFJNNIHH@Entry?5?$CFd?5?$DN?5hWnd?5?$CF04x?0?5DevRegHWM?5@ 004ffb70     Csreg.obj
 0003:00007bc0       ??_C@_0BH@IOCFFPKF@?5?5?5?5?5?5?$CF02d?5?$DN?5Dev?5?$CFd?5?9?5?$AA@ 004ffbc0     Csreg.obj
 0003:00007bdc       ??_C@_05CNDJFPDP@?$CF02x?5?$AA@ 004ffbdc     Csreg.obj
 0003:00007be4       ??_C@_03KHICJKCI@?4?4?4?$AA@ 004ffbe4     Csreg.obj
 0003:00007be8       ??_C@_09LPAKOCJF@?$DMCSI?$DO?9?$CFs?6?$AA@ 004ffbe8     CSSUFU.obj
 0003:00007bf4       ??_C@_01JOAMLHOP@?9?$AA@   004ffbf4     CSSUFU.obj
 0003:00007bf8       ??_C@_05BIKBEGBP@?$CFd?9?$CFd?$AA@ 004ffbf8     CSSUFU.obj
 0003:00007c04       ??_7deviceStatus@@6B@      004ffc04     deviceStatus.obj
 0003:00007c10       ??_C@_1BCO@LOPHJKFD@?$AAs?$AAt?$AAd?$AA?3?$AA?3?$AA_?$AAT?$AAr?$AAe?$AAe?$AA_?$AAc?$AAo?$AAn?$AAs?$AAt?$AA_?$AAi?$AAt?$AAe?$AAr?$AAa?$AAt?$AAo?$AAr?$AA?$DM?$AAc?$AAl?$AAa?$AAs?$AAs?$AA?5@ 004ffc10     deviceStatus.obj
 0003:00007d80       ??_C@_1BCO@BOAKHDJG@?$AAs?$AAt?$AAd?$AA?3?$AA?3?$AA_?$AAT?$AAr?$AAe?$AAe?$AA_?$AAc?$AAo?$AAn?$AAs?$AAt?$AA_?$AAi?$AAt?$AAe?$AAr?$AAa?$AAt?$AAo?$AAr?$AA?$DM?$AAc?$AAl?$AAa?$AAs?$AAs?$AA?5@ 004ffd80     deviceStatus.obj
 0003:00007ef0       ??_C@_1BCM@PNAHJEFH@?$AAs?$AAt?$AAd?$AA?3?$AA?3?$AA_?$AAT?$AAr?$AAe?$AAe?$AA_?$AAc?$AAo?$AAn?$AAs?$AAt?$AA_?$AAi?$AAt?$AAe?$AAr?$AAa?$AAt?$AAo?$AAr?$AA?$DM?$AAc?$AAl?$AAa?$AAs?$AAs?$AA?5@ 004ffef0     deviceStatus.obj
 0003:00008058       ??_C@_1BCO@ENMFCGJC@?$AAs?$AAt?$AAd?$AA?3?$AA?3?$AA_?$AAT?$AAr?$AAe?$AAe?$AA_?$AAc?$AAo?$AAn?$AAs?$AAt?$AA_?$AAi?$AAt?$AAe?$AAr?$AAa?$AAt?$AAo?$AAr?$AA?$DM?$AAc?$AAl?$AAa?$AAs?$AAs?$AA?5@ 00500058     deviceStatus.obj
 0003:000081c8       ??_7externalsListDialog@@6B@ 005001c8     externalsListDialog.obj
 0003:000081d0       ??_C@_0O@LNDHNJBG@externalsList?$AA@ 005001d0     externalsListDialog.obj
 0003:000081e0       ??_C@_0DE@FMHJNMGA@CSI32?3?5can?8t?5create?5externalsLis@ 005001e0     externalsListDialog.obj
 0003:00008220       ??_C@_04OJJFAGLK@HWND?$AA@ 00500220     externalsListDialog.obj
 0003:00008228       ??_C@_03IPEPAFCC@IPC?$AA@  00500228     externalsListDialog.obj
 0003:0000822c       ??_C@_0L@DPIOMGA@Device?9IPC?$AA@ 0050022c     externalsListDialog.obj
 0003:0000823c       ??_C@_05EKAMNAII@Class?$AA@ 0050023c     externalsListDialog.obj
 0003:00008244       ??_C@_06NHPJKFDC@Module?$AA@ 00500244     externalsListDialog.obj
 0003:0000824c       ??_C@_08JPJGNBAK@IPC?5Time?$AA@ 0050024c     externalsListDialog.obj
 0003:00008258       ??_C@_0O@BDKMCMHI@Peak?5IPC?5Time?$AA@ 00500258     externalsListDialog.obj
 0003:00008268       ??_C@_02CMJKCPJA@WM?$AA@   00500268     externalsListDialog.obj
 0003:0000826c       ??_C@_03OPIBJLCE@DLL?$AA@  0050026c     externalsListDialog.obj
 0003:00008270       ??_C@_07OGFJGMJC@?$CFd?5?9?5WM?$AA@ 00500270     externalsListDialog.obj
 0003:0000827c       ??_C@_08BEFDJEL@?$CFd?5?9?5DLL?$AA@ 0050027c     externalsListDialog.obj
 0003:00008288       ??_C@_0BO@HGIIBJFJ@found?5truncated?5window?5handle?$AA@ 00500288     externalsListDialog.obj
 0003:000082ac       ??_C@_04NEJBHOB@?$CF08x?$AA@ 005002ac     externalsListDialog.obj
 0003:000082b4       ??_C@_03EKLFPLOI@n?1a?$AA@ 005002b4     externalsListDialog.obj
 0003:000082b8       ??_C@_0P@INPKBDNJ@Invalid?5Window?$AA@ 005002b8     externalsListDialog.obj
 0003:000082cc       ??_C@_0CL@DBJCACOI@externalsListDialog?3?3getModuleNa@ 005002cc     externalsListDialog.obj
 0003:00008300       ??_C@_0DG@GMHKMHMG@externalsListDialog?3?3getModuleNa@ 00500300     externalsListDialog.obj
 0003:00008340       ??_C@_09LOPACEED@psapi?4dll?$AA@ 00500340     externalsListDialog.obj
 0003:0000834c       ??_C@_0BJ@EIDLDKIF@GetProcessImageFileNameA?$AA@ 0050034c     externalsListDialog.obj
 0003:0000836c       ??_C@_04KFJMNGJN@n?1a?4?$AA@ 0050036c     externalsListDialog.obj
 0003:00008374       ??_C@_04ILDCABMI@n?1a?3?$AA@ 00500374     externalsListDialog.obj
 0003:0000837c       ??_C@_05LFMHECIH@?$CFldms?$AA@ 0050037c     externalsListDialog.obj
 0003:00008388       ??_C@_1BCO@GLKFJCGD@?$AAs?$AAt?$AAd?$AA?3?$AA?3?$AA_?$AAT?$AAr?$AAe?$AAe?$AA_?$AAc?$AAo?$AAn?$AAs?$AAt?$AA_?$AAi?$AAt?$AAe?$AAr?$AAa?$AAt?$AAo?$AAr?$AA?$DM?$AAc?$AAl?$AAa?$AAs?$AAs?$AA?5@ 00500388     externalsListDialog.obj
 0003:000084f8       ??_C@_1BCO@MLFIHLKG@?$AAs?$AAt?$AAd?$AA?3?$AA?3?$AA_?$AAT?$AAr?$AAe?$AAe?$AA_?$AAc?$AAo?$AAn?$AAs?$AAt?$AA_?$AAi?$AAt?$AAe?$AAr?$AAa?$AAt?$AAo?$AAr?$AA?$DM?$AAc?$AAl?$AAa?$AAs?$AAs?$AA?5@ 005004f8     externalsListDialog.obj
 0003:00008668       ??_C@_1BCM@GMLPFFHL@?$AAs?$AAt?$AAd?$AA?3?$AA?3?$AA_?$AAT?$AAr?$AAe?$AAe?$AA_?$AAc?$AAo?$AAn?$AAs?$AAt?$AA_?$AAi?$AAt?$AAe?$AAr?$AAa?$AAt?$AAo?$AAr?$AA?$DM?$AAc?$AAl?$AAa?$AAs?$AAs?$AA?5@ 00500668     externalsListDialog.obj
 0003:000087d0       ??_C@_1EM@MHOKKPFH@?$AAm?$AAa?$AAp?$AA?1?$AAs?$AAe?$AAt?$AA?5?$AAi?$AAn?$AAs?$AAe?$AAr?$AAt?$AA?5?$AAi?$AAt?$AAe?$AAr?$AAa?$AAt?$AAo?$AAr?$AA?5?$AAo?$AAu?$AAt?$AAs?$AAi?$AAd?$AAe?$AA?5@ 005007d0     externalsListDialog.obj
 0003:00008830       ??_C@_1BCO@JIJHCOKC@?$AAs?$AAt?$AAd?$AA?3?$AA?3?$AA_?$AAT?$AAr?$AAe?$AAe?$AA_?$AAc?$AAo?$AAn?$AAs?$AAt?$AA_?$AAi?$AAt?$AAe?$AAr?$AAa?$AAt?$AAo?$AAr?$AA?$DM?$AAc?$AAl?$AAa?$AAs?$AAs?$AA?5@ 00500830     externalsListDialog.obj
 0003:000089a0       ??_7CGetArguments@@6B@     005009a0     GetArguments.obj
 0003:000089a8       ??_C@_0CD@GAHDLLEK@GetArguments?3?5concurrency?5error?5@ 005009a8     GetArguments.obj
 0003:000089d8       ??_7networkInterface@@6B@  005009d8     networkInterface.obj
 0003:000089e4       ??_C@_0CH@OPBCFLGH@Unable?5to?5initialise?5Windows?5Soc@ 005009e4     networkInterface.obj
 0003:00008a14       ??_C@_0BD@MNJMAGAM@BNCSRECOVERY?$CFd?5?5?5?5?$AA@ 00500a14     networkInterface.obj
 0003:00008a2c       ??_C@_0BB@ODLDNCNH@BNCSRECOVERY?5?5?5?5?$AA@ 00500a2c     networkInterface.obj
 0003:00008a40       ??_C@_0BO@DMDCBBFL@WSASocket?$CI?$CJ?5failed?3?5error?5?$CFd?6?$AA@ 00500a40     networkInterface.obj
 0003:00008a64       ??_C@_0BJ@BLPAOACB@bind?$CI?$CJ?5failed?3?5error?5?$CFd?6?$AA@ 00500a64     networkInterface.obj
 0003:00008a84       ??_C@_0CA@ONCMOOIO@WSAEventSelect?5failed?3?5error?5?$CFd?$AA@ 00500a84     networkInterface.obj
 0003:00008aac       ??_C@_06LKBFNBBL@?$DM?$CF02x?$DO?$AA@ 00500aac     networkInterface.obj
 0003:00008ab4       ??_C@_02HAOIJKIC@?$CFc?$AA@ 00500ab4     networkInterface.obj
 0003:00008ab8       ??_C@_0BB@CKCHFOFP@Socket?5Error?5?$CFd?6?$AA@ 00500ab8     networkInterface.obj
 0003:00008ad0       ??_7networkInterfaceImpl@@6B@ 00500ad0     networkInterfaceImpl.obj
 0003:00008ad8       ??_C@_0BN@FGDEDOPJ@PE?5checksum?5error?5?9?5rejected?$AA@ 00500ad8     networkInterfaceImpl.obj
 0003:00008afc       ??_C@_0DK@OPDGMAED@Error?5request?5rejected?5?9?5worksta@ 00500afc     networkInterfaceImpl.obj
 0003:00008b44       ??_C@_0CI@KBCENICD@Packet?5error?5DONE?6Deleting?5other@ 00500b44     networkInterfaceImpl.obj
 0003:00008b74       ??_C@_0BL@LBPGLDGP@Deleting?5other?5errors?5DONE?$AA@ 00500b74     networkInterfaceImpl.obj
 0003:00008b94       ??_C@_0BJ@HOJBJKGC@packet?5recovery?5request?6?$AA@ 00500b94     networkInterfaceImpl.obj
 0003:00008bb4       ??_C@_0BN@EJGCBMHK@PR?5checksum?5error?5?9?5rejected?$AA@ 00500bb4     networkInterfaceImpl.obj
 0003:00008bd8       ??_C@_0CF@GEAIFOBM@Workstation?5number?5out?5of?5range?5@ 00500bd8     networkInterfaceImpl.obj
 0003:00008c04       ??_C@_0DB@CFPELFIL@Relevant?5recovered?5packet?5?$CF08x?5a@ 00500c04     networkInterfaceImpl.obj
 0003:00008c40       ??_C@_0BN@DPIAICAI@irrelevant?5recovered?5packet?6?$AA@ 00500c40     networkInterfaceImpl.obj
 0003:00008c68       ??_7pktRecoveryDialog@@6B@ 00500c68     pktRecoveryDialog.obj
 0003:00008c70       ??_C@_0N@JBGEBCBC@PKT_RECOVERY?$AA@ 00500c70     pktRecoveryDialog.obj
 0003:00008c80       ??_C@_0BJ@FPEGCBKC@Environment?5is?5V4?5based?6?$AA@ 00500c80     PROFILE.obj
 0003:00008ca0       ??_C@_0CA@CMFEBDCP@Environment?5is?5classic?5windows?6?$AA@ 00500ca0     PROFILE.obj
 0003:00008cc8       ??_C@_0BA@JEGAKECJ@bncs_system?4ini?$AA@ 00500cc8     PROFILE.obj
 0003:00008cdc       ??_C@_0L@JCGLOPMM@?$CFs?2?$CFs?2temp?$AA@ 00500cdc     PROFILE.obj
 0003:00008cec       ??_C@_0M@HJFGAKIL@c?3?2csi_temp?$AA@ 00500cec     PROFILE.obj
 0003:00008cfc       ??_C@_0N@NHBGKGMO@TempFilePath?$AA@ 00500cfc     PROFILE.obj
 0003:00008d10       ??_7sizedBuffer@@6B@       00500d10     sizedBuffer.obj
 0003:00008d1c       ??_7supersededMemory@@6B@  00500d1c     supersededMemory.obj
 0003:00008d24       ??_C@_0BL@NBIBGPCB@creating?5supersededMemory?6?$AA@ 00500d24     supersededMemory.obj
 0003:00008d44       ??_C@_0BL@JBEDJEBP@deleting?5supersededMemory?6?$AA@ 00500d44     supersededMemory.obj
 0003:00008d68       ??_C@_0FN@PLINKAJA@supersededMemory?3?5Correcting?5ser@ 00500d68     supersededMemory.obj
 0003:00008dd8       ??_C@_0GG@MFHELMBP@supersededMemory?3?5Device?5?$CFd?5inde@ 00500dd8     supersededMemory.obj
 0003:00008e58       ??_C@_0EL@CDLNFJDI@supersededMemory?3?5inserting?5seri@ 00500e58     supersededMemory.obj
 0003:00008eb8       ??_C@_0EK@JPEOPDIA@Device?5?$CFd?5slot?5?$CFd?5in?5recovered?5p@ 00500eb8     supersededMemory.obj
 0003:00008f10       ??_C@_0BA@NOCHENON@not?5superseded?6?$AA@ 00500f10     supersededMemory.obj
 0003:00008f24       ??_C@_0CA@LPLODBDN@Device?5?$CFd?5Index?5?$CFd?5Serial?5?$CF08x?6?$AA@ 00500f24     supersededMemory.obj
 0003:00008f50       ??_C@_1BCM@JFKENJDN@?$AAs?$AAt?$AAd?$AA?3?$AA?3?$AA_?$AAT?$AAr?$AAe?$AAe?$AA_?$AAc?$AAo?$AAn?$AAs?$AAt?$AA_?$AAi?$AAt?$AAe?$AAr?$AAa?$AAt?$AAo?$AAr?$AA?$DM?$AAc?$AAl?$AAa?$AAs?$AAs?$AA?5@ 00500f50     supersededMemory.obj
 0003:000090b8       ??_C@_1BCM@DFFJDAPI@?$AAs?$AAt?$AAd?$AA?3?$AA?3?$AA_?$AAT?$AAr?$AAe?$AAe?$AA_?$AAc?$AAo?$AAn?$AAs?$AAt?$AA_?$AAi?$AAt?$AAe?$AAr?$AAa?$AAt?$AAo?$AAr?$AA?$DM?$AAc?$AAl?$AAa?$AAs?$AAs?$AA?5@ 005010b8     supersededMemory.obj
 0003:00009220       ??_C@_1BCK@FMNGCJFJ@?$AAs?$AAt?$AAd?$AA?3?$AA?3?$AA_?$AAT?$AAr?$AAe?$AAe?$AA_?$AAc?$AAo?$AAn?$AAs?$AAt?$AA_?$AAi?$AAt?$AAe?$AAr?$AAa?$AAt?$AAo?$AAr?$AA?$DM?$AAc?$AAl?$AAa?$AAs?$AAs?$AA?5@ 00501220     supersededMemory.obj
 0003:00009388       ??_C@_1BCM@GGJGGFPM@?$AAs?$AAt?$AAd?$AA?3?$AA?3?$AA_?$AAT?$AAr?$AAe?$AAe?$AA_?$AAc?$AAo?$AAn?$AAs?$AAt?$AA_?$AAi?$AAt?$AAe?$AAr?$AAa?$AAt?$AAo?$AAr?$AA?$DM?$AAc?$AAl?$AAa?$AAs?$AAs?$AA?5@ 00501388     supersededMemory.obj
 0003:000094f4       ??_7workstationStatus@@6B@ 005014f4     workstationStatus.obj
 0003:000094fc       ??_C@_0BH@FHJHEMPC@BBCNB32M?5thread?5id?3?5?$CFx?$AA@ 005014fc     bbcnb32db_static:BBCNB32.obj
 0003:00009518       ??_C@_0BN@LJJMEMDJ@Unknown?5NetBIOS?5command?5code?$AA@ 00501518     bbcnb32db_static:BBCNB32.obj
 0003:0000953c       ??_C@_0BK@BDLIAFGF@?$CFs?5?9?5NetBIOS?50x?$CF02x?5?9?5?$CFs?6?$AA@ 0050153c     bbcnb32db_static:BBCNB32.obj
 0003:0000955c       ??_C@_0BN@FJJFEPNG@Unlisted?5NetBIOS?5return?5code?$AA@ 0050155c     bbcnb32db_static:BBCNB32.obj
 0003:00009580       ??_C@_0BG@JPPAHMJF@?$CFs?5?9?5NRC?50x?$CF02x?5?9?5?$CFs?6?$AA@ 00501580     bbcnb32db_static:BBCNB32.obj
 0003:0000959c       ??_C@_07OGCKFOHE@bbcnb32?$AA@ 0050159c     bbcnb32db_static:BBCNB32.obj
 0003:000095a8       ??_C@_0DJ@OGGCNIBH@Ptr?5to?5NCB?$DN0x?$CF08lx?0?5Ptr?5to?5buffe@ 005015a8     bbcnb32db_static:BBCNB32.obj
 0003:000095ec       ??_C@_0CI@EEFGCAMN@Strlen?$DN?$CFd?0?5Str?$DN?$FL?$CFs?$FN?$DN?$CF02x?0?$CF02x?0?$CF0@ 005015ec     bbcnb32db_static:BBCNB32.obj
 0003:0000961c       ??_C@_0BE@LIKEBNPF@ERROR?5?9?5Bad?5pointer?$AA@ 0050161c     bbcnb32db_static:BBCNB32.obj
 0003:00009634       ??_C@_0BK@ELCEPGD@?$DMCS?$DO?9MSG?9NCBDGRECV?5failed?$AA@ 00501634     bbcnb32db_static:BBCNB32.obj
 0003:00009654       ??_C@_09MEFDJLKK@?$DMNet?$DO?9?$CFs?6?$AA@ 00501654     bbcnb32db_static:BBCNB32.obj
 0003:00009660       ??_C@_0P@HPLBBLHJ@bbcnb32m_queue?$AA@ 00501660     bbcnb32db_static:BBCNB32.obj
 0003:00009674       ??_C@_0DP@MDDHKDMD@?9?9?9?9?9?9?9?9?9?9?9?9?9?9?9?9?9?9?9?9?9?9?9?9?9?9?9?9?9?9?9?9@ 00501674     bbcnb32db_static:NCBSUFU.obj
 0003:000096c0       ??_C@_0CJ@BFEOEHPO@Session?5Information?5for?5?8?$CFs?8?5on?5@ 005016c0     bbcnb32db_static:NCBSUFU.obj
 0003:000096f4       ??_C@_0BL@LJFJGFND@?$CFd?5Sessions?5Table?5Entries?6?$AA@ 005016f4     bbcnb32db_static:NCBSUFU.obj
 0003:00009714       ??_C@_0DI@BDLDPDBP@?$CFd?5Receive?5Datagrams?5?$CG?5Broadcast@ 00501714     bbcnb32db_static:NCBSUFU.obj
 0003:00009758       ??_C@_0CI@DJKALEIG@?$CFd?5?8Recieve?5Any?8?5Datagrams?5outst@ 00501758     bbcnb32db_static:NCBSUFU.obj
 0003:00009788       ??_C@_0DO@PLNJFCHI@Idx?7LSN?7State?7?7Local?5Name?7?7Remot@ 00501788     bbcnb32db_static:NCBSUFU.obj
 0003:000097d4       ??_C@_06GIJDJODO@?$CFd?7?$CFd?7?$AA@ 005017d4     bbcnb32db_static:NCBSUFU.obj
 0003:000097dc       ??_C@_0BA@GAOIMEAH@LISTEN?5pending?5?$AA@ 005017dc     bbcnb32db_static:NCBSUFU.obj
 0003:000097f0       ??_C@_0BA@DAGNKLMO@CALL?5pending?5?5?5?$AA@ 005017f0     bbcnb32db_static:NCBSUFU.obj
 0003:00009804       ??_C@_0BA@GALBDDCK@Active?5?5?5?5?5?5?5?5?5?$AA@ 00501804     bbcnb32db_static:NCBSUFU.obj
 0003:00009818       ??_C@_0BA@FDENMABF@HANGUP?5pending?5?$AA@ 00501818     bbcnb32db_static:NCBSUFU.obj
 0003:0000982c       ??_C@_0BA@HCOAFGGB@HANGUP?5complete?$AA@ 0050182c     bbcnb32db_static:NCBSUFU.obj
 0003:00009840       ??_C@_0BA@PIFMFEON@Session?5aborted?$AA@ 00501840     bbcnb32db_static:NCBSUFU.obj
 0003:00009854       ??_C@_0BA@KNMKABMF@Unknown?5state?5?5?$AA@ 00501854     bbcnb32db_static:NCBSUFU.obj
 0003:00009868       ??_C@_0O@FIOCCNMM@?7?$CFs?7?$CFs?7?$CFd?7?$CFd?6?$AA@ 00501868     bbcnb32db_static:NCBSUFU.obj
 0003:00009878       ??_C@_0CN@DJKJALOP@?9?9?9?5No?5session?5table?5entries?5to?5@ 00501878     bbcnb32db_static:NCBSUFU.obj
 0003:000098b0       ??_C@_0EF@JGCLPNJL@bbcnb32?3?5NetSendDG?5?9?5request?5to?5@ 005018b0     bbcnb32db_static:NCBCALLS.obj
 0003:00009908       ??_7cBncsVersion@@6B@      00501908     bncsversioninfo:cBncsVersion.obj
 0003:00009910       ??_C@_0BJ@KPNNKBCP@?2VarFileInfo?2Translation?$AA@ 00501910     bncsversioninfo:cBncsVersion.obj
 0003:00009930       ??_C@_08EAKGLGNO@?$CF04X?$CF04X?$AA@ 00501930     bncsversioninfo:cBncsVersion.obj
 0003:0000993c       ??_C@_0BP@OKGDDKKJ@?2StringFileInfo?2?$CFs?2FileVersion?$AA@ 0050193c     bncsversioninfo:cBncsVersion.obj
 0003:00009964       ??_C@_0CD@DNOFBAPJ@?2StringFileInfo?2?$CFs?2FileDescripti@ 00501964     bncsversioninfo:cBncsVersion.obj
 0003:00009990       ??_C@_0BM@HLKDAPDC@?2StringFileInfo?2?$CFs?2Comments?$AA@ 00501990     bncsversioninfo:cBncsVersion.obj
 0003:000099b4       ??_C@_0CA@EHAODNDK@?2StringFileInfo?2?$CFs?2InternalName?$AA@ 005019b4     bncsversioninfo:cBncsVersion.obj
 0003:000099dc       ??_C@_0BP@MGNIHEJF@?2StringFileInfo?2?$CFs?2ProductName?$AA@ 005019dc     bncsversioninfo:cBncsVersion.obj
 0003:00009a04       ??_C@_0BP@IFNEMNK@?2StringFileInfo?2?$CFs?2CompanyName?$AA@ 00501a04     bncsversioninfo:cBncsVersion.obj
 0003:00009a2c       ??_C@_0CC@BENIJKPI@?2StringFileInfo?2?$CFs?2LegalCopyrigh@ 00501a2c     bncsversioninfo:cBncsVersion.obj
 0003:00009a54       ??_C@_0CC@IAGJDCJF@?2StringFileInfo?2?$CFs?2ProductVersio@ 00501a54     bncsversioninfo:cBncsVersion.obj
 0003:00009a7c       ??_C@_0CD@CHCCGCCP@?2StringFileInfo?2?$CFs?2LegalTradeMar@ 00501a7c     bncsversioninfo:cBncsVersion.obj
 0003:00009aa8       ??_C@_0CA@GODGGLFO@?2StringFileInfo?2?$CFs?2PrivateBuild?$AA@ 00501aa8     bncsversioninfo:cBncsVersion.obj
 0003:00009ad0       ??_C@_0CE@NLHFPOLE@?2StringFileInfo?2?$CFs?2OriginalFileN@ 00501ad0     bncsversioninfo:cBncsVersion.obj
 0003:00009afc       ??_C@_0CA@OOEBJJOA@?2StringFileInfo?2?$CFs?2SpecialBuild?$AA@ 00501afc     bncsversioninfo:cBncsVersion.obj
 0003:00009b84       ??_C@_00A@?$AA@            00501b84     htmlhelp:init.obj
 0003:00009b88       ??_C@_05CLMJGDKL@?$CF08lx?$AA@ 00501b88     bncswm32db:BncsWM32.obj
 0003:00009b8f       ?value@?$integral_constant@_N$0A@@std@@2_NB 00501b8f     msvcprtd:newaop_s.obj
 0003:00009b90       ?value@?$integral_constant@_N$00@std@@2_NB 00501b90     msvcprtd:newaop_s.obj
 0003:00009b98       ??_C@_1MC@KPMPFEII@?$AA?$CI?$AA_?$AA_?$AAo?$AAn?$AAe?$AAx?$AAi?$AAt?$AAb?$AAe?$AAg?$AAi?$AAn?$AA?5?$AA?$CB?$AA?$DN?$AA?5?$AAN?$AAU?$AAL?$AAL?$AA?5?$AA?$CG?$AA?$CG?$AA?5?$AA_?$AA_?$AAo?$AAn?$AAe?$AAx@ 00501b98     MSVCRTD:atonexit.obj
 0003:00009c80       ??_C@_1FK@IGIDCAPD@?$AAf?$AA?3?$AA?2?$AAd?$AAd?$AA?2?$AAv?$AAc?$AAt?$AAo?$AAo?$AAl?$AAs?$AA?2?$AAc?$AAr?$AAt?$AA?2?$AAc?$AAr?$AAt?$AAw?$AA3?$AA2?$AA?2?$AAd?$AAl?$AAl?$AAs?$AAt?$AAu?$AAf@ 00501c80     MSVCRTD:atonexit.obj
 0003:00009cec       ??_C@_0CN@LMJJPMEG@f?3?2dd?2vctools?2crt?2crtw32?2dllstuf@ 00501cec     MSVCRTD:atonexit.obj
 0003:00009d34       ??_7type_info@@6B@         00501d34     MSVCRTD:ti_inst.obj
 0003:00009df8       ??_C@_0NN@NGPKDKPD@The?5value?5of?5ESP?5was?5not?5properl@ 00501df8     MSVCRTD:error.obj
 0003:00009f08       ??_C@_0BBN@GPMLNJCF@A?5cast?5to?5a?5smaller?5data?5type?5ha@ 00501f08     MSVCRTD:error.obj
 0003:0000a060       ??_C@_0BN@FFOINMNJ@Stack?5memory?5was?5corrupted?6?$AN?$AA@ 00502060     MSVCRTD:error.obj
 0003:0000a084       ??_C@_0DG@HKJMLLLP@A?5local?5variable?5was?5used?5before@ 00502084     MSVCRTD:error.obj
 0003:0000a0c4       ??_C@_0CM@NGINOKPC@Stack?5memory?5around?5_alloca?5was?5@ 005020c4     MSVCRTD:error.obj
 0003:0000a0f8       ??_C@_0BO@GNIAFIKK@Unknown?5Runtime?5Check?5Error?6?$AN?$AA@ 005020f8     MSVCRTD:error.obj
 0003:0000a120       ??_C@_1GM@OLMCBDMB@?$AAR?$AAu?$AAn?$AAt?$AAi?$AAm?$AAe?$AA?5?$AAC?$AAh?$AAe?$AAc?$AAk?$AA?5?$AAE?$AAr?$AAr?$AAo?$AAr?$AA?4?$AA?6?$AA?$AN?$AA?5?$AAU?$AAn?$AAa?$AAb?$AAl?$AAe?$AA?5?$AAt?$AAo@ 00502120     MSVCRTD:error.obj
 0003:0000a1a8       ??_C@_1EA@NFKNIFJP@?$AAR?$AAu?$AAn?$AA?9?$AAT?$AAi?$AAm?$AAe?$AA?5?$AAC?$AAh?$AAe?$AAc?$AAk?$AA?5?$AAF?$AAa?$AAi?$AAl?$AAu?$AAr?$AAe?$AA?5?$AA?$CD?$AA?$CF?$AAd?$AA?5?$AA?9?$AA?5?$AA?$CF?$AAs?$AA?$AA@ 005021a8     MSVCRTD:error.obj
 0003:0000a1f4       ??_C@_0BB@PFFGGCJP@Unknown?5Filename?$AA@ 005021f4     MSVCRTD:error.obj
 0003:0000a208       ??_C@_0BE@GNBOBNCK@Unknown?5Module?5Name?$AA@ 00502208     MSVCRTD:error.obj
 0003:0000a220       ??_C@_0CA@IODNCDPG@Run?9Time?5Check?5Failure?5?$CD?$CFd?5?9?5?$CFs?$AA@ 00502220     MSVCRTD:error.obj
 0003:0000a248       ??_C@_0CG@IAFNJNEE@Stack?5corrupted?5near?5unknown?5var@ 00502248     MSVCRTD:error.obj
 0003:0000a278       ??_C@_05MKKEDADM@?$CF?42X?5?$AA@ 00502278     MSVCRTD:error.obj
 0003:0000a280       ??_C@_1BG@OILDLIOJ@?$AAu?$AAs?$AAe?$AAr?$AA3?$AA2?$AA?4?$AAd?$AAl?$AAl?$AA?$AA@ 00502280     MSVCRTD:error.obj
 0003:0000a29c       ??_C@_09FOPFMPEJ@wsprintfA?$AA@ 0050229c     MSVCRTD:error.obj
 0003:0000a2a8       ??_C@_0EJ@LJKNEOLN@Stack?5area?5around?5_alloca?5memory@ 005022a8     MSVCRTD:error.obj
 0003:0000a300       ??_C@_08OMAHNMHJ@?6Data?3?5?$DM?$AA@ 00502300     MSVCRTD:error.obj
 0003:0000a30c       ??_C@_0CK@DKGBICFE@?6Allocation?5number?5within?5this?5f@ 0050230c     MSVCRTD:error.obj
 0003:0000a340       ??_C@_07DFDJCKFN@?6Size?3?5?$AA@ 00502340     MSVCRTD:error.obj
 0003:0000a34c       ??_C@_0N@MHFFIMFG@?6Address?3?50x?$AA@ 0050234c     MSVCRTD:error.obj
 0003:0000a360       ??_C@_0EI@CLEPFNGI@Stack?5area?5around?5_alloca?5memory@ 00502360     MSVCRTD:error.obj
 0003:0000a3b8       ??_C@_0BC@KIBAILCI@?$CFs?$CFs?$CFp?$CFs?$CFld?$CFs?$CFd?$CFs?$AA@ 005023b8     MSVCRTD:error.obj
 0003:0000a3d0       ??_C@_02LLMPMKNF@?$DO?5?$AA@ 005023d0     MSVCRTD:error.obj
 0003:0000a3d4       ??_C@_08KJEDNCKC@?$CFs?$CFs?$CFs?$CFs?$AA@ 005023d4     MSVCRTD:error.obj
 0003:0000a3e0       ??_C@_0DE@OHJBPMBP@A?5variable?5is?5being?5used?5without@ 005023e0     MSVCRTD:error.obj
 0003:0000a420       ??_C@_1FA@DALEHHGL@?$AA_?$AA_?$AAn?$AAa?$AAt?$AAi?$AAv?$AAe?$AA_?$AAs?$AAt?$AAa?$AAr?$AAt?$AAu?$AAp?$AA_?$AAs?$AAt?$AAa?$AAt?$AAe?$AA?5?$AA?$DN?$AA?$DN?$AA?5?$AA_?$AA_?$AAi?$AAn?$AAi?$AAt@ 00502420     MSVCRTD:crtexew.obj
 0003:0000a480       ??_C@_1FG@DKNDLLJO@?$AAf?$AA?3?$AA?2?$AAd?$AAd?$AA?2?$AAv?$AAc?$AAt?$AAo?$AAo?$AAl?$AAs?$AA?2?$AAc?$AAr?$AAt?$AA?2?$AAc?$AAr?$AAt?$AAw?$AA3?$AA2?$AA?2?$AAd?$AAl?$AAl?$AAs?$AAt?$AAu?$AAf@ 00502480     MSVCRTD:crtexew.obj
 0003:0000a500       ??_C@_0BJ@HEGAHDFO@Stack?5pointer?5corruption?$AA@ 00502500     MSVCRTD:userapi.obj
 0003:0000a520       ??_C@_0CK@FEGOIOPB@Cast?5to?5smaller?5type?5causing?5los@ 00502520     MSVCRTD:userapi.obj
 0003:0000a554       ??_C@_0BI@CIGMDCBH@Stack?5memory?5corruption?$AA@ 00502554     MSVCRTD:userapi.obj
 0003:0000a570       ??_C@_0CK@CNLNOEPB@Local?5variable?5used?5before?5initi@ 00502570     MSVCRTD:userapi.obj
 0003:0000a5a4       ??_C@_0BP@OGBCLIBO@Stack?5around?5_alloca?5corrupted?$AA@ 005025a4     MSVCRTD:userapi.obj
 0003:0000a618       ?LocalIdBitWidth@CrossScopeId@CodeViewInfo@@2IB 00502618     MSVCRTD:pdblkup.obj
 0003:0000a61c       ?IdScopeBitWidth@CrossScopeId@CodeViewInfo@@2IB 0050261c     MSVCRTD:pdblkup.obj
 0003:0000a620       ?StartCrossScopeId@CrossScopeId@CodeViewInfo@@2IB 00502620     MSVCRTD:pdblkup.obj
 0003:0000a624       ?LocalIdMask@CrossScopeId@CodeViewInfo@@2IB 00502624     MSVCRTD:pdblkup.obj
 0003:0000a628       ?ScopeIdMask@CrossScopeId@CodeViewInfo@@2IB 00502628     MSVCRTD:pdblkup.obj
 0003:0000a62c       ?MaxLocalId@CrossScopeId@CodeViewInfo@@2IB 0050262c     MSVCRTD:pdblkup.obj
 0003:0000a630       ?MaxScopeId@CrossScopeId@CodeViewInfo@@2IB 00502630     MSVCRTD:pdblkup.obj
 0003:0000a634       ??_C@_1BK@GAEMIDIL@?$AAA?$AAD?$AAV?$AAA?$AAP?$AAI?$AA3?$AA2?$AA?4?$AAD?$AAL?$AAL?$AA?$AA@ 00502634     MSVCRTD:pdblkup.obj
 0003:0000a654       ??_C@_0O@COHOBMLB@RegOpenKeyExW?$AA@ 00502654     MSVCRTD:pdblkup.obj
 0003:0000a664       ??_C@_0BB@GLNAEDBD@RegQueryValueExW?$AA@ 00502664     MSVCRTD:pdblkup.obj
 0003:0000a678       ??_C@_0M@HLOHPNFA@RegCloseKey?$AA@ 00502678     MSVCRTD:pdblkup.obj
 0003:0000a688       ??_C@_1FM@EGIBBNPP@?$AAS?$AAO?$AAF?$AAT?$AAW?$AAA?$AAR?$AAE?$AA?2?$AAM?$AAi?$AAc?$AAr?$AAo?$AAs?$AAo?$AAf?$AAt?$AA?2?$AAV?$AAi?$AAs?$AAu?$AAa?$AAl?$AAS?$AAt?$AAu?$AAd?$AAi?$AAo?$AA?2@ 00502688     MSVCRTD:pdblkup.obj
 0003:0000a6f8       ??_C@_1BG@EABPBLLF@?$AAP?$AAr?$AAo?$AAd?$AAu?$AAc?$AAt?$AAD?$AAi?$AAr?$AA?$AA@ 005026f8     MSVCRTD:pdblkup.obj
 0003:0000a738       ??_C@_1BC@EOIMGOME@?$AAM?$AAS?$AAP?$AAD?$AAB?$AA1?$AA2?$AA0?$AA?$AA@ 00502738     MSVCRTD:pdblkup.obj
 0003:0000a750       ??_C@_0BB@KCIACLNC@PDBOpenValidate5?$AA@ 00502750     MSVCRTD:pdblkup.obj
 0003:0000a764       ?ProcessDetach@NativeDll@<CrtImplementationDetails>@@0IB 00502764     MSVCRTD:unhandld.obj
 0003:0000a768       ?ProcessAttach@NativeDll@<CrtImplementationDetails>@@0IB 00502768     MSVCRTD:unhandld.obj
 0003:0000a76c       ?ThreadAttach@NativeDll@<CrtImplementationDetails>@@0IB 0050276c     MSVCRTD:unhandld.obj
 0003:0000a770       ?ThreadDetach@NativeDll@<CrtImplementationDetails>@@0IB 00502770     MSVCRTD:unhandld.obj
 0003:0000a774       ?ProcessVerifier@NativeDll@<CrtImplementationDetails>@@0IB 00502774     MSVCRTD:unhandld.obj
 0003:0000a778       ??_C@_1FI@JJOJLGLE@?$AAf?$AA?3?$AA?2?$AAd?$AAd?$AA?2?$AAv?$AAc?$AAt?$AAo?$AAo?$AAl?$AAs?$AA?2?$AAc?$AAr?$AAt?$AA?2?$AAc?$AAr?$AAt?$AAw?$AA3?$AA2?$AA?2?$AAs?$AAt?$AAa?$AAr?$AAt?$AAu?$AAp@ 00502778     MSVCRTD:fp8.obj
 0003:0000a7e4       ??_C@_1CK@JMKHCBEI@?$AA_?$AAs?$AAe?$AAt?$AAd?$AAe?$AAf?$AAa?$AAu?$AAl?$AAt?$AAp?$AAr?$AAe?$AAc?$AAi?$AAs?$AAi?$AAo?$AAn?$AA?$AA@ 005027e4     MSVCRTD:fp8.obj
 0003:0000a818       ??_C@_1GE@KOCFNGPB@?$AA_?$AAc?$AAo?$AAn?$AAt?$AAr?$AAo?$AAl?$AAf?$AAp?$AA_?$AAs?$AA?$CI?$AA?$CI?$AA?$CI?$AAv?$AAo?$AAi?$AAd?$AA?5?$AA?$CK?$AA?$CJ?$AA0?$AA?$CJ?$AA?0?$AA?5?$AA0?$AAx?$AA0?$AA0?$AA0?$AA1@ 00502818     MSVCRTD:fp8.obj
 0003:0000a890       __load_config_used         00502890     MSVCRTD:loadcfg.obj
 0003:0000ad94       ??_R4error_category@std@@6B@ 00502d94     database.obj
 0003:0000adac       ??_R3error_category@std@@8 00502dac     database.obj
 0003:0000adc0       ??_R2error_category@std@@8 00502dc0     database.obj
 0003:0000adc8       ??_R1A@?0A@EA@error_category@std@@8 00502dc8     database.obj
 0003:0000adec       ??_R4_Generic_error_category@std@@6B@ 00502dec     database.obj
 0003:0000ae04       ??_R3_Generic_error_category@std@@8 00502e04     database.obj
 0003:0000ae18       ??_R2_Generic_error_category@std@@8 00502e18     database.obj
 0003:0000ae24       ??_R1A@?0A@EA@_Generic_error_category@std@@8 00502e24     database.obj
 0003:0000ae48       ??_R4_Iostream_error_category@std@@6B@ 00502e48     database.obj
 0003:0000ae60       ??_R3_Iostream_error_category@std@@8 00502e60     database.obj
 0003:0000ae74       ??_R2_Iostream_error_category@std@@8 00502e74     database.obj
 0003:0000ae84       ??_R1A@?0A@EA@_Iostream_error_category@std@@8 00502e84     database.obj
 0003:0000aea8       ??_R4_System_error_category@std@@6B@ 00502ea8     database.obj
 0003:0000aec0       ??_R3_System_error_category@std@@8 00502ec0     database.obj
 0003:0000aed4       ??_R2_System_error_category@std@@8 00502ed4     database.obj
 0003:0000aee4       ??_R1A@?0A@EA@_System_error_category@std@@8 00502ee4     database.obj
 0003:0000af08       ??_R4database@@6B@         00502f08     database.obj
 0003:0000af20       ??_R3database@@8           00502f20     database.obj
 0003:0000af34       ??_R2database@@8           00502f34     database.obj
 0003:0000af3c       ??_R1A@?0A@EA@database@@8  00502f3c     database.obj
 0003:0000af60       ??_R4databaseMgr@@6B@      00502f60     databaseMgr.obj
 0003:0000af78       ??_R3databaseMgr@@8        00502f78     databaseMgr.obj
 0003:0000af8c       ??_R2databaseMgr@@8        00502f8c     databaseMgr.obj
 0003:0000af94       ??_R1A@?0A@EA@databaseMgr@@8 00502f94     databaseMgr.obj
 0003:0000afb8       ??_R4bncs_disklog@@6B@     00502fb8     bncs_disklog.obj
 0003:0000afd0       ??_R3bncs_disklog@@8       00502fd0     bncs_disklog.obj
 0003:0000afe4       ??_R2bncs_disklog@@8       00502fe4     bncs_disklog.obj
 0003:0000afec       ??_R1A@?0A@EA@bncs_disklog@@8 00502fec     bncs_disklog.obj
 0003:0000b010       ??_R4ccCheck@@6B@          00503010     ccCheck.obj
 0003:0000b028       ??_R3ccCheck@@8            00503028     ccCheck.obj
 0003:0000b03c       ??_R2ccCheck@@8            0050303c     ccCheck.obj
 0003:0000b044       ??_R1A@?0A@EA@ccCheck@@8   00503044     ccCheck.obj
 0003:0000b068       ??_R4deviceStatus@@6B@     00503068     deviceStatus.obj
 0003:0000b080       ??_R3deviceStatus@@8       00503080     deviceStatus.obj
 0003:0000b094       ??_R2deviceStatus@@8       00503094     deviceStatus.obj
 0003:0000b09c       ??_R1A@?0A@EA@deviceStatus@@8 0050309c     deviceStatus.obj
 0003:0000b0c0       ??_R4externalsListDialog@@6B@ 005030c0     externalsListDialog.obj
 0003:0000b0d8       ??_R3externalsListDialog@@8 005030d8     externalsListDialog.obj
 0003:0000b0ec       ??_R2externalsListDialog@@8 005030ec     externalsListDialog.obj
 0003:0000b0f4       ??_R1A@?0A@EA@externalsListDialog@@8 005030f4     externalsListDialog.obj
 0003:0000b118       ??_R4CGetArguments@@6B@    00503118     GetArguments.obj
 0003:0000b130       ??_R3CGetArguments@@8      00503130     GetArguments.obj
 0003:0000b144       ??_R2CGetArguments@@8      00503144     GetArguments.obj
 0003:0000b14c       ??_R1A@?0A@EA@CGetArguments@@8 0050314c     GetArguments.obj
 0003:0000b170       ??_R4networkInterface@@6B@ 00503170     networkInterface.obj
 0003:0000b188       ??_R3networkInterface@@8   00503188     networkInterface.obj
 0003:0000b19c       ??_R2networkInterface@@8   0050319c     networkInterface.obj
 0003:0000b1a4       ??_R1A@?0A@EA@networkInterface@@8 005031a4     networkInterface.obj
 0003:0000b1c8       ??_R4networkInterfaceImpl@@6B@ 005031c8     networkInterfaceImpl.obj
 0003:0000b1e0       ??_R3networkInterfaceImpl@@8 005031e0     networkInterfaceImpl.obj
 0003:0000b1f4       ??_R2networkInterfaceImpl@@8 005031f4     networkInterfaceImpl.obj
 0003:0000b1fc       ??_R1A@?0A@EA@networkInterfaceImpl@@8 005031fc     networkInterfaceImpl.obj
 0003:0000b220       ??_R4pktRecoveryDialog@@6B@ 00503220     pktRecoveryDialog.obj
 0003:0000b238       ??_R3pktRecoveryDialog@@8  00503238     pktRecoveryDialog.obj
 0003:0000b24c       ??_R2pktRecoveryDialog@@8  0050324c     pktRecoveryDialog.obj
 0003:0000b254       ??_R1A@?0A@EA@pktRecoveryDialog@@8 00503254     pktRecoveryDialog.obj
 0003:0000b278       ??_R4sizedBuffer@@6B@      00503278     sizedBuffer.obj
 0003:0000b290       ??_R3sizedBuffer@@8        00503290     sizedBuffer.obj
 0003:0000b2a4       ??_R2sizedBuffer@@8        005032a4     sizedBuffer.obj
 0003:0000b2ac       ??_R1A@?0A@EA@sizedBuffer@@8 005032ac     sizedBuffer.obj
 0003:0000b2d0       ??_R4supersededMemory@@6B@ 005032d0     supersededMemory.obj
 0003:0000b2e8       ??_R3supersededMemory@@8   005032e8     supersededMemory.obj
 0003:0000b2fc       ??_R2supersededMemory@@8   005032fc     supersededMemory.obj
 0003:0000b304       ??_R1A@?0A@EA@supersededMemory@@8 00503304     supersededMemory.obj
 0003:0000b328       ??_R4workstationStatus@@6B@ 00503328     workstationStatus.obj
 0003:0000b340       ??_R3workstationStatus@@8  00503340     workstationStatus.obj
 0003:0000b354       ??_R2workstationStatus@@8  00503354     workstationStatus.obj
 0003:0000b35c       ??_R1A@?0A@EA@workstationStatus@@8 0050335c     workstationStatus.obj
 0003:0000b380       ??_R4cBncsVersion@@6B@     00503380     bncsversioninfo:cBncsVersion.obj
 0003:0000b398       ??_R3cBncsVersion@@8       00503398     bncsversioninfo:cBncsVersion.obj
 0003:0000b3ac       ??_R2cBncsVersion@@8       005033ac     bncsversioninfo:cBncsVersion.obj
 0003:0000b3b4       ??_R1A@?0A@EA@cBncsVersion@@8 005033b4     bncsversioninfo:cBncsVersion.obj
 0003:0000b3d8       ??_R4type_info@@6B@        005033d8     MSVCRTD:ti_inst.obj
 0003:0000b3f0       ??_R3type_info@@8          005033f0     MSVCRTD:ti_inst.obj
 0003:0000b404       ??_R2type_info@@8          00503404     MSVCRTD:ti_inst.obj
 0003:0000b40c       ??_R1A@?0A@EA@type_info@@8 0050340c     MSVCRTD:ti_inst.obj
 0003:0000b554       ___rtc_iaa                 00503554     MSVCRTD:initsect.obj
 0003:0000b82c       ___rtc_izz                 0050382c     MSVCRTD:initsect.obj
 0003:0000b930       ___rtc_taa                 00503930     MSVCRTD:initsect.obj
 0003:0000bc08       ___rtc_tzz                 00503c08     MSVCRTD:initsect.obj
 0003:00012714       __TI1?AVstructured_exception@@ 0050a714     except.obj
 0003:00012728       __CTA1?AVstructured_exception@@ 0050a728     except.obj
 0003:00012730       __CT??_R0?AVstructured_exception@@@812 0050a730     except.obj
 0004:00000160       ___security_cookie         0050e160     MSVCRTD:gs_cookie.obj
 0004:00000164       ___security_cookie_complement 0050e164     MSVCRTD:gs_cookie.obj
 0004:00000170       ?_RTC_ErrorLevels@@3PAHA   0050e170     MSVCRTD:error.obj
 0004:00000188       ___defaultmatherr          0050e188     MSVCRTD:merr.obj
 0004:0000018c       ___globallocalestatus      0050e18c     MSVCRTD:xthdloc.obj
 0004:00000190       ___native_dllmain_reason   0050e190     MSVCRTD:natstart.obj
 0004:0000029c       ??_R0?AVerror_category@std@@@8 0050e29c     database.obj
 0004:000002c4       ??_R0?AV_Generic_error_category@std@@@8 0050e2c4     database.obj
 0004:000002f8       ??_R0?AV_Iostream_error_category@std@@@8 0050e2f8     database.obj
 0004:0000032c       ??_R0?AV_System_error_category@std@@@8 0050e32c     database.obj
 0004:00000360       ??_R0?AVdatabase@@@8       0050e360     database.obj
 0004:0000037c       ??_R0?AVdatabaseMgr@@@8    0050e37c     databaseMgr.obj
 0004:0000039c       ??_R0?AVbncs_disklog@@@8   0050e39c     bncs_disklog.obj
 0004:000003bc       ??_R0?AVccCheck@@@8        0050e3bc     ccCheck.obj
 0004:000003d8       ??_R0?AVdeviceStatus@@@8   0050e3d8     deviceStatus.obj
 0004:000003f8       ??_R0?AVstructured_exception@@@8 0050e3f8     except.obj
 0004:00000424       ??_R0?AVexternalsListDialog@@@8 0050e424     externalsListDialog.obj
 0004:0000044c       ??_R0?AVCGetArguments@@@8  0050e44c     GetArguments.obj
 0004:00000470       ??_R0?AVnetworkInterface@@@8 0050e470     networkInterface.obj
 0004:00000498       ??_R0?AVnetworkInterfaceImpl@@@8 0050e498     networkInterfaceImpl.obj
 0004:000004c4       ??_R0?AVpktRecoveryDialog@@@8 0050e4c4     pktRecoveryDialog.obj
 0004:000004ec       ??_R0?AVsizedBuffer@@@8    0050e4ec     sizedBuffer.obj
 0004:0000050c       ??_R0?AVsupersededMemory@@@8 0050e50c     supersededMemory.obj
 0004:00000534       ??_R0?AVworkstationStatus@@@8 0050e534     workstationStatus.obj
 0004:0000055c       ??_R0?AVcBncsVersion@@@8   0050e55c     bncsversioninfo:cBncsVersion.obj
 0004:0000057c       ??_R0?AVtype_info@@@8      0050e57c     MSVCRTD:ti_inst.obj
 0004:000006ac       ?_Generic_object@?$_Error_objects@H@std@@2V_Generic_error_category@2@A 0050e6ac     database.obj
 0004:000006b0       ?_Iostream_object@?$_Error_objects@H@std@@2V_Iostream_error_category@2@A 0050e6b0     database.obj
 0004:000006b4       ?_System_object@?$_Error_objects@H@std@@2V_System_error_category@2@A 0050e6b4     database.obj
 0004:000006b8       ?id@?$num_put@DV?$back_insert_iterator@V?$basic_string@DU?$char_traits@D@std@@V?$allocator@D@2@@std@@@std@@@std@@2V0locale@2@A 0050e6b8     database.obj
 0004:000006bc       ?id@?$num_put@_WV?$back_insert_iterator@V?$basic_string@_WU?$char_traits@_W@std@@V?$allocator@_W@2@@std@@@std@@@std@@2V0locale@2@A 0050e6bc     database.obj
 0004:000006c8       ?m_driverList@closedDriversList@@0V?$set@HU?$less@H@std@@V?$allocator@H@2@@std@@A 0050e6c8     closedDriversList.obj
 0004:000006ec       ?iPortId@@3HA              0050e6ec     CSCOMDOG.obj
 0004:000006f0       ?hWndDBase@@3PAUHWND__@@A  0050e6f0     Csdbase.obj
 0004:0000087c       ?iCSDbExt_Device@@3HA      0050e87c     csdbext.obj
 0004:00000880       ?iCSDbExt_Database@@3HA    0050e880     csdbext.obj
 0004:00000884       ?hCSDbExt_File@@3HA        0050e884     csdbext.obj
 0004:00000898       ?recoveryRequestRejectionListMutex@@3PAXA 0050e898     Csimain.obj
 0004:0000089c       ?revertivePacketListMutex@@3PAXA 0050e89c     Csimain.obj
 0004:000008a0       ?outgoingRecoveryPacketsMutex@@3PAXA 0050e8a0     Csimain.obj
 0004:000008a4       ?maxRecoveryRequests@@3HA  0050e8a4     Csimain.obj
 0004:000008a8       ?recoveryRequestRepeatRate@@3HA 0050e8a8     Csimain.obj
 0004:000008ac       ?iUnrecoverableErrors@@3HA 0050e8ac     Csimain.obj
 0004:000008b0       ?iRelevantRecoveredPkts@@3HA 0050e8b0     Csimain.obj
 0004:000008b4       ?iIrrelevantRecoveredPkts@@3HA 0050e8b4     Csimain.obj
 0004:000008b8       ?iDuplicateRecoveryRequests@@3HA 0050e8b8     Csimain.obj
 0004:000008bc       ?iPacketRecoveryRejections@@3HA 0050e8bc     Csimain.obj
 0004:000008c0       ?iRecoveryRetries@@3HA     0050e8c0     Csimain.obj
 0004:000008c4       ?iSupersededMessagesIgnored@@3HA 0050e8c4     Csimain.obj
 0004:000008c8       ?iMaxRecoveryPacketsPerTick@@3HA 0050e8c8     Csimain.obj
 0004:000008cc       ?iStatusWorkstationInfodriverId@@3HA 0050e8cc     Csimain.obj
 0004:000008d0       ?iStatusDeviceInfodriverId@@3HA 0050e8d0     Csimain.obj
 0004:000008d4       ?iStoredRevertivePacketCount@@3HA 0050e8d4     Csimain.obj
 0004:000008d8       ?iStartupStatusCount@@3HA  0050e8d8     Csimain.obj
 0004:000008dc       ?hWorkstationStatusListMutex@@3PAXA 0050e8dc     Csimain.obj
 0004:000008e0       ?supersededMemories@@3PAPAVsupersededMemory@@A 0050e8e0     Csimain.obj
 0004:00001880       ?workstationStatusList@@3PAPAVworkstationStatus@@A 0050f880     Csimain.obj
 0004:00002820       ?deviceStatusList@@3PAPAVdeviceStatus@@A 00510820     Csimain.obj
 0004:0000681c       ?hDeviceStatusListMutex@@3PAXA 0051481c     Csimain.obj
 0004:00006820       ?hCache@@3PAPAXA           00514820     Csimain.obj
 0004:0000a81c       ?iCacheEnable@@3HA         0051881c     Csimain.obj
 0004:0000a820       ?iWatchDog@@3PAHA          00518820     Csimain.obj
 0004:0000e81c       ?iCacheLife@@3HA           0051c81c     Csimain.obj
 0004:0000e820       ?iCacheHits@@3HA           0051c820     Csimain.obj
 0004:0000e824       ?iPollHits@@3HA            0051c824     Csimain.obj
 0004:0000e828       ?iCachePercent@@3HA        0051c828     Csimain.obj
 0004:0000e82c       ?iMaxRecoveryMessageHoldoff@@3HA 0051c82c     Csimain.obj
 0004:0000e830       ?ulRamCacheSizeMax@@3KA    0051c830     Csimain.obj
 0004:0000e834       ?dwRevSerial@@3KA          0051c834     Csimain.obj
 0004:0000e838       ?dwCmdSerial@@3KA          0051c838     Csimain.obj
 0004:0000e83c       ?ulRamCacheMemUsed@@3KA    0051c83c     Csimain.obj
 0004:0000e840       ?ulDiscCacheMemUsed@@3KA   0051c840     Csimain.obj
 0004:0000e844       ?bPacketRecoveryEnable@@3_NA 0051c844     Csimain.obj
 0004:0000e845       ?bSimulateUnreliability@@3_NA 0051c845     Csimain.obj
 0004:0000e846       ?distributeTxRxStatus@@3_NA 0051c846     Csimain.obj
 0004:0000e847       ?distributeNetMsg@@3_NA    0051c847     Csimain.obj
 0004:0000e848       ?iUnreliabilityTxRate@@3HA 0051c848     Csimain.obj
 0004:0000e84c       ?iUnreliabilityTxCount@@3HA 0051c84c     Csimain.obj
 0004:0000e850       ?iUnreliabilityRxRate@@3HA 0051c850     Csimain.obj
 0004:0000e854       ?iUnreliabilityRxCount@@3HA 0051c854     Csimain.obj
 0004:0000e858       ?heartbeatEnable@@3_NA     0051c858     Csimain.obj
 0004:0000e859       ?heartbeatSendBoth@@3_NA   0051c859     Csimain.obj
 0004:0000e85a       ?gSendMessageTiming@@3_NA  0051c85a     Csimain.obj
 0004:0000e85b       ?bStatusChannelEnable@@3_NA 0051c85b     Csimain.obj
 0004:0000e85c       ?heartbeatTime@@3HA        0051c85c     Csimain.obj
 0004:0000e860       ?heartbeatTimeout@@3HA     0051c860     Csimain.obj
 0004:0000e864       ?hCacheFile@@3PAHA         0051c864     Csimain.obj
 0004:0000e884       ?iCacheFile@@3PAHA         0051c884     Csimain.obj
 0004:0000e8a4       ?dgMsgQueueHWM@@3HA        0051c8a4     Csimain.obj
 0004:0000e8a8       ?bCacheSelect@@3PAHA       0051c8a8     Csimain.obj
 0004:000128a4       ?iClientRegHWM@@3HA        005208a4     Csimain.obj
 0004:000128a8       ?asReg@@3PAUsRegistration@@A 005208a8     Csimain.obj
 0004:0040085c       ?iNDIErrors@@3HA           0090e85c     Csimain.obj
 0004:00400860       ?iUniMsgSize@@3HA          0090e860     Csimain.obj
 0004:00400864       ?iUniFileMsgSize@@3HA      0090e864     Csimain.obj
 0004:00400868       ?hWndDrv@@3PAPAUHWND__@@A  0090e868     Csimain.obj
 0004:00404864       ?hSingleInstanceMutex@@3PAXA 00912864     Csimain.obj
 0004:00404868       ?bDrvFlags@@3PAEA          00912868     Csimain.obj
 0004:00405867       ?useMemoryDatabases@@3_NA  00913867     Csimain.obj
 0004:00405868       ?iRedundancyMaster@@3PAHA  00913868     Csimain.obj
 0004:00409864       ?uHeartbeatCount@@3KA      00917864     Csimain.obj
 0004:00409868       ?acUniBuff@@3PAEA          00917868     Csimain.obj
 0004:00409a69       ?bMemoryInfoCache@@3_NA    00917a69     Csimain.obj
 0004:00409a6a       ?fHWND_BROADCAST_NETSTATUSMSG@@3_NA 00917a6a     Csimain.obj
 0004:00409a6b       ?fHWND_BROADCAST_CSICLOSEWARNING@@3_NA 00917a6b     Csimain.obj
 0004:00409a6c       ?g_databaseMgr@@3PAVdatabaseMgr@@A 00917a6c     Csimain.obj
 0004:00409a70       ?acUniFileBuff@@3PAEA      00917a70     Csimain.obj
 0004:00409c71       ?fHWND_BROADCAST_APPREADY@@3_NA 00917c71     Csimain.obj
 0004:00409c72       ?fDeafToSelf@@3_NA         00917c72     Csimain.obj
 0004:00409c73       ?gbDevIniMustExistForV2@@3_NA 00917c73     Csimain.obj
 0004:00409c74       ?g_cacheMgr@@3PAVdatabaseMgr@@A 00917c74     Csimain.obj
 0004:00409c78       ?sData@@3PAUsDriver@@A     00917c78     Csimain.obj
 0004:0041dc64       ?lBootTime@@3JA            0092bc64     Csimain.obj
 0004:0041dc68       ?hWndAlarmsExternal@@3PAUHWND__@@A 0092bc68     Csimain.obj
 0004:0041dc6c       ?hWndMain@@3PAUHWND__@@A   0092bc6c     Csimain.obj
 0004:0041dc70       ?gszVersion@@3PADA         0092bc70     Csimain.obj
 0004:0041dcf0       ?gszCopyright@@3PADA       0092bcf0     Csimain.obj
 0004:0041dd70       ?hWndDlg@@3PAUHWND__@@A    0092bd70     Csimain.obj
 0004:0041dd74       ?hWndCSRemote@@3PAUHWND__@@A 0092bd74     Csimain.obj
 0004:0041dd78       ?hWndCSLink@@3PAUHWND__@@A 0092bd78     Csimain.obj
 0004:0041dd7c       ?hMenu@@3PAUHMENU__@@A     0092bd7c     Csimain.obj
 0004:0041dd80       ?lpDialog@@3P6GHXZA        0092bd80     Csimain.obj
 0004:0041dd84       ?hInst@@3PAUHINSTANCE__@@A 0092bd84     Csimain.obj
 0004:0041dd88       ?hIcon@@3PAUHICON__@@A     0092bd88     Csimain.obj
 0004:0041dd8c       ?hInstBWCCDLL@@3PAUHINSTANCE__@@A 0092bd8c     Csimain.obj
 0004:0041dd90       ?acDebug@@3PADA            0092bd90     Csimain.obj
 0004:0041df91       ?bNBWS@@3EA                0092bf91     Csimain.obj
 0004:0041df92       ?bNBCSI@@3EA               0092bf92     Csimain.obj
 0004:0041df93       ?bNBNDI@@3EA               0092bf93     Csimain.obj
 0004:0041df94       ?bDebugMode@@3HA           0092bf94     Csimain.obj
 0004:0041df98       ?acCmdBuff@@3PADA          0092bf98     Csimain.obj
 0004:0041e199       ?bStatus@@3EA              0092c199     Csimain.obj
 0004:0041e19a       ?bNBPktRec@@3EA            0092c19a     Csimain.obj
 0004:0041e19b       ?bCLFlag@@3EA              0092c19b     Csimain.obj
 0004:0041e19c       ?bDiagMode@@3HA            0092c19c     Csimain.obj
 0004:0041e1a0       ?acTempFilePath@@3PADA     0092c1a0     Csimain.obj
 0004:0041e2a4       ?bDiagModeExt@@3HA         0092c2a4     Csimain.obj
 0004:0041e2a8       ?acKeyFilePath@@3PADA      0092c2a8     Csimain.obj
 0004:0041e3ac       ?acWS@@3PADA               0092c3ac     Csimain.obj
 0004:0041e3bd       ?bFBFlag@@3EA              0092c3bd     Csimain.obj
 0004:0041e3be       ?bSendPacketSerialNumbers@@3_NA 0092c3be     Csimain.obj
 0004:0041e3bf       ?fClearCacheOnPacketError@@3_NA 0092c3bf     Csimain.obj
 0004:0041e3c0       ?pncbCSI@@3PAPAU_NCB@@A    0092c3c0     Csimain.obj
 0004:0041e440       ?pncbNDI@@3PAPAU_NCB@@A    0092c440     Csimain.obj
 0004:0041e4c0       ?pncbPktRec@@3PAPAU_NCB@@A 0092c4c0     Csimain.obj
 0004:0041e540       ?acCSI@@3PADA              0092c540     Csimain.obj
 0004:0041e551       ?bSendCommandSerialNumbers@@3_NA 0092c551     Csimain.obj
 0004:0041e552       ?bWriteTxBufferOverloadLog@@3_NA 0092c552     Csimain.obj
 0004:0041e554       ?acNDI@@3PADA              0092c554     Csimain.obj
 0004:0041e568       ?acStatus@@3PADA           0092c568     Csimain.obj
 0004:0041e57c       ?acPktRec@@3PADA           0092c57c     Csimain.obj
 0004:0041e590       ?iWorkstation@@3HA         0092c590     Csimain.obj
 0004:0041e594       ?iCSIEnable@@3HA           0092c594     Csimain.obj
 0004:0041e598       ?iClientEnable@@3HA        0092c598     Csimain.obj
 0004:0041e59c       ?iDriverEnable@@3HA        0092c59c     Csimain.obj
 0004:0041e5a0       ?iSessionEnable@@3HA       0092c5a0     Csimain.obj
 0004:0041e5a4       ?iCSIBuffers@@3HA          0092c5a4     Csimain.obj
 0004:0041e5a8       ?iNDIBuffers@@3HA          0092c5a8     Csimain.obj
 0004:0041e5ac       ?iSesBuffers@@3HA          0092c5ac     Csimain.obj
 0004:0041e5b0       ?iPktRecBuffers@@3HA       0092c5b0     Csimain.obj
 0004:0041e5b4       ?iChange@@3HA              0092c5b4     Csimain.obj
 0004:0041e5b8       ?lSESMx@@3JA               0092c5b8     Csimain.obj
 0004:0041e5bc       ?lSESTx@@3JA               0092c5bc     Csimain.obj
 0004:0041e5c0       ?lSESRx@@3JA               0092c5c0     Csimain.obj
 0004:0041e5c4       ?lSESOx@@3JA               0092c5c4     Csimain.obj
 0004:0041e5c8       ?lSESIx@@3JA               0092c5c8     Csimain.obj
 0004:0041e5cc       ?lNetMx@@3JA               0092c5cc     Csimain.obj
 0004:0041e5d0       ?lNetTx@@3JA               0092c5d0     Csimain.obj
 0004:0041e5d4       ?lNetRx@@3JA               0092c5d4     Csimain.obj
 0004:0041e5d8       ?lNetSx@@3JA               0092c5d8     Csimain.obj
 0004:0041e5dc       ?lNetCx@@3JA               0092c5dc     Csimain.obj
 0004:0041e5e0       ?lNDIMx@@3JA               0092c5e0     Csimain.obj
 0004:0041e5e4       ?lNDITx@@3JA               0092c5e4     Csimain.obj
 0004:0041e5e8       ?lNDIRx@@3JA               0092c5e8     Csimain.obj
 0004:0041e5ec       ?lNDIDx@@3JA               0092c5ec     Csimain.obj
 0004:0041e5f0       ?lSESEx@@3JA               0092c5f0     Csimain.obj
 0004:0041e5f4       ?lNetEx@@3JA               0092c5f4     Csimain.obj
 0004:0041e5f8       ?lNDIEx@@3JA               0092c5f8     Csimain.obj
 0004:0041e5fc       ?iClients@@3HA             0092c5fc     Csimain.obj
 0004:0041e600       ?iDrivers@@3HA             0092c600     Csimain.obj
 0004:0041e604       ?iDevices@@3HA             0092c604     Csimain.obj
 0004:0041e608       ?iSecCount@@3HA            0092c608     Csimain.obj
 0004:0041e60c       ?bClosewarn@@3HA           0092c60c     Csimain.obj
 0004:0041e610       ?bClosedown@@3HA           0092c610     Csimain.obj
 0004:0041e614       ?bStartup@@3HA             0092c614     Csimain.obj
 0004:0041e618       ?iTimeSrvEnable@@3HA       0092c618     Csimain.obj
 0004:0041e61c       ?iTimeSrvDelay@@3HA        0092c61c     Csimain.obj
 0004:0041e620       ?iMinCount@@3HA            0092c620     Csimain.obj
 0004:0041e624       ?iWinXpos@@3HA             0092c624     Csimain.obj
 0004:0041e628       ?iWinYpos@@3HA             0092c628     Csimain.obj
 0004:0041e62c       ?iTotalINI@@3HA            0092c62c     Csimain.obj
 0004:0041e630       ?iDEVINI@@3HA              0092c630     Csimain.obj
 0004:0041e634       ?iGRDINI@@3HA              0092c634     Csimain.obj
 0004:0041e638       ?iGPIDINI@@3HA             0092c638     Csimain.obj
 0004:0041e63c       ?iIDINI@@3HA               0092c63c     Csimain.obj
 0004:0041e640       ?iClashINI@@3HA            0092c640     Csimain.obj
 0004:0041e644       ?iCloseDelay@@3HA          0092c644     Csimain.obj
 0004:0041e648       ?iNetworkChannel@@3HA      0092c648     Csimain.obj
 0004:0041e64c       ?iStatUpdateCount@@3HA     0092c64c     Csimain.obj
 0004:0041e650       ?iBootYear@@3HA            0092c650     Csimain.obj
 0004:0041e654       ?iBootMonth@@3HA           0092c654     Csimain.obj
 0004:0041e658       ?iBootDay@@3HA             0092c658     Csimain.obj
 0004:0041e65c       ?iBootHour@@3HA            0092c65c     Csimain.obj
 0004:0041e660       ?iBootMin@@3HA             0092c660     Csimain.obj
 0004:0041e664       ?iBootSec@@3HA             0092c664     Csimain.obj
 0004:0041e668       ?iUpDays@@3HA              0092c668     Csimain.obj
 0004:0041e66c       ?iUpHours@@3HA             0092c66c     Csimain.obj
 0004:0041e670       ?iUpMins@@3HA              0092c670     Csimain.obj
 0004:0041e674       ?iUpSecs@@3HA              0092c674     Csimain.obj
 0004:0041e678       ?iWatchDogComPort@@3HA     0092c678     Csimain.obj
 0004:0041e67c       ?iLocalLoopBack@@3HA       0092c67c     Csimain.obj
 0004:0041e680       ?iNetworkEnable@@3HA       0092c680     Csimain.obj
 0004:0041e684       ?iLoopbackEnable@@3HA      0092c684     Csimain.obj
 0004:0041e688       ?iCacheProfile@@3HA        0092c688     Csimain.obj
 0004:0041e68c       ?iMiU@@3HA                 0092c68c     Csimain.obj
 0004:0041e690       ?iMxU@@3HA                 0092c690     Csimain.obj
 0004:0041e694       ?iMxDrv@@3HA               0092c694     Csimain.obj
 0004:0041e698       ?iMxDev@@3HA               0092c698     Csimain.obj
 0004:0041e69c       ?acX@@3PADA                0092c69c     Csimain.obj
 0004:0041e6a8       ?acU@@3PADA                0092c6a8     Csimain.obj
 0004:0041e728       ?iAdaptor@@3HA             0092c728     Csimain.obj
 0004:0041e72c       ?iDisableWatchdogOnExit@@3HA 0092c72c     Csimain.obj
 0004:0041e730       ?iResetingNetwork@@3HA     0092c730     Csimain.obj
 0004:0041e734       ?iV1Compatibility@@3HA     0092c734     Csimain.obj
 0004:0041e738       ?iNetResets@@3HA           0092c738     Csimain.obj
 0004:0041e73c       ?iMaxClients@@3HA          0092c73c     Csimain.obj
 0004:0041e740       ?iHODCDF@@3HA              0092c740     Csimain.obj
 0004:0041e744       ?m_hWndGateway@@3PAUHWND__@@A 0092c744     Csimain.obj
 0004:0041e748       ?acVar@@3PAY0CAB@DA        0092c748     Csimain.obj
 0004:0041f750       ?aiVar@@3PAHA              0092d750     Csimain.obj
 0004:0041f770       ?avVar@@3PADA              0092d770     Csimain.obj
 0004:0041f778       ?iSessionInUse@@3HA        0092d778     Csimain.obj
 0004:0041f77c       ?pncbListen@@3PAU_NCB@@A   0092d77c     Csimain.obj
 0004:0041f780       ?iSessionAttempts@@3HA     0092d780     Csimain.obj
 0004:0041f784       ?iSessionRetryPending@@3HA 0092d784     Csimain.obj
 0004:0041f788       ?iHangUpDelay@@3HA         0092d788     Csimain.obj
 0004:0041f78c       ?revSerialErrorRequestStackMutex@@3PAXA 0092d78c     Csimain.obj
 0004:0041f790       ?dwSerialNumbers@@3PAKA    0092d790     Csimain.obj
 0004:00420730       ?wDeviceHost@@3PAGA        0092e730     Csimain.obj
 0004:00422730       ?fClearCacheOnNC@@3HA      00930730     Csimain.obj
 0004:00422734       ?iTxRxRetryPeriod@@3HA     00930734     Csimain.obj
 0004:00422738       ?sNS@@3UsNetSession@@A     00930738     Csimain.obj
 0004:004228e4       ?iTxRxRetryCount@@3HA      009308e4     Csimain.obj
 0004:004228e8       ?bLSNChk@@3PAEA            009308e8     Csimain.obj
 0004:004229e8       ?hNetBuff@@3PAHA           009309e8     Csimain.obj
 0004:004269e4       ?iTxRxRetryPtr@@3HA        009349e4     Csimain.obj
 0004:004269e8       ?iNetSendDGHWM@@3HA        009349e8     Csimain.obj
 0004:004269ec       ?iNetSendDGCount@@3HA      009349ec     Csimain.obj
 0004:004269f0       ?iNetSendDGError@@3HA      009349f0     Csimain.obj
 0004:004269f4       ?pollQueueHWM@@3IA         009349f4     Csimain.obj
 0004:004269f8       ?pollQueueMutex@@3PAXA     009349f8     Csimain.obj
 0004:004269fc       ?recoveredPacketQueueMutex@@3PAXA 009349fc     Csimain.obj
 0004:00426a00       ?iSerialNumberErrors@@3HA  00934a00     Csimain.obj
 0004:00426a08       ?workstationStatusRepollList@@3V?$set@HU?$less@H@std@@V?$allocator@H@2@@std@@A 00934a08     Csimain.obj
 0004:00426a14       ?configChangeClientList@@3V?$list@PAUHWND__@@V?$allocator@PAUHWND__@@@std@@@std@@A 00934a14     Csimain.obj
 0004:00426a20       ?revSerialErrorRequestStack@@3V?$multimap@GVserialError@@U?$less@G@std@@V?$allocator@U?$pair@$$CBGVserialError@@@std@@@3@@std@@A 00934a20     Csimain.obj
 0004:00426a2c       ?recoveryRequestRejectionList@@3V?$list@VserialError@@V?$allocator@VserialError@@@std@@@std@@A 00934a2c     Csimain.obj
 0004:00426a38       ?netMsgUpdateClientList@@3V?$list@PAUHWND__@@V?$allocator@PAUHWND__@@@std@@@std@@A 00934a38     Csimain.obj
 0004:00426a44       ?revertivePacketList@@3V?$map@KVsizedBuffer@@U?$less@K@std@@V?$allocator@U?$pair@$$CBKVsizedBuffer@@@std@@@3@@std@@A 00934a44     Csimain.obj
 0004:00426a50       ?serialErrorClientList@@3V?$list@PAUHWND__@@V?$allocator@PAUHWND__@@@std@@@std@@A 00934a50     Csimain.obj
 0004:00426a5c       ?recoveredPacketQueue@@3V?$map@KVsizedBuffer@@U?$less@K@std@@V?$allocator@U?$pair@$$CBKVsizedBuffer@@@std@@@3@@std@@A 00934a5c     Csimain.obj
 0004:00426a68       ?extListDlg@@3VexternalsListDialog@@A 00934a68     Csimain.obj
 0004:00426a90       ?netTxRxStatusClientList@@3V?$list@PAUHWND__@@V?$allocator@PAUHWND__@@@std@@@std@@A 00934a90     Csimain.obj
 0004:00426a9c       ?outgoingRecoveryPackets@@3V?$map@KVsizedBuffer@@U?$less@K@std@@V?$allocator@U?$pair@$$CBKVsizedBuffer@@@std@@@3@@std@@A 00934a9c     Csimain.obj
 0004:00426aa8       ?prDlg@@3VpktRecoveryDialog@@A 00934aa8     Csimain.obj
 0004:00426ab0       ?deviceStatusRepollList@@3V?$set@HU?$less@H@std@@V?$allocator@H@2@@std@@A 00934ab0     Csimain.obj
 0004:00426abc       ?pollQueue@@3V?$queue@VsizedBuffer@@V?$deque@VsizedBuffer@@V?$allocator@VsizedBuffer@@@std@@@std@@@std@@A 00934abc     Csimain.obj
 0004:004fb32c       ?thisDlg@externalsListDialog@@0PAV1@A 00a0932c     externalsListDialog.obj
 0004:004fb338       ?instanceCount@CGetArguments@@0HA 00a09338     GetArguments.obj
 0004:004fb348       ?iEnvType@@3HA             00a09348     PROFILE.obj
 0004:004fb828       ?hMutex@@3PAXA             00a09828     bbcnb32db_static:BBCNB32.obj
 0004:004fb82c       ?hInstDLL@@3PAUHINSTANCE__@@A 00a0982c     bbcnb32db_static:BBCNB32.obj
 0004:004fb830       ?bDebugModeDLL@@3HA        00a09830     bbcnb32db_static:BBCNB32.obj
 0004:004fb838       ?acNetDebug@@3PADA         00a09838     bbcnb32db_static:BBCNB32.obj
 0004:004fb8b8       ?dgMsgQueue@@3V?$queue@VsizedBuffer@@V?$deque@VsizedBuffer@@V?$allocator@VsizedBuffer@@@std@@@std@@@std@@A 00a098b8     bbcnb32db_static:BBCNB32.obj
 0004:004fba4c       ?pHtmlHelpW@@3P6GPAUHWND__@@PAU1@PBGIK@ZA 00a09a4c     htmlhelp:init.obj
 0004:004fba50       ?pHtmlHelpA@@3P6GPAUHWND__@@PAU1@PBDIK@ZA 00a09a50     htmlhelp:init.obj
 0004:004fc0cc       ?wsprintffp@@3P6AHPADPBDZZA 00a0a0cc     MSVCRTD:error.obj
 0004:004fc10c       __commode                  00a0a10c     MSVCRTD:xncommod.obj
 0004:004fc110       __dowildcard               00a0a110     MSVCRTD:wildcard.obj
 0004:004fc114       __newmode                  00a0a114     MSVCRTD:_newmode.obj
 0004:004fc118       __fmode                    00a0a118     MSVCRTD:xtxtmode.obj
 0004:004fc11c       ___native_startup_lock     00a0a11c     <common>
 0004:004fc12c       ___native_startup_state    00a0a12c     <common>
 0004:004fc130       ___dyn_tls_init_callback   00a0a130     <common>
 0004:004fc140       ___onexitend               00a0a140     <common>
 0004:004fc150       ___onexitbegin             00a0a150     <common>
 0005:00000000       __imp__RegCloseKey@4       00a0b000     advapi32:ADVAPI32.dll
 0005:00000004       __imp__RegQueryValueExA@24 00a0b004     advapi32:ADVAPI32.dll
 0005:00000008       __imp__RegOpenKeyExA@20    00a0b008     advapi32:ADVAPI32.dll
 0005:0000000c       \177ADVAPI32_NULL_THUNK_DATA 00a0b00c     advapi32:ADVAPI32.dll
 0005:00000038       __imp__BNCS32RxMessage     00a0b038     bncsif32db:BNCSIF32db.dll
 0005:0000003c       __imp__BNCS32TxMessage     00a0b03c     bncsif32db:BNCSIF32db.dll
 0005:00000040       \177BNCSIF32db_NULL_THUNK_DATA 00a0b040     bncsif32db:BNCSIF32db.dll
 0005:0000006c       __imp__GetStockObject@4    00a0b06c     gdi32:GDI32.dll
 0005:00000070       \177GDI32_NULL_THUNK_DATA  00a0b070     gdi32:GDI32.dll
 0005:0000009c       __imp__HeapFree@12         00a0b09c     kernel32:KERNEL32.dll
 0005:000000a0       __imp__HeapAlloc@12        00a0b0a0     kernel32:KERNEL32.dll
 0005:000000a4       __imp__WideCharToMultiByte@32 00a0b0a4     kernel32:KERNEL32.dll
 0005:000000a8       __imp__MultiByteToWideChar@24 00a0b0a8     kernel32:KERNEL32.dll
 0005:000000ac       __imp__GetModuleFileNameW@12 00a0b0ac     kernel32:KERNEL32.dll
 0005:000000b0       __imp__GetProcessHeap@0    00a0b0b0     kernel32:KERNEL32.dll
 0005:000000b4       __imp__IsProcessorFeaturePresent@4 00a0b0b4     kernel32:KERNEL32.dll
 0005:000000b8       __imp__IsDebuggerPresent@0 00a0b0b8     kernel32:KERNEL32.dll
 0005:000000bc       __imp__DecodePointer@4     00a0b0bc     kernel32:KERNEL32.dll
 0005:000000c0       __imp__EncodePointer@4     00a0b0c0     kernel32:KERNEL32.dll
 0005:000000c4       __imp__GetModuleHandleW@4  00a0b0c4     kernel32:KERNEL32.dll
 0005:000000c8       __imp__QueryPerformanceCounter@4 00a0b0c8     kernel32:KERNEL32.dll
