 csi32

 Timestamp is 5e9db86d (Mon Apr 20 15:57:49 2020)

 Preferred load address is 00400000

 Start         Length     Name                   Class
 0001:00000000 000000f8H .text                   CODE
 0001:00000100 000006aeH .text$di                CODE
 0001:000007b0 000221aaH .text$mn                CODE
 0001:00022960 00001c84H .text$x                 CODE
 0001:000245f0 00000b4aH .text$yd                CODE
 0002:00000000 00000338H .idata$5                DATA
 0002:00000338 00000004H .CRT$XCA                DATA
 0002:0000033c 00000004H .CRT$XCAA               DATA
 0002:00000340 0000004cH .CRT$XCU                DATA
 0002:0000038c 00000004H .CRT$XCZ                DATA
 0002:00000390 00000004H .CRT$XIA                DATA
 0002:00000394 00000004H .CRT$XIAA               DATA
 0002:00000398 00000004H .CRT$XIC                DATA
 0002:0000039c 00000004H .CRT$XIY                DATA
 0002:000003a0 00000004H .CRT$XIZ                DATA
 0002:000003b0 00003dc8H .rdata                  DATA
 0002:00004178 000004dcH .rdata$r                DATA
 0002:00004654 00000004H .rtc$IAA                DATA
 0002:00004658 00000004H .rtc$IZZ                DATA
 0002:0000465c 00000004H .rtc$TAA                DATA
 0002:00004660 00000004H .rtc$TZZ                DATA
 0002:00004668 0000222cH .xdata$x                DATA
 0002:00006894 00000000H .edata                  DATA
 0002:00006894 00000104H .idata$2                DATA
 0002:00006998 00000014H .idata$3                DATA
 0002:000069ac 00000338H .idata$4                DATA
 0002:00006ce4 00000c4eH .idata$6                DATA
 0003:00000000 0000015cH .data                   DATA
 0003:0000015c 0000021cH .data$r                 DATA
 0003:00000378 00426f7cH .bss                    DATA
 0004:00000000 00000428H .rsrc$01                DATA
 0004:00000430 00006330H .rsrc$02                DATA

  Address         Publics by Value              Rva+Base       Lib:Object

 0000:00000000       ___safe_se_handler_table   00000000     <absolute>
 0000:00000000       ___guard_flags             00000000     <absolute>
 0000:00000000       ___guard_fids_table        00000000     <absolute>
 0000:00000000       __except_list              00000000     <absolute>
 0000:00000000       ___safe_se_handler_count   00000000     <absolute>
 0000:00000000       ___guard_fids_count        00000000     <absolute>
 0000:00009876       __ldused                   00009876     <absolute>
 0000:00009876       __fltused                  00009876     <absolute>
 0000:00000000       ___ImageBase               00400000     <linker-defined>
 0001:00000000       _HtmlHelpA@16              00401000 f   htmlhelp:init.obj
 0001:000007b0       ??$_Buynode@U?$pair@HV?$basic_string@DU?$char_traits@D@std@@V?$allocator@D@2@@std@@@std@@@?$_Tree_buy@U?$pair@$$CBHV?$basic_string@DU?$char_traits@D@std@@V?$allocator@D@2@@std@@@std@@V?$allocator@U?$pair@$$CBHV?$basic_string@DU?$char_traits@D@std@@V?$allocator@D@2@@std@@@std@@@2@@std@@QAEPAU?$_Tree_node@U?$pair@$$CBHV?$basic_string@DU?$char_traits@D@std@@V?$allocator@D@2@@std@@@std@@PAX@1@$$QAU?$pair@HV?$basic_string@DU?$char_traits@D@std@@V?$allocator@D@2@@std@@@1@@Z 004017b0 f i database.obj
 0001:00000840       ??$_Insert_at@AAU?$pair@$$CBHV?$basic_string@DU?$char_traits@D@std@@V?$allocator@D@2@@std@@@std@@PAU?$_Tree_node@U?$pair@$$CBHV?$basic_string@DU?$char_traits@D@std@@V?$allocator@D@2@@std@@@std@@PAX@2@@?$_Tree@V?$_Tmap_traits@HV?$basic_string@DU?$char_traits@D@std@@V?$allocator@D@2@@std@@U?$less@H@2@V?$allocator@U?$pair@$$CBHV?$basic_string@DU?$char_traits@D@std@@V?$allocator@D@2@@std@@@std@@@2@$0A@@std@@@std@@IAE?AV?$_Tree_iterator@V?$_Tree_val@U?$_Tree_simple_types@U?$pair@$$CBHV?$basic_string@DU?$char_traits@D@std@@V?$allocator@D@2@@std@@@std@@@std@@@std@@@1@_NPAU?$_Tree_node@U?$pair@$$CBHV?$basic_string@DU?$char_traits@D@std@@V?$allocator@D@2@@std@@@std@@PAX@1@AAU?$pair@$$CBHV?$basic_string@DU?$char_traits@D@std@@V?$allocator@D@2@@std@@@1@1@Z 00401840 f i database.obj
 0001:00000ab0       ??$_Insert_nohint@AAU?$pair@$$CBHV?$basic_string@DU?$char_traits@D@std@@V?$allocator@D@2@@std@@@std@@PAU?$_Tree_node@U?$pair@$$CBHV?$basic_string@DU?$char_traits@D@std@@V?$allocator@D@2@@std@@@std@@PAX@2@@?$_Tree@V?$_Tmap_traits@HV?$basic_string@DU?$char_traits@D@std@@V?$allocator@D@2@@std@@U?$less@H@2@V?$allocator@U?$pair@$$CBHV?$basic_string@DU?$char_traits@D@std@@V?$allocator@D@2@@std@@@std@@@2@$0A@@std@@@std@@IAE?AU?$pair@V?$_Tree_iterator@V?$_Tree_val@U?$_Tree_simple_types@U?$pair@$$CBHV?$basic_string@DU?$char_traits@D@std@@V?$allocator@D@2@@std@@@std@@@std@@@std@@@std@@_N@1@_NAAU?$pair@$$CBHV?$basic_string@DU?$char_traits@D@std@@V?$allocator@D@2@@std@@@1@PAU?$_Tree_node@U?$pair@$$CBHV?$basic_string@DU?$char_traits@D@std@@V?$allocator@D@2@@std@@@std@@PAX@1@@Z 00401ab0 f i database.obj
 0001:00000bc0       ??$construct@U?$pair@$$CBHV?$basic_string@DU?$char_traits@D@std@@V?$allocator@D@2@@std@@@std@@U?$pair@HV?$basic_string@DU?$char_traits@D@std@@V?$allocator@D@2@@std@@@2@@?$_Wrap_alloc@V?$allocator@U?$_Tree_node@U?$pair@$$CBHV?$basic_string@DU?$char_traits@D@std@@V?$allocator@D@2@@std@@@std@@PAX@std@@@std@@@std@@QAEXPAU?$pair@$$CBHV?$basic_string@DU?$char_traits@D@std@@V?$allocator@D@2@@std@@@1@$$QAU?$pair@HV?$basic_string@DU?$char_traits@D@std@@V?$allocator@D@2@@std@@@1@@Z 00401bc0 f i database.obj
 0001:00000c40       ??0?$basic_string@DU?$char_traits@D@std@@V?$allocator@D@2@@std@@QAE@PBD@Z 00401c40 f i database.obj
 0001:00000ca0       ??0database@@QAE@PBDHH@Z   00401ca0 f   database.obj
 0001:00000d60       ??1?$_Tree@V?$_Tmap_traits@HV?$basic_string@DU?$char_traits@D@std@@V?$allocator@D@2@@std@@U?$less@H@2@V?$allocator@U?$pair@$$CBHV?$basic_string@DU?$char_traits@D@std@@V?$allocator@D@2@@std@@@std@@@2@$0A@@std@@@std@@QAE@XZ 00401d60 f i database.obj
 0001:00000dd0       ??1?$basic_string@DU?$char_traits@D@std@@V?$allocator@D@2@@std@@QAE@XZ 00401dd0 f i database.obj
 0001:00000e00       ??1?$map@HV?$basic_string@DU?$char_traits@D@std@@V?$allocator@D@2@@std@@U?$less@H@2@V?$allocator@U?$pair@$$CBHV?$basic_string@DU?$char_traits@D@std@@V?$allocator@D@2@@std@@@std@@@2@@std@@QAE@XZ 00401e00 f i database.obj
 0001:00000e70       ??1?$pair@HV?$basic_string@DU?$char_traits@D@std@@V?$allocator@D@2@@std@@@std@@QAE@XZ 00401e70 f i database.obj
 0001:00000ee0       ??1_Generic_error_category@std@@UAE@XZ 00401ee0 f i database.obj
 0001:00000f30       ??1database@@UAE@XZ        00401f30 f i database.obj
 0001:00000fd0       ??1error_category@std@@UAE@XZ 00401fd0 f i database.obj
 0001:00000fe0       ??_G_Generic_error_category@std@@UAEPAXI@Z 00401fe0 f i database.obj
 0001:00000fe0       ??_E_Generic_error_category@std@@UAEPAXI@Z 00401fe0 f i database.obj
 0001:00001040       ??_G_Iostream_error_category@std@@UAEPAXI@Z 00402040 f i database.obj
 0001:00001040       ??_E_System_error_category@std@@UAEPAXI@Z 00402040 f i database.obj
 0001:00001040       ??_G_System_error_category@std@@UAEPAXI@Z 00402040 f i database.obj
 0001:00001040       ??_E_Iostream_error_category@std@@UAEPAXI@Z 00402040 f i database.obj
 0001:000010a0       ??_Edatabase@@UAEPAXI@Z    004020a0 f i database.obj
 0001:000010a0       ??_Gdatabase@@UAEPAXI@Z    004020a0 f i database.obj
 0001:000010d0       ??_Gerror_category@std@@UAEPAXI@Z 004020d0 f i database.obj
 0001:000010d0       ??_Eerror_category@std@@UAEPAXI@Z 004020d0 f i database.obj
 0001:00001100       ?_Assign_rv@?$basic_string@DU?$char_traits@D@std@@V?$allocator@D@2@@std@@QAEX$$QAV12@@Z 00402100 f i database.obj
 0001:000011a0       ?_Buyheadnode@?$_Tree_alloc@$0A@U?$_Tree_base_types@U?$pair@$$CBGVserialError@@@std@@V?$allocator@U?$pair@$$CBGVserialError@@@std@@@2@@std@@@std@@QAEPAU?$_Tree_node@U?$pair@$$CBGVserialError@@@std@@PAX@2@XZ 004021a0 f i Csimain.obj
 0001:000011a0       ?_Buyheadnode@?$_Tree_alloc@$0A@U?$_Tree_base_types@U?$pair@$$CBHV?$basic_string@DU?$char_traits@D@std@@V?$allocator@D@2@@std@@@std@@V?$allocator@U?$pair@$$CBHV?$basic_string@DU?$char_traits@D@std@@V?$allocator@D@2@@std@@@std@@@2@@std@@@std@@QAEPAU?$_Tree_node@U?$pair@$$CBHV?$basic_string@DU?$char_traits@D@std@@V?$allocator@D@2@@std@@@std@@PAX@2@XZ 004021a0 f i database.obj
 0001:00001260       ?_Buynode0@?$_Tree_buy@U?$pair@$$CBGVserialError@@@std@@V?$allocator@U?$pair@$$CBGVserialError@@@std@@@2@@std@@QAEPAU?$_Tree_node@U?$pair@$$CBGVserialError@@@std@@PAX@2@XZ 00402260 f i Cscmd.obj
 0001:00001260       ?_Buynode0@?$_Tree_buy@U?$pair@$$CBHV?$basic_string@DU?$char_traits@D@std@@V?$allocator@D@2@@std@@@std@@V?$allocator@U?$pair@$$CBHV?$basic_string@DU?$char_traits@D@std@@V?$allocator@D@2@@std@@@std@@@2@@std@@QAEPAU?$_Tree_node@U?$pair@$$CBHV?$basic_string@DU?$char_traits@D@std@@V?$allocator@D@2@@std@@@std@@PAX@2@XZ 00402260 f i database.obj
 0001:00001310       ?_Copy@?$basic_string@DU?$char_traits@D@std@@V?$allocator@D@2@@std@@QAEXII@Z 00402310 f i database.obj
 0001:00001480       ?_Destroy_if_not_nil@?$_Tree@V?$_Tmap_traits@HV?$basic_string@DU?$char_traits@D@std@@V?$allocator@D@2@@std@@U?$less@H@2@V?$allocator@U?$pair@$$CBHV?$basic_string@DU?$char_traits@D@std@@V?$allocator@D@2@@std@@@std@@@2@$0A@@std@@@std@@IAEXPAU?$_Tree_node@U?$pair@$$CBHV?$basic_string@DU?$char_traits@D@std@@V?$allocator@D@2@@std@@@std@@PAX@2@@Z 00402480 f i database.obj
 0001:00001500       ?_Erase@?$_Tree@V?$_Tmap_traits@HV?$basic_string@DU?$char_traits@D@std@@V?$allocator@D@2@@std@@U?$less@H@2@V?$allocator@U?$pair@$$CBHV?$basic_string@DU?$char_traits@D@std@@V?$allocator@D@2@@std@@@std@@@2@$0A@@std@@@std@@IAEXPAU?$_Tree_node@U?$pair@$$CBHV?$basic_string@DU?$char_traits@D@std@@V?$allocator@D@2@@std@@@std@@PAX@2@@Z 00402500 f i database.obj
 0001:000015a0       ?_Grow@?$basic_string@DU?$char_traits@D@std@@V?$allocator@D@2@@std@@QAE_NI_N@Z 004025a0 f i database.obj
 0001:00001650       ?allocate@?$_Wrap_alloc@V?$allocator@D@std@@@std@@QAEPADI@Z 00402650 f i database.obj
 0001:00001680       ?assign@?$basic_string@DU?$char_traits@D@std@@V?$allocator@D@2@@std@@QAEAAV12@ABV12@II@Z 00402680 f i database.obj
 0001:000017a0       ?assign@?$basic_string@DU?$char_traits@D@std@@V?$allocator@D@2@@std@@QAEAAV12@PBDI@Z 004027a0 f i database.obj
 0001:000018a0       ?compare@?$basic_string@DU?$char_traits@D@std@@V?$allocator@D@2@@std@@QBEHIIPBDI@Z 004028a0 f i database.obj
 0001:00001910       ?compare@?$char_traits@D@std@@SAHPBD0I@Z 00402910 f i database.obj
 0001:00001980       ?default_error_condition@_System_error_category@std@@UBE?AVerror_condition@2@H@Z 00402980 f i database.obj
 0001:000019c0       ?default_error_condition@error_category@std@@UBE?AVerror_condition@2@H@Z 004029c0 f i database.obj
 0001:000019e0       ?equivalent@error_category@std@@UBE_NABVerror_code@2@H@Z 004029e0 f i database.obj
 0001:00001a00       ?equivalent@error_category@std@@UBE_NHABVerror_condition@2@@Z 00402a00 f i database.obj
 0001:00001a40       ?erase@?$_Tree@V?$_Tmap_traits@HV?$basic_string@DU?$char_traits@D@std@@V?$allocator@D@2@@std@@U?$less@H@2@V?$allocator@U?$pair@$$CBHV?$basic_string@DU?$char_traits@D@std@@V?$allocator@D@2@@std@@@std@@@2@$0A@@std@@@std@@QAE?AV?$_Tree_iterator@V?$_Tree_val@U?$_Tree_simple_types@U?$pair@$$CBHV?$basic_string@DU?$char_traits@D@std@@V?$allocator@D@2@@std@@@std@@@std@@@std@@@2@V?$_Tree_const_iterator@V?$_Tree_val@U?$_Tree_simple_types@U?$pair@$$CBHV?$basic_string@DU?$char_traits@D@std@@V?$allocator@D@2@@std@@@std@@@std@@@std@@@2@0@Z 00402a40 f i database.obj
 0001:00001b00       ?erase@?$_Tree@V?$_Tmap_traits@HV?$basic_string@DU?$char_traits@D@std@@V?$allocator@D@2@@std@@U?$less@H@2@V?$allocator@U?$pair@$$CBHV?$basic_string@DU?$char_traits@D@std@@V?$allocator@D@2@@std@@@std@@@2@$0A@@std@@@std@@QAE?AV?$_Tree_iterator@V?$_Tree_val@U?$_Tree_simple_types@U?$pair@$$CBHV?$basic_string@DU?$char_traits@D@std@@V?$allocator@D@2@@std@@@std@@@std@@@std@@@2@V?$_Tree_const_iterator@V?$_Tree_val@U?$_Tree_simple_types@U?$pair@$$CBHV?$basic_string@DU?$char_traits@D@std@@V?$allocator@D@2@@std@@@std@@@std@@@std@@@2@@Z 00402b00 f i database.obj
 0001:00001dd0       ?erase@?$basic_string@DU?$char_traits@D@std@@V?$allocator@D@2@@std@@QAEAAV12@II@Z 00402dd0 f i database.obj
 0001:00001e70       ?find@?$_Tree@V?$_Tmap_traits@HV?$basic_string@DU?$char_traits@D@std@@V?$allocator@D@2@@std@@U?$less@H@2@V?$allocator@U?$pair@$$CBHV?$basic_string@DU?$char_traits@D@std@@V?$allocator@D@2@@std@@@std@@@2@$0A@@std@@@std@@QAE?AV?$_Tree_iterator@V?$_Tree_val@U?$_Tree_simple_types@U?$pair@$$CBHV?$basic_string@DU?$char_traits@D@std@@V?$allocator@D@2@@std@@@std@@@std@@@std@@@2@ABH@Z 00402e70 f i database.obj
 0001:00001ec0       ?getIndex@database@@QAEHPBDHH@Z 00402ec0 f   database.obj
 0001:00002070       ?getIndex@database@@QAEHPBD_N1@Z 00403070 f   database.obj
 0001:000021f0       ?getName@database@@QAEPBDH@Z 004031f0 f   database.obj
 0001:00002270       ?getName@database@@QAE_NHPADH@Z 00403270 f   database.obj
 0001:000022f0       ?load@database@@AAEXPBDHH@Z 004032f0 f   database.obj
 0001:00002870       ?message@_Generic_error_category@std@@UBE?AV?$basic_string@DU?$char_traits@D@std@@V?$allocator@D@2@@2@H@Z 00403870 f i database.obj
 0001:00002910       ?message@_Iostream_error_category@std@@UBE?AV?$basic_string@DU?$char_traits@D@std@@V?$allocator@D@2@@2@H@Z 00403910 f i database.obj
 0001:00002990       ?message@_System_error_category@std@@UBE?AV?$basic_string@DU?$char_traits@D@std@@V?$allocator@D@2@@2@H@Z 00403990 f i database.obj
 0001:00002a30       ?name@_Generic_error_category@std@@UBEPBDXZ 00403a30 f i database.obj
 0001:00002a40       ?name@_Iostream_error_category@std@@UBEPBDXZ 00403a40 f i database.obj
 0001:00002a50       ?name@_System_error_category@std@@UBEPBDXZ 00403a50 f i database.obj
 0001:00002a60       ?setName@database@@QAE_NHPBD_NPA_N@Z 00403a60 f   database.obj
 0001:00002d30       ??$_Buynode@U?$pair@KK@std@@@?$_Tree_buy@U?$pair@$$CBKK@std@@V?$allocator@U?$pair@$$CBKK@std@@@2@@std@@QAEPAU?$_Tree_node@U?$pair@$$CBKK@std@@PAX@1@$$QAU?$pair@KK@1@@Z 00403d30 f i supersededMemory.obj
 0001:00002d30       ??$_Buynode@U?$pair@HPAVdatabase@@@std@@@?$_Tree_buy@U?$pair@$$CBHPAVdatabase@@@std@@V?$allocator@U?$pair@$$CBHPAVdatabase@@@std@@@2@@std@@QAEPAU?$_Tree_node@U?$pair@$$CBHPAVdatabase@@@std@@PAX@1@$$QAU?$pair@HPAVdatabase@@@1@@Z 00403d30 f i databaseMgr.obj
 0001:00002dc0       ??$_Insert_at@AAU?$pair@$$CBKK@std@@PAU?$_Tree_node@U?$pair@$$CBKK@std@@PAX@2@@?$_Tree@V?$_Tmap_traits@KKU?$less@K@std@@V?$allocator@U?$pair@$$CBKK@std@@@2@$0A@@std@@@std@@IAE?AV?$_Tree_iterator@V?$_Tree_val@U?$_Tree_simple_types@U?$pair@$$CBKK@std@@@std@@@std@@@1@_NPAU?$_Tree_node@U?$pair@$$CBKK@std@@PAX@1@AAU?$pair@$$CBKK@1@1@Z 00403dc0 f i supersededMemory.obj
 0001:00002dc0       ??$_Insert_at@AAU?$pair@QAUHWND__@@K@std@@PAU?$_Tree_node@U?$pair@QAUHWND__@@K@std@@PAX@2@@?$_Tree@V?$_Tmap_traits@PAUHWND__@@KU?$less@PAUHWND__@@@std@@V?$allocator@U?$pair@QAUHWND__@@K@std@@@3@$0A@@std@@@std@@IAE?AV?$_Tree_iterator@V?$_Tree_val@U?$_Tree_simple_types@U?$pair@QAUHWND__@@K@std@@@std@@@std@@@1@_NPAU?$_Tree_node@U?$pair@QAUHWND__@@K@std@@PAX@1@AAU?$pair@QAUHWND__@@K@1@1@Z 00403dc0 f i externalsListDialog.obj
 0001:00002dc0       ??$_Insert_at@AAU?$pair@$$CBHPAVdatabase@@@std@@PAU?$_Tree_node@U?$pair@$$CBHPAVdatabase@@@std@@PAX@2@@?$_Tree@V?$_Tmap_traits@HPAVdatabase@@U?$less@H@std@@V?$allocator@U?$pair@$$CBHPAVdatabase@@@std@@@3@$0A@@std@@@std@@IAE?AV?$_Tree_iterator@V?$_Tree_val@U?$_Tree_simple_types@U?$pair@$$CBHPAVdatabase@@@std@@@std@@@std@@@1@_NPAU?$_Tree_node@U?$pair@$$CBHPAVdatabase@@@std@@PAX@1@AAU?$pair@$$CBHPAVdatabase@@@1@1@Z 00403dc0 f i databaseMgr.obj
 0001:00002fd0       ??$_Insert_nohint@AAU?$pair@$$CBHPAVdatabase@@@std@@PAU?$_Tree_node@U?$pair@$$CBHPAVdatabase@@@std@@PAX@2@@?$_Tree@V?$_Tmap_traits@HPAVdatabase@@U?$less@H@std@@V?$allocator@U?$pair@$$CBHPAVdatabase@@@std@@@3@$0A@@std@@@std@@IAE?AU?$pair@V?$_Tree_iterator@V?$_Tree_val@U?$_Tree_simple_types@U?$pair@$$CBHPAVdatabase@@@std@@@std@@@std@@@std@@_N@1@_NAAU?$pair@$$CBHPAVdatabase@@@1@PAU?$_Tree_node@U?$pair@$$CBHPAVdatabase@@@std@@PAX@1@@Z 00403fd0 f i databaseMgr.obj
 0001:000030e0       ??$construct@U?$pair@$$CBKK@std@@U?$pair@KK@2@@?$_Wrap_alloc@V?$allocator@U?$_Tree_node@U?$pair@$$CBKK@std@@PAX@std@@@std@@@std@@QAEXPAU?$pair@$$CBKK@1@$$QAU?$pair@KK@1@@Z 004040e0 f i supersededMemory.obj
 0001:000030e0       ??$construct@U?$pair@$$CBHPAVdatabase@@@std@@U?$pair@HPAVdatabase@@@2@@?$_Wrap_alloc@V?$allocator@U?$_Tree_node@U?$pair@$$CBHPAVdatabase@@@std@@PAX@std@@@std@@@std@@QAEXPAU?$pair@$$CBHPAVdatabase@@@1@$$QAU?$pair@HPAVdatabase@@@1@@Z 004040e0 f i databaseMgr.obj
 0001:00003140       ??0databaseMgr@@QAE@PBD@Z  00404140 f   databaseMgr.obj
 0001:000031c0       ??1?$_Tree@V?$_Tset_traits@HU?$less@H@std@@V?$allocator@H@2@$0A@@std@@@std@@QAE@XZ 004041c0 f i closedDriversList.obj
 0001:000031c0       ??1?$_Tree@V?$_Tmap_traits@HVdeviceStatusOnHost@@U?$less@H@std@@V?$allocator@U?$pair@$$CBHVdeviceStatusOnHost@@@std@@@3@$0A@@std@@@std@@QAE@XZ 004041c0 f i deviceStatus.obj
 0001:000031c0       ??1?$_Tree@V?$_Tmap_traits@HPAVdatabase@@U?$less@H@std@@V?$allocator@U?$pair@$$CBHPAVdatabase@@@std@@@3@$0A@@std@@@std@@QAE@XZ 004041c0 f i databaseMgr.obj
 0001:000031c0       ??1?$_Tree@V?$_Tmap_traits@KKU?$less@K@std@@V?$allocator@U?$pair@$$CBKK@std@@@2@$0A@@std@@@std@@QAE@XZ 004041c0 f i supersededMemory.obj
 0001:000031c0       ??1?$_Tree@V?$_Tmap_traits@PAUHWND__@@KU?$less@PAUHWND__@@@std@@V?$allocator@U?$pair@QAUHWND__@@K@std@@@3@$0A@@std@@@std@@QAE@XZ 004041c0 f i externalsListDialog.obj
 0001:00003230       ??1?$_Tree_buy@U?$pair@QAUHWND__@@K@std@@V?$allocator@U?$pair@QAUHWND__@@K@std@@@2@@std@@QAE@XZ 00404230 f i externalsListDialog.obj
 0001:00003230       ??1?$_Tree_buy@U?$pair@$$CBKK@std@@V?$allocator@U?$pair@$$CBKK@std@@@2@@std@@QAE@XZ 00404230 f i supersededMemory.obj
 0001:00003230       ??1?$_List_buy@VdeviceStatusOnHost@@V?$allocator@VdeviceStatusOnHost@@@std@@@std@@QAE@XZ 00404230 f i Cscmd.obj
 0001:00003230       ??1?$_Tree_buy@U?$pair@$$CBHV?$basic_string@DU?$char_traits@D@std@@V?$allocator@D@2@@std@@@std@@V?$allocator@U?$pair@$$CBHV?$basic_string@DU?$char_traits@D@std@@V?$allocator@D@2@@std@@@std@@@2@@std@@QAE@XZ 00404230 f i database.obj
 0001:00003230       ??1?$_Tree_buy@HV?$allocator@H@std@@@std@@QAE@XZ 00404230 f i closedDriversList.obj
 0001:00003230       ??1?$_List_buy@VserialError@@V?$allocator@VserialError@@@std@@@std@@QAE@XZ 00404230 f i Csimain.obj
 0001:00003230       ??1?$_Tree_buy@U?$pair@$$CBKVsizedBuffer@@@std@@V?$allocator@U?$pair@$$CBKVsizedBuffer@@@std@@@2@@std@@QAE@XZ 00404230 f i Csimain.obj
 0001:00003230       ??1?$_List_buy@PAUHWND__@@V?$allocator@PAUHWND__@@@std@@@std@@QAE@XZ 00404230 f i Csimain.obj
 0001:00003230       ??1?$_Tree_buy@U?$pair@$$CBHPAVdatabase@@@std@@V?$allocator@U?$pair@$$CBHPAVdatabase@@@std@@@2@@std@@QAE@XZ 00404230 f i databaseMgr.obj
 0001:00003230       ??1?$_Tree_buy@U?$pair@$$CBHVdeviceStatusOnHost@@@std@@V?$allocator@U?$pair@$$CBHVdeviceStatusOnHost@@@std@@@2@@std@@QAE@XZ 00404230 f i deviceStatus.obj
 0001:00003230       ??1?$_Tree_buy@U?$pair@$$CBGVserialError@@@std@@V?$allocator@U?$pair@$$CBGVserialError@@@std@@@2@@std@@QAE@XZ 00404230 f i Csimain.obj
 0001:00003280       ??1?$map@PAUHWND__@@KU?$less@PAUHWND__@@@std@@V?$allocator@U?$pair@QAUHWND__@@K@std@@@3@@std@@QAE@XZ 00404280 f i externalsListDialog.obj
 0001:00003280       ??1?$map@HVdeviceStatusOnHost@@U?$less@H@std@@V?$allocator@U?$pair@$$CBHVdeviceStatusOnHost@@@std@@@3@@std@@QAE@XZ 00404280 f i deviceStatus.obj
 0001:00003280       ??1?$map@HPAVdatabase@@U?$less@H@std@@V?$allocator@U?$pair@$$CBHPAVdatabase@@@std@@@3@@std@@QAE@XZ 00404280 f i databaseMgr.obj
 0001:00003280       ??1?$map@KKU?$less@K@std@@V?$allocator@U?$pair@$$CBKK@std@@@2@@std@@QAE@XZ 00404280 f i supersededMemory.obj
 0001:000032f0       ??1databaseMgr@@UAE@XZ     004042f0 f   databaseMgr.obj
 0001:00003380       ??_GdatabaseMgr@@UAEPAXI@Z 00404380 f i databaseMgr.obj
 0001:00003380       ??_EdatabaseMgr@@UAEPAXI@Z 00404380 f i databaseMgr.obj
 0001:000033b0       ?_Buyheadnode@?$_Tree_alloc@$0A@U?$_Tree_base_types@U?$pair@QAUHWND__@@K@std@@V?$allocator@U?$pair@QAUHWND__@@K@std@@@2@@std@@@std@@QAEPAU?$_Tree_node@U?$pair@QAUHWND__@@K@std@@PAX@2@XZ 004043b0 f i externalsListDialog.obj
 0001:000033b0       ?_Buyheadnode@?$_Tree_alloc@$0A@U?$_Tree_base_types@U?$pair@$$CBKK@std@@V?$allocator@U?$pair@$$CBKK@std@@@2@@std@@@std@@QAEPAU?$_Tree_node@U?$pair@$$CBKK@std@@PAX@2@XZ 004043b0 f i supersededMemory.obj
 0001:000033b0       ?_Buyheadnode@?$_Tree_alloc@$0A@U?$_Tree_base_types@U?$pair@$$CBHPAVdatabase@@@std@@V?$allocator@U?$pair@$$CBHPAVdatabase@@@std@@@2@@std@@@std@@QAEPAU?$_Tree_node@U?$pair@$$CBHPAVdatabase@@@std@@PAX@2@XZ 004043b0 f i databaseMgr.obj
 0001:00003470       ?clear@databaseMgr@@QAEXH@Z 00404470 f   databaseMgr.obj
 0001:000035b0       ?doCreate@databaseMgr@@AAEPAVdatabase@@HH@Z 004045b0 f   databaseMgr.obj
 0001:00003640       ?getDatabaseObject@databaseMgr@@AAEPAVdatabase@@HH_N@Z 00404640 f i databaseMgr.obj
 0001:000036f0       ?getIndex@databaseMgr@@QAEHHHPBDHH@Z 004046f0 f   databaseMgr.obj
 0001:00003720       ?getIndex@databaseMgr@@QAEHHHPBD_N1@Z 00404720 f   databaseMgr.obj
 0001:00003750       ?getName@databaseMgr@@QAEPBDHHH@Z 00404750 f   databaseMgr.obj
 0001:00003790       ?getName@databaseMgr@@QAE_NHHHPADH@Z 00404790 f   databaseMgr.obj
 0001:000037f0       ?setName@databaseMgr@@QAE_NHHHPBD_NPA_N@Z 004047f0 f   databaseMgr.obj
 0001:00003830       ?setPath@databaseMgr@@QAEXPBD@Z 00404830 f   databaseMgr.obj
 0001:000038a0       ??0Cbncs_strtok@@QAE@XZ    004048a0 f   b_strtok.obj
 0001:000038b0       ?Initialise@Cbncs_strtok@@QAEXXZ 004048b0 f   b_strtok.obj
 0001:000038d0       ?Read@Cbncs_strtok@@QAEXPADH@Z 004048d0 f   b_strtok.obj
 0001:00003900       ?Tokenise@Cbncs_strtok@@QAEXPADDH@Z 00404900 f   b_strtok.obj
 0001:00003980       ??0bncs_disklog@@QAE@PBDW4filetype@0@000000@Z 00404980 f   bncs_disklog.obj
 0001:000039c0       ??0bncs_disklog@@QAE@PBDW4filetype@0@@Z 004049c0 f   bncs_disklog.obj
 0001:000039f0       ??1bncs_disklog@@UAE@XZ    004049f0 f   bncs_disklog.obj
 0001:00003a00       ??_Gbncs_disklog@@UAEPAXI@Z 00404a00 f i bncs_disklog.obj
 0001:00003a00       ??_Ebncs_disklog@@UAEPAXI@Z 00404a00 f i bncs_disklog.obj
 0001:00003a30       ?cleanup@bncs_disklog@@AAEXXZ 00404a30 f   bncs_disklog.obj
 0001:00003a50       ?createDirectory@bncs_disklog@@AAEXPBD@Z 00404a50 f   bncs_disklog.obj
 0001:00003b50       ?initVars@bncs_disklog@@AAEXXZ 00404b50 f   bncs_disklog.obj
 0001:00003b70       ?openLogFile@bncs_disklog@@AAEXPBDW4filetype@1@@Z 00404b70 f   bncs_disklog.obj
 0001:00003da0       ?write@bncs_disklog@@QAEXPBD00000@Z 00404da0 f   bncs_disklog.obj
 0001:00003fe0       _GetBNCSConfigDirectory    00404fe0 f   bncs_gcd.obj
 0001:000040f0       _GetBNCSDLLDirectory       004050f0 f   bncs_gcd.obj
 0001:00004200       _resolveEnvVar             00405200 f   bncs_gcd.obj
 0001:000043d0       ??$?HDU?$char_traits@D@std@@V?$allocator@D@1@@std@@YA?AV?$basic_string@DU?$char_traits@D@std@@V?$allocator@D@2@@0@$$QAV10@ABV10@@Z 004053d0 f i ccCheck.obj
 0001:00004450       ??$?HDU?$char_traits@D@std@@V?$allocator@D@1@@std@@YA?AV?$basic_string@DU?$char_traits@D@std@@V?$allocator@D@2@@0@$$QAV10@PBD@Z 00405450 f i ccCheck.obj
 0001:000044e0       ??$?HDU?$char_traits@D@std@@V?$allocator@D@1@@std@@YA?AV?$basic_string@DU?$char_traits@D@std@@V?$allocator@D@2@@0@ABV10@PBD@Z 004054e0 f i ccCheck.obj
 0001:000045d0       ??0ccCheck@@QAE@ABV?$basic_string@DU?$char_traits@D@std@@V?$allocator@D@2@@std@@@Z 004055d0 f   ccCheck.obj
 0001:00004670       ??1ccCheck@@UAE@XZ         00405670 f   ccCheck.obj
 0001:000046e0       ??_EccCheck@@UAEPAXI@Z     004056e0 f i ccCheck.obj
 0001:000046e0       ??_GccCheck@@UAEPAXI@Z     004056e0 f i ccCheck.obj
 0001:00004710       ?append@?$basic_string@DU?$char_traits@D@std@@V?$allocator@D@2@@std@@QAEAAV12@ABV12@II@Z 00405710 f i ccCheck.obj
 0001:000047d0       ?append@?$basic_string@DU?$char_traits@D@std@@V?$allocator@D@2@@std@@QAEAAV12@PBDI@Z 004057d0 f i ccCheck.obj
 0001:000048c0       ?checkDevice@ccCheck@@QAE_NI@Z 004058c0 f   ccCheck.obj
 0001:000049a0       ?checkWorkstation@ccCheck@@QAE_NI@Z 004059a0 f   ccCheck.obj
 0001:00004ad0       ?log@ccCheck@@QAEXABV?$basic_string@DU?$char_traits@D@std@@V?$allocator@D@2@@std@@@Z 00405ad0 f   ccCheck.obj
 0001:00004be0       ??$_Buynode@ABH@?$_Tree_buy@HV?$allocator@H@std@@@std@@QAEPAU?$_Tree_node@HPAX@1@ABH@Z 00405be0 f i closedDriversList.obj
 0001:00004c70       ??$_Insert_at@ABHU_Nil@std@@@?$_Tree@V?$_Tset_traits@HU?$less@H@std@@V?$allocator@H@2@$0A@@std@@@std@@IAE?AV?$_Tree_const_iterator@V?$_Tree_val@U?$_Tree_simple_types@H@std@@@std@@@1@_NPAU?$_Tree_node@HPAX@1@ABHU_Nil@1@@Z 00405c70 f i closedDriversList.obj
 0001:00004e70       ??$_Insert_nohint@ABHU_Nil@std@@@?$_Tree@V?$_Tset_traits@HU?$less@H@std@@V?$allocator@H@2@$0A@@std@@@std@@IAE?AU?$pair@V?$_Tree_const_iterator@V?$_Tree_val@U?$_Tree_simple_types@H@std@@@std@@@std@@_N@1@_NABHU_Nil@1@@Z 00405e70 f i closedDriversList.obj
 0001:00004f70       ?_Buyheadnode@?$_Tree_alloc@$0A@U?$_Tree_base_types@HV?$allocator@H@std@@@std@@@std@@QAEPAU?$_Tree_node@HPAX@2@XZ 00405f70 f i closedDriversList.obj
 0001:00005030       ?_Buynode0@?$_Tree_buy@HV?$allocator@H@std@@@std@@QAEPAU?$_Tree_node@HPAX@2@XZ 00406030 f i closedDriversList.obj
 0001:000050e0       ?add@closedDriversList@@SAXH@Z 004060e0 f   closedDriversList.obj
 0001:00005140       ?clear@closedDriversList@@SAXXZ 00406140 f   closedDriversList.obj
 0001:00005150       ?count@closedDriversList@@SAHXZ 00406150 f   closedDriversList.obj
 0001:00005160       ?item@closedDriversList@@SAHH@Z 00406160 f   closedDriversList.obj
 0001:000051e0       ?remove@closedDriversList@@SAXH@Z 004061e0 f   closedDriversList.obj
 0001:00005240       ?CSAbout_About@@YAXXZ      00406240 f   Csabout.obj
 0001:00005260       ?CSAbout_DialogProc@@YGHPAUHWND__@@GGJ@Z 00406260 f   Csabout.obj
 0001:00005320       ?CSCache_Alloc@@YAHHH@Z    00406320 f   Cscache.obj
 0001:000053b0       ?CSCache_CalcPercent@@YAXXZ 004063b0 f   Cscache.obj
 0001:00005430       ?CSCache_Check@@YAHPAD@Z   00406430 f   Cscache.obj
 0001:00005620       ?CSCache_Clear@@YAXH@Z     00406620 f   Cscache.obj
 0001:00005750       ?CSCache_Closedown@@YAXXZ  00406750 f   Cscache.obj
 0001:000057b0       ?CSCache_CreateFile@@YAHHPAD@Z 004067b0 f   Cscache.obj
 0001:00005850       ?CSCache_DeleteOldFiles@@YAXXZ 00406850 f   Cscache.obj
 0001:00005950       ?CSCache_GetData@@YAJPAD@Z 00406950 f   Cscache.obj
 0001:00005b50       ?CSCache_GetFileHandle@@YAHH@Z 00406b50 f   Cscache.obj
 0001:00005d40       ?CSCache_Index@@YAHPAD@Z   00406d40 f   Cscache.obj
 0001:00005e80       ?CSCache_InfoRead@@YAXHHPAD@Z 00406e80 f   Cscache.obj
 0001:00005f50       ?CSCache_InfoWrite@@YAXHHPBDH@Z 00406f50 f   Cscache.obj
 0001:00005fd0       ?CSCache_Init@@YAXXZ       00406fd0 f   Cscache.obj
 0001:00006060       ?CSCache_PostedGPIPoll@@YAXPAD@Z 00407060 f   Cscache.obj
 0001:00006160       ?CSCache_PostedINFPoll@@YAXPAD@Z 00407160 f   Cscache.obj
 0001:00006240       ?CSCache_PostedPoll@@YAXXZ 00407240 f   Cscache.obj
 0001:000065c0       ?CSCache_PostedRTRPoll@@YAXPAD@Z 004075c0 f   Cscache.obj
 0001:00006700       ?CSCache_Profile@@YAHXZ    00407700 f   Cscache.obj
 0001:00006780       ?CSCache_Test@@YAHHHH@Z    00407780 f   Cscache.obj
 0001:000068a0       ?CSCache_TimeoutCheck@@YAXXZ 004078a0 f   Cscache.obj
 0001:00006910       ?CSCache_WriteNumeric@@YAXHHH@Z 00407910 f   Cscache.obj
 0001:00006980       ?CSCache_WriteString@@YAXHHPBDH@Z 00407980 f   Cscache.obj
 0001:00006a00       ?_Growmap@?$deque@VsizedBuffer@@V?$allocator@VsizedBuffer@@@std@@@std@@IAEXI@Z 00407a00 f i Cscache.obj
 0001:00006b80       ?begin@?$deque@VsizedBuffer@@V?$allocator@VsizedBuffer@@@std@@@std@@QAE?AV?$_Deque_iterator@V?$_Deque_val@U?$_Deque_simple_types@VsizedBuffer@@@std@@@std@@@2@XZ 00407b80 f i Cscache.obj
 0001:00006ba0       ?push_back@?$deque@VsizedBuffer@@V?$allocator@VsizedBuffer@@@std@@@std@@QAEX$$QAVsizedBuffer@@@Z 00407ba0 f i Cscache.obj
 0001:00006c50       ??$?0AAHVserialError@@X@?$pair@HVserialError@@@std@@QAE@AAH$$QAVserialError@@@Z 00407c50 f i Cscmd.obj
 0001:00006d00       ??$?0HVserialError@@X@?$pair@$$CBGVserialError@@@std@@QAE@$$QAU?$pair@HVserialError@@@1@@Z 00407d00 f i Cscmd.obj
 0001:00006db0       ??$_Buynode@U?$pair@HVserialError@@@std@@@?$_Tree_buy@U?$pair@$$CBGVserialError@@@std@@V?$allocator@U?$pair@$$CBGVserialError@@@std@@@2@@std@@QAEPAU?$_Tree_node@U?$pair@$$CBGVserialError@@@std@@PAX@1@$$QAU?$pair@HVserialError@@@1@@Z 00407db0 f i Cscmd.obj
 0001:00006e40       ??$_Insert_at@AAU?$pair@$$CBGVserialError@@@std@@PAU?$_Tree_node@U?$pair@$$CBGVserialError@@@std@@PAX@2@@?$_Tree@V?$_Tmap_traits@GVserialError@@U?$less@G@std@@V?$allocator@U?$pair@$$CBGVserialError@@@std@@@3@$00@std@@@std@@IAE?AV?$_Tree_iterator@V?$_Tree_val@U?$_Tree_simple_types@U?$pair@$$CBGVserialError@@@std@@@std@@@std@@@1@_NPAU?$_Tree_node@U?$pair@$$CBGVserialError@@@std@@PAX@1@AAU?$pair@$$CBGVserialError@@@1@1@Z 00407e40 f i Cscmd.obj
 0001:000070a0       ??$_Insert_nohint@AAU?$pair@$$CBGVserialError@@@std@@PAU?$_Tree_node@U?$pair@$$CBGVserialError@@@std@@PAX@2@@?$_Tree@V?$_Tmap_traits@GVserialError@@U?$less@G@std@@V?$allocator@U?$pair@$$CBGVserialError@@@std@@@3@$00@std@@@std@@IAE?AU?$pair@V?$_Tree_iterator@V?$_Tree_val@U?$_Tree_simple_types@U?$pair@$$CBGVserialError@@@std@@@std@@@std@@@std@@_N@1@_NAAU?$pair@$$CBGVserialError@@@1@PAU?$_Tree_node@U?$pair@$$CBGVserialError@@@std@@PAX@1@@Z 004080a0 f i Cscmd.obj
 0001:00007160       ??$construct@PAU?$_Tree_node@U?$pair@$$CBHPAVdatabase@@@std@@PAX@std@@AAPAU12@@?$_Wrap_alloc@V?$allocator@U?$_Tree_node@U?$pair@$$CBHPAVdatabase@@@std@@PAX@std@@@std@@@std@@QAEXPAPAU?$_Tree_node@U?$pair@$$CBHPAVdatabase@@@std@@PAX@1@AAPAU21@@Z 00408160 f i databaseMgr.obj
 0001:00007160       ??$construct@PAU?$_List_node@PAUHWND__@@PAX@std@@AAPAU12@@?$_Wrap_alloc@V?$allocator@U?$_List_node@PAUHWND__@@PAX@std@@@std@@@std@@QAEXPAPAU?$_List_node@PAUHWND__@@PAX@1@AAPAU21@@Z 00408160 f i Csimain.obj
 0001:00007160       ??$construct@PAU?$_Tree_node@U?$pair@QAUHWND__@@K@std@@PAX@std@@AAPAU12@@?$_Wrap_alloc@V?$allocator@U?$_Tree_node@U?$pair@QAUHWND__@@K@std@@PAX@std@@@std@@@std@@QAEXPAPAU?$_Tree_node@U?$pair@QAUHWND__@@K@std@@PAX@1@AAPAU21@@Z 00408160 f i externalsListDialog.obj
 0001:00007160       ??$construct@PAU?$_Tree_node@U?$pair@$$CBKK@std@@PAX@std@@AAPAU12@@?$_Wrap_alloc@V?$allocator@U?$_Tree_node@U?$pair@$$CBKK@std@@PAX@std@@@std@@@std@@QAEXPAPAU?$_Tree_node@U?$pair@$$CBKK@std@@PAX@1@AAPAU21@@Z 00408160 f i supersededMemory.obj
 0001:00007160       ??$construct@PAU?$_Tree_node@U?$pair@$$CBKVsizedBuffer@@@std@@PAX@std@@AAPAU12@@?$_Wrap_alloc@V?$allocator@U?$_Tree_node@U?$pair@$$CBKVsizedBuffer@@@std@@PAX@std@@@std@@@std@@QAEXPAPAU?$_Tree_node@U?$pair@$$CBKVsizedBuffer@@@std@@PAX@1@AAPAU21@@Z 00408160 f i Csimain.obj
 0001:00007160       ??$construct@PAUHWND__@@PAU1@@?$_Wrap_alloc@V?$allocator@U?$_List_node@PAUHWND__@@PAX@std@@@std@@@std@@QAEXPAPAUHWND__@@$$QAPAU2@@Z 00408160 f i Csimain.obj
 0001:00007160       ??$construct@PAU?$_List_node@VserialError@@PAX@std@@AAPAU12@@?$_Wrap_alloc@V?$allocator@U?$_List_node@VserialError@@PAX@std@@@std@@@std@@QAEXPAPAU?$_List_node@VserialError@@PAX@1@AAPAU21@@Z 00408160 f i Csimain.obj
 0001:00007160       ??$construct@PAU?$_Tree_node@HPAX@std@@AAPAU12@@?$_Wrap_alloc@V?$allocator@U?$_Tree_node@HPAX@std@@@std@@@std@@QAEXPAPAU?$_Tree_node@HPAX@1@AAPAU21@@Z 00408160 f i closedDriversList.obj
 0001:00007160       ??$construct@PAU?$_List_node@VdeviceStatusOnHost@@PAX@std@@AAPAU12@@?$_Wrap_alloc@V?$allocator@U?$_List_node@VdeviceStatusOnHost@@PAX@std@@@std@@@std@@QAEXPAPAU?$_List_node@VdeviceStatusOnHost@@PAX@1@AAPAU21@@Z 00408160 f i Cscmd.obj
 0001:00007160       ??$construct@HABH@?$_Wrap_alloc@V?$allocator@U?$_Tree_node@HPAX@std@@@std@@@std@@QAEXPAHABH@Z 00408160 f i closedDriversList.obj
 0001:00007160       ??$construct@PAUHWND__@@ABQAU1@@?$_Wrap_alloc@V?$allocator@U?$_List_node@PAUHWND__@@PAX@std@@@std@@@std@@QAEXPAPAUHWND__@@ABQAU2@@Z 00408160 f i Csreg.obj
 0001:00007160       ??$construct@PAU?$_Tree_node@U?$pair@$$CBGVserialError@@@std@@PAX@std@@AAPAU12@@?$_Wrap_alloc@V?$allocator@U?$_Tree_node@U?$pair@$$CBGVserialError@@@std@@PAX@std@@@std@@@std@@QAEXPAPAU?$_Tree_node@U?$pair@$$CBGVserialError@@@std@@PAX@1@AAPAU21@@Z 00408160 f i Cscmd.obj
 0001:00007160       ??$construct@PAU?$_Tree_node@U?$pair@$$CBHVdeviceStatusOnHost@@@std@@PAX@std@@AAPAU12@@?$_Wrap_alloc@V?$allocator@U?$_Tree_node@U?$pair@$$CBHVdeviceStatusOnHost@@@std@@PAX@std@@@std@@@std@@QAEXPAPAU?$_Tree_node@U?$pair@$$CBHVdeviceStatusOnHost@@@std@@PAX@1@AAPAU21@@Z 00408160 f i deviceStatus.obj
 0001:00007160       ??$construct@PAU?$_Tree_node@U?$pair@$$CBHV?$basic_string@DU?$char_traits@D@std@@V?$allocator@D@2@@std@@@std@@PAX@std@@AAPAU12@@?$_Wrap_alloc@V?$allocator@U?$_Tree_node@U?$pair@$$CBHV?$basic_string@DU?$char_traits@D@std@@V?$allocator@D@2@@std@@@std@@PAX@std@@@std@@@std@@QAEXPAPAU?$_Tree_node@U?$pair@$$CBHV?$basic_string@DU?$char_traits@D@std@@V?$allocator@D@2@@std@@@std@@PAX@1@AAPAU21@@Z 00408160 f i database.obj
 0001:000071c0       ??$construct@U?$pair@$$CBGVserialError@@@std@@U?$pair@HVserialError@@@2@@?$_Wrap_alloc@V?$allocator@U?$_Tree_node@U?$pair@$$CBGVserialError@@@std@@PAX@std@@@std@@@std@@QAEXPAU?$pair@$$CBGVserialError@@@1@$$QAU?$pair@HVserialError@@@1@@Z 004081c0 f i Cscmd.obj
 0001:00007220       ??$destroy@PAU?$_List_node@PAUHWND__@@PAX@std@@@?$_Wrap_alloc@V?$allocator@U?$_List_node@PAUHWND__@@PAX@std@@@std@@@std@@QAEXPAPAU?$_List_node@PAUHWND__@@PAX@1@@Z 00408220 f i Cscmd.obj
 0001:00007220       ??$destroy@U_Container_proxy@std@@@?$_Wrap_alloc@V?$allocator@U_Container_proxy@std@@@std@@@std@@QAEXPAU_Container_proxy@1@@Z 00408220 f i Csimain.obj
 0001:00007220       ??$destroy@PAU?$_Tree_node@U?$pair@$$CBKVsizedBuffer@@@std@@PAX@std@@@?$_Wrap_alloc@V?$allocator@U?$_Tree_node@U?$pair@$$CBKVsizedBuffer@@@std@@PAX@std@@@std@@@std@@QAEXPAPAU?$_Tree_node@U?$pair@$$CBKVsizedBuffer@@@std@@PAX@1@@Z 00408220 f i Csimain.obj
 0001:00007220       ??$destroy@PAUHWND__@@@?$_Wrap_alloc@V?$allocator@U?$_List_node@PAUHWND__@@PAX@std@@@std@@@std@@QAEXPAPAUHWND__@@@Z 00408220 f i Cscmd.obj
 0001:00007220       ??$destroy@PAU?$_List_node@VserialError@@PAX@std@@@?$_Wrap_alloc@V?$allocator@U?$_List_node@VserialError@@PAX@std@@@std@@@std@@QAEXPAPAU?$_List_node@VserialError@@PAX@1@@Z 00408220 f i Csimain.obj
 0001:00007220       ??$destroy@PAU?$_Tree_node@HPAX@std@@@?$_Wrap_alloc@V?$allocator@U?$_Tree_node@HPAX@std@@@std@@@std@@QAEXPAPAU?$_Tree_node@HPAX@1@@Z 00408220 f i closedDriversList.obj
 0001:00007220       ??$destroy@PAU?$_Tree_node@U?$pair@$$CBGVserialError@@@std@@PAX@std@@@?$_Wrap_alloc@V?$allocator@U?$_Tree_node@U?$pair@$$CBGVserialError@@@std@@PAX@std@@@std@@@std@@QAEXPAPAU?$_Tree_node@U?$pair@$$CBGVserialError@@@std@@PAX@1@@Z 00408220 f i Cscmd.obj
 0001:00007230       ??$make_pair@AAHVserialError@@@std@@YA?AU?$pair@HVserialError@@@0@AAH$$QAVserialError@@@Z 00408230 f i Cscmd.obj
 0001:00007290       ??0serialError@@QAE@ABV0@@Z 00408290 f i Cscmd.obj
 0001:00007300       ??0serialError@@QAE@HKK@Z  00408300 f i Cscmd.obj
 0001:00007360       ??1?$list@VdeviceStatusOnHost@@V?$allocator@VdeviceStatusOnHost@@@std@@@std@@QAE@XZ 00408360 f i Cscmd.obj
 0001:000073e0       ??1?$pair@HVserialError@@@std@@QAE@XZ 004083e0 f i Cscmd.obj
 0001:00007440       ??1serialError@@QAE@XZ     00408440 f i Cscmd.obj
 0001:00007460       ?CSCmd_BkgRevertive@@YAXPAD@Z 00408460 f   Cscmd.obj
 0001:000074a0       ?CSCmd_BuildDeviceStatusSlot@@YAXHPAVdeviceStatus@@PAD@Z 004084a0 f   Cscmd.obj
 0001:00007690       ?CSCmd_BuildWorkstationStatusSlot@@YAXHPAVworkstationStatus@@PAD@Z 00408690 f   Cscmd.obj
 0001:00007840       ?CSCmd_CheckSerialNumber@@YAXHK_N@Z 00408840 f   Cscmd.obj
 0001:00007a80       ?CSCmd_ConfigChange@@YAXPBD@Z 00408a80 f   Cscmd.obj
 0001:00007b90       ?CSCmd_DeviceProfile@@YAXPAD@Z 00408b90 f   Cscmd.obj
 0001:00007bd0       ?CSCmd_DistributePacketErrorNotification@@YAXH@Z 00408bd0 f   Cscmd.obj
 0001:00007c80       ?CSCmd_DistributeTxRxStatus@@YAXIJ@Z 00408c80 f   Cscmd.obj
 0001:00007d00       ?CSCmd_DoClearCache@@YAXHPBD@Z 00408d00 f   Cscmd.obj
 0001:00007e70       ?CSCmd_ExtractUniSerial@@YAKPBEH@Z 00408e70 f   Cscmd.obj
 0001:00007ec0       ?CSCmd_GPIRevertive@@YAXPAD@Z 00408ec0 f   Cscmd.obj
 0001:00007fa0       ?CSCmd_Heartbeat@@YAXPBDH_N@Z 00408fa0 f   Cscmd.obj
 0001:00008320       ?CSCmd_InfoRevertive@@YAXPAD@Z 00409320 f   Cscmd.obj
 0001:000084a0       ?CSCmd_NetAttention@@YAXPAD@Z 004094a0 f   Cscmd.obj
 0001:000084b0       ?CSCmd_NetBroken@@YAXPAD@Z 004094b0 f   Cscmd.obj
 0001:000084f0       ?CSCmd_NetClose@@YAXPAD@Z  004094f0 f   Cscmd.obj
 0001:00008720       ?CSCmd_NetDisable@@YAXPAD@Z 00409720 f   Cscmd.obj
 0001:000087d0       ?CSCmd_NetEnable@@YAXPAD@Z 004097d0 f   Cscmd.obj
 0001:00008870       ?CSCmd_NetInquire@@YAXPAD@Z 00409870 f   Cscmd.obj
 0001:00008ac0       ?CSCmd_NetLoopTest@@YAXPAD@Z 00409ac0 f   Cscmd.obj
 0001:00008af0       ?CSCmd_NetModify@@YAXPAD@Z 00409af0 f   Cscmd.obj
 0001:00008c60       ?CSCmd_NetObject@@YAXPAD@Z 00409c60 f   Cscmd.obj
 0001:00008dd0       ?CSCmd_NetPing@@YAXPAD@Z   00409dd0 f   Cscmd.obj
 0001:00008df0       ?CSCmd_NetRestart@@YAXPAD@Z 00409df0 f   Cscmd.obj
 0001:00008e30       ?CSCmd_NetStatus@@YAXPAD@Z 00409e30 f   Cscmd.obj
 0001:00009000       ?CSCmd_PostedPollParams@@YAXHHHH@Z 0040a000 f   Cscmd.obj
 0001:00009100       ?CSCmd_RtrDatabase@@YAXPAD@Z 0040a100 f   Cscmd.obj
 0001:000092e0       ?CSCmd_RtrModify@@YAXPAD@Z 0040a2e0 f   Cscmd.obj
 0001:00009420       ?CSCmd_RtrRevertive@@YAXPAD@Z 0040a420 f   Cscmd.obj
 0001:00009560       ?CSCmd_SendDeviceStatusRevertive@@YAXHPAVdeviceStatus@@@Z 0040a560 f   Cscmd.obj
 0001:000095e0       ?CSCmd_SendWorkstationStatusRevertive@@YAXHPAVworkstationStatus@@@Z 0040a5e0 f   Cscmd.obj
 0001:00009660       ?CSCmd_TimeService@@YAXPAD@Z 0040a660 f   Cscmd.obj
 0001:000097b0       ?CSCmd_UniRevertive@@YAXPADH_N@Z 0040a7b0 f   Cscmd.obj
 0001:00009e20       ?_Buynode0@?$_List_alloc@$0A@U?$_List_base_types@VdeviceStatusOnHost@@V?$allocator@VdeviceStatusOnHost@@@std@@@std@@@std@@QAEPAU?$_List_node@VdeviceStatusOnHost@@PAX@2@PAU32@0@Z 0040ae20 f i Cscmd.obj
 0001:00009ed0       ?_Destroy_if_not_nil@?$_Tree@V?$_Tmap_traits@GVserialError@@U?$less@G@std@@V?$allocator@U?$pair@$$CBGVserialError@@@std@@@3@$00@std@@@std@@IAEXPAU?$_Tree_node@U?$pair@$$CBGVserialError@@@std@@PAX@2@@Z 0040aed0 f i Cscmd.obj
 0001:00009f40       ?_Lrotate@?$_Tree@V?$_Tmap_traits@HPAVdatabase@@U?$less@H@std@@V?$allocator@U?$pair@$$CBHPAVdatabase@@@std@@@3@$0A@@std@@@std@@IAEXPAU?$_Tree_node@U?$pair@$$CBHPAVdatabase@@@std@@PAX@2@@Z 0040af40 f i databaseMgr.obj
 0001:00009f40       ?_Lrotate@?$_Tree@V?$_Tmap_traits@HVdeviceStatusOnHost@@U?$less@H@std@@V?$allocator@U?$pair@$$CBHVdeviceStatusOnHost@@@std@@@3@$0A@@std@@@std@@IAEXPAU?$_Tree_node@U?$pair@$$CBHVdeviceStatusOnHost@@@std@@PAX@2@@Z 0040af40 f i deviceStatus.obj
 0001:00009f40       ?_Lrotate@?$_Tree@V?$_Tset_traits@HU?$less@H@std@@V?$allocator@H@2@$0A@@std@@@std@@IAEXPAU?$_Tree_node@HPAX@2@@Z 0040af40 f i closedDriversList.obj
 0001:00009f40       ?_Lrotate@?$_Tree@V?$_Tmap_traits@HV?$basic_string@DU?$char_traits@D@std@@V?$allocator@D@2@@std@@U?$less@H@2@V?$allocator@U?$pair@$$CBHV?$basic_string@DU?$char_traits@D@std@@V?$allocator@D@2@@std@@@std@@@2@$0A@@std@@@std@@IAEXPAU?$_Tree_node@U?$pair@$$CBHV?$basic_string@DU?$char_traits@D@std@@V?$allocator@D@2@@std@@@std@@PAX@2@@Z 0040af40 f i database.obj
 0001:00009f40       ?_Lrotate@?$_Tree@V?$_Tmap_traits@PAUHWND__@@KU?$less@PAUHWND__@@@std@@V?$allocator@U?$pair@QAUHWND__@@K@std@@@3@$0A@@std@@@std@@IAEXPAU?$_Tree_node@U?$pair@QAUHWND__@@K@std@@PAX@2@@Z 0040af40 f i externalsListDialog.obj
 0001:00009f40       ?_Lrotate@?$_Tree@V?$_Tmap_traits@KKU?$less@K@std@@V?$allocator@U?$pair@$$CBKK@std@@@2@$0A@@std@@@std@@IAEXPAU?$_Tree_node@U?$pair@$$CBKK@std@@PAX@2@@Z 0040af40 f i supersededMemory.obj
 0001:00009f40       ?_Lrotate@?$_Tree@V?$_Tmap_traits@KVsizedBuffer@@U?$less@K@std@@V?$allocator@U?$pair@$$CBKVsizedBuffer@@@std@@@3@$0A@@std@@@std@@IAEXPAU?$_Tree_node@U?$pair@$$CBKVsizedBuffer@@@std@@PAX@2@@Z 0040af40 f i Csimain.obj
 0001:00009f40       ?_Lrotate@?$_Tree@V?$_Tmap_traits@GVserialError@@U?$less@G@std@@V?$allocator@U?$pair@$$CBGVserialError@@@std@@@3@$00@std@@@std@@IAEXPAU?$_Tree_node@U?$pair@$$CBGVserialError@@@std@@PAX@2@@Z 0040af40 f i Cscmd.obj
 0001:00009fa0       ?erase@?$list@PAUHWND__@@V?$allocator@PAUHWND__@@@std@@@std@@QAE?AV?$_List_iterator@V?$_List_val@U?$_List_simple_types@PAUHWND__@@@std@@@std@@@2@V?$_List_const_iterator@V?$_List_val@U?$_List_simple_types@PAUHWND__@@@std@@@std@@@2@@Z 0040afa0 f i Cscmd.obj
 0001:00009fe0       ??1Cbncs_strtok@@QAE@XZ    0040afe0 f   b_strtok.obj
 0001:00009fe0       ??3@YAXPAX0@Z              0040afe0 f   database.obj
 0001:00009fe0       ?CSComDog_SendData@@YAXPADH@Z 0040afe0 f   CSCOMDOG.obj
 0001:00009fe0       ?CSComDog_OpenComm@@YAXXZ  0040afe0 f   CSCOMDOG.obj
 0001:00009fe0       ?CSComDog_Closedown@@YAXXZ 0040afe0 f   CSCOMDOG.obj
 0001:00009ff0       ?CSDBase_DialogProc@@YGHPAUHWND__@@GGJ@Z 0040aff0 f   Csdbase.obj
 0001:0000a070       ?CSDbase_Closedown@@YAXXZ  0040b070 f   Csdbase.obj
 0001:0000a0b0       ?CSDbase_GetDBList@@YAPADH@Z 0040b0b0 f   Csdbase.obj
 0001:0000a2b0       ?CSDbase_GetDEVDirectory@@YAXXZ 0040b2b0 f   Csdbase.obj
 0001:0000a390       ?CSDbase_GetDatabaseIndex@@YAHIJ@Z 0040b390 f   Csdbase.obj
 0001:0000a4a0       ?CSDbase_GetDatabaseName@@YAXJ@Z 0040b4a0 f   Csdbase.obj
 0001:0000a590       ?CSDbase_GetDbaseName@@YAPADGHG@Z 0040b590 f   Csdbase.obj
 0001:0000a7e0       ?CSDbase_GetGPIDDirectory@@YAXXZ 0040b7e0 f   Csdbase.obj
 0001:0000a8c0       ?CSDbase_GetGRDDirectory@@YAXXZ 0040b8c0 f   Csdbase.obj
 0001:0000a980       ?CSDbase_GetIDDirectory@@YAXXZ 0040b980 f   Csdbase.obj
 0001:0000aa60       ?CSDbase_GetMappedId@@YAHIJ@Z 0040ba60 f   Csdbase.obj
 0001:0000ab60       ?CSDbase_Init@@YAXXZ       0040bb60 f   Csdbase.obj
 0001:0000ad20       ?CSDbase_LoadDEVINI@@YAXH@Z 0040bd20 f   Csdbase.obj
 0001:0000b2e0       ?CSDbase_LoadGPIDINI@@YAXH@Z 0040c2e0 f   Csdbase.obj
 0001:0000b350       ?CSDbase_LoadGRDINI@@YAXH@Z 0040c350 f   Csdbase.obj
 0001:0000b7a0       ?CSDbase_LoadINFOINI@@YAXH@Z 0040c7a0 f   Csdbase.obj
 0001:0000b870       ?CSDbase_SaveCDF@@YAXH@Z   0040c870 f   Csdbase.obj
 0001:0000b990       ?CSDbase_SaveDEVEntry@@YAXHHHPAD@Z 0040c990 f   Csdbase.obj
 0001:0000bc20       ?CSDbase_SaveGRDEntry@@YAXHHHPAD@Z 0040cc20 f   Csdbase.obj
 0001:0000bde0       ?CSDbase_checkAddedDevice@@YA_NH@Z 0040cde0 f   Csdbase.obj
 0001:0000be80       ?CSDbExt_AccessFile@@YAHHH@Z 0040ce80 f   csdbext.obj
 0001:0000bf70       ?CSDbExt_CompileDBFiles@@YAXH@Z 0040cf70 f   csdbext.obj
 0001:0000c0e0       ?CSDbExt_CreateFile@@YAHPAD@Z 0040d0e0 f   csdbext.obj
 0001:0000c160       ?CSDbExt_GetIndex@@YAHJ@Z  0040d160 f   csdbext.obj
 0001:0000c310       ?CSDbExt_GetName@@YAXJ@Z   0040d310 f   csdbext.obj
 0001:0000c400       ?CSDbExt_Init@@YAXXZ       0040d400 f   csdbext.obj
 0001:0000c420       ?CSDbExt_SetName@@YAXHHHPAD@Z 0040d420 f   csdbext.obj
 0001:0000c4a0       ?CSDbExt_UpdateFile@@YAXHHPAD0@Z 0040d4a0 f   csdbext.obj
 0001:0000c580       ?CSDialog_Clear@@YAXXZ     0040d580 f   Csdialog.obj
 0001:0000c690       ?CSDialog_DialogProc@@YGHPAUHWND__@@GGJ@Z 0040d690 f   Csdialog.obj
 0001:0000c6f0       ?CSDialog_Init@@YAXXZ      0040d6f0 f   Csdialog.obj
 0001:0000c720       ?CSDialog_InitDialog@@YAXXZ 0040d720 f   Csdialog.obj
 0001:0000c730       ?CSDialog_SetStatics@@YAXXZ 0040d730 f   Csdialog.obj
 0001:0000c840       ?CSDialog_Status@@YAXXZ    0040d840 f   Csdialog.obj
 0001:0000cd70       ??$_Buynode@PAUHWND__@@@?$_List_buy@PAUHWND__@@V?$allocator@PAUHWND__@@@std@@@std@@QAEPAU?$_List_node@PAUHWND__@@PAX@1@PAU21@0$$QAPAUHWND__@@@Z 0040dd70 f i Csimain.obj
 0001:0000cd70       ??$_Buynode@ABQAUHWND__@@@?$_List_buy@PAUHWND__@@V?$allocator@PAUHWND__@@@std@@@std@@QAEPAU?$_List_node@PAUHWND__@@PAX@1@PAU21@0ABQAUHWND__@@@Z 0040dd70 f i Csreg.obj
 0001:0000ce00       ??0?$_Deque_alloc@$0A@U?$_Deque_base_types@VsizedBuffer@@V?$allocator@VsizedBuffer@@@std@@@std@@@std@@QAE@ABV?$allocator@VsizedBuffer@@@1@@Z 0040de00 f i Csimain.obj
 0001:0000ceb0       ??0?$_Wrap_alloc@V?$allocator@U?$_List_node@VserialError@@PAX@std@@@std@@@std@@QAE@XZ 0040deb0 f i Csimain.obj
 0001:0000ceb0       ??0?$_Wrap_alloc@V?$allocator@U_Container_proxy@std@@@std@@@std@@QAE@XZ 0040deb0 f i Csimain.obj
 0001:0000ceb0       ??0?$_Wrap_alloc@V?$allocator@U?$_Tree_node@HPAX@std@@@std@@@std@@QAE@XZ 0040deb0 f i closedDriversList.obj
 0001:0000ceb0       ??0?$_Wrap_alloc@V?$allocator@U?$_List_node@PAUHWND__@@PAX@std@@@std@@@std@@QAE@XZ 0040deb0 f i Cscmd.obj
 0001:0000ceb0       ??0?$_Wrap_alloc@V?$allocator@U?$_Tree_node@U?$pair@$$CBGVserialError@@@std@@PAX@std@@@std@@@std@@QAE@XZ 0040deb0 f i Cscmd.obj
 0001:0000ceb0       ??0?$_Wrap_alloc@V?$allocator@U?$_Tree_node@U?$pair@$$CBKVsizedBuffer@@@std@@PAX@std@@@std@@@std@@QAE@XZ 0040deb0 f i Csimain.obj
 0001:0000cec0       ??1?$_Deque_alloc@$0A@U?$_Deque_base_types@VsizedBuffer@@V?$allocator@VsizedBuffer@@@std@@@std@@@std@@QAE@XZ 0040dec0 f i Csimain.obj
 0001:0000cf20       ??1?$_Deque_val@U?$_Deque_simple_types@VsizedBuffer@@@std@@@std@@QAE@XZ 0040df20 f i Csimain.obj
 0001:0000cf60       ??1?$_Tree@V?$_Tmap_traits@GVserialError@@U?$less@G@std@@V?$allocator@U?$pair@$$CBGVserialError@@@std@@@3@$00@std@@@std@@QAE@XZ 0040df60 f i Csimain.obj
 0001:0000cfd0       ??1?$_Tree@V?$_Tmap_traits@KVsizedBuffer@@U?$less@K@std@@V?$allocator@U?$pair@$$CBKVsizedBuffer@@@std@@@3@$0A@@std@@@std@@QAE@XZ 0040dfd0 f i Csimain.obj
 0001:0000d040       ??1?$_List_alloc@$0A@U?$_List_base_types@VserialError@@V?$allocator@VserialError@@@std@@@std@@@std@@QAE@XZ 0040e040 f i Csimain.obj
 0001:0000d040       ??1?$_Tree_alloc@$0A@U?$_Tree_base_types@U?$pair@QAUHWND__@@K@std@@V?$allocator@U?$pair@QAUHWND__@@K@std@@@2@@std@@@std@@QAE@XZ 0040e040 f i externalsListDialog.obj
 0001:0000d040       ??1?$_Tree_alloc@$0A@U?$_Tree_base_types@U?$pair@$$CBHV?$basic_string@DU?$char_traits@D@std@@V?$allocator@D@2@@std@@@std@@V?$allocator@U?$pair@$$CBHV?$basic_string@DU?$char_traits@D@std@@V?$allocator@D@2@@std@@@std@@@2@@std@@@std@@QAE@XZ 0040e040 f i database.obj
 0001:0000d040       ??1?$_Tree_alloc@$0A@U?$_Tree_base_types@U?$pair@$$CBKK@std@@V?$allocator@U?$pair@$$CBKK@std@@@2@@std@@@std@@QAE@XZ 0040e040 f i supersededMemory.obj
 0001:0000d040       ??1?$_List_alloc@$0A@U?$_List_base_types@PAUHWND__@@V?$allocator@PAUHWND__@@@std@@@std@@@std@@QAE@XZ 0040e040 f i Csimain.obj
 0001:0000d040       ??1?$_Tree_alloc@$0A@U?$_Tree_base_types@HV?$allocator@H@std@@@std@@@std@@QAE@XZ 0040e040 f i closedDriversList.obj
 0001:0000d040       ??1?$_Tree_alloc@$0A@U?$_Tree_base_types@U?$pair@$$CBHVdeviceStatusOnHost@@@std@@V?$allocator@U?$pair@$$CBHVdeviceStatusOnHost@@@std@@@2@@std@@@std@@QAE@XZ 0040e040 f i deviceStatus.obj
 0001:0000d040       ??1?$_Tree_alloc@$0A@U?$_Tree_base_types@U?$pair@$$CBHPAVdatabase@@@std@@V?$allocator@U?$pair@$$CBHPAVdatabase@@@std@@@2@@std@@@std@@QAE@XZ 0040e040 f i databaseMgr.obj
 0001:0000d040       ??1?$_List_alloc@$0A@U?$_List_base_types@VdeviceStatusOnHost@@V?$allocator@VdeviceStatusOnHost@@@std@@@std@@@std@@QAE@XZ 0040e040 f i Cscmd.obj
 0001:0000d040       ??1?$_Tree_alloc@$0A@U?$_Tree_base_types@U?$pair@$$CBGVserialError@@@std@@V?$allocator@U?$pair@$$CBGVserialError@@@std@@@2@@std@@@std@@QAE@XZ 0040e040 f i Csimain.obj
 0001:0000d040       ??1?$_Tree_alloc@$0A@U?$_Tree_base_types@U?$pair@$$CBKVsizedBuffer@@@std@@V?$allocator@U?$pair@$$CBKVsizedBuffer@@@std@@@2@@std@@@std@@QAE@XZ 0040e040 f i Csimain.obj
 0001:0000d050       ??1?$_Tree_comp@$0A@V?$_Tmap_traits@HPAVdatabase@@U?$less@H@std@@V?$allocator@U?$pair@$$CBHPAVdatabase@@@std@@@3@$0A@@std@@@std@@QAE@XZ 0040e050 f i databaseMgr.obj
 0001:0000d050       ??1?$_Tree_comp@$0A@V?$_Tmap_traits@KVsizedBuffer@@U?$less@K@std@@V?$allocator@U?$pair@$$CBKVsizedBuffer@@@std@@@3@$0A@@std@@@std@@QAE@XZ 0040e050 f i Csimain.obj
 0001:0000d050       ??1?$_Tree_comp@$0A@V?$_Tmap_traits@PAUHWND__@@KU?$less@PAUHWND__@@@std@@V?$allocator@U?$pair@QAUHWND__@@K@std@@@3@$0A@@std@@@std@@QAE@XZ 0040e050 f i externalsListDialog.obj
 0001:0000d050       ??1?$_Tree_comp@$0A@V?$_Tmap_traits@KKU?$less@K@std@@V?$allocator@U?$pair@$$CBKK@std@@@2@$0A@@std@@@std@@QAE@XZ 0040e050 f i supersededMemory.obj
 0001:0000d050       ??1?$_Tree_comp@$0A@V?$_Tmap_traits@GVserialError@@U?$less@G@std@@V?$allocator@U?$pair@$$CBGVserialError@@@std@@@3@$00@std@@@std@@QAE@XZ 0040e050 f i Csimain.obj
 0001:0000d050       ??1?$_Tree_comp@$0A@V?$_Tset_traits@HU?$less@H@std@@V?$allocator@H@2@$0A@@std@@@std@@QAE@XZ 0040e050 f i closedDriversList.obj
 0001:0000d050       ??1?$_Tree_comp@$0A@V?$_Tmap_traits@HVdeviceStatusOnHost@@U?$less@H@std@@V?$allocator@U?$pair@$$CBHVdeviceStatusOnHost@@@std@@@3@$0A@@std@@@std@@QAE@XZ 0040e050 f i deviceStatus.obj
 0001:0000d050       ??1?$_Tree_comp@$0A@V?$_Tmap_traits@HV?$basic_string@DU?$char_traits@D@std@@V?$allocator@D@2@@std@@U?$less@H@2@V?$allocator@U?$pair@$$CBHV?$basic_string@DU?$char_traits@D@std@@V?$allocator@D@2@@std@@@std@@@2@$0A@@std@@@std@@QAE@XZ 0040e050 f i database.obj
 0001:0000d0a0       ??1?$deque@VsizedBuffer@@V?$allocator@VsizedBuffer@@@std@@@std@@QAE@XZ 0040e0a0 f i Csimain.obj
 0001:0000d110       ??1?$pair@$$CBKVsizedBuffer@@@std@@QAE@XZ 0040e110 f i Csimain.obj
 0001:0000d110       ??1?$pair@KVsizedBuffer@@@std@@QAE@XZ 0040e110 f i Csndi.obj
 0001:0000d160       ??E?$_Tree_unchecked_const_iterator@V?$_Tree_val@U?$_Tree_simple_types@U?$pair@$$CBHPAVdatabase@@@std@@@std@@@std@@U_Iterator_base0@2@@std@@QAEAAV01@XZ 0040e160 f i databaseMgr.obj
 0001:0000d160       ??E?$_Tree_unchecked_const_iterator@V?$_Tree_val@U?$_Tree_simple_types@U?$pair@$$CBKVsizedBuffer@@@std@@@std@@@std@@U_Iterator_base0@2@@std@@QAEAAV01@XZ 0040e160 f i Csimain.obj
 0001:0000d160       ??E?$_Tree_unchecked_const_iterator@V?$_Tree_val@U?$_Tree_simple_types@H@std@@@std@@U_Iterator_base0@2@@std@@QAEAAV01@XZ 0040e160 f i closedDriversList.obj
 0001:0000d160       ??E?$_Tree_unchecked_const_iterator@V?$_Tree_val@U?$_Tree_simple_types@U?$pair@$$CBHV?$basic_string@DU?$char_traits@D@std@@V?$allocator@D@2@@std@@@std@@@std@@@std@@U_Iterator_base0@2@@std@@QAEAAV01@XZ 0040e160 f i database.obj
 0001:0000d160       ??E?$_Tree_unchecked_const_iterator@V?$_Tree_val@U?$_Tree_simple_types@U?$pair@$$CBKK@std@@@std@@@std@@U_Iterator_base0@2@@std@@QAEAAV01@XZ 0040e160 f i supersededMemory.obj
 0001:0000d160       ??E?$_Tree_unchecked_const_iterator@V?$_Tree_val@U?$_Tree_simple_types@U?$pair@$$CBGVserialError@@@std@@@std@@@std@@U_Iterator_base0@2@@std@@QAEAAV01@XZ 0040e160 f i Csimain.obj
 0001:0000d160       ??E?$_Tree_unchecked_const_iterator@V?$_Tree_val@U?$_Tree_simple_types@U?$pair@$$CBHVdeviceStatusOnHost@@@std@@@std@@@std@@U_Iterator_base0@2@@std@@QAEAAV01@XZ 0040e160 f i deviceStatus.obj
 0001:0000d160       ??E?$_Tree_unchecked_const_iterator@V?$_Tree_val@U?$_Tree_simple_types@U?$pair@QAUHWND__@@K@std@@@std@@@std@@U_Iterator_base0@2@@std@@QAEAAV01@XZ 0040e160 f i externalsListDialog.obj
 0001:0000d1b0       ?CSMain_BuffDevCtlCmd@@YAXPADH@Z 0040e1b0 f   Csimain.obj
 0001:0000d240       ?CSMain_Cache@@YAXXZ       0040e240 f   Csimain.obj
 0001:0000d370       ?CSMain_CacheToggle@@YAXG@Z 0040e370 f   Csimain.obj
 0001:0000d3b0       ?CSMain_Client@@YAXXZ      0040e3b0 f   Csimain.obj
 0001:0000d590       ?CSMain_Closedown2@@YAXXZ  0040e590 f   Csimain.obj
 0001:0000d660       ?CSMain_Closedown3@@YAXXZ  0040e660 f   Csimain.obj
 0001:0000d6a0       ?CSMain_Closedown@@YAXXZ   0040e6a0 f   Csimain.obj
 0001:0000d780       ?CSMain_Debug@@YAXXZ       0040e780 f   Csimain.obj
 0001:0000d800       ?CSMain_Diag@@YAXXZ        0040e800 f   Csimain.obj
 0001:0000e640       ?CSMain_DiagExt@@YAXXZ     0040f640 f   Csimain.obj
 0001:0000e730       ?CSMain_DoFinalCleanup@@YAXXZ 0040f730 f   Csimain.obj
 0001:0000e880       ?CSMain_DoHelp@@YAXXZ      0040f880 f   Csimain.obj
 0001:0000e920       ?CSMain_Driver@@YAXXZ      0040f920 f   Csimain.obj
 0001:0000eb00       ?CSMain_DumpSessions@@YAXXZ 0040fb00 f   Csimain.obj
 0001:0000eb40       ?CSMain_FlushCacheOnErrorToggle@@YAXXZ 0040fb40 f   Csimain.obj
 0001:0000ebc0       ?CSMain_GetDevProperties@@YAHIJ@Z 0040fbc0 f   Csimain.obj
 0001:0000ed70       ?CSMain_GetDevTxRxMode@@YAHJ@Z 0040fd70 f   Csimain.obj
 0001:0000eda0       ?CSMain_HeartbeatTimeoutThread@@YAXPAX@Z 0040fda0 f   Csimain.obj
 0001:0000eed0       ?CSMain_IncrementUpTimer@@YAXXZ 0040fed0 f   Csimain.obj
 0001:0000ef30       ?CSMain_Init@@YAXXZ        0040ff30 f   Csimain.obj
 0001:0000f520       ?CSMain_InitGlobals@@YAXXZ 00410520 f   Csimain.obj
 0001:0000f840       ?CSMain_LogStats@@YAXXZ    00410840 f   Csimain.obj
 0001:0000fb20       ?CSMain_NetReset@@YAXXZ    00410b20 f   Csimain.obj
 0001:0000fb30       ?CSMain_PRAC@@YAKPBEH@Z    00410b30 f   Csimain.obj
 0001:0000fbd0       ?CSMain_RxPostDirectMessage@@YAXIJ@Z 00410bd0 f   Csimain.obj
 0001:0000fcb0       ?CSMain_SendCommandSerialNumberToggle@@YAXXZ 00410cb0 f   Csimain.obj
 0001:0000fd30       ?CSMain_SendHeartbeat@@YA_N_N@Z 00410d30 f   Csimain.obj
 0001:0000fee0       ?CSMain_SendHeartbeatPacket@@YAX_NPBEHH@Z 00410ee0 f   Csimain.obj
 0001:00010030       ?CSMain_SendHeartbeatSoon@@YAXXZ 00411030 f   Csimain.obj
 0001:00010060       ?CSMain_SendPacketSerialNumberToggle@@YAXXZ 00411060 f   Csimain.obj
 0001:000100e0       ?CSMain_Session@@YAXXZ     004110e0 f   Csimain.obj
 0001:000102c0       ?CSMain_SetDevTxRxMode@@YAXIJ_N@Z 004112c0 f   Csimain.obj
 0001:00010590       ?CSMain_StatusUpdate@@YAXXZ 00411590 f   Csimain.obj
 0001:00010760       ?CSMain_TxCmd@@YAXIPAD@Z   00411760 f   Csimain.obj
 0001:00010a00       ?CSMain_TxDevCtlBuff@@YAXXZ 00411a00 f   Csimain.obj
 0001:00010b30       ?CSMain_TxPacketRecoveryPackets@@YAXXZ 00411b30 f   Csimain.obj
 0001:00010d20       ?CSMain_TxPostDirectMessage@@YAXHPADH@Z 00411d20 f   Csimain.obj
 0001:00010d80       ?CSMain_TxRxRetry@@YAXXZ   00411d80 f   Csimain.obj
 0001:00010f00       ?CSMain_TxTimeService@@YAXXZ 00411f00 f   Csimain.obj
 0001:00010fe0       ?CSMain_UnPRAC@@YA_NPBEHK@Z 00411fe0 f   Csimain.obj
 0001:00011070       ?CSMain_UpdateTitle@@YAXXZ 00412070 f   Csimain.obj
 0001:000111c0       ?InitApplication@@YAHPAUHINSTANCE__@@@Z 004121c0 f   Csimain.obj
 0001:00011250       ?InitInstance@@YAHPAUHINSTANCE__@@H@Z 00412250 f   Csimain.obj
 0001:00011320       ?MainWndProc@@YGJPAUHWND__@@IIJ@Z 00412320 f   Csimain.obj
 0001:00012d10       ?_Buyheadnode@?$_Tree_alloc@$0A@U?$_Tree_base_types@U?$pair@$$CBKVsizedBuffer@@@std@@V?$allocator@U?$pair@$$CBKVsizedBuffer@@@std@@@2@@std@@@std@@QAEPAU?$_Tree_node@U?$pair@$$CBKVsizedBuffer@@@std@@PAX@2@XZ 00413d10 f i Csimain.obj
 0001:00012dd0       ?_Buynode0@?$_List_alloc@$0A@U?$_List_base_types@PAUHWND__@@V?$allocator@PAUHWND__@@@std@@@std@@@std@@QAEPAU?$_List_node@PAUHWND__@@PAX@2@PAU32@0@Z 00413dd0 f i Csimain.obj
 0001:00012e80       ?_Buynode0@?$_List_alloc@$0A@U?$_List_base_types@VserialError@@V?$allocator@VserialError@@@std@@@std@@@std@@QAEPAU?$_List_node@VserialError@@PAX@2@PAU32@0@Z 00413e80 f i Csimain.obj
 0001:00012f30       ?_Erase@?$_Tree@V?$_Tmap_traits@GVserialError@@U?$less@G@std@@V?$allocator@U?$pair@$$CBGVserialError@@@std@@@3@$00@std@@@std@@IAEXPAU?$_Tree_node@U?$pair@$$CBGVserialError@@@std@@PAX@2@@Z 00413f30 f i Csimain.obj
 0001:00012fc0       ?_Erase@?$_Tree@V?$_Tmap_traits@KVsizedBuffer@@U?$less@K@std@@V?$allocator@U?$pair@$$CBKVsizedBuffer@@@std@@@3@$0A@@std@@@std@@IAEXPAU?$_Tree_node@U?$pair@$$CBKVsizedBuffer@@@std@@PAX@2@@Z 00413fc0 f i Csimain.obj
 0001:00013040       ?_Tidy@?$deque@VsizedBuffer@@V?$allocator@VsizedBuffer@@@std@@@std@@IAEXXZ 00414040 f i Csimain.obj
 0001:000130c0       ?areAllCorrected@serialError@@QAE_NXZ 004140c0 f i Csimain.obj
 0001:00013100       ?clear@?$_Tree@V?$_Tmap_traits@KVsizedBuffer@@U?$less@K@std@@V?$allocator@U?$pair@$$CBKVsizedBuffer@@@std@@@3@$0A@@std@@@std@@QAEXXZ 00414100 f i Csimain.obj
 0001:00013130       ?clear@?$list@VserialError@@V?$allocator@VserialError@@@std@@@std@@QAEXXZ 00414130 f i Csimain.obj
 0001:00013180       ?clientCheck@@YAXPAUHWND__@@@Z 00414180 f   Csimain.obj
 0001:00013270       ?configStatusDialogProc@@YGHPAUHWND__@@IIJ@Z 00414270 f   Csimain.obj
 0001:00013500       ?erase@?$_Tree@V?$_Tmap_traits@GVserialError@@U?$less@G@std@@V?$allocator@U?$pair@$$CBGVserialError@@@std@@@3@$00@std@@@std@@QAE?AV?$_Tree_iterator@V?$_Tree_val@U?$_Tree_simple_types@U?$pair@$$CBGVserialError@@@std@@@std@@@std@@@2@V?$_Tree_const_iterator@V?$_Tree_val@U?$_Tree_simple_types@U?$pair@$$CBGVserialError@@@std@@@std@@@std@@@2@0@Z 00414500 f i Csimain.obj
 0001:000135c0       ?erase@?$_Tree@V?$_Tmap_traits@GVserialError@@U?$less@G@std@@V?$allocator@U?$pair@$$CBGVserialError@@@std@@@3@$00@std@@@std@@QAE?AV?$_Tree_iterator@V?$_Tree_val@U?$_Tree_simple_types@U?$pair@$$CBGVserialError@@@std@@@std@@@std@@@2@V?$_Tree_const_iterator@V?$_Tree_val@U?$_Tree_simple_types@U?$pair@$$CBGVserialError@@@std@@@std@@@std@@@2@@Z 004145c0 f i Csimain.obj
 0001:00013880       ?erase@?$_Tree@V?$_Tmap_traits@KVsizedBuffer@@U?$less@K@std@@V?$allocator@U?$pair@$$CBKVsizedBuffer@@@std@@@3@$0A@@std@@@std@@QAE?AV?$_Tree_iterator@V?$_Tree_val@U?$_Tree_simple_types@U?$pair@$$CBKVsizedBuffer@@@std@@@std@@@std@@@2@V?$_Tree_const_iterator@V?$_Tree_val@U?$_Tree_simple_types@U?$pair@$$CBKVsizedBuffer@@@std@@@std@@@std@@@2@0@Z 00414880 f i Csimain.obj
 0001:00013940       ?erase@?$_Tree@V?$_Tmap_traits@KVsizedBuffer@@U?$less@K@std@@V?$allocator@U?$pair@$$CBKVsizedBuffer@@@std@@@3@$0A@@std@@@std@@QAE?AV?$_Tree_iterator@V?$_Tree_val@U?$_Tree_simple_types@U?$pair@$$CBKVsizedBuffer@@@std@@@std@@@std@@@2@V?$_Tree_const_iterator@V?$_Tree_val@U?$_Tree_simple_types@U?$pair@$$CBKVsizedBuffer@@@std@@@std@@@std@@@2@@Z 00414940 f i Csimain.obj
 0001:00013bf0       ?find@?$_Tree@V?$_Tmap_traits@GVserialError@@U?$less@G@std@@V?$allocator@U?$pair@$$CBGVserialError@@@std@@@3@$00@std@@@std@@QAE?AV?$_Tree_iterator@V?$_Tree_val@U?$_Tree_simple_types@U?$pair@$$CBGVserialError@@@std@@@std@@@std@@@2@ABG@Z 00414bf0 f i Csimain.obj
 0001:00013c40       ?isSecure@@YA_NXZ          00414c40 f   Csimain.obj
 0001:00013d30       ?push_back@?$list@PAUHWND__@@V?$allocator@PAUHWND__@@@std@@@std@@QAEX$$QAPAUHWND__@@@Z 00414d30 f i Csimain.obj
 0001:00013d80       ?timerProc@@YGXPAUHWND__@@IIK@Z 00414d80 f   Csimain.obj
 0001:00013dd0       _WinMain@16                00414dd0 f   Csimain.obj
 0001:00013f70       ?CSLicens_DialogProc@@YGHPAUHWND__@@GGJ@Z 00414f70 f   CSLICENS.obj
 0001:000140e0       ?CSLicens_License@@YAXXZ   004150e0 f   CSLICENS.obj
 0001:00014100       ??$_Buynode@U?$pair@KVsizedBuffer@@@std@@@?$_Tree_buy@U?$pair@$$CBKVsizedBuffer@@@std@@V?$allocator@U?$pair@$$CBKVsizedBuffer@@@std@@@2@@std@@QAEPAU?$_Tree_node@U?$pair@$$CBKVsizedBuffer@@@std@@PAX@1@$$QAU?$pair@KVsizedBuffer@@@1@@Z 00415100 f i Csndi.obj
 0001:00014190       ??$_Insert_at@AAU?$pair@$$CBKVsizedBuffer@@@std@@PAU?$_Tree_node@U?$pair@$$CBKVsizedBuffer@@@std@@PAX@2@@?$_Tree@V?$_Tmap_traits@KVsizedBuffer@@U?$less@K@std@@V?$allocator@U?$pair@$$CBKVsizedBuffer@@@std@@@3@$0A@@std@@@std@@IAE?AV?$_Tree_iterator@V?$_Tree_val@U?$_Tree_simple_types@U?$pair@$$CBKVsizedBuffer@@@std@@@std@@@std@@@1@_NPAU?$_Tree_node@U?$pair@$$CBKVsizedBuffer@@@std@@PAX@1@AAU?$pair@$$CBKVsizedBuffer@@@1@1@Z 00415190 f i Csndi.obj
 0001:000143e0       ??$_Insert_nohint@AAU?$pair@$$CBKVsizedBuffer@@@std@@PAU?$_Tree_node@U?$pair@$$CBKVsizedBuffer@@@std@@PAX@2@@?$_Tree@V?$_Tmap_traits@KVsizedBuffer@@U?$less@K@std@@V?$allocator@U?$pair@$$CBKVsizedBuffer@@@std@@@3@$0A@@std@@@std@@IAE?AU?$pair@V?$_Tree_iterator@V?$_Tree_val@U?$_Tree_simple_types@U?$pair@$$CBKVsizedBuffer@@@std@@@std@@@std@@@std@@_N@1@_NAAU?$pair@$$CBKVsizedBuffer@@@1@PAU?$_Tree_node@U?$pair@$$CBKVsizedBuffer@@@std@@PAX@1@@Z 004153e0 f i Csndi.obj
 0001:000144f0       ??$construct@U?$pair@$$CBKVsizedBuffer@@@std@@U?$pair@KVsizedBuffer@@@2@@?$_Wrap_alloc@V?$allocator@U?$_Tree_node@U?$pair@$$CBKVsizedBuffer@@@std@@PAX@std@@@std@@@std@@QAEXPAU?$pair@$$CBKVsizedBuffer@@@1@$$QAU?$pair@KVsizedBuffer@@@1@@Z 004154f0 f i Csndi.obj
 0001:00014560       ?CSNDI_DecDriver@@YAXPAUHWND__@@@Z 00415560 f   Csndi.obj
 0001:000145b0       ?CSNDI_IncDriver@@YAHPAUHWND__@@@Z 004155b0 f   Csndi.obj
 0001:00014620       ?CSNDI_Init@@YAXXZ         00415620 f   Csndi.obj
 0001:00014730       ?CSNDI_RegAllDeviceIds@@YAXI@Z 00415730 f   Csndi.obj
 0001:00014760       ?CSNDI_RegDeviceId@@YAHIJHE@Z 00415760 f   Csndi.obj
 0001:00014a70       ?CSNDI_Revertive@@YAXIJH@Z 00415a70 f   Csndi.obj
 0001:00014a90       ?CSNDI_Revertive@@YAXIJH_N@Z 00415a90 f   Csndi.obj
 0001:00014f00       ?CSNDI_SendRevPacket@@YAXIJ@Z 00415f00 f   Csndi.obj
 0001:00014fa0       ?CSNDI_SendSystemMsg@@YAXPAD@Z 00415fa0 f   Csndi.obj
 0001:00015000       ?CSNDI_SendToDriver@@YAXPADH@Z 00416000 f   Csndi.obj
 0001:00015670       ?CSNDI_SendVerbatimMsg@@YAXJ@Z 00416670 f   Csndi.obj
 0001:000156e0       ?CSNDI_TxPacket@@YAXXZ     004166e0 f   Csndi.obj
 0001:00015930       ?CSNDI_UnRegAllDeviceIds@@YAHI@Z 00416930 f   Csndi.obj
 0001:00015970       ?CSNDI_UnRegDeviceId@@YAHIJ@Z 00416970 f   Csndi.obj
 0001:00015bb0       ?CSNDI_UniBuffReset@@YAXXZ 00416bb0 f   Csndi.obj
 0001:00015c00       ?CSNDI_UniChangeRevertive@@YAXHPADHH@Z 00416c00 f   Csndi.obj
 0001:00015c90       ?CSNDI_UniFileBuffReset@@YAXXZ 00416c90 f   Csndi.obj
 0001:00015ce0       ?CSNDI_UniPollRevertive@@YAXHHPADHHH@Z 00416ce0 f   Csndi.obj
 0001:00015e40       ?_Buynode0@?$_Tree_buy@U?$pair@$$CBKVsizedBuffer@@@std@@V?$allocator@U?$pair@$$CBKVsizedBuffer@@@std@@@2@@std@@QAEPAU?$_Tree_node@U?$pair@$$CBKVsizedBuffer@@@std@@PAX@2@XZ 00416e40 f i Csndi.obj
 0001:00015ef0       ?_Destroy_if_not_nil@?$_Tree@V?$_Tmap_traits@KVsizedBuffer@@U?$less@K@std@@V?$allocator@U?$pair@$$CBKVsizedBuffer@@@std@@@3@$0A@@std@@@std@@IAEXPAU?$_Tree_node@U?$pair@$$CBKVsizedBuffer@@@std@@PAX@2@@Z 00416ef0 f i Csndi.obj
 0001:00015f50       ?CSNetCli_Call@@YA_NH@Z    00416f50 f   Csnetcli.obj
 0001:00016020       ?CSNetCli_CallAccepted@@YAXE@Z 00417020 f   Csnetcli.obj
 0001:000160d0       ?CSNetCli_DevDisconnect@@YAXH@Z 004170d0 f   Csnetcli.obj
 0001:00016100       ?CSNetCli_DevWrite@@YAXJ@Z 00417100 f   Csnetcli.obj
 0001:00016160       ?CSNetCli_NotifyResult@@YAXXZ 00417160 f   Csnetcli.obj
 0001:000161b0       ?CSNetCli_RxData@@YAXPADH@Z 004171b0 f   Csnetcli.obj
 0001:00016300       ?CSNetCli_SendPollFile@@YAXHHPAD@Z 00417300 f   Csnetcli.obj
 0001:00016390       ?CSNetCli_SendRequest@@YAXPAD@Z 00417390 f   Csnetcli.obj
 0001:00016460       ?CSNetCli_SessionQHandler@@YAXXZ 00417460 f   Csnetcli.obj
 0001:00016590       ?CSNetCli_TxData@@YAXXZ    00417590 f   Csnetcli.obj
 0001:000165d0       ?CSNetCli_TxSessionRequest@@YAXPAD@Z 004175d0 f   Csnetcli.obj
 0001:00016760       ?CSNetMsg_Call@@YAXPAU_NCB@@@Z 00417760 f   CSNETMSG.obj
 0001:00016810       ?CSNetMsg_Listen@@YAXPAU_NCB@@@Z 00417810 f   CSNETMSG.obj
 0001:00016890       ?CSNetMsg_NetMsgRx@@YAXIJ@Z 00417890 f   CSNETMSG.obj
 0001:00016ac0       ?CSNetMsg_Receive@@YAXPAU_NCB@@@Z 00417ac0 f   CSNETMSG.obj
 0001:00016b60       ?CSNetMsg_Send@@YAXPAU_NCB@@@Z 00417b60 f   CSNETMSG.obj
 0001:00016bc0       ?CSNetMsg_SendDG@@YAXPAU_NCB@@@Z 00417bc0 f   CSNETMSG.obj
 0001:00016c10       ?CSNetSes_ClientClosing@@YAXI@Z 00417c10 f   Csnetses.obj
 0001:00016c30       ?CSNetSes_CloseFile@@YAXXZ 00417c30 f   Csnetses.obj
 0001:00016c60       ?CSNetSes_Closedown@@YAXXZ 00417c60 f   Csnetses.obj
 0001:00016ce0       ?CSNetSes_DespatchPollFile@@YAXXZ 00417ce0 f   Csnetses.obj
 0001:00016d80       ?CSNetSes_FlushQ@@YAXXZ    00417d80 f   Csnetses.obj
 0001:00016dc0       ?CSNetSes_HangUp@@YAXXZ    00417dc0 f   Csnetses.obj
 0001:00016e30       ?CSNetSes_Init@@YAXXZ      00417e30 f   Csnetses.obj
 0001:00016ef0       ?CSNetSes_MakeDirFile@@YAHXZ 00417ef0 f   Csnetses.obj
 0001:00017120       ?CSNetSes_OpenReadFile@@YAXXZ 00418120 f   Csnetses.obj
 0001:000171a0       ?CSNetSes_OpenWriteFile@@YAXXZ 004181a0 f   Csnetses.obj
 0001:000171f0       ?CSNetSes_PostRx@@YAXXZ    004181f0 f   Csnetses.obj
 0001:00017270       ?CSNetSes_RdyToTx@@YAXXZ   00418270 f   Csnetses.obj
 0001:00017290       ?CSNetSes_ReadFile@@YAXXZ  00418290 f   Csnetses.obj
 0001:000173d0       ?CSNetSes_Receive@@YAXPADH@Z 004183d0 f   Csnetses.obj
 0001:00017400       ?CSNetSes_Send@@YAHPADH@Z  00418400 f   Csnetses.obj
 0001:00017490       ?CSNetSes_SessionClear@@YAXXZ 00418490 f   Csnetses.obj
 0001:00017560       ?CSNetSes_SessionClosed@@YAXXZ 00418560 f   Csnetses.obj
 0001:000175c0       ?CSNetSes_TimeoutChk@@YAXXZ 004185c0 f   Csnetses.obj
 0001:000177a0       ?CSNetSes_WriteFile@@YAXPADH@Z 004187a0 f   Csnetses.obj
 0001:00017820       ?CSNetSrv_ListenAccepted@@YAXE@Z 00418820 f   Csnetsrv.obj
 0001:00017870       ?CSNetSrv_PostListen@@YAXXZ 00418870 f   Csnetsrv.obj
 0001:00017920       ?CSNetSrv_RxData@@YAXPADH@Z 00418920 f   Csnetsrv.obj
 0001:00017ca0       ?CSNetSrv_TxData@@YAXXZ    00418ca0 f   Csnetsrv.obj
 0001:00017cd0       ?CSNetSup_CloseClient@@YAXXZ 00418cd0 f   Csnetsup.obj
 0001:00017d40       ?CSNetSup_CloseDriver@@YAXXZ 00418d40 f   Csnetsup.obj
 0001:00017db0       ?CSNetSup_ClosePktRec@@YAXXZ 00418db0 f   Csnetsup.obj
 0001:00017e20       ?CSNetSup_Closedown@@YAXXZ 00418e20 f   Csnetsup.obj
 0001:00017e90       ?CSNetSup_Init@@YAHXZ      00418e90 f   Csnetsup.obj
 0001:00018190       ?CSNetSup_InitClient@@YAXXZ 00419190 f   Csnetsup.obj
 0001:00018320       ?CSNetSup_InitDriver@@YAXXZ 00419320 f   Csnetsup.obj
 0001:00018460       ?CSNetSup_InitPktRec@@YAXXZ 00419460 f   Csnetsup.obj
 0001:000185e0       ?CSNetSup_NetReset@@YAXXZ  004195e0 f   Csnetsup.obj
 0001:00018690       ?CSNetSup_NetSendDG@@YAHPBDPADH@Z 00419690 f   Csnetsup.obj
 0001:00018740       ?CSNetSup_SendToClients@@YAXPADH_N@Z 00419740 f   Csnetsup.obj
 0001:00018790       ?CSParser_ParseCmd@@YAXPADH_N@Z 00419790 f   CSPARSER.obj
 0001:00018a00       ?CSProf_DevCreate@@YAXHHHH@Z 00419a00 f   Csprof.obj
 0001:00018eb0       ?CSProf_Init@@YAXXZ        00419eb0 f   Csprof.obj
 0001:0001aba0       ?CSProf_LoadRedundancyMaster@@YAXXZ 0041bba0 f   Csprof.obj
 0001:0001ae30       ?CSProf_ReadWinPos@@YAXXZ  0041be30 f   Csprof.obj
 0001:0001af20       ?CSProf_WriteWinPos@@YAXJ@Z 0041bf20 f   Csprof.obj
 0001:0001afd0       ?CSReg_AddClientDevReg@@YAXIJ@Z 0041bfd0 f   Csreg.obj
 0001:0001b1f0       ?CSReg_CheckForClientName@@YAHPAD@Z 0041c1f0 f   Csreg.obj
 0001:0001b310       ?CSReg_Closedown@@YAXXZ    0041c310 f   Csreg.obj
 0001:0001b3c0       ?CSReg_ClrClientAllDevReg@@YAXPAUHWND__@@@Z 0041c3c0 f   Csreg.obj
 0001:0001b430       ?CSReg_ClrClientDevReg@@YAXPAUHWND__@@H@Z 0041c430 f   Csreg.obj
 0001:0001b570       ?CSReg_DistributeNetMsgUpdate@@YAXPAD@Z 0041c570 f   Csreg.obj
 0001:0001b6a0       ?CSReg_GetBottomWindow@@YAPAUHWND__@@XZ 0041c6a0 f   Csreg.obj
 0001:0001b6e0       ?CSReg_GetClientDevIdx@@YAHHH@Z 0041c6e0 f   Csreg.obj
 0001:0001b740       ?CSReg_GetClientRegIdx@@YAHPAUHWND__@@@Z 0041c740 f   Csreg.obj
 0001:0001b780       ?CSReg_GetRegExtent@@YAJH@Z 0041c780 f   Csreg.obj
 0001:0001b8b0       ?CSReg_Init@@YAXXZ         0041c8b0 f   Csreg.obj
 0001:0001b910       ?CSReg_IsClientRegForDevIdx@@YAHHGG@Z 0041c910 f   Csreg.obj
 0001:0001b9c0       ?CSReg_RegClient@@YAHPAUHWND__@@E@Z 0041c9c0 f   Csreg.obj
 0001:0001bba0       ?CSReg_RegNetMsgUpdate@@YA_NPAUHWND__@@@Z 0041cba0 f   Csreg.obj
 0001:0001bc10       ?CSReg_RegNetTxRxStatus@@YA_NPAUHWND__@@@Z 0041cc10 f   Csreg.obj
 0001:0001bc80       ?CSReg_RemClientDevReg@@YAXIJ@Z 0041cc80 f   Csreg.obj
 0001:0001be70       ?CSReg_UnRegDevice@@YAXIJ@Z 0041ce70 f   Csreg.obj
 0001:0001bef0       ?CSReg_UnregClient@@YAXI@Z 0041cef0 f   Csreg.obj
 0001:0001c080       ?CSReg_UnregNetMsgUpdate@@YA_NPAUHWND__@@@Z 0041d080 f   Csreg.obj
 0001:0001c0d0       ?CSReg_UnregNetTxRxStatus@@YA_NPAUHWND__@@@Z 0041d0d0 f   Csreg.obj
 0001:0001c120       ?CSReg_UpdateClient@@YAXHGHPADHH@Z 0041d120 f   Csreg.obj
 0001:0001c230       ?BNCSSendMessage@@YAJPAUHWND__@@0IIJHHHE@Z 0041d230 f   CSSNDMSG.obj
 0001:0001c2d0       ?Add_CRLF@@YAXPAD@Z        0041d2d0 f   CSSUFU.obj
 0001:0001c300       ?FileExists@@YAHPAD@Z      0041d300 f   CSSUFU.obj
 0001:0001c330       ?FileIsNewer@@YAHPAD0@Z    0041d330 f   CSSUFU.obj
 0001:0001c3f0       ?GetArguments@@YAXPBDH@Z   0041d3f0 f   CSSUFU.obj
 0001:0001c4f0       ?ODM@@YAXH@Z               0041d4f0 f   CSSUFU.obj
 0001:0001c560       ?ODS@@YAXPAD@Z             0041d560 f   CSSUFU.obj
 0001:0001c5b0       ?OSM@@YAXPAD@Z             0041d5b0 f   CSSUFU.obj
 0001:0001c5c0       ?RemoveWildcards@@YAXPAD@Z 0041d5c0 f   CSSUFU.obj
 0001:0001c600       ?ods@@YAXPBDZZ             0041d600 f   CSSUFU.obj
 0001:0001c670       ??$_Buynode@ABVdeviceStatusOnHost@@@?$_List_buy@VdeviceStatusOnHost@@V?$allocator@VdeviceStatusOnHost@@@std@@@std@@QAEPAU?$_List_node@VdeviceStatusOnHost@@PAX@1@PAU21@0ABVdeviceStatusOnHost@@@Z 0041d670 f i deviceStatus.obj
 0001:0001c700       ??$_Buynode@U?$pair@HVdeviceStatusOnHost@@@std@@@?$_Tree_buy@U?$pair@$$CBHVdeviceStatusOnHost@@@std@@V?$allocator@U?$pair@$$CBHVdeviceStatusOnHost@@@std@@@2@@std@@QAEPAU?$_Tree_node@U?$pair@$$CBHVdeviceStatusOnHost@@@std@@PAX@1@$$QAU?$pair@HVdeviceStatusOnHost@@@1@@Z 0041d700 f i deviceStatus.obj
 0001:0001c790       ??$_Insert_at@AAU?$pair@$$CBHVdeviceStatusOnHost@@@std@@PAU?$_Tree_node@U?$pair@$$CBHVdeviceStatusOnHost@@@std@@PAX@2@@?$_Tree@V?$_Tmap_traits@HVdeviceStatusOnHost@@U?$less@H@std@@V?$allocator@U?$pair@$$CBHVdeviceStatusOnHost@@@std@@@3@$0A@@std@@@std@@IAE?AV?$_Tree_iterator@V?$_Tree_val@U?$_Tree_simple_types@U?$pair@$$CBHVdeviceStatusOnHost@@@std@@@std@@@std@@@1@_NPAU?$_Tree_node@U?$pair@$$CBHVdeviceStatusOnHost@@@std@@PAX@1@AAU?$pair@$$CBHVdeviceStatusOnHost@@@1@1@Z 0041d790 f i deviceStatus.obj
 0001:0001c9a0       ??$_Insert_nohint@AAU?$pair@$$CBHVdeviceStatusOnHost@@@std@@PAU?$_Tree_node@U?$pair@$$CBHVdeviceStatusOnHost@@@std@@PAX@2@@?$_Tree@V?$_Tmap_traits@HVdeviceStatusOnHost@@U?$less@H@std@@V?$allocator@U?$pair@$$CBHVdeviceStatusOnHost@@@std@@@3@$0A@@std@@@std@@IAE?AU?$pair@V?$_Tree_iterator@V?$_Tree_val@U?$_Tree_simple_types@U?$pair@$$CBHVdeviceStatusOnHost@@@std@@@std@@@std@@@std@@_N@1@_NAAU?$pair@$$CBHVdeviceStatusOnHost@@@1@PAU?$_Tree_node@U?$pair@$$CBHVdeviceStatusOnHost@@@std@@PAX@1@@Z 0041d9a0 f i deviceStatus.obj
 0001:0001cab0       ??$construct@U?$pair@$$CBHVdeviceStatusOnHost@@@std@@U?$pair@HVdeviceStatusOnHost@@@2@@?$_Wrap_alloc@V?$allocator@U?$_Tree_node@U?$pair@$$CBHVdeviceStatusOnHost@@@std@@PAX@std@@@std@@@std@@QAEXPAU?$pair@$$CBHVdeviceStatusOnHost@@@1@$$QAU?$pair@HVdeviceStatusOnHost@@@1@@Z 0041dab0 f i deviceStatus.obj
 0001:0001cb20       ??$construct@VdeviceStatusOnHost@@ABV1@@?$_Wrap_alloc@V?$allocator@U?$_List_node@VdeviceStatusOnHost@@PAX@std@@@std@@@std@@QAEXPAVdeviceStatusOnHost@@ABV2@@Z 0041db20 f i deviceStatus.obj
 0001:0001cb80       ??0deviceStatus@@QAE@H@Z   0041db80 f   deviceStatus.obj
 0001:0001cc00       ??1deviceStatus@@UAE@XZ    0041dc00 f   deviceStatus.obj
 0001:0001cc80       ??_GdeviceStatus@@UAEPAXI@Z 0041dc80 f i deviceStatus.obj
 0001:0001cc80       ??_EdeviceStatus@@UAEPAXI@Z 0041dc80 f i deviceStatus.obj
 0001:0001ccb0       ?_Buyheadnode@?$_Tree_alloc@$0A@U?$_Tree_base_types@U?$pair@$$CBHVdeviceStatusOnHost@@@std@@V?$allocator@U?$pair@$$CBHVdeviceStatusOnHost@@@std@@@2@@std@@@std@@QAEPAU?$_Tree_node@U?$pair@$$CBHVdeviceStatusOnHost@@@std@@PAX@2@XZ 0041dcb0 f i deviceStatus.obj
 0001:0001cd70       ?_Buynode0@?$_Tree_buy@U?$pair@$$CBHVdeviceStatusOnHost@@@std@@V?$allocator@U?$pair@$$CBHVdeviceStatusOnHost@@@std@@@2@@std@@QAEPAU?$_Tree_node@U?$pair@$$CBHVdeviceStatusOnHost@@@std@@PAX@2@XZ 0041dd70 f i deviceStatus.obj
 0001:0001ce20       ?_Rrotate@?$_Tree@V?$_Tmap_traits@HVdeviceStatusOnHost@@U?$less@H@std@@V?$allocator@U?$pair@$$CBHVdeviceStatusOnHost@@@std@@@3@$0A@@std@@@std@@IAEXPAU?$_Tree_node@U?$pair@$$CBHVdeviceStatusOnHost@@@std@@PAX@2@@Z 0041de20 f i deviceStatus.obj
 0001:0001ce20       ?_Rrotate@?$_Tree@V?$_Tmap_traits@HV?$basic_string@DU?$char_traits@D@std@@V?$allocator@D@2@@std@@U?$less@H@2@V?$allocator@U?$pair@$$CBHV?$basic_string@DU?$char_traits@D@std@@V?$allocator@D@2@@std@@@std@@@2@$0A@@std@@@std@@IAEXPAU?$_Tree_node@U?$pair@$$CBHV?$basic_string@DU?$char_traits@D@std@@V?$allocator@D@2@@std@@@std@@PAX@2@@Z 0041de20 f i database.obj
 0001:0001ce20       ?_Rrotate@?$_Tree@V?$_Tmap_traits@KKU?$less@K@std@@V?$allocator@U?$pair@$$CBKK@std@@@2@$0A@@std@@@std@@IAEXPAU?$_Tree_node@U?$pair@$$CBKK@std@@PAX@2@@Z 0041de20 f i supersededMemory.obj
 0001:0001ce20       ?_Rrotate@?$_Tree@V?$_Tmap_traits@GVserialError@@U?$less@G@std@@V?$allocator@U?$pair@$$CBGVserialError@@@std@@@3@$00@std@@@std@@IAEXPAU?$_Tree_node@U?$pair@$$CBGVserialError@@@std@@PAX@2@@Z 0041de20 f i Cscmd.obj
 0001:0001ce20       ?_Rrotate@?$_Tree@V?$_Tmap_traits@PAUHWND__@@KU?$less@PAUHWND__@@@std@@V?$allocator@U?$pair@QAUHWND__@@K@std@@@3@$0A@@std@@@std@@IAEXPAU?$_Tree_node@U?$pair@QAUHWND__@@K@std@@PAX@2@@Z 0041de20 f i externalsListDialog.obj
 0001:0001ce20       ?_Rrotate@?$_Tree@V?$_Tset_traits@HU?$less@H@std@@V?$allocator@H@2@$0A@@std@@@std@@IAEXPAU?$_Tree_node@HPAX@2@@Z 0041de20 f i closedDriversList.obj
 0001:0001ce20       ?_Rrotate@?$_Tree@V?$_Tmap_traits@HPAVdatabase@@U?$less@H@std@@V?$allocator@U?$pair@$$CBHPAVdatabase@@@std@@@3@$0A@@std@@@std@@IAEXPAU?$_Tree_node@U?$pair@$$CBHPAVdatabase@@@std@@PAX@2@@Z 0041de20 f i databaseMgr.obj
 0001:0001ce20       ?_Rrotate@?$_Tree@V?$_Tmap_traits@KVsizedBuffer@@U?$less@K@std@@V?$allocator@U?$pair@$$CBKVsizedBuffer@@@std@@@3@$0A@@std@@@std@@IAEXPAU?$_Tree_node@U?$pair@$$CBKVsizedBuffer@@@std@@PAX@2@@Z 0041de20 f i Csimain.obj
 0001:0001ce80       ?decrementTimeout@deviceStatus@@QAE_NH@Z 0041de80 f   deviceStatus.obj
 0001:0001cf10       ?deviceRemove@deviceStatus@@QAE_NH@Z 0041df10 f   deviceStatus.obj
 0001:0001cf70       ?deviceUpdate@deviceStatus@@QAE_NHHH@Z 0041df70 f   deviceStatus.obj
 0001:0001d020       ?status@deviceStatus@@QAEXAAV?$list@VdeviceStatusOnHost@@V?$allocator@VdeviceStatusOnHost@@@std@@@std@@@Z 0041e020 f   deviceStatus.obj
 0001:0001d0d0       ??$_Buynode@ABUpiecewise_construct_t@std@@V?$tuple@ABQAUHWND__@@@2@V?$tuple@$$$V@2@@?$_Tree_buy@U?$pair@QAUHWND__@@K@std@@V?$allocator@U?$pair@QAUHWND__@@K@std@@@2@@std@@QAEPAU?$_Tree_node@U?$pair@QAUHWND__@@K@std@@PAX@1@ABUpiecewise_construct_t@1@$$QAV?$tuple@ABQAUHWND__@@@1@$$QAV?$tuple@$$$V@1@@Z 0041e0d0 f i externalsListDialog.obj
 0001:0001d160       ??$_Insert_hint@AAU?$pair@QAUHWND__@@K@std@@PAU?$_Tree_node@U?$pair@QAUHWND__@@K@std@@PAX@2@@?$_Tree@V?$_Tmap_traits@PAUHWND__@@KU?$less@PAUHWND__@@@std@@V?$allocator@U?$pair@QAUHWND__@@K@std@@@3@$0A@@std@@@std@@IAE?AV?$_Tree_iterator@V?$_Tree_val@U?$_Tree_simple_types@U?$pair@QAUHWND__@@K@std@@@std@@@std@@@1@V?$_Tree_const_iterator@V?$_Tree_val@U?$_Tree_simple_types@U?$pair@QAUHWND__@@K@std@@@std@@@std@@@1@AAU?$pair@QAUHWND__@@K@1@PAU?$_Tree_node@U?$pair@QAUHWND__@@K@std@@PAX@1@@Z 0041e160 f i externalsListDialog.obj
 0001:0001d2c0       ??$construct@U?$pair@QAUHWND__@@K@std@@ABUpiecewise_construct_t@2@V?$tuple@ABQAUHWND__@@@2@V?$tuple@$$$V@2@@?$_Wrap_alloc@V?$allocator@U?$_Tree_node@U?$pair@QAUHWND__@@K@std@@PAX@std@@@std@@@std@@QAEXPAU?$pair@QAUHWND__@@K@1@ABUpiecewise_construct_t@1@$$QAV?$tuple@ABQAUHWND__@@@1@$$QAV?$tuple@$$$V@1@@Z 0041e2c0 f i externalsListDialog.obj
 0001:0001d320       ??0externalsListDialog@@QAE@XZ 0041e320 f   externalsListDialog.obj
 0001:0001d3b0       ??1externalsListDialog@@UAE@XZ 0041e3b0 f   externalsListDialog.obj
 0001:0001d450       ??A?$map@PAUHWND__@@KU?$less@PAUHWND__@@@std@@V?$allocator@U?$pair@QAUHWND__@@K@std@@@3@@std@@QAEAAKABQAUHWND__@@@Z 0041e450 f i externalsListDialog.obj
 0001:0001d4e0       ??F?$_Tree_unchecked_const_iterator@V?$_Tree_val@U?$_Tree_simple_types@H@std@@@std@@U_Iterator_base0@2@@std@@QAEAAV01@XZ 0041e4e0 f i closedDriversList.obj
 0001:0001d4e0       ??F?$_Tree_unchecked_const_iterator@V?$_Tree_val@U?$_Tree_simple_types@U?$pair@$$CBKVsizedBuffer@@@std@@@std@@@std@@U_Iterator_base0@2@@std@@QAEAAV01@XZ 0041e4e0 f i Csndi.obj
 0001:0001d4e0       ??F?$_Tree_unchecked_const_iterator@V?$_Tree_val@U?$_Tree_simple_types@U?$pair@QAUHWND__@@K@std@@@std@@@std@@U_Iterator_base0@2@@std@@QAEAAV01@XZ 0041e4e0 f i externalsListDialog.obj
 0001:0001d4e0       ??F?$_Tree_unchecked_const_iterator@V?$_Tree_val@U?$_Tree_simple_types@U?$pair@$$CBHPAVdatabase@@@std@@@std@@@std@@U_Iterator_base0@2@@std@@QAEAAV01@XZ 0041e4e0 f i databaseMgr.obj
 0001:0001d4e0       ??F?$_Tree_unchecked_const_iterator@V?$_Tree_val@U?$_Tree_simple_types@U?$pair@$$CBHVdeviceStatusOnHost@@@std@@@std@@@std@@U_Iterator_base0@2@@std@@QAEAAV01@XZ 0041e4e0 f i deviceStatus.obj
 0001:0001d4e0       ??F?$_Tree_unchecked_const_iterator@V?$_Tree_val@U?$_Tree_simple_types@U?$pair@$$CBKK@std@@@std@@@std@@U_Iterator_base0@2@@std@@QAEAAV01@XZ 0041e4e0 f i supersededMemory.obj
 0001:0001d4e0       ??F?$_Tree_unchecked_const_iterator@V?$_Tree_val@U?$_Tree_simple_types@U?$pair@$$CBHV?$basic_string@DU?$char_traits@D@std@@V?$allocator@D@2@@std@@@std@@@std@@@std@@U_Iterator_base0@2@@std@@QAEAAV01@XZ 0041e4e0 f i database.obj
 0001:0001d540       ??_GexternalsListDialog@@UAEPAXI@Z 0041e540 f i externalsListDialog.obj
 0001:0001d540       ??_EexternalsListDialog@@UAEPAXI@Z 0041e540 f i externalsListDialog.obj
 0001:0001d570       ?EnumChildProc@@YGHPAUHWND__@@J@Z 0041e570 f   externalsListDialog.obj
 0001:0001d5b0       ?addClient@externalsListDialog@@QAEXPAUHWND__@@H@Z 0041e5b0 f   externalsListDialog.obj
 0001:0001d610       ?addDriver@externalsListDialog@@QAEXHPAUHWND__@@H@Z 0041e610 f   externalsListDialog.obj
 0001:0001d6a0       ?addHWNDToList@externalsListDialog@@AAEHPAUHWND__@@0@Z 0041e6a0 f   externalsListDialog.obj
 0001:0001d8c0       ?clear@?$_Tree@V?$_Tmap_traits@HVdeviceStatusOnHost@@U?$less@H@std@@V?$allocator@U?$pair@$$CBHVdeviceStatusOnHost@@@std@@@3@$0A@@std@@@std@@QAEXXZ 0041e8c0 f i deviceStatus.obj
 0001:0001d8c0       ?clear@?$_Tree@V?$_Tmap_traits@KKU?$less@K@std@@V?$allocator@U?$pair@$$CBKK@std@@@2@$0A@@std@@@std@@QAEXXZ 0041e8c0 f i supersededMemory.obj
 0001:0001d8c0       ?clear@?$_Tree@V?$_Tmap_traits@HPAVdatabase@@U?$less@H@std@@V?$allocator@U?$pair@$$CBHPAVdatabase@@@std@@@3@$0A@@std@@@std@@QAEXXZ 0041e8c0 f i databaseMgr.obj
 0001:0001d8c0       ?clear@?$_Tree@V?$_Tmap_traits@PAUHWND__@@KU?$less@PAUHWND__@@@std@@V?$allocator@U?$pair@QAUHWND__@@K@std@@@3@$0A@@std@@@std@@QAEXXZ 0041e8c0 f i externalsListDialog.obj
 0001:0001d8c0       ?clear@?$_Tree@V?$_Tset_traits@HU?$less@H@std@@V?$allocator@H@2@$0A@@std@@@std@@QAEXXZ 0041e8c0 f i closedDriversList.obj
 0001:0001d910       ?erase@?$_Tree@V?$_Tmap_traits@HPAVdatabase@@U?$less@H@std@@V?$allocator@U?$pair@$$CBHPAVdatabase@@@std@@@3@$0A@@std@@@std@@QAE?AV?$_Tree_iterator@V?$_Tree_val@U?$_Tree_simple_types@U?$pair@$$CBHPAVdatabase@@@std@@@std@@@std@@@2@V?$_Tree_const_iterator@V?$_Tree_val@U?$_Tree_simple_types@U?$pair@$$CBHPAVdatabase@@@std@@@std@@@std@@@2@@Z 0041e910 f i databaseMgr.obj
 0001:0001d910       ?erase@?$_Tree@V?$_Tmap_traits@HVdeviceStatusOnHost@@U?$less@H@std@@V?$allocator@U?$pair@$$CBHVdeviceStatusOnHost@@@std@@@3@$0A@@std@@@std@@QAE?AV?$_Tree_iterator@V?$_Tree_val@U?$_Tree_simple_types@U?$pair@$$CBHVdeviceStatusOnHost@@@std@@@std@@@std@@@2@V?$_Tree_const_iterator@V?$_Tree_val@U?$_Tree_simple_types@U?$pair@$$CBHVdeviceStatusOnHost@@@std@@@std@@@std@@@2@@Z 0041e910 f i deviceStatus.obj
 0001:0001d910       ?erase@?$_Tree@V?$_Tmap_traits@PAUHWND__@@KU?$less@PAUHWND__@@@std@@V?$allocator@U?$pair@QAUHWND__@@K@std@@@3@$0A@@std@@@std@@QAE?AV?$_Tree_iterator@V?$_Tree_val@U?$_Tree_simple_types@U?$pair@QAUHWND__@@K@std@@@std@@@std@@@2@V?$_Tree_const_iterator@V?$_Tree_val@U?$_Tree_simple_types@U?$pair@QAUHWND__@@K@std@@@std@@@std@@@2@@Z 0041e910 f i externalsListDialog.obj
 0001:0001d910       ?erase@?$_Tree@V?$_Tmap_traits@KKU?$less@K@std@@V?$allocator@U?$pair@$$CBKK@std@@@2@$0A@@std@@@std@@QAE?AV?$_Tree_iterator@V?$_Tree_val@U?$_Tree_simple_types@U?$pair@$$CBKK@std@@@std@@@std@@@2@V?$_Tree_const_iterator@V?$_Tree_val@U?$_Tree_simple_types@U?$pair@$$CBKK@std@@@std@@@std@@@2@@Z 0041e910 f i supersededMemory.obj
 0001:0001d910       ?erase@?$_Tree@V?$_Tset_traits@HU?$less@H@std@@V?$allocator@H@2@$0A@@std@@@std@@QAE?AV?$_Tree_const_iterator@V?$_Tree_val@U?$_Tree_simple_types@H@std@@@std@@@2@V32@@Z 0041e910 f i closedDriversList.obj
 0001:0001db80       ?externalsListWndProc@externalsListDialog@@CGHPAUHWND__@@GGJ@Z 0041eb80 f   externalsListDialog.obj
 0001:0001dce0       ?getModuleName@externalsListDialog@@AAEXPAUHWND__@@PADH@Z 0041ece0 f   externalsListDialog.obj
 0001:0001deb0       ?hide@externalsListDialog@@QAEXXZ 0041eeb0 f   externalsListDialog.obj
 0001:0001dee0       ?init@externalsListDialog@@QAEXPAUHINSTANCE__@@PAUHWND__@@@Z 0041eee0 f   externalsListDialog.obj
 0001:0001df00       ?load@externalsListDialog@@AAEXXZ 0041ef00 f   externalsListDialog.obj
 0001:0001df70       ?removeClient@externalsListDialog@@QAEXPAUHWND__@@@Z 0041ef70 f   externalsListDialog.obj
 0001:0001df90       ?removeDriver@externalsListDialog@@QAEXPAUHWND__@@@Z 0041ef90 f   externalsListDialog.obj
 0001:0001dfb0       ?removeHWNDFromList@externalsListDialog@@AAEXPAUHWND__@@0@Z 0041efb0 f   externalsListDialog.obj
 0001:0001e080       ?setSize@externalsListDialog@@QAEXHH@Z 0041f080 f   externalsListDialog.obj
 0001:0001e110       ?setTime@externalsListDialog@@QAEXPAUHWND__@@K@Z 0041f110 f   externalsListDialog.obj
 0001:0001e2a0       ?show@externalsListDialog@@QAEXXZ 0041f2a0 f   externalsListDialog.obj
 0001:0001e490       ?toggleShow@externalsListDialog@@QAEXXZ 0041f490 f   externalsListDialog.obj
 0001:0001e4a0       ??0CGetArguments@@QAE@PBDH@Z 0041f4a0 f   GetArguments.obj
 0001:0001e660       ??1CGetArguments@@UAE@XZ   0041f660 f   GetArguments.obj
 0001:0001e670       ??_ECGetArguments@@UAEPAXI@Z 0041f670 f i GetArguments.obj
 0001:0001e670       ??_GCGetArguments@@UAEPAXI@Z 0041f670 f i GetArguments.obj
 0001:0001e6a0       ??$_Buynode@ABUpiecewise_construct_t@std@@V?$tuple@ABK@2@V?$tuple@$$$V@2@@?$_Tree_buy@U?$pair@$$CBKVsizedBuffer@@@std@@V?$allocator@U?$pair@$$CBKVsizedBuffer@@@std@@@2@@std@@QAEPAU?$_Tree_node@U?$pair@$$CBKVsizedBuffer@@@std@@PAX@1@ABUpiecewise_construct_t@1@$$QAV?$tuple@ABK@1@$$QAV?$tuple@$$$V@1@@Z 0041f6a0 f i networkInterfaceImpl.obj
 0001:0001e730       ??$_Buynode@VserialError@@@?$_List_buy@VserialError@@V?$allocator@VserialError@@@std@@@std@@QAEPAU?$_List_node@VserialError@@PAX@1@PAU21@0$$QAVserialError@@@Z 0041f730 f i networkInterfaceImpl.obj
 0001:0001e7c0       ??$_Insert_hint@AAU?$pair@$$CBKVsizedBuffer@@@std@@PAU?$_Tree_node@U?$pair@$$CBKVsizedBuffer@@@std@@PAX@2@@?$_Tree@V?$_Tmap_traits@KVsizedBuffer@@U?$less@K@std@@V?$allocator@U?$pair@$$CBKVsizedBuffer@@@std@@@3@$0A@@std@@@std@@IAE?AV?$_Tree_iterator@V?$_Tree_val@U?$_Tree_simple_types@U?$pair@$$CBKVsizedBuffer@@@std@@@std@@@std@@@1@V?$_Tree_const_iterator@V?$_Tree_val@U?$_Tree_simple_types@U?$pair@$$CBKVsizedBuffer@@@std@@@std@@@std@@@1@AAU?$pair@$$CBKVsizedBuffer@@@1@PAU?$_Tree_node@U?$pair@$$CBKVsizedBuffer@@@std@@PAX@1@@Z 0041f7c0 f i networkInterfaceImpl.obj
 0001:0001e940       ??$construct@U?$pair@$$CBKVsizedBuffer@@@std@@ABUpiecewise_construct_t@2@V?$tuple@ABK@2@V?$tuple@$$$V@2@@?$_Wrap_alloc@V?$allocator@U?$_Tree_node@U?$pair@$$CBKVsizedBuffer@@@std@@PAX@std@@@std@@@std@@QAEXPAU?$pair@$$CBKVsizedBuffer@@@1@ABUpiecewise_construct_t@1@$$QAV?$tuple@ABK@1@$$QAV?$tuple@$$$V@1@@Z 0041f940 f i networkInterfaceImpl.obj
 0001:0001e9b0       ??$construct@VserialError@@V1@@?$_Wrap_alloc@V?$allocator@U?$_List_node@VserialError@@PAX@std@@@std@@@std@@QAEXPAVserialError@@$$QAV2@@Z 0041f9b0 f i networkInterfaceImpl.obj
 0001:0001ea10       ??$make_pair@AAKAAVsizedBuffer@@@std@@YA?AU?$pair@KVsizedBuffer@@@0@AAKAAVsizedBuffer@@@Z 0041fa10 f i networkInterfaceImpl.obj
 0001:0001ea70       ??$make_pair@AAKVsizedBuffer@@@std@@YA?AU?$pair@KVsizedBuffer@@@0@AAK$$QAVsizedBuffer@@@Z 0041fa70 f i networkInterfaceImpl.obj
 0001:0001ea70       ??$make_pair@KVsizedBuffer@@@std@@YA?AU?$pair@KVsizedBuffer@@@0@$$QAK$$QAVsizedBuffer@@@Z 0041fa70 f i Csndi.obj
 0001:0001ead0       ??A?$map@KVsizedBuffer@@U?$less@K@std@@V?$allocator@U?$pair@$$CBKVsizedBuffer@@@std@@@3@@std@@QAEAAVsizedBuffer@@ABK@Z 0041fad0 f i networkInterfaceImpl.obj
 0001:0001eb60       ?find@?$_Tree@V?$_Tmap_traits@KVsizedBuffer@@U?$less@K@std@@V?$allocator@U?$pair@$$CBKVsizedBuffer@@@std@@@3@$0A@@std@@@std@@QAE?AV?$_Tree_iterator@V?$_Tree_val@U?$_Tree_simple_types@U?$pair@$$CBKVsizedBuffer@@@std@@@std@@@std@@@2@ABK@Z 0041fb60 f i networkInterfaceImpl.obj
 0001:0001ebb0       ?netRx@networkInterfaceImpl@@SAXPBEH@Z 0041fbb0 f   networkInterfaceImpl.obj
 0001:0001f4e0       ?push_back@?$list@VserialError@@V?$allocator@VserialError@@@std@@@std@@QAEX$$QAVserialError@@@Z 004204e0 f i networkInterfaceImpl.obj
 0001:0001f530       ?setCorrected@serialError@@QAE_NK@Z 00420530 f i networkInterfaceImpl.obj
 0001:0001f570       ??0pktRecoveryDialog@@QAE@XZ 00420570 f   pktRecoveryDialog.obj
 0001:0001f580       ??1pktRecoveryDialog@@UAE@XZ 00420580 f   pktRecoveryDialog.obj
 0001:0001f5a0       ??_EpktRecoveryDialog@@UAEPAXI@Z 004205a0 f i pktRecoveryDialog.obj
 0001:0001f5a0       ??_GpktRecoveryDialog@@UAEPAXI@Z 004205a0 f i pktRecoveryDialog.obj
 0001:0001f5d0       ?init@pktRecoveryDialog@@QAEXPAUHINSTANCE__@@PAUHWND__@@@Z 004205d0 f   pktRecoveryDialog.obj
 0001:0001f600       ?pktRecoveryWndProc@pktRecoveryDialog@@CGHPAUHWND__@@GGJ@Z 00420600 f   pktRecoveryDialog.obj
 0001:0001f720       ?show@pktRecoveryDialog@@QAEXXZ 00420720 f   pktRecoveryDialog.obj
 0001:0001f750       ?GetEnvironmentType@@YAHXZ 00420750 f   PROFILE.obj
 0001:0001f7b0       ?GetINIPath@@YAPADPBD@Z    004207b0 f   PROFILE.obj
 0001:0001f860       ?GetPrivateINIString@@YAXPBD00PADKQAD@Z 00420860 f   PROFILE.obj
 0001:0001f910       ?GetTempPathA@@YAPADXZ     00420910 f   PROFILE.obj
 0001:0001f9c0       ?WritePrivateINIString@@YAXPBD000@Z 004209c0 f   PROFILE.obj
 0001:0001fb40       ??0sizedBuffer@@QAE@$$QAV0@@Z 00420b40 f   sizedBuffer.obj
 0001:0001fb80       ??0sizedBuffer@@QAE@ABV0@@Z 00420b80 f   sizedBuffer.obj
 0001:0001fba0       ??0sizedBuffer@@QAE@PBEHH@Z 00420ba0 f   sizedBuffer.obj
 0001:0001fc00       ??0sizedBuffer@@QAE@XZ     00420c00 f   sizedBuffer.obj
 0001:0001fc20       ??1sizedBuffer@@UAE@XZ     00420c20 f   sizedBuffer.obj
 0001:0001fc50       ??_EsizedBuffer@@UAEPAXI@Z 00420c50 f i sizedBuffer.obj
 0001:0001fc50       ??_GsizedBuffer@@UAEPAXI@Z 00420c50 f i sizedBuffer.obj
 0001:0001fc80       ?data@sizedBuffer@@QBEPBEXZ 00420c80 f   sizedBuffer.obj
 0001:0001fc90       ?doCopy@sizedBuffer@@AAEXABV1@@Z 00420c90 f   sizedBuffer.obj
 0001:0001fd00       ?upTime@workstationStatus@@QAEKXZ 00420d00 f   workstationStatus.obj
 0001:0001fd00       ?hosts@deviceStatus@@QAEHXZ 00420d00 f   deviceStatus.obj
 0001:0001fd00       ?ref@sizedBuffer@@QBEHXZ   00420d00 f   sizedBuffer.obj
 0001:0001fd10       ?size@sizedBuffer@@QBEHXZ  00420d10 f   sizedBuffer.obj
 0001:0001fd10       ?numLoaded@databaseMgr@@QAEHXZ 00420d10 f   databaseMgr.obj
 0001:0001fd20       ?fnSplitString@@YAHPAD0HPAPAD@Z 00420d20 f   SplitString.obj
 0001:0001fe00       ??$_Insert_nohint@AAU?$pair@QAUHWND__@@K@std@@PAU?$_Tree_node@U?$pair@QAUHWND__@@K@std@@PAX@2@@?$_Tree@V?$_Tmap_traits@PAUHWND__@@KU?$less@PAUHWND__@@@std@@V?$allocator@U?$pair@QAUHWND__@@K@std@@@3@$0A@@std@@@std@@IAE?AU?$pair@V?$_Tree_iterator@V?$_Tree_val@U?$_Tree_simple_types@U?$pair@QAUHWND__@@K@std@@@std@@@std@@@std@@_N@1@_NAAU?$pair@QAUHWND__@@K@1@PAU?$_Tree_node@U?$pair@QAUHWND__@@K@std@@PAX@1@@Z 00420e00 f i externalsListDialog.obj
 0001:0001fe00       ??$_Insert_nohint@AAU?$pair@$$CBKK@std@@PAU?$_Tree_node@U?$pair@$$CBKK@std@@PAX@2@@?$_Tree@V?$_Tmap_traits@KKU?$less@K@std@@V?$allocator@U?$pair@$$CBKK@std@@@2@$0A@@std@@@std@@IAE?AU?$pair@V?$_Tree_iterator@V?$_Tree_val@U?$_Tree_simple_types@U?$pair@$$CBKK@std@@@std@@@std@@@std@@_N@1@_NAAU?$pair@$$CBKK@1@PAU?$_Tree_node@U?$pair@$$CBKK@std@@PAX@1@@Z 00420e00 f i supersededMemory.obj
 0001:0001ff10       ??0supersededMemory@@QAE@XZ 00420f10 f   supersededMemory.obj
 0001:0001ff90       ??1supersededMemory@@UAE@XZ 00420f90 f   supersededMemory.obj
 0001:00020020       ??_GsupersededMemory@@UAEPAXI@Z 00421020 f i supersededMemory.obj
 0001:00020020       ??_EsupersededMemory@@UAEPAXI@Z 00421020 f i supersededMemory.obj
 0001:00020050       ?_Buynode0@?$_Tree_buy@U?$pair@$$CBHPAVdatabase@@@std@@V?$allocator@U?$pair@$$CBHPAVdatabase@@@std@@@2@@std@@QAEPAU?$_Tree_node@U?$pair@$$CBHPAVdatabase@@@std@@PAX@2@XZ 00421050 f i databaseMgr.obj
 0001:00020050       ?_Buynode0@?$_Tree_buy@U?$pair@$$CBKK@std@@V?$allocator@U?$pair@$$CBKK@std@@@2@@std@@QAEPAU?$_Tree_node@U?$pair@$$CBKK@std@@PAX@2@XZ 00421050 f i supersededMemory.obj
 0001:00020050       ?_Buynode0@?$_Tree_buy@U?$pair@QAUHWND__@@K@std@@V?$allocator@U?$pair@QAUHWND__@@K@std@@@2@@std@@QAEPAU?$_Tree_node@U?$pair@QAUHWND__@@K@std@@PAX@2@XZ 00421050 f i externalsListDialog.obj
 0001:00020100       ?_Erase@?$_Tree@V?$_Tmap_traits@KKU?$less@K@std@@V?$allocator@U?$pair@$$CBKK@std@@@2@$0A@@std@@@std@@IAEXPAU?$_Tree_node@U?$pair@$$CBKK@std@@PAX@2@@Z 00421100 f i supersededMemory.obj
 0001:00020100       ?_Erase@?$_Tree@V?$_Tmap_traits@HVdeviceStatusOnHost@@U?$less@H@std@@V?$allocator@U?$pair@$$CBHVdeviceStatusOnHost@@@std@@@3@$0A@@std@@@std@@IAEXPAU?$_Tree_node@U?$pair@$$CBHVdeviceStatusOnHost@@@std@@PAX@2@@Z 00421100 f i deviceStatus.obj
 0001:00020100       ?_Erase@?$_Tree@V?$_Tmap_traits@PAUHWND__@@KU?$less@PAUHWND__@@@std@@V?$allocator@U?$pair@QAUHWND__@@K@std@@@3@$0A@@std@@@std@@IAEXPAU?$_Tree_node@U?$pair@QAUHWND__@@K@std@@PAX@2@@Z 00421100 f i externalsListDialog.obj
 0001:00020100       ?_Erase@?$_Tree@V?$_Tmap_traits@HPAVdatabase@@U?$less@H@std@@V?$allocator@U?$pair@$$CBHPAVdatabase@@@std@@@3@$0A@@std@@@std@@IAEXPAU?$_Tree_node@U?$pair@$$CBHPAVdatabase@@@std@@PAX@2@@Z 00421100 f i databaseMgr.obj
 0001:00020100       ?_Erase@?$_Tree@V?$_Tset_traits@HU?$less@H@std@@V?$allocator@H@2@$0A@@std@@@std@@IAEXPAU?$_Tree_node@HPAX@2@@Z 00421100 f i closedDriversList.obj
 0001:00020140       ?add@supersededMemory@@QAEXHHK@Z 00421140 f   supersededMemory.obj
 0001:00020270       ?cleanup@supersededMemory@@QAEXK@Z 00421270 f   supersededMemory.obj
 0001:000202f0       ?dump@supersededMemory@@QAEXXZ 004212f0 f   supersededMemory.obj
 0001:000203a0       ?erase@?$_Tree@V?$_Tset_traits@HU?$less@H@std@@V?$allocator@H@2@$0A@@std@@@std@@QAE?AV?$_Tree_const_iterator@V?$_Tree_val@U?$_Tree_simple_types@H@std@@@std@@@2@V32@0@Z 004213a0 f i closedDriversList.obj
 0001:000203a0       ?erase@?$_Tree@V?$_Tmap_traits@HVdeviceStatusOnHost@@U?$less@H@std@@V?$allocator@U?$pair@$$CBHVdeviceStatusOnHost@@@std@@@3@$0A@@std@@@std@@QAE?AV?$_Tree_iterator@V?$_Tree_val@U?$_Tree_simple_types@U?$pair@$$CBHVdeviceStatusOnHost@@@std@@@std@@@std@@@2@V?$_Tree_const_iterator@V?$_Tree_val@U?$_Tree_simple_types@U?$pair@$$CBHVdeviceStatusOnHost@@@std@@@std@@@std@@@2@0@Z 004213a0 f i deviceStatus.obj
 0001:000203a0       ?erase@?$_Tree@V?$_Tmap_traits@KKU?$less@K@std@@V?$allocator@U?$pair@$$CBKK@std@@@2@$0A@@std@@@std@@QAE?AV?$_Tree_iterator@V?$_Tree_val@U?$_Tree_simple_types@U?$pair@$$CBKK@std@@@std@@@std@@@2@V?$_Tree_const_iterator@V?$_Tree_val@U?$_Tree_simple_types@U?$pair@$$CBKK@std@@@std@@@std@@@2@0@Z 004213a0 f i supersededMemory.obj
 0001:000203a0       ?erase@?$_Tree@V?$_Tmap_traits@HPAVdatabase@@U?$less@H@std@@V?$allocator@U?$pair@$$CBHPAVdatabase@@@std@@@3@$0A@@std@@@std@@QAE?AV?$_Tree_iterator@V?$_Tree_val@U?$_Tree_simple_types@U?$pair@$$CBHPAVdatabase@@@std@@@std@@@std@@@2@V?$_Tree_const_iterator@V?$_Tree_val@U?$_Tree_simple_types@U?$pair@$$CBHPAVdatabase@@@std@@@std@@@std@@@2@0@Z 004213a0 f i databaseMgr.obj
 0001:000203a0       ?erase@?$_Tree@V?$_Tmap_traits@PAUHWND__@@KU?$less@PAUHWND__@@@std@@V?$allocator@U?$pair@QAUHWND__@@K@std@@@3@$0A@@std@@@std@@QAE?AV?$_Tree_iterator@V?$_Tree_val@U?$_Tree_simple_types@U?$pair@QAUHWND__@@K@std@@@std@@@std@@@2@V?$_Tree_const_iterator@V?$_Tree_val@U?$_Tree_simple_types@U?$pair@QAUHWND__@@K@std@@@std@@@std@@@2@0@Z 004213a0 f i externalsListDialog.obj
 0001:00020440       ?isSuperseded@supersededMemory@@QAE_NHHK@Z 00421440 f   supersededMemory.obj
 0001:00020520       ??0workstationStatus@@QAE@HHKKKK@Z 00421520 f   workstationStatus.obj
 0001:00020560       ??1workstationStatus@@UAE@XZ 00421560 f   workstationStatus.obj
 0001:00020570       ??_GworkstationStatus@@UAEPAXI@Z 00421570 f i workstationStatus.obj
 0001:00020570       ??_EworkstationStatus@@UAEPAXI@Z 00421570 f i workstationStatus.obj
 0001:000205a0       ?currentTime@workstationStatus@@QAEKXZ 004215a0 f   workstationStatus.obj
 0001:000205b0       ?decrementTimeout@workstationStatus@@QAEHH@Z 004215b0 f   workstationStatus.obj
 0001:000205e0       ?recoverableErrors@workstationStatus@@QAEKXZ 004215e0 f   workstationStatus.obj
 0001:000205f0       ?setCurrentTime@workstationStatus@@QAEXK@Z 004215f0 f   workstationStatus.obj
 0001:00020600       ?setRecoverableErrors@workstationStatus@@QAE_NK@Z 00421600 f   workstationStatus.obj
 0001:00020620       ?setTimeout@workstationStatus@@QAEXH@Z 00421620 f   workstationStatus.obj
 0001:00020630       ?setUnrecoverableErrors@workstationStatus@@QAE_NK@Z 00421630 f   workstationStatus.obj
 0001:00020650       ?setUpTime@workstationStatus@@QAEXK@Z 00421650 f   workstationStatus.obj
 0001:00020660       ?unrecoverableErrors@workstationStatus@@QAEKXZ 00421660 f   workstationStatus.obj
 0001:00020670       ?dgMsgQueueNextItem@@YA?AVsizedBuffer@@XZ 00421670 f   bbcnb32_static:BBCNB32.obj
 0001:00020750       ?dgMsgQueueSize@@YAHXZ     00421750 f   bbcnb32_static:BBCNB32.obj
 0001:00020780       _NetCmdCode@8              00421780 f   bbcnb32_static:BBCNB32.obj
 0001:00020820       _NetODS                    00421820 f   bbcnb32_static:BBCNB32.obj
 0001:00020870       _NetRetCode@8              00421870 f   bbcnb32_static:BBCNB32.obj
 0001:00020950       _NetSetNameFilter@4        00421950 f   bbcnb32_static:BBCNB32.obj
 0001:000209d0       _PostRoutine@4             004219d0 f   bbcnb32_static:BBCNB32.obj
 0001:00020a90       _PostRoutineNCBDGRECV@4    00421a90 f   bbcnb32_static:BBCNB32.obj
 0001:00020ca0       _bbcnb32Cleanup            00421ca0 f   bbcnb32_static:BBCNB32.obj
 0001:00020cc0       _bbcnb32Init               00421cc0 f   bbcnb32_static:BBCNB32.obj
 0001:00020ce0       _NetCopyName@8             00421ce0 f   bbcnb32_static:NCBSUFU.obj
 0001:00020d60       _NetDumpSessionStatus@8    00421d60 f   bbcnb32_static:NCBSUFU.obj
 0001:00020f90       _NetAllocNcbAndBuf@4       00421f90 f   bbcnb32_static:NCBALLOC.obj
 0001:00020fd0       _NetNcbFree@4              00421fd0 f   bbcnb32_static:NCBALLOC.obj
 0001:00020ff0       _NetAddGroupName@12        00421ff0 f   bbcnb32_static:NCBCALLS.obj
 0001:00021040       _NetAddName@12             00422040 f   bbcnb32_static:NCBCALLS.obj
 0001:00021090       _NetCall@28                00422090 f   bbcnb32_static:NCBCALLS.obj
 0001:00021100       _NetCancel@8               00422100 f   bbcnb32_static:NCBCALLS.obj
 0001:00021140       _NetDeleteName@12          00422140 f   bbcnb32_static:NCBCALLS.obj
 0001:00021190       _NetHangUp@8               00422190 f   bbcnb32_static:NCBCALLS.obj
 0001:000211d0       _NetListen@28              004221d0 f   bbcnb32_static:NCBCALLS.obj
 0001:00021240       _NetReceive@20             00422240 f   bbcnb32_static:NCBCALLS.obj
 0001:000212a0       _NetReceiveDG@20           004222a0 f   bbcnb32_static:NCBCALLS.obj
 0001:00021300       _NetReset@12               00422300 f   bbcnb32_static:NCBCALLS.obj
 0001:00021350       _NetSend@24                00422350 f   bbcnb32_static:NCBCALLS.obj
 0001:000213d0       _NetSendDG@28              004223d0 f   bbcnb32_static:NCBCALLS.obj
 0001:00021470       _NetSessionStatus@20       00422470 f   bbcnb32_static:NCBCALLS.obj
 0001:000214e0       ??0cBncsVersion@@QAE@PBD@Z 004224e0 f   bncsversioninfo:cBncsVersion.obj
 0001:00021b00       ??1cBncsVersion@@UAE@XZ    00422b00 f   bncsversioninfo:cBncsVersion.obj
 0001:00021be0       ??_EcBncsVersion@@UAEPAXI@Z 00422be0 f i bncsversioninfo:cBncsVersion.obj
 0001:00021be0       ??_GcBncsVersion@@UAEPAXI@Z 00422be0 f i bncsversioninfo:cBncsVersion.obj
 0001:00021c02       _GetFileVersionInfoSizeA@8 00422c02 f   version:VERSION.dll
 0001:00021c08       _GetFileVersionInfoA@16    00422c08 f   version:VERSION.dll
 0001:00021c0e       _VerQueryValueA@16         00422c0e f   version:VERSION.dll
 0001:00021c14       _ntohl@4                   00422c14 f   ws2_32:WS2_32.dll
 0001:00021c1a       _ntohs@4                   00422c1a f   ws2_32:WS2_32.dll
 0001:00021c20       _htonl@4                   00422c20 f   ws2_32:WS2_32.dll
 0001:00021c26       _htons@4                   00422c26 f   ws2_32:WS2_32.dll
 0001:00021c30       _BNCS32ReceiveMessage      00422c30 f   bncswm32:BncsWM32.obj
 0001:00021d80       _BNCS32SendMessage         00422d80 f   bncswm32:BncsWM32.obj
 0001:00021e54       ??_U@YAPAXI@Z              00422e54 f   msvcprt:newaop_s.obj
 0001:00021e5e       __purecall                 00422e5e f   MSVCRT:MSVCR120.dll
 0001:00021e64       ??2@YAPAXI@Z               00422e64 f   MSVCRT:MSVCR120.dll
 0001:00021e6a       ??3@YAXPAX@Z               00422e6a f   MSVCRT:MSVCR120.dll
 0001:00021e70       ___atonexitinit            00422e70 f   MSVCRT:atonexit.obj
 0001:00021eac       __onexit                   00422eac f   MSVCRT:atonexit.obj
 0001:00021f55       _atexit                    00422f55 f   MSVCRT:atonexit.obj
 0001:00021f6a       ___raise_securityfailure   00422f6a f   MSVCRT:gs_report.obj
 0001:00021fa7       ___report_gsfailure        00422fa7 f   MSVCRT:gs_report.obj
 0001:000220a2       ___report_rangecheckfailure 004230a2 f   MSVCRT:gs_report.obj
 0001:000220ae       ___report_securityfailure  004230ae f   MSVCRT:gs_report.obj
 0001:0002217e       ??_V@YAXPAX@Z              0042317e f   MSVCRT:MSVCR120.dll
 0001:00022184       @__security_check_cookie@4 00423184 f   MSVCRT:secchk.obj
 0001:00022194       __CxxThrowException@8      00423194 f   MSVCRT:MSVCR120.dll
 0001:0002219a       ___CxxFrameHandler3        0042319a f   MSVCRT:MSVCR120.dll
 0001:000221a0       __chkstk                   004231a0 f   MSVCRT:chkstk.obj
 0001:000221a0       __alloca_probe             004231a0 f   MSVCRT:chkstk.obj
 0001:000221cc       _memcpy                    004231cc f   MSVCRT:MSVCR120.dll
 0001:000221d2       ??_Etype_info@@UAEPAXI@Z   004231d2 f i MSVCRT:ti_inst.obj
 0001:00022220       _memset                    00423220 f   MSVCRT:MSVCR120.dll
 0001:0002232a       _WinMainCRTStartup         0042332a f   MSVCRT:crtexew.obj
 0001:000224e8       _free                      004234e8 f   MSVCRT:MSVCR120.dll
 0001:000224ee       _strpbrk                   004234ee f   MSVCRT:MSVCR120.dll
 0001:000224f4       _malloc                    004234f4 f   MSVCRT:MSVCR120.dll
 0001:000224fa       __lock                     004234fa f   MSVCRT:MSVCR120.dll
 0001:00022500       __unlock                   00423500 f   MSVCRT:MSVCR120.dll
 0001:00022506       ___dllonexit               00423506 f   MSVCRT:MSVCR120.dll
 0001:00022510       __SEH_prolog4              00423510 f   MSVCRT:sehprolg4.obj
 0001:00022555       __SEH_epilog4              00423555 f   MSVCRT:sehprolg4.obj
 0001:00022569       __except_handler4          00423569 f   MSVCRT:chandler4gs.obj
 0001:0002258c       __crt_debugger_hook        0042358c f   MSVCRT:MSVCR120.dll
 0001:00022592       ___crtUnhandledException   00423592 f   MSVCRT:MSVCR120.dll
 0001:00022598       ___crtTerminateProcess     00423598 f   MSVCRT:MSVCR120.dll
 0001:0002259e       ??_M@YGXPAXIHP6EX0@Z@Z     0042359e f   MSVCRT:ehvecdtr.obj
 0001:0002260d       ?__ArrayUnwind@@YGXPAXIHP6EX0@Z@Z 0042360d f   MSVCRT:ehvecdtr.obj
 0001:0002266c       ??1type_info@@UAE@XZ       0042366c f   MSVCRT:MSVCR120.dll
 0001:00022672       ?__CxxUnhandledExceptionFilter@@YGJPAU_EXCEPTION_POINTERS@@@Z 00423672 f   MSVCRT:unhandld.obj
 0001:000226b3       ___CxxSetUnhandledExceptionFilter 004236b3 f   MSVCRT:unhandld.obj
 0001:000226c2       __XcptFilter               004236c2 f   MSVCRT:MSVCR120.dll
 0001:000226c8       __amsg_exit                004236c8 f   MSVCRT:MSVCR120.dll
 0001:000226ce       __setargv                  004236ce f   MSVCRT:dllargv.obj
 0001:000226ce       __matherr                  004236ce f   MSVCRT:merr.obj
 0001:000226e0       __FindPESection            004236e0 f   MSVCRT:pesect.obj
 0001:00022730       __IsNonwritableInCurrentImage 00423730 f   MSVCRT:pesect.obj
 0001:000227f0       __ValidateImageBase        004237f0 f   MSVCRT:pesect.obj
 0001:00022821       ___security_init_cookie    00423821 f   MSVCRT:gs_support.obj
 0001:000228bd       __RTC_Initialize           004238bd f   MSVCRT:initsect.obj
 0001:000228dd       __RTC_Terminate            004238dd f   MSVCRT:initsect.obj
 0001:000228fd       __setdefaultprecision      004238fd f   MSVCRT:fp8.obj
 0001:00022924       __initterm_e               00423924 f   MSVCRT:MSVCR120.dll
 0001:0002292a       __initterm                 0042392a f   MSVCRT:MSVCR120.dll
 0001:00022930       __except_handler4_common   00423930 f   MSVCRT:MSVCR120.dll
 0001:00022936       ?terminate@@YAXXZ          00423936 f   MSVCRT:MSVCR120.dll
 0001:0002293c       ___crtSetUnhandledExceptionFilter 0042393c f   MSVCRT:MSVCR120.dll
 0001:00022942       __invoke_watson            00423942 f   MSVCRT:MSVCR120.dll
 0001:00022948       __controlfp_s              00423948 f   MSVCRT:MSVCR120.dll
 0001:0002294e       _Netbios@4                 0042394e f   netapi32:NETAPI32.dll
 0001:00022954       _IsProcessorFeaturePresent@4 00423954 f   kernel32:KERNEL32.dll
 0002:00000000       __imp__RegOpenKeyExA@20    00427000     advapi32:ADVAPI32.dll
 0002:00000004       __imp__RegCloseKey@4       00427004     advapi32:ADVAPI32.dll
 0002:00000008       __imp__RegQueryValueExA@24 00427008     advapi32:ADVAPI32.dll
 0002:0000000c       \177ADVAPI32_NULL_THUNK_DATA 0042700c     advapi32:ADVAPI32.dll
 0002:00000010       __imp__BNCS32TxMessage     00427010     bncsif32:BNCSIF32.dll
 0002:00000014       __imp__BNCS32RxMessage     00427014     bncsif32:BNCSIF32.dll
 0002:00000018       \177BNCSIF32_NULL_THUNK_DATA 00427018     bncsif32:BNCSIF32.dll
 0002:0000001c       __imp__GetStockObject@4    0042701c     gdi32:GDI32.dll
 0002:00000020       \177GDI32_NULL_THUNK_DATA  00427020     gdi32:GDI32.dll
 0002:00000024       __imp__IsProcessorFeaturePresent@4 00427024     kernel32:KERNEL32.dll
 0002:00000028       __imp__IsDebuggerPresent@0 00427028     kernel32:KERNEL32.dll
 0002:0000002c       __imp__EncodePointer@4     0042702c     kernel32:KERNEL32.dll
 0002:00000030       __imp__DecodePointer@4     00427030     kernel32:KERNEL32.dll
 0002:00000034       __imp__QueryPerformanceCounter@4 00427034     kernel32:KERNEL32.dll
 0002:00000038       __imp__SetThreadPriority@8 00427038     kernel32:KERNEL32.dll
 0002:0000003c       __imp__GetCurrentThreadId@0 0042703c     kernel32:KERNEL32.dll
 0002:00000040       __imp__GetCurrentThread@0  00427040     kernel32:KERNEL32.dll
 0002:00000044       __imp__OpenProcess@12      00427044     kernel32:KERNEL32.dll
 0002:00000048       __imp__GetTempPathA@8      00427048     kernel32:KERNEL32.dll
 0002:0000004c       __imp__GetPrivateProfileSectionA@16 0042704c     kernel32:KERNEL32.dll
 0002:00000050       __imp__IsBadReadPtr@8      00427050     kernel32:KERNEL32.dll
 0002:00000054       __imp__GetModuleFileNameA@12 00427054     kernel32:KERNEL32.dll
 0002:00000058       __imp__GetCurrentProcessId@0 00427058     kernel32:KERNEL32.dll
 0002:0000005c       __imp__GetSystemTimeAsFileTime@4 0042705c     kernel32:KERNEL32.dll
 0002:00000060       __imp__LoadLibraryA@4      00427060     kernel32:KERNEL32.dll
 0002:00000064       __imp__CreateMutexA@12     00427064     kernel32:KERNEL32.dll
 0002:00000068       __imp__OutputDebugStringA@4 00427068     kernel32:KERNEL32.dll
 0002:0000006c       __imp__GetPrivateProfileIntA@16 0042706c     kernel32:KERNEL32.dll
 0002:00000070       __imp__GetPrivateProfileStringA@24 00427070     kernel32:KERNEL32.dll
 0002:00000074       __imp__WritePrivateProfileStringA@16 00427074     kernel32:KERNEL32.dll
 0002:00000078       __imp__GetWindowsDirectoryA@8 00427078     kernel32:KERNEL32.dll
 0002:0000007c       __imp__GetLastError@0      0042707c     kernel32:KERNEL32.dll
 0002:00000080       __imp__WriteFile@20        00427080     kernel32:KERNEL32.dll
 0002:00000084       __imp__SetFilePointer@16   00427084     kernel32:KERNEL32.dll
 0002:00000088       __imp__CloseHandle@4       00427088     kernel32:KERNEL32.dll
 0002:0000008c       __imp__GetSystemTime@4     0042708c     kernel32:KERNEL32.dll
 0002:00000090       __imp__GetLocalTime@4      00427090     kernel32:KERNEL32.dll
 0002:00000094       __imp__CreateFileA@28      00427094     kernel32:KERNEL32.dll
 0002:00000098       __imp__GlobalAlloc@8       00427098     kernel32:KERNEL32.dll
 0002:0000009c       __imp__GlobalLock@4        0042709c     kernel32:KERNEL32.dll
 0002:000000a0       __imp__GlobalUnlock@4      004270a0     kernel32:KERNEL32.dll
 0002:000000a4       __imp__GlobalFree@4        004270a4     kernel32:KERNEL32.dll
 0002:000000a8       __imp__ReleaseMutex@4      004270a8     kernel32:KERNEL32.dll
 0002:000000ac       __imp__WaitForSingleObject@8 004270ac     kernel32:KERNEL32.dll
 0002:000000b0       __imp__FindClose@4         004270b0     kernel32:KERNEL32.dll
 0002:000000b4       __imp__lstrcpynA@12        004270b4     kernel32:KERNEL32.dll
 0002:000000b8       __imp__lstrcpyA@8          004270b8     kernel32:KERNEL32.dll
 0002:000000bc       __imp___lopen@8            004270bc     kernel32:KERNEL32.dll
 0002:000000c0       __imp___lcreat@8           004270c0     kernel32:KERNEL32.dll
 0002:000000c4       __imp___lread@12           004270c4     kernel32:KERNEL32.dll
 0002:000000c8       __imp___lwrite@12          004270c8     kernel32:KERNEL32.dll
 0002:000000cc       __imp___lclose@4           004270cc     kernel32:KERNEL32.dll
 0002:000000d0       __imp___llseek@12          004270d0     kernel32:KERNEL32.dll
 0002:000000d4       __imp__FindFirstFileA@8    004270d4     kernel32:KERNEL32.dll
 0002:000000d8       __imp__FindNextFileA@8     004270d8     kernel32:KERNEL32.dll
 0002:000000dc       __imp__SetLocalTime@4      004270dc     kernel32:KERNEL32.dll
 0002:000000e0       __imp__lstrcmpA@8          004270e0     kernel32:KERNEL32.dll
 0002:000000e4       __imp__FreeLibrary@4       004270e4     kernel32:KERNEL32.dll
 0002:000000e8       __imp__GetProcAddress@8    004270e8     kernel32:KERNEL32.dll
 0002:000000ec       __imp__Sleep@4             004270ec     kernel32:KERNEL32.dll
 0002:000000f0       __imp__WinExec@8           004270f0     kernel32:KERNEL32.dll
 0002:000000f4       __imp__GetTickCount@0      004270f4     kernel32:KERNEL32.dll
 0002:000000f8       __imp__lstrcatA@8          004270f8     kernel32:KERNEL32.dll
 0002:000000fc       __imp__lstrlenA@4          004270fc     kernel32:KERNEL32.dll
 0002:00000100       \177KERNEL32_NULL_THUNK_DATA 00427100     kernel32:KERNEL32.dll
 0002:00000104       __imp_?_Winerror_map@std@@YAPBDH@Z 00427104     msvcprt:MSVCP120.dll
 0002:00000108       __imp_?_Syserror_map@std@@YAPBDH@Z 00427108     msvcprt:MSVCP120.dll
 0002:0000010c       __imp_?_Xout_of_range@std@@YAXPBD@Z 0042710c     msvcprt:MSVCP120.dll
 0002:00000110       __imp_?_Xlength_error@std@@YAXPBD@Z 00427110     msvcprt:MSVCP120.dll
 0002:00000114       __imp_?_Xbad_alloc@std@@YAXXZ 00427114     msvcprt:MSVCP120.dll
 0002:00000118       __imp_??1_Container_base12@std@@QAE@XZ 00427118     msvcprt:MSVCP120.dll
 0002:0000011c       \177MSVCP120_NULL_THUNK_DATA 0042711c     msvcprt:MSVCP120.dll
 0002:00000120       __imp___acmdln             00427120     MSVCRT:MSVCR120.dll
 0002:00000124       __imp___fmode              00427124     MSVCRT:MSVCR120.dll
 0002:00000128       __imp___commode            00427128     MSVCRT:MSVCR120.dll
 0002:0000012c       __imp___except_handler4_common 0042712c     MSVCRT:MSVCR120.dll
 0002:00000130       __imp_?terminate@@YAXXZ    00427130     MSVCRT:MSVCR120.dll
 0002:00000134       __imp____crtSetUnhandledExceptionFilter 00427134     MSVCRT:MSVCR120.dll
 0002:00000138       __imp_??1type_info@@UAE@XZ 00427138     MSVCRT:MSVCR120.dll
 0002:0000013c       __imp____crtTerminateProcess 0042713c     MSVCRT:MSVCR120.dll
 0002:00000140       __imp____crtUnhandledException 00427140     MSVCRT:MSVCR120.dll
 0002:00000144       __imp___crt_debugger_hook  00427144     MSVCRT:MSVCR120.dll
 0002:00000148       __imp___onexit             00427148     MSVCRT:MSVCR120.dll
 0002:0000014c       __imp____dllonexit         0042714c     MSVCRT:MSVCR120.dll
 0002:00000150       __imp___calloc_crt         00427150     MSVCRT:MSVCR120.dll
 0002:00000154       __imp___unlock             00427154     MSVCRT:MSVCR120.dll
 0002:00000158       __imp___lock               00427158     MSVCRT:MSVCR120.dll
 0002:0000015c       __imp__malloc              0042715c     MSVCRT:MSVCR120.dll
 0002:00000160       __imp__strpbrk             00427160     MSVCRT:MSVCR120.dll
 0002:00000164       __imp__free                00427164     MSVCRT:MSVCR120.dll
 0002:00000168       __imp__calloc              00427168     MSVCRT:MSVCR120.dll
 0002:0000016c       __imp__vsprintf            0042716c     MSVCRT:MSVCR120.dll
 0002:00000170       __imp__printf              00427170     MSVCRT:MSVCR120.dll
 0002:00000174       __imp___beginthread        00427174     MSVCRT:MSVCR120.dll
 0002:00000178       __imp____set_app_type      00427178     MSVCRT:MSVCR120.dll
 0002:0000017c       __imp__rand                0042717c     MSVCRT:MSVCR120.dll
 0002:00000180       __imp__exit                00427180     MSVCRT:MSVCR120.dll
 0002:00000184       __imp___stricmp            00427184     MSVCRT:MSVCR120.dll
 0002:00000188       __imp___initterm           00427188     MSVCRT:MSVCR120.dll
 0002:0000018c       __imp__fgetc               0042718c     MSVCRT:MSVCR120.dll
 0002:00000190       __imp__feof                00427190     MSVCRT:MSVCR120.dll
 0002:00000194       __imp__sscanf              00427194     MSVCRT:MSVCR120.dll
 0002:00000198       __imp__remove              00427198     MSVCRT:MSVCR120.dll
 0002:0000019c       __imp__sprintf_s           0042719c     MSVCRT:MSVCR120.dll
 0002:000001a0       __imp___mkdir              004271a0     MSVCRT:MSVCR120.dll
 0002:000001a4       __imp___time32             004271a4     MSVCRT:MSVCR120.dll
 0002:000001a8       __imp___localtime32        004271a8     MSVCRT:MSVCR120.dll
 0002:000001ac       __imp__strtok              004271ac     MSVCRT:MSVCR120.dll
 0002:000001b0       __imp__memset              004271b0     MSVCRT:MSVCR120.dll
 0002:000001b4       __imp__getenv              004271b4     MSVCRT:MSVCR120.dll
 0002:000001b8       __imp__memcpy              004271b8     MSVCRT:MSVCR120.dll
 0002:000001bc       __imp____CxxFrameHandler3  004271bc     MSVCRT:MSVCR120.dll
 0002:000001c0       __imp___CxxThrowException@8 004271c0     MSVCRT:MSVCR120.dll
 0002:000001c4       __imp__sprintf             004271c4     MSVCRT:MSVCR120.dll
 0002:000001c8       __imp__fopen               004271c8     MSVCRT:MSVCR120.dll
 0002:000001cc       __imp__fgets               004271cc     MSVCRT:MSVCR120.dll
 0002:000001d0       __imp__fclose              004271d0     MSVCRT:MSVCR120.dll
 0002:000001d4       __imp_??_V@YAXPAX@Z        004271d4     MSVCRT:MSVCR120.dll
 0002:000001d8       __imp__atoi                004271d8     MSVCRT:MSVCR120.dll
 0002:000001dc       __imp___invoke_watson      004271dc     MSVCRT:MSVCR120.dll
 0002:000001e0       __imp___controlfp_s        004271e0     MSVCRT:MSVCR120.dll
 0002:000001e4       __imp___XcptFilter         004271e4     MSVCRT:MSVCR120.dll
 0002:000001e8       __imp____crtGetShowWindowMode 004271e8     MSVCRT:MSVCR120.dll
 0002:000001ec       __imp___amsg_exit          004271ec     MSVCRT:MSVCR120.dll
 0002:000001f0       __imp____getmainargs       004271f0     MSVCRT:MSVCR120.dll
 0002:000001f4       __imp__strstr              004271f4     MSVCRT:MSVCR120.dll
 0002:000001f8       __imp__strncpy             004271f8     MSVCRT:MSVCR120.dll
 0002:000001fc       __imp___initterm_e         004271fc     MSVCRT:MSVCR120.dll
 0002:00000200       __imp____setusermatherr    00427200     MSVCRT:MSVCR120.dll
 0002:00000204       __imp___configthreadlocale 00427204     MSVCRT:MSVCR120.dll
 0002:00000208       __imp___ismbblead          00427208     MSVCRT:MSVCR120.dll
 0002:0000020c       __imp___cexit              0042720c     MSVCRT:MSVCR120.dll
 0002:00000210       __imp__fputc               00427210     MSVCRT:MSVCR120.dll
 0002:00000214       __imp___exit               00427214     MSVCRT:MSVCR120.dll
 0002:00000218       __imp___purecall           00427218     MSVCRT:MSVCR120.dll
 0002:0000021c       __imp_??2@YAPAXI@Z         0042721c     MSVCRT:MSVCR120.dll
 0002:00000220       __imp_??3@YAXPAX@Z         00427220     MSVCRT:MSVCR120.dll
 0002:00000224       __imp__memmove             00427224     MSVCRT:MSVCR120.dll
 0002:00000228       __imp__strchr              00427228     MSVCRT:MSVCR120.dll
 0002:0000022c       __imp___strlwr             0042722c     MSVCRT:MSVCR120.dll
 0002:00000230       __imp__strncmp             00427230     MSVCRT:MSVCR120.dll
 0002:00000234       \177MSVCR120_NULL_THUNK_DATA 00427234     MSVCRT:MSVCR120.dll
 0002:00000238       __imp__Netbios@4           00427238     netapi32:NETAPI32.dll
 0002:0000023c       \177NETAPI32_NULL_THUNK_DATA 0042723c     netapi32:NETAPI32.dll
 0002:00000240       __imp__ShellExecuteA@24    00427240     shell32:SHELL32.dll
 0002:00000244       \177SHELL32_NULL_THUNK_DATA 00427244     shell32:SHELL32.dll
 0002:00000248       __imp__PathFileExistsA@4   00427248     Shlwapi:SHLWAPI.dll
 0002:0000024c       \177SHLWAPI_NULL_THUNK_DATA 0042724c     Shlwapi:SHLWAPI.dll
 0002:00000250       __imp__EnumChildWindows@12 00427250     user32:USER32.dll
 0002:00000254       __imp__GetWindowLongA@8    00427254     user32:USER32.dll
 0002:00000258       __imp__LoadStringA@16      00427258     user32:USER32.dll
 0002:0000025c       __imp__GetWindow@8         0042725c     user32:USER32.dll
 0002:00000260       __imp__GetDesktopWindow@0  00427260     user32:USER32.dll
 0002:00000264       __imp__GetWindowRect@8     00427264     user32:USER32.dll
 0002:00000268       __imp__LoadIconA@8         00427268     user32:USER32.dll
 0002:0000026c       __imp__LoadCursorA@8       0042726c     user32:USER32.dll
 0002:00000270       __imp__GetClassNameA@12    00427270     user32:USER32.dll
 0002:00000274       __imp__FindWindowA@8       00427274     user32:USER32.dll
 0002:00000278       __imp__MessageBeep@4       00427278     user32:USER32.dll
 0002:0000027c       __imp__MessageBoxA@16      0042727c     user32:USER32.dll
 0002:00000280       __imp__CheckMenuItem@12    00427280     user32:USER32.dll
 0002:00000284       __imp__GetMenu@4           00427284     user32:USER32.dll
 0002:00000288       __imp__GetSystemMetrics@4  00427288     user32:USER32.dll
 0002:0000028c       __imp__EnableWindow@8      0042728c     user32:USER32.dll
 0002:00000290       __imp__KillTimer@8         00427290     user32:USER32.dll
 0002:00000294       __imp__GetDlgItem@8        00427294     user32:USER32.dll
 0002:00000298       __imp__SetWindowPos@28     00427298     user32:USER32.dll
 0002:0000029c       __imp__ShowWindow@8        0042729c     user32:USER32.dll
 0002:000002a0       __imp__GetWindowThreadProcessId@8 004272a0     user32:USER32.dll
 0002:000002a4       __imp__RegisterClassA@4    004272a4     user32:USER32.dll
 0002:000002a8       __imp__PostQuitMessage@4   004272a8     user32:USER32.dll
 0002:000002ac       __imp__SendMessageTimeoutA@28 004272ac     user32:USER32.dll
 0002:000002b0       __imp__SetMessageQueue@4   004272b0     user32:USER32.dll
 0002:000002b4       __imp__DispatchMessageA@4  004272b4     user32:USER32.dll
 0002:000002b8       __imp__TranslateMessage@4  004272b8     user32:USER32.dll
 0002:000002bc       __imp__GetMessageA@16      004272bc     user32:USER32.dll
 0002:000002c0       __imp__IsIconic@4          004272c0     user32:USER32.dll
 0002:000002c4       __imp__UpdateWindow@4      004272c4     user32:USER32.dll
 0002:000002c8       __imp__CreateDialogParamA@20 004272c8     user32:USER32.dll
 0002:000002cc       __imp__DestroyWindow@4     004272cc     user32:USER32.dll
 0002:000002d0       __imp__SetWindowTextA@8    004272d0     user32:USER32.dll
 0002:000002d4       __imp__SetTimer@16         004272d4     user32:USER32.dll
 0002:000002d8       __imp__IsWindow@4          004272d8     user32:USER32.dll
 0002:000002dc       __imp__SendMessageA@16     004272dc     user32:USER32.dll
 0002:000002e0       __imp__ExitWindowsEx@8     004272e0     user32:USER32.dll
 0002:000002e4       __imp__PostMessageA@16     004272e4     user32:USER32.dll
 0002:000002e8       __imp__PeekMessageA@20     004272e8     user32:USER32.dll
 0002:000002ec       __imp__SetDlgItemTextA@12  004272ec     user32:USER32.dll
 0002:000002f0       __imp__EndDialog@8         004272f0     user32:USER32.dll
 0002:000002f4       __imp__DialogBoxParamA@20  004272f4     user32:USER32.dll
 0002:000002f8       __imp__SetDlgItemInt@16    004272f8     user32:USER32.dll
 0002:000002fc       __imp__wsprintfA           004272fc     user32:USER32.dll
 0002:00000300       __imp__CreateWindowExA@48  00427300     user32:USER32.dll
 0002:00000304       __imp__DefWindowProcA@16   00427304     user32:USER32.dll
 0002:00000308       \177USER32_NULL_THUNK_DATA 00427308     user32:USER32.dll
 0002:0000030c       __imp__GetFileVersionInfoSizeA@8 0042730c     version:VERSION.dll
 0002:00000310       __imp__GetFileVersionInfoA@16 00427310     version:VERSION.dll
 0002:00000314       __imp__VerQueryValueA@16   00427314     version:VERSION.dll
 0002:00000318       \177VERSION_NULL_THUNK_DATA 00427318     version:VERSION.dll
 0002:0000031c       __imp__htons@4             0042731c     ws2_32:WS2_32.dll
 0002:00000320       __imp__htonl@4             00427320     ws2_32:WS2_32.dll
 0002:00000324       __imp__ntohs@4             00427324     ws2_32:WS2_32.dll
 0002:00000328       __imp__ntohl@4             00427328     ws2_32:WS2_32.dll
 0002:0000032c       \177WS2_32_NULL_THUNK_DATA 0042732c     ws2_32:WS2_32.dll
 0002:00000330       __imp__setCsiHwnd          00427330     handleshare:handleShare.dll
 0002:00000334       \177handleShare_NULL_THUNK_DATA 00427334     handleshare:handleShare.dll
 0002:00000338       ___xc_a                    00427338     MSVCRT:cinitexe.obj
 0002:0000038c       ___xc_z                    0042738c     MSVCRT:cinitexe.obj
 0002:00000390       ___xi_a                    00427390     MSVCRT:cinitexe.obj
 0002:000003a0       ___xi_z                    004273a0     MSVCRT:cinitexe.obj
 0002:000003b4       ??_7error_category@std@@6B@ 004273b4     database.obj
 0002:000003d0       ??_7_Generic_error_category@std@@6B@ 004273d0     database.obj
 0002:000003e8       ??_C@_07DCLBNMLN@generic?$AA@ 004273e8     database.obj
 0002:000003f0       ??_C@_0O@BFJCFAAK@unknown?5error?$AA@ 004273f0     database.obj
 0002:00000404       ??_7_Iostream_error_category@std@@6B@ 00427404     database.obj
 0002:0000041c       ??_C@_08LLGCOLLL@iostream?$AA@ 0042741c     database.obj
 0002:00000428       ??_C@_0BG@PADBLCHM@iostream?5stream?5error?$AA@ 00427428     database.obj
 0002:00000444       ??_7_System_error_category@std@@6B@ 00427444     database.obj
 0002:0000045c       ??_C@_06FHFOAHML@system?$AA@ 0042745c     database.obj
 0002:00000468       ??_7database@@6B@          00427468     database.obj
 0002:0000046c       ??_C@_0BA@MNCCGPDL@?$CFs?2dev_?$CF03d?4ini?$AA@ 0042746c     database.obj
 0002:0000047c       ??_C@_0BA@POEEPAJD@DatabaseSize_?$CFd?$AA@ 0042747c     database.obj
 0002:0000048c       ??_C@_08HDBDMMBI@Database?$AA@ 0042748c     database.obj
 0002:00000498       ??_C@_0BA@BPJACOFK@DatabaseFile_?$CFd?$AA@ 00427498     database.obj
 0002:000004a8       ??_C@_0BA@JEKJJHOL@dev_?$CF03d?4db?$CF04d?$AA@ 004274a8     database.obj
 0002:000004b8       ??_C@_0BN@EOGGJMBF@database?3?3load?5?9?5Can?8t?5find?5?$AA@ 004274b8     database.obj
 0002:000004d8       ??_C@_0BD@EHJDLHKE@?5setting?5in?5file?3?5?$AA@ 004274d8     database.obj
 0002:000004ec       ??_C@_0BJ@FGPGKDMA@?4?5Does?5this?5file?5exist?$DP?6?$AA@ 004274ec     database.obj
 0002:00000508       ??_C@_05BMGBEOOC@?$CFs?2?$CFs?$AA@ 00427508     database.obj
 0002:00000510       ??_C@_01KDCPPGHE@r?$AA@    00427510     database.obj
 0002:00000514       ??_C@_0L@PNKOEJPL@?$FLDatabase_?$AA@ 00427514     database.obj
 0002:00000520       ??_C@_0CD@HAOBKGHO@database?3?3load?5?9?5can?8t?5open?5file@ 00427520     database.obj
 0002:00000544       ??_C@_01EEMJAFIK@?6?$AA@   00427544     database.obj
 0002:00000548       ??_C@_03JMFMNIFM@?9?9?9?$AA@ 00427548     database.obj
 0002:0000054c       ??_C@_03HDCFNBIM@?$CB?$CB?$CB?$AA@ 0042754c     database.obj
 0002:00000550       ??_C@_0M@FNLNBOHL@Database_?$CFd?$AA@ 00427550     database.obj
 0002:0000055c       ??_C@_04OCCELDNI@?$CF04d?$AA@ 0042755c     database.obj
 0002:00000564       ??_C@_01BJJEKLCA@?$CC?$AA@ 00427564     database.obj
 0002:00000568       ??_C@_0BA@JFNIOLAK@string?5too?5long?$AA@ 00427568     database.obj
 0002:00000578       ??_C@_0BI@CFPLBAOH@invalid?5string?5position?$AA@ 00427578     database.obj
 0002:00000590       ??_C@_0BE@JONHPENG@map?1set?$DMT?$DO?5too?5long?$AA@ 00427590     database.obj
 0002:000005a4       ??_C@_02DPKJAMEF@?$CFd?$AA@ 004275a4     databaseMgr.obj
 0002:000005ac       ??_7databaseMgr@@6B@       004275ac     databaseMgr.obj
 0002:000005b0       ??_C@_07JBEBLGDD@CC_ROOT?$AA@ 004275b0     databaseMgr.obj
 0002:000005b8       ??_C@_09DDAHAMBK@CC_SYSTEM?$AA@ 004275b8     databaseMgr.obj
 0002:000005c4       ??_C@_0BE@PHFFEGCA@?$CFs?2?$CFs?2config?2system?$AA@ 004275c4     databaseMgr.obj
 0002:000005d8       ??_C@_0BD@FFAKGAPP@c?3?2bncs_config?4ini?$AA@ 004275d8     databaseMgr.obj
 0002:000005ec       ??_C@_0L@DHJBNFFA@ConfigPath?$AA@ 004275ec     databaseMgr.obj
 0002:000005f8       ??_C@_06LLCHJONG@Config?$AA@ 004275f8     databaseMgr.obj
 0002:00000600       ??_C@_04FABLJDN@Name?$AA@  00427600     databaseMgr.obj
 0002:00000608       ??_C@_06OIEJKIHP@Device?$AA@ 00427608     databaseMgr.obj
 0002:00000610       ??_C@_0P@ONIBKGMN@DatabaseSize_0?$AA@ 00427610     databaseMgr.obj
 0002:00000620       ??_C@_0P@PEJKJHIM@DatabaseSize_1?$AA@ 00427620     databaseMgr.obj
 0002:00000634       ??_7bncs_disklog@@6B@      00427634     bncs_disklog.obj
 0002:00000638       ??_C@_0L@ILPMAFPO@?$CFs?2?$CFs?2logs?$AA@ 00427638     bncs_disklog.obj
 0002:00000644       ??_C@_0M@EEBKEKAD@c?3?2bncslogs?$AA@ 00427644     bncs_disklog.obj
 0002:00000650       ??_C@_0BG@DPKAAFIM@localtime?5has?5failed?6?$AA@ 00427650     bncs_disklog.obj
 0002:00000668       ??_C@_0N@GLHMENIG@?$CFs?2?$CFs?2?$CFs?4log?$AA@ 00427668     bncs_disklog.obj
 0002:00000678       ??_C@_0BH@EBDFGIGN@?$CFs?2?$CFs?2?$CF04d?$CF02d?$CF02d?4log?$AA@ 00427678     bncs_disklog.obj
 0002:00000690       ??_C@_0BM@MFEMPJOF@?$CFs?2?$CFs?2?$CF04d?$CF02d?$CF02d?9?$CF02d?4log?$AA@ 00427690     bncs_disklog.obj
 0002:000006ac       ??_C@_0CE@NIPIAOPO@bncs_disklog?3?5Can?8t?5open?5log?5fil@ 004276ac     bncs_disklog.obj
 0002:000006d0       ??_C@_0CE@NLINMDII@?$CF02d?1?$CF02d?1?$CF04d?5?$CF02d?3?$CF02d?3?$CF02d?4?$CF0@ 004276d0     bncs_disklog.obj
 0002:000006f4       ??_C@_02KEGNLNML@?0?5?$AA@ 004276f4     bncs_disklog.obj
 0002:000006f8       ??_C@_02PCIJFNDE@?$AN?6?$AA@ 004276f8     bncs_disklog.obj
 0002:000006fc       ??_C@_01KICIPPFI@?2?$AA@   004276fc     bncs_disklog.obj
 0002:00000700       ??_C@_01FGNFDNOH@?$CF?$AA@ 00427700     bncs_gcd.obj
 0002:00000704       ??_C@_04OKGDLNCL@NONE?$AA@ 00427704     bncs_gcd.obj
 0002:0000070c       ??_C@_0L@LGPNDKFG@SystemPath?$AA@ 0042770c     bncs_gcd.obj
 0002:00000718       ??_C@_0BC@EDPHGLLE@?$CFs?2?$CFs?2windows?2lib?$AA@ 00427718     bncs_gcd.obj
 0002:0000072c       ??_C@_02LMMGGCAJ@?3?5?$AA@ 0042772c     ccCheck.obj
 0002:00000734       ??_7ccCheck@@6B@           00427734     ccCheck.obj
 0002:00000738       ??_C@_0CJ@PMKCGGCL@Device?5Number?5of?5out?5range?5?$CIless@ 00427738     ccCheck.obj
 0002:00000764       ??_C@_0CL@LCKFFHKG@Device?5Number?5of?5out?5range?5?$CI?$DO?5MA@ 00427764     ccCheck.obj
 0002:00000790       ??_C@_0CF@IABOACOB@Workstation?5number?5invalid?5?$CI?$DM?51?$CJ@ 00427790     ccCheck.obj
 0002:000007b8       ??_C@_0DE@NBJHIANK@Workstation?5number?5invalid?5?$CI?$DO?5MA@ 004277b8     ccCheck.obj
 0002:000007ec       ??_C@_05NPNNLANM@ABOUT?$AA@ 004277ec     Csabout.obj
 0002:000007f4       ??_C@_0BA@GEPECOA@Version?5?$CFs?5?9?5?$CFs?$AA@ 004277f4     Csabout.obj
 0002:00000804       ??_C@_08JNCPPIN@15?357?328?$AA@ 00427804     Csabout.obj
 0002:00000810       ??_C@_0M@BKMHKHNE@Apr?520?52020?$AA@ 00427810     Csabout.obj
 0002:0000081c       ??_C@_07FCJAGJJB@?$CFs?5?9?5?$CFs?$AA@ 0042781c     Csabout.obj
 0002:00000824       ??_C@_0CC@EKIBBCFC@Cache?5test?5for?5driver?5?$CFd?4?4?4?4?4?4?4?4@ 00427824     Cscache.obj
 0002:00000848       ??_C@_0CN@OEMBOGPE@Cache?5test?5for?5driver?5?$CFd?5?9?5can?8t@ 00427848     Cscache.obj
 0002:00000878       ??_C@_0DC@CEAKEBH@Cache?5test?5for?5driver?5?$CFd?5?9?5handl@ 00427878     Cscache.obj
 0002:000008ac       ??_C@_0CN@KHDKAC@Cache?5test?5for?5driver?5?$CFd?5value?5o@ 004278ac     Cscache.obj
 0002:000008dc       ??_C@_0CD@BCFKMHNJ@Cache?5test?5for?5driver?5?$CFd?5yields?5@ 004278dc     Cscache.obj
 0002:00000900       ??_C@_0CK@BPFPENIK@CSCache_Clear?3?5Device?5number?5inv@ 00427900     Cscache.obj
 0002:0000092c       ??_C@_05JFADILIK@CSI32?$AA@ 0042792c     Cscache.obj
 0002:00000934       ??_C@_0BF@MLHJIMCA@CSCache_PostedPoll?$CI?$CJ?$AA@ 00427934     Cscache.obj
 0002:00000950       ??_C@_0EB@IJMBPNME@CSCache_PostedPoll?5?9?5start?5of?5wo@ 00427950     Cscache.obj
 0002:00000994       ??_C@_0DM@GCCLFHN@CSCache_PostedPoll?5?9?5start?5of?5de@ 00427994     Cscache.obj
 0002:000009d0       ??_C@_0EE@GGFEJIJD@CSI32?3?5CSCache_PostedRTRPoll?3?5in@ 004279d0     Cscache.obj
 0002:00000a14       ??_C@_0BH@KPJDIJIA@RR?5?$CF03d?5?$CF03d?5?$CF03d?5?8?$CFs?8?$AA@ 00427a14     Cscache.obj
 0002:00000a30       ??_C@_0EE@GOCLPFEH@CSI32?3?5CSCache_PostedGPIPoll?3?5in@ 00427a30     Cscache.obj
 0002:00000a74       ??_C@_0BH@CMKHPBHO@GR?5?$CF03d?5?$CF03d?5?$CF03d?5?8?$CFd?8?$AA@ 00427a74     Cscache.obj
 0002:00000a8c       ??_C@_0BH@NILNHFNH@IR?5?$CF03d?5?$CF03d?5?$CF03d?5?8?$CFs?8?$AA@ 00427a8c     Cscache.obj
 0002:00000aa4       ??_C@_01CLKCMJKC@?5?$AA@   00427aa4     Cscache.obj
 0002:00000aa8       ??_C@_05HOPBAMFM@?9?5?9?5?9?$AA@ 00427aa8     Cscache.obj
 0002:00000ab0       ??_C@_0CD@LJFHCDPC@CSCache_InfoRead?3?5cache?5READ?5err@ 00427ab0     Cscache.obj
 0002:00000ad4       ??_C@_0CD@PMBFLPJC@CSCache_InfoRead?3?5cache?5SEEK?5err@ 00427ad4     Cscache.obj
 0002:00000af8       ??_C@_0BA@MBBCEMEI@?$CFs?2CSI_?$CF03d?4ICF?$AA@ 00427af8     Cscache.obj
 0002:00000b08       ??_C@_0BP@CMDOEJPJ@Unable?5to?5open?5cache?5file?5?8?$CFs?8?$AA@ 00427b08     Cscache.obj
 0002:00000b28       ??_C@_0N@EIJCKHGM@?$CFs?2CSI_?$CK?4ICF?$AA@ 00427b28     Cscache.obj
 0002:00000b38       ??_C@_04IDGPBBML@BNCS?$AA@ 00427b38     Cscache.obj
 0002:00000b40       ??_C@_0L@HPMOMCOD@?9?9?1?9?9?1?9?9?9?9?$AA@ 00427b40     Cscache.obj
 0002:00000b4c       ??_C@_0BC@KBDMBKEH@deque?$DMT?$DO?5too?5long?$AA@ 00427b4c     Cscache.obj
 0002:00000b60       ??_C@_0N@LAFOMMIJ@NA?5?$CF03d?5?$CF03d?$AA@ 00427b60     Cscmd.obj
 0002:00000b70       ??_C@_05DIALNFFA@?$CFs?5?$CFd?$AA@ 00427b70     Cscmd.obj
 0002:00000b78       ??_C@_07MEPHJPEC@CSI?4INI?$AA@ 00427b78     Cscmd.obj
 0002:00000b80       ??_C@_01GBGANLPD@0?$AA@    00427b80     Cscmd.obj
 0002:00000b84       ??_C@_09FMACHHHI@CSIEnable?$AA@ 00427b84     Cscmd.obj
 0002:00000b90       ??_C@_07BGDMAJAE@Network?$AA@ 00427b90     Cscmd.obj
 0002:00000b98       ??_C@_0CC@KFOKGEBC@CSI32?5V?$CFs?5?$CIWS?$CF02d?$CJ?5?9?5?$CB?5Disabled?5@ 00427b98     Cscmd.obj
 0002:00000bbc       ??_C@_01HIHLOKLC@1?$AA@    00427bbc     Cscmd.obj
 0002:00000bc0       ??_C@_0BD@CKAJGPLN@CSI32?5V?$CFs?5?$CIWS?$CF02d?$CJ?$AA@ 00427bc0     Cscmd.obj
 0002:00000bd4       ??_C@_0BC@JKLEHOEA@NO?5?$CF03d?5?$CF03d?5?$CF03d?$AA@ 00427bd4     Cscmd.obj
 0002:00000be8       ??_C@_0DM@IIFAIOI@Master?5Device?5?$CFd?5is?5Tx?1Rx?5on?5WS?5@ 00427be8     Cscmd.obj
 0002:00000c24       ??_C@_0DC@FIKCGKNE@Device?5?$CFd?5is?5Tx?1Rx?5on?5WS?5?$CFd?0?5rev@ 00427c24     Cscmd.obj
 0002:00000c58       ??_C@_0BD@BJMPLGLC@this?5client?5has?5?$CFd?$AA@ 00427c58     Cscmd.obj
 0002:00000c6c       ??_C@_0CD@LLMBINEK@?$CF02d?5?$CF02d?5?$CF04d?5?$CF02d?5?$CF02d?5?$CF02d?5?$CF0@ 00427c6c     Cscmd.obj
 0002:00000c90       ??_C@_0CJ@GBFNODBK@Can?8t?5set?5time?5from?5timestamp?4?5E@ 00427c90     Cscmd.obj
 0002:00000cbc       ??_C@_02LMHINHBC@HB?$AA@   00427cbc     Cscmd.obj
 0002:00000cc0       ??_C@_0DA@CLBHFDAD@CSCmd_Heartbeat?3?5illegal?5worksta@ 00427cc0     Cscmd.obj
 0002:00000cf0       ??_C@_0FC@JGIHNAFB@Packet?5serial?5number?5error?5from?5@ 00427cf0     Cscmd.obj
 0002:00000d48       ??_C@_0ED@LHPOHKEF@Packet?5serial?5number?5error?3?5got?1@ 00427d48     Cscmd.obj
 0002:00000d8c       ??_C@_0DD@OJLNHDF@Cleared?5cache?5following?5packet?5e@ 00427d8c     Cscmd.obj
 0002:00000dc0       ??_C@_03DPLIHHLN@?$CFd?0?$AA@ 00427dc0     Cscmd.obj
 0002:00000dc4       ??_C@_0BM@HMHKIDLG@?$CFd?0?$CF02d?0?$CF02d?0?$CF02d?0?$CF02d?0?$CF02d?$AA@ 00427dc4     Cscmd.obj
 0002:00000de0       ??_C@_0BB@IPBLDINE@0?000?000?000?000?000?$AA@ 00427de0     Cscmd.obj
 0002:00000df4       ??_C@_0CA@CLAOGGME@?$CFd?0?$CF02d?0?$CF02d?0?$CF02d?0?$CFs?0?$CFld?0?$CFld?0?$CFs?$AA@ 00427df4     Cscmd.obj
 0002:00000e14       ??_C@_08LBGAIFHM@starting?$AA@ 00427e14     Cscmd.obj
 0002:00000e20       ??_C@_05MLOKNOLM@?$CF03dT?$AA@ 00427e20     Cscmd.obj
 0002:00000e28       ??_C@_05JNLAHJDK@?$CF03dR?$AA@ 00427e28     Cscmd.obj
 0002:00000e30       ??_C@_05NHHCGLGL@?$CF03dB?$AA@ 00427e30     Cscmd.obj
 0002:00000e38       ??_C@_01IHBHIGKO@?0?$AA@   00427e38     Cscmd.obj
 0002:00000e3c       ??_C@_0P@NIJOMKEP@IP?5?$CFd?5?$CFd?5?$CFd?5?$CFd?$AA@ 00427e3c     Cscmd.obj
 0002:00000e4b       ??_C@_00CNPNBAHC@?$AA@     00427e4b     Csdbase.obj
 0002:00000e4c       ??_C@_0BN@NJLADOJF@CSI32?5?9?5Workstation?5?$CFd?5?9?5V?$CFs?$AA@ 00427e4c     Csdbase.obj
 0002:00000e6c       ??_C@_0N@JBMIKOEK@DataBaseLoad?$AA@ 00427e6c     Csdbase.obj
 0002:00000e7c       ??_C@_0BJ@JPGOGDFK@?5Attaching?5to?5network?4?4?4?$AA@ 00427e7c     Csdbase.obj
 0002:00000e98       ??_C@_0BP@LKJNMKCP@Control?5System?5Interface?5?9?5V?$CFs?$AA@ 00427e98     Csdbase.obj
 0002:00000eb8       ??_C@_09CBJIEDON@GRD_?$CK?4INI?$AA@ 00427eb8     Csdbase.obj
 0002:00000ec4       ??_C@_0L@LNABNACG@GPID_?$CK?4INI?$AA@ 00427ec4     Csdbase.obj
 0002:00000ed0       ??_C@_08HGOIPPEA@ID_?$CK?4INI?$AA@ 00427ed0     Csdbase.obj
 0002:00000edc       ??_C@_09DMJAOBAA@DEV_?$CK?4INI?$AA@ 00427edc     Csdbase.obj
 0002:00000ee8       ??_C@_0P@IMJHKPKK@?$CFsDEV_?$CF03d?4INI?$AA@ 00427ee8     Csdbase.obj
 0002:00000ef8       ??_C@_0BC@PMNFBOHA@DatabaseFile_?$CF01d?$AA@ 00427ef8     Csdbase.obj
 0002:00000f0c       ??_C@_0BA@FFBAGKED@?$FLDatabase_?$CF01d?$FN?$AA@ 00427f0c     Csdbase.obj
 0002:00000f1c       ??_C@_04HDOCAJNK@?$CFs?$CFs?$AA@ 00427f1c     Csdbase.obj
 0002:00000f24       ??_C@_03LEIBKMN@?0?$CFd?$AA@ 00427f24     Csdbase.obj
 0002:00000f28       ??_C@_0M@LGJGCHHC@GRD?5?9?$DO?5?$CF03d?$AA@ 00427f28     Csdbase.obj
 0002:00000f34       ??_C@_0P@LPEHLKBN@?$CFsGRD_?$CF03d?4INI?$AA@ 00427f34     Csdbase.obj
 0002:00000f44       ??_C@_0P@GJCFNGNH@?$CFsDEV_?$CF03d?4CDF?$AA@ 00427f44     Csdbase.obj
 0002:00000f54       ??_C@_07IHOKLMHB@Sources?$AA@ 00427f54     Csdbase.obj
 0002:00000f5c       ??_C@_06KJABCPFL@Router?$AA@ 00427f5c     Csdbase.obj
 0002:00000f64       ??_C@_0N@JMMDPLMO@Destinations?$AA@ 00427f64     Csdbase.obj
 0002:00000f74       ??_C@_0L@JDDOKKBM@Index_?$CF03d?$AA@ 00427f74     Csdbase.obj
 0002:00000f80       ??_C@_02PGHGPEOM@?91?$AA@  00427f80     Csdbase.obj
 0002:00000f84       ??_C@_0M@OGNIBAPN@?9?5?9?5?9?0?9?5?9?5?9?$AA@ 00427f84     Csdbase.obj
 0002:00000f90       ??_C@_02JDPG@rb?$AA@       00427f90     Csdbase.obj
 0002:00000f94       ??_C@_0M@GFJOHFBP@DEV?5?9?$DO?5?$CF03d?$AA@ 00427f94     Csdbase.obj
 0002:00000fa0       ??_C@_0N@IDEJEKPD@INFO?5?9?$DO?5?$CF03d?$AA@ 00427fa0     Csdbase.obj
 0002:00000fb0       ??_C@_0M@IOEJLGPM@ID_?$CF03d?4LCK?$AA@ 00427fb0     Csdbase.obj
 0002:00000fbc       ??_C@_08EAFBCPDL@SlotSize?$AA@ 00427fbc     Csdbase.obj
 0002:00000fc8       ??_C@_0O@PIILMNHI@Configuration?$AA@ 00427fc8     Csdbase.obj
 0002:00000fd8       ??_C@_05KMEKLDKF@Slots?$AA@ 00427fd8     Csdbase.obj
 0002:00000fe0       ??_C@_0N@HJHMPMEE@DEV_?$CF03d?4INI?$AA@ 00427fe0     Csdbase.obj
 0002:00000ff0       ??_C@_0O@IDNCBOJL@DEV_?$CF03d?4DB?$CFd?$AA@ 00427ff0     Csdbase.obj
 0002:00001000       ??_C@_02JLHCEMDI@64?$AA@   00428000     Csdbase.obj
 0002:00001004       ??_C@_0P@DHMHHHIG@DatabaseFile_0?$AA@ 00428004     Csdbase.obj
 0002:00001014       ??_C@_0P@CONMEGMH@DatabaseFile_1?$AA@ 00428014     Csdbase.obj
 0002:00001024       ??_C@_0O@FGJDHJBC@Database_?$CF01d?$AA@ 00428024     Csdbase.obj
 0002:00001034       ??_C@_0N@JMMOIFDJ@DEV_?$CF03d?4CDF?$AA@ 00428034     Csdbase.obj
 0002:00001044       ??_C@_02GMLFBBN@wb?$AA@    00428044     Csdbase.obj
 0002:00001048       ??_C@_0DA@CHPFOME@CSDbase_GetDatabaseName?3?5paramet@ 00428048     Csdbase.obj
 0002:00001078       ??_C@_06BKPBEGPJ@R?54?5?$CFd?$AA@ 00428078     Csdbase.obj
 0002:00001080       ??_C@_07MEGFEJGN@?$CBError?$CB?$AA@ 00428080     Csdbase.obj
 0002:00001088       ??_C@_0BC@IOMKNPJ@Index?5?$CFd?0?5Size?5?$CFd?$AA@ 00428088     Csdbase.obj
 0002:0000109c       ??_C@_05HHFOOOHO@?$CFs?0?$CFs?$AA@ 0042809c     Csdbase.obj
 0002:000010a4       ??_C@_04GNHGENPN@DEV_?$AA@ 004280a4     Csdbase.obj
 0002:000010ac       ??_C@_0N@FJFECOOC@dev_?$CF03d?4ini?$AA@ 004280ac     Csdbase.obj
 0002:000010bc       ??_C@_0P@IBGMGCNG@?$CFsDEV_?$CF03d?4ini?$AA@ 004280bc     csdbext.obj
 0002:000010cc       ??_C@_0BA@FDNOLJHL@?$CFsDEV_?$CF03d?4CD?$CFd?$AA@ 004280cc     csdbext.obj
 0002:000010dc       ??_C@_0CN@DJCJMLEF@Creating?5high?5order?5database?5cac@ 004280dc     csdbext.obj
 0002:0000110c       ??_C@_0CC@EJGEMGMK@Updating?5high?5order?5database?5?8?$CFs@ 0042810c     csdbext.obj
 0002:00001130       ??_C@_07IDCAFMIK@INFOBOX?$AA@ 00428130     Csdialog.obj
 0002:00001138       ??_C@_04OHGLKFFN@?$CF03d?$AA@ 00428138     Csdialog.obj
 0002:00001140       ??_C@_04OEOPHBDD@?$CF01d?$AA@ 00428140     Csdialog.obj
 0002:00001148       ??_C@_05MNLODOPG@?$CF08ld?$AA@ 00428148     Csdialog.obj
 0002:00001150       ??_C@_04OGKJMPGK@?$CF02d?$AA@ 00428150     Csdialog.obj
 0002:00001158       ??_C@_04OBKAGHLG@?$CF06d?$AA@ 00428158     Csdialog.obj
 0002:00001160       ??_C@_04OLDOEKLM@?$CF08d?$AA@ 00428160     Csdialog.obj
 0002:00001168       ??_C@_06ECLMOOEJ@?$CF02d?$CF?$CF?$AA@ 00428168     Csdialog.obj
 0002:00001170       ??_C@_0EL@HLAAHCJK@NetSendDG?5?9?5more?5than?59999?5buffe@ 00428170     Csdialog.obj
 0002:000011c0       ??_C@_0EK@DOEAMFAK@I?8ve?5had?5to?5say?5we?8re?5all?5correc@ 004281c0     Csimain.obj
 0002:0000120c       ??_C@_09EOPPABOA@CC_SECURE?$AA@ 0042820c     Csimain.obj
 0002:00001218       ??_C@_0ED@CCILOOFI@csi32?5V?$CFs?5started?5up?9?9?9?9?9?9?9?9?9?9?9?9@ 00428218     Csimain.obj
 0002:0000125c       ??_C@_0BH@KADLOJBJ@CSI32_MAIN_APPLICATION?$AA@ 0042825c     Csimain.obj
 0002:00001278       ??_C@_0EC@JMOJMCDO@Request?5to?5start?5CSI32?5when?5an?5i@ 00428278     Csimain.obj
 0002:000012bc       ??_C@_04IFEHPILC@Menu?$AA@ 004282bc     Csimain.obj
 0002:000012c4       ??_C@_0BE@JPJNFPAL@CSI32?5?9?5Starting?5up?$AA@ 004282c4     Csimain.obj
 0002:000012d8       ??_C@_01DCLJPIOD@?$CB?$AA@ 004282d8     Csimain.obj
 0002:000012dc       ??_C@_02OEIPDHIL@PR?$AA@   004282dc     Csimain.obj
 0002:000012e0       ??_C@_0DC@JPNHPPFH@Error?5corrected?$CB?5workstation?5?$CFd?5@ 004282e0     Csimain.obj
 0002:00001318       ??_C@_0EE@LDAGBHJE@Cleared?5cache?5following?5packet?5e@ 00428318     Csimain.obj
 0002:0000135c       ??_C@_0BA@PPDEJJFL@NETWORK_MANAGER?$AA@ 0042835c     Csimain.obj
 0002:0000136c       ??_C@_09POOIEEMK@WS?$CF03d?5?9?5?$AA@ 0042836c     Csimain.obj
 0002:00001378       ??_C@_0DF@EAJCFHNK@CSI32?3?5simulating?5RX?5unreliabili@ 00428378     Csimain.obj
 0002:000013b0       ??_C@_0M@DDNOHNFA@CONFIG_VIEW?$AA@ 004283b0     Csimain.obj
 0002:000013bc       ??_C@_07PIGLAMMC@csi?4ini?$AA@ 004283bc     Csimain.obj
 0002:000013c4       ??_C@_04PMOCAHAA@open?$AA@ 004283c4     Csimain.obj
 0002:000013cc       ??_C@_02KJDGAJLC@CC?$AA@   004283cc     Csimain.obj
 0002:000013d0       ??_C@_0CL@LPIBGCE@BBC_REGCLIENT?1CSI_CONNECT32?5?9?5AP@ 004283d0     Csimain.obj
 0002:000013fc       ??_C@_0CO@JPPBMNOD@BBC_REGCLIENT32?1CSI_CONNECT32?5?9?5@ 004283fc     Csimain.obj
 0002:0000142c       ??_C@_0BA@HOCGIIEH@iCacheEnable?$DN?$CFd?$AA@ 0042842c     Csimain.obj
 0002:0000143c       ??_C@_0BP@DJNANFAB@CSServer?5handle?5already?5in?5use?$AA@ 0042843c     Csimain.obj
 0002:0000145c       ??_C@_0BP@NMACJOBP@FBCSlink?5handle?5already?5in?5use?$AA@ 0042845c     Csimain.obj
 0002:00001480       ??_C@_0EG@FBAMMNKP@Attempt?5to?5register?5redundancy?5m@ 00428480     Csimain.obj
 0002:000014c8       ??_C@_0EF@NFNIPIOK@Attempt?5to?5register?5redundancy?5m@ 004284c8     Csimain.obj
 0002:00001510       ??_C@_0CH@KGFOBGAI@Setting?5redundancy?5master?5for?5?$CFd@ 00428510     Csimain.obj
 0002:00001538       ??_C@_0FO@FKAHELLC@Attempt?5to?5register?5redundancy?5m@ 00428538     Csimain.obj
 0002:00001598       ??_C@_0N@GHEGDKMD@csi32fix?4exe?$AA@ 00428598     Csimain.obj
 0002:000015a8       ??_C@_0M@MNAONKKF@csi32?5Error?$AA@ 004285a8     Csimain.obj
 0002:000015b8       ??_C@_0JM@ILMJPPHO@Cannot?5start?5csi32fix?4exe?5?9?5this@ 004285b8     Csimain.obj
 0002:00001654       ??_C@_0L@CBNGBLIF@bwcc32?4dll?$AA@ 00428654     Csimain.obj
 0002:00001660       ??_C@_0M@BMPOINFK@CSI32?5Error?$AA@ 00428660     Csimain.obj
 0002:0000166c       ??_C@_0DA@EIOIHAIM@Cannot?5load?5Borland?5controls?5lib@ 0042866c     Csimain.obj
 0002:0000169c       ??_C@_0N@PDOBLJOO@BWCCRegister?$AA@ 0042869c     Csimain.obj
 0002:000016ac       ??_C@_09KCLNJDLN@Disabled?$CB?$AA@ 004286ac     Csimain.obj
 0002:000016b8       ??_C@_09MPNAHAN@?$CB?5Error?5?$CB?$AA@ 004286b8     Csimain.obj
 0002:000016c8       ??_C@_0FF@GKKPAKEO@Workstation?5number?5not?5set?5in?5bn@ 004286c8     Csimain.obj
 0002:00001720       ??_C@_0IJ@FCDKCF@Workstation?5number?5not?5set?5in?5CS@ 00428720     Csimain.obj
 0002:000017b0       ??_C@_0FC@BLLKILHF@A?5valid?5licence?5key?5file?5?8bncs_k@ 004287b0     Csimain.obj
 0002:00001808       ??_C@_0GL@OLHGFPIH@The?5workstation?5number?5in?5the?5CS@ 00428808     Csimain.obj
 0002:00001874       ??_C@_0P@BDCFFBNC@Starting?5?9?5V?$CFs?$AA@ 00428874     Csimain.obj
 0002:00001884       ??_C@_0DO@IMOMGOKL@?$CBWarning?$CB?5?3?5There?5are?5?$CFd?5INI?5fil@ 00428884     Csimain.obj
 0002:000018c4       ??_C@_07PMHLEHMN@NL?5?$CF03d?$AA@ 004288c4     Csimain.obj
 0002:000018cc       ??_C@_0CC@ILHGOCFA@CSI32?5?9?5Messaging?5Fix?5applicatio@ 004288cc     Csimain.obj
 0002:000018f0       ??_C@_0CC@CHLPFHOJ@inf32?5?9?5Messaging?5Fix?5applicatio@ 004288f0     Csimain.obj
 0002:00001914       ??_C@_0CC@FFPAPCBO@grd32?5?9?5Messaging?5Fix?5applicatio@ 00428914     Csimain.obj
 0002:00001938       ??_C@_0BB@OMJOGLEN@?4?4?4?5Closing?5down?$AA@ 00428938     Csimain.obj
 0002:0000194c       ??_C@_0N@ONINMHPM@csi_lock?4tmp?$AA@ 0042894c     Csimain.obj
 0002:0000195c       ??_C@_0DI@LIIOFFHL@?$CKUNRELIABLE?$CK?5CSI32?5?9?5V?$CFs?5?9?5?$CFs?5?9?5@ 0042895c     Csimain.obj
 0002:00001994       ??_C@_0CL@DLIEKGGG@CSI32?5?9?5V?$CFs?5?9?5?$CFs?5?9?5Workstation?5?$CF@ 00428994     Csimain.obj
 0002:000019c0       ??_C@_0O@HOOPOMCF@?5?9?5Loopback?5O?$AA@ 004289c0     Csimain.obj
 0002:000019d0       ??_C@_01EFFIKLCJ@n?$AA@    004289d0     Csimain.obj
 0002:000019d4       ??_C@_02HPEDFNFO@ff?$AA@   004289d4     Csimain.obj
 0002:000019d8       ??_C@_03LKHCFACI@nly?$AA@  004289d8     Csimain.obj
 0002:000019dc       ??_C@_0BA@GHFKPBHA@?5?9?5?$CB?5Disabled?5?$CB?$AA@ 004289dc     Csimain.obj
 0002:000019ec       ??_C@_08PJGOPNMK@DiagMode?$AA@ 004289ec     Csimain.obj
 0002:000019f8       ??_C@_0M@KLCHMOKB@Diagnostics?$AA@ 004289f8     Csimain.obj
 0002:00001a04       ??_C@_0P@NDALLNJE@DiagModeExtend?$AA@ 00428a04     Csimain.obj
 0002:00001a14       ??_C@_09DAMNBEKD@DebugMode?$AA@ 00428a14     Csimain.obj
 0002:00001a20       ??_C@_0O@HBFIENKE@SessionEnable?$AA@ 00428a20     Csimain.obj
 0002:00001a30       ??_C@_0N@DFIPDPGD@ClientEnable?$AA@ 00428a30     Csimain.obj
 0002:00001a40       ??_C@_0N@CFHGKKGI@DriverEnable?$AA@ 00428a40     Csimain.obj
 0002:00001a50       ??_C@_0M@FPBKNPFP@CacheEnable?$AA@ 00428a50     Csimain.obj
 0002:00001a5c       ??_C@_05BEHOCFPE@Cache?$AA@ 00428a5c     Csimain.obj
 0002:00001a64       ??_C@_0CB@IMAEOPIP@CSMain_TxCmd?3?5device?5number?5zero@ 00428a64     Csimain.obj
 0002:00001a88       ??_C@_0CO@IKKBEPAN@CSMain_TxCmd?3?5device?5number?5more@ 00428a88     Csimain.obj
 0002:00001ab8       ??_C@_0CP@EHFCIFFE@?$CBError?$CB?5?3?5Client?5tried?5sending?5?$CF@ 00428ab8     Csimain.obj
 0002:00001ae8       ??_C@_0BC@IAMHHMAJ@GRD_?$CF03d?5?5?5?5?5?5?5?5?5?$AA@ 00428ae8     Csimain.obj
 0002:00001afc       ??_C@_0BC@OHBNFGLM@GPID_?$CF03d?5?5?5?5?5?5?5?5?$AA@ 00428afc     Csimain.obj
 0002:00001b10       ??_C@_0BC@IFIJBFEN@ID_?$CF03d?5?5?5?5?5?5?5?5?5?5?$AA@ 00428b10     Csimain.obj
 0002:00001b24       ??_C@_0BC@EPJNIDBF@BS_?$CF03d?5?5?5?5?5?5?5?5?5?5?$AA@ 00428b24     Csimain.obj
 0002:00001b38       ??_C@_01JLIPDDHJ@?3?$AA@   00428b38     Csimain.obj
 0002:00001b3c       ??_C@_0O@IPMGEACO@?3NN?5?$CF03d?5?$CF08x?$AA@ 00428b3c     Csimain.obj
 0002:00001b4c       ??_C@_0CK@EELHMHKM@TS?5?$CF02d?5?$CF2d?5?$CF04d?5?$CF02d?5?$CF02d?5?$CF02d?5@ 00428b4c     Csimain.obj
 0002:00001b78       ??_C@_03JDANDILB@?$CFd?5?$AA@ 00428b78     Csimain.obj
 0002:00001b7c       ??_C@_06JNINJID@?5?$CFd?5?$CFd?$AA@ 00428b7c     Csimain.obj
 0002:00001b88       ??_C@_0EJ@JNKFPPKP@?$DMCSI?$DO?500?0?$CF03d?0?$CF02d?0?$CFd?0?$CFd?0?$CFd?0?$CFd?0?$CF@ 00428b88     Csimain.obj
 0002:00001bd4       ??_C@_0BD@POFMOEAB@?$DMCSI?$DO?501?0?$CF03d?0?$CF02d?$AA@ 00428bd4     Csimain.obj
 0002:00001be8       ??_C@_0BE@NHLOAPDJ@not?5Txrx?5?9?5checking?$AA@ 00428be8     Csimain.obj
 0002:00001bfc       ??_C@_0BG@DNGNOEOL@not?5Txrx?5?9?5setting?5so?$AA@ 00428bfc     Csimain.obj
 0002:00001c14       ??_C@_0O@BFDDCKOF@NC?5?$CF03ld?5?$CF03d?$AA@ 00428c14     Csimain.obj
 0002:00001c24       ??_C@_0O@CPGMEMMD@NI?5?$CF03ld?5?$CF03d?$AA@ 00428c24     Csimain.obj
 0002:00001c34       ??_C@_0O@HFGPJPKO@NA?5?$CF03ld?5?$CF03d?$AA@ 00428c34     Csimain.obj
 0002:00001c44       ??_C@_0BA@HAEMMOH@NO?5?$CF03ld?50?5?$CF03d?$AA@ 00428c44     Csimain.obj
 0002:00001c54       ??_C@_0O@MIKFPDGA@NB?5?$CF03ld?5?$CF03d?$AA@ 00428c54     Csimain.obj
 0002:00001c64       ??_C@_0CO@DOHFNCCE@Incomplete?5session?5status?5messag@ 00428c64     Csimain.obj
 0002:00001c94       ??_C@_0BI@EBCCELHM@ClearCacheOnPacketError?$AA@ 00428c94     Csimain.obj
 0002:00001cac       ??_C@_0BI@PBACOFEK@SendPacketSerialNumbers?$AA@ 00428cac     Csimain.obj
 0002:00001cc4       ??_C@_0BJ@BAOPCMGH@SendCommandSerialNumbers?$AA@ 00428cc4     Csimain.obj
 0002:00001ce0       ??_C@_0EK@BKJOGNGD@csi32?5shut?5down?9?9?9?9?9?9?9?9?9?9?9?9?9?9?9?9?9@ 00428ce0     Csimain.obj
 0002:00001d2c       ??_C@_0DB@OIKDBPMN@Drivers?3?5Mx?3?5?$CF08ld?5Tx?3?5?$CF08ld?5Rx?3@ 00428d2c     Csimain.obj
 0002:00001d60       ??_C@_0DL@GLMPFKHP@Clients?3?5Mx?3?5?$CF08ld?5Tx?3?5?$CF08ld?5Rx?3@ 00428d60     Csimain.obj
 0002:00001d9c       ??_C@_0BP@GHKBNILH@NetSend?5HWM?3?5?5?5?5?5?5?5?5?5?5?5?5?5?$CF08ld?$AA@ 00428d9c     Csimain.obj
 0002:00001dbc       ??_C@_0BP@CAIHLAAO@NetSend?5Errors?3?5?5?5?5?5?5?5?5?5?5?$CF08ld?$AA@ 00428dbc     Csimain.obj
 0002:00001ddc       ??_C@_0BP@HDACACAL@Cache?5poll?5queue?5HWM?3?5?5?5?5?$CF08ld?$AA@ 00428ddc     Csimain.obj
 0002:00001dfc       ??_C@_0BP@GLCMHEGC@Receive?5queue?5HWM?3?5?5?5?5?5?5?5?$CF08ld?$AA@ 00428dfc     Csimain.obj
 0002:00001e1c       ??_C@_0BP@GPCFIDAG@Rev?5pkt?5ser?5num?5errs?3?5?5?5?5?$CF08ld?$AA@ 00428e1c     Csimain.obj
 0002:00001e3c       ??_C@_0BP@DACBFECC@Unrecoverable?5pkt?5errs?3?5?5?$CF08ld?$AA@ 00428e3c     Csimain.obj
 0002:00001e5c       ??_C@_0BP@HOCNICJK@Relevant?5recovered?5pkts?3?5?$CF08ld?$AA@ 00428e5c     Csimain.obj
 0002:00001e7c       ??_C@_0BP@CCPLDFOK@Irrelevant?5recoverd?5pkts?3?$CF08ld?$AA@ 00428e7c     Csimain.obj
 0002:00001ea0       ??_C@_0EK@EEGIEKK@?9?9?9?9?9?9?9?9?9?9?9?9?9?9?9?9?9?9?9?9?9?9?9?9?9?9?9?9?9?9?9?9@ 00428ea0     Csimain.obj
 0002:00001eec       ??_C@_04JLMDILM@?4exe?$AA@ 00428eec     Csimain.obj
 0002:00001ef4       ??_C@_04PICIEOBI@?4chm?$AA@ 00428ef4     Csimain.obj
 0002:00001efc       ??_C@_02OBAMLDBN@PE?$AA@   00428efc     Csimain.obj
 0002:00001f00       ??_C@_0BA@DPJEINPK@Workstation?5?$CFd?6?$AA@ 00428f00     Csimain.obj
 0002:00001f10       ??_C@_07ONPBMBOP@message?$AA@ 00428f10     Csimain.obj
 0002:00001f18       ??_C@_03BFKAHOOJ@csi?$AA@  00428f18     Csimain.obj
 0002:00001f1c       ??_C@_06FJHNOCKE@thread?$AA@ 00428f1c     Csimain.obj
 0002:00001f24       ??_C@_0BA@GFEJKLCD@Overflow?$AB?$KM?$AF?$AH?$AD?$KM?$GA?$AA@ 00428f24     Csimain.obj
 0002:00001f34       ??_C@_0BB@MOGOBHAF@list?$DMT?$DO?5too?5long?$AA@ 00428f34     Csimain.obj
 0002:00001f48       ??_C@_07LEJMGMMC@LICENSE?$AA@ 00428f48     CSLICENS.obj
 0002:00001f50       ??_C@_0BB@IJGCILIH@licensed?5to?5?8?$CFs?8?$AA@ 00428f50     CSLICENS.obj
 0002:00001f64       ??_C@_0BE@MLCKBDBE@Licence?5expiry?5?3?5?$CFs?$AA@ 00428f64     CSLICENS.obj
 0002:00001f78       ??_C@_0BB@NJOCLLEC@Max?5Drivers?5?3?5?$CFd?$AA@ 00428f78     CSLICENS.obj
 0002:00001f8c       ??_C@_0BB@EPKNBEOB@Max?5Devices?5?3?5?$CFd?$AA@ 00428f8c     CSLICENS.obj
 0002:00001fa0       ??_C@_0BE@EKHKPGMK@Maximum?5Users?5?3?9?5?$CFd?$AA@ 00428fa0     CSLICENS.obj
 0002:00001fb4       ??_C@_0BI@LMAJPMNF@This?5is?5workstation?5?$CFd?4?$AA@ 00428fb4     CSLICENS.obj
 0002:00001fcc       ??_C@_05GBEJKOJK@CSI?$CFd?$AA@ 00428fcc     Csndi.obj
 0002:00001fd4       ??_C@_03BIFLLDJF@CSI?$AA@  00428fd4     Csndi.obj
 0002:00001fd8       ??_C@_0BL@BBGMHEPI@sending?5command?5to?5gateway?$AA@ 00428fd8     Csndi.obj
 0002:00001ff4       ??_C@_0DI@GPLLBNHM@CSI32?3?5IPC?5failure?5but?5not?5delet@ 00428ff4     Csndi.obj
 0002:0000202c       ??_C@_0DI@GCANPJID@Request?5to?5register?5device?5?$CFld?5f@ 0042902c     Csndi.obj
 0002:00002064       ??_C@_0DO@IDJEAMKK@Removing?5registration?5for?5device@ 00429064     Csndi.obj
 0002:000020a4       ??_C@_0CC@IIONBMAF@Number?5of?5drivers?5exceeds?5licens@ 004290a4     Csndi.obj
 0002:000020c8       ??_C@_0DJ@KOECCOFI@Device?5?$CFd?5is?5already?5registered?5@ 004290c8     Csndi.obj
 0002:00002104       ??_C@_0DD@DMEMLEKB@Driver?5hWnd?5?$CF04x?5is?5unregisterin@ 00429104     Csndi.obj
 0002:00002138       ??_C@_0N@FMGFFCBG@NC?5?$CF03d?5?$CF03d?$AA@ 00429138     Csndi.obj
 0002:00002148       ??_C@_0DK@NBNKEFLP@Request?5to?5send?5UNIMESSAGE?5with?5@ 00429148     Csndi.obj
 0002:00002184       ??_C@_0BC@OJFONGBH@?$CFs?2CP?$CF03d?$CF03d?4TMP?$AA@ 00429184     Csndi.obj
 0002:00002198       ??_C@_0CI@PKJBIJNB@Unable?5to?5open?5temporary?5poll?5fi@ 00429198     Csndi.obj
 0002:000021c0       ??_C@_0CI@KGIEEGCE@Error?5?3?5?5Could?5not?5close?5temp?5po@ 004291c0     Csndi.obj
 0002:000021e8       ??_C@_08ICEILEAN@CSI?5?3?5?$CFs?$AA@ 004291e8     Csndi.obj
 0002:000021f4       ??_C@_07MCOIDKDE@?$DM?$CFd?$DO?5?$CFs?$AA@ 004291f4     Csndi.obj
 0002:000021fc       ??_C@_0BB@LOJFOIFL@RP?5?$CFd?5?$CFs?5?9?9?9?50?50?$AA@ 004291fc     Csnetcli.obj
 0002:00002210       ??_C@_0BB@FNGKJNKK@GP?5?$CFd?5?$CFs?5?9?9?9?50?50?$AA@ 00429210     Csnetcli.obj
 0002:00002224       ??_C@_0BB@BMEOGFDM@IP?5?$CFd?5?$CFs?5?9?9?9?50?50?$AA@ 00429224     Csnetcli.obj
 0002:00002238       ??_C@_0CB@BHJIEGPD@Attempting?5to?5send?5poll?5file?5?4?4?4@ 00429238     Csnetcli.obj
 0002:0000225c       ??_C@_0BE@DLOBAGHK@?$CFs?5?$CFd?5?$CFs?5?$CFs?5?$CFd?5?$CF08x?$AA@ 0042925c     Csnetcli.obj
 0002:00002270       ??_C@_0BG@CIFCOILK@?$CF02x?5?$CFd?5?$CFs?5?$CFs?5?$CFd?5?$CF08x?$AA@ 00429270     Csnetcli.obj
 0002:00002288       ??_C@_0BE@JBBGJNFG@?$CFx?5?$CFd?5?$CFs?5?$CFs?5?$CFd?5?$CF08x?$AA@ 00429288     Csnetcli.obj
 0002:0000229c       ??_C@_0BD@GKKLFGLG@WORKSTATION_?$CF02d?5?5?$AA@ 0042929c     Csnetcli.obj
 0002:000022b0       ??_C@_04CNJBKMPC@Call?$AA@ 004292b0     Csnetcli.obj
 0002:000022b8       ??_C@_0BE@HMAOEPFA@?$DMCS?$DO?9NCBCALL?5failed?$AA@ 004292b8     Csnetcli.obj
 0002:000022cc       ??_C@_0BE@PEHHLDLF@?8Call?5Accepted?8?5?5?$CFd?$AA@ 004292cc     Csnetcli.obj
 0002:000022e0       ??_C@_0BM@CIDNMLMJ@Info?5for?5Status?5waiting?4?4?4?4?$AA@ 004292e0     Csnetcli.obj
 0002:000022fc       ??_C@_08MAONNLAM@?$CFx?5?$CFd?5?$CFs?$AA@ 004292fc     Csnetcli.obj
 0002:00002308       ??_C@_0DI@FAELMNJJ@?$CBError?5?9?5CSNetCli_RxData?$CI?$CJ?5Inval@ 00429308     Csnetcli.obj
 0002:00002340       ??_C@_0DG@HPOLDCPD@?$CBError?5?9?5Received?5invalid?5sessio@ 00429340     Csnetcli.obj
 0002:00002378       ??_C@_0BE@DGJHEPHF@Sending?5request?4?4?4?5?$AA@ 00429378     Csnetcli.obj
 0002:0000238c       ??_C@_0L@BKPKPAFL@?$CF02x?5?$CFd?5?$CFs?$AA@ 0042938c     Csnetcli.obj
 0002:00002398       ??_C@_0BO@JLINNFPF@Session?5Result?5?3?50x?$CF04x?5?$CFd?5?$CFd?$AA@ 00429398     Csnetcli.obj
 0002:000023b8       ??_C@_0CJ@CLIBAIOP@Network?5fail?5?$CIand?5HWND_BROADCAST@ 004293b8     CSNETMSG.obj
 0002:000023e4       ??_C@_0N@KFGLIDNA@Network?5fail?$AA@ 004293e4     CSNETMSG.obj
 0002:000023f4       ??_C@_0CA@IECIEFHA@BBC_NETSTATUSMSG?0?5NETWORK_FAIL?6?$AA@ 004293f4     CSNETMSG.obj
 0002:00002414       ??_C@_0BE@GKBJCBFM@?$DMCS?$DO?9MSG?9Unexpected?$AA@ 00429414     CSNETMSG.obj
 0002:00002428       ??_C@_0BK@OINPOCEL@?$DMCS?$DO?9MSG?9NCBDGSEND?5failed?$AA@ 00429428     CSNETMSG.obj
 0002:00002444       ??_C@_0BH@HIHIBOHH@?$DMCS?$DO?9MSG?9LISTEN?5failed?$AA@ 00429444     CSNETMSG.obj
 0002:0000245c       ??_C@_0BF@JIEOBOEK@?$DMCS?$DO?9MSG?9CALL?5failed?$AA@ 0042945c     CSNETMSG.obj
 0002:00002474       ??_C@_0BE@FKNDEING@Attempting?5retry?4?4?4?$AA@ 00429474     CSNETMSG.obj
 0002:00002488       ??_C@_0BI@NLJDMCBE@?$DMCS?$DO?9MSG?9NCBSEND?5failed?$AA@ 00429488     CSNETMSG.obj
 0002:000024a0       ??_C@_0BI@DHPOGPDM@?$DMCS?$DO?9MSG?9NCBRECV?5failed?$AA@ 004294a0     CSNETMSG.obj
 0002:000024b8       ??_C@_0BJ@INENAIPB@NetReceive?$CI?$CJ?5post?5failed?$AA@ 004294b8     Csnetses.obj
 0002:000024d4       ??_C@_0BI@DHFJFODO@?$DMCS?$DO?9IMM?9NCBSEND?5failed?$AA@ 004294d4     Csnetses.obj
 0002:000024ec       ??_C@_0BO@HMMCGDCA@Forcing?5closure?5on?5Tx?5session?$AA@ 004294ec     Csnetses.obj
 0002:0000250c       ??_C@_0CF@FBJEMGHI@Hanging?5up?5aborted?5session?5on?5LS@ 0042950c     Csnetses.obj
 0002:00002534       ??_C@_0CC@IGNJELJO@Alive?5session?5on?5LSN?5?$CFd?5?9?5Tick?5?$CF@ 00429534     Csnetses.obj
 0002:00002558       ??_C@_0CK@GHANJOF@Hanging?5up?5zombie?5alive?5session?5@ 00429558     Csnetses.obj
 0002:00002584       ??_C@_0CF@BLEJPALA@?$DMCS?$DO?9IMM?9NCBHANGUP?5failed?5on?5ses@ 00429584     Csnetses.obj
 0002:000025ac       ??_C@_0BD@EKIGHHEL@Hanging?5up?5session?$AA@ 004295ac     Csnetses.obj
 0002:000025c0       ??_C@_0BL@KMCFJCLF@Deleting?5temporary?5file?5?$CFs?$AA@ 004295c0     Csnetses.obj
 0002:000025dc       ??_C@_0BB@CKNKCEGB@?$CFs?2CSI0_?$CF03d?4TMP?$AA@ 004295dc     Csnetses.obj
 0002:000025f0       ??_C@_0CD@JHIIGMEA@Unable?5to?5open?5directory?5file?5?8?$CF@ 004295f0     Csnetses.obj
 0002:00002614       ??_C@_0BA@CDMAOEJM@Directory?5of?5?$CFs?$AA@ 00429614     Csnetses.obj
 0002:00002624       ??_C@_0P@BIECMILO@?$CFs?5?5?5?5?5?5?5?5?5?5?5?5?$AA@ 00429624     Csnetses.obj
 0002:00002634       ??_C@_0BH@NPCLKEEP@?9?9?9?5?$CFd?5files?5found?5?9?9?9?$AA@ 00429634     Csnetses.obj
 0002:0000264c       ??_C@_0BJ@ECLBCBFK@Unable?5to?5open?5file?5?8?$CFs?8?$AA@ 0042964c     Csnetses.obj
 0002:00002668       ??_C@_0CA@LNIKGBON@Unable?5to?5read?5from?5file?50x?$CF04x?$AA@ 00429668     Csnetses.obj
 0002:00002688       ??_C@_0CB@NAPGHLLO@TX?5?3?5Sending?5?$CFd?5bytes?5on?5session@ 00429688     Csnetses.obj
 0002:000026ac       ??_C@_0L@EGGPGGEG@Read?5?3?5EOF?$AA@ 004296ac     Csnetses.obj
 0002:000026b8       ??_C@_0BO@NGAHMOCH@Error?5?3?5?5Could?5not?5close?5file?$AA@ 004296b8     Csnetses.obj
 0002:000026d8       ??_C@_0P@DKFADINI@Posting?5Listen?$AA@ 004296d8     Csnetsrv.obj
 0002:000026e8       ??_C@_01NBENCBCI@?$CK?$AA@ 004296e8     Csnetsrv.obj
 0002:000026ec       ??_C@_0BI@BIGHCCCB@NetListen?$CI?$CJ?5post?5failed?$AA@ 004296ec     Csnetsrv.obj
 0002:00002704       ??_C@_0BC@HLFGEFAM@?8Listen?8?5accepted?$AA@ 00429704     Csnetsrv.obj
 0002:00002718       ??_C@_0DA@LIMJBABF@?$CBError?5?9?5CSNetSrv_TxData?$CI?$CJ?5inval@ 00429718     Csnetsrv.obj
 0002:00002748       ??_C@_0CG@JDIJBPMD@SRX?3?5Incoming?5request?5on?5session@ 00429748     Csnetsrv.obj
 0002:00002770       ??_C@_08MFGOFPJK@?$CFx?5?$CFd?5?$CFd?$AA@ 00429770     Csnetsrv.obj
 0002:0000277c       ??_C@_0BD@OECDJMPD@SRX?5?3?51st?5Dir?5File?$AA@ 0042977c     Csnetsrv.obj
 0002:00002790       ??_C@_0CC@NDNJBNBD@?$CBError?5?9?5Directory?5does?5not?5exis@ 00429790     Csnetsrv.obj
 0002:000027b4       ??_C@_0BD@OJNBIAED@SRX?5?3?51st?5Get?5File?$AA@ 004297b4     Csnetsrv.obj
 0002:000027c8       ??_C@_0BE@COCMOEPL@SRX?5?3?51st?5Poll?5File?$AA@ 004297c8     Csnetsrv.obj
 0002:000027dc       ??_C@_0BE@CBPPJMHM@SRX?5?3?51st?5Send?5File?$AA@ 004297dc     Csnetsrv.obj
 0002:000027f0       ??_C@_0DA@KGEDHPPN@?$CBError?5?9?5CSNetSrv_RxData?$CI?$CJ?5Inval@ 004297f0     Csnetsrv.obj
 0002:00002820       ??_C@_0BE@FNJOLJKH@SRX?5?3?52st?5Send?5File?$AA@ 00429820     Csnetsrv.obj
 0002:00002834       ??_C@_0CK@OPJCINAO@?$CBError?5?92?9?5CSNetSrv_RxData?$CI?$CJ?5ses@ 00429834     Csnetsrv.obj
 0002:00002860       ??_C@_0BB@KGCPINME@DEVICE_CONTROL?$CFd?$AA@ 00429860     Csnetsup.obj
 0002:00002874       ??_C@_0P@JIFIOMKO@DEVICE_CONTROL?$AA@ 00429874     Csnetsup.obj
 0002:00002888       ??_C@_0HL@LKFKNLFE@Unable?5to?5access?5the?5network?4?5Th@ 00429888     Csnetsup.obj
 0002:00002904       ??_C@_0P@ICEPHMNP@STATUS_CHANNEL?$AA@ 00429904     Csnetsup.obj
 0002:00002914       ??_C@_0CH@OLKDAECM@Network?5OK?5?$CIand?5HWND_BROADCAST?5f@ 00429914     Csnetsup.obj
 0002:0000293c       ??_C@_0L@DBNNJMAJ@Network?5OK?$AA@ 0042993c     Csnetsup.obj
 0002:00002948       ??_C@_0BO@NJKHEGGB@BBC_NETSTATUSMSG?0?5NETWORK_OK?6?$AA@ 00429948     Csnetsup.obj
 0002:00002968       ??_C@_0EA@FJKBEEDL@Unable?5to?5initialise?5network?5int@ 00429968     Csnetsup.obj
 0002:000029a8       ??_C@_0BL@OKBPCIDF@NetReceiveDG?$CI?$CJ?5post?5failed?$AA@ 004299a8     Csnetsup.obj
 0002:000029c4       ??_C@_0DK@EKONMPM@Unable?5to?5initialise?5network?5int@ 004299c4     Csnetsup.obj
 0002:00002a00       ??_C@_0BG@ODCCBDMJ@?$DMCS?$DO?9NCBCANCEL?5failed?$AA@ 00429a00     Csnetsup.obj
 0002:00002a18       ??_C@_0P@BAGDBHOH@BNCSRECOVERY?$CFd?$AA@ 00429a18     Csnetsup.obj
 0002:00002a28       ??_C@_0N@EAGNEHFF@BNCSRECOVERY?$AA@ 00429a28     Csnetsup.obj
 0002:00002a38       ??_C@_0EJ@HHIEMNCC@Unable?5to?5initialise?5network?5int@ 00429a38     Csnetsup.obj
 0002:00002a84       ??_C@_0CA@BEBHLEGI@?$DMCS?$DO?9NCBSENDDG?5failed?5?9?$DO?50x?$CF02x?$AA@ 00429a84     Csnetsup.obj
 0002:00002aa4       ??_C@_0CK@OGJMFJBM@Network?5connection?5reset?5after?5?$CF@ 00429aa4     Csnetsup.obj
 0002:00002ad0       ??_C@_0BG@FGBIFJKI@Network?5reset?5failed?4?$AA@ 00429ad0     Csnetsup.obj
 0002:00002ae8       ??_C@_0P@PKHJHOPF@CC_WORKSTATION?$AA@ 00429ae8     Csprof.obj
 0002:00002af8       ??_C@_0M@CILGCIDH@Workstation?$AA@ 00429af8     Csprof.obj
 0002:00002b04       ??_C@_0N@GPPMMPMD@APPLCORE?4INI?$AA@ 00429b04     Csprof.obj
 0002:00002b14       ??_C@_06JIODDOFH@System?$AA@ 00429b14     Csprof.obj
 0002:00002b1c       ??_C@_0P@IOLOJICH@DefaultAdaptor?$AA@ 00429b1c     Csprof.obj
 0002:00002b2c       ??_C@_07DMJBFPJJ@Channel?$AA@ 00429b2c     Csprof.obj
 0002:00002b34       ??_C@_0O@HMCAEAJL@NetworkEnable?$AA@ 00429b34     Csprof.obj
 0002:00002b44       ??_C@_0BE@HIDEDMDD@StatusChannelEnable?$AA@ 00429b44     Csprof.obj
 0002:00002b58       ??_C@_0O@DDGEDIMC@ClientBuffers?$AA@ 00429b58     Csprof.obj
 0002:00002b68       ??_C@_02PIBHCBOA@20?$AA@   00429b68     Csprof.obj
 0002:00002b6c       ??_C@_0O@KEKGBINP@DriverBuffers?$AA@ 00429b6c     Csprof.obj
 0002:00002b7c       ??_C@_01FAMBOPH@4?$AA@     00429b7c     Csprof.obj
 0002:00002b80       ??_C@_0P@DGCALIKD@SessionBuffers?$AA@ 00429b80     Csprof.obj
 0002:00002b90       ??_C@_01KJLJFBPL@8?$AA@    00429b90     Csprof.obj
 0002:00002b94       ??_C@_0BD@JHICPLAP@PktRecoveryBuffers?$AA@ 00429b94     Csprof.obj
 0002:00002ba8       ??_C@_06CKGENIKG@Enable?$AA@ 00429ba8     Csprof.obj
 0002:00002bb0       ??_C@_0P@NHAOFHHM@PacketRecovery?$AA@ 00429bb0     Csprof.obj
 0002:00002bc0       ??_C@_0L@LHKCOLPF@DeafToSelf?$AA@ 00429bc0     Csprof.obj
 0002:00002bcc       ??_C@_0BF@FLOMIBDB@DevIniMustExistForV2?$AA@ 00429bcc     Csprof.obj
 0002:00002be4       ??_C@_0P@OGKHCCNN@LoopbackEnable?$AA@ 00429be4     Csprof.obj
 0002:00002bf4       ??_C@_0P@PENJPLEF@HWMBufferFlush?$AA@ 00429bf4     Csprof.obj
 0002:00002c04       ??_C@_0O@GKMBIJHA@HWMCacheFlush?$AA@ 00429c04     Csprof.obj
 0002:00002c14       ??_C@_0BA@HJKBOIOI@V1Compatibility?$AA@ 00429c14     Csprof.obj
 0002:00002c24       ??_C@_0M@CGJONPBF@HangUpDelay?$AA@ 00429c24     Csprof.obj
 0002:00002c30       ??_C@_04JJEEECCE@1500?$AA@ 00429c30     Csprof.obj
 0002:00002c38       ??_C@_0BA@JCPAPJBH@PeerPollRefresh?$AA@ 00429c38     Csprof.obj
 0002:00002c48       ??_C@_0P@PFKKGMBO@UseMemoryCache?$AA@ 00429c48     Csprof.obj
 0002:00002c58       ??_C@_0BF@CMHLHMGB@ClearCacheOnNetClose?$AA@ 00429c58     Csprof.obj
 0002:00002c70       ??_C@_0BM@PLLMMKIP@DistributeBBC_NETTXRXSTATUS?$AA@ 00429c70     Csprof.obj
 0002:00002c8c       ??_C@_0BL@DKDAHHBM@DistributeBBC_NETMSGUPDATE?$AA@ 00429c8c     Csprof.obj
 0002:00002ca8       ??_C@_0BA@MHCFCJAL@HeartbeatEnable?$AA@ 00429ca8     Csprof.obj
 0002:00002cb8       ??_C@_0BB@GCIBFPJN@HeartbeatTimeout?$AA@ 00429cb8     Csprof.obj
 0002:00002ccc       ??_C@_02PPBOIJDM@60?$AA@   00429ccc     Csprof.obj
 0002:00002cd0       ??_C@_02PKFBJPLJ@10?$AA@   00429cd0     Csprof.obj
 0002:00002cd4       ??_C@_09OEJFPKAI@CacheSize?$AA@ 00429cd4     Csprof.obj
 0002:00002ce0       ??_C@_04CGNBOOAP@8192?$AA@ 00429ce0     Csprof.obj
 0002:00002ce8       ??_C@_09BDBJKAEP@CacheLife?$AA@ 00429ce8     Csprof.obj
 0002:00002cf4       ??_C@_0BB@LEKFHEJN@TimeServerEnable?$AA@ 00429cf4     Csprof.obj
 0002:00002d08       ??_C@_0L@JAJNDELA@TimeServer?$AA@ 00429d08     Csprof.obj
 0002:00002d14       ??_C@_0BB@JINCHM@TimeServerPeriod?$AA@ 00429d14     Csprof.obj
 0002:00002d28       ??_C@_0P@CLJPELBH@ClosedownDelay?$AA@ 00429d28     Csprof.obj
 0002:00002d38       ??_C@_04MHPHMCPO@Misc?$AA@ 00429d38     Csprof.obj
 0002:00002d40       ??_C@_0BA@OEAMJOKB@WatchDogComPort?$AA@ 00429d40     Csprof.obj
 0002:00002d50       ??_C@_0BG@HLJDLNAC@DisableWatchdogOnExit?$AA@ 00429d50     Csprof.obj
 0002:00002d68       ??_C@_0BA@HPIKGCJO@TxRxRetryPeriod?$AA@ 00429d68     Csprof.obj
 0002:00002d78       ??_C@_0L@OFMEDLMB@MaxClients?$AA@ 00429d78     Csprof.obj
 0002:00002d84       ??_C@_04MJHCKDHM@1024?$AA@ 00429d84     Csprof.obj
 0002:00002d8c       ??_C@_0BE@BIGPLCJE@CompileHighOrderDBs?$AA@ 00429d8c     Csprof.obj
 0002:00002da0       ??_C@_0P@LEKIIJHD@SelectiveCache?$AA@ 00429da0     Csprof.obj
 0002:00002db0       ??_C@_0BB@FAMNHNMP@TxRecoveryWindow?$AA@ 00429db0     Csprof.obj
 0002:00002dc4       ??_C@_03GNABGMEE@100?$AA@  00429dc4     Csprof.obj
 0002:00002dc8       ??_C@_0BO@LEEJJAMO@MaxRecoveryMessageHoldoff?$CIms?$CJ?$AA@ 00429dc8     Csprof.obj
 0002:00002de8       ??_C@_04OJDKMIMG@2000?$AA@ 00429de8     Csprof.obj
 0002:00002df0       ??_C@_0BG@GDLGJNEG@SimulateUnreliability?$AA@ 00429df0     Csprof.obj
 0002:00002e08       ??_C@_0BE@JINAOCB@UnreliabilityTxRate?$AA@ 00429e08     Csprof.obj
 0002:00002e1c       ??_C@_0BF@MEGAMGHJ@UnreliabilityTxCount?$AA@ 00429e1c     Csprof.obj
 0002:00002e34       ??_C@_01FDFGLJHB@2?$AA@    00429e34     Csprof.obj
 0002:00002e38       ??_C@_0BE@GKFNDLBL@UnreliabilityRxRate?$AA@ 00429e38     Csprof.obj
 0002:00002e4c       ??_C@_0BF@CAPMPPO@UnreliabilityRxCount?$AA@ 00429e4c     Csprof.obj
 0002:00002e64       ??_C@_0BE@OJPCKKGG@MaxRecoveryRequests?$AA@ 00429e64     Csprof.obj
 0002:00002e78       ??_C@_01BMBHCPLG@5?$AA@    00429e78     Csprof.obj
 0002:00002e7c       ??_C@_0BO@FEHGNHNG@RecoveryRequestRepeatRate?$CIms?$CJ?$AA@ 00429e7c     Csprof.obj
 0002:00002e9c       ??_C@_0BK@MHDLIHJA@MaxRecoveryPacketsPerTick?$AA@ 00429e9c     Csprof.obj
 0002:00002eb8       ??_C@_0BD@FPEGEEKL@DeviceInfodriverId?$AA@ 00429eb8     Csprof.obj
 0002:00002ecc       ??_C@_06PGDKHFME@Status?$AA@ 00429ecc     Csprof.obj
 0002:00002ed4       ??_C@_0BI@EHEIGEGG@WorkstationInfodriverId?$AA@ 00429ed4     Csprof.obj
 0002:00002eec       ??_C@_0BD@NENIJMPA@StartupDelay?$CIsecs?$CJ?$AA@ 00429eec     Csprof.obj
 0002:00002f00       ??_C@_02OGAFLIHN@61?$AA@   00429f00     Csprof.obj
 0002:00002f04       ??_C@_0CF@KANFKNBH@UseMemoryDatabaseOnly?$CIno_V1_supp@ 00429f04     Csprof.obj
 0002:00002f2c       ??_C@_0BM@GBEMMOLJ@HWND_BROADCAST_NETSTATUSMSG?$AA@ 00429f2c     Csprof.obj
 0002:00002f48       ??_C@_0BB@NIIMMDMA@WindowsMessaging?$AA@ 00429f48     Csprof.obj
 0002:00002f5c       ??_C@_0BP@FKPJIDGF@HWND_BROADCAST_CSICLOSEWARNING?$AA@ 00429f5c     Csprof.obj
 0002:00002f7c       ??_C@_0BI@KAOLPFFN@HWND_BROADCAST_APPREADY?$AA@ 00429f7c     Csprof.obj
 0002:00002f94       ??_C@_04BNBIIKFM@Xpos?$AA@ 00429f94     Csprof.obj
 0002:00002f9c       ??_C@_06BKKJGDHO@Window?$AA@ 00429f9c     Csprof.obj
 0002:00002fa4       ??_C@_04CAHIKDOM@Ypos?$AA@ 00429fa4     Csprof.obj
 0002:00002fac       ??_C@_0M@MDKLCBNG@Device?5?$CF03d?$AA@ 00429fac     Csprof.obj
 0002:00002fb8       ??_C@_0L@KIGPDKKP@Database_0?$AA@ 00429fb8     Csprof.obj
 0002:00002fc4       ??_C@_0L@LBHEALOO@Database_1?$AA@ 00429fc4     Csprof.obj
 0002:00002fd0       ??_C@_0BB@PFCHHDGA@RedundancyMaster?$AA@ 00429fd0     Csprof.obj
 0002:00002fe4       ??_C@_0CM@EGDCDPEA@Redundancy?5Master?5?9?5master?5entry@ 00429fe4     Csprof.obj
 0002:00003010       ??_C@_0CN@FMOOOPDJ@RedundancyMaster?5?9?5start?5of?5rang@ 0042a010     Csprof.obj
 0002:00003040       ??_C@_0CL@EAEIMGJJ@RedundancyMaster?5?9?5end?5of?5range?5@ 0042a040     Csprof.obj
 0002:0000306c       ??_C@_0DB@OIBPOEGC@Redundancy?5Master?5?9?5start?5of?5ran@ 0042a06c     Csprof.obj
 0002:000030a0       ??_C@_0CL@MMGPAPGD@Redundancy?5Master?5?9?5slave?5entry?5@ 0042a0a0     Csprof.obj
 0002:000030cc       ??_C@_0BM@FHDCCLI@RedundancyMaster?$FL?5?$CFd?5?$FN?5?$DN?5?$CFd?$AA@ 0042a0cc     Csprof.obj
 0002:000030e8       ??_C@_0DF@GKDOBLOK@Attempting?5to?5register?5new?5clien@ 0042a0e8     Csreg.obj
 0002:00003120       ??_C@_0CI@HKAIEEFA@Unable?5to?5register?5new?5client?5hW@ 0042a120     Csreg.obj
 0002:00003148       ??_C@_0DB@IFGGNMJP@Registration?5already?5exists?5for?5@ 0042a148     Csreg.obj
 0002:0000317c       ??_C@_0DC@FFADMPDF@Attempting?5to?5unregister?5client?5@ 0042a17c     Csreg.obj
 0002:000031b0       ??_C@_0BE@MKLDGJOI@Unreg?5ok?5HWM?5now?5?$CFd?$AA@ 0042a1b0     Csreg.obj
 0002:000031c4       ??_C@_0DB@HAJNKIAA@Failed?5to?5unregister?5client?5as?5c@ 0042a1c4     Csreg.obj
 0002:000031f8       ??_C@_0CK@NHGLBHIH@Add?5?$CFd?0?5Dev?5?$CFd?0?5Min?5?$CFd?0?5Max?5?$CFd?0?5@ 0042a1f8     Csreg.obj
 0002:00003224       ??_C@_0DG@JNCBDMLI@Adding?5new?5registration?5for?5inde@ 0042a224     Csreg.obj
 0002:0000325c       ??_C@_0DK@EMHDGCBB@Creating?5reg?5at?5client?5index?5?$CFd?5@ 0042a25c     Csreg.obj
 0002:00003298       ??_C@_0DA@BALAGCAD@Registration?5table?5already?5full?5@ 0042a298     Csreg.obj
 0002:000032c8       ??_C@_0DC@LOFEKGAC@Couldn?8t?5find?5or?5create?5reg?5inde@ 0042a2c8     Csreg.obj
 0002:000032fc       ??_C@_0DL@HCCLLBMC@Unable?5to?5add?5reg?5for?5hWnd?50x04x@ 0042a2fc     Csreg.obj
 0002:00003338       ??_C@_0CG@DLBKCNGP@Rem?5Dev?5?$CFd?0?5Min?5?$CFd?0?5Max?5?$CFd?0?5Hand@ 0042a338     Csreg.obj
 0002:00003360       ??_C@_0EO@KBLHAMBJ@Removing?5client?5index?5?$CFd?5?$CIhWnd?5?$CF@ 0042a360     Csreg.obj
 0002:000033b0       ??_C@_0CL@CECBPFFE@Removing?5reg?5range?5for?5entry?5?$CFd?0@ 0042a3b0     Csreg.obj
 0002:000033dc       ??_C@_0DI@DNCGCMMD@Couldn?8t?5find?5or?5remove?5reg?5inde@ 0042a3dc     Csreg.obj
 0002:00003414       ??_C@_0DP@INEMCKBG@Unable?5to?5remove?5reg?5for?5hWnd?50x@ 0042a414     Csreg.obj
 0002:00003454       ??_C@_0DI@HNPOHBBO@Removing?5registration?5for?5device@ 0042a454     Csreg.obj
 0002:0000348c       ??_C@_0DA@EKDOEOBC@Removing?5dev?5reg?5?$CFd?5for?5hWnd?50x?$CF@ 0042a48c     Csreg.obj
 0002:000034bc       ??_C@_0DJ@BLPIHNB@Removing?5all?5registrations?5for?5c@ 0042a4bc     Csreg.obj
 0002:000034f8       ??_C@_0DN@LALHCPLP@CSI32?3?5IPC?5failure?5but?5not?5delet@ 0042a4f8     Csreg.obj
 0002:00003538       ??_C@_0DO@MOMIAFCF@CSI32?3?5IPC?5failure?5but?5not?5delet@ 0042a538     Csreg.obj
 0002:00003578       ??_C@_0DO@FMLPLPNO@CSI32?3?5IPC?5failure?5but?5not?5delet@ 0042a578     Csreg.obj
 0002:000035b8       ??_C@_0BN@IALJLHKD@CSReg_CheckForClientName?$CI?$CFs?$CJ?$AA@ 0042a5b8     Csreg.obj
 0002:000035d8       ??_C@_0CK@BGBOCOOP@CSReg_CheckForClientName?$CI?$CFs?$CJ?5ret@ 0042a5d8     Csreg.obj
 0002:00003604       ??_C@_09LPAKOCJF@?$DMCSI?$DO?9?$CFs?6?$AA@ 0042a604     CSSUFU.obj
 0002:00003614       ??_7deviceStatus@@6B@      0042a614     deviceStatus.obj
 0002:0000361c       ??_7externalsListDialog@@6B@ 0042a61c     externalsListDialog.obj
 0002:00003620       ??_C@_0O@LNDHNJBG@externalsList?$AA@ 0042a620     externalsListDialog.obj
 0002:00003630       ??_C@_0DE@FMHJNMGA@CSI32?3?5can?8t?5create?5externalsLis@ 0042a630     externalsListDialog.obj
 0002:00003664       ??_C@_04OJJFAGLK@HWND?$AA@ 0042a664     externalsListDialog.obj
 0002:0000366c       ??_C@_03IPEPAFCC@IPC?$AA@  0042a66c     externalsListDialog.obj
 0002:00003670       ??_C@_0L@DPIOMGA@Device?9IPC?$AA@ 0042a670     externalsListDialog.obj
 0002:0000367c       ??_C@_05EKAMNAII@Class?$AA@ 0042a67c     externalsListDialog.obj
 0002:00003684       ??_C@_06NHPJKFDC@Module?$AA@ 0042a684     externalsListDialog.obj
 0002:0000368c       ??_C@_08JPJGNBAK@IPC?5Time?$AA@ 0042a68c     externalsListDialog.obj
 0002:00003698       ??_C@_0O@BDKMCMHI@Peak?5IPC?5Time?$AA@ 0042a698     externalsListDialog.obj
 0002:000036a8       ??_C@_02CMJKCPJA@WM?$AA@   0042a6a8     externalsListDialog.obj
 0002:000036ac       ??_C@_03OPIBJLCE@DLL?$AA@  0042a6ac     externalsListDialog.obj
 0002:000036b0       ??_C@_07OGFJGMJC@?$CFd?5?9?5WM?$AA@ 0042a6b0     externalsListDialog.obj
 0002:000036b8       ??_C@_08BEFDJEL@?$CFd?5?9?5DLL?$AA@ 0042a6b8     externalsListDialog.obj
 0002:000036c4       ??_C@_0BO@HGIIBJFJ@found?5truncated?5window?5handle?$AA@ 0042a6c4     externalsListDialog.obj
 0002:000036e4       ??_C@_04NEJBHOB@?$CF08x?$AA@ 0042a6e4     externalsListDialog.obj
 0002:000036ec       ??_C@_0P@INPKBDNJ@Invalid?5Window?$AA@ 0042a6ec     externalsListDialog.obj
 0002:000036fc       ??_C@_0CL@DBJCACOI@externalsListDialog?3?3getModuleNa@ 0042a6fc     externalsListDialog.obj
 0002:00003728       ??_C@_0DG@GMHKMHMG@externalsListDialog?3?3getModuleNa@ 0042a728     externalsListDialog.obj
 0002:00003760       ??_C@_09LOPACEED@psapi?4dll?$AA@ 0042a760     externalsListDialog.obj
 0002:0000376c       ??_C@_0BJ@EIDLDKIF@GetProcessImageFileNameA?$AA@ 0042a76c     externalsListDialog.obj
 0002:00003788       ??_C@_04KFJMNGJN@n?1a?4?$AA@ 0042a788     externalsListDialog.obj
 0002:00003790       ??_C@_04ILDCABMI@n?1a?3?$AA@ 0042a790     externalsListDialog.obj
 0002:00003798       ??_C@_05LFMHECIH@?$CFldms?$AA@ 0042a798     externalsListDialog.obj
 0002:000037a4       ??_7CGetArguments@@6B@     0042a7a4     GetArguments.obj
 0002:000037a8       ??_C@_0CD@GAHDLLEK@GetArguments?3?5concurrency?5error?5@ 0042a7a8     GetArguments.obj
 0002:000037cc       ??_C@_06LKBFNBBL@?$DM?$CF02x?$DO?$AA@ 0042a7cc     networkInterface.obj
 0002:000037d4       ??_C@_02HAOIJKIC@?$CFc?$AA@ 0042a7d4     networkInterface.obj
 0002:000037d8       ??_C@_0BN@FGDEDOPJ@PE?5checksum?5error?5?9?5rejected?$AA@ 0042a7d8     networkInterfaceImpl.obj
 0002:000037f8       ??_C@_0DK@OPDGMAED@Error?5request?5rejected?5?9?5worksta@ 0042a7f8     networkInterfaceImpl.obj
 0002:00003834       ??_C@_0CI@KBCENICD@Packet?5error?5DONE?6Deleting?5other@ 0042a834     networkInterfaceImpl.obj
 0002:0000385c       ??_C@_0BL@LBPGLDGP@Deleting?5other?5errors?5DONE?$AA@ 0042a85c     networkInterfaceImpl.obj
 0002:00003878       ??_C@_0BJ@HOJBJKGC@packet?5recovery?5request?6?$AA@ 0042a878     networkInterfaceImpl.obj
 0002:00003894       ??_C@_0BN@EJGCBMHK@PR?5checksum?5error?5?9?5rejected?$AA@ 0042a894     networkInterfaceImpl.obj
 0002:000038b4       ??_C@_0CF@GEAIFOBM@Workstation?5number?5out?5of?5range?5@ 0042a8b4     networkInterfaceImpl.obj
 0002:000038dc       ??_C@_0DB@CFPELFIL@Relevant?5recovered?5packet?5?$CF08x?5a@ 0042a8dc     networkInterfaceImpl.obj
 0002:00003910       ??_C@_0BN@DPIAICAI@irrelevant?5recovered?5packet?6?$AA@ 0042a910     networkInterfaceImpl.obj
 0002:00003934       ??_7pktRecoveryDialog@@6B@ 0042a934     pktRecoveryDialog.obj
 0002:00003938       ??_C@_0N@JBGEBCBC@PKT_RECOVERY?$AA@ 0042a938     pktRecoveryDialog.obj
 0002:00003948       ??_C@_0BJ@FPEGCBKC@Environment?5is?5V4?5based?6?$AA@ 0042a948     PROFILE.obj
 0002:00003964       ??_C@_0CA@CMFEBDCP@Environment?5is?5classic?5windows?6?$AA@ 0042a964     PROFILE.obj
 0002:00003984       ??_C@_0BA@JEGAKECJ@bncs_system?4ini?$AA@ 0042a984     PROFILE.obj
 0002:00003994       ??_C@_0L@JCGLOPMM@?$CFs?2?$CFs?2temp?$AA@ 0042a994     PROFILE.obj
 0002:000039a0       ??_C@_0M@HJFGAKIL@c?3?2csi_temp?$AA@ 0042a9a0     PROFILE.obj
 0002:000039ac       ??_C@_0N@NHBGKGMO@TempFilePath?$AA@ 0042a9ac     PROFILE.obj
 0002:000039c0       ??_7sizedBuffer@@6B@       0042a9c0     sizedBuffer.obj
 0002:000039c8       ??_7supersededMemory@@6B@  0042a9c8     supersededMemory.obj
 0002:000039cc       ??_C@_0BL@NBIBGPCB@creating?5supersededMemory?6?$AA@ 0042a9cc     supersededMemory.obj
 0002:000039e8       ??_C@_0BL@JBEDJEBP@deleting?5supersededMemory?6?$AA@ 0042a9e8     supersededMemory.obj
 0002:00003a08       ??_C@_0FN@PLINKAJA@supersededMemory?3?5Correcting?5ser@ 0042aa08     supersededMemory.obj
 0002:00003a68       ??_C@_0GG@MFHELMBP@supersededMemory?3?5Device?5?$CFd?5inde@ 0042aa68     supersededMemory.obj
 0002:00003ad0       ??_C@_0EL@CDLNFJDI@supersededMemory?3?5inserting?5seri@ 0042aad0     supersededMemory.obj
 0002:00003b20       ??_C@_0EK@JPEOPDIA@Device?5?$CFd?5slot?5?$CFd?5in?5recovered?5p@ 0042ab20     supersededMemory.obj
 0002:00003b6c       ??_C@_0BA@NOCHENON@not?5superseded?6?$AA@ 0042ab6c     supersededMemory.obj
 0002:00003b7c       ??_C@_0CA@LPLODBDN@Device?5?$CFd?5Index?5?$CFd?5Serial?5?$CF08x?6?$AA@ 0042ab7c     supersededMemory.obj
 0002:00003ba0       ??_7workstationStatus@@6B@ 0042aba0     workstationStatus.obj
 0002:00003ba4       ??_C@_0BN@LJJMEMDJ@Unknown?5NetBIOS?5command?5code?$AA@ 0042aba4     bbcnb32_static:BBCNB32.obj
 0002:00003bc4       ??_C@_0BK@BDLIAFGF@?$CFs?5?9?5NetBIOS?50x?$CF02x?5?9?5?$CFs?6?$AA@ 0042abc4     bbcnb32_static:BBCNB32.obj
 0002:00003be0       ??_C@_0BN@FJJFEPNG@Unlisted?5NetBIOS?5return?5code?$AA@ 0042abe0     bbcnb32_static:BBCNB32.obj
 0002:00003c00       ??_C@_0BG@JPPAHMJF@?$CFs?5?9?5NRC?50x?$CF02x?5?9?5?$CFs?6?$AA@ 0042ac00     bbcnb32_static:BBCNB32.obj
 0002:00003c18       ??_C@_07OGCKFOHE@bbcnb32?$AA@ 0042ac18     bbcnb32_static:BBCNB32.obj
 0002:00003c20       ??_C@_0DJ@OGGCNIBH@Ptr?5to?5NCB?$DN0x?$CF08lx?0?5Ptr?5to?5buffe@ 0042ac20     bbcnb32_static:BBCNB32.obj
 0002:00003c5c       ??_C@_0CI@EEFGCAMN@Strlen?$DN?$CFd?0?5Str?$DN?$FL?$CFs?$FN?$DN?$CF02x?0?$CF02x?0?$CF0@ 0042ac5c     bbcnb32_static:BBCNB32.obj
 0002:00003c84       ??_C@_0BE@LIKEBNPF@ERROR?5?9?5Bad?5pointer?$AA@ 0042ac84     bbcnb32_static:BBCNB32.obj
 0002:00003c98       ??_C@_0BK@ELCEPGD@?$DMCS?$DO?9MSG?9NCBDGRECV?5failed?$AA@ 0042ac98     bbcnb32_static:BBCNB32.obj
 0002:00003cb4       ??_C@_09MEFDJLKK@?$DMNet?$DO?9?$CFs?6?$AA@ 0042acb4     bbcnb32_static:BBCNB32.obj
 0002:00003cc0       ??_C@_0P@HPLBBLHJ@bbcnb32m_queue?$AA@ 0042acc0     bbcnb32_static:BBCNB32.obj
 0002:00003cd0       __xmm@20202020202020202020202020202020 0042acd0     bbcnb32_static:BBCNB32.obj
 0002:00003ce0       ??_C@_0DP@MDDHKDMD@?9?9?9?9?9?9?9?9?9?9?9?9?9?9?9?9?9?9?9?9?9?9?9?9?9?9?9?9?9?9?9?9@ 0042ace0     bbcnb32_static:NCBSUFU.obj
 0002:00003d20       ??_C@_0CJ@BFEOEHPO@Session?5Information?5for?5?8?$CFs?8?5on?5@ 0042ad20     bbcnb32_static:NCBSUFU.obj
 0002:00003d4c       ??_C@_0BL@LJFJGFND@?$CFd?5Sessions?5Table?5Entries?6?$AA@ 0042ad4c     bbcnb32_static:NCBSUFU.obj
 0002:00003d68       ??_C@_0DI@BDLDPDBP@?$CFd?5Receive?5Datagrams?5?$CG?5Broadcast@ 0042ad68     bbcnb32_static:NCBSUFU.obj
 0002:00003da0       ??_C@_0CI@DJKALEIG@?$CFd?5?8Recieve?5Any?8?5Datagrams?5outst@ 0042ada0     bbcnb32_static:NCBSUFU.obj
 0002:00003dc8       ??_C@_0DO@PLNJFCHI@Idx?7LSN?7State?7?7Local?5Name?7?7Remot@ 0042adc8     bbcnb32_static:NCBSUFU.obj
 0002:00003e08       ??_C@_06GIJDJODO@?$CFd?7?$CFd?7?$AA@ 0042ae08     bbcnb32_static:NCBSUFU.obj
 0002:00003e10       ??_C@_0BA@GAOIMEAH@LISTEN?5pending?5?$AA@ 0042ae10     bbcnb32_static:NCBSUFU.obj
 0002:00003e20       ??_C@_0BA@DAGNKLMO@CALL?5pending?5?5?5?$AA@ 0042ae20     bbcnb32_static:NCBSUFU.obj
 0002:00003e30       ??_C@_0BA@GALBDDCK@Active?5?5?5?5?5?5?5?5?5?$AA@ 0042ae30     bbcnb32_static:NCBSUFU.obj
 0002:00003e40       ??_C@_0BA@FDENMABF@HANGUP?5pending?5?$AA@ 0042ae40     bbcnb32_static:NCBSUFU.obj
 0002:00003e50       ??_C@_0BA@HCOAFGGB@HANGUP?5complete?$AA@ 0042ae50     bbcnb32_static:NCBSUFU.obj
 0002:00003e60       ??_C@_0BA@PIFMFEON@Session?5aborted?$AA@ 0042ae60     bbcnb32_static:NCBSUFU.obj
 0002:00003e70       ??_C@_0BA@KNMKABMF@Unknown?5state?5?5?$AA@ 0042ae70     bbcnb32_static:NCBSUFU.obj
 0002:00003e80       ??_C@_0O@FIOCCNMM@?7?$CFs?7?$CFs?7?$CFd?7?$CFd?6?$AA@ 0042ae80     bbcnb32_static:NCBSUFU.obj
 0002:00003e90       ??_C@_0CN@DJKJALOP@?9?9?9?5No?5session?5table?5entries?5to?5@ 0042ae90     bbcnb32_static:NCBSUFU.obj
 0002:00003ec0       ??_C@_0EF@JGCLPNJL@bbcnb32?3?5NetSendDG?5?9?5request?5to?5@ 0042aec0     bbcnb32_static:NCBCALLS.obj
 0002:00003f0c       ??_7cBncsVersion@@6B@      0042af0c     bncsversioninfo:cBncsVersion.obj
 0002:00003f10       ??_C@_0BJ@KPNNKBCP@?2VarFileInfo?2Translation?$AA@ 0042af10     bncsversioninfo:cBncsVersion.obj
 0002:00003f2c       ??_C@_08EAKGLGNO@?$CF04X?$CF04X?$AA@ 0042af2c     bncsversioninfo:cBncsVersion.obj
 0002:00003f38       ??_C@_0BP@OKGDDKKJ@?2StringFileInfo?2?$CFs?2FileVersion?$AA@ 0042af38     bncsversioninfo:cBncsVersion.obj
 0002:00003f58       ??_C@_0CD@DNOFBAPJ@?2StringFileInfo?2?$CFs?2FileDescripti@ 0042af58     bncsversioninfo:cBncsVersion.obj
 0002:00003f7c       ??_C@_0BM@HLKDAPDC@?2StringFileInfo?2?$CFs?2Comments?$AA@ 0042af7c     bncsversioninfo:cBncsVersion.obj
 0002:00003f98       ??_C@_0CA@EHAODNDK@?2StringFileInfo?2?$CFs?2InternalName?$AA@ 0042af98     bncsversioninfo:cBncsVersion.obj
 0002:00003fb8       ??_C@_0BP@MGNIHEJF@?2StringFileInfo?2?$CFs?2ProductName?$AA@ 0042afb8     bncsversioninfo:cBncsVersion.obj
 0002:00003fd8       ??_C@_0BP@IFNEMNK@?2StringFileInfo?2?$CFs?2CompanyName?$AA@ 0042afd8     bncsversioninfo:cBncsVersion.obj
 0002:00003ff8       ??_C@_0CC@BENIJKPI@?2StringFileInfo?2?$CFs?2LegalCopyrigh@ 0042aff8     bncsversioninfo:cBncsVersion.obj
 0002:0000401c       ??_C@_0CC@IAGJDCJF@?2StringFileInfo?2?$CFs?2ProductVersio@ 0042b01c     bncsversioninfo:cBncsVersion.obj
 0002:00004040       ??_C@_0CD@CHCCGCCP@?2StringFileInfo?2?$CFs?2LegalTradeMar@ 0042b040     bncsversioninfo:cBncsVersion.obj
 0002:00004064       ??_C@_0CA@GODGGLFO@?2StringFileInfo?2?$CFs?2PrivateBuild?$AA@ 0042b064     bncsversioninfo:cBncsVersion.obj
 0002:00004084       ??_C@_0CE@NLHFPOLE@?2StringFileInfo?2?$CFs?2OriginalFileN@ 0042b084     bncsversioninfo:cBncsVersion.obj
 0002:000040a8       ??_C@_0CA@OOEBJJOA@?2StringFileInfo?2?$CFs?2SpecialBuild?$AA@ 0042b0a8     bncsversioninfo:cBncsVersion.obj
 0002:00004114       ??_C@_00A@?$AA@            0042b114     htmlhelp:init.obj
 0002:00004118       ??_C@_05CLMJGDKL@?$CF08lx?$AA@ 0042b118     bncswm32:BncsWM32.obj
 0002:0000412c       ??_7type_info@@6B@         0042b12c     MSVCRT:ti_inst.obj
 0002:00004130       __load_config_used         0042b130     MSVCRT:loadcfg.obj
 0002:00004178       ??_R4error_category@std@@6B@ 0042b178     database.obj
 0002:0000418c       ??_R3error_category@std@@8 0042b18c     database.obj
 0002:0000419c       ??_R2error_category@std@@8 0042b19c     database.obj
 0002:000041a4       ??_R1A@?0A@EA@error_category@std@@8 0042b1a4     database.obj
 0002:000041c0       ??_R4_Generic_error_category@std@@6B@ 0042b1c0     database.obj
 0002:000041d4       ??_R3_Generic_error_category@std@@8 0042b1d4     database.obj
 0002:000041e4       ??_R2_Generic_error_category@std@@8 0042b1e4     database.obj
 0002:000041f0       ??_R1A@?0A@EA@_Generic_error_category@std@@8 0042b1f0     database.obj
 0002:0000420c       ??_R4_Iostream_error_category@std@@6B@ 0042b20c     database.obj
 0002:00004220       ??_R3_Iostream_error_category@std@@8 0042b220     database.obj
 0002:00004230       ??_R2_Iostream_error_category@std@@8 0042b230     database.obj
 0002:00004240       ??_R1A@?0A@EA@_Iostream_error_category@std@@8 0042b240     database.obj
 0002:0000425c       ??_R4_System_error_category@std@@6B@ 0042b25c     database.obj
 0002:00004270       ??_R3_System_error_category@std@@8 0042b270     database.obj
 0002:00004280       ??_R2_System_error_category@std@@8 0042b280     database.obj
 0002:00004290       ??_R1A@?0A@EA@_System_error_category@std@@8 0042b290     database.obj
 0002:000042ac       ??_R4database@@6B@         0042b2ac     database.obj
 0002:000042c0       ??_R3database@@8           0042b2c0     database.obj
 0002:000042d0       ??_R2database@@8           0042b2d0     database.obj
 0002:000042d8       ??_R1A@?0A@EA@database@@8  0042b2d8     database.obj
 0002:000042f4       ??_R4databaseMgr@@6B@      0042b2f4     databaseMgr.obj
 0002:00004308       ??_R3databaseMgr@@8        0042b308     databaseMgr.obj
 0002:00004318       ??_R2databaseMgr@@8        0042b318     databaseMgr.obj
 0002:00004320       ??_R1A@?0A@EA@databaseMgr@@8 0042b320     databaseMgr.obj
 0002:0000433c       ??_R4bncs_disklog@@6B@     0042b33c     bncs_disklog.obj
 0002:00004350       ??_R3bncs_disklog@@8       0042b350     bncs_disklog.obj
 0002:00004360       ??_R2bncs_disklog@@8       0042b360     bncs_disklog.obj
 0002:00004368       ??_R1A@?0A@EA@bncs_disklog@@8 0042b368     bncs_disklog.obj
 0002:00004384       ??_R4ccCheck@@6B@          0042b384     ccCheck.obj
 0002:00004398       ??_R3ccCheck@@8            0042b398     ccCheck.obj
 0002:000043a8       ??_R2ccCheck@@8            0042b3a8     ccCheck.obj
 0002:000043b0       ??_R1A@?0A@EA@ccCheck@@8   0042b3b0     ccCheck.obj
 0002:000043cc       ??_R4deviceStatus@@6B@     0042b3cc     deviceStatus.obj
 0002:000043e0       ??_R3deviceStatus@@8       0042b3e0     deviceStatus.obj
 0002:000043f0       ??_R2deviceStatus@@8       0042b3f0     deviceStatus.obj
 0002:000043f8       ??_R1A@?0A@EA@deviceStatus@@8 0042b3f8     deviceStatus.obj
 0002:00004414       ??_R4externalsListDialog@@6B@ 0042b414     externalsListDialog.obj
 0002:00004428       ??_R3externalsListDialog@@8 0042b428     externalsListDialog.obj
 0002:00004438       ??_R2externalsListDialog@@8 0042b438     externalsListDialog.obj
 0002:00004440       ??_R1A@?0A@EA@externalsListDialog@@8 0042b440     externalsListDialog.obj
 0002:0000445c       ??_R4CGetArguments@@6B@    0042b45c     GetArguments.obj
 0002:00004470       ??_R3CGetArguments@@8      0042b470     GetArguments.obj
 0002:00004480       ??_R2CGetArguments@@8      0042b480     GetArguments.obj
 0002:00004488       ??_R1A@?0A@EA@CGetArguments@@8 0042b488     GetArguments.obj
 0002:000044a4       ??_R4pktRecoveryDialog@@6B@ 0042b4a4     pktRecoveryDialog.obj
 0002:000044b8       ??_R3pktRecoveryDialog@@8  0042b4b8     pktRecoveryDialog.obj
 0002:000044c8       ??_R2pktRecoveryDialog@@8  0042b4c8     pktRecoveryDialog.obj
 0002:000044d0       ??_R1A@?0A@EA@pktRecoveryDialog@@8 0042b4d0     pktRecoveryDialog.obj
 0002:000044ec       ??_R4sizedBuffer@@6B@      0042b4ec     sizedBuffer.obj
 0002:00004500       ??_R3sizedBuffer@@8        0042b500     sizedBuffer.obj
 0002:00004510       ??_R2sizedBuffer@@8        0042b510     sizedBuffer.obj
 0002:00004518       ??_R1A@?0A@EA@sizedBuffer@@8 0042b518     sizedBuffer.obj
 0002:00004534       ??_R4supersededMemory@@6B@ 0042b534     supersededMemory.obj
 0002:00004548       ??_R3supersededMemory@@8   0042b548     supersededMemory.obj
 0002:00004558       ??_R2supersededMemory@@8   0042b558     supersededMemory.obj
 0002:00004560       ??_R1A@?0A@EA@supersededMemory@@8 0042b560     supersededMemory.obj
 0002:0000457c       ??_R4workstationStatus@@6B@ 0042b57c     workstationStatus.obj
 0002:00004590       ??_R3workstationStatus@@8  0042b590     workstationStatus.obj
 0002:000045a0       ??_R2workstationStatus@@8  0042b5a0     workstationStatus.obj
 0002:000045a8       ??_R1A@?0A@EA@workstationStatus@@8 0042b5a8     workstationStatus.obj
 0002:000045c4       ??_R4cBncsVersion@@6B@     0042b5c4     bncsversioninfo:cBncsVersion.obj
 0002:000045d8       ??_R3cBncsVersion@@8       0042b5d8     bncsversioninfo:cBncsVersion.obj
 0002:000045e8       ??_R2cBncsVersion@@8       0042b5e8     bncsversioninfo:cBncsVersion.obj
 0002:000045f0       ??_R1A@?0A@EA@cBncsVersion@@8 0042b5f0     bncsversioninfo:cBncsVersion.obj
 0002:0000460c       ??_R4type_info@@6B@        0042b60c     MSVCRT:ti_inst.obj
 0002:00004620       ??_R3type_info@@8          0042b620     MSVCRT:ti_inst.obj
 0002:00004630       ??_R2type_info@@8          0042b630     MSVCRT:ti_inst.obj
 0002:00004638       ??_R1A@?0A@EA@type_info@@8 0042b638     MSVCRT:ti_inst.obj
 0002:00004654       ___rtc_iaa                 0042b654     MSVCRT:initsect.obj
 0002:00004658       ___rtc_izz                 0042b658     MSVCRT:initsect.obj
 0002:0000465c       ___rtc_taa                 0042b65c     MSVCRT:initsect.obj
 0002:00004660       ___rtc_tzz                 0042b660     MSVCRT:initsect.obj
 0002:00006894       __IMPORT_DESCRIPTOR_VERSION 0042d894     version:VERSION.dll
 0002:000068a8       __IMPORT_DESCRIPTOR_SHLWAPI 0042d8a8     Shlwapi:SHLWAPI.dll
 0002:000068bc       __IMPORT_DESCRIPTOR_WS2_32 0042d8bc     ws2_32:WS2_32.dll
 0002:000068d0       __IMPORT_DESCRIPTOR_BNCSIF32 0042d8d0     bncsif32:BNCSIF32.dll
 0002:000068e4       __IMPORT_DESCRIPTOR_handleShare 0042d8e4     handleshare:handleShare.dll
 0002:000068f8       __IMPORT_DESCRIPTOR_KERNEL32 0042d8f8     kernel32:KERNEL32.dll
 0002:0000690c       __IMPORT_DESCRIPTOR_USER32 0042d90c     user32:USER32.dll
 0002:00006920       __IMPORT_DESCRIPTOR_GDI32  0042d920     gdi32:GDI32.dll
 0002:00006934       __IMPORT_DESCRIPTOR_ADVAPI32 0042d934     advapi32:ADVAPI32.dll
 0002:00006948       __IMPORT_DESCRIPTOR_SHELL32 0042d948     shell32:SHELL32.dll
 0002:0000695c       __IMPORT_DESCRIPTOR_MSVCP120 0042d95c     msvcprt:MSVCP120.dll
 0002:00006970       __IMPORT_DESCRIPTOR_MSVCR120 0042d970     MSVCRT:MSVCR120.dll
 0002:00006984       __IMPORT_DESCRIPTOR_NETAPI32 0042d984     netapi32:NETAPI32.dll
 0002:00006998       __NULL_IMPORT_DESCRIPTOR   0042d998     version:VERSION.dll
 0003:00000000       ?_Generic_object@?$_Error_objects@H@std@@2V_Generic_error_category@2@A 0042f000     database.obj
 0003:00000004       ?_Iostream_object@?$_Error_objects@H@std@@2V_Iostream_error_category@2@A 0042f004     database.obj
 0003:00000008       ?_System_object@?$_Error_objects@H@std@@2V_System_error_category@2@A 0042f008     database.obj
 0003:00000140       ___security_cookie         0042f140     MSVCRT:gs_cookie.obj
 0003:00000144       ___security_cookie_complement 0042f144     MSVCRT:gs_cookie.obj
 0003:00000150       ___defaultmatherr          0042f150     MSVCRT:merr.obj
 0003:00000154       ___globallocalestatus      0042f154     MSVCRT:xthdloc.obj
 0003:00000158       ___native_dllmain_reason   0042f158     MSVCRT:natstart.obj
 0003:0000015c       ??_R0?AVerror_category@std@@@8 0042f15c     database.obj
 0003:00000180       ??_R0?AV_Generic_error_category@std@@@8 0042f180     database.obj
 0003:000001ac       ??_R0?AV_Iostream_error_category@std@@@8 0042f1ac     database.obj
 0003:000001d8       ??_R0?AV_System_error_category@std@@@8 0042f1d8     database.obj
 0003:00000204       ??_R0?AVdatabase@@@8       0042f204     database.obj
 0003:0000021c       ??_R0?AVdatabaseMgr@@@8    0042f21c     databaseMgr.obj
 0003:00000238       ??_R0?AVbncs_disklog@@@8   0042f238     bncs_disklog.obj
 0003:00000254       ??_R0?AVccCheck@@@8        0042f254     ccCheck.obj
 0003:0000026c       ??_R0?AVdeviceStatus@@@8   0042f26c     deviceStatus.obj
 0003:00000288       ??_R0?AVexternalsListDialog@@@8 0042f288     externalsListDialog.obj
 0003:000002ac       ??_R0?AVCGetArguments@@@8  0042f2ac     GetArguments.obj
 0003:000002c8       ??_R0?AVpktRecoveryDialog@@@8 0042f2c8     pktRecoveryDialog.obj
 0003:000002e8       ??_R0?AVsizedBuffer@@@8    0042f2e8     sizedBuffer.obj
 0003:00000304       ??_R0?AVsupersededMemory@@@8 0042f304     supersededMemory.obj
 0003:00000324       ??_R0?AVworkstationStatus@@@8 0042f324     workstationStatus.obj
 0003:00000344       ??_R0?AVcBncsVersion@@@8   0042f344     bncsversioninfo:cBncsVersion.obj
 0003:00000360       ??_R0?AVtype_info@@@8      0042f360     MSVCRT:ti_inst.obj
 0003:0000037c       ?id@?$num_put@DV?$back_insert_iterator@V?$basic_string@DU?$char_traits@D@std@@V?$allocator@D@2@@std@@@std@@@std@@2V0locale@2@A 0042f37c     database.obj
 0003:00000380       ?id@?$num_put@_WV?$back_insert_iterator@V?$basic_string@_WU?$char_traits@_W@std@@V?$allocator@_W@2@@std@@@std@@@std@@2V0locale@2@A 0042f380     database.obj
 0003:0000038c       ?m_driverList@closedDriversList@@0V?$set@HU?$less@H@std@@V?$allocator@H@2@@std@@A 0042f38c     closedDriversList.obj
 0003:000003a8       ?iPortId@@3HA              0042f3a8     CSCOMDOG.obj
 0003:000003ac       ?hWndDBase@@3PAUHWND__@@A  0042f3ac     Csdbase.obj
 0003:000004fc       ?iCSDbExt_Device@@3HA      0042f4fc     csdbext.obj
 0003:00000500       ?iCSDbExt_Database@@3HA    0042f500     csdbext.obj
 0003:00000504       ?hCSDbExt_File@@3HA        0042f504     csdbext.obj
 0003:00000510       ?lSESOx@@3JA               0042f510     Csimain.obj
 0003:00000514       ?lSESIx@@3JA               0042f514     Csimain.obj
 0003:00000518       ?lNetMx@@3JA               0042f518     Csimain.obj
 0003:0000051c       ?lNetTx@@3JA               0042f51c     Csimain.obj
 0003:00000520       ?lNetRx@@3JA               0042f520     Csimain.obj
 0003:00000524       ?lNetSx@@3JA               0042f524     Csimain.obj
 0003:00000528       ?lNetCx@@3JA               0042f528     Csimain.obj
 0003:0000052c       ?lNDIMx@@3JA               0042f52c     Csimain.obj
 0003:00000530       ?lNDITx@@3JA               0042f530     Csimain.obj
 0003:00000534       ?lNDIRx@@3JA               0042f534     Csimain.obj
 0003:00000538       ?lNDIDx@@3JA               0042f538     Csimain.obj
 0003:0000053c       ?lSESEx@@3JA               0042f53c     Csimain.obj
 0003:00000540       ?lNetEx@@3JA               0042f540     Csimain.obj
 0003:00000544       ?lNDIEx@@3JA               0042f544     Csimain.obj
 0003:00000548       ?iClients@@3HA             0042f548     Csimain.obj
 0003:0000054c       ?iDrivers@@3HA             0042f54c     Csimain.obj
 0003:00000550       ?iDevices@@3HA             0042f550     Csimain.obj
 0003:00000554       ?iSecCount@@3HA            0042f554     Csimain.obj
 0003:00000558       ?bClosewarn@@3HA           0042f558     Csimain.obj
 0003:0000055c       ?bClosedown@@3HA           0042f55c     Csimain.obj
 0003:00000560       ?bStartup@@3HA             0042f560     Csimain.obj
 0003:00000564       ?iTimeSrvEnable@@3HA       0042f564     Csimain.obj
 0003:00000568       ?iTimeSrvDelay@@3HA        0042f568     Csimain.obj
 0003:0000056c       ?iMinCount@@3HA            0042f56c     Csimain.obj
 0003:00000570       ?iWinXpos@@3HA             0042f570     Csimain.obj
 0003:00000574       ?iWinYpos@@3HA             0042f574     Csimain.obj
 0003:00000578       ?iTotalINI@@3HA            0042f578     Csimain.obj
 0003:0000057c       ?iDEVINI@@3HA              0042f57c     Csimain.obj
 0003:00000580       ?iGRDINI@@3HA              0042f580     Csimain.obj
 0003:00000584       ?iGPIDINI@@3HA             0042f584     Csimain.obj
 0003:00000588       ?iIDINI@@3HA               0042f588     Csimain.obj
 0003:0000058c       ?iClashINI@@3HA            0042f58c     Csimain.obj
 0003:00000590       ?iCloseDelay@@3HA          0042f590     Csimain.obj
 0003:00000594       ?iNetworkChannel@@3HA      0042f594     Csimain.obj
 0003:00000598       ?iStatUpdateCount@@3HA     0042f598     Csimain.obj
 0003:0000059c       ?iBootYear@@3HA            0042f59c     Csimain.obj
 0003:000005a0       ?iBootMonth@@3HA           0042f5a0     Csimain.obj
 0003:000005a4       ?iBootDay@@3HA             0042f5a4     Csimain.obj
 0003:000005a8       ?iBootHour@@3HA            0042f5a8     Csimain.obj
 0003:000005ac       ?iBootMin@@3HA             0042f5ac     Csimain.obj
 0003:000005b0       ?iBootSec@@3HA             0042f5b0     Csimain.obj
 0003:000005b4       ?iUpDays@@3HA              0042f5b4     Csimain.obj
 0003:000005b8       ?iUpHours@@3HA             0042f5b8     Csimain.obj
 0003:000005bc       ?iUpMins@@3HA              0042f5bc     Csimain.obj
 0003:000005c0       ?iUpSecs@@3HA              0042f5c0     Csimain.obj
 0003:000005c4       ?iWatchDogComPort@@3HA     0042f5c4     Csimain.obj
 0003:000005c8       ?iLocalLoopBack@@3HA       0042f5c8     Csimain.obj
 0003:000005cc       ?revSerialErrorRequestStackMutex@@3PAXA 0042f5cc     Csimain.obj
 0003:000005d0       ?iNetworkEnable@@3HA       0042f5d0     Csimain.obj
 0003:000005d4       ?iLoopbackEnable@@3HA      0042f5d4     Csimain.obj
 0003:000005d8       ?iCacheProfile@@3HA        0042f5d8     Csimain.obj
 0003:000005dc       ?iMiU@@3HA                 0042f5dc     Csimain.obj
 0003:000005e0       ?iMxU@@3HA                 0042f5e0     Csimain.obj
 0003:000005e4       ?iMxDrv@@3HA               0042f5e4     Csimain.obj
 0003:000005e8       ?iMxDev@@3HA               0042f5e8     Csimain.obj
 0003:000005ec       ?acX@@3PADA                0042f5ec     Csimain.obj
 0003:000005f8       ?acU@@3PADA                0042f5f8     Csimain.obj
 0003:00000678       ?iAdaptor@@3HA             0042f678     Csimain.obj
 0003:0000067c       ?bCLFlag@@3EA              0042f67c     Csimain.obj
 0003:0000067d       ?bFBFlag@@3EA              0042f67d     Csimain.obj
 0003:0000067e       ?bSendPacketSerialNumbers@@3_NA 0042f67e     Csimain.obj
 0003:0000067f       ?fClearCacheOnPacketError@@3_NA 0042f67f     Csimain.obj
 0003:00000680       ?iDisableWatchdogOnExit@@3HA 0042f680     Csimain.obj
 0003:00000684       ?iResetingNetwork@@3HA     0042f684     Csimain.obj
 0003:00000688       ?iV1Compatibility@@3HA     0042f688     Csimain.obj
 0003:0000068c       ?iNetResets@@3HA           0042f68c     Csimain.obj
 0003:00000690       ?iMaxClients@@3HA          0042f690     Csimain.obj
 0003:00000694       ?iHODCDF@@3HA              0042f694     Csimain.obj
 0003:00000698       ?m_hWndGateway@@3PAUHWND__@@A 0042f698     Csimain.obj
 0003:0000069c       ?iSessionInUse@@3HA        0042f69c     Csimain.obj
 0003:000006a0       ?acVar@@3PAY0CAB@DA        0042f6a0     Csimain.obj
 0003:000016a8       ?aiVar@@3PAHA              004306a8     Csimain.obj
 0003:000016c8       ?avVar@@3PADA              004306c8     Csimain.obj
 0003:000016d0       ?pncbListen@@3PAU_NCB@@A   004306d0     Csimain.obj
 0003:000016d4       ?iSessionAttempts@@3HA     004306d4     Csimain.obj
 0003:000016d8       ?iSessionRetryPending@@3HA 004306d8     Csimain.obj
 0003:000016dc       ?iHangUpDelay@@3HA         004306dc     Csimain.obj
 0003:000016e0       ?dwSerialNumbers@@3PAKA    004306e0     Csimain.obj
 0003:00002680       ?wDeviceHost@@3PAGA        00431680     Csimain.obj
 0003:0000467e       ?bSendCommandSerialNumbers@@3_NA 0043367e     Csimain.obj
 0003:0000467f       ?bWriteTxBufferOverloadLog@@3_NA 0043367f     Csimain.obj
 0003:00004680       ?fClearCacheOnNC@@3HA      00433680     Csimain.obj
 0003:00004684       ?recoveredPacketQueueMutex@@3PAXA 00433684     Csimain.obj
 0003:00004688       ?sNS@@3UsNetSession@@A     00433688     Csimain.obj
 0003:00004834       ?iTxRxRetryPeriod@@3HA     00433834     Csimain.obj
 0003:00004838       ?bLSNChk@@3PAEA            00433838     Csimain.obj
 0003:00004938       ?hNetBuff@@3PAHA           00433938     Csimain.obj
 0003:00008934       ?iTxRxRetryCount@@3HA      00437934     Csimain.obj
 0003:00008938       ?iTxRxRetryPtr@@3HA        00437938     Csimain.obj
 0003:0000893c       ?iNetSendDGHWM@@3HA        0043793c     Csimain.obj
 0003:00008940       ?iNetSendDGCount@@3HA      00437940     Csimain.obj
 0003:00008944       ?iNetSendDGError@@3HA      00437944     Csimain.obj
 0003:00008948       ?pollQueueHWM@@3IA         00437948     Csimain.obj
 0003:0000894c       ?pollQueueMutex@@3PAXA     0043794c     Csimain.obj
 0003:00008950       ?iSerialNumberErrors@@3HA  00437950     Csimain.obj
 0003:00008954       ?recoveryRequestRejectionListMutex@@3PAXA 00437954     Csimain.obj
 0003:00008958       ?revertivePacketListMutex@@3PAXA 00437958     Csimain.obj
 0003:0000895c       ?outgoingRecoveryPacketsMutex@@3PAXA 0043795c     Csimain.obj
 0003:00008960       ?maxRecoveryRequests@@3HA  00437960     Csimain.obj
 0003:00008964       ?recoveryRequestRepeatRate@@3HA 00437964     Csimain.obj
 0003:00008968       ?iUnrecoverableErrors@@3HA 00437968     Csimain.obj
 0003:0000896c       ?iRelevantRecoveredPkts@@3HA 0043796c     Csimain.obj
 0003:00008970       ?iIrrelevantRecoveredPkts@@3HA 00437970     Csimain.obj
 0003:00008974       ?iDuplicateRecoveryRequests@@3HA 00437974     Csimain.obj
 0003:00008978       ?iPacketRecoveryRejections@@3HA 00437978     Csimain.obj
 0003:0000897c       ?iRecoveryRetries@@3HA     0043797c     Csimain.obj
 0003:00008980       ?iSupersededMessagesIgnored@@3HA 00437980     Csimain.obj
 0003:00008984       ?iMaxRecoveryPacketsPerTick@@3HA 00437984     Csimain.obj
 0003:00008988       ?iStatusWorkstationInfodriverId@@3HA 00437988     Csimain.obj
 0003:0000898c       ?iStatusDeviceInfodriverId@@3HA 0043798c     Csimain.obj
 0003:00008990       ?iStoredRevertivePacketCount@@3HA 00437990     Csimain.obj
 0003:00008994       ?iStartupStatusCount@@3HA  00437994     Csimain.obj
 0003:00008998       ?supersededMemories@@3PAPAVsupersededMemory@@A 00437998     Csimain.obj
 0003:00009938       ?workstationStatusList@@3PAPAVworkstationStatus@@A 00438938     Csimain.obj
 0003:0000a8d8       ?deviceStatusList@@3PAPAVdeviceStatus@@A 004398d8     Csimain.obj
 0003:0000e8d4       ?hWorkstationStatusListMutex@@3PAXA 0043d8d4     Csimain.obj
 0003:0000e8d8       ?hDeviceStatusListMutex@@3PAXA 0043d8d8     Csimain.obj
 0003:0000e8dc       ?iCacheEnable@@3HA         0043d8dc     Csimain.obj
 0003:0000e8e0       ?hCache@@3PAPAXA           0043d8e0     Csimain.obj
 0003:000128dc       ?iCacheLife@@3HA           004418dc     Csimain.obj
 0003:000128e0       ?iWatchDog@@3PAHA          004418e0     Csimain.obj
 0003:000168dc       ?iCacheHits@@3HA           004458dc     Csimain.obj
 0003:000168e0       ?iPollHits@@3HA            004458e0     Csimain.obj
 0003:000168e4       ?iCachePercent@@3HA        004458e4     Csimain.obj
 0003:000168e8       ?ulRamCacheSizeMax@@3KA    004458e8     Csimain.obj
 0003:000168ec       ?ulRamCacheMemUsed@@3KA    004458ec     Csimain.obj
 0003:000168f0       ?ulDiscCacheMemUsed@@3KA   004458f0     Csimain.obj
 0003:000168f4       ?iMaxRecoveryMessageHoldoff@@3HA 004458f4     Csimain.obj
 0003:000168f8       ?dwRevSerial@@3KA          004458f8     Csimain.obj
 0003:000168fc       ?dwCmdSerial@@3KA          004458fc     Csimain.obj
 0003:00016900       ?bPacketRecoveryEnable@@3_NA 00445900     Csimain.obj
 0003:00016901       ?bSimulateUnreliability@@3_NA 00445901     Csimain.obj
 0003:00016902       ?distributeTxRxStatus@@3_NA 00445902     Csimain.obj
 0003:00016903       ?distributeNetMsg@@3_NA    00445903     Csimain.obj
 0003:00016904       ?iUnreliabilityTxRate@@3HA 00445904     Csimain.obj
 0003:00016908       ?iUnreliabilityTxCount@@3HA 00445908     Csimain.obj
 0003:0001690c       ?iUnreliabilityRxRate@@3HA 0044590c     Csimain.obj
 0003:00016910       ?iUnreliabilityRxCount@@3HA 00445910     Csimain.obj
 0003:00016914       ?heartbeatEnable@@3_NA     00445914     Csimain.obj
 0003:00016915       ?heartbeatSendBoth@@3_NA   00445915     Csimain.obj
 0003:00016916       ?gSendMessageTiming@@3_NA  00445916     Csimain.obj
 0003:00016917       ?bStatusChannelEnable@@3_NA 00445917     Csimain.obj
 0003:00016918       ?heartbeatTime@@3HA        00445918     Csimain.obj
 0003:0001691c       ?heartbeatTimeout@@3HA     0044591c     Csimain.obj
 0003:00016920       ?hCacheFile@@3PAHA         00445920     Csimain.obj
 0003:00016940       ?iCacheFile@@3PAHA         00445940     Csimain.obj
 0003:00016960       ?bCacheSelect@@3PAHA       00445960     Csimain.obj
 0003:0001a95c       ?dgMsgQueueHWM@@3HA        0044995c     Csimain.obj
 0003:0001a960       ?asReg@@3PAUsRegistration@@A 00449960     Csimain.obj
 0003:00408914       ?iClientRegHWM@@3HA        00837914     Csimain.obj
 0003:00408918       ?iNDIErrors@@3HA           00837918     Csimain.obj
 0003:0040891c       ?iUniMsgSize@@3HA          0083791c     Csimain.obj
 0003:00408920       ?iUniFileMsgSize@@3HA      00837920     Csimain.obj
 0003:00408924       ?hSingleInstanceMutex@@3PAXA 00837924     Csimain.obj
 0003:00408928       ?hWndDrv@@3PAPAUHWND__@@A  00837928     Csimain.obj
 0003:0040c924       ?uHeartbeatCount@@3KA      0083b924     Csimain.obj
 0003:0040c928       ?bDrvFlags@@3PAEA          0083b928     Csimain.obj
 0003:0040d927       ?useMemoryDatabases@@3_NA  0083c927     Csimain.obj
 0003:0040d928       ?iRedundancyMaster@@3PAHA  0083c928     Csimain.obj
 0003:00411924       ?g_databaseMgr@@3PAVdatabaseMgr@@A 00840924     Csimain.obj
 0003:00411928       ?acUniBuff@@3PAEA          00840928     Csimain.obj
 0003:00411b29       ?bMemoryInfoCache@@3_NA    00840b29     Csimain.obj
 0003:00411b2a       ?fHWND_BROADCAST_NETSTATUSMSG@@3_NA 00840b2a     Csimain.obj
 0003:00411b2b       ?fHWND_BROADCAST_CSICLOSEWARNING@@3_NA 00840b2b     Csimain.obj
 0003:00411b2c       ?g_cacheMgr@@3PAVdatabaseMgr@@A 00840b2c     Csimain.obj
 0003:00411b30       ?acUniFileBuff@@3PAEA      00840b30     Csimain.obj
 0003:00411d31       ?fHWND_BROADCAST_APPREADY@@3_NA 00840d31     Csimain.obj
 0003:00411d32       ?fDeafToSelf@@3_NA         00840d32     Csimain.obj
 0003:00411d33       ?gbDevIniMustExistForV2@@3_NA 00840d33     Csimain.obj
 0003:00411d34       ?lBootTime@@3JA            00840d34     Csimain.obj
 0003:00411d38       ?sData@@3PAUsDriver@@A     00840d38     Csimain.obj
 0003:00425d24       ?hWndAlarmsExternal@@3PAUHWND__@@A 00854d24     Csimain.obj
 0003:00425d28       ?gszVersion@@3PADA         00854d28     Csimain.obj
 0003:00425da8       ?gszCopyright@@3PADA       00854da8     Csimain.obj
 0003:00425e28       ?hWndMain@@3PAUHWND__@@A   00854e28     Csimain.obj
 0003:00425e2c       ?hWndDlg@@3PAUHWND__@@A    00854e2c     Csimain.obj
 0003:00425e30       ?hWndCSRemote@@3PAUHWND__@@A 00854e30     Csimain.obj
 0003:00425e34       ?hWndCSLink@@3PAUHWND__@@A 00854e34     Csimain.obj
 0003:00425e38       ?hMenu@@3PAUHMENU__@@A     00854e38     Csimain.obj
 0003:00425e3c       ?lpDialog@@3P6GHXZA        00854e3c     Csimain.obj
 0003:00425e40       ?hInst@@3PAUHINSTANCE__@@A 00854e40     Csimain.obj
 0003:00425e44       ?hIcon@@3PAUHICON__@@A     00854e44     Csimain.obj
 0003:00425e48       ?hInstBWCCDLL@@3PAUHINSTANCE__@@A 00854e48     Csimain.obj
 0003:00425e4c       ?bDebugMode@@3HA           00854e4c     Csimain.obj
 0003:00425e50       ?acDebug@@3PADA            00854e50     Csimain.obj
 0003:00426051       ?bNBWS@@3EA                00855051     Csimain.obj
 0003:00426052       ?bNBCSI@@3EA               00855052     Csimain.obj
 0003:00426053       ?bNBNDI@@3EA               00855053     Csimain.obj
 0003:00426054       ?bDiagMode@@3HA            00855054     Csimain.obj
 0003:00426058       ?acCmdBuff@@3PADA          00855058     Csimain.obj
 0003:00426259       ?bStatus@@3EA              00855259     Csimain.obj
 0003:0042625a       ?bNBPktRec@@3EA            0085525a     Csimain.obj
 0003:00426260       ?acTempFilePath@@3PADA     00855260     Csimain.obj
 0003:00426364       ?bDiagModeExt@@3HA         00855364     Csimain.obj
 0003:00426368       ?acKeyFilePath@@3PADA      00855368     Csimain.obj
 0003:0042646c       ?acWS@@3PADA               0085546c     Csimain.obj
 0003:00426480       ?pncbCSI@@3PAPAU_NCB@@A    00855480     Csimain.obj
 0003:00426500       ?pncbNDI@@3PAPAU_NCB@@A    00855500     Csimain.obj
 0003:00426580       ?pncbPktRec@@3PAPAU_NCB@@A 00855580     Csimain.obj
 0003:00426600       ?acCSI@@3PADA              00855600     Csimain.obj
 0003:00426614       ?acNDI@@3PADA              00855614     Csimain.obj
 0003:00426628       ?acStatus@@3PADA           00855628     Csimain.obj
 0003:0042663c       ?acPktRec@@3PADA           0085563c     Csimain.obj
 0003:00426650       ?iWorkstation@@3HA         00855650     Csimain.obj
 0003:00426654       ?iCSIEnable@@3HA           00855654     Csimain.obj
 0003:00426658       ?iClientEnable@@3HA        00855658     Csimain.obj
 0003:0042665c       ?iDriverEnable@@3HA        0085565c     Csimain.obj
 0003:00426660       ?iSessionEnable@@3HA       00855660     Csimain.obj
 0003:00426664       ?iCSIBuffers@@3HA          00855664     Csimain.obj
 0003:00426668       ?iNDIBuffers@@3HA          00855668     Csimain.obj
 0003:0042666c       ?iSesBuffers@@3HA          0085566c     Csimain.obj
 0003:00426670       ?iPktRecBuffers@@3HA       00855670     Csimain.obj
 0003:00426674       ?iChange@@3HA              00855674     Csimain.obj
 0003:00426678       ?lSESMx@@3JA               00855678     Csimain.obj
 0003:0042667c       ?lSESTx@@3JA               0085567c     Csimain.obj
 0003:00426680       ?lSESRx@@3JA               00855680     Csimain.obj
 0003:00426688       ?workstationStatusRepollList@@3V?$set@HU?$less@H@std@@V?$allocator@H@2@@std@@A 00855688     Csimain.obj
 0003:00426690       ?configChangeClientList@@3V?$list@PAUHWND__@@V?$allocator@PAUHWND__@@@std@@@std@@A 00855690     Csimain.obj
 0003:00426698       ?revSerialErrorRequestStack@@3V?$multimap@GVserialError@@U?$less@G@std@@V?$allocator@U?$pair@$$CBGVserialError@@@std@@@3@@std@@A 00855698     Csimain.obj
 0003:004266a0       ?recoveryRequestRejectionList@@3V?$list@VserialError@@V?$allocator@VserialError@@@std@@@std@@A 008556a0     Csimain.obj
 0003:004266a8       ?netMsgUpdateClientList@@3V?$list@PAUHWND__@@V?$allocator@PAUHWND__@@@std@@@std@@A 008556a8     Csimain.obj
 0003:004266b0       ?revertivePacketList@@3V?$map@KVsizedBuffer@@U?$less@K@std@@V?$allocator@U?$pair@$$CBKVsizedBuffer@@@std@@@3@@std@@A 008556b0     Csimain.obj
 0003:004266b8       ?serialErrorClientList@@3V?$list@PAUHWND__@@V?$allocator@PAUHWND__@@@std@@@std@@A 008556b8     Csimain.obj
 0003:004266c0       ?recoveredPacketQueue@@3V?$map@KVsizedBuffer@@U?$less@K@std@@V?$allocator@U?$pair@$$CBKVsizedBuffer@@@std@@@3@@std@@A 008556c0     Csimain.obj
 0003:004266c8       ?extListDlg@@3VexternalsListDialog@@A 008556c8     Csimain.obj
 0003:004266ec       ?netTxRxStatusClientList@@3V?$list@PAUHWND__@@V?$allocator@PAUHWND__@@@std@@@std@@A 008556ec     Csimain.obj
 0003:004266f4       ?outgoingRecoveryPackets@@3V?$map@KVsizedBuffer@@U?$less@K@std@@V?$allocator@U?$pair@$$CBKVsizedBuffer@@@std@@@3@@std@@A 008556f4     Csimain.obj
 0003:004266fc       ?prDlg@@3VpktRecoveryDialog@@A 008556fc     Csimain.obj
 0003:00426704       ?deviceStatusRepollList@@3V?$set@HU?$less@H@std@@V?$allocator@H@2@@std@@A 00855704     Csimain.obj
 0003:0042670c       ?pollQueue@@3V?$queue@VsizedBuffer@@V?$deque@VsizedBuffer@@V?$allocator@VsizedBuffer@@@std@@@std@@@std@@A 0085570c     Csimain.obj
 0003:0042686c       ?thisDlg@externalsListDialog@@0PAV1@A 0085586c     externalsListDialog.obj
 0003:00426874       ?instanceCount@CGetArguments@@0HA 00855874     GetArguments.obj
 0003:00426880       ?iEnvType@@3HA             00855880     PROFILE.obj
 0003:00426c90       ?hInstDLL@@3PAUHINSTANCE__@@A 00855c90     bbcnb32_static:BBCNB32.obj
 0003:00426c94       ?bDebugModeDLL@@3HA        00855c94     bbcnb32_static:BBCNB32.obj
 0003:00426c98       ?acNetDebug@@3PADA         00855c98     bbcnb32_static:BBCNB32.obj
 0003:00426d18       ?hMutex@@3PAXA             00855d18     bbcnb32_static:BBCNB32.obj
 0003:00426d1c       ?dgMsgQueue@@3V?$queue@VsizedBuffer@@V?$deque@VsizedBuffer@@V?$allocator@VsizedBuffer@@@std@@@std@@@std@@A 00855d1c     bbcnb32_static:BBCNB32.obj
 0003:00426d50       ?pHtmlHelpW@@3P6GPAUHWND__@@PAU1@PBGIK@ZA 00855d50     htmlhelp:init.obj
 0003:00426d54       ?pHtmlHelpA@@3P6GPAUHWND__@@PAU1@PBDIK@ZA 00855d54     htmlhelp:init.obj
 0003:004272d0       __commode                  008562d0     MSVCRT:xncommod.obj
 0003:004272d4       __dowildcard               008562d4     MSVCRT:wildcard.obj
 0003:004272d8       __newmode                  008562d8     MSVCRT:_newmode.obj
 0003:004272dc       __fmode                    008562dc     MSVCRT:xtxtmode.obj
 0003:004272e0       ___native_startup_lock     008562e0     <common>
 0003:004272e4       ___native_startup_state    008562e4     <common>
 0003:004272e8       ___dyn_tls_init_callback   008562e8     <common>
 0003:004272ec       ___onexitend               008562ec     <common>
 0003:004272f0       ___onexitbegin             008562f0     <common>

 entry point at        0001:0002232a

 Static symbols

 0001:00000100       ??__E?_Generic_object@?$_Error_objects@H@std@@2V_Generic_error_category@2@A@@YAXXZ 00401100 f   database.obj
 0001:00000160       ??__E?_Iostream_object@?$_Error_objects@H@std@@2V_Iostream_error_category@2@A@@YAXXZ 00401160 f   database.obj
 0001:000001d0       ??__E?_System_object@?$_Error_objects@H@std@@2V_System_error_category@2@A@@YAXXZ 004011d0 f   database.obj
 0001:00000240       ??__E?m_driverList@closedDriversList@@0V?$set@HU?$less@H@std@@V?$allocator@H@2@@std@@A@@YAXXZ 00401240 f   closedDriversList.obj
 0001:000002a0       ??__EconfigChangeClientList@@YAXXZ 004012a0 f   Csimain.obj
 0001:00000300       ??__EdeviceStatusRepollList@@YAXXZ 00401300 f   Csimain.obj
 0001:00000360       ??__EextListDlg@@YAXXZ     00401360 f   Csimain.obj
 0001:00000380       ??__EnetMsgUpdateClientList@@YAXXZ 00401380 f   Csimain.obj
 0001:000003e0       ??__EnetTxRxStatusClientList@@YAXXZ 004013e0 f   Csimain.obj
 0001:00000440       ??__EoutgoingRecoveryPackets@@YAXXZ 00401440 f   Csimain.obj
 0001:000004a0       ??__EpollQueue@@YAXXZ      004014a0 f   Csimain.obj
 0001:00000500       ??__EprDlg@@YAXXZ          00401500 f   Csimain.obj
 0001:00000520       ??__ErecoveredPacketQueue@@YAXXZ 00401520 f   Csimain.obj
 0001:00000580       ??__ErecoveryRequestRejectionList@@YAXXZ 00401580 f   Csimain.obj
 0001:000005e0       ??__ErevSerialErrorRequestStack@@YAXXZ 004015e0 f   Csimain.obj
 0001:00000640       ??__ErevertivePacketList@@YAXXZ 00401640 f   Csimain.obj
 0001:000006a0       ??__EserialErrorClientList@@YAXXZ 004016a0 f   Csimain.obj
 0001:00000700       ??__EworkstationStatusRepollList@@YAXXZ 00401700 f   Csimain.obj
 0001:00000760       ??__EdgMsgQueue@@YAXXZ     00401760 f   bbcnb32_static:BBCNB32.obj
 0001:0000081e       __catch$??$_Buynode@U?$pair@HV?$basic_string@DU?$char_traits@D@std@@V?$allocator@D@2@@std@@@std@@@?$_Tree_buy@U?$pair@$$CBHV?$basic_string@DU?$char_traits@D@std@@V?$allocator@D@2@@std@@@std@@V?$allocator@U?$pair@$$CBHV?$basic_string@DU?$char_traits@D@std@@V?$allocator@D@2@@std@@@std@@@2@@std@@QAEPAU?$_Tree_node@U?$pair@$$CBHV?$basic_string@DU?$char_traits@D@std@@V?$allocator@D@2@@std@@@std@@PAX@1@$$QAU?$pair@HV?$basic_string@DU?$char_traits@D@std@@V?$allocator@D@2@@std@@@1@@Z$0 0040181e f i database.obj
 0001:00000ba1       __catch$??$_Insert_nohint@AAU?$pair@$$CBHV?$basic_string@DU?$char_traits@D@std@@V?$allocator@D@2@@std@@@std@@PAU?$_Tree_node@U?$pair@$$CBHV?$basic_string@DU?$char_traits@D@std@@V?$allocator@D@2@@std@@@std@@PAX@2@@?$_Tree@V?$_Tmap_traits@HV?$basic_string@DU?$char_traits@D@std@@V?$allocator@D@2@@std@@U?$less@H@2@V?$allocator@U?$pair@$$CBHV?$basic_string@DU?$char_traits@D@std@@V?$allocator@D@2@@std@@@std@@@2@$0A@@std@@@std@@IAE?AU?$pair@V?$_Tree_iterator@V?$_Tree_val@U?$_Tree_simple_types@U?$pair@$$CBHV?$basic_string@DU?$char_traits@D@std@@V?$allocator@D@2@@std@@@std@@@std@@@std@@@std@@_N@1@_NAAU?$pair@$$CBHV?$basic_string@DU?$char_traits@D@std@@V?$allocator@D@2@@std@@@1@PAU?$_Tree_node@U?$pair@$$CBHV?$basic_string@DU?$char_traits@D@std@@V?$allocator@D@2@@std@@@std@@PAX@1@@Z$0 00401ba1 f i database.obj
 0001:0000123c       __catch$?_Buyheadnode@?$_Tree_alloc@$0A@U?$_Tree_base_types@U?$pair@$$CBHV?$basic_string@DU?$char_traits@D@std@@V?$allocator@D@2@@std@@@std@@V?$allocator@U?$pair@$$CBHV?$basic_string@DU?$char_traits@D@std@@V?$allocator@D@2@@std@@@std@@@2@@std@@@std@@QAEPAU?$_Tree_node@U?$pair@$$CBHV?$basic_string@DU?$char_traits@D@std@@V?$allocator@D@2@@std@@@std@@PAX@2@XZ$0 0040223c f i database.obj
 0001:0000123c       __catch$?_Buyheadnode@?$_Tree_alloc@$0A@U?$_Tree_base_types@U?$pair@$$CBGVserialError@@@std@@V?$allocator@U?$pair@$$CBGVserialError@@@std@@@2@@std@@@std@@QAEPAU?$_Tree_node@U?$pair@$$CBGVserialError@@@std@@PAX@2@XZ$0 0040223c f i database.obj
 0001:000012ec       __catch$?_Buynode0@?$_Tree_buy@U?$pair@$$CBHV?$basic_string@DU?$char_traits@D@std@@V?$allocator@D@2@@std@@@std@@V?$allocator@U?$pair@$$CBHV?$basic_string@DU?$char_traits@D@std@@V?$allocator@D@2@@std@@@std@@@2@@std@@QAEPAU?$_Tree_node@U?$pair@$$CBHV?$basic_string@DU?$char_traits@D@std@@V?$allocator@D@2@@std@@@std@@PAX@2@XZ$0 004022ec f i database.obj
 0001:000012ec       __catch$?_Buynode0@?$_Tree_buy@U?$pair@$$CBGVserialError@@@std@@V?$allocator@U?$pair@$$CBGVserialError@@@std@@@2@@std@@QAEPAU?$_Tree_node@U?$pair@$$CBGVserialError@@@std@@PAX@2@XZ$0 004022ec f i database.obj
 0001:00001397       __catch$?_Copy@?$basic_string@DU?$char_traits@D@std@@V?$allocator@D@2@@std@@QAEXII@Z$0 00402397 f i database.obj
 0001:0000144f       __catch$?_Copy@?$basic_string@DU?$char_traits@D@std@@V?$allocator@D@2@@std@@QAEXII@Z$1 0040244f f i database.obj
 0001:00002d9e       __catch$??$_Buynode@U?$pair@KK@std@@@?$_Tree_buy@U?$pair@$$CBKK@std@@V?$allocator@U?$pair@$$CBKK@std@@@2@@std@@QAEPAU?$_Tree_node@U?$pair@$$CBKK@std@@PAX@1@$$QAU?$pair@KK@1@@Z$0 00403d9e f i databaseMgr.obj
 0001:00002d9e       __catch$??$_Buynode@U?$pair@HPAVdatabase@@@std@@@?$_Tree_buy@U?$pair@$$CBHPAVdatabase@@@std@@V?$allocator@U?$pair@$$CBHPAVdatabase@@@std@@@2@@std@@QAEPAU?$_Tree_node@U?$pair@$$CBHPAVdatabase@@@std@@PAX@1@$$QAU?$pair@HPAVdatabase@@@1@@Z$0 00403d9e f i databaseMgr.obj
 0001:000030ca       __catch$??$_Insert_nohint@AAU?$pair@$$CBHPAVdatabase@@@std@@PAU?$_Tree_node@U?$pair@$$CBHPAVdatabase@@@std@@PAX@2@@?$_Tree@V?$_Tmap_traits@HPAVdatabase@@U?$less@H@std@@V?$allocator@U?$pair@$$CBHPAVdatabase@@@std@@@3@$0A@@std@@@std@@IAE?AU?$pair@V?$_Tree_iterator@V?$_Tree_val@U?$_Tree_simple_types@U?$pair@$$CBHPAVdatabase@@@std@@@std@@@std@@@std@@_N@1@_NAAU?$pair@$$CBHPAVdatabase@@@1@PAU?$_Tree_node@U?$pair@$$CBHPAVdatabase@@@std@@PAX@1@@Z$0 004040ca f i databaseMgr.obj
 0001:0000344c       __catch$?_Buyheadnode@?$_Tree_alloc@$0A@U?$_Tree_base_types@U?$pair@$$CBKK@std@@V?$allocator@U?$pair@$$CBKK@std@@@2@@std@@@std@@QAEPAU?$_Tree_node@U?$pair@$$CBKK@std@@PAX@2@XZ$0 0040444c f i databaseMgr.obj
 0001:0000344c       __catch$?_Buyheadnode@?$_Tree_alloc@$0A@U?$_Tree_base_types@U?$pair@QAUHWND__@@K@std@@V?$allocator@U?$pair@QAUHWND__@@K@std@@@2@@std@@@std@@QAEPAU?$_Tree_node@U?$pair@QAUHWND__@@K@std@@PAX@2@XZ$0 0040444c f i databaseMgr.obj
 0001:0000344c       __catch$?_Buyheadnode@?$_Tree_alloc@$0A@U?$_Tree_base_types@U?$pair@$$CBHPAVdatabase@@@std@@V?$allocator@U?$pair@$$CBHPAVdatabase@@@std@@@2@@std@@@std@@QAEPAU?$_Tree_node@U?$pair@$$CBHPAVdatabase@@@std@@PAX@2@XZ$0 0040444c f i databaseMgr.obj
 0001:00004c4e       __catch$??$_Buynode@ABH@?$_Tree_buy@HV?$allocator@H@std@@@std@@QAEPAU?$_Tree_node@HPAX@1@ABH@Z$0 00405c4e f i closedDriversList.obj
 0001:00004f63       __catch$??$_Insert_nohint@ABHU_Nil@std@@@?$_Tree@V?$_Tset_traits@HU?$less@H@std@@V?$allocator@H@2@$0A@@std@@@std@@IAE?AU?$pair@V?$_Tree_const_iterator@V?$_Tree_val@U?$_Tree_simple_types@H@std@@@std@@@std@@_N@1@_NABHU_Nil@1@@Z$0 00405f63 f i closedDriversList.obj
 0001:0000500c       __catch$?_Buyheadnode@?$_Tree_alloc@$0A@U?$_Tree_base_types@HV?$allocator@H@std@@@std@@@std@@QAEPAU?$_Tree_node@HPAX@2@XZ$0 0040600c f i closedDriversList.obj
 0001:000050bc       __catch$?_Buynode0@?$_Tree_buy@HV?$allocator@H@std@@@std@@QAEPAU?$_Tree_node@HPAX@2@XZ$0 004060bc f i closedDriversList.obj
 0001:00006e1e       __catch$??$_Buynode@U?$pair@HVserialError@@@std@@@?$_Tree_buy@U?$pair@$$CBGVserialError@@@std@@V?$allocator@U?$pair@$$CBGVserialError@@@std@@@2@@std@@QAEPAU?$_Tree_node@U?$pair@$$CBGVserialError@@@std@@PAX@1@$$QAU?$pair@HVserialError@@@1@@Z$0 00407e1e f i Cscmd.obj
 0001:0000714a       __catch$??$_Insert_nohint@AAU?$pair@$$CBGVserialError@@@std@@PAU?$_Tree_node@U?$pair@$$CBGVserialError@@@std@@PAX@2@@?$_Tree@V?$_Tmap_traits@GVserialError@@U?$less@G@std@@V?$allocator@U?$pair@$$CBGVserialError@@@std@@@3@$00@std@@@std@@IAE?AU?$pair@V?$_Tree_iterator@V?$_Tree_val@U?$_Tree_simple_types@U?$pair@$$CBGVserialError@@@std@@@std@@@std@@@std@@_N@1@_NAAU?$pair@$$CBGVserialError@@@1@PAU?$_Tree_node@U?$pair@$$CBGVserialError@@@std@@PAX@1@@Z$0 0040814a f i Cscmd.obj
 0001:00009eb1       __catch$?_Buynode0@?$_List_alloc@$0A@U?$_List_base_types@VdeviceStatusOnHost@@V?$allocator@VdeviceStatusOnHost@@@std@@@std@@@std@@QAEPAU?$_List_node@VdeviceStatusOnHost@@PAX@2@PAU32@0@Z$0 0040aeb1 f i Cscmd.obj
 0001:0000cddc       __catch$??$_Buynode@ABQAUHWND__@@@?$_List_buy@PAUHWND__@@V?$allocator@PAUHWND__@@@std@@@std@@QAEPAU?$_List_node@PAUHWND__@@PAX@1@PAU21@0ABQAUHWND__@@@Z$0 0040dddc f i Csimain.obj
 0001:0000cddc       __catch$??$_Buynode@PAUHWND__@@@?$_List_buy@PAUHWND__@@V?$allocator@PAUHWND__@@@std@@@std@@QAEPAU?$_List_node@PAUHWND__@@PAX@1@PAU21@0$$QAPAUHWND__@@@Z$0 0040dddc f i Csimain.obj
 0001:00010578       $LN61                      00411578     Csimain.obj
 0001:000109d0       $LN40                      004119d0     Csimain.obj
 0001:000109ec       $LN34                      004119ec     Csimain.obj
 0001:00012940       $LN930                     00413940     Csimain.obj
 0001:00012968       $LN931                     00413968     Csimain.obj
 0001:000129a4       $LN921                     004139a4     Csimain.obj
 0001:000129c4       $LN932                     004139c4     Csimain.obj
 0001:000129e4       $LN933                     004139e4     Csimain.obj
 0001:00012a9c       $LN922                     00413a9c     Csimain.obj
 0001:00012b90       $LN934                     00413b90     Csimain.obj
 0001:00012be4       $LN923                     00413be4     Csimain.obj
 0001:00012c34       $LN935                     00413c34     Csimain.obj
 0001:00012c48       $LN924                     00413c48     Csimain.obj
 0001:00012dac       __catch$?_Buyheadnode@?$_Tree_alloc@$0A@U?$_Tree_base_types@U?$pair@$$CBKVsizedBuffer@@@std@@V?$allocator@U?$pair@$$CBKVsizedBuffer@@@std@@@2@@std@@@std@@QAEPAU?$_Tree_node@U?$pair@$$CBKVsizedBuffer@@@std@@PAX@2@XZ$0 00413dac f i Csimain.obj
 0001:00012e61       __catch$?_Buynode0@?$_List_alloc@$0A@U?$_List_base_types@PAUHWND__@@V?$allocator@PAUHWND__@@@std@@@std@@@std@@QAEPAU?$_List_node@PAUHWND__@@PAX@2@PAU32@0@Z$0 00413e61 f i Csimain.obj
 0001:00012f11       __catch$?_Buynode0@?$_List_alloc@$0A@U?$_List_base_types@VserialError@@V?$allocator@VserialError@@@std@@@std@@@std@@QAEPAU?$_List_node@VserialError@@PAX@2@PAU32@0@Z$0 00413f11 f i Csimain.obj
 0001:0001416e       __catch$??$_Buynode@U?$pair@KVsizedBuffer@@@std@@@?$_Tree_buy@U?$pair@$$CBKVsizedBuffer@@@std@@V?$allocator@U?$pair@$$CBKVsizedBuffer@@@std@@@2@@std@@QAEPAU?$_Tree_node@U?$pair@$$CBKVsizedBuffer@@@std@@PAX@1@$$QAU?$pair@KVsizedBuffer@@@1@@Z$0 0041516e f i Csndi.obj
 0001:000144d1       __catch$??$_Insert_nohint@AAU?$pair@$$CBKVsizedBuffer@@@std@@PAU?$_Tree_node@U?$pair@$$CBKVsizedBuffer@@@std@@PAX@2@@?$_Tree@V?$_Tmap_traits@KVsizedBuffer@@U?$less@K@std@@V?$allocator@U?$pair@$$CBKVsizedBuffer@@@std@@@3@$0A@@std@@@std@@IAE?AU?$pair@V?$_Tree_iterator@V?$_Tree_val@U?$_Tree_simple_types@U?$pair@$$CBKVsizedBuffer@@@std@@@std@@@std@@@std@@_N@1@_NAAU?$pair@$$CBKVsizedBuffer@@@1@PAU?$_Tree_node@U?$pair@$$CBKVsizedBuffer@@@std@@PAX@1@@Z$0 004154d1 f i Csndi.obj
 0001:00014edc       $LN48                      00415edc     Csndi.obj
 0001:00014ef0       $LN43                      00415ef0     Csndi.obj
 0001:000155e0       $LN127                     004165e0     Csndi.obj
 0001:000155e8       $LN108                     004165e8     Csndi.obj
 0001:000155fc       $LN128                     004165fc     Csndi.obj
 0001:00015614       $LN118                     00416614     Csndi.obj
 0001:00015628       $LN129                     00416628     Csndi.obj
 0001:00015658       $LN120                     00416658     Csndi.obj
 0001:00015ecc       __catch$?_Buynode0@?$_Tree_buy@U?$pair@$$CBKVsizedBuffer@@@std@@V?$allocator@U?$pair@$$CBKVsizedBuffer@@@std@@@2@@std@@QAEPAU?$_Tree_node@U?$pair@$$CBKVsizedBuffer@@@std@@PAX@2@XZ$0 00416ecc f i Csndi.obj
 0001:000160b8       $LN14                      004170b8     Csnetcli.obj
 0001:000165b0       $LN13                      004175b0     Csnetcli.obj
 0001:00016730       $LN22                      00417730     Csnetcli.obj
 0001:00016748       $LN20                      00417748     Csnetcli.obj
 0001:00016a8c       $LN31                      00417a8c     CSNETMSG.obj
 0001:00016aa4       $LN29                      00417aa4     CSNETMSG.obj
 0001:00017c80       $LN46                      00418c80     Csnetsrv.obj
 0001:0001896c       $LN65                      0041996c     CSPARSER.obj
 0001:0001899c       $LN62                      0041999c     CSPARSER.obj
 0001:000189b4       $LN66                      004199b4     CSPARSER.obj
 0001:0001c6dc       __catch$??$_Buynode@ABVdeviceStatusOnHost@@@?$_List_buy@VdeviceStatusOnHost@@V?$allocator@VdeviceStatusOnHost@@@std@@@std@@QAEPAU?$_List_node@VdeviceStatusOnHost@@PAX@1@PAU21@0ABVdeviceStatusOnHost@@@Z$0 0041d6dc f i deviceStatus.obj
 0001:0001c76e       __catch$??$_Buynode@U?$pair@HVdeviceStatusOnHost@@@std@@@?$_Tree_buy@U?$pair@$$CBHVdeviceStatusOnHost@@@std@@V?$allocator@U?$pair@$$CBHVdeviceStatusOnHost@@@std@@@2@@std@@QAEPAU?$_Tree_node@U?$pair@$$CBHVdeviceStatusOnHost@@@std@@PAX@1@$$QAU?$pair@HVdeviceStatusOnHost@@@1@@Z$0 0041d76e f i deviceStatus.obj
 0001:0001ca9a       __catch$??$_Insert_nohint@AAU?$pair@$$CBHVdeviceStatusOnHost@@@std@@PAU?$_Tree_node@U?$pair@$$CBHVdeviceStatusOnHost@@@std@@PAX@2@@?$_Tree@V?$_Tmap_traits@HVdeviceStatusOnHost@@U?$less@H@std@@V?$allocator@U?$pair@$$CBHVdeviceStatusOnHost@@@std@@@3@$0A@@std@@@std@@IAE?AU?$pair@V?$_Tree_iterator@V?$_Tree_val@U?$_Tree_simple_types@U?$pair@$$CBHVdeviceStatusOnHost@@@std@@@std@@@std@@@std@@_N@1@_NAAU?$pair@$$CBHVdeviceStatusOnHost@@@1@PAU?$_Tree_node@U?$pair@$$CBHVdeviceStatusOnHost@@@std@@PAX@1@@Z$0 0041da9a f i deviceStatus.obj
 0001:0001cd4c       __catch$?_Buyheadnode@?$_Tree_alloc@$0A@U?$_Tree_base_types@U?$pair@$$CBHVdeviceStatusOnHost@@@std@@V?$allocator@U?$pair@$$CBHVdeviceStatusOnHost@@@std@@@2@@std@@@std@@QAEPAU?$_Tree_node@U?$pair@$$CBHVdeviceStatusOnHost@@@std@@PAX@2@XZ$0 0041dd4c f i deviceStatus.obj
 0001:0001cdfc       __catch$?_Buynode0@?$_Tree_buy@U?$pair@$$CBHVdeviceStatusOnHost@@@std@@V?$allocator@U?$pair@$$CBHVdeviceStatusOnHost@@@std@@@2@@std@@QAEPAU?$_Tree_node@U?$pair@$$CBHVdeviceStatusOnHost@@@std@@PAX@2@XZ$0 0041ddfc f i deviceStatus.obj
 0001:0001d144       __catch$??$_Buynode@ABUpiecewise_construct_t@std@@V?$tuple@ABQAUHWND__@@@2@V?$tuple@$$$V@2@@?$_Tree_buy@U?$pair@QAUHWND__@@K@std@@V?$allocator@U?$pair@QAUHWND__@@K@std@@@2@@std@@QAEPAU?$_Tree_node@U?$pair@QAUHWND__@@K@std@@PAX@1@ABUpiecewise_construct_t@1@$$QAV?$tuple@ABQAUHWND__@@@1@$$QAV?$tuple@$$$V@1@@Z$0 0041e144 f i externalsListDialog.obj
 0001:0001d2a3       __catch$??$_Insert_hint@AAU?$pair@QAUHWND__@@K@std@@PAU?$_Tree_node@U?$pair@QAUHWND__@@K@std@@PAX@2@@?$_Tree@V?$_Tmap_traits@PAUHWND__@@KU?$less@PAUHWND__@@@std@@V?$allocator@U?$pair@QAUHWND__@@K@std@@@3@$0A@@std@@@std@@IAE?AV?$_Tree_iterator@V?$_Tree_val@U?$_Tree_simple_types@U?$pair@QAUHWND__@@K@std@@@std@@@std@@@1@V?$_Tree_const_iterator@V?$_Tree_val@U?$_Tree_simple_types@U?$pair@QAUHWND__@@K@std@@@std@@@std@@@1@AAU?$pair@QAUHWND__@@K@1@PAU?$_Tree_node@U?$pair@QAUHWND__@@K@std@@PAX@1@@Z$0 0041e2a3 f i externalsListDialog.obj
 0001:0001e714       __catch$??$_Buynode@ABUpiecewise_construct_t@std@@V?$tuple@ABK@2@V?$tuple@$$$V@2@@?$_Tree_buy@U?$pair@$$CBKVsizedBuffer@@@std@@V?$allocator@U?$pair@$$CBKVsizedBuffer@@@std@@@2@@std@@QAEPAU?$_Tree_node@U?$pair@$$CBKVsizedBuffer@@@std@@PAX@1@ABUpiecewise_construct_t@1@$$QAV?$tuple@ABK@1@$$QAV?$tuple@$$$V@1@@Z$0 0041f714 f i networkInterfaceImpl.obj
 0001:0001e79c       __catch$??$_Buynode@VserialError@@@?$_List_buy@VserialError@@V?$allocator@VserialError@@@std@@@std@@QAEPAU?$_List_node@VserialError@@PAX@1@PAU21@0$$QAVserialError@@@Z$0 0041f79c f i networkInterfaceImpl.obj
 0001:0001e922       __catch$??$_Insert_hint@AAU?$pair@$$CBKVsizedBuffer@@@std@@PAU?$_Tree_node@U?$pair@$$CBKVsizedBuffer@@@std@@PAX@2@@?$_Tree@V?$_Tmap_traits@KVsizedBuffer@@U?$less@K@std@@V?$allocator@U?$pair@$$CBKVsizedBuffer@@@std@@@3@$0A@@std@@@std@@IAE?AV?$_Tree_iterator@V?$_Tree_val@U?$_Tree_simple_types@U?$pair@$$CBKVsizedBuffer@@@std@@@std@@@std@@@1@V?$_Tree_const_iterator@V?$_Tree_val@U?$_Tree_simple_types@U?$pair@$$CBKVsizedBuffer@@@std@@@std@@@std@@@1@AAU?$pair@$$CBKVsizedBuffer@@@1@PAU?$_Tree_node@U?$pair@$$CBKVsizedBuffer@@@std@@PAX@1@@Z$0 0041f922 f i networkInterfaceImpl.obj
 0001:0001fefa       __catch$??$_Insert_nohint@AAU?$pair@$$CBKK@std@@PAU?$_Tree_node@U?$pair@$$CBKK@std@@PAX@2@@?$_Tree@V?$_Tmap_traits@KKU?$less@K@std@@V?$allocator@U?$pair@$$CBKK@std@@@2@$0A@@std@@@std@@IAE?AU?$pair@V?$_Tree_iterator@V?$_Tree_val@U?$_Tree_simple_types@U?$pair@$$CBKK@std@@@std@@@std@@@std@@_N@1@_NAAU?$pair@$$CBKK@1@PAU?$_Tree_node@U?$pair@$$CBKK@std@@PAX@1@@Z$0 00420efa f i supersededMemory.obj
 0001:0001fefa       __catch$??$_Insert_nohint@AAU?$pair@QAUHWND__@@K@std@@PAU?$_Tree_node@U?$pair@QAUHWND__@@K@std@@PAX@2@@?$_Tree@V?$_Tmap_traits@PAUHWND__@@KU?$less@PAUHWND__@@@std@@V?$allocator@U?$pair@QAUHWND__@@K@std@@@3@$0A@@std@@@std@@IAE?AU?$pair@V?$_Tree_iterator@V?$_Tree_val@U?$_Tree_simple_types@U?$pair@QAUHWND__@@K@std@@@std@@@std@@@std@@_N@1@_NAAU?$pair@QAUHWND__@@K@1@PAU?$_Tree_node@U?$pair@QAUHWND__@@K@std@@PAX@1@@Z$0 00420efa f i supersededMemory.obj
 0001:000200dc       __catch$?_Buynode0@?$_Tree_buy@U?$pair@$$CBHPAVdatabase@@@std@@V?$allocator@U?$pair@$$CBHPAVdatabase@@@std@@@2@@std@@QAEPAU?$_Tree_node@U?$pair@$$CBHPAVdatabase@@@std@@PAX@2@XZ$0 004210dc f i supersededMemory.obj
 0001:000200dc       __catch$?_Buynode0@?$_Tree_buy@U?$pair@$$CBKK@std@@V?$allocator@U?$pair@$$CBKK@std@@@2@@std@@QAEPAU?$_Tree_node@U?$pair@$$CBKK@std@@PAX@2@XZ$0 004210dc f i supersededMemory.obj
 0001:000200dc       __catch$?_Buynode0@?$_Tree_buy@U?$pair@QAUHWND__@@K@std@@V?$allocator@U?$pair@QAUHWND__@@K@std@@@2@@std@@QAEPAU?$_Tree_node@U?$pair@QAUHWND__@@K@std@@PAX@2@XZ$0 004210dc f i supersededMemory.obj
 0001:00020c68       $LN28                      00421c68     bbcnb32_static:BBCNB32.obj
 0001:00020c78       $LN21                      00421c78     bbcnb32_static:BBCNB32.obj
 0001:00020f78       $LN28                      00421f78     bbcnb32_static:NCBSUFU.obj
 0001:000221a0       $$000000                   004231a0     MSVCRT:chkstk.obj
 0001:00022226       _pre_c_init                00423226 f   MSVCRT:crtexew.obj
 0001:000222df       _pre_cpp_init              004232df f   MSVCRT:crtexew.obj
 0001:00022334       ___tmainCRTStartup         00423334 f   MSVCRT:crtexew.obj
 0001:00022510       $$000000                   00423510     MSVCRT:sehprolg4.obj
 0001:00022960       __ehhandler$??$_Buynode@U?$pair@HV?$basic_string@DU?$char_traits@D@std@@V?$allocator@D@2@@std@@@std@@@?$_Tree_buy@U?$pair@$$CBHV?$basic_string@DU?$char_traits@D@std@@V?$allocator@D@2@@std@@@std@@V?$allocator@U?$pair@$$CBHV?$basic_string@DU?$char_traits@D@std@@V?$allocator@D@2@@std@@@std@@@2@@std@@QAEPAU?$_Tree_node@U?$pair@$$CBHV?$basic_string@DU?$char_traits@D@std@@V?$allocator@D@2@@std@@@std@@PAX@1@$$QAU?$pair@HV?$basic_string@DU?$char_traits@D@std@@V?$allocator@D@2@@std@@@1@@Z 00423960 f   database.obj
 0001:00022980       __unwindfunclet$??$_Insert_at@AAU?$pair@$$CBHV?$basic_string@DU?$char_traits@D@std@@V?$allocator@D@2@@std@@@std@@PAU?$_Tree_node@U?$pair@$$CBHV?$basic_string@DU?$char_traits@D@std@@V?$allocator@D@2@@std@@@std@@PAX@2@@?$_Tree@V?$_Tmap_traits@HV?$basic_string@DU?$char_traits@D@std@@V?$allocator@D@2@@std@@U?$less@H@2@V?$allocator@U?$pair@$$CBHV?$basic_string@DU?$char_traits@D@std@@V?$allocator@D@2@@std@@@std@@@2@$0A@@std@@@std@@IAE?AV?$_Tree_iterator@V?$_Tree_val@U?$_Tree_simple_types@U?$pair@$$CBHV?$basic_string@DU?$char_traits@D@std@@V?$allocator@D@2@@std@@@std@@@std@@@std@@@1@_NPAU?$_Tree_node@U?$pair@$$CBHV?$basic_string@DU?$char_traits@D@std@@V?$allocator@D@2@@std@@@std@@PAX@1@AAU?$pair@$$CBHV?$basic_string@DU?$char_traits@D@std@@V?$allocator@D@2@@std@@@1@1@Z$0 00423980 f   database.obj
 0001:0002298b       __ehhandler$??$_Insert_at@AAU?$pair@$$CBHV?$basic_string@DU?$char_traits@D@std@@V?$allocator@D@2@@std@@@std@@PAU?$_Tree_node@U?$pair@$$CBHV?$basic_string@DU?$char_traits@D@std@@V?$allocator@D@2@@std@@@std@@PAX@2@@?$_Tree@V?$_Tmap_traits@HV?$basic_string@DU?$char_traits@D@std@@V?$allocator@D@2@@std@@U?$less@H@2@V?$allocator@U?$pair@$$CBHV?$basic_string@DU?$char_traits@D@std@@V?$allocator@D@2@@std@@@std@@@2@$0A@@std@@@std@@IAE?AV?$_Tree_iterator@V?$_Tree_val@U?$_Tree_simple_types@U?$pair@$$CBHV?$basic_string@DU?$char_traits@D@std@@V?$allocator@D@2@@std@@@std@@@std@@@std@@@1@_NPAU?$_Tree_node@U?$pair@$$CBHV?$basic_string@DU?$char_traits@D@std@@V?$allocator@D@2@@std@@@std@@PAX@1@AAU?$pair@$$CBHV?$basic_string@DU?$char_traits@D@std@@V?$allocator@D@2@@std@@@1@1@Z 0042398b f   database.obj
 0001:000229b0       __ehhandler$??$_Insert_nohint@AAU?$pair@$$CBHV?$basic_string@DU?$char_traits@D@std@@V?$allocator@D@2@@std@@@std@@PAU?$_Tree_node@U?$pair@$$CBHV?$basic_string@DU?$char_traits@D@std@@V?$allocator@D@2@@std@@@std@@PAX@2@@?$_Tree@V?$_Tmap_traits@HV?$basic_string@DU?$char_traits@D@std@@V?$allocator@D@2@@std@@U?$less@H@2@V?$allocator@U?$pair@$$CBHV?$basic_string@DU?$char_traits@D@std@@V?$allocator@D@2@@std@@@std@@@2@$0A@@std@@@std@@IAE?AU?$pair@V?$_Tree_iterator@V?$_Tree_val@U?$_Tree_simple_types@U?$pair@$$CBHV?$basic_string@DU?$char_traits@D@std@@V?$allocator@D@2@@std@@@std@@@std@@@std@@@std@@_N@1@_NAAU?$pair@$$CBHV?$basic_string@DU?$char_traits@D@std@@V?$allocator@D@2@@std@@@1@PAU?$_Tree_node@U?$pair@$$CBHV?$basic_string@DU?$char_traits@D@std@@V?$allocator@D@2@@std@@@std@@PAX@1@@Z 004239b0 f   database.obj
 0001:000229d0       __unwindfunclet$??$construct@U?$pair@$$CBHV?$basic_string@DU?$char_traits@D@std@@V?$allocator@D@2@@std@@@std@@U?$pair@HV?$basic_string@DU?$char_traits@D@std@@V?$allocator@D@2@@std@@@2@@?$_Wrap_alloc@V?$allocator@U?$_Tree_node@U?$pair@$$CBHV?$basic_string@DU?$char_traits@D@std@@V?$allocator@D@2@@std@@@std@@PAX@std@@@std@@@std@@QAEXPAU?$pair@$$CBHV?$basic_string@DU?$char_traits@D@std@@V?$allocator@D@2@@std@@@1@$$QAU?$pair@HV?$basic_string@DU?$char_traits@D@std@@V?$allocator@D@2@@std@@@1@@Z$0 004239d0 f   database.obj
 0001:000229e1       __unwindfunclet$??$construct@U?$pair@$$CBHV?$basic_string@DU?$char_traits@D@std@@V?$allocator@D@2@@std@@@std@@U?$pair@HV?$basic_string@DU?$char_traits@D@std@@V?$allocator@D@2@@std@@@2@@?$_Wrap_alloc@V?$allocator@U?$_Tree_node@U?$pair@$$CBHV?$basic_string@DU?$char_traits@D@std@@V?$allocator@D@2@@std@@@std@@PAX@std@@@std@@@std@@QAEXPAU?$pair@$$CBHV?$basic_string@DU?$char_traits@D@std@@V?$allocator@D@2@@std@@@1@$$QAU?$pair@HV?$basic_string@DU?$char_traits@D@std@@V?$allocator@D@2@@std@@@1@@Z$1 004239e1 f   database.obj
 0001:000229ec       __ehhandler$??$construct@U?$pair@$$CBHV?$basic_string@DU?$char_traits@D@std@@V?$allocator@D@2@@std@@@std@@U?$pair@HV?$basic_string@DU?$char_traits@D@std@@V?$allocator@D@2@@std@@@2@@?$_Wrap_alloc@V?$allocator@U?$_Tree_node@U?$pair@$$CBHV?$basic_string@DU?$char_traits@D@std@@V?$allocator@D@2@@std@@@std@@PAX@std@@@std@@@std@@QAEXPAU?$pair@$$CBHV?$basic_string@DU?$char_traits@D@std@@V?$allocator@D@2@@std@@@1@$$QAU?$pair@HV?$basic_string@DU?$char_traits@D@std@@V?$allocator@D@2@@std@@@1@@Z 004239ec f   database.obj
 0001:00022a10       __unwindfunclet$??0database@@QAE@PBDHH@Z$5 00423a10 f   database.obj
 0001:00022a18       __unwindfunclet$??0database@@QAE@PBDHH@Z$4 00423a18 f   database.obj
 0001:00022a20       __unwindfunclet$??0database@@QAE@PBDHH@Z$3 00423a20 f   database.obj
 0001:00022a28       __unwindfunclet$??0database@@QAE@PBDHH@Z$2 00423a28 f   database.obj
 0001:00022a30       __unwindfunclet$??0database@@QAE@PBDHH@Z$0 00423a30 f   database.obj
 0001:00022a3b       __unwindfunclet$??0database@@QAE@PBDHH@Z$1 00423a3b f   database.obj
 0001:00022a46       __ehhandler$??0database@@QAE@PBDHH@Z 00423a46 f   database.obj
 0001:00022a70       __unwindfunclet$??1?$map@HV?$basic_string@DU?$char_traits@D@std@@V?$allocator@D@2@@std@@U?$less@H@2@V?$allocator@U?$pair@$$CBHV?$basic_string@DU?$char_traits@D@std@@V?$allocator@D@2@@std@@@std@@@2@@std@@QAE@XZ$0 00423a70 f   database.obj
 0001:00022a78       __unwindfunclet$??1?$map@HV?$basic_string@DU?$char_traits@D@std@@V?$allocator@D@2@@std@@U?$less@H@2@V?$allocator@U?$pair@$$CBHV?$basic_string@DU?$char_traits@D@std@@V?$allocator@D@2@@std@@@std@@@2@@std@@QAE@XZ$1 00423a78 f   database.obj
 0001:00022a80       __unwindfunclet$??1?$map@HV?$basic_string@DU?$char_traits@D@std@@V?$allocator@D@2@@std@@U?$less@H@2@V?$allocator@U?$pair@$$CBHV?$basic_string@DU?$char_traits@D@std@@V?$allocator@D@2@@std@@@std@@@2@@std@@QAE@XZ$2 00423a80 f   database.obj
 0001:00022a88       __unwindfunclet$??1?$map@HV?$basic_string@DU?$char_traits@D@std@@V?$allocator@D@2@@std@@U?$less@H@2@V?$allocator@U?$pair@$$CBHV?$basic_string@DU?$char_traits@D@std@@V?$allocator@D@2@@std@@@std@@@2@@std@@QAE@XZ$3 00423a88 f   database.obj
 0001:00022a90       __ehhandler$??1?$map@HV?$basic_string@DU?$char_traits@D@std@@V?$allocator@D@2@@std@@U?$less@H@2@V?$allocator@U?$pair@$$CBHV?$basic_string@DU?$char_traits@D@std@@V?$allocator@D@2@@std@@@std@@@2@@std@@QAE@XZ 00423a90 f   database.obj
 0001:00022ab0       __unwindfunclet$??1_Generic_error_category@std@@UAE@XZ$0 00423ab0 f   database.obj
 0001:00022ab8       __ehhandler$??1_Generic_error_category@std@@UAE@XZ 00423ab8 f   database.obj
 0001:00022ae0       __unwindfunclet$??1database@@UAE@XZ$0 00423ae0 f   database.obj
 0001:00022aeb       __unwindfunclet$??1database@@UAE@XZ$1 00423aeb f   database.obj
 0001:00022af6       __unwindfunclet$??1database@@UAE@XZ$2 00423af6 f   database.obj
 0001:00022afe       __unwindfunclet$??1database@@UAE@XZ$3 00423afe f   database.obj
 0001:00022b06       __unwindfunclet$??1database@@UAE@XZ$4 00423b06 f   database.obj
 0001:00022b0e       __unwindfunclet$??1database@@UAE@XZ$5 00423b0e f   database.obj
 0001:00022b16       __ehhandler$??1database@@UAE@XZ 00423b16 f   database.obj
 0001:00022b40       __unwindfunclet$??_G_Generic_error_category@std@@UAEPAXI@Z$0 00423b40 f   database.obj
 0001:00022b48       __ehhandler$??_G_Generic_error_category@std@@UAEPAXI@Z 00423b48 f   database.obj
 0001:00022b70       __unwindfunclet$??_G_System_error_category@std@@UAEPAXI@Z$0 00423b70 f   database.obj
 0001:00022b70       __unwindfunclet$??_G_Iostream_error_category@std@@UAEPAXI@Z$0 00423b70 f   database.obj
 0001:00022b78       __unwindfunclet$??_G_System_error_category@std@@UAEPAXI@Z$1 00423b78 f   database.obj
 0001:00022b78       __unwindfunclet$??_G_Iostream_error_category@std@@UAEPAXI@Z$1 00423b78 f   database.obj
 0001:00022b80       __ehhandler$??_G_Iostream_error_category@std@@UAEPAXI@Z 00423b80 f   database.obj
 0001:00022b80       __ehhandler$??_G_System_error_category@std@@UAEPAXI@Z 00423b80 f   database.obj
 0001:00022ba0       __unwindfunclet$??__E?_Iostream_object@?$_Error_objects@H@std@@2V_Iostream_error_category@2@A@@YAXXZ$1 00423ba0 f   database.obj
 0001:00022baa       __unwindfunclet$??__E?_Iostream_object@?$_Error_objects@H@std@@2V_Iostream_error_category@2@A@@YAXXZ$0 00423baa f   database.obj
 0001:00022bb4       __ehhandler$??__E?_Iostream_object@?$_Error_objects@H@std@@2V_Iostream_error_category@2@A@@YAXXZ 00423bb4 f   database.obj
 0001:00022bd0       __unwindfunclet$??__E?_System_object@?$_Error_objects@H@std@@2V_System_error_category@2@A@@YAXXZ$1 00423bd0 f   database.obj
 0001:00022bda       __unwindfunclet$??__E?_System_object@?$_Error_objects@H@std@@2V_System_error_category@2@A@@YAXXZ$0 00423bda f   database.obj
 0001:00022be4       __ehhandler$??__E?_System_object@?$_Error_objects@H@std@@2V_System_error_category@2@A@@YAXXZ 00423be4 f   database.obj
 0001:00022c00       __unwindfunclet$??__F?_Generic_object@?$_Error_objects@H@std@@2V_Generic_error_category@2@A@@YAXXZ$0 00423c00 f   database.obj
 0001:00022c00       __unwindfunclet$??__E?_Generic_object@?$_Error_objects@H@std@@2V_Generic_error_category@2@A@@YAXXZ$0 00423c00 f   database.obj
 0001:00022c0a       __ehhandler$??__E?_Generic_object@?$_Error_objects@H@std@@2V_Generic_error_category@2@A@@YAXXZ 00423c0a f   database.obj
 0001:00022c0a       __ehhandler$??__F?_Generic_object@?$_Error_objects@H@std@@2V_Generic_error_category@2@A@@YAXXZ 00423c0a f   database.obj
 0001:00022c30       __unwindfunclet$??__F?_Iostream_object@?$_Error_objects@H@std@@2V_Iostream_error_category@2@A@@YAXXZ$0 00423c30 f   database.obj
 0001:00022c3a       __unwindfunclet$??__F?_Iostream_object@?$_Error_objects@H@std@@2V_Iostream_error_category@2@A@@YAXXZ$1 00423c3a f   database.obj
 0001:00022c44       __ehhandler$??__F?_Iostream_object@?$_Error_objects@H@std@@2V_Iostream_error_category@2@A@@YAXXZ 00423c44 f   database.obj
 0001:00022c60       __unwindfunclet$??__F?_System_object@?$_Error_objects@H@std@@2V_System_error_category@2@A@@YAXXZ$0 00423c60 f   database.obj
 0001:00022c6a       __unwindfunclet$??__F?_System_object@?$_Error_objects@H@std@@2V_System_error_category@2@A@@YAXXZ$1 00423c6a f   database.obj
 0001:00022c74       __ehhandler$??__F?_System_object@?$_Error_objects@H@std@@2V_System_error_category@2@A@@YAXXZ 00423c74 f   database.obj
 0001:00022c90       __unwindfunclet$?_Assign_rv@?$basic_string@DU?$char_traits@D@std@@V?$allocator@D@2@@std@@QAEX$$QAV12@@Z$0 00423c90 f   database.obj
 0001:00022ca1       __ehhandler$?_Assign_rv@?$basic_string@DU?$char_traits@D@std@@V?$allocator@D@2@@std@@QAEX$$QAV12@@Z 00423ca1 f   database.obj
 0001:00022cc0       __ehhandler$?_Buyheadnode@?$_Tree_alloc@$0A@U?$_Tree_base_types@U?$pair@$$CBGVserialError@@@std@@V?$allocator@U?$pair@$$CBGVserialError@@@std@@@2@@std@@@std@@QAEPAU?$_Tree_node@U?$pair@$$CBGVserialError@@@std@@PAX@2@XZ 00423cc0 f   database.obj
 0001:00022cc0       __ehhandler$?_Buyheadnode@?$_Tree_alloc@$0A@U?$_Tree_base_types@U?$pair@$$CBHV?$basic_string@DU?$char_traits@D@std@@V?$allocator@D@2@@std@@@std@@V?$allocator@U?$pair@$$CBHV?$basic_string@DU?$char_traits@D@std@@V?$allocator@D@2@@std@@@std@@@2@@std@@@std@@QAEPAU?$_Tree_node@U?$pair@$$CBHV?$basic_string@DU?$char_traits@D@std@@V?$allocator@D@2@@std@@@std@@PAX@2@XZ 00423cc0 f   database.obj
 0001:00022ce0       __ehhandler$?_Buynode0@?$_Tree_buy@U?$pair@$$CBHV?$basic_string@DU?$char_traits@D@std@@V?$allocator@D@2@@std@@@std@@V?$allocator@U?$pair@$$CBHV?$basic_string@DU?$char_traits@D@std@@V?$allocator@D@2@@std@@@std@@@2@@std@@QAEPAU?$_Tree_node@U?$pair@$$CBHV?$basic_string@DU?$char_traits@D@std@@V?$allocator@D@2@@std@@@std@@PAX@2@XZ 00423ce0 f   database.obj
 0001:00022ce0       __ehhandler$?_Buynode0@?$_Tree_buy@U?$pair@$$CBGVserialError@@@std@@V?$allocator@U?$pair@$$CBGVserialError@@@std@@@2@@std@@QAEPAU?$_Tree_node@U?$pair@$$CBGVserialError@@@std@@PAX@2@XZ 00423ce0 f   database.obj
 0001:00022d00       __unwindfunclet$?_Copy@?$basic_string@DU?$char_traits@D@std@@V?$allocator@D@2@@std@@QAEXII@Z$4 00423d00 f   database.obj
 0001:00022d11       __ehhandler$?_Copy@?$basic_string@DU?$char_traits@D@std@@V?$allocator@D@2@@std@@QAEXII@Z 00423d11 f   database.obj
 0001:00022d30       __unwindfunclet$?_Destroy_if_not_nil@?$_Tree@V?$_Tmap_traits@HV?$basic_string@DU?$char_traits@D@std@@V?$allocator@D@2@@std@@U?$less@H@2@V?$allocator@U?$pair@$$CBHV?$basic_string@DU?$char_traits@D@std@@V?$allocator@D@2@@std@@@std@@@2@$0A@@std@@@std@@IAEXPAU?$_Tree_node@U?$pair@$$CBHV?$basic_string@DU?$char_traits@D@std@@V?$allocator@D@2@@std@@@std@@PAX@2@@Z$0 00423d30 f   database.obj
 0001:00022d3b       __ehhandler$?_Destroy_if_not_nil@?$_Tree@V?$_Tmap_traits@HV?$basic_string@DU?$char_traits@D@std@@V?$allocator@D@2@@std@@U?$less@H@2@V?$allocator@U?$pair@$$CBHV?$basic_string@DU?$char_traits@D@std@@V?$allocator@D@2@@std@@@std@@@2@$0A@@std@@@std@@IAEXPAU?$_Tree_node@U?$pair@$$CBHV?$basic_string@DU?$char_traits@D@std@@V?$allocator@D@2@@std@@@std@@PAX@2@@Z 00423d3b f   database.obj
 0001:00022d60       __unwindfunclet$?_Erase@?$_Tree@V?$_Tmap_traits@HV?$basic_string@DU?$char_traits@D@std@@V?$allocator@D@2@@std@@U?$less@H@2@V?$allocator@U?$pair@$$CBHV?$basic_string@DU?$char_traits@D@std@@V?$allocator@D@2@@std@@@std@@@2@$0A@@std@@@std@@IAEXPAU?$_Tree_node@U?$pair@$$CBHV?$basic_string@DU?$char_traits@D@std@@V?$allocator@D@2@@std@@@std@@PAX@2@@Z$0 00423d60 f   database.obj
 0001:00022d6b       __ehhandler$?_Erase@?$_Tree@V?$_Tmap_traits@HV?$basic_string@DU?$char_traits@D@std@@V?$allocator@D@2@@std@@U?$less@H@2@V?$allocator@U?$pair@$$CBHV?$basic_string@DU?$char_traits@D@std@@V?$allocator@D@2@@std@@@std@@@2@$0A@@std@@@std@@IAEXPAU?$_Tree_node@U?$pair@$$CBHV?$basic_string@DU?$char_traits@D@std@@V?$allocator@D@2@@std@@@std@@PAX@2@@Z 00423d6b f   database.obj
 0001:00022d90       __unwindfunclet$?erase@?$_Tree@V?$_Tmap_traits@HV?$basic_string@DU?$char_traits@D@std@@V?$allocator@D@2@@std@@U?$less@H@2@V?$allocator@U?$pair@$$CBHV?$basic_string@DU?$char_traits@D@std@@V?$allocator@D@2@@std@@@std@@@2@$0A@@std@@@std@@QAE?AV?$_Tree_iterator@V?$_Tree_val@U?$_Tree_simple_types@U?$pair@$$CBHV?$basic_string@DU?$char_traits@D@std@@V?$allocator@D@2@@std@@@std@@@std@@@std@@@2@V?$_Tree_const_iterator@V?$_Tree_val@U?$_Tree_simple_types@U?$pair@$$CBHV?$basic_string@DU?$char_traits@D@std@@V?$allocator@D@2@@std@@@std@@@std@@@std@@@2@@Z$0 00423d90 f   database.obj
 0001:00022d9b       __ehhandler$?erase@?$_Tree@V?$_Tmap_traits@HV?$basic_string@DU?$char_traits@D@std@@V?$allocator@D@2@@std@@U?$less@H@2@V?$allocator@U?$pair@$$CBHV?$basic_string@DU?$char_traits@D@std@@V?$allocator@D@2@@std@@@std@@@2@$0A@@std@@@std@@QAE?AV?$_Tree_iterator@V?$_Tree_val@U?$_Tree_simple_types@U?$pair@$$CBHV?$basic_string@DU?$char_traits@D@std@@V?$allocator@D@2@@std@@@std@@@std@@@std@@@2@V?$_Tree_const_iterator@V?$_Tree_val@U?$_Tree_simple_types@U?$pair@$$CBHV?$basic_string@DU?$char_traits@D@std@@V?$allocator@D@2@@std@@@std@@@std@@@std@@@2@@Z 00423d9b f   database.obj
 0001:00022dc0       __unwindfunclet$?load@database@@AAEXPBDHH@Z$0 00423dc0 f   database.obj
 0001:00022dcb       __unwindfunclet$?load@database@@AAEXPBDHH@Z$3 00423dcb f   database.obj
 0001:00022de2       __unwindfunclet$?load@database@@AAEXPBDHH@Z$2 00423de2 f   database.obj
 0001:00022ded       __unwindfunclet$?load@database@@AAEXPBDHH@Z$1 00423ded f   database.obj
 0001:00022df8       __unwindfunclet$?load@database@@AAEXPBDHH@Z$4 00423df8 f   database.obj
 0001:00022e03       __ehhandler$?load@database@@AAEXPBDHH@Z 00423e03 f   database.obj
 0001:00022e30       __unwindfunclet$?message@_System_error_category@std@@UBE?AV?$basic_string@DU?$char_traits@D@std@@V?$allocator@D@2@@2@H@Z$0 00423e30 f   database.obj
 0001:00022e30       __unwindfunclet$?message@_Generic_error_category@std@@UBE?AV?$basic_string@DU?$char_traits@D@std@@V?$allocator@D@2@@2@H@Z$0 00423e30 f   database.obj
 0001:00022e49       __ehhandler$?message@_Generic_error_category@std@@UBE?AV?$basic_string@DU?$char_traits@D@std@@V?$allocator@D@2@@2@H@Z 00423e49 f   database.obj
 0001:00022e49       __ehhandler$?message@_System_error_category@std@@UBE?AV?$basic_string@DU?$char_traits@D@std@@V?$allocator@D@2@@2@H@Z 00423e49 f   database.obj
 0001:00022e70       __unwindfunclet$?setName@database@@QAE_NHPBD_NPA_N@Z$1 00423e70 f   database.obj
 0001:00022e78       __unwindfunclet$?setName@database@@QAE_NHPBD_NPA_N@Z$0 00423e78 f   database.obj
 0001:00022e80       __unwindfunclet$?setName@database@@QAE_NHPBD_NPA_N@Z$2 00423e80 f   database.obj
 0001:00022e88       __ehhandler$?setName@database@@QAE_NHPBD_NPA_N@Z 00423e88 f   database.obj
 0001:00022eb0       __ehhandler$??$_Buynode@U?$pair@HPAVdatabase@@@std@@@?$_Tree_buy@U?$pair@$$CBHPAVdatabase@@@std@@V?$allocator@U?$pair@$$CBHPAVdatabase@@@std@@@2@@std@@QAEPAU?$_Tree_node@U?$pair@$$CBHPAVdatabase@@@std@@PAX@1@$$QAU?$pair@HPAVdatabase@@@1@@Z 00423eb0 f   databaseMgr.obj
 0001:00022eb0       __ehhandler$??$_Buynode@U?$pair@KK@std@@@?$_Tree_buy@U?$pair@$$CBKK@std@@V?$allocator@U?$pair@$$CBKK@std@@@2@@std@@QAEPAU?$_Tree_node@U?$pair@$$CBKK@std@@PAX@1@$$QAU?$pair@KK@1@@Z 00423eb0 f   databaseMgr.obj
 0001:00022ed0       __ehhandler$??$_Insert_nohint@AAU?$pair@$$CBHPAVdatabase@@@std@@PAU?$_Tree_node@U?$pair@$$CBHPAVdatabase@@@std@@PAX@2@@?$_Tree@V?$_Tmap_traits@HPAVdatabase@@U?$less@H@std@@V?$allocator@U?$pair@$$CBHPAVdatabase@@@std@@@3@$0A@@std@@@std@@IAE?AU?$pair@V?$_Tree_iterator@V?$_Tree_val@U?$_Tree_simple_types@U?$pair@$$CBHPAVdatabase@@@std@@@std@@@std@@@std@@_N@1@_NAAU?$pair@$$CBHPAVdatabase@@@1@PAU?$_Tree_node@U?$pair@$$CBHPAVdatabase@@@std@@PAX@1@@Z 00423ed0 f   databaseMgr.obj
 0001:00022ef0       __unwindfunclet$??1?$_Tree_buy@U?$pair@QAUHWND__@@K@std@@V?$allocator@U?$pair@QAUHWND__@@K@std@@@2@@std@@QAE@XZ$0 00423ef0 f   databaseMgr.obj
 0001:00022ef0       __unwindfunclet$??1?$_Tree_buy@U?$pair@$$CBGVserialError@@@std@@V?$allocator@U?$pair@$$CBGVserialError@@@std@@@2@@std@@QAE@XZ$0 00423ef0 f   databaseMgr.obj
 0001:00022ef0       __unwindfunclet$??1?$_Tree_buy@U?$pair@$$CBKVsizedBuffer@@@std@@V?$allocator@U?$pair@$$CBKVsizedBuffer@@@std@@@2@@std@@QAE@XZ$0 00423ef0 f   databaseMgr.obj
 0001:00022ef0       __unwindfunclet$??1?$_Tree_buy@U?$pair@$$CBKK@std@@V?$allocator@U?$pair@$$CBKK@std@@@2@@std@@QAE@XZ$0 00423ef0 f   databaseMgr.obj
 0001:00022ef0       __unwindfunclet$??1?$_Tree_buy@U?$pair@$$CBHV?$basic_string@DU?$char_traits@D@std@@V?$allocator@D@2@@std@@@std@@V?$allocator@U?$pair@$$CBHV?$basic_string@DU?$char_traits@D@std@@V?$allocator@D@2@@std@@@std@@@2@@std@@QAE@XZ$0 00423ef0 f   databaseMgr.obj
 0001:00022ef0       __unwindfunclet$??1?$_Tree_buy@U?$pair@$$CBHPAVdatabase@@@std@@V?$allocator@U?$pair@$$CBHPAVdatabase@@@std@@@2@@std@@QAE@XZ$0 00423ef0 f   databaseMgr.obj
 0001:00022ef0       __unwindfunclet$??1?$_Tree_buy@U?$pair@$$CBHVdeviceStatusOnHost@@@std@@V?$allocator@U?$pair@$$CBHVdeviceStatusOnHost@@@std@@@2@@std@@QAE@XZ$0 00423ef0 f   databaseMgr.obj
 0001:00022ef0       __unwindfunclet$??1?$_List_buy@PAUHWND__@@V?$allocator@PAUHWND__@@@std@@@std@@QAE@XZ$0 00423ef0 f   databaseMgr.obj
 0001:00022ef0       __unwindfunclet$??1?$_List_buy@VserialError@@V?$allocator@VserialError@@@std@@@std@@QAE@XZ$0 00423ef0 f   databaseMgr.obj
 0001:00022ef0       __unwindfunclet$??1?$_Tree_buy@HV?$allocator@H@std@@@std@@QAE@XZ$0 00423ef0 f   databaseMgr.obj
 0001:00022ef0       __unwindfunclet$??1?$_List_buy@VdeviceStatusOnHost@@V?$allocator@VdeviceStatusOnHost@@@std@@@std@@QAE@XZ$0 00423ef0 f   databaseMgr.obj
 0001:00022ef8       __ehhandler$??1?$_Tree_buy@U?$pair@QAUHWND__@@K@std@@V?$allocator@U?$pair@QAUHWND__@@K@std@@@2@@std@@QAE@XZ 00423ef8 f   databaseMgr.obj
 0001:00022ef8       __ehhandler$??1?$_List_buy@VserialError@@V?$allocator@VserialError@@@std@@@std@@QAE@XZ 00423ef8 f   databaseMgr.obj
 0001:00022ef8       __ehhandler$??1?$_List_buy@PAUHWND__@@V?$allocator@PAUHWND__@@@std@@@std@@QAE@XZ 00423ef8 f   databaseMgr.obj
 0001:00022ef8       __ehhandler$??1?$_Tree_buy@U?$pair@$$CBHVdeviceStatusOnHost@@@std@@V?$allocator@U?$pair@$$CBHVdeviceStatusOnHost@@@std@@@2@@std@@QAE@XZ 00423ef8 f   databaseMgr.obj
 0001:00022ef8       __ehhandler$??1?$_Tree_buy@U?$pair@$$CBHV?$basic_string@DU?$char_traits@D@std@@V?$allocator@D@2@@std@@@std@@V?$allocator@U?$pair@$$CBHV?$basic_string@DU?$char_traits@D@std@@V?$allocator@D@2@@std@@@std@@@2@@std@@QAE@XZ 00423ef8 f   databaseMgr.obj
 0001:00022ef8       __ehhandler$??1?$_Tree_buy@U?$pair@$$CBKK@std@@V?$allocator@U?$pair@$$CBKK@std@@@2@@std@@QAE@XZ 00423ef8 f   databaseMgr.obj
 0001:00022ef8       __ehhandler$??1?$_Tree_buy@U?$pair@$$CBGVserialError@@@std@@V?$allocator@U?$pair@$$CBGVserialError@@@std@@@2@@std@@QAE@XZ 00423ef8 f   databaseMgr.obj
 0001:00022ef8       __ehhandler$??1?$_Tree_buy@U?$pair@$$CBHPAVdatabase@@@std@@V?$allocator@U?$pair@$$CBHPAVdatabase@@@std@@@2@@std@@QAE@XZ 00423ef8 f   databaseMgr.obj
 0001:00022ef8       __ehhandler$??1?$_Tree_buy@U?$pair@$$CBKVsizedBuffer@@@std@@V?$allocator@U?$pair@$$CBKVsizedBuffer@@@std@@@2@@std@@QAE@XZ 00423ef8 f   databaseMgr.obj
 0001:00022ef8       __ehhandler$??1?$_Tree_buy@HV?$allocator@H@std@@@std@@QAE@XZ 00423ef8 f   databaseMgr.obj
 0001:00022ef8       __ehhandler$??1?$_List_buy@VdeviceStatusOnHost@@V?$allocator@VdeviceStatusOnHost@@@std@@@std@@QAE@XZ 00423ef8 f   databaseMgr.obj
 0001:00022f20       __unwindfunclet$??1?$map@PAUHWND__@@KU?$less@PAUHWND__@@@std@@V?$allocator@U?$pair@QAUHWND__@@K@std@@@3@@std@@QAE@XZ$0 00423f20 f   databaseMgr.obj
 0001:00022f20       __unwindfunclet$??1?$map@HVdeviceStatusOnHost@@U?$less@H@std@@V?$allocator@U?$pair@$$CBHVdeviceStatusOnHost@@@std@@@3@@std@@QAE@XZ$0 00423f20 f   databaseMgr.obj
 0001:00022f20       __unwindfunclet$??1?$map@HPAVdatabase@@U?$less@H@std@@V?$allocator@U?$pair@$$CBHPAVdatabase@@@std@@@3@@std@@QAE@XZ$0 00423f20 f   databaseMgr.obj
 0001:00022f20       __unwindfunclet$??1?$map@KKU?$less@K@std@@V?$allocator@U?$pair@$$CBKK@std@@@2@@std@@QAE@XZ$0 00423f20 f   databaseMgr.obj
 0001:00022f28       __unwindfunclet$??1?$map@HVdeviceStatusOnHost@@U?$less@H@std@@V?$allocator@U?$pair@$$CBHVdeviceStatusOnHost@@@std@@@3@@std@@QAE@XZ$1 00423f28 f   databaseMgr.obj
 0001:00022f28       __unwindfunclet$??1?$map@PAUHWND__@@KU?$less@PAUHWND__@@@std@@V?$allocator@U?$pair@QAUHWND__@@K@std@@@3@@std@@QAE@XZ$1 00423f28 f   databaseMgr.obj
 0001:00022f28       __unwindfunclet$??1?$map@KKU?$less@K@std@@V?$allocator@U?$pair@$$CBKK@std@@@2@@std@@QAE@XZ$1 00423f28 f   databaseMgr.obj
 0001:00022f28       __unwindfunclet$??1?$map@HPAVdatabase@@U?$less@H@std@@V?$allocator@U?$pair@$$CBHPAVdatabase@@@std@@@3@@std@@QAE@XZ$1 00423f28 f   databaseMgr.obj
 0001:00022f30       __unwindfunclet$??1?$map@HPAVdatabase@@U?$less@H@std@@V?$allocator@U?$pair@$$CBHPAVdatabase@@@std@@@3@@std@@QAE@XZ$2 00423f30 f   databaseMgr.obj
 0001:00022f30       __unwindfunclet$??1?$map@HVdeviceStatusOnHost@@U?$less@H@std@@V?$allocator@U?$pair@$$CBHVdeviceStatusOnHost@@@std@@@3@@std@@QAE@XZ$2 00423f30 f   databaseMgr.obj
 0001:00022f30       __unwindfunclet$??1?$map@KKU?$less@K@std@@V?$allocator@U?$pair@$$CBKK@std@@@2@@std@@QAE@XZ$2 00423f30 f   databaseMgr.obj
 0001:00022f30       __unwindfunclet$??1?$map@PAUHWND__@@KU?$less@PAUHWND__@@@std@@V?$allocator@U?$pair@QAUHWND__@@K@std@@@3@@std@@QAE@XZ$2 00423f30 f   databaseMgr.obj
 0001:00022f38       __unwindfunclet$??1?$map@HVdeviceStatusOnHost@@U?$less@H@std@@V?$allocator@U?$pair@$$CBHVdeviceStatusOnHost@@@std@@@3@@std@@QAE@XZ$3 00423f38 f   databaseMgr.obj
 0001:00022f38       __unwindfunclet$??1?$map@PAUHWND__@@KU?$less@PAUHWND__@@@std@@V?$allocator@U?$pair@QAUHWND__@@K@std@@@3@@std@@QAE@XZ$3 00423f38 f   databaseMgr.obj
 0001:00022f38       __unwindfunclet$??1?$map@KKU?$less@K@std@@V?$allocator@U?$pair@$$CBKK@std@@@2@@std@@QAE@XZ$3 00423f38 f   databaseMgr.obj
 0001:00022f38       __unwindfunclet$??1?$map@HPAVdatabase@@U?$less@H@std@@V?$allocator@U?$pair@$$CBHPAVdatabase@@@std@@@3@@std@@QAE@XZ$3 00423f38 f   databaseMgr.obj
 0001:00022f40       __ehhandler$??1?$map@PAUHWND__@@KU?$less@PAUHWND__@@@std@@V?$allocator@U?$pair@QAUHWND__@@K@std@@@3@@std@@QAE@XZ 00423f40 f   databaseMgr.obj
 0001:00022f40       __ehhandler$??1?$map@HPAVdatabase@@U?$less@H@std@@V?$allocator@U?$pair@$$CBHPAVdatabase@@@std@@@3@@std@@QAE@XZ 00423f40 f   databaseMgr.obj
 0001:00022f40       __ehhandler$??1?$map@HVdeviceStatusOnHost@@U?$less@H@std@@V?$allocator@U?$pair@$$CBHVdeviceStatusOnHost@@@std@@@3@@std@@QAE@XZ 00423f40 f   databaseMgr.obj
 0001:00022f40       __ehhandler$??1?$map@KKU?$less@K@std@@V?$allocator@U?$pair@$$CBKK@std@@@2@@std@@QAE@XZ 00423f40 f   databaseMgr.obj
 0001:00022f60       __ehhandler$?_Buyheadnode@?$_Tree_alloc@$0A@U?$_Tree_base_types@U?$pair@$$CBHPAVdatabase@@@std@@V?$allocator@U?$pair@$$CBHPAVdatabase@@@std@@@2@@std@@@std@@QAEPAU?$_Tree_node@U?$pair@$$CBHPAVdatabase@@@std@@PAX@2@XZ 00423f60 f   databaseMgr.obj
 0001:00022f60       __ehhandler$?_Buyheadnode@?$_Tree_alloc@$0A@U?$_Tree_base_types@U?$pair@QAUHWND__@@K@std@@V?$allocator@U?$pair@QAUHWND__@@K@std@@@2@@std@@@std@@QAEPAU?$_Tree_node@U?$pair@QAUHWND__@@K@std@@PAX@2@XZ 00423f60 f   databaseMgr.obj
 0001:00022f60       __ehhandler$?_Buyheadnode@?$_Tree_alloc@$0A@U?$_Tree_base_types@U?$pair@$$CBKK@std@@V?$allocator@U?$pair@$$CBKK@std@@@2@@std@@@std@@QAEPAU?$_Tree_node@U?$pair@$$CBKK@std@@PAX@2@XZ 00423f60 f   databaseMgr.obj
 0001:00022f80       __unwindfunclet$?doCreate@databaseMgr@@AAEPAVdatabase@@HH@Z$0 00423f80 f   databaseMgr.obj
 0001:00022f8b       __ehhandler$?doCreate@databaseMgr@@AAEPAVdatabase@@HH@Z 00423f8b f   databaseMgr.obj
 0001:00022fb0       __unwindfunclet$??$?HDU?$char_traits@D@std@@V?$allocator@D@1@@std@@YA?AV?$basic_string@DU?$char_traits@D@std@@V?$allocator@D@2@@0@$$QAV10@PBD@Z$0 00423fb0 f   ccCheck.obj
 0001:00022fb0       __unwindfunclet$??$?HDU?$char_traits@D@std@@V?$allocator@D@1@@std@@YA?AV?$basic_string@DU?$char_traits@D@std@@V?$allocator@D@2@@0@$$QAV10@ABV10@@Z$0 00423fb0 f   ccCheck.obj
 0001:00022fb0       __unwindfunclet$?message@_Iostream_error_category@std@@UBE?AV?$basic_string@DU?$char_traits@D@std@@V?$allocator@D@2@@2@H@Z$0 00423fb0 f   ccCheck.obj
 0001:00022fc9       __ehhandler$?message@_Iostream_error_category@std@@UBE?AV?$basic_string@DU?$char_traits@D@std@@V?$allocator@D@2@@2@H@Z 00423fc9 f   ccCheck.obj
 0001:00022fc9       __ehhandler$??$?HDU?$char_traits@D@std@@V?$allocator@D@1@@std@@YA?AV?$basic_string@DU?$char_traits@D@std@@V?$allocator@D@2@@0@$$QAV10@PBD@Z 00423fc9 f   ccCheck.obj
 0001:00022fc9       __ehhandler$??$?HDU?$char_traits@D@std@@V?$allocator@D@1@@std@@YA?AV?$basic_string@DU?$char_traits@D@std@@V?$allocator@D@2@@0@$$QAV10@ABV10@@Z 00423fc9 f   ccCheck.obj
 0001:00022ff0       __unwindfunclet$??$?HDU?$char_traits@D@std@@V?$allocator@D@1@@std@@YA?AV?$basic_string@DU?$char_traits@D@std@@V?$allocator@D@2@@0@ABV10@PBD@Z$0 00423ff0 f   ccCheck.obj
 0001:00023009       __ehhandler$??$?HDU?$char_traits@D@std@@V?$allocator@D@1@@std@@YA?AV?$basic_string@DU?$char_traits@D@std@@V?$allocator@D@2@@0@ABV10@PBD@Z 00424009 f   ccCheck.obj
 0001:00023030       __unwindfunclet$??0ccCheck@@QAE@ABV?$basic_string@DU?$char_traits@D@std@@V?$allocator@D@2@@std@@@Z$0 00424030 f   ccCheck.obj
 0001:00023030       __unwindfunclet$??1ccCheck@@UAE@XZ$0 00424030 f   ccCheck.obj
 0001:00023030       __unwindfunclet$??1?$pair@HV?$basic_string@DU?$char_traits@D@std@@V?$allocator@D@2@@std@@@std@@QAE@XZ$0 00424030 f   ccCheck.obj
 0001:0002303b       __ehhandler$??1ccCheck@@UAE@XZ 0042403b f   ccCheck.obj
 0001:0002303b       __ehhandler$??1?$pair@HV?$basic_string@DU?$char_traits@D@std@@V?$allocator@D@2@@std@@@std@@QAE@XZ 0042403b f   ccCheck.obj
 0001:0002303b       __ehhandler$??0ccCheck@@QAE@ABV?$basic_string@DU?$char_traits@D@std@@V?$allocator@D@2@@std@@@Z 0042403b f   ccCheck.obj
 0001:00023060       __unwindfunclet$?checkDevice@ccCheck@@QAE_NI@Z$0 00424060 f   ccCheck.obj
 0001:00023068       __unwindfunclet$?checkDevice@ccCheck@@QAE_NI@Z$1 00424068 f   ccCheck.obj
 0001:00023070       __ehhandler$?checkDevice@ccCheck@@QAE_NI@Z 00424070 f   ccCheck.obj
 0001:000230a0       __unwindfunclet$?checkWorkstation@ccCheck@@QAE_NI@Z$0 004240a0 f   ccCheck.obj
 0001:000230a8       __unwindfunclet$?checkWorkstation@ccCheck@@QAE_NI@Z$1 004240a8 f   ccCheck.obj
 0001:000230b0       __ehhandler$?checkWorkstation@ccCheck@@QAE_NI@Z 004240b0 f   ccCheck.obj
 0001:000230e0       __unwindfunclet$?log@ccCheck@@QAEXABV?$basic_string@DU?$char_traits@D@std@@V?$allocator@D@2@@std@@@Z$0 004240e0 f   ccCheck.obj
 0001:000230e8       __unwindfunclet$?log@ccCheck@@QAEXABV?$basic_string@DU?$char_traits@D@std@@V?$allocator@D@2@@std@@@Z$1 004240e8 f   ccCheck.obj
 0001:000230f0       __unwindfunclet$?log@ccCheck@@QAEXABV?$basic_string@DU?$char_traits@D@std@@V?$allocator@D@2@@std@@@Z$2 004240f0 f   ccCheck.obj
 0001:000230f8       __ehhandler$?log@ccCheck@@QAEXABV?$basic_string@DU?$char_traits@D@std@@V?$allocator@D@2@@std@@@Z 004240f8 f   ccCheck.obj
 0001:00023120       __ehhandler$??$_Buynode@ABH@?$_Tree_buy@HV?$allocator@H@std@@@std@@QAEPAU?$_Tree_node@HPAX@1@ABH@Z 00424120 f   closedDriversList.obj
 0001:00023140       __ehhandler$??$_Insert_nohint@ABHU_Nil@std@@@?$_Tree@V?$_Tset_traits@HU?$less@H@std@@V?$allocator@H@2@$0A@@std@@@std@@IAE?AU?$pair@V?$_Tree_const_iterator@V?$_Tree_val@U?$_Tree_simple_types@H@std@@@std@@@std@@_N@1@_NABHU_Nil@1@@Z 00424140 f   closedDriversList.obj
 0001:00023160       __unwindfunclet$??__E?m_driverList@closedDriversList@@0V?$set@HU?$less@H@std@@V?$allocator@H@2@@std@@A@@YAXXZ$3 00424160 f   closedDriversList.obj
 0001:0002316a       __unwindfunclet$??__E?m_driverList@closedDriversList@@0V?$set@HU?$less@H@std@@V?$allocator@H@2@@std@@A@@YAXXZ$2 0042416a f   closedDriversList.obj
 0001:00023174       __unwindfunclet$??__E?m_driverList@closedDriversList@@0V?$set@HU?$less@H@std@@V?$allocator@H@2@@std@@A@@YAXXZ$1 00424174 f   closedDriversList.obj
 0001:0002317e       __unwindfunclet$??__E?m_driverList@closedDriversList@@0V?$set@HU?$less@H@std@@V?$allocator@H@2@@std@@A@@YAXXZ$0 0042417e f   closedDriversList.obj
 0001:00023188       __ehhandler$??__E?m_driverList@closedDriversList@@0V?$set@HU?$less@H@std@@V?$allocator@H@2@@std@@A@@YAXXZ 00424188 f   closedDriversList.obj
 0001:000231b0       __unwindfunclet$??__F?m_driverList@closedDriversList@@0V?$set@HU?$less@H@std@@V?$allocator@H@2@@std@@A@@YAXXZ$0 004241b0 f   closedDriversList.obj
 0001:000231ba       __unwindfunclet$??__F?m_driverList@closedDriversList@@0V?$set@HU?$less@H@std@@V?$allocator@H@2@@std@@A@@YAXXZ$1 004241ba f   closedDriversList.obj
 0001:000231c4       __unwindfunclet$??__F?m_driverList@closedDriversList@@0V?$set@HU?$less@H@std@@V?$allocator@H@2@@std@@A@@YAXXZ$2 004241c4 f   closedDriversList.obj
 0001:000231ce       __unwindfunclet$??__F?m_driverList@closedDriversList@@0V?$set@HU?$less@H@std@@V?$allocator@H@2@@std@@A@@YAXXZ$3 004241ce f   closedDriversList.obj
 0001:000231d8       __ehhandler$??__F?m_driverList@closedDriversList@@0V?$set@HU?$less@H@std@@V?$allocator@H@2@@std@@A@@YAXXZ 004241d8 f   closedDriversList.obj
 0001:00023200       __ehhandler$?_Buyheadnode@?$_Tree_alloc@$0A@U?$_Tree_base_types@HV?$allocator@H@std@@@std@@@std@@QAEPAU?$_Tree_node@HPAX@2@XZ 00424200 f   closedDriversList.obj
 0001:00023220       __ehhandler$?_Buynode0@?$_Tree_buy@HV?$allocator@H@std@@@std@@QAEPAU?$_Tree_node@HPAX@2@XZ 00424220 f   closedDriversList.obj
 0001:00023240       __unwindfunclet$?CSCache_Check@@YAHPAD@Z$0 00424240 f   Cscache.obj
 0001:00023248       __unwindfunclet$?CSCache_Check@@YAHPAD@Z$1 00424248 f   Cscache.obj
 0001:00023250       __ehhandler$?CSCache_Check@@YAHPAD@Z 00424250 f   Cscache.obj
 0001:00023280       __unwindfunclet$?CSCache_PostedPoll@@YAXXZ$0 00424280 f   Cscache.obj
 0001:0002328b       __unwindfunclet$?CSCache_PostedPoll@@YAXXZ$1 0042428b f   Cscache.obj
 0001:00023296       __unwindfunclet$?CSCache_PostedPoll@@YAXXZ$2 00424296 f   Cscache.obj
 0001:0002329e       __unwindfunclet$?CSCache_PostedPoll@@YAXXZ$3 0042429e f   Cscache.obj
 0001:000232a6       __ehhandler$?CSCache_PostedPoll@@YAXXZ 004242a6 f   Cscache.obj
 0001:000232d0       __unwindfunclet$?push_back@?$deque@VsizedBuffer@@V?$allocator@VsizedBuffer@@@std@@@std@@QAEX$$QAVsizedBuffer@@@Z$0 004242d0 f   Cscache.obj
 0001:000232e1       __ehhandler$?push_back@?$deque@VsizedBuffer@@V?$allocator@VsizedBuffer@@@std@@@std@@QAEX$$QAVsizedBuffer@@@Z 004242e1 f   Cscache.obj
 0001:00023300       __unwindfunclet$??$?0HVserialError@@X@?$pair@$$CBGVserialError@@@std@@QAE@$$QAU?$pair@HVserialError@@@1@@Z$0 00424300 f   Cscmd.obj
 0001:00023300       __unwindfunclet$??$?0AAHVserialError@@X@?$pair@HVserialError@@@std@@QAE@AAH$$QAVserialError@@@Z$0 00424300 f   Cscmd.obj
 0001:0002330b       __ehhandler$??$?0AAHVserialError@@X@?$pair@HVserialError@@@std@@QAE@AAH$$QAVserialError@@@Z 0042430b f   Cscmd.obj
 0001:0002330b       __ehhandler$??$?0HVserialError@@X@?$pair@$$CBGVserialError@@@std@@QAE@$$QAU?$pair@HVserialError@@@1@@Z 0042430b f   Cscmd.obj
 0001:00023330       __ehhandler$??$_Buynode@U?$pair@HVserialError@@@std@@@?$_Tree_buy@U?$pair@$$CBGVserialError@@@std@@V?$allocator@U?$pair@$$CBGVserialError@@@std@@@2@@std@@QAEPAU?$_Tree_node@U?$pair@$$CBGVserialError@@@std@@PAX@1@$$QAU?$pair@HVserialError@@@1@@Z 00424330 f   Cscmd.obj
 0001:00023350       __unwindfunclet$??$_Insert_at@AAU?$pair@$$CBGVserialError@@@std@@PAU?$_Tree_node@U?$pair@$$CBGVserialError@@@std@@PAX@2@@?$_Tree@V?$_Tmap_traits@GVserialError@@U?$less@G@std@@V?$allocator@U?$pair@$$CBGVserialError@@@std@@@3@$00@std@@@std@@IAE?AV?$_Tree_iterator@V?$_Tree_val@U?$_Tree_simple_types@U?$pair@$$CBGVserialError@@@std@@@std@@@std@@@1@_NPAU?$_Tree_node@U?$pair@$$CBGVserialError@@@std@@PAX@1@AAU?$pair@$$CBGVserialError@@@1@1@Z$0 00424350 f   Cscmd.obj
 0001:0002335b       __ehhandler$??$_Insert_at@AAU?$pair@$$CBGVserialError@@@std@@PAU?$_Tree_node@U?$pair@$$CBGVserialError@@@std@@PAX@2@@?$_Tree@V?$_Tmap_traits@GVserialError@@U?$less@G@std@@V?$allocator@U?$pair@$$CBGVserialError@@@std@@@3@$00@std@@@std@@IAE?AV?$_Tree_iterator@V?$_Tree_val@U?$_Tree_simple_types@U?$pair@$$CBGVserialError@@@std@@@std@@@std@@@1@_NPAU?$_Tree_node@U?$pair@$$CBGVserialError@@@std@@PAX@1@AAU?$pair@$$CBGVserialError@@@1@1@Z 0042435b f   Cscmd.obj
 0001:00023380       __ehhandler$??$_Insert_nohint@AAU?$pair@$$CBGVserialError@@@std@@PAU?$_Tree_node@U?$pair@$$CBGVserialError@@@std@@PAX@2@@?$_Tree@V?$_Tmap_traits@GVserialError@@U?$less@G@std@@V?$allocator@U?$pair@$$CBGVserialError@@@std@@@3@$00@std@@@std@@IAE?AU?$pair@V?$_Tree_iterator@V?$_Tree_val@U?$_Tree_simple_types@U?$pair@$$CBGVserialError@@@std@@@std@@@std@@@std@@_N@1@_NAAU?$pair@$$CBGVserialError@@@1@PAU?$_Tree_node@U?$pair@$$CBGVserialError@@@std@@PAX@1@@Z 00424380 f   Cscmd.obj
 0001:000233a0       __unwindfunclet$??$make_pair@AAHVserialError@@@std@@YA?AU?$pair@HVserialError@@@0@AAH$$QAVserialError@@@Z$0 004243a0 f   Cscmd.obj
 0001:000233b9       __ehhandler$??$make_pair@AAHVserialError@@@std@@YA?AU?$pair@HVserialError@@@0@AAH$$QAVserialError@@@Z 004243b9 f   Cscmd.obj
 0001:000233e0       __unwindfunclet$??1?$list@VdeviceStatusOnHost@@V?$allocator@VdeviceStatusOnHost@@@std@@@std@@QAE@XZ$0 004243e0 f   Cscmd.obj
 0001:000233e8       __unwindfunclet$??1?$list@VdeviceStatusOnHost@@V?$allocator@VdeviceStatusOnHost@@@std@@@std@@QAE@XZ$1 004243e8 f   Cscmd.obj
 0001:000233f0       __ehhandler$??1?$list@VdeviceStatusOnHost@@V?$allocator@VdeviceStatusOnHost@@@std@@@std@@QAE@XZ 004243f0 f   Cscmd.obj
 0001:00023410       __unwindfunclet$??1?$pair@HVserialError@@@std@@QAE@XZ$0 00424410 f   Cscmd.obj
 0001:0002341b       __ehhandler$??1?$pair@HVserialError@@@std@@QAE@XZ 0042441b f   Cscmd.obj
 0001:00023440       __unwindfunclet$?CSCmd_BuildDeviceStatusSlot@@YAXHPAVdeviceStatus@@PAD@Z$2 00424440 f   Cscmd.obj
 0001:00023448       __unwindfunclet$?CSCmd_BuildDeviceStatusSlot@@YAXHPAVdeviceStatus@@PAD@Z$1 00424448 f   Cscmd.obj
 0001:00023450       __unwindfunclet$?CSCmd_BuildDeviceStatusSlot@@YAXHPAVdeviceStatus@@PAD@Z$0 00424450 f   Cscmd.obj
 0001:00023458       __unwindfunclet$?CSCmd_BuildDeviceStatusSlot@@YAXHPAVdeviceStatus@@PAD@Z$3 00424458 f   Cscmd.obj
 0001:00023460       __unwindfunclet$?CSCmd_BuildDeviceStatusSlot@@YAXHPAVdeviceStatus@@PAD@Z$4 00424460 f   Cscmd.obj
 0001:00023468       __ehhandler$?CSCmd_BuildDeviceStatusSlot@@YAXHPAVdeviceStatus@@PAD@Z 00424468 f   Cscmd.obj
 0001:00023490       __unwindfunclet$?CSCmd_CheckSerialNumber@@YAXHK_N@Z$1 00424490 f   Cscmd.obj
 0001:0002349e       __unwindfunclet$?CSCmd_CheckSerialNumber@@YAXHK_N@Z$2 0042449e f   Cscmd.obj
 0001:000234a9       __unwindfunclet$?CSCmd_CheckSerialNumber@@YAXHK_N@Z$3 004244a9 f   Cscmd.obj
 0001:000234b4       __unwindfunclet$?CSCmd_CheckSerialNumber@@YAXHK_N@Z$4 004244b4 f   Cscmd.obj
 0001:000234bf       __ehhandler$?CSCmd_CheckSerialNumber@@YAXHK_N@Z 004244bf f   Cscmd.obj
 0001:000234f0       __unwindfunclet$?CSCmd_Heartbeat@@YAXPBDH_N@Z$0 004244f0 f   Cscmd.obj
 0001:000234fb       __unwindfunclet$?CSCmd_Heartbeat@@YAXPBDH_N@Z$1 004244fb f   Cscmd.obj
 0001:00023506       __ehhandler$?CSCmd_Heartbeat@@YAXPBDH_N@Z 00424506 f   Cscmd.obj
 0001:00023530       __unwindfunclet$?CSCmd_PostedPollParams@@YAXHHHH@Z$0 00424530 f   Cscmd.obj
 0001:00023538       __ehhandler$?CSCmd_PostedPollParams@@YAXHHHH@Z 00424538 f   Cscmd.obj
 0001:00023560       __ehhandler$?_Buynode0@?$_List_alloc@$0A@U?$_List_base_types@VdeviceStatusOnHost@@V?$allocator@VdeviceStatusOnHost@@@std@@@std@@@std@@QAEPAU?$_List_node@VdeviceStatusOnHost@@PAX@2@PAU32@0@Z 00424560 f   Cscmd.obj
 0001:00023580       __unwindfunclet$?_Destroy_if_not_nil@?$_Tree@V?$_Tmap_traits@GVserialError@@U?$less@G@std@@V?$allocator@U?$pair@$$CBGVserialError@@@std@@@3@$00@std@@@std@@IAEXPAU?$_Tree_node@U?$pair@$$CBGVserialError@@@std@@PAX@2@@Z$0 00424580 f   Cscmd.obj
 0001:0002358b       __ehhandler$?_Destroy_if_not_nil@?$_Tree@V?$_Tmap_traits@GVserialError@@U?$less@G@std@@V?$allocator@U?$pair@$$CBGVserialError@@@std@@@3@$00@std@@@std@@IAEXPAU?$_Tree_node@U?$pair@$$CBGVserialError@@@std@@PAX@2@@Z 0042458b f   Cscmd.obj
 0001:000235b0       __ehhandler$??$_Buynode@ABQAUHWND__@@@?$_List_buy@PAUHWND__@@V?$allocator@PAUHWND__@@@std@@@std@@QAEPAU?$_List_node@PAUHWND__@@PAX@1@PAU21@0ABQAUHWND__@@@Z 004245b0 f   Csimain.obj
 0001:000235b0       __ehhandler$??$_Buynode@PAUHWND__@@@?$_List_buy@PAUHWND__@@V?$allocator@PAUHWND__@@@std@@@std@@QAEPAU?$_List_node@PAUHWND__@@PAX@1@PAU21@0$$QAPAUHWND__@@@Z 004245b0 f   Csimain.obj
 0001:000235d0       __unwindfunclet$??0?$_Deque_alloc@$0A@U?$_Deque_base_types@VsizedBuffer@@V?$allocator@VsizedBuffer@@@std@@@std@@@std@@QAE@ABV?$allocator@VsizedBuffer@@@1@@Z$1 004245d0 f   Csimain.obj
 0001:000235d9       __unwindfunclet$??0?$_Deque_alloc@$0A@U?$_Deque_base_types@VsizedBuffer@@V?$allocator@VsizedBuffer@@@std@@@std@@@std@@QAE@ABV?$allocator@VsizedBuffer@@@1@@Z$0 004245d9 f   Csimain.obj
 0001:000235e1       __unwindfunclet$??0?$_Deque_alloc@$0A@U?$_Deque_base_types@VsizedBuffer@@V?$allocator@VsizedBuffer@@@std@@@std@@@std@@QAE@ABV?$allocator@VsizedBuffer@@@1@@Z$2 004245e1 f   Csimain.obj
 0001:000235f2       __ehhandler$??0?$_Deque_alloc@$0A@U?$_Deque_base_types@VsizedBuffer@@V?$allocator@VsizedBuffer@@@std@@@std@@@std@@QAE@ABV?$allocator@VsizedBuffer@@@1@@Z 004245f2 f   Csimain.obj
 0001:00023610       __unwindfunclet$??1?$_Deque_alloc@$0A@U?$_Deque_base_types@VsizedBuffer@@V?$allocator@VsizedBuffer@@@std@@@std@@@std@@QAE@XZ$0 00424610 f   Csimain.obj
 0001:00023618       __unwindfunclet$??1?$_Deque_alloc@$0A@U?$_Deque_base_types@VsizedBuffer@@V?$allocator@VsizedBuffer@@@std@@@std@@@std@@QAE@XZ$1 00424618 f   Csimain.obj
 0001:00023621       __ehhandler$??1?$_Deque_alloc@$0A@U?$_Deque_base_types@VsizedBuffer@@V?$allocator@VsizedBuffer@@@std@@@std@@@std@@QAE@XZ 00424621 f   Csimain.obj
 0001:00023640       __unwindfunclet$??1?$_Deque_val@U?$_Deque_simple_types@VsizedBuffer@@@std@@@std@@QAE@XZ$0 00424640 f   Csimain.obj
 0001:00023649       __ehhandler$??1?$_Deque_val@U?$_Deque_simple_types@VsizedBuffer@@@std@@@std@@QAE@XZ 00424649 f   Csimain.obj
 0001:00023670       __unwindfunclet$??1?$_Tree_comp@$0A@V?$_Tmap_traits@KVsizedBuffer@@U?$less@K@std@@V?$allocator@U?$pair@$$CBKVsizedBuffer@@@std@@@3@$0A@@std@@@std@@QAE@XZ$0 00424670 f   Csimain.obj
 0001:00023670       __unwindfunclet$??1?$_Tree_comp@$0A@V?$_Tmap_traits@HVdeviceStatusOnHost@@U?$less@H@std@@V?$allocator@U?$pair@$$CBHVdeviceStatusOnHost@@@std@@@3@$0A@@std@@@std@@QAE@XZ$0 00424670 f   Csimain.obj
 0001:00023670       __unwindfunclet$??1?$_Tree_comp@$0A@V?$_Tmap_traits@PAUHWND__@@KU?$less@PAUHWND__@@@std@@V?$allocator@U?$pair@QAUHWND__@@K@std@@@3@$0A@@std@@@std@@QAE@XZ$0 00424670 f   Csimain.obj
 0001:00023670       __unwindfunclet$??1?$_Tree_comp@$0A@V?$_Tmap_traits@KKU?$less@K@std@@V?$allocator@U?$pair@$$CBKK@std@@@2@$0A@@std@@@std@@QAE@XZ$0 00424670 f   Csimain.obj
 0001:00023670       __unwindfunclet$??1?$_Tree_comp@$0A@V?$_Tmap_traits@HV?$basic_string@DU?$char_traits@D@std@@V?$allocator@D@2@@std@@U?$less@H@2@V?$allocator@U?$pair@$$CBHV?$basic_string@DU?$char_traits@D@std@@V?$allocator@D@2@@std@@@std@@@2@$0A@@std@@@std@@QAE@XZ$0 00424670 f   Csimain.obj
 0001:00023670       __unwindfunclet$??1?$_Tree_comp@$0A@V?$_Tmap_traits@HPAVdatabase@@U?$less@H@std@@V?$allocator@U?$pair@$$CBHPAVdatabase@@@std@@@3@$0A@@std@@@std@@QAE@XZ$0 00424670 f   Csimain.obj
 0001:00023670       __unwindfunclet$??1?$_Tree_comp@$0A@V?$_Tset_traits@HU?$less@H@std@@V?$allocator@H@2@$0A@@std@@@std@@QAE@XZ$0 00424670 f   Csimain.obj
 0001:00023670       __unwindfunclet$??1?$_Tree_comp@$0A@V?$_Tmap_traits@GVserialError@@U?$less@G@std@@V?$allocator@U?$pair@$$CBGVserialError@@@std@@@3@$00@std@@@std@@QAE@XZ$0 00424670 f   Csimain.obj
 0001:00023678       __unwindfunclet$??1?$_Tree_comp@$0A@V?$_Tset_traits@HU?$less@H@std@@V?$allocator@H@2@$0A@@std@@@std@@QAE@XZ$1 00424678 f   Csimain.obj
 0001:00023678       __unwindfunclet$??1?$_Tree_comp@$0A@V?$_Tmap_traits@HPAVdatabase@@U?$less@H@std@@V?$allocator@U?$pair@$$CBHPAVdatabase@@@std@@@3@$0A@@std@@@std@@QAE@XZ$1 00424678 f   Csimain.obj
 0001:00023678       __unwindfunclet$??1?$_Tree_comp@$0A@V?$_Tmap_traits@HV?$basic_string@DU?$char_traits@D@std@@V?$allocator@D@2@@std@@U?$less@H@2@V?$allocator@U?$pair@$$CBHV?$basic_string@DU?$char_traits@D@std@@V?$allocator@D@2@@std@@@std@@@2@$0A@@std@@@std@@QAE@XZ$1 00424678 f   Csimain.obj
 0001:00023678       __unwindfunclet$??1?$_Tree_comp@$0A@V?$_Tmap_traits@HVdeviceStatusOnHost@@U?$less@H@std@@V?$allocator@U?$pair@$$CBHVdeviceStatusOnHost@@@std@@@3@$0A@@std@@@std@@QAE@XZ$1 00424678 f   Csimain.obj
 0001:00023678       __unwindfunclet$??1?$_Tree_comp@$0A@V?$_Tmap_traits@KVsizedBuffer@@U?$less@K@std@@V?$allocator@U?$pair@$$CBKVsizedBuffer@@@std@@@3@$0A@@std@@@std@@QAE@XZ$1 00424678 f   Csimain.obj
 0001:00023678       __unwindfunclet$??1?$_Tree_comp@$0A@V?$_Tmap_traits@KKU?$less@K@std@@V?$allocator@U?$pair@$$CBKK@std@@@2@$0A@@std@@@std@@QAE@XZ$1 00424678 f   Csimain.obj
 0001:00023678       __unwindfunclet$??1?$_Tree_comp@$0A@V?$_Tmap_traits@PAUHWND__@@KU?$less@PAUHWND__@@@std@@V?$allocator@U?$pair@QAUHWND__@@K@std@@@3@$0A@@std@@@std@@QAE@XZ$1 00424678 f   Csimain.obj
 0001:00023678       __unwindfunclet$??1?$_Tree_comp@$0A@V?$_Tmap_traits@GVserialError@@U?$less@G@std@@V?$allocator@U?$pair@$$CBGVserialError@@@std@@@3@$00@std@@@std@@QAE@XZ$1 00424678 f   Csimain.obj
 0001:00023680       __ehhandler$??1?$_Tree_comp@$0A@V?$_Tmap_traits@KVsizedBuffer@@U?$less@K@std@@V?$allocator@U?$pair@$$CBKVsizedBuffer@@@std@@@3@$0A@@std@@@std@@QAE@XZ 00424680 f   Csimain.obj
 0001:00023680       __ehhandler$??1?$_Tree_comp@$0A@V?$_Tmap_traits@HV?$basic_string@DU?$char_traits@D@std@@V?$allocator@D@2@@std@@U?$less@H@2@V?$allocator@U?$pair@$$CBHV?$basic_string@DU?$char_traits@D@std@@V?$allocator@D@2@@std@@@std@@@2@$0A@@std@@@std@@QAE@XZ 00424680 f   Csimain.obj
 0001:00023680       __ehhandler$??1?$_Tree_comp@$0A@V?$_Tmap_traits@HPAVdatabase@@U?$less@H@std@@V?$allocator@U?$pair@$$CBHPAVdatabase@@@std@@@3@$0A@@std@@@std@@QAE@XZ 00424680 f   Csimain.obj
 0001:00023680       __ehhandler$??1?$_Tree_comp@$0A@V?$_Tmap_traits@KKU?$less@K@std@@V?$allocator@U?$pair@$$CBKK@std@@@2@$0A@@std@@@std@@QAE@XZ 00424680 f   Csimain.obj
 0001:00023680       __ehhandler$??1?$_Tree_comp@$0A@V?$_Tmap_traits@HVdeviceStatusOnHost@@U?$less@H@std@@V?$allocator@U?$pair@$$CBHVdeviceStatusOnHost@@@std@@@3@$0A@@std@@@std@@QAE@XZ 00424680 f   Csimain.obj
 0001:00023680       __ehhandler$??1?$_Tree_comp@$0A@V?$_Tmap_traits@PAUHWND__@@KU?$less@PAUHWND__@@@std@@V?$allocator@U?$pair@QAUHWND__@@K@std@@@3@$0A@@std@@@std@@QAE@XZ 00424680 f   Csimain.obj
 0001:00023680       __ehhandler$??1?$_Tree_comp@$0A@V?$_Tmap_traits@GVserialError@@U?$less@G@std@@V?$allocator@U?$pair@$$CBGVserialError@@@std@@@3@$00@std@@@std@@QAE@XZ 00424680 f   Csimain.obj
 0001:00023680       __ehhandler$??1?$_Tree_comp@$0A@V?$_Tset_traits@HU?$less@H@std@@V?$allocator@H@2@$0A@@std@@@std@@QAE@XZ 00424680 f   Csimain.obj
 0001:000236a0       __unwindfunclet$??1?$deque@VsizedBuffer@@V?$allocator@VsizedBuffer@@@std@@@std@@QAE@XZ$0 004246a0 f   Csimain.obj
 0001:000236a8       __unwindfunclet$??1?$deque@VsizedBuffer@@V?$allocator@VsizedBuffer@@@std@@@std@@QAE@XZ$1 004246a8 f   Csimain.obj
 0001:000236b0       __unwindfunclet$??1?$deque@VsizedBuffer@@V?$allocator@VsizedBuffer@@@std@@@std@@QAE@XZ$2 004246b0 f   Csimain.obj
 0001:000236b9       __ehhandler$??1?$deque@VsizedBuffer@@V?$allocator@VsizedBuffer@@@std@@@std@@QAE@XZ 004246b9 f   Csimain.obj
 0001:000236e0       __unwindfunclet$??1?$pair@KVsizedBuffer@@@std@@QAE@XZ$0 004246e0 f   Csimain.obj
 0001:000236e0       __unwindfunclet$??1?$pair@$$CBKVsizedBuffer@@@std@@QAE@XZ$0 004246e0 f   Csimain.obj
 0001:000236eb       __ehhandler$??1?$pair@$$CBKVsizedBuffer@@@std@@QAE@XZ 004246eb f   Csimain.obj
 0001:000236eb       __ehhandler$??1?$pair@KVsizedBuffer@@@std@@QAE@XZ 004246eb f   Csimain.obj
 0001:00023710       __unwindfunclet$??__EconfigChangeClientList@@YAXXZ$1 00424710 f   Csimain.obj
 0001:0002371a       __unwindfunclet$??__EconfigChangeClientList@@YAXXZ$0 0042471a f   Csimain.obj
 0001:00023724       __ehhandler$??__EconfigChangeClientList@@YAXXZ 00424724 f   Csimain.obj
 0001:00023740       __unwindfunclet$??__EdeviceStatusRepollList@@YAXXZ$3 00424740 f   Csimain.obj
 0001:0002374a       __unwindfunclet$??__EdeviceStatusRepollList@@YAXXZ$2 0042474a f   Csimain.obj
 0001:00023754       __unwindfunclet$??__EdeviceStatusRepollList@@YAXXZ$1 00424754 f   Csimain.obj
 0001:0002375e       __unwindfunclet$??__EdeviceStatusRepollList@@YAXXZ$0 0042475e f   Csimain.obj
 0001:00023768       __ehhandler$??__EdeviceStatusRepollList@@YAXXZ 00424768 f   Csimain.obj
 0001:00023790       __unwindfunclet$??__EnetMsgUpdateClientList@@YAXXZ$1 00424790 f   Csimain.obj
 0001:0002379a       __unwindfunclet$??__EnetMsgUpdateClientList@@YAXXZ$0 0042479a f   Csimain.obj
 0001:000237a4       __ehhandler$??__EnetMsgUpdateClientList@@YAXXZ 004247a4 f   Csimain.obj
 0001:000237c0       __unwindfunclet$??__EnetTxRxStatusClientList@@YAXXZ$1 004247c0 f   Csimain.obj
 0001:000237ca       __unwindfunclet$??__EnetTxRxStatusClientList@@YAXXZ$0 004247ca f   Csimain.obj
 0001:000237d4       __ehhandler$??__EnetTxRxStatusClientList@@YAXXZ 004247d4 f   Csimain.obj
 0001:000237f0       __unwindfunclet$??__EoutgoingRecoveryPackets@@YAXXZ$3 004247f0 f   Csimain.obj
 0001:000237fa       __unwindfunclet$??__EoutgoingRecoveryPackets@@YAXXZ$2 004247fa f   Csimain.obj
 0001:00023804       __unwindfunclet$??__EoutgoingRecoveryPackets@@YAXXZ$1 00424804 f   Csimain.obj
 0001:0002380e       __unwindfunclet$??__EoutgoingRecoveryPackets@@YAXXZ$0 0042480e f   Csimain.obj
 0001:00023818       __ehhandler$??__EoutgoingRecoveryPackets@@YAXXZ 00424818 f   Csimain.obj
 0001:00023840       __unwindfunclet$??__EpollQueue@@YAXXZ$1 00424840 f   Csimain.obj
 0001:00023848       __unwindfunclet$??__EpollQueue@@YAXXZ$0 00424848 f   Csimain.obj
 0001:00023852       __ehhandler$??__EpollQueue@@YAXXZ 00424852 f   Csimain.obj
 0001:00023870       __unwindfunclet$??__ErecoveredPacketQueue@@YAXXZ$3 00424870 f   Csimain.obj
 0001:0002387a       __unwindfunclet$??__ErecoveredPacketQueue@@YAXXZ$2 0042487a f   Csimain.obj
 0001:00023884       __unwindfunclet$??__ErecoveredPacketQueue@@YAXXZ$1 00424884 f   Csimain.obj
 0001:0002388e       __unwindfunclet$??__ErecoveredPacketQueue@@YAXXZ$0 0042488e f   Csimain.obj
 0001:00023898       __ehhandler$??__ErecoveredPacketQueue@@YAXXZ 00424898 f   Csimain.obj
 0001:000238c0       __unwindfunclet$??__ErecoveryRequestRejectionList@@YAXXZ$1 004248c0 f   Csimain.obj
 0001:000238ca       __unwindfunclet$??__ErecoveryRequestRejectionList@@YAXXZ$0 004248ca f   Csimain.obj
 0001:000238d4       __ehhandler$??__ErecoveryRequestRejectionList@@YAXXZ 004248d4 f   Csimain.obj
 0001:000238f0       __unwindfunclet$??__ErevSerialErrorRequestStack@@YAXXZ$3 004248f0 f   Csimain.obj
 0001:000238fa       __unwindfunclet$??__ErevSerialErrorRequestStack@@YAXXZ$2 004248fa f   Csimain.obj
 0001:00023904       __unwindfunclet$??__ErevSerialErrorRequestStack@@YAXXZ$1 00424904 f   Csimain.obj
 0001:0002390e       __unwindfunclet$??__ErevSerialErrorRequestStack@@YAXXZ$0 0042490e f   Csimain.obj
 0001:00023918       __ehhandler$??__ErevSerialErrorRequestStack@@YAXXZ 00424918 f   Csimain.obj
 0001:00023940       __unwindfunclet$??__ErevertivePacketList@@YAXXZ$3 00424940 f   Csimain.obj
 0001:0002394a       __unwindfunclet$??__ErevertivePacketList@@YAXXZ$2 0042494a f   Csimain.obj
 0001:00023954       __unwindfunclet$??__ErevertivePacketList@@YAXXZ$1 00424954 f   Csimain.obj
 0001:0002395e       __unwindfunclet$??__ErevertivePacketList@@YAXXZ$0 0042495e f   Csimain.obj
 0001:00023968       __ehhandler$??__ErevertivePacketList@@YAXXZ 00424968 f   Csimain.obj
 0001:00023990       __unwindfunclet$??__EserialErrorClientList@@YAXXZ$1 00424990 f   Csimain.obj
 0001:0002399a       __unwindfunclet$??__EserialErrorClientList@@YAXXZ$0 0042499a f   Csimain.obj
 0001:000239a4       __ehhandler$??__EserialErrorClientList@@YAXXZ 004249a4 f   Csimain.obj
 0001:000239c0       __unwindfunclet$??__EworkstationStatusRepollList@@YAXXZ$3 004249c0 f   Csimain.obj
 0001:000239ca       __unwindfunclet$??__EworkstationStatusRepollList@@YAXXZ$2 004249ca f   Csimain.obj
 0001:000239d4       __unwindfunclet$??__EworkstationStatusRepollList@@YAXXZ$1 004249d4 f   Csimain.obj
 0001:000239de       __unwindfunclet$??__EworkstationStatusRepollList@@YAXXZ$0 004249de f   Csimain.obj
 0001:000239e8       __ehhandler$??__EworkstationStatusRepollList@@YAXXZ 004249e8 f   Csimain.obj
 0001:00023a10       __unwindfunclet$??__FconfigChangeClientList@@YAXXZ$0 00424a10 f   Csimain.obj
 0001:00023a1a       __unwindfunclet$??__FconfigChangeClientList@@YAXXZ$1 00424a1a f   Csimain.obj
 0001:00023a24       __ehhandler$??__FconfigChangeClientList@@YAXXZ 00424a24 f   Csimain.obj
 0001:00023a40       __unwindfunclet$??__FdeviceStatusRepollList@@YAXXZ$0 00424a40 f   Csimain.obj
 0001:00023a4a       __unwindfunclet$??__FdeviceStatusRepollList@@YAXXZ$1 00424a4a f   Csimain.obj
 0001:00023a54       __unwindfunclet$??__FdeviceStatusRepollList@@YAXXZ$2 00424a54 f   Csimain.obj
 0001:00023a5e       __unwindfunclet$??__FdeviceStatusRepollList@@YAXXZ$3 00424a5e f   Csimain.obj
 0001:00023a68       __ehhandler$??__FdeviceStatusRepollList@@YAXXZ 00424a68 f   Csimain.obj
 0001:00023a90       __unwindfunclet$??__FnetMsgUpdateClientList@@YAXXZ$0 00424a90 f   Csimain.obj
 0001:00023a9a       __unwindfunclet$??__FnetMsgUpdateClientList@@YAXXZ$1 00424a9a f   Csimain.obj
 0001:00023aa4       __ehhandler$??__FnetMsgUpdateClientList@@YAXXZ 00424aa4 f   Csimain.obj
 0001:00023ac0       __unwindfunclet$??__FnetTxRxStatusClientList@@YAXXZ$0 00424ac0 f   Csimain.obj
 0001:00023aca       __unwindfunclet$??__FnetTxRxStatusClientList@@YAXXZ$1 00424aca f   Csimain.obj
 0001:00023ad4       __ehhandler$??__FnetTxRxStatusClientList@@YAXXZ 00424ad4 f   Csimain.obj
 0001:00023af0       __unwindfunclet$??__FoutgoingRecoveryPackets@@YAXXZ$0 00424af0 f   Csimain.obj
 0001:00023afa       __unwindfunclet$??__FoutgoingRecoveryPackets@@YAXXZ$1 00424afa f   Csimain.obj
 0001:00023b04       __unwindfunclet$??__FoutgoingRecoveryPackets@@YAXXZ$2 00424b04 f   Csimain.obj
 0001:00023b0e       __unwindfunclet$??__FoutgoingRecoveryPackets@@YAXXZ$3 00424b0e f   Csimain.obj
 0001:00023b18       __ehhandler$??__FoutgoingRecoveryPackets@@YAXXZ 00424b18 f   Csimain.obj
 0001:00023b40       __unwindfunclet$??__FpollQueue@@YAXXZ$0 00424b40 f   Csimain.obj
 0001:00023b4a       __unwindfunclet$??__FpollQueue@@YAXXZ$1 00424b4a f   Csimain.obj
 0001:00023b52       __unwindfunclet$??__FpollQueue@@YAXXZ$2 00424b52 f   Csimain.obj
 0001:00023b5a       __unwindfunclet$??__FpollQueue@@YAXXZ$3 00424b5a f   Csimain.obj
 0001:00023b63       __ehhandler$??__FpollQueue@@YAXXZ 00424b63 f   Csimain.obj
 0001:00023b80       __unwindfunclet$??__FrecoveredPacketQueue@@YAXXZ$0 00424b80 f   Csimain.obj
 0001:00023b8a       __unwindfunclet$??__FrecoveredPacketQueue@@YAXXZ$1 00424b8a f   Csimain.obj
 0001:00023b94       __unwindfunclet$??__FrecoveredPacketQueue@@YAXXZ$2 00424b94 f   Csimain.obj
 0001:00023b9e       __unwindfunclet$??__FrecoveredPacketQueue@@YAXXZ$3 00424b9e f   Csimain.obj
 0001:00023ba8       __ehhandler$??__FrecoveredPacketQueue@@YAXXZ 00424ba8 f   Csimain.obj
 0001:00023bd0       __unwindfunclet$??__FrecoveryRequestRejectionList@@YAXXZ$0 00424bd0 f   Csimain.obj
 0001:00023bda       __unwindfunclet$??__FrecoveryRequestRejectionList@@YAXXZ$1 00424bda f   Csimain.obj
 0001:00023be4       __ehhandler$??__FrecoveryRequestRejectionList@@YAXXZ 00424be4 f   Csimain.obj
 0001:00023c00       __unwindfunclet$??__FrevSerialErrorRequestStack@@YAXXZ$0 00424c00 f   Csimain.obj
 0001:00023c0a       __unwindfunclet$??__FrevSerialErrorRequestStack@@YAXXZ$1 00424c0a f   Csimain.obj
 0001:00023c14       __unwindfunclet$??__FrevSerialErrorRequestStack@@YAXXZ$2 00424c14 f   Csimain.obj
 0001:00023c1e       __unwindfunclet$??__FrevSerialErrorRequestStack@@YAXXZ$3 00424c1e f   Csimain.obj
 0001:00023c28       __ehhandler$??__FrevSerialErrorRequestStack@@YAXXZ 00424c28 f   Csimain.obj
 0001:00023c50       __unwindfunclet$??__FrevertivePacketList@@YAXXZ$0 00424c50 f   Csimain.obj
 0001:00023c5a       __unwindfunclet$??__FrevertivePacketList@@YAXXZ$1 00424c5a f   Csimain.obj
 0001:00023c64       __unwindfunclet$??__FrevertivePacketList@@YAXXZ$2 00424c64 f   Csimain.obj
 0001:00023c6e       __unwindfunclet$??__FrevertivePacketList@@YAXXZ$3 00424c6e f   Csimain.obj
 0001:00023c78       __ehhandler$??__FrevertivePacketList@@YAXXZ 00424c78 f   Csimain.obj
 0001:00023ca0       __unwindfunclet$??__FserialErrorClientList@@YAXXZ$0 00424ca0 f   Csimain.obj
 0001:00023caa       __unwindfunclet$??__FserialErrorClientList@@YAXXZ$1 00424caa f   Csimain.obj
 0001:00023cb4       __ehhandler$??__FserialErrorClientList@@YAXXZ 00424cb4 f   Csimain.obj
 0001:00023cd0       __unwindfunclet$??__FworkstationStatusRepollList@@YAXXZ$0 00424cd0 f   Csimain.obj
 0001:00023cda       __unwindfunclet$??__FworkstationStatusRepollList@@YAXXZ$1 00424cda f   Csimain.obj
 0001:00023ce4       __unwindfunclet$??__FworkstationStatusRepollList@@YAXXZ$2 00424ce4 f   Csimain.obj
 0001:00023cee       __unwindfunclet$??__FworkstationStatusRepollList@@YAXXZ$3 00424cee f   Csimain.obj
 0001:00023cf8       __ehhandler$??__FworkstationStatusRepollList@@YAXXZ 00424cf8 f   Csimain.obj
 0001:00023d20       __unwindfunclet$?CSMain_Init@@YAXXZ$0 00424d20 f   Csimain.obj
 0001:00023d2e       __unwindfunclet$?CSMain_Init@@YAXXZ$1 00424d2e f   Csimain.obj
 0001:00023d3c       __ehhandler$?CSMain_Init@@YAXXZ 00424d3c f   Csimain.obj
 0001:00023d70       __unwindfunclet$?CSMain_InitGlobals@@YAXXZ$0 00424d70 f   Csimain.obj
 0001:00023d7b       __ehhandler$?CSMain_InitGlobals@@YAXXZ 00424d7b f   Csimain.obj
 0001:00023db0       __unwindfunclet$?CSMain_LogStats@@YAXXZ$0 00424db0 f   Csimain.obj
 0001:00023dbb       __ehhandler$?CSMain_LogStats@@YAXXZ 00424dbb f   Csimain.obj
 0001:00023df0       __unwindfunclet$?MainWndProc@@YGJPAUHWND__@@IIJ@Z$0 00424df0 f   Csimain.obj
 0001:00023dfb       __ehhandler$?MainWndProc@@YGJPAUHWND__@@IIJ@Z 00424dfb f   Csimain.obj
 0001:00023e30       __ehhandler$?_Buyheadnode@?$_Tree_alloc@$0A@U?$_Tree_base_types@U?$pair@$$CBKVsizedBuffer@@@std@@V?$allocator@U?$pair@$$CBKVsizedBuffer@@@std@@@2@@std@@@std@@QAEPAU?$_Tree_node@U?$pair@$$CBKVsizedBuffer@@@std@@PAX@2@XZ 00424e30 f   Csimain.obj
 0001:00023e50       __ehhandler$?_Buynode0@?$_List_alloc@$0A@U?$_List_base_types@PAUHWND__@@V?$allocator@PAUHWND__@@@std@@@std@@@std@@QAEPAU?$_List_node@PAUHWND__@@PAX@2@PAU32@0@Z 00424e50 f   Csimain.obj
 0001:00023e70       __ehhandler$?_Buynode0@?$_List_alloc@$0A@U?$_List_base_types@VserialError@@V?$allocator@VserialError@@@std@@@std@@@std@@QAEPAU?$_List_node@VserialError@@PAX@2@PAU32@0@Z 00424e70 f   Csimain.obj
 0001:00023e90       __unwindfunclet$?_Erase@?$_Tree@V?$_Tmap_traits@GVserialError@@U?$less@G@std@@V?$allocator@U?$pair@$$CBGVserialError@@@std@@@3@$00@std@@@std@@IAEXPAU?$_Tree_node@U?$pair@$$CBGVserialError@@@std@@PAX@2@@Z$0 00424e90 f   Csimain.obj
 0001:00023e9b       __ehhandler$?_Erase@?$_Tree@V?$_Tmap_traits@GVserialError@@U?$less@G@std@@V?$allocator@U?$pair@$$CBGVserialError@@@std@@@3@$00@std@@@std@@IAEXPAU?$_Tree_node@U?$pair@$$CBGVserialError@@@std@@PAX@2@@Z 00424e9b f   Csimain.obj
 0001:00023ec0       __unwindfunclet$?_Erase@?$_Tree@V?$_Tmap_traits@KVsizedBuffer@@U?$less@K@std@@V?$allocator@U?$pair@$$CBKVsizedBuffer@@@std@@@3@$0A@@std@@@std@@IAEXPAU?$_Tree_node@U?$pair@$$CBKVsizedBuffer@@@std@@PAX@2@@Z$0 00424ec0 f   Csimain.obj
 0001:00023ecb       __ehhandler$?_Erase@?$_Tree@V?$_Tmap_traits@KVsizedBuffer@@U?$less@K@std@@V?$allocator@U?$pair@$$CBKVsizedBuffer@@@std@@@3@$0A@@std@@@std@@IAEXPAU?$_Tree_node@U?$pair@$$CBKVsizedBuffer@@@std@@PAX@2@@Z 00424ecb f   Csimain.obj
 0001:00023ef0       __unwindfunclet$?erase@?$_Tree@V?$_Tmap_traits@GVserialError@@U?$less@G@std@@V?$allocator@U?$pair@$$CBGVserialError@@@std@@@3@$00@std@@@std@@QAE?AV?$_Tree_iterator@V?$_Tree_val@U?$_Tree_simple_types@U?$pair@$$CBGVserialError@@@std@@@std@@@std@@@2@V?$_Tree_const_iterator@V?$_Tree_val@U?$_Tree_simple_types@U?$pair@$$CBGVserialError@@@std@@@std@@@std@@@2@@Z$0 00424ef0 f   Csimain.obj
 0001:00023efb       __ehhandler$?erase@?$_Tree@V?$_Tmap_traits@GVserialError@@U?$less@G@std@@V?$allocator@U?$pair@$$CBGVserialError@@@std@@@3@$00@std@@@std@@QAE?AV?$_Tree_iterator@V?$_Tree_val@U?$_Tree_simple_types@U?$pair@$$CBGVserialError@@@std@@@std@@@std@@@2@V?$_Tree_const_iterator@V?$_Tree_val@U?$_Tree_simple_types@U?$pair@$$CBGVserialError@@@std@@@std@@@std@@@2@@Z 00424efb f   Csimain.obj
 0001:00023f20       __unwindfunclet$?erase@?$_Tree@V?$_Tmap_traits@KVsizedBuffer@@U?$less@K@std@@V?$allocator@U?$pair@$$CBKVsizedBuffer@@@std@@@3@$0A@@std@@@std@@QAE?AV?$_Tree_iterator@V?$_Tree_val@U?$_Tree_simple_types@U?$pair@$$CBKVsizedBuffer@@@std@@@std@@@std@@@2@V?$_Tree_const_iterator@V?$_Tree_val@U?$_Tree_simple_types@U?$pair@$$CBKVsizedBuffer@@@std@@@std@@@std@@@2@@Z$0 00424f20 f   Csimain.obj
 0001:00023f2b       __ehhandler$?erase@?$_Tree@V?$_Tmap_traits@KVsizedBuffer@@U?$less@K@std@@V?$allocator@U?$pair@$$CBKVsizedBuffer@@@std@@@3@$0A@@std@@@std@@QAE?AV?$_Tree_iterator@V?$_Tree_val@U?$_Tree_simple_types@U?$pair@$$CBKVsizedBuffer@@@std@@@std@@@std@@@2@V?$_Tree_const_iterator@V?$_Tree_val@U?$_Tree_simple_types@U?$pair@$$CBKVsizedBuffer@@@std@@@std@@@std@@@2@@Z 00424f2b f   Csimain.obj
 0001:00023f50       __ehhandler$??$_Buynode@U?$pair@KVsizedBuffer@@@std@@@?$_Tree_buy@U?$pair@$$CBKVsizedBuffer@@@std@@V?$allocator@U?$pair@$$CBKVsizedBuffer@@@std@@@2@@std@@QAEPAU?$_Tree_node@U?$pair@$$CBKVsizedBuffer@@@std@@PAX@1@$$QAU?$pair@KVsizedBuffer@@@1@@Z 00424f50 f   Csndi.obj
 0001:00023f70       __unwindfunclet$??$_Insert_at@AAU?$pair@$$CBKVsizedBuffer@@@std@@PAU?$_Tree_node@U?$pair@$$CBKVsizedBuffer@@@std@@PAX@2@@?$_Tree@V?$_Tmap_traits@KVsizedBuffer@@U?$less@K@std@@V?$allocator@U?$pair@$$CBKVsizedBuffer@@@std@@@3@$0A@@std@@@std@@IAE?AV?$_Tree_iterator@V?$_Tree_val@U?$_Tree_simple_types@U?$pair@$$CBKVsizedBuffer@@@std@@@std@@@std@@@1@_NPAU?$_Tree_node@U?$pair@$$CBKVsizedBuffer@@@std@@PAX@1@AAU?$pair@$$CBKVsizedBuffer@@@1@1@Z$0 00424f70 f   Csndi.obj
 0001:00023f7b       __ehhandler$??$_Insert_at@AAU?$pair@$$CBKVsizedBuffer@@@std@@PAU?$_Tree_node@U?$pair@$$CBKVsizedBuffer@@@std@@PAX@2@@?$_Tree@V?$_Tmap_traits@KVsizedBuffer@@U?$less@K@std@@V?$allocator@U?$pair@$$CBKVsizedBuffer@@@std@@@3@$0A@@std@@@std@@IAE?AV?$_Tree_iterator@V?$_Tree_val@U?$_Tree_simple_types@U?$pair@$$CBKVsizedBuffer@@@std@@@std@@@std@@@1@_NPAU?$_Tree_node@U?$pair@$$CBKVsizedBuffer@@@std@@PAX@1@AAU?$pair@$$CBKVsizedBuffer@@@1@1@Z 00424f7b f   Csndi.obj
 0001:00023fa0       __ehhandler$??$_Insert_nohint@AAU?$pair@$$CBKVsizedBuffer@@@std@@PAU?$_Tree_node@U?$pair@$$CBKVsizedBuffer@@@std@@PAX@2@@?$_Tree@V?$_Tmap_traits@KVsizedBuffer@@U?$less@K@std@@V?$allocator@U?$pair@$$CBKVsizedBuffer@@@std@@@3@$0A@@std@@@std@@IAE?AU?$pair@V?$_Tree_iterator@V?$_Tree_val@U?$_Tree_simple_types@U?$pair@$$CBKVsizedBuffer@@@std@@@std@@@std@@@std@@_N@1@_NAAU?$pair@$$CBKVsizedBuffer@@@1@PAU?$_Tree_node@U?$pair@$$CBKVsizedBuffer@@@std@@PAX@1@@Z 00424fa0 f   Csndi.obj
 0001:00023fc0       __unwindfunclet$??$construct@U?$pair@$$CBKVsizedBuffer@@@std@@U?$pair@KVsizedBuffer@@@2@@?$_Wrap_alloc@V?$allocator@U?$_Tree_node@U?$pair@$$CBKVsizedBuffer@@@std@@PAX@std@@@std@@@std@@QAEXPAU?$pair@$$CBKVsizedBuffer@@@1@$$QAU?$pair@KVsizedBuffer@@@1@@Z$0 00424fc0 f   Csndi.obj
 0001:00023fd1       __unwindfunclet$??$construct@U?$pair@$$CBKVsizedBuffer@@@std@@U?$pair@KVsizedBuffer@@@2@@?$_Wrap_alloc@V?$allocator@U?$_Tree_node@U?$pair@$$CBKVsizedBuffer@@@std@@PAX@std@@@std@@@std@@QAEXPAU?$pair@$$CBKVsizedBuffer@@@1@$$QAU?$pair@KVsizedBuffer@@@1@@Z$1 00424fd1 f   Csndi.obj
 0001:00023fdc       __ehhandler$??$construct@U?$pair@$$CBKVsizedBuffer@@@std@@U?$pair@KVsizedBuffer@@@2@@?$_Wrap_alloc@V?$allocator@U?$_Tree_node@U?$pair@$$CBKVsizedBuffer@@@std@@PAX@std@@@std@@@std@@QAEXPAU?$pair@$$CBKVsizedBuffer@@@1@$$QAU?$pair@KVsizedBuffer@@@1@@Z 00424fdc f   Csndi.obj
 0001:00024000       __unwindfunclet$?CSNDI_SendToDriver@@YAXPADH@Z$0 00425000 f   Csndi.obj
 0001:0002400e       __ehhandler$?CSNDI_SendToDriver@@YAXPADH@Z 0042500e f   Csndi.obj
 0001:00024040       __unwindfunclet$?CSNDI_TxPacket@@YAXXZ$0 00425040 f   Csndi.obj
 0001:0002404b       __unwindfunclet$?CSNDI_TxPacket@@YAXXZ$1 0042504b f   Csndi.obj
 0001:00024056       __unwindfunclet$?CSNDI_TxPacket@@YAXXZ$2 00425056 f   Csndi.obj
 0001:00024061       __ehhandler$?CSNDI_TxPacket@@YAXXZ 00425061 f   Csndi.obj
 0001:00024090       __ehhandler$?_Buynode0@?$_Tree_buy@U?$pair@$$CBKVsizedBuffer@@@std@@V?$allocator@U?$pair@$$CBKVsizedBuffer@@@std@@@2@@std@@QAEPAU?$_Tree_node@U?$pair@$$CBKVsizedBuffer@@@std@@PAX@2@XZ 00425090 f   Csndi.obj
 0001:000240b0       __unwindfunclet$?_Destroy_if_not_nil@?$_Tree@V?$_Tmap_traits@KVsizedBuffer@@U?$less@K@std@@V?$allocator@U?$pair@$$CBKVsizedBuffer@@@std@@@3@$0A@@std@@@std@@IAEXPAU?$_Tree_node@U?$pair@$$CBKVsizedBuffer@@@std@@PAX@2@@Z$0 004250b0 f   Csndi.obj
 0001:000240bb       __ehhandler$?_Destroy_if_not_nil@?$_Tree@V?$_Tmap_traits@KVsizedBuffer@@U?$less@K@std@@V?$allocator@U?$pair@$$CBKVsizedBuffer@@@std@@@3@$0A@@std@@@std@@IAEXPAU?$_Tree_node@U?$pair@$$CBKVsizedBuffer@@@std@@PAX@2@@Z 004250bb f   Csndi.obj
 0001:000240e0       __ehhandler$??$_Buynode@ABVdeviceStatusOnHost@@@?$_List_buy@VdeviceStatusOnHost@@V?$allocator@VdeviceStatusOnHost@@@std@@@std@@QAEPAU?$_List_node@VdeviceStatusOnHost@@PAX@1@PAU21@0ABVdeviceStatusOnHost@@@Z 004250e0 f   deviceStatus.obj
 0001:00024100       __ehhandler$??$_Buynode@U?$pair@HVdeviceStatusOnHost@@@std@@@?$_Tree_buy@U?$pair@$$CBHVdeviceStatusOnHost@@@std@@V?$allocator@U?$pair@$$CBHVdeviceStatusOnHost@@@std@@@2@@std@@QAEPAU?$_Tree_node@U?$pair@$$CBHVdeviceStatusOnHost@@@std@@PAX@1@$$QAU?$pair@HVdeviceStatusOnHost@@@1@@Z 00425100 f   deviceStatus.obj
 0001:00024120       __ehhandler$??$_Insert_nohint@AAU?$pair@$$CBHVdeviceStatusOnHost@@@std@@PAU?$_Tree_node@U?$pair@$$CBHVdeviceStatusOnHost@@@std@@PAX@2@@?$_Tree@V?$_Tmap_traits@HVdeviceStatusOnHost@@U?$less@H@std@@V?$allocator@U?$pair@$$CBHVdeviceStatusOnHost@@@std@@@3@$0A@@std@@@std@@IAE?AU?$pair@V?$_Tree_iterator@V?$_Tree_val@U?$_Tree_simple_types@U?$pair@$$CBHVdeviceStatusOnHost@@@std@@@std@@@std@@@std@@_N@1@_NAAU?$pair@$$CBHVdeviceStatusOnHost@@@1@PAU?$_Tree_node@U?$pair@$$CBHVdeviceStatusOnHost@@@std@@PAX@1@@Z 00425120 f   deviceStatus.obj
 0001:00024140       __unwindfunclet$??$construct@U?$pair@QAUHWND__@@K@std@@ABUpiecewise_construct_t@2@V?$tuple@ABQAUHWND__@@@2@V?$tuple@$$$V@2@@?$_Wrap_alloc@V?$allocator@U?$_Tree_node@U?$pair@QAUHWND__@@K@std@@PAX@std@@@std@@@std@@QAEXPAU?$pair@QAUHWND__@@K@1@ABUpiecewise_construct_t@1@$$QAV?$tuple@ABQAUHWND__@@@1@$$QAV?$tuple@$$$V@1@@Z$0 00425140 f   deviceStatus.obj
 0001:00024140       __unwindfunclet$??$construct@PAU?$_Tree_node@U?$pair@$$CBHPAVdatabase@@@std@@PAX@std@@AAPAU12@@?$_Wrap_alloc@V?$allocator@U?$_Tree_node@U?$pair@$$CBHPAVdatabase@@@std@@PAX@std@@@std@@@std@@QAEXPAPAU?$_Tree_node@U?$pair@$$CBHPAVdatabase@@@std@@PAX@1@AAPAU21@@Z$0 00425140 f   deviceStatus.obj
 0001:00024140       __unwindfunclet$??$construct@U?$pair@$$CBGVserialError@@@std@@U?$pair@HVserialError@@@2@@?$_Wrap_alloc@V?$allocator@U?$_Tree_node@U?$pair@$$CBGVserialError@@@std@@PAX@std@@@std@@@std@@QAEXPAU?$pair@$$CBGVserialError@@@1@$$QAU?$pair@HVserialError@@@1@@Z$0 00425140 f   deviceStatus.obj
 0001:00024140       __unwindfunclet$??$construct@VserialError@@V1@@?$_Wrap_alloc@V?$allocator@U?$_List_node@VserialError@@PAX@std@@@std@@@std@@QAEXPAVserialError@@$$QAV2@@Z$0 00425140 f   deviceStatus.obj
 0001:00024140       __unwindfunclet$??$construct@PAU?$_Tree_node@U?$pair@$$CBKK@std@@PAX@std@@AAPAU12@@?$_Wrap_alloc@V?$allocator@U?$_Tree_node@U?$pair@$$CBKK@std@@PAX@std@@@std@@@std@@QAEXPAPAU?$_Tree_node@U?$pair@$$CBKK@std@@PAX@1@AAPAU21@@Z$0 00425140 f   deviceStatus.obj
 0001:00024140       __unwindfunclet$??$construct@U?$pair@$$CBHPAVdatabase@@@std@@U?$pair@HPAVdatabase@@@2@@?$_Wrap_alloc@V?$allocator@U?$_Tree_node@U?$pair@$$CBHPAVdatabase@@@std@@PAX@std@@@std@@@std@@QAEXPAU?$pair@$$CBHPAVdatabase@@@1@$$QAU?$pair@HPAVdatabase@@@1@@Z$0 00425140 f   deviceStatus.obj
 0001:00024140       __unwindfunclet$??$construct@PAUHWND__@@PAU1@@?$_Wrap_alloc@V?$allocator@U?$_List_node@PAUHWND__@@PAX@std@@@std@@@std@@QAEXPAPAUHWND__@@$$QAPAU2@@Z$0 00425140 f   deviceStatus.obj
 0001:00024140       __unwindfunclet$??$construct@U?$pair@$$CBHVdeviceStatusOnHost@@@std@@U?$pair@HVdeviceStatusOnHost@@@2@@?$_Wrap_alloc@V?$allocator@U?$_Tree_node@U?$pair@$$CBHVdeviceStatusOnHost@@@std@@PAX@std@@@std@@@std@@QAEXPAU?$pair@$$CBHVdeviceStatusOnHost@@@1@$$QAU?$pair@HVdeviceStatusOnHost@@@1@@Z$0 00425140 f   deviceStatus.obj
 0001:00024140       __unwindfunclet$??$construct@VdeviceStatusOnHost@@ABV1@@?$_Wrap_alloc@V?$allocator@U?$_List_node@VdeviceStatusOnHost@@PAX@std@@@std@@@std@@QAEXPAVdeviceStatusOnHost@@ABV2@@Z$0 00425140 f   deviceStatus.obj
 0001:00024140       __unwindfunclet$??$construct@PAU?$_Tree_node@U?$pair@$$CBHVdeviceStatusOnHost@@@std@@PAX@std@@AAPAU12@@?$_Wrap_alloc@V?$allocator@U?$_Tree_node@U?$pair@$$CBHVdeviceStatusOnHost@@@std@@PAX@std@@@std@@@std@@QAEXPAPAU?$_Tree_node@U?$pair@$$CBHVdeviceStatusOnHost@@@std@@PAX@1@AAPAU21@@Z$0 00425140 f   deviceStatus.obj
 0001:00024140       __unwindfunclet$??$construct@PAU?$_Tree_node@U?$pair@$$CBGVserialError@@@std@@PAX@std@@AAPAU12@@?$_Wrap_alloc@V?$allocator@U?$_Tree_node@U?$pair@$$CBGVserialError@@@std@@PAX@std@@@std@@@std@@QAEXPAPAU?$_Tree_node@U?$pair@$$CBGVserialError@@@std@@PAX@1@AAPAU21@@Z$0 00425140 f   deviceStatus.obj
 0001:00024140       __unwindfunclet$??$construct@HABH@?$_Wrap_alloc@V?$allocator@U?$_Tree_node@HPAX@std@@@std@@@std@@QAEXPAHABH@Z$0 00425140 f   deviceStatus.obj
 0001:00024140       __unwindfunclet$??$construct@PAU?$_Tree_node@U?$pair@$$CBHV?$basic_string@DU?$char_traits@D@std@@V?$allocator@D@2@@std@@@std@@PAX@std@@AAPAU12@@?$_Wrap_alloc@V?$allocator@U?$_Tree_node@U?$pair@$$CBHV?$basic_string@DU?$char_traits@D@std@@V?$allocator@D@2@@std@@@std@@PAX@std@@@std@@@std@@QAEXPAPAU?$_Tree_node@U?$pair@$$CBHV?$basic_string@DU?$char_traits@D@std@@V?$allocator@D@2@@std@@@std@@PAX@1@AAPAU21@@Z$0 00425140 f   deviceStatus.obj
 0001:00024140       __unwindfunclet$??$construct@PAUHWND__@@ABQAU1@@?$_Wrap_alloc@V?$allocator@U?$_List_node@PAUHWND__@@PAX@std@@@std@@@std@@QAEXPAPAUHWND__@@ABQAU2@@Z$0 00425140 f   deviceStatus.obj
 0001:00024140       __unwindfunclet$??$construct@PAU?$_Tree_node@U?$pair@$$CBKVsizedBuffer@@@std@@PAX@std@@AAPAU12@@?$_Wrap_alloc@V?$allocator@U?$_Tree_node@U?$pair@$$CBKVsizedBuffer@@@std@@PAX@std@@@std@@@std@@QAEXPAPAU?$_Tree_node@U?$pair@$$CBKVsizedBuffer@@@std@@PAX@1@AAPAU21@@Z$0 00425140 f   deviceStatus.obj
 0001:00024140       __unwindfunclet$??$construct@U?$pair@$$CBKK@std@@U?$pair@KK@2@@?$_Wrap_alloc@V?$allocator@U?$_Tree_node@U?$pair@$$CBKK@std@@PAX@std@@@std@@@std@@QAEXPAU?$pair@$$CBKK@1@$$QAU?$pair@KK@1@@Z$0 00425140 f   deviceStatus.obj
 0001:00024140       __unwindfunclet$??$construct@PAU?$_List_node@VdeviceStatusOnHost@@PAX@std@@AAPAU12@@?$_Wrap_alloc@V?$allocator@U?$_List_node@VdeviceStatusOnHost@@PAX@std@@@std@@@std@@QAEXPAPAU?$_List_node@VdeviceStatusOnHost@@PAX@1@AAPAU21@@Z$0 00425140 f   deviceStatus.obj
 0001:00024140       __unwindfunclet$??$construct@PAU?$_List_node@VserialError@@PAX@std@@AAPAU12@@?$_Wrap_alloc@V?$allocator@U?$_List_node@VserialError@@PAX@std@@@std@@@std@@QAEXPAPAU?$_List_node@VserialError@@PAX@1@AAPAU21@@Z$0 00425140 f   deviceStatus.obj
 0001:00024140       __unwindfunclet$??$construct@PAU?$_Tree_node@HPAX@std@@AAPAU12@@?$_Wrap_alloc@V?$allocator@U?$_Tree_node@HPAX@std@@@std@@@std@@QAEXPAPAU?$_Tree_node@HPAX@1@AAPAU21@@Z$0 00425140 f   deviceStatus.obj
 0001:00024140       __unwindfunclet$??$construct@PAU?$_List_node@PAUHWND__@@PAX@std@@AAPAU12@@?$_Wrap_alloc@V?$allocator@U?$_List_node@PAUHWND__@@PAX@std@@@std@@@std@@QAEXPAPAU?$_List_node@PAUHWND__@@PAX@1@AAPAU21@@Z$0 00425140 f   deviceStatus.obj
 0001:00024140       __unwindfunclet$??$construct@PAU?$_Tree_node@U?$pair@QAUHWND__@@K@std@@PAX@std@@AAPAU12@@?$_Wrap_alloc@V?$allocator@U?$_Tree_node@U?$pair@QAUHWND__@@K@std@@PAX@std@@@std@@@std@@QAEXPAPAU?$_Tree_node@U?$pair@QAUHWND__@@K@std@@PAX@1@AAPAU21@@Z$0 00425140 f   deviceStatus.obj
 0001:00024151       __ehhandler$??$construct@PAU?$_Tree_node@U?$pair@$$CBKK@std@@PAX@std@@AAPAU12@@?$_Wrap_alloc@V?$allocator@U?$_Tree_node@U?$pair@$$CBKK@std@@PAX@std@@@std@@@std@@QAEXPAPAU?$_Tree_node@U?$pair@$$CBKK@std@@PAX@1@AAPAU21@@Z 00425151 f   deviceStatus.obj
 0001:00024151       __ehhandler$??$construct@PAU?$_List_node@VdeviceStatusOnHost@@PAX@std@@AAPAU12@@?$_Wrap_alloc@V?$allocator@U?$_List_node@VdeviceStatusOnHost@@PAX@std@@@std@@@std@@QAEXPAPAU?$_List_node@VdeviceStatusOnHost@@PAX@1@AAPAU21@@Z 00425151 f   deviceStatus.obj
 0001:00024151       __ehhandler$??$construct@PAU?$_Tree_node@U?$pair@$$CBKVsizedBuffer@@@std@@PAX@std@@AAPAU12@@?$_Wrap_alloc@V?$allocator@U?$_Tree_node@U?$pair@$$CBKVsizedBuffer@@@std@@PAX@std@@@std@@@std@@QAEXPAPAU?$_Tree_node@U?$pair@$$CBKVsizedBuffer@@@std@@PAX@1@AAPAU21@@Z 00425151 f   deviceStatus.obj
 0001:00024151       __ehhandler$??$construct@PAU?$_Tree_node@U?$pair@$$CBHV?$basic_string@DU?$char_traits@D@std@@V?$allocator@D@2@@std@@@std@@PAX@std@@AAPAU12@@?$_Wrap_alloc@V?$allocator@U?$_Tree_node@U?$pair@$$CBHV?$basic_string@DU?$char_traits@D@std@@V?$allocator@D@2@@std@@@std@@PAX@std@@@std@@@std@@QAEXPAPAU?$_Tree_node@U?$pair@$$CBHV?$basic_string@DU?$char_traits@D@std@@V?$allocator@D@2@@std@@@std@@PAX@1@AAPAU21@@Z 00425151 f   deviceStatus.obj
 0001:00024151       __ehhandler$??$construct@PAU?$_Tree_node@U?$pair@QAUHWND__@@K@std@@PAX@std@@AAPAU12@@?$_Wrap_alloc@V?$allocator@U?$_Tree_node@U?$pair@QAUHWND__@@K@std@@PAX@std@@@std@@@std@@QAEXPAPAU?$_Tree_node@U?$pair@QAUHWND__@@K@std@@PAX@1@AAPAU21@@Z 00425151 f   deviceStatus.obj
 0001:00024151       __ehhandler$??$construct@PAUHWND__@@ABQAU1@@?$_Wrap_alloc@V?$allocator@U?$_List_node@PAUHWND__@@PAX@std@@@std@@@std@@QAEXPAPAUHWND__@@ABQAU2@@Z 00425151 f   deviceStatus.obj
 0001:00024151       __ehhandler$??$construct@PAU?$_Tree_node@U?$pair@$$CBHVdeviceStatusOnHost@@@std@@PAX@std@@AAPAU12@@?$_Wrap_alloc@V?$allocator@U?$_Tree_node@U?$pair@$$CBHVdeviceStatusOnHost@@@std@@PAX@std@@@std@@@std@@QAEXPAPAU?$_Tree_node@U?$pair@$$CBHVdeviceStatusOnHost@@@std@@PAX@1@AAPAU21@@Z 00425151 f   deviceStatus.obj
 0001:00024151       __ehhandler$??$construct@U?$pair@$$CBKK@std@@U?$pair@KK@2@@?$_Wrap_alloc@V?$allocator@U?$_Tree_node@U?$pair@$$CBKK@std@@PAX@std@@@std@@@std@@QAEXPAU?$pair@$$CBKK@1@$$QAU?$pair@KK@1@@Z 00425151 f   deviceStatus.obj
 0001:00024151       __ehhandler$??$construct@PAU?$_List_node@PAUHWND__@@PAX@std@@AAPAU12@@?$_Wrap_alloc@V?$allocator@U?$_List_node@PAUHWND__@@PAX@std@@@std@@@std@@QAEXPAPAU?$_List_node@PAUHWND__@@PAX@1@AAPAU21@@Z 00425151 f   deviceStatus.obj
 0001:00024151       __ehhandler$??$construct@VdeviceStatusOnHost@@ABV1@@?$_Wrap_alloc@V?$allocator@U?$_List_node@VdeviceStatusOnHost@@PAX@std@@@std@@@std@@QAEXPAVdeviceStatusOnHost@@ABV2@@Z 00425151 f   deviceStatus.obj
 0001:00024151       __ehhandler$??$construct@PAUHWND__@@PAU1@@?$_Wrap_alloc@V?$allocator@U?$_List_node@PAUHWND__@@PAX@std@@@std@@@std@@QAEXPAPAUHWND__@@$$QAPAU2@@Z 00425151 f   deviceStatus.obj
 0001:00024151       __ehhandler$??$construct@U?$pair@$$CBHVdeviceStatusOnHost@@@std@@U?$pair@HVdeviceStatusOnHost@@@2@@?$_Wrap_alloc@V?$allocator@U?$_Tree_node@U?$pair@$$CBHVdeviceStatusOnHost@@@std@@PAX@std@@@std@@@std@@QAEXPAU?$pair@$$CBHVdeviceStatusOnHost@@@1@$$QAU?$pair@HVdeviceStatusOnHost@@@1@@Z 00425151 f   deviceStatus.obj
 0001:00024151       __ehhandler$??$construct@U?$pair@$$CBHPAVdatabase@@@std@@U?$pair@HPAVdatabase@@@2@@?$_Wrap_alloc@V?$allocator@U?$_Tree_node@U?$pair@$$CBHPAVdatabase@@@std@@PAX@std@@@std@@@std@@QAEXPAU?$pair@$$CBHPAVdatabase@@@1@$$QAU?$pair@HPAVdatabase@@@1@@Z 00425151 f   deviceStatus.obj
 0001:00024151       __ehhandler$??$construct@U?$pair@$$CBGVserialError@@@std@@U?$pair@HVserialError@@@2@@?$_Wrap_alloc@V?$allocator@U?$_Tree_node@U?$pair@$$CBGVserialError@@@std@@PAX@std@@@std@@@std@@QAEXPAU?$pair@$$CBGVserialError@@@1@$$QAU?$pair@HVserialError@@@1@@Z 00425151 f   deviceStatus.obj
 0001:00024151       __ehhandler$??$construct@VserialError@@V1@@?$_Wrap_alloc@V?$allocator@U?$_List_node@VserialError@@PAX@std@@@std@@@std@@QAEXPAVserialError@@$$QAV2@@Z 00425151 f   deviceStatus.obj
 0001:00024151       __ehhandler$??$construct@PAU?$_Tree_node@U?$pair@$$CBGVserialError@@@std@@PAX@std@@AAPAU12@@?$_Wrap_alloc@V?$allocator@U?$_Tree_node@U?$pair@$$CBGVserialError@@@std@@PAX@std@@@std@@@std@@QAEXPAPAU?$_Tree_node@U?$pair@$$CBGVserialError@@@std@@PAX@1@AAPAU21@@Z 00425151 f   deviceStatus.obj
 0001:00024151       __ehhandler$??$construct@U?$pair@QAUHWND__@@K@std@@ABUpiecewise_construct_t@2@V?$tuple@ABQAUHWND__@@@2@V?$tuple@$$$V@2@@?$_Wrap_alloc@V?$allocator@U?$_Tree_node@U?$pair@QAUHWND__@@K@std@@PAX@std@@@std@@@std@@QAEXPAU?$pair@QAUHWND__@@K@1@ABUpiecewise_construct_t@1@$$QAV?$tuple@ABQAUHWND__@@@1@$$QAV?$tuple@$$$V@1@@Z 00425151 f   deviceStatus.obj
 0001:00024151       __ehhandler$??$construct@PAU?$_Tree_node@HPAX@std@@AAPAU12@@?$_Wrap_alloc@V?$allocator@U?$_Tree_node@HPAX@std@@@std@@@std@@QAEXPAPAU?$_Tree_node@HPAX@1@AAPAU21@@Z 00425151 f   deviceStatus.obj
 0001:00024151       __ehhandler$??$construct@PAU?$_List_node@VserialError@@PAX@std@@AAPAU12@@?$_Wrap_alloc@V?$allocator@U?$_List_node@VserialError@@PAX@std@@@std@@@std@@QAEXPAPAU?$_List_node@VserialError@@PAX@1@AAPAU21@@Z 00425151 f   deviceStatus.obj
 0001:00024151       __ehhandler$??$construct@HABH@?$_Wrap_alloc@V?$allocator@U?$_Tree_node@HPAX@std@@@std@@@std@@QAEXPAHABH@Z 00425151 f   deviceStatus.obj
 0001:00024151       __ehhandler$??$construct@PAU?$_Tree_node@U?$pair@$$CBHPAVdatabase@@@std@@PAX@std@@AAPAU12@@?$_Wrap_alloc@V?$allocator@U?$_Tree_node@U?$pair@$$CBHPAVdatabase@@@std@@PAX@std@@@std@@@std@@QAEXPAPAU?$_Tree_node@U?$pair@$$CBHPAVdatabase@@@std@@PAX@1@AAPAU21@@Z 00425151 f   deviceStatus.obj
 0001:00024170       __unwindfunclet$??0deviceStatus@@QAE@H@Z$4 00425170 f   deviceStatus.obj
 0001:00024178       __unwindfunclet$??0deviceStatus@@QAE@H@Z$3 00425178 f   deviceStatus.obj
 0001:00024180       __unwindfunclet$??0deviceStatus@@QAE@H@Z$2 00425180 f   deviceStatus.obj
 0001:00024188       __unwindfunclet$??0deviceStatus@@QAE@H@Z$1 00425188 f   deviceStatus.obj
 0001:00024190       __unwindfunclet$??0deviceStatus@@QAE@H@Z$0 00425190 f   deviceStatus.obj
 0001:0002419b       __ehhandler$??0deviceStatus@@QAE@H@Z 0042519b f   deviceStatus.obj
 0001:000241c0       __unwindfunclet$??1?$_Tree@V?$_Tmap_traits@GVserialError@@U?$less@G@std@@V?$allocator@U?$pair@$$CBGVserialError@@@std@@@3@$00@std@@@std@@QAE@XZ$0 004251c0 f   deviceStatus.obj
 0001:000241c0       __unwindfunclet$??1?$_Tree@V?$_Tmap_traits@HV?$basic_string@DU?$char_traits@D@std@@V?$allocator@D@2@@std@@U?$less@H@2@V?$allocator@U?$pair@$$CBHV?$basic_string@DU?$char_traits@D@std@@V?$allocator@D@2@@std@@@std@@@2@$0A@@std@@@std@@QAE@XZ$0 004251c0 f   deviceStatus.obj
 0001:000241c0       __unwindfunclet$??1?$_Tree@V?$_Tmap_traits@HPAVdatabase@@U?$less@H@std@@V?$allocator@U?$pair@$$CBHPAVdatabase@@@std@@@3@$0A@@std@@@std@@QAE@XZ$0 004251c0 f   deviceStatus.obj
 0001:000241c0       __unwindfunclet$??1?$_Tree@V?$_Tmap_traits@KKU?$less@K@std@@V?$allocator@U?$pair@$$CBKK@std@@@2@$0A@@std@@@std@@QAE@XZ$0 004251c0 f   deviceStatus.obj
 0001:000241c0       __unwindfunclet$??1?$_Tree@V?$_Tmap_traits@HVdeviceStatusOnHost@@U?$less@H@std@@V?$allocator@U?$pair@$$CBHVdeviceStatusOnHost@@@std@@@3@$0A@@std@@@std@@QAE@XZ$0 004251c0 f   deviceStatus.obj
 0001:000241c0       __unwindfunclet$??1?$_Tree@V?$_Tset_traits@HU?$less@H@std@@V?$allocator@H@2@$0A@@std@@@std@@QAE@XZ$0 004251c0 f   deviceStatus.obj
 0001:000241c0       __unwindfunclet$??1?$_Tree@V?$_Tmap_traits@KVsizedBuffer@@U?$less@K@std@@V?$allocator@U?$pair@$$CBKVsizedBuffer@@@std@@@3@$0A@@std@@@std@@QAE@XZ$0 004251c0 f   deviceStatus.obj
 0001:000241c0       __unwindfunclet$??1?$_Tree@V?$_Tmap_traits@PAUHWND__@@KU?$less@PAUHWND__@@@std@@V?$allocator@U?$pair@QAUHWND__@@K@std@@@3@$0A@@std@@@std@@QAE@XZ$0 004251c0 f   deviceStatus.obj
 0001:000241c8       __unwindfunclet$??1?$_Tree@V?$_Tmap_traits@HV?$basic_string@DU?$char_traits@D@std@@V?$allocator@D@2@@std@@U?$less@H@2@V?$allocator@U?$pair@$$CBHV?$basic_string@DU?$char_traits@D@std@@V?$allocator@D@2@@std@@@std@@@2@$0A@@std@@@std@@QAE@XZ$1 004251c8 f   deviceStatus.obj
 0001:000241c8       __unwindfunclet$??1?$_Tree@V?$_Tmap_traits@GVserialError@@U?$less@G@std@@V?$allocator@U?$pair@$$CBGVserialError@@@std@@@3@$00@std@@@std@@QAE@XZ$1 004251c8 f   deviceStatus.obj
 0001:000241c8       __unwindfunclet$??1?$_Tree@V?$_Tmap_traits@HPAVdatabase@@U?$less@H@std@@V?$allocator@U?$pair@$$CBHPAVdatabase@@@std@@@3@$0A@@std@@@std@@QAE@XZ$1 004251c8 f   deviceStatus.obj
 0001:000241c8       __unwindfunclet$??1?$_Tree@V?$_Tmap_traits@HVdeviceStatusOnHost@@U?$less@H@std@@V?$allocator@U?$pair@$$CBHVdeviceStatusOnHost@@@std@@@3@$0A@@std@@@std@@QAE@XZ$1 004251c8 f   deviceStatus.obj
 0001:000241c8       __unwindfunclet$??1?$_Tree@V?$_Tmap_traits@KVsizedBuffer@@U?$less@K@std@@V?$allocator@U?$pair@$$CBKVsizedBuffer@@@std@@@3@$0A@@std@@@std@@QAE@XZ$1 004251c8 f   deviceStatus.obj
 0001:000241c8       __unwindfunclet$??1?$_Tree@V?$_Tset_traits@HU?$less@H@std@@V?$allocator@H@2@$0A@@std@@@std@@QAE@XZ$1 004251c8 f   deviceStatus.obj
 0001:000241c8       __unwindfunclet$??1?$_Tree@V?$_Tmap_traits@KKU?$less@K@std@@V?$allocator@U?$pair@$$CBKK@std@@@2@$0A@@std@@@std@@QAE@XZ$1 004251c8 f   deviceStatus.obj
 0001:000241c8       __unwindfunclet$??1?$_Tree@V?$_Tmap_traits@PAUHWND__@@KU?$less@PAUHWND__@@@std@@V?$allocator@U?$pair@QAUHWND__@@K@std@@@3@$0A@@std@@@std@@QAE@XZ$1 004251c8 f   deviceStatus.obj
 0001:000241d0       __unwindfunclet$??1?$_Tree@V?$_Tmap_traits@HVdeviceStatusOnHost@@U?$less@H@std@@V?$allocator@U?$pair@$$CBHVdeviceStatusOnHost@@@std@@@3@$0A@@std@@@std@@QAE@XZ$2 004251d0 f   deviceStatus.obj
 0001:000241d0       __unwindfunclet$??1?$_Tree@V?$_Tmap_traits@KVsizedBuffer@@U?$less@K@std@@V?$allocator@U?$pair@$$CBKVsizedBuffer@@@std@@@3@$0A@@std@@@std@@QAE@XZ$2 004251d0 f   deviceStatus.obj
 0001:000241d0       __unwindfunclet$??1?$_Tree@V?$_Tmap_traits@HV?$basic_string@DU?$char_traits@D@std@@V?$allocator@D@2@@std@@U?$less@H@2@V?$allocator@U?$pair@$$CBHV?$basic_string@DU?$char_traits@D@std@@V?$allocator@D@2@@std@@@std@@@2@$0A@@std@@@std@@QAE@XZ$2 004251d0 f   deviceStatus.obj
 0001:000241d0       __unwindfunclet$??1?$_Tree@V?$_Tmap_traits@HPAVdatabase@@U?$less@H@std@@V?$allocator@U?$pair@$$CBHPAVdatabase@@@std@@@3@$0A@@std@@@std@@QAE@XZ$2 004251d0 f   deviceStatus.obj
 0001:000241d0       __unwindfunclet$??1?$_Tree@V?$_Tmap_traits@KKU?$less@K@std@@V?$allocator@U?$pair@$$CBKK@std@@@2@$0A@@std@@@std@@QAE@XZ$2 004251d0 f   deviceStatus.obj
 0001:000241d0       __unwindfunclet$??1?$_Tree@V?$_Tmap_traits@PAUHWND__@@KU?$less@PAUHWND__@@@std@@V?$allocator@U?$pair@QAUHWND__@@K@std@@@3@$0A@@std@@@std@@QAE@XZ$2 004251d0 f   deviceStatus.obj
 0001:000241d0       __unwindfunclet$??1?$_Tree@V?$_Tset_traits@HU?$less@H@std@@V?$allocator@H@2@$0A@@std@@@std@@QAE@XZ$2 004251d0 f   deviceStatus.obj
 0001:000241d0       __unwindfunclet$??1?$_Tree@V?$_Tmap_traits@GVserialError@@U?$less@G@std@@V?$allocator@U?$pair@$$CBGVserialError@@@std@@@3@$00@std@@@std@@QAE@XZ$2 004251d0 f   deviceStatus.obj
 0001:000241d8       __ehhandler$??1?$_Tree@V?$_Tmap_traits@KVsizedBuffer@@U?$less@K@std@@V?$allocator@U?$pair@$$CBKVsizedBuffer@@@std@@@3@$0A@@std@@@std@@QAE@XZ 004251d8 f   deviceStatus.obj
 0001:000241d8       __ehhandler$??1?$_Tree@V?$_Tmap_traits@HVdeviceStatusOnHost@@U?$less@H@std@@V?$allocator@U?$pair@$$CBHVdeviceStatusOnHost@@@std@@@3@$0A@@std@@@std@@QAE@XZ 004251d8 f   deviceStatus.obj
 0001:000241d8       __ehhandler$??1?$_Tree@V?$_Tmap_traits@HPAVdatabase@@U?$less@H@std@@V?$allocator@U?$pair@$$CBHPAVdatabase@@@std@@@3@$0A@@std@@@std@@QAE@XZ 004251d8 f   deviceStatus.obj
 0001:000241d8       __ehhandler$??1?$_Tree@V?$_Tmap_traits@KKU?$less@K@std@@V?$allocator@U?$pair@$$CBKK@std@@@2@$0A@@std@@@std@@QAE@XZ 004251d8 f   deviceStatus.obj
 0001:000241d8       __ehhandler$??1?$_Tree@V?$_Tmap_traits@PAUHWND__@@KU?$less@PAUHWND__@@@std@@V?$allocator@U?$pair@QAUHWND__@@K@std@@@3@$0A@@std@@@std@@QAE@XZ 004251d8 f   deviceStatus.obj
 0001:000241d8       __ehhandler$??1?$_Tree@V?$_Tmap_traits@GVserialError@@U?$less@G@std@@V?$allocator@U?$pair@$$CBGVserialError@@@std@@@3@$00@std@@@std@@QAE@XZ 004251d8 f   deviceStatus.obj
 0001:000241d8       __ehhandler$??1?$_Tree@V?$_Tmap_traits@HV?$basic_string@DU?$char_traits@D@std@@V?$allocator@D@2@@std@@U?$less@H@2@V?$allocator@U?$pair@$$CBHV?$basic_string@DU?$char_traits@D@std@@V?$allocator@D@2@@std@@@std@@@2@$0A@@std@@@std@@QAE@XZ 004251d8 f   deviceStatus.obj
 0001:000241d8       __ehhandler$??1?$_Tree@V?$_Tset_traits@HU?$less@H@std@@V?$allocator@H@2@$0A@@std@@@std@@QAE@XZ 004251d8 f   deviceStatus.obj
 0001:00024200       __unwindfunclet$??1deviceStatus@@UAE@XZ$0 00425200 f   deviceStatus.obj
 0001:0002420b       __unwindfunclet$??1deviceStatus@@UAE@XZ$1 0042520b f   deviceStatus.obj
 0001:00024213       __unwindfunclet$??1deviceStatus@@UAE@XZ$2 00425213 f   deviceStatus.obj
 0001:0002421b       __unwindfunclet$??1deviceStatus@@UAE@XZ$3 0042521b f   deviceStatus.obj
 0001:00024223       __unwindfunclet$??1deviceStatus@@UAE@XZ$4 00425223 f   deviceStatus.obj
 0001:0002422b       __ehhandler$??1deviceStatus@@UAE@XZ 0042522b f   deviceStatus.obj
 0001:00024250       __ehhandler$?_Buyheadnode@?$_Tree_alloc@$0A@U?$_Tree_base_types@U?$pair@$$CBHVdeviceStatusOnHost@@@std@@V?$allocator@U?$pair@$$CBHVdeviceStatusOnHost@@@std@@@2@@std@@@std@@QAEPAU?$_Tree_node@U?$pair@$$CBHVdeviceStatusOnHost@@@std@@PAX@2@XZ 00425250 f   deviceStatus.obj
 0001:00024270       __ehhandler$?_Buynode0@?$_Tree_buy@U?$pair@$$CBHVdeviceStatusOnHost@@@std@@V?$allocator@U?$pair@$$CBHVdeviceStatusOnHost@@@std@@@2@@std@@QAEPAU?$_Tree_node@U?$pair@$$CBHVdeviceStatusOnHost@@@std@@PAX@2@XZ 00425270 f   deviceStatus.obj
 0001:00024290       __ehhandler$??$_Buynode@ABUpiecewise_construct_t@std@@V?$tuple@ABQAUHWND__@@@2@V?$tuple@$$$V@2@@?$_Tree_buy@U?$pair@QAUHWND__@@K@std@@V?$allocator@U?$pair@QAUHWND__@@K@std@@@2@@std@@QAEPAU?$_Tree_node@U?$pair@QAUHWND__@@K@std@@PAX@1@ABUpiecewise_construct_t@1@$$QAV?$tuple@ABQAUHWND__@@@1@$$QAV?$tuple@$$$V@1@@Z 00425290 f   externalsListDialog.obj
 0001:000242b0       __ehhandler$??$_Insert_hint@AAU?$pair@QAUHWND__@@K@std@@PAU?$_Tree_node@U?$pair@QAUHWND__@@K@std@@PAX@2@@?$_Tree@V?$_Tmap_traits@PAUHWND__@@KU?$less@PAUHWND__@@@std@@V?$allocator@U?$pair@QAUHWND__@@K@std@@@3@$0A@@std@@@std@@IAE?AV?$_Tree_iterator@V?$_Tree_val@U?$_Tree_simple_types@U?$pair@QAUHWND__@@K@std@@@std@@@std@@@1@V?$_Tree_const_iterator@V?$_Tree_val@U?$_Tree_simple_types@U?$pair@QAUHWND__@@K@std@@@std@@@std@@@1@AAU?$pair@QAUHWND__@@K@1@PAU?$_Tree_node@U?$pair@QAUHWND__@@K@std@@PAX@1@@Z 004252b0 f   externalsListDialog.obj
 0001:000242d0       __unwindfunclet$??0externalsListDialog@@QAE@XZ$4 004252d0 f   externalsListDialog.obj
 0001:000242d8       __unwindfunclet$??0externalsListDialog@@QAE@XZ$3 004252d8 f   externalsListDialog.obj
 0001:000242e0       __unwindfunclet$??0externalsListDialog@@QAE@XZ$2 004252e0 f   externalsListDialog.obj
 0001:000242e8       __unwindfunclet$??0externalsListDialog@@QAE@XZ$1 004252e8 f   externalsListDialog.obj
 0001:000242f0       __unwindfunclet$??0externalsListDialog@@QAE@XZ$0 004252f0 f   externalsListDialog.obj
 0001:000242fb       __ehhandler$??0externalsListDialog@@QAE@XZ 004252fb f   externalsListDialog.obj
 0001:00024320       __unwindfunclet$??1externalsListDialog@@UAE@XZ$0 00425320 f   externalsListDialog.obj
 0001:0002432b       __unwindfunclet$??1externalsListDialog@@UAE@XZ$1 0042532b f   externalsListDialog.obj
 0001:00024333       __unwindfunclet$??1externalsListDialog@@UAE@XZ$2 00425333 f   externalsListDialog.obj
 0001:0002433b       __unwindfunclet$??1externalsListDialog@@UAE@XZ$3 0042533b f   externalsListDialog.obj
 0001:00024343       __unwindfunclet$??1externalsListDialog@@UAE@XZ$4 00425343 f   externalsListDialog.obj
 0001:0002434b       __ehhandler$??1externalsListDialog@@UAE@XZ 0042534b f   externalsListDialog.obj
 0001:00024370       __ehhandler$??$_Buynode@ABUpiecewise_construct_t@std@@V?$tuple@ABK@2@V?$tuple@$$$V@2@@?$_Tree_buy@U?$pair@$$CBKVsizedBuffer@@@std@@V?$allocator@U?$pair@$$CBKVsizedBuffer@@@std@@@2@@std@@QAEPAU?$_Tree_node@U?$pair@$$CBKVsizedBuffer@@@std@@PAX@1@ABUpiecewise_construct_t@1@$$QAV?$tuple@ABK@1@$$QAV?$tuple@$$$V@1@@Z 00425370 f   networkInterfaceImpl.obj
 0001:00024390       __ehhandler$??$_Buynode@VserialError@@@?$_List_buy@VserialError@@V?$allocator@VserialError@@@std@@@std@@QAEPAU?$_List_node@VserialError@@PAX@1@PAU21@0$$QAVserialError@@@Z 00425390 f   networkInterfaceImpl.obj
 0001:000243b0       __ehhandler$??$_Insert_hint@AAU?$pair@$$CBKVsizedBuffer@@@std@@PAU?$_Tree_node@U?$pair@$$CBKVsizedBuffer@@@std@@PAX@2@@?$_Tree@V?$_Tmap_traits@KVsizedBuffer@@U?$less@K@std@@V?$allocator@U?$pair@$$CBKVsizedBuffer@@@std@@@3@$0A@@std@@@std@@IAE?AV?$_Tree_iterator@V?$_Tree_val@U?$_Tree_simple_types@U?$pair@$$CBKVsizedBuffer@@@std@@@std@@@std@@@1@V?$_Tree_const_iterator@V?$_Tree_val@U?$_Tree_simple_types@U?$pair@$$CBKVsizedBuffer@@@std@@@std@@@std@@@1@AAU?$pair@$$CBKVsizedBuffer@@@1@PAU?$_Tree_node@U?$pair@$$CBKVsizedBuffer@@@std@@PAX@1@@Z 004253b0 f   networkInterfaceImpl.obj
 0001:000243d0       __unwindfunclet$??$construct@U?$pair@$$CBKVsizedBuffer@@@std@@ABUpiecewise_construct_t@2@V?$tuple@ABK@2@V?$tuple@$$$V@2@@?$_Wrap_alloc@V?$allocator@U?$_Tree_node@U?$pair@$$CBKVsizedBuffer@@@std@@PAX@std@@@std@@@std@@QAEXPAU?$pair@$$CBKVsizedBuffer@@@1@ABUpiecewise_construct_t@1@$$QAV?$tuple@ABK@1@$$QAV?$tuple@$$$V@1@@Z$0 004253d0 f   networkInterfaceImpl.obj
 0001:000243e1       __unwindfunclet$??$construct@U?$pair@$$CBKVsizedBuffer@@@std@@ABUpiecewise_construct_t@2@V?$tuple@ABK@2@V?$tuple@$$$V@2@@?$_Wrap_alloc@V?$allocator@U?$_Tree_node@U?$pair@$$CBKVsizedBuffer@@@std@@PAX@std@@@std@@@std@@QAEXPAU?$pair@$$CBKVsizedBuffer@@@1@ABUpiecewise_construct_t@1@$$QAV?$tuple@ABK@1@$$QAV?$tuple@$$$V@1@@Z$2 004253e1 f   networkInterfaceImpl.obj
 0001:000243ec       __unwindfunclet$??$construct@U?$pair@$$CBKVsizedBuffer@@@std@@ABUpiecewise_construct_t@2@V?$tuple@ABK@2@V?$tuple@$$$V@2@@?$_Wrap_alloc@V?$allocator@U?$_Tree_node@U?$pair@$$CBKVsizedBuffer@@@std@@PAX@std@@@std@@@std@@QAEXPAU?$pair@$$CBKVsizedBuffer@@@1@ABUpiecewise_construct_t@1@$$QAV?$tuple@ABK@1@$$QAV?$tuple@$$$V@1@@Z$1 004253ec f   networkInterfaceImpl.obj
 0001:000243f4       __ehhandler$??$construct@U?$pair@$$CBKVsizedBuffer@@@std@@ABUpiecewise_construct_t@2@V?$tuple@ABK@2@V?$tuple@$$$V@2@@?$_Wrap_alloc@V?$allocator@U?$_Tree_node@U?$pair@$$CBKVsizedBuffer@@@std@@PAX@std@@@std@@@std@@QAEXPAU?$pair@$$CBKVsizedBuffer@@@1@ABUpiecewise_construct_t@1@$$QAV?$tuple@ABK@1@$$QAV?$tuple@$$$V@1@@Z 004253f4 f   networkInterfaceImpl.obj
 0001:00024410       __unwindfunclet$??$make_pair@AAKVsizedBuffer@@@std@@YA?AU?$pair@KVsizedBuffer@@@0@AAK$$QAVsizedBuffer@@@Z$1 00425410 f   networkInterfaceImpl.obj
 0001:00024410       __unwindfunclet$??$make_pair@KVsizedBuffer@@@std@@YA?AU?$pair@KVsizedBuffer@@@0@$$QAK$$QAVsizedBuffer@@@Z$1 00425410 f   networkInterfaceImpl.obj
 0001:00024410       __unwindfunclet$??$make_pair@AAKAAVsizedBuffer@@@std@@YA?AU?$pair@KVsizedBuffer@@@0@AAKAAVsizedBuffer@@@Z$1 00425410 f   networkInterfaceImpl.obj
 0001:0002441b       __unwindfunclet$??$make_pair@KVsizedBuffer@@@std@@YA?AU?$pair@KVsizedBuffer@@@0@$$QAK$$QAVsizedBuffer@@@Z$0 0042541b f   networkInterfaceImpl.obj
 0001:0002441b       __unwindfunclet$??$make_pair@AAKAAVsizedBuffer@@@std@@YA?AU?$pair@KVsizedBuffer@@@0@AAKAAVsizedBuffer@@@Z$0 0042541b f   networkInterfaceImpl.obj
 0001:0002441b       __unwindfunclet$??$make_pair@AAKVsizedBuffer@@@std@@YA?AU?$pair@KVsizedBuffer@@@0@AAK$$QAVsizedBuffer@@@Z$0 0042541b f   networkInterfaceImpl.obj
 0001:00024434       __ehhandler$??$make_pair@AAKVsizedBuffer@@@std@@YA?AU?$pair@KVsizedBuffer@@@0@AAK$$QAVsizedBuffer@@@Z 00425434 f   networkInterfaceImpl.obj
 0001:00024434       __ehhandler$??$make_pair@AAKAAVsizedBuffer@@@std@@YA?AU?$pair@KVsizedBuffer@@@0@AAKAAVsizedBuffer@@@Z 00425434 f   networkInterfaceImpl.obj
 0001:00024434       __ehhandler$??$make_pair@KVsizedBuffer@@@std@@YA?AU?$pair@KVsizedBuffer@@@0@$$QAK$$QAVsizedBuffer@@@Z 00425434 f   networkInterfaceImpl.obj
 0001:00024450       __unwindfunclet$?netRx@networkInterfaceImpl@@SAXPBEH@Z$0 00425450 f   networkInterfaceImpl.obj
 0001:0002445b       __unwindfunclet$?netRx@networkInterfaceImpl@@SAXPBEH@Z$2 0042545b f   networkInterfaceImpl.obj
 0001:00024466       __unwindfunclet$?netRx@networkInterfaceImpl@@SAXPBEH@Z$9 00425466 f   networkInterfaceImpl.obj
 0001:00024471       __unwindfunclet$?netRx@networkInterfaceImpl@@SAXPBEH@Z$3 00425471 f   networkInterfaceImpl.obj
 0001:0002447c       __unwindfunclet$?netRx@networkInterfaceImpl@@SAXPBEH@Z$4 0042547c f   networkInterfaceImpl.obj
 0001:00024487       __unwindfunclet$?netRx@networkInterfaceImpl@@SAXPBEH@Z$7 00425487 f   networkInterfaceImpl.obj
 0001:00024492       __unwindfunclet$?netRx@networkInterfaceImpl@@SAXPBEH@Z$8 00425492 f   networkInterfaceImpl.obj
 0001:0002449d       __unwindfunclet$?netRx@networkInterfaceImpl@@SAXPBEH@Z$10 0042549d f   networkInterfaceImpl.obj
 0001:000244a8       __ehhandler$?netRx@networkInterfaceImpl@@SAXPBEH@Z 004254a8 f   networkInterfaceImpl.obj
 0001:000244d0       __ehhandler$??$_Insert_nohint@AAU?$pair@$$CBKK@std@@PAU?$_Tree_node@U?$pair@$$CBKK@std@@PAX@2@@?$_Tree@V?$_Tmap_traits@KKU?$less@K@std@@V?$allocator@U?$pair@$$CBKK@std@@@2@$0A@@std@@@std@@IAE?AU?$pair@V?$_Tree_iterator@V?$_Tree_val@U?$_Tree_simple_types@U?$pair@$$CBKK@std@@@std@@@std@@@std@@_N@1@_NAAU?$pair@$$CBKK@1@PAU?$_Tree_node@U?$pair@$$CBKK@std@@PAX@1@@Z 004254d0 f   supersededMemory.obj
 0001:000244d0       __ehhandler$??$_Insert_nohint@AAU?$pair@QAUHWND__@@K@std@@PAU?$_Tree_node@U?$pair@QAUHWND__@@K@std@@PAX@2@@?$_Tree@V?$_Tmap_traits@PAUHWND__@@KU?$less@PAUHWND__@@@std@@V?$allocator@U?$pair@QAUHWND__@@K@std@@@3@$0A@@std@@@std@@IAE?AU?$pair@V?$_Tree_iterator@V?$_Tree_val@U?$_Tree_simple_types@U?$pair@QAUHWND__@@K@std@@@std@@@std@@@std@@_N@1@_NAAU?$pair@QAUHWND__@@K@1@PAU?$_Tree_node@U?$pair@QAUHWND__@@K@std@@PAX@1@@Z 004254d0 f   supersededMemory.obj
 0001:000244f0       __unwindfunclet$??0databaseMgr@@QAE@PBD@Z$4 004254f0 f   supersededMemory.obj
 0001:000244f0       __unwindfunclet$??0supersededMemory@@QAE@XZ$4 004254f0 f   supersededMemory.obj
 0001:000244f8       __unwindfunclet$??0supersededMemory@@QAE@XZ$3 004254f8 f   supersededMemory.obj
 0001:000244f8       __unwindfunclet$??0databaseMgr@@QAE@PBD@Z$3 004254f8 f   supersededMemory.obj
 0001:00024500       __unwindfunclet$??0databaseMgr@@QAE@PBD@Z$2 00425500 f   supersededMemory.obj
 0001:00024500       __unwindfunclet$??0supersededMemory@@QAE@XZ$2 00425500 f   supersededMemory.obj
 0001:00024508       __unwindfunclet$??0databaseMgr@@QAE@PBD@Z$1 00425508 f   supersededMemory.obj
 0001:00024508       __unwindfunclet$??0supersededMemory@@QAE@XZ$1 00425508 f   supersededMemory.obj
 0001:00024510       __unwindfunclet$??0databaseMgr@@QAE@PBD@Z$0 00425510 f   supersededMemory.obj
 0001:00024510       __unwindfunclet$??0supersededMemory@@QAE@XZ$0 00425510 f   supersededMemory.obj
 0001:0002451b       __ehhandler$??0supersededMemory@@QAE@XZ 0042551b f   supersededMemory.obj
 0001:0002451b       __ehhandler$??0databaseMgr@@QAE@PBD@Z 0042551b f   supersededMemory.obj
 0001:00024540       __unwindfunclet$??1supersededMemory@@UAE@XZ$0 00425540 f   supersededMemory.obj
 0001:00024540       __unwindfunclet$??1databaseMgr@@UAE@XZ$0 00425540 f   supersededMemory.obj
 0001:0002454b       __unwindfunclet$??1databaseMgr@@UAE@XZ$1 0042554b f   supersededMemory.obj
 0001:0002454b       __unwindfunclet$??1supersededMemory@@UAE@XZ$1 0042554b f   supersededMemory.obj
 0001:00024553       __unwindfunclet$??1supersededMemory@@UAE@XZ$2 00425553 f   supersededMemory.obj
 0001:00024553       __unwindfunclet$??1databaseMgr@@UAE@XZ$2 00425553 f   supersededMemory.obj
 0001:0002455b       __unwindfunclet$??1databaseMgr@@UAE@XZ$3 0042555b f   supersededMemory.obj
 0001:0002455b       __unwindfunclet$??1supersededMemory@@UAE@XZ$3 0042555b f   supersededMemory.obj
 0001:00024563       __unwindfunclet$??1supersededMemory@@UAE@XZ$4 00425563 f   supersededMemory.obj
 0001:00024563       __unwindfunclet$??1databaseMgr@@UAE@XZ$4 00425563 f   supersededMemory.obj
 0001:0002456b       __ehhandler$??1databaseMgr@@UAE@XZ 0042556b f   supersededMemory.obj
 0001:0002456b       __ehhandler$??1supersededMemory@@UAE@XZ 0042556b f   supersededMemory.obj
 0001:00024590       __ehhandler$?_Buynode0@?$_Tree_buy@U?$pair@$$CBHPAVdatabase@@@std@@V?$allocator@U?$pair@$$CBHPAVdatabase@@@std@@@2@@std@@QAEPAU?$_Tree_node@U?$pair@$$CBHPAVdatabase@@@std@@PAX@2@XZ 00425590 f   supersededMemory.obj
 0001:00024590       __ehhandler$?_Buynode0@?$_Tree_buy@U?$pair@QAUHWND__@@K@std@@V?$allocator@U?$pair@QAUHWND__@@K@std@@@2@@std@@QAEPAU?$_Tree_node@U?$pair@QAUHWND__@@K@std@@PAX@2@XZ 00425590 f   supersededMemory.obj
 0001:00024590       __ehhandler$?_Buynode0@?$_Tree_buy@U?$pair@$$CBKK@std@@V?$allocator@U?$pair@$$CBKK@std@@@2@@std@@QAEPAU?$_Tree_node@U?$pair@$$CBKK@std@@PAX@2@XZ 00425590 f   supersededMemory.obj
 0001:000245b0       __unwindfunclet$?dgMsgQueueNextItem@@YA?AVsizedBuffer@@XZ$0 004255b0 f   bbcnb32_static:BBCNB32.obj
 0001:000245c9       __ehhandler$?dgMsgQueueNextItem@@YA?AVsizedBuffer@@XZ 004255c9 f   bbcnb32_static:BBCNB32.obj
 0001:000245f0       ??__F?_Generic_object@?$_Error_objects@H@std@@2V_Generic_error_category@2@A@@YAXXZ 004255f0 f   database.obj
 0001:00024640       ??__F?_Iostream_object@?$_Error_objects@H@std@@2V_Iostream_error_category@2@A@@YAXXZ 00425640 f   database.obj
 0001:00024690       ??__F?_System_object@?$_Error_objects@H@std@@2V_System_error_category@2@A@@YAXXZ 00425690 f   database.obj
 0001:000246e0       ??__F?m_driverList@closedDriversList@@0V?$set@HU?$less@H@std@@V?$allocator@H@2@@std@@A@@YAXXZ 004256e0 f   closedDriversList.obj
 0001:00024790       ??__FconfigChangeClientList@@YAXXZ 00425790 f   Csimain.obj
 0001:00024890       ??__FdeviceStatusRepollList@@YAXXZ 00425890 f   Csimain.obj
 0001:00024940       ??__FextListDlg@@YAXXZ     00425940 f   Csimain.obj
 0001:00024950       ??__FnetMsgUpdateClientList@@YAXXZ 00425950 f   Csimain.obj
 0001:00024a50       ??__FnetTxRxStatusClientList@@YAXXZ 00425a50 f   Csimain.obj
 0001:00024b50       ??__FoutgoingRecoveryPackets@@YAXXZ 00425b50 f   Csimain.obj
 0001:00024c00       ??__FpollQueue@@YAXXZ      00425c00 f   Csimain.obj
 0001:00024c90       ??__FprDlg@@YAXXZ          00425c90 f   Csimain.obj
 0001:00024ca0       ??__FrecoveredPacketQueue@@YAXXZ 00425ca0 f   Csimain.obj
 0001:00024d50       ??__FrecoveryRequestRejectionList@@YAXXZ 00425d50 f   Csimain.obj
 0001:00024de0       ??__FrevSerialErrorRequestStack@@YAXXZ 00425de0 f   Csimain.obj
 0001:00024e90       ??__FrevertivePacketList@@YAXXZ 00425e90 f   Csimain.obj
 0001:00024f40       ??__FserialErrorClientList@@YAXXZ 00425f40 f   Csimain.obj
 0001:00025040       ??__FworkstationStatusRepollList@@YAXXZ 00426040 f   Csimain.obj
 0001:000250f0       ??__FdgMsgQueue@@YAXXZ     004260f0 f   bbcnb32_static:BBCNB32.obj
 0002:0000033c       _pcppinit                  0042733c     MSVCRT:crtexew.obj
 0002:00000340       ?_Generic_object$initializer$@?$_Error_objects@H@std@@2P6AXXZA 00427340     database.obj
 0002:00000344       ?_Iostream_object$initializer$@?$_Error_objects@H@std@@2P6AXXZA 00427344     database.obj
 0002:00000348       ?_System_object$initializer$@?$_Error_objects@H@std@@2P6AXXZA 00427348     database.obj
 0002:0000034c       ?m_driverList$initializer$@closedDriversList@@0P6AXXZA 0042734c     closedDriversList.obj
 0002:00000350       _serialErrorClientList$initializer$ 00427350     Csimain.obj
 0002:00000354       _netMsgUpdateClientList$initializer$ 00427354     Csimain.obj
 0002:00000358       _netTxRxStatusClientList$initializer$ 00427358     Csimain.obj
 0002:0000035c       _configChangeClientList$initializer$ 0042735c     Csimain.obj
 0002:00000360       _revertivePacketList$initializer$ 00427360     Csimain.obj
 0002:00000364       _revSerialErrorRequestStack$initializer$ 00427364     Csimain.obj
 0002:00000368       _outgoingRecoveryPackets$initializer$ 00427368     Csimain.obj
 0002:0000036c       _recoveredPacketQueue$initializer$ 0042736c     Csimain.obj
 0002:00000370       _recoveryRequestRejectionList$initializer$ 00427370     Csimain.obj
 0002:00000374       _deviceStatusRepollList$initializer$ 00427374     Csimain.obj
 0002:00000378       _workstationStatusRepollList$initializer$ 00427378     Csimain.obj
 0002:0000037c       _prDlg$initializer$        0042737c     Csimain.obj
 0002:00000380       _extListDlg$initializer$   00427380     Csimain.obj
 0002:00000384       _pollQueue$initializer$    00427384     Csimain.obj
 0002:00000388       _dgMsgQueue$initializer$   00427388     bbcnb32_static:BBCNB32.obj
 0002:00000394       _pcinit                    00427394     MSVCRT:crtexew.obj
 0002:00000398       _pinit                     00427398     MSVCRT:atonexit.obj
 0002:0000039c       _pinit                     0042739c     MSVCRT:crtexew.obj
 0002:000040c8       _txtHHCtrl$S28268          0042b0c8     htmlhelp:init.obj
 0002:000040d8       _txtInProc$S28269          0042b0d8     htmlhelp:init.obj
 0002:00004120       _GS_ExceptionPointers      0042b120     MSVCRT:gs_report.obj
 0002:00004668       __unwindtable$?_Assign_rv@?$basic_string@DU?$char_traits@D@std@@V?$allocator@D@2@@std@@QAEX$$QAV12@@Z 0042b668     database.obj
 0002:00004670       __ehfuncinfo$?_Assign_rv@?$basic_string@DU?$char_traits@D@std@@V?$allocator@D@2@@std@@QAEX$$QAV12@@Z 0042b670     database.obj
 0002:00004694       __catchsym$?_Copy@?$basic_string@DU?$char_traits@D@std@@V?$allocator@D@2@@std@@QAEXII@Z$6 0042b694     database.obj
 0002:000046a4       __catchsym$?_Copy@?$basic_string@DU?$char_traits@D@std@@V?$allocator@D@2@@std@@QAEXII@Z$5 0042b6a4     database.obj
 0002:000046b4       __ehfuncinfo$?_Copy@?$basic_string@DU?$char_traits@D@std@@V?$allocator@D@2@@std@@QAEXII@Z 0042b6b4     database.obj
 0002:000046d8       __tryblocktable$?_Copy@?$basic_string@DU?$char_traits@D@std@@V?$allocator@D@2@@std@@QAEXII@Z 0042b6d8     database.obj
 0002:00004700       __unwindtable$?_Copy@?$basic_string@DU?$char_traits@D@std@@V?$allocator@D@2@@std@@QAEXII@Z 0042b700     database.obj
 0002:00004728       __unwindtable$??1_Generic_error_category@std@@UAE@XZ 0042b728     database.obj
 0002:00004730       __ehfuncinfo$??1_Generic_error_category@std@@UAE@XZ 0042b730     database.obj
 0002:00004754       __unwindtable$??_G_Generic_error_category@std@@UAEPAXI@Z 0042b754     database.obj
 0002:0000475c       __ehfuncinfo$??_G_Generic_error_category@std@@UAEPAXI@Z 0042b75c     database.obj
 0002:00004780       __unwindtable$??_G_Iostream_error_category@std@@UAEPAXI@Z 0042b780     database.obj
 0002:00004780       __unwindtable$??_G_System_error_category@std@@UAEPAXI@Z 0042b780     database.obj
 0002:00004790       __ehfuncinfo$??_G_Iostream_error_category@std@@UAEPAXI@Z 0042b790     database.obj
 0002:00004790       __ehfuncinfo$??_G_System_error_category@std@@UAEPAXI@Z 0042b790     database.obj
 0002:000047b4       __unwindtable$?message@_System_error_category@std@@UBE?AV?$basic_string@DU?$char_traits@D@std@@V?$allocator@D@2@@2@H@Z 0042b7b4     database.obj
 0002:000047b4       __unwindtable$?message@_Generic_error_category@std@@UBE?AV?$basic_string@DU?$char_traits@D@std@@V?$allocator@D@2@@2@H@Z 0042b7b4     database.obj
 0002:000047bc       __ehfuncinfo$?message@_Generic_error_category@std@@UBE?AV?$basic_string@DU?$char_traits@D@std@@V?$allocator@D@2@@2@H@Z 0042b7bc     database.obj
 0002:000047bc       __ehfuncinfo$?message@_System_error_category@std@@UBE?AV?$basic_string@DU?$char_traits@D@std@@V?$allocator@D@2@@2@H@Z 0042b7bc     database.obj
 0002:000047e0       __ehfuncinfo$??0database@@QAE@PBDHH@Z 0042b7e0     database.obj
 0002:00004804       __unwindtable$??0database@@QAE@PBDHH@Z 0042b804     database.obj
 0002:00004834       __ehfuncinfo$??1database@@UAE@XZ 0042b834     database.obj
 0002:00004858       __unwindtable$??1database@@UAE@XZ 0042b858     database.obj
 0002:00004888       __unwindtable$?setName@database@@QAE_NHPBD_NPA_N@Z 0042b888     database.obj
 0002:000048a0       __ehfuncinfo$?setName@database@@QAE_NHPBD_NPA_N@Z 0042b8a0     database.obj
 0002:000048c4       __catchsym$?_Buyheadnode@?$_Tree_alloc@$0A@U?$_Tree_base_types@U?$pair@$$CBHV?$basic_string@DU?$char_traits@D@std@@V?$allocator@D@2@@std@@@std@@V?$allocator@U?$pair@$$CBHV?$basic_string@DU?$char_traits@D@std@@V?$allocator@D@2@@std@@@std@@@2@@std@@@std@@QAEPAU?$_Tree_node@U?$pair@$$CBHV?$basic_string@DU?$char_traits@D@std@@V?$allocator@D@2@@std@@@std@@PAX@2@XZ$2 0042b8c4     database.obj
 0002:000048c4       __catchsym$?_Buyheadnode@?$_Tree_alloc@$0A@U?$_Tree_base_types@U?$pair@$$CBGVserialError@@@std@@V?$allocator@U?$pair@$$CBGVserialError@@@std@@@2@@std@@@std@@QAEPAU?$_Tree_node@U?$pair@$$CBGVserialError@@@std@@PAX@2@XZ$2 0042b8c4     database.obj
 0002:000048d4       __unwindtable$?_Buyheadnode@?$_Tree_alloc@$0A@U?$_Tree_base_types@U?$pair@$$CBGVserialError@@@std@@V?$allocator@U?$pair@$$CBGVserialError@@@std@@@2@@std@@@std@@QAEPAU?$_Tree_node@U?$pair@$$CBGVserialError@@@std@@PAX@2@XZ 0042b8d4     database.obj
 0002:000048d4       __unwindtable$?_Buyheadnode@?$_Tree_alloc@$0A@U?$_Tree_base_types@U?$pair@$$CBHV?$basic_string@DU?$char_traits@D@std@@V?$allocator@D@2@@std@@@std@@V?$allocator@U?$pair@$$CBHV?$basic_string@DU?$char_traits@D@std@@V?$allocator@D@2@@std@@@std@@@2@@std@@@std@@QAEPAU?$_Tree_node@U?$pair@$$CBHV?$basic_string@DU?$char_traits@D@std@@V?$allocator@D@2@@std@@@std@@PAX@2@XZ 0042b8d4     database.obj
 0002:000048e4       __tryblocktable$?_Buyheadnode@?$_Tree_alloc@$0A@U?$_Tree_base_types@U?$pair@$$CBHV?$basic_string@DU?$char_traits@D@std@@V?$allocator@D@2@@std@@@std@@V?$allocator@U?$pair@$$CBHV?$basic_string@DU?$char_traits@D@std@@V?$allocator@D@2@@std@@@std@@@2@@std@@@std@@QAEPAU?$_Tree_node@U?$pair@$$CBHV?$basic_string@DU?$char_traits@D@std@@V?$allocator@D@2@@std@@@std@@PAX@2@XZ 0042b8e4     database.obj
 0002:000048e4       __tryblocktable$?_Buyheadnode@?$_Tree_alloc@$0A@U?$_Tree_base_types@U?$pair@$$CBGVserialError@@@std@@V?$allocator@U?$pair@$$CBGVserialError@@@std@@@2@@std@@@std@@QAEPAU?$_Tree_node@U?$pair@$$CBGVserialError@@@std@@PAX@2@XZ 0042b8e4     database.obj
 0002:000048f8       __ehfuncinfo$?_Buyheadnode@?$_Tree_alloc@$0A@U?$_Tree_base_types@U?$pair@$$CBGVserialError@@@std@@V?$allocator@U?$pair@$$CBGVserialError@@@std@@@2@@std@@@std@@QAEPAU?$_Tree_node@U?$pair@$$CBGVserialError@@@std@@PAX@2@XZ 0042b8f8     database.obj
 0002:000048f8       __ehfuncinfo$?_Buyheadnode@?$_Tree_alloc@$0A@U?$_Tree_base_types@U?$pair@$$CBHV?$basic_string@DU?$char_traits@D@std@@V?$allocator@D@2@@std@@@std@@V?$allocator@U?$pair@$$CBHV?$basic_string@DU?$char_traits@D@std@@V?$allocator@D@2@@std@@@std@@@2@@std@@@std@@QAEPAU?$_Tree_node@U?$pair@$$CBHV?$basic_string@DU?$char_traits@D@std@@V?$allocator@D@2@@std@@@std@@PAX@2@XZ 0042b8f8     database.obj
 0002:0000491c       __catchsym$?_Buynode0@?$_Tree_buy@U?$pair@$$CBGVserialError@@@std@@V?$allocator@U?$pair@$$CBGVserialError@@@std@@@2@@std@@QAEPAU?$_Tree_node@U?$pair@$$CBGVserialError@@@std@@PAX@2@XZ$2 0042b91c     database.obj
 0002:0000491c       __catchsym$?_Buynode0@?$_Tree_buy@U?$pair@$$CBHV?$basic_string@DU?$char_traits@D@std@@V?$allocator@D@2@@std@@@std@@V?$allocator@U?$pair@$$CBHV?$basic_string@DU?$char_traits@D@std@@V?$allocator@D@2@@std@@@std@@@2@@std@@QAEPAU?$_Tree_node@U?$pair@$$CBHV?$basic_string@DU?$char_traits@D@std@@V?$allocator@D@2@@std@@@std@@PAX@2@XZ$2 0042b91c     database.obj
 0002:0000492c       __unwindtable$?_Buynode0@?$_Tree_buy@U?$pair@$$CBHV?$basic_string@DU?$char_traits@D@std@@V?$allocator@D@2@@std@@@std@@V?$allocator@U?$pair@$$CBHV?$basic_string@DU?$char_traits@D@std@@V?$allocator@D@2@@std@@@std@@@2@@std@@QAEPAU?$_Tree_node@U?$pair@$$CBHV?$basic_string@DU?$char_traits@D@std@@V?$allocator@D@2@@std@@@std@@PAX@2@XZ 0042b92c     database.obj
 0002:0000492c       __unwindtable$?_Buynode0@?$_Tree_buy@U?$pair@$$CBGVserialError@@@std@@V?$allocator@U?$pair@$$CBGVserialError@@@std@@@2@@std@@QAEPAU?$_Tree_node@U?$pair@$$CBGVserialError@@@std@@PAX@2@XZ 0042b92c     database.obj
 0002:0000493c       __tryblocktable$?_Buynode0@?$_Tree_buy@U?$pair@$$CBHV?$basic_string@DU?$char_traits@D@std@@V?$allocator@D@2@@std@@@std@@V?$allocator@U?$pair@$$CBHV?$basic_string@DU?$char_traits@D@std@@V?$allocator@D@2@@std@@@std@@@2@@std@@QAEPAU?$_Tree_node@U?$pair@$$CBHV?$basic_string@DU?$char_traits@D@std@@V?$allocator@D@2@@std@@@std@@PAX@2@XZ 0042b93c     database.obj
 0002:0000493c       __tryblocktable$?_Buynode0@?$_Tree_buy@U?$pair@$$CBGVserialError@@@std@@V?$allocator@U?$pair@$$CBGVserialError@@@std@@@2@@std@@QAEPAU?$_Tree_node@U?$pair@$$CBGVserialError@@@std@@PAX@2@XZ 0042b93c     database.obj
 0002:00004950       __ehfuncinfo$?_Buynode0@?$_Tree_buy@U?$pair@$$CBGVserialError@@@std@@V?$allocator@U?$pair@$$CBGVserialError@@@std@@@2@@std@@QAEPAU?$_Tree_node@U?$pair@$$CBGVserialError@@@std@@PAX@2@XZ 0042b950     database.obj
 0002:00004950       __ehfuncinfo$?_Buynode0@?$_Tree_buy@U?$pair@$$CBHV?$basic_string@DU?$char_traits@D@std@@V?$allocator@D@2@@std@@@std@@V?$allocator@U?$pair@$$CBHV?$basic_string@DU?$char_traits@D@std@@V?$allocator@D@2@@std@@@std@@@2@@std@@QAEPAU?$_Tree_node@U?$pair@$$CBHV?$basic_string@DU?$char_traits@D@std@@V?$allocator@D@2@@std@@@std@@PAX@2@XZ 0042b950     database.obj
 0002:00004974       __unwindtable$?erase@?$_Tree@V?$_Tmap_traits@HV?$basic_string@DU?$char_traits@D@std@@V?$allocator@D@2@@std@@U?$less@H@2@V?$allocator@U?$pair@$$CBHV?$basic_string@DU?$char_traits@D@std@@V?$allocator@D@2@@std@@@std@@@2@$0A@@std@@@std@@QAE?AV?$_Tree_iterator@V?$_Tree_val@U?$_Tree_simple_types@U?$pair@$$CBHV?$basic_string@DU?$char_traits@D@std@@V?$allocator@D@2@@std@@@std@@@std@@@std@@@2@V?$_Tree_const_iterator@V?$_Tree_val@U?$_Tree_simple_types@U?$pair@$$CBHV?$basic_string@DU?$char_traits@D@std@@V?$allocator@D@2@@std@@@std@@@std@@@std@@@2@@Z 0042b974     database.obj
 0002:0000497c       __ehfuncinfo$?erase@?$_Tree@V?$_Tmap_traits@HV?$basic_string@DU?$char_traits@D@std@@V?$allocator@D@2@@std@@U?$less@H@2@V?$allocator@U?$pair@$$CBHV?$basic_string@DU?$char_traits@D@std@@V?$allocator@D@2@@std@@@std@@@2@$0A@@std@@@std@@QAE?AV?$_Tree_iterator@V?$_Tree_val@U?$_Tree_simple_types@U?$pair@$$CBHV?$basic_string@DU?$char_traits@D@std@@V?$allocator@D@2@@std@@@std@@@std@@@std@@@2@V?$_Tree_const_iterator@V?$_Tree_val@U?$_Tree_simple_types@U?$pair@$$CBHV?$basic_string@DU?$char_traits@D@std@@V?$allocator@D@2@@std@@@std@@@std@@@std@@@2@@Z 0042b97c     database.obj
 0002:000049a0       __unwindtable$?_Destroy_if_not_nil@?$_Tree@V?$_Tmap_traits@HV?$basic_string@DU?$char_traits@D@std@@V?$allocator@D@2@@std@@U?$less@H@2@V?$allocator@U?$pair@$$CBHV?$basic_string@DU?$char_traits@D@std@@V?$allocator@D@2@@std@@@std@@@2@$0A@@std@@@std@@IAEXPAU?$_Tree_node@U?$pair@$$CBHV?$basic_string@DU?$char_traits@D@std@@V?$allocator@D@2@@std@@@std@@PAX@2@@Z 0042b9a0     database.obj
 0002:000049a8       __ehfuncinfo$?_Destroy_if_not_nil@?$_Tree@V?$_Tmap_traits@HV?$basic_string@DU?$char_traits@D@std@@V?$allocator@D@2@@std@@U?$less@H@2@V?$allocator@U?$pair@$$CBHV?$basic_string@DU?$char_traits@D@std@@V?$allocator@D@2@@std@@@std@@@2@$0A@@std@@@std@@IAEXPAU?$_Tree_node@U?$pair@$$CBHV?$basic_string@DU?$char_traits@D@std@@V?$allocator@D@2@@std@@@std@@PAX@2@@Z 0042b9a8     database.obj
 0002:000049cc       __unwindtable$?_Erase@?$_Tree@V?$_Tmap_traits@HV?$basic_string@DU?$char_traits@D@std@@V?$allocator@D@2@@std@@U?$less@H@2@V?$allocator@U?$pair@$$CBHV?$basic_string@DU?$char_traits@D@std@@V?$allocator@D@2@@std@@@std@@@2@$0A@@std@@@std@@IAEXPAU?$_Tree_node@U?$pair@$$CBHV?$basic_string@DU?$char_traits@D@std@@V?$allocator@D@2@@std@@@std@@PAX@2@@Z 0042b9cc     database.obj
 0002:000049d4       __ehfuncinfo$?_Erase@?$_Tree@V?$_Tmap_traits@HV?$basic_string@DU?$char_traits@D@std@@V?$allocator@D@2@@std@@U?$less@H@2@V?$allocator@U?$pair@$$CBHV?$basic_string@DU?$char_traits@D@std@@V?$allocator@D@2@@std@@@std@@@2@$0A@@std@@@std@@IAEXPAU?$_Tree_node@U?$pair@$$CBHV?$basic_string@DU?$char_traits@D@std@@V?$allocator@D@2@@std@@@std@@PAX@2@@Z 0042b9d4     database.obj
 0002:000049f8       __unwindtable$??1?$map@HV?$basic_string@DU?$char_traits@D@std@@V?$allocator@D@2@@std@@U?$less@H@2@V?$allocator@U?$pair@$$CBHV?$basic_string@DU?$char_traits@D@std@@V?$allocator@D@2@@std@@@std@@@2@@std@@QAE@XZ 0042b9f8     database.obj
 0002:00004a18       __ehfuncinfo$??1?$map@HV?$basic_string@DU?$char_traits@D@std@@V?$allocator@D@2@@std@@U?$less@H@2@V?$allocator@U?$pair@$$CBHV?$basic_string@DU?$char_traits@D@std@@V?$allocator@D@2@@std@@@std@@@2@@std@@QAE@XZ 0042ba18     database.obj
 0002:00004a3c       __ehfuncinfo$?load@database@@AAEXPBDHH@Z 0042ba3c     database.obj
 0002:00004a60       __unwindtable$?load@database@@AAEXPBDHH@Z 0042ba60     database.obj
 0002:00004a88       __unwindtable$??__F?_Generic_object@?$_Error_objects@H@std@@2V_Generic_error_category@2@A@@YAXXZ 0042ba88     database.obj
 0002:00004a88       __unwindtable$??__E?_Generic_object@?$_Error_objects@H@std@@2V_Generic_error_category@2@A@@YAXXZ 0042ba88     database.obj
 0002:00004a90       __ehfuncinfo$??__E?_Generic_object@?$_Error_objects@H@std@@2V_Generic_error_category@2@A@@YAXXZ 0042ba90     database.obj
 0002:00004a90       __ehfuncinfo$??__F?_Generic_object@?$_Error_objects@H@std@@2V_Generic_error_category@2@A@@YAXXZ 0042ba90     database.obj
 0002:00004ab4       __unwindtable$??__E?_Iostream_object@?$_Error_objects@H@std@@2V_Iostream_error_category@2@A@@YAXXZ 0042bab4     database.obj
 0002:00004ac4       __ehfuncinfo$??__E?_Iostream_object@?$_Error_objects@H@std@@2V_Iostream_error_category@2@A@@YAXXZ 0042bac4     database.obj
 0002:00004ae8       __unwindtable$??__F?_Iostream_object@?$_Error_objects@H@std@@2V_Iostream_error_category@2@A@@YAXXZ 0042bae8     database.obj
 0002:00004af8       __ehfuncinfo$??__F?_Iostream_object@?$_Error_objects@H@std@@2V_Iostream_error_category@2@A@@YAXXZ 0042baf8     database.obj
 0002:00004b1c       __unwindtable$??__E?_System_object@?$_Error_objects@H@std@@2V_System_error_category@2@A@@YAXXZ 0042bb1c     database.obj
 0002:00004b2c       __ehfuncinfo$??__E?_System_object@?$_Error_objects@H@std@@2V_System_error_category@2@A@@YAXXZ 0042bb2c     database.obj
 0002:00004b50       __unwindtable$??__F?_System_object@?$_Error_objects@H@std@@2V_System_error_category@2@A@@YAXXZ 0042bb50     database.obj
 0002:00004b60       __ehfuncinfo$??__F?_System_object@?$_Error_objects@H@std@@2V_System_error_category@2@A@@YAXXZ 0042bb60     database.obj
 0002:00004b84       __catchsym$??$_Buynode@U?$pair@HV?$basic_string@DU?$char_traits@D@std@@V?$allocator@D@2@@std@@@std@@@?$_Tree_buy@U?$pair@$$CBHV?$basic_string@DU?$char_traits@D@std@@V?$allocator@D@2@@std@@@std@@V?$allocator@U?$pair@$$CBHV?$basic_string@DU?$char_traits@D@std@@V?$allocator@D@2@@std@@@std@@@2@@std@@QAEPAU?$_Tree_node@U?$pair@$$CBHV?$basic_string@DU?$char_traits@D@std@@V?$allocator@D@2@@std@@@std@@PAX@1@$$QAU?$pair@HV?$basic_string@DU?$char_traits@D@std@@V?$allocator@D@2@@std@@@1@@Z$2 0042bb84     database.obj
 0002:00004b94       __unwindtable$??$_Buynode@U?$pair@HV?$basic_string@DU?$char_traits@D@std@@V?$allocator@D@2@@std@@@std@@@?$_Tree_buy@U?$pair@$$CBHV?$basic_string@DU?$char_traits@D@std@@V?$allocator@D@2@@std@@@std@@V?$allocator@U?$pair@$$CBHV?$basic_string@DU?$char_traits@D@std@@V?$allocator@D@2@@std@@@std@@@2@@std@@QAEPAU?$_Tree_node@U?$pair@$$CBHV?$basic_string@DU?$char_traits@D@std@@V?$allocator@D@2@@std@@@std@@PAX@1@$$QAU?$pair@HV?$basic_string@DU?$char_traits@D@std@@V?$allocator@D@2@@std@@@1@@Z 0042bb94     database.obj
 0002:00004ba4       __tryblocktable$??$_Buynode@U?$pair@HV?$basic_string@DU?$char_traits@D@std@@V?$allocator@D@2@@std@@@std@@@?$_Tree_buy@U?$pair@$$CBHV?$basic_string@DU?$char_traits@D@std@@V?$allocator@D@2@@std@@@std@@V?$allocator@U?$pair@$$CBHV?$basic_string@DU?$char_traits@D@std@@V?$allocator@D@2@@std@@@std@@@2@@std@@QAEPAU?$_Tree_node@U?$pair@$$CBHV?$basic_string@DU?$char_traits@D@std@@V?$allocator@D@2@@std@@@std@@PAX@1@$$QAU?$pair@HV?$basic_string@DU?$char_traits@D@std@@V?$allocator@D@2@@std@@@1@@Z 0042bba4     database.obj
 0002:00004bb8       __ehfuncinfo$??$_Buynode@U?$pair@HV?$basic_string@DU?$char_traits@D@std@@V?$allocator@D@2@@std@@@std@@@?$_Tree_buy@U?$pair@$$CBHV?$basic_string@DU?$char_traits@D@std@@V?$allocator@D@2@@std@@@std@@V?$allocator@U?$pair@$$CBHV?$basic_string@DU?$char_traits@D@std@@V?$allocator@D@2@@std@@@std@@@2@@std@@QAEPAU?$_Tree_node@U?$pair@$$CBHV?$basic_string@DU?$char_traits@D@std@@V?$allocator@D@2@@std@@@std@@PAX@1@$$QAU?$pair@HV?$basic_string@DU?$char_traits@D@std@@V?$allocator@D@2@@std@@@1@@Z 0042bbb8     database.obj
 0002:00004bdc       __catchsym$??$_Insert_nohint@AAU?$pair@$$CBHV?$basic_string@DU?$char_traits@D@std@@V?$allocator@D@2@@std@@@std@@PAU?$_Tree_node@U?$pair@$$CBHV?$basic_string@DU?$char_traits@D@std@@V?$allocator@D@2@@std@@@std@@PAX@2@@?$_Tree@V?$_Tmap_traits@HV?$basic_string@DU?$char_traits@D@std@@V?$allocator@D@2@@std@@U?$less@H@2@V?$allocator@U?$pair@$$CBHV?$basic_string@DU?$char_traits@D@std@@V?$allocator@D@2@@std@@@std@@@2@$0A@@std@@@std@@IAE?AU?$pair@V?$_Tree_iterator@V?$_Tree_val@U?$_Tree_simple_types@U?$pair@$$CBHV?$basic_string@DU?$char_traits@D@std@@V?$allocator@D@2@@std@@@std@@@std@@@std@@@std@@_N@1@_NAAU?$pair@$$CBHV?$basic_string@DU?$char_traits@D@std@@V?$allocator@D@2@@std@@@1@PAU?$_Tree_node@U?$pair@$$CBHV?$basic_string@DU?$char_traits@D@std@@V?$allocator@D@2@@std@@@std@@PAX@1@@Z$2 0042bbdc     database.obj
 0002:00004bec       __unwindtable$??$_Insert_nohint@AAU?$pair@$$CBHV?$basic_string@DU?$char_traits@D@std@@V?$allocator@D@2@@std@@@std@@PAU?$_Tree_node@U?$pair@$$CBHV?$basic_string@DU?$char_traits@D@std@@V?$allocator@D@2@@std@@@std@@PAX@2@@?$_Tree@V?$_Tmap_traits@HV?$basic_string@DU?$char_traits@D@std@@V?$allocator@D@2@@std@@U?$less@H@2@V?$allocator@U?$pair@$$CBHV?$basic_string@DU?$char_traits@D@std@@V?$allocator@D@2@@std@@@std@@@2@$0A@@std@@@std@@IAE?AU?$pair@V?$_Tree_iterator@V?$_Tree_val@U?$_Tree_simple_types@U?$pair@$$CBHV?$basic_string@DU?$char_traits@D@std@@V?$allocator@D@2@@std@@@std@@@std@@@std@@@std@@_N@1@_NAAU?$pair@$$CBHV?$basic_string@DU?$char_traits@D@std@@V?$allocator@D@2@@std@@@1@PAU?$_Tree_node@U?$pair@$$CBHV?$basic_string@DU?$char_traits@D@std@@V?$allocator@D@2@@std@@@std@@PAX@1@@Z 0042bbec     database.obj
 0002:00004bfc       __tryblocktable$??$_Insert_nohint@AAU?$pair@$$CBHV?$basic_string@DU?$char_traits@D@std@@V?$allocator@D@2@@std@@@std@@PAU?$_Tree_node@U?$pair@$$CBHV?$basic_string@DU?$char_traits@D@std@@V?$allocator@D@2@@std@@@std@@PAX@2@@?$_Tree@V?$_Tmap_traits@HV?$basic_string@DU?$char_traits@D@std@@V?$allocator@D@2@@std@@U?$less@H@2@V?$allocator@U?$pair@$$CBHV?$basic_string@DU?$char_traits@D@std@@V?$allocator@D@2@@std@@@std@@@2@$0A@@std@@@std@@IAE?AU?$pair@V?$_Tree_iterator@V?$_Tree_val@U?$_Tree_simple_types@U?$pair@$$CBHV?$basic_string@DU?$char_traits@D@std@@V?$allocator@D@2@@std@@@std@@@std@@@std@@@std@@_N@1@_NAAU?$pair@$$CBHV?$basic_string@DU?$char_traits@D@std@@V?$allocator@D@2@@std@@@1@PAU?$_Tree_node@U?$pair@$$CBHV?$basic_string@DU?$char_traits@D@std@@V?$allocator@D@2@@std@@@std@@PAX@1@@Z 0042bbfc     database.obj
 0002:00004c10       __ehfuncinfo$??$_Insert_nohint@AAU?$pair@$$CBHV?$basic_string@DU?$char_traits@D@std@@V?$allocator@D@2@@std@@@std@@PAU?$_Tree_node@U?$pair@$$CBHV?$basic_string@DU?$char_traits@D@std@@V?$allocator@D@2@@std@@@std@@PAX@2@@?$_Tree@V?$_Tmap_traits@HV?$basic_string@DU?$char_traits@D@std@@V?$allocator@D@2@@std@@U?$less@H@2@V?$allocator@U?$pair@$$CBHV?$basic_string@DU?$char_traits@D@std@@V?$allocator@D@2@@std@@@std@@@2@$0A@@std@@@std@@IAE?AU?$pair@V?$_Tree_iterator@V?$_Tree_val@U?$_Tree_simple_types@U?$pair@$$CBHV?$basic_string@DU?$char_traits@D@std@@V?$allocator@D@2@@std@@@std@@@std@@@std@@@std@@_N@1@_NAAU?$pair@$$CBHV?$basic_string@DU?$char_traits@D@std@@V?$allocator@D@2@@std@@@1@PAU?$_Tree_node@U?$pair@$$CBHV?$basic_string@DU?$char_traits@D@std@@V?$allocator@D@2@@std@@@std@@PAX@1@@Z 0042bc10     database.obj
 0002:00004c34       __unwindtable$??$construct@U?$pair@$$CBHV?$basic_string@DU?$char_traits@D@std@@V?$allocator@D@2@@std@@@std@@U?$pair@HV?$basic_string@DU?$char_traits@D@std@@V?$allocator@D@2@@std@@@2@@?$_Wrap_alloc@V?$allocator@U?$_Tree_node@U?$pair@$$CBHV?$basic_string@DU?$char_traits@D@std@@V?$allocator@D@2@@std@@@std@@PAX@std@@@std@@@std@@QAEXPAU?$pair@$$CBHV?$basic_string@DU?$char_traits@D@std@@V?$allocator@D@2@@std@@@1@$$QAU?$pair@HV?$basic_string@DU?$char_traits@D@std@@V?$allocator@D@2@@std@@@1@@Z 0042bc34     database.obj
 0002:00004c44       __ehfuncinfo$??$construct@U?$pair@$$CBHV?$basic_string@DU?$char_traits@D@std@@V?$allocator@D@2@@std@@@std@@U?$pair@HV?$basic_string@DU?$char_traits@D@std@@V?$allocator@D@2@@std@@@2@@?$_Wrap_alloc@V?$allocator@U?$_Tree_node@U?$pair@$$CBHV?$basic_string@DU?$char_traits@D@std@@V?$allocator@D@2@@std@@@std@@PAX@std@@@std@@@std@@QAEXPAU?$pair@$$CBHV?$basic_string@DU?$char_traits@D@std@@V?$allocator@D@2@@std@@@1@$$QAU?$pair@HV?$basic_string@DU?$char_traits@D@std@@V?$allocator@D@2@@std@@@1@@Z 0042bc44     database.obj
 0002:00004c68       __unwindtable$??$_Insert_at@AAU?$pair@$$CBHV?$basic_string@DU?$char_traits@D@std@@V?$allocator@D@2@@std@@@std@@PAU?$_Tree_node@U?$pair@$$CBHV?$basic_string@DU?$char_traits@D@std@@V?$allocator@D@2@@std@@@std@@PAX@2@@?$_Tree@V?$_Tmap_traits@HV?$basic_string@DU?$char_traits@D@std@@V?$allocator@D@2@@std@@U?$less@H@2@V?$allocator@U?$pair@$$CBHV?$basic_string@DU?$char_traits@D@std@@V?$allocator@D@2@@std@@@std@@@2@$0A@@std@@@std@@IAE?AV?$_Tree_iterator@V?$_Tree_val@U?$_Tree_simple_types@U?$pair@$$CBHV?$basic_string@DU?$char_traits@D@std@@V?$allocator@D@2@@std@@@std@@@std@@@std@@@1@_NPAU?$_Tree_node@U?$pair@$$CBHV?$basic_string@DU?$char_traits@D@std@@V?$allocator@D@2@@std@@@std@@PAX@1@AAU?$pair@$$CBHV?$basic_string@DU?$char_traits@D@std@@V?$allocator@D@2@@std@@@1@1@Z 0042bc68     database.obj
 0002:00004c70       __ehfuncinfo$??$_Insert_at@AAU?$pair@$$CBHV?$basic_string@DU?$char_traits@D@std@@V?$allocator@D@2@@std@@@std@@PAU?$_Tree_node@U?$pair@$$CBHV?$basic_string@DU?$char_traits@D@std@@V?$allocator@D@2@@std@@@std@@PAX@2@@?$_Tree@V?$_Tmap_traits@HV?$basic_string@DU?$char_traits@D@std@@V?$allocator@D@2@@std@@U?$less@H@2@V?$allocator@U?$pair@$$CBHV?$basic_string@DU?$char_traits@D@std@@V?$allocator@D@2@@std@@@std@@@2@$0A@@std@@@std@@IAE?AV?$_Tree_iterator@V?$_Tree_val@U?$_Tree_simple_types@U?$pair@$$CBHV?$basic_string@DU?$char_traits@D@std@@V?$allocator@D@2@@std@@@std@@@std@@@std@@@1@_NPAU?$_Tree_node@U?$pair@$$CBHV?$basic_string@DU?$char_traits@D@std@@V?$allocator@D@2@@std@@@std@@PAX@1@AAU?$pair@$$CBHV?$basic_string@DU?$char_traits@D@std@@V?$allocator@D@2@@std@@@1@1@Z 0042bc70     database.obj
 0002:00004c94       __catchsym$?_Buyheadnode@?$_Tree_alloc@$0A@U?$_Tree_base_types@U?$pair@$$CBKK@std@@V?$allocator@U?$pair@$$CBKK@std@@@2@@std@@@std@@QAEPAU?$_Tree_node@U?$pair@$$CBKK@std@@PAX@2@XZ$2 0042bc94     databaseMgr.obj
 0002:00004c94       __catchsym$?_Buyheadnode@?$_Tree_alloc@$0A@U?$_Tree_base_types@U?$pair@QAUHWND__@@K@std@@V?$allocator@U?$pair@QAUHWND__@@K@std@@@2@@std@@@std@@QAEPAU?$_Tree_node@U?$pair@QAUHWND__@@K@std@@PAX@2@XZ$2 0042bc94     databaseMgr.obj
 0002:00004c94       __catchsym$?_Buyheadnode@?$_Tree_alloc@$0A@U?$_Tree_base_types@U?$pair@$$CBHPAVdatabase@@@std@@V?$allocator@U?$pair@$$CBHPAVdatabase@@@std@@@2@@std@@@std@@QAEPAU?$_Tree_node@U?$pair@$$CBHPAVdatabase@@@std@@PAX@2@XZ$2 0042bc94     databaseMgr.obj
 0002:00004ca4       __unwindtable$?_Buyheadnode@?$_Tree_alloc@$0A@U?$_Tree_base_types@U?$pair@$$CBHPAVdatabase@@@std@@V?$allocator@U?$pair@$$CBHPAVdatabase@@@std@@@2@@std@@@std@@QAEPAU?$_Tree_node@U?$pair@$$CBHPAVdatabase@@@std@@PAX@2@XZ 0042bca4     databaseMgr.obj
 0002:00004ca4       __unwindtable$?_Buyheadnode@?$_Tree_alloc@$0A@U?$_Tree_base_types@U?$pair@$$CBKK@std@@V?$allocator@U?$pair@$$CBKK@std@@@2@@std@@@std@@QAEPAU?$_Tree_node@U?$pair@$$CBKK@std@@PAX@2@XZ 0042bca4     databaseMgr.obj
 0002:00004ca4       __unwindtable$?_Buyheadnode@?$_Tree_alloc@$0A@U?$_Tree_base_types@U?$pair@QAUHWND__@@K@std@@V?$allocator@U?$pair@QAUHWND__@@K@std@@@2@@std@@@std@@QAEPAU?$_Tree_node@U?$pair@QAUHWND__@@K@std@@PAX@2@XZ 0042bca4     databaseMgr.obj
 0002:00004cb4       __tryblocktable$?_Buyheadnode@?$_Tree_alloc@$0A@U?$_Tree_base_types@U?$pair@QAUHWND__@@K@std@@V?$allocator@U?$pair@QAUHWND__@@K@std@@@2@@std@@@std@@QAEPAU?$_Tree_node@U?$pair@QAUHWND__@@K@std@@PAX@2@XZ 0042bcb4     databaseMgr.obj
 0002:00004cb4       __tryblocktable$?_Buyheadnode@?$_Tree_alloc@$0A@U?$_Tree_base_types@U?$pair@$$CBKK@std@@V?$allocator@U?$pair@$$CBKK@std@@@2@@std@@@std@@QAEPAU?$_Tree_node@U?$pair@$$CBKK@std@@PAX@2@XZ 0042bcb4     databaseMgr.obj
 0002:00004cb4       __tryblocktable$?_Buyheadnode@?$_Tree_alloc@$0A@U?$_Tree_base_types@U?$pair@$$CBHPAVdatabase@@@std@@V?$allocator@U?$pair@$$CBHPAVdatabase@@@std@@@2@@std@@@std@@QAEPAU?$_Tree_node@U?$pair@$$CBHPAVdatabase@@@std@@PAX@2@XZ 0042bcb4     databaseMgr.obj
 0002:00004cc8       __ehfuncinfo$?_Buyheadnode@?$_Tree_alloc@$0A@U?$_Tree_base_types@U?$pair@$$CBHPAVdatabase@@@std@@V?$allocator@U?$pair@$$CBHPAVdatabase@@@std@@@2@@std@@@std@@QAEPAU?$_Tree_node@U?$pair@$$CBHPAVdatabase@@@std@@PAX@2@XZ 0042bcc8     databaseMgr.obj
 0002:00004cc8       __ehfuncinfo$?_Buyheadnode@?$_Tree_alloc@$0A@U?$_Tree_base_types@U?$pair@$$CBKK@std@@V?$allocator@U?$pair@$$CBKK@std@@@2@@std@@@std@@QAEPAU?$_Tree_node@U?$pair@$$CBKK@std@@PAX@2@XZ 0042bcc8     databaseMgr.obj
 0002:00004cc8       __ehfuncinfo$?_Buyheadnode@?$_Tree_alloc@$0A@U?$_Tree_base_types@U?$pair@QAUHWND__@@K@std@@V?$allocator@U?$pair@QAUHWND__@@K@std@@@2@@std@@@std@@QAEPAU?$_Tree_node@U?$pair@QAUHWND__@@K@std@@PAX@2@XZ 0042bcc8     databaseMgr.obj
 0002:00004cec       __unwindtable$??1?$_Tree_buy@U?$pair@$$CBKK@std@@V?$allocator@U?$pair@$$CBKK@std@@@2@@std@@QAE@XZ 0042bcec     databaseMgr.obj
 0002:00004cec       __unwindtable$??1?$_Tree_buy@U?$pair@$$CBHPAVdatabase@@@std@@V?$allocator@U?$pair@$$CBHPAVdatabase@@@std@@@2@@std@@QAE@XZ 0042bcec     databaseMgr.obj
 0002:00004cec       __unwindtable$??1?$_Tree_buy@U?$pair@$$CBHV?$basic_string@DU?$char_traits@D@std@@V?$allocator@D@2@@std@@@std@@V?$allocator@U?$pair@$$CBHV?$basic_string@DU?$char_traits@D@std@@V?$allocator@D@2@@std@@@std@@@2@@std@@QAE@XZ 0042bcec     databaseMgr.obj
 0002:00004cec       __unwindtable$??1?$_List_buy@VdeviceStatusOnHost@@V?$allocator@VdeviceStatusOnHost@@@std@@@std@@QAE@XZ 0042bcec     databaseMgr.obj
 0002:00004cec       __unwindtable$??1?$_List_buy@VserialError@@V?$allocator@VserialError@@@std@@@std@@QAE@XZ 0042bcec     databaseMgr.obj
 0002:00004cec       __unwindtable$??1?$_Tree_buy@U?$pair@$$CBHVdeviceStatusOnHost@@@std@@V?$allocator@U?$pair@$$CBHVdeviceStatusOnHost@@@std@@@2@@std@@QAE@XZ 0042bcec     databaseMgr.obj
 0002:00004cec       __unwindtable$??1?$_Tree_buy@HV?$allocator@H@std@@@std@@QAE@XZ 0042bcec     databaseMgr.obj
 0002:00004cec       __unwindtable$??1?$_Tree_buy@U?$pair@QAUHWND__@@K@std@@V?$allocator@U?$pair@QAUHWND__@@K@std@@@2@@std@@QAE@XZ 0042bcec     databaseMgr.obj
 0002:00004cec       __unwindtable$??1?$_Tree_buy@U?$pair@$$CBGVserialError@@@std@@V?$allocator@U?$pair@$$CBGVserialError@@@std@@@2@@std@@QAE@XZ 0042bcec     databaseMgr.obj
 0002:00004cec       __unwindtable$??1?$_Tree_buy@U?$pair@$$CBKVsizedBuffer@@@std@@V?$allocator@U?$pair@$$CBKVsizedBuffer@@@std@@@2@@std@@QAE@XZ 0042bcec     databaseMgr.obj
 0002:00004cec       __unwindtable$??1?$_List_buy@PAUHWND__@@V?$allocator@PAUHWND__@@@std@@@std@@QAE@XZ 0042bcec     databaseMgr.obj
 0002:00004cf4       __ehfuncinfo$??1?$_Tree_buy@U?$pair@$$CBKK@std@@V?$allocator@U?$pair@$$CBKK@std@@@2@@std@@QAE@XZ 0042bcf4     databaseMgr.obj
 0002:00004cf4       __ehfuncinfo$??1?$_List_buy@PAUHWND__@@V?$allocator@PAUHWND__@@@std@@@std@@QAE@XZ 0042bcf4     databaseMgr.obj
 0002:00004cf4       __ehfuncinfo$??1?$_Tree_buy@U?$pair@QAUHWND__@@K@std@@V?$allocator@U?$pair@QAUHWND__@@K@std@@@2@@std@@QAE@XZ 0042bcf4     databaseMgr.obj
 0002:00004cf4       __ehfuncinfo$??1?$_Tree_buy@U?$pair@$$CBGVserialError@@@std@@V?$allocator@U?$pair@$$CBGVserialError@@@std@@@2@@std@@QAE@XZ 0042bcf4     databaseMgr.obj
 0002:00004cf4       __ehfuncinfo$??1?$_Tree_buy@U?$pair@$$CBHVdeviceStatusOnHost@@@std@@V?$allocator@U?$pair@$$CBHVdeviceStatusOnHost@@@std@@@2@@std@@QAE@XZ 0042bcf4     databaseMgr.obj
 0002:00004cf4       __ehfuncinfo$??1?$_Tree_buy@U?$pair@$$CBHPAVdatabase@@@std@@V?$allocator@U?$pair@$$CBHPAVdatabase@@@std@@@2@@std@@QAE@XZ 0042bcf4     databaseMgr.obj
 0002:00004cf4       __ehfuncinfo$??1?$_List_buy@VserialError@@V?$allocator@VserialError@@@std@@@std@@QAE@XZ 0042bcf4     databaseMgr.obj
 0002:00004cf4       __ehfuncinfo$??1?$_Tree_buy@U?$pair@$$CBKVsizedBuffer@@@std@@V?$allocator@U?$pair@$$CBKVsizedBuffer@@@std@@@2@@std@@QAE@XZ 0042bcf4     databaseMgr.obj
 0002:00004cf4       __ehfuncinfo$??1?$_Tree_buy@HV?$allocator@H@std@@@std@@QAE@XZ 0042bcf4     databaseMgr.obj
 0002:00004cf4       __ehfuncinfo$??1?$_List_buy@VdeviceStatusOnHost@@V?$allocator@VdeviceStatusOnHost@@@std@@@std@@QAE@XZ 0042bcf4     databaseMgr.obj
 0002:00004cf4       __ehfuncinfo$??1?$_Tree_buy@U?$pair@$$CBHV?$basic_string@DU?$char_traits@D@std@@V?$allocator@D@2@@std@@@std@@V?$allocator@U?$pair@$$CBHV?$basic_string@DU?$char_traits@D@std@@V?$allocator@D@2@@std@@@std@@@2@@std@@QAE@XZ 0042bcf4     databaseMgr.obj
 0002:00004d18       __unwindtable$??1?$map@HVdeviceStatusOnHost@@U?$less@H@std@@V?$allocator@U?$pair@$$CBHVdeviceStatusOnHost@@@std@@@3@@std@@QAE@XZ 0042bd18     databaseMgr.obj
 0002:00004d18       __unwindtable$??1?$map@PAUHWND__@@KU?$less@PAUHWND__@@@std@@V?$allocator@U?$pair@QAUHWND__@@K@std@@@3@@std@@QAE@XZ 0042bd18     databaseMgr.obj
 0002:00004d18       __unwindtable$??1?$map@HPAVdatabase@@U?$less@H@std@@V?$allocator@U?$pair@$$CBHPAVdatabase@@@std@@@3@@std@@QAE@XZ 0042bd18     databaseMgr.obj
 0002:00004d18       __unwindtable$??1?$map@KKU?$less@K@std@@V?$allocator@U?$pair@$$CBKK@std@@@2@@std@@QAE@XZ 0042bd18     databaseMgr.obj
 0002:00004d38       __ehfuncinfo$??1?$map@PAUHWND__@@KU?$less@PAUHWND__@@@std@@V?$allocator@U?$pair@QAUHWND__@@K@std@@@3@@std@@QAE@XZ 0042bd38     databaseMgr.obj
 0002:00004d38       __ehfuncinfo$??1?$map@KKU?$less@K@std@@V?$allocator@U?$pair@$$CBKK@std@@@2@@std@@QAE@XZ 0042bd38     databaseMgr.obj
 0002:00004d38       __ehfuncinfo$??1?$map@HVdeviceStatusOnHost@@U?$less@H@std@@V?$allocator@U?$pair@$$CBHVdeviceStatusOnHost@@@std@@@3@@std@@QAE@XZ 0042bd38     databaseMgr.obj
 0002:00004d38       __ehfuncinfo$??1?$map@HPAVdatabase@@U?$less@H@std@@V?$allocator@U?$pair@$$CBHPAVdatabase@@@std@@@3@@std@@QAE@XZ 0042bd38     databaseMgr.obj
 0002:00004d5c       __unwindtable$?doCreate@databaseMgr@@AAEPAVdatabase@@HH@Z 0042bd5c     databaseMgr.obj
 0002:00004d64       __ehfuncinfo$?doCreate@databaseMgr@@AAEPAVdatabase@@HH@Z 0042bd64     databaseMgr.obj
 0002:00004d88       __catchsym$??$_Buynode@U?$pair@HPAVdatabase@@@std@@@?$_Tree_buy@U?$pair@$$CBHPAVdatabase@@@std@@V?$allocator@U?$pair@$$CBHPAVdatabase@@@std@@@2@@std@@QAEPAU?$_Tree_node@U?$pair@$$CBHPAVdatabase@@@std@@PAX@1@$$QAU?$pair@HPAVdatabase@@@1@@Z$2 0042bd88     databaseMgr.obj
 0002:00004d88       __catchsym$??$_Buynode@U?$pair@KK@std@@@?$_Tree_buy@U?$pair@$$CBKK@std@@V?$allocator@U?$pair@$$CBKK@std@@@2@@std@@QAEPAU?$_Tree_node@U?$pair@$$CBKK@std@@PAX@1@$$QAU?$pair@KK@1@@Z$2 0042bd88     databaseMgr.obj
 0002:00004d98       __unwindtable$??$_Buynode@U?$pair@KK@std@@@?$_Tree_buy@U?$pair@$$CBKK@std@@V?$allocator@U?$pair@$$CBKK@std@@@2@@std@@QAEPAU?$_Tree_node@U?$pair@$$CBKK@std@@PAX@1@$$QAU?$pair@KK@1@@Z 0042bd98     databaseMgr.obj
 0002:00004d98       __unwindtable$??$_Buynode@U?$pair@HPAVdatabase@@@std@@@?$_Tree_buy@U?$pair@$$CBHPAVdatabase@@@std@@V?$allocator@U?$pair@$$CBHPAVdatabase@@@std@@@2@@std@@QAEPAU?$_Tree_node@U?$pair@$$CBHPAVdatabase@@@std@@PAX@1@$$QAU?$pair@HPAVdatabase@@@1@@Z 0042bd98     databaseMgr.obj
 0002:00004da8       __tryblocktable$??$_Buynode@U?$pair@KK@std@@@?$_Tree_buy@U?$pair@$$CBKK@std@@V?$allocator@U?$pair@$$CBKK@std@@@2@@std@@QAEPAU?$_Tree_node@U?$pair@$$CBKK@std@@PAX@1@$$QAU?$pair@KK@1@@Z 0042bda8     databaseMgr.obj
 0002:00004da8       __tryblocktable$??$_Buynode@U?$pair@HPAVdatabase@@@std@@@?$_Tree_buy@U?$pair@$$CBHPAVdatabase@@@std@@V?$allocator@U?$pair@$$CBHPAVdatabase@@@std@@@2@@std@@QAEPAU?$_Tree_node@U?$pair@$$CBHPAVdatabase@@@std@@PAX@1@$$QAU?$pair@HPAVdatabase@@@1@@Z 0042bda8     databaseMgr.obj
 0002:00004dbc       __ehfuncinfo$??$_Buynode@U?$pair@HPAVdatabase@@@std@@@?$_Tree_buy@U?$pair@$$CBHPAVdatabase@@@std@@V?$allocator@U?$pair@$$CBHPAVdatabase@@@std@@@2@@std@@QAEPAU?$_Tree_node@U?$pair@$$CBHPAVdatabase@@@std@@PAX@1@$$QAU?$pair@HPAVdatabase@@@1@@Z 0042bdbc     databaseMgr.obj
 0002:00004dbc       __ehfuncinfo$??$_Buynode@U?$pair@KK@std@@@?$_Tree_buy@U?$pair@$$CBKK@std@@V?$allocator@U?$pair@$$CBKK@std@@@2@@std@@QAEPAU?$_Tree_node@U?$pair@$$CBKK@std@@PAX@1@$$QAU?$pair@KK@1@@Z 0042bdbc     databaseMgr.obj
 0002:00004de0       __catchsym$??$_Insert_nohint@AAU?$pair@$$CBHPAVdatabase@@@std@@PAU?$_Tree_node@U?$pair@$$CBHPAVdatabase@@@std@@PAX@2@@?$_Tree@V?$_Tmap_traits@HPAVdatabase@@U?$less@H@std@@V?$allocator@U?$pair@$$CBHPAVdatabase@@@std@@@3@$0A@@std@@@std@@IAE?AU?$pair@V?$_Tree_iterator@V?$_Tree_val@U?$_Tree_simple_types@U?$pair@$$CBHPAVdatabase@@@std@@@std@@@std@@@std@@_N@1@_NAAU?$pair@$$CBHPAVdatabase@@@1@PAU?$_Tree_node@U?$pair@$$CBHPAVdatabase@@@std@@PAX@1@@Z$2 0042bde0     databaseMgr.obj
 0002:00004df0       __unwindtable$??$_Insert_nohint@AAU?$pair@$$CBHPAVdatabase@@@std@@PAU?$_Tree_node@U?$pair@$$CBHPAVdatabase@@@std@@PAX@2@@?$_Tree@V?$_Tmap_traits@HPAVdatabase@@U?$less@H@std@@V?$allocator@U?$pair@$$CBHPAVdatabase@@@std@@@3@$0A@@std@@@std@@IAE?AU?$pair@V?$_Tree_iterator@V?$_Tree_val@U?$_Tree_simple_types@U?$pair@$$CBHPAVdatabase@@@std@@@std@@@std@@@std@@_N@1@_NAAU?$pair@$$CBHPAVdatabase@@@1@PAU?$_Tree_node@U?$pair@$$CBHPAVdatabase@@@std@@PAX@1@@Z 0042bdf0     databaseMgr.obj
 0002:00004e00       __tryblocktable$??$_Insert_nohint@AAU?$pair@$$CBHPAVdatabase@@@std@@PAU?$_Tree_node@U?$pair@$$CBHPAVdatabase@@@std@@PAX@2@@?$_Tree@V?$_Tmap_traits@HPAVdatabase@@U?$less@H@std@@V?$allocator@U?$pair@$$CBHPAVdatabase@@@std@@@3@$0A@@std@@@std@@IAE?AU?$pair@V?$_Tree_iterator@V?$_Tree_val@U?$_Tree_simple_types@U?$pair@$$CBHPAVdatabase@@@std@@@std@@@std@@@std@@_N@1@_NAAU?$pair@$$CBHPAVdatabase@@@1@PAU?$_Tree_node@U?$pair@$$CBHPAVdatabase@@@std@@PAX@1@@Z 0042be00     databaseMgr.obj
 0002:00004e14       __ehfuncinfo$??$_Insert_nohint@AAU?$pair@$$CBHPAVdatabase@@@std@@PAU?$_Tree_node@U?$pair@$$CBHPAVdatabase@@@std@@PAX@2@@?$_Tree@V?$_Tmap_traits@HPAVdatabase@@U?$less@H@std@@V?$allocator@U?$pair@$$CBHPAVdatabase@@@std@@@3@$0A@@std@@@std@@IAE?AU?$pair@V?$_Tree_iterator@V?$_Tree_val@U?$_Tree_simple_types@U?$pair@$$CBHPAVdatabase@@@std@@@std@@@std@@@std@@_N@1@_NAAU?$pair@$$CBHPAVdatabase@@@1@PAU?$_Tree_node@U?$pair@$$CBHPAVdatabase@@@std@@PAX@1@@Z 0042be14     databaseMgr.obj
 0002:00004e38       __unwindtable$??1ccCheck@@UAE@XZ 0042be38     ccCheck.obj
 0002:00004e38       __unwindtable$??0ccCheck@@QAE@ABV?$basic_string@DU?$char_traits@D@std@@V?$allocator@D@2@@std@@@Z 0042be38     ccCheck.obj
 0002:00004e38       __unwindtable$??1?$pair@HV?$basic_string@DU?$char_traits@D@std@@V?$allocator@D@2@@std@@@std@@QAE@XZ 0042be38     ccCheck.obj
 0002:00004e40       __ehfuncinfo$??0ccCheck@@QAE@ABV?$basic_string@DU?$char_traits@D@std@@V?$allocator@D@2@@std@@@Z 0042be40     ccCheck.obj
 0002:00004e40       __ehfuncinfo$??1ccCheck@@UAE@XZ 0042be40     ccCheck.obj
 0002:00004e40       __ehfuncinfo$??1?$pair@HV?$basic_string@DU?$char_traits@D@std@@V?$allocator@D@2@@std@@@std@@QAE@XZ 0042be40     ccCheck.obj
 0002:00004e64       __unwindtable$?checkDevice@ccCheck@@QAE_NI@Z 0042be64     ccCheck.obj
 0002:00004e74       __ehfuncinfo$?checkDevice@ccCheck@@QAE_NI@Z 0042be74     ccCheck.obj
 0002:00004e98       __unwindtable$?checkWorkstation@ccCheck@@QAE_NI@Z 0042be98     ccCheck.obj
 0002:00004ea8       __ehfuncinfo$?checkWorkstation@ccCheck@@QAE_NI@Z 0042bea8     ccCheck.obj
 0002:00004ecc       __unwindtable$?log@ccCheck@@QAEXABV?$basic_string@DU?$char_traits@D@std@@V?$allocator@D@2@@std@@@Z 0042becc     ccCheck.obj
 0002:00004ee4       __ehfuncinfo$?log@ccCheck@@QAEXABV?$basic_string@DU?$char_traits@D@std@@V?$allocator@D@2@@std@@@Z 0042bee4     ccCheck.obj
 0002:00004f08       __unwindtable$??$?HDU?$char_traits@D@std@@V?$allocator@D@1@@std@@YA?AV?$basic_string@DU?$char_traits@D@std@@V?$allocator@D@2@@0@ABV10@PBD@Z 0042bf08     ccCheck.obj
 0002:00004f10       __ehfuncinfo$??$?HDU?$char_traits@D@std@@V?$allocator@D@1@@std@@YA?AV?$basic_string@DU?$char_traits@D@std@@V?$allocator@D@2@@0@ABV10@PBD@Z 0042bf10     ccCheck.obj
 0002:00004f34       __unwindtable$?message@_Iostream_error_category@std@@UBE?AV?$basic_string@DU?$char_traits@D@std@@V?$allocator@D@2@@2@H@Z 0042bf34     ccCheck.obj
 0002:00004f34       __unwindtable$??$?HDU?$char_traits@D@std@@V?$allocator@D@1@@std@@YA?AV?$basic_string@DU?$char_traits@D@std@@V?$allocator@D@2@@0@$$QAV10@PBD@Z 0042bf34     ccCheck.obj
 0002:00004f34       __unwindtable$??$?HDU?$char_traits@D@std@@V?$allocator@D@1@@std@@YA?AV?$basic_string@DU?$char_traits@D@std@@V?$allocator@D@2@@0@$$QAV10@ABV10@@Z 0042bf34     ccCheck.obj
 0002:00004f3c       __ehfuncinfo$?message@_Iostream_error_category@std@@UBE?AV?$basic_string@DU?$char_traits@D@std@@V?$allocator@D@2@@2@H@Z 0042bf3c     ccCheck.obj
 0002:00004f3c       __ehfuncinfo$??$?HDU?$char_traits@D@std@@V?$allocator@D@1@@std@@YA?AV?$basic_string@DU?$char_traits@D@std@@V?$allocator@D@2@@0@$$QAV10@ABV10@@Z 0042bf3c     ccCheck.obj
 0002:00004f3c       __ehfuncinfo$??$?HDU?$char_traits@D@std@@V?$allocator@D@1@@std@@YA?AV?$basic_string@DU?$char_traits@D@std@@V?$allocator@D@2@@0@$$QAV10@PBD@Z 0042bf3c     ccCheck.obj
 0002:00004f60       __catchsym$?_Buyheadnode@?$_Tree_alloc@$0A@U?$_Tree_base_types@HV?$allocator@H@std@@@std@@@std@@QAEPAU?$_Tree_node@HPAX@2@XZ$2 0042bf60     closedDriversList.obj
 0002:00004f70       __unwindtable$?_Buyheadnode@?$_Tree_alloc@$0A@U?$_Tree_base_types@HV?$allocator@H@std@@@std@@@std@@QAEPAU?$_Tree_node@HPAX@2@XZ 0042bf70     closedDriversList.obj
 0002:00004f80       __tryblocktable$?_Buyheadnode@?$_Tree_alloc@$0A@U?$_Tree_base_types@HV?$allocator@H@std@@@std@@@std@@QAEPAU?$_Tree_node@HPAX@2@XZ 0042bf80     closedDriversList.obj
 0002:00004f94       __ehfuncinfo$?_Buyheadnode@?$_Tree_alloc@$0A@U?$_Tree_base_types@HV?$allocator@H@std@@@std@@@std@@QAEPAU?$_Tree_node@HPAX@2@XZ 0042bf94     closedDriversList.obj
 0002:00004fb8       __catchsym$?_Buynode0@?$_Tree_buy@HV?$allocator@H@std@@@std@@QAEPAU?$_Tree_node@HPAX@2@XZ$2 0042bfb8     closedDriversList.obj
 0002:00004fc8       __unwindtable$?_Buynode0@?$_Tree_buy@HV?$allocator@H@std@@@std@@QAEPAU?$_Tree_node@HPAX@2@XZ 0042bfc8     closedDriversList.obj
 0002:00004fd8       __tryblocktable$?_Buynode0@?$_Tree_buy@HV?$allocator@H@std@@@std@@QAEPAU?$_Tree_node@HPAX@2@XZ 0042bfd8     closedDriversList.obj
 0002:00004fec       __ehfuncinfo$?_Buynode0@?$_Tree_buy@HV?$allocator@H@std@@@std@@QAEPAU?$_Tree_node@HPAX@2@XZ 0042bfec     closedDriversList.obj
 0002:00005010       __unwindtable$??__E?m_driverList@closedDriversList@@0V?$set@HU?$less@H@std@@V?$allocator@H@2@@std@@A@@YAXXZ 0042c010     closedDriversList.obj
 0002:00005030       __ehfuncinfo$??__E?m_driverList@closedDriversList@@0V?$set@HU?$less@H@std@@V?$allocator@H@2@@std@@A@@YAXXZ 0042c030     closedDriversList.obj
 0002:00005054       __unwindtable$??__F?m_driverList@closedDriversList@@0V?$set@HU?$less@H@std@@V?$allocator@H@2@@std@@A@@YAXXZ 0042c054     closedDriversList.obj
 0002:00005074       __ehfuncinfo$??__F?m_driverList@closedDriversList@@0V?$set@HU?$less@H@std@@V?$allocator@H@2@@std@@A@@YAXXZ 0042c074     closedDriversList.obj
 0002:00005098       __catchsym$??$_Insert_nohint@ABHU_Nil@std@@@?$_Tree@V?$_Tset_traits@HU?$less@H@std@@V?$allocator@H@2@$0A@@std@@@std@@IAE?AU?$pair@V?$_Tree_const_iterator@V?$_Tree_val@U?$_Tree_simple_types@H@std@@@std@@@std@@_N@1@_NABHU_Nil@1@@Z$2 0042c098     closedDriversList.obj
 0002:000050a8       __unwindtable$??$_Insert_nohint@ABHU_Nil@std@@@?$_Tree@V?$_Tset_traits@HU?$less@H@std@@V?$allocator@H@2@$0A@@std@@@std@@IAE?AU?$pair@V?$_Tree_const_iterator@V?$_Tree_val@U?$_Tree_simple_types@H@std@@@std@@@std@@_N@1@_NABHU_Nil@1@@Z 0042c0a8     closedDriversList.obj
 0002:000050b8       __tryblocktable$??$_Insert_nohint@ABHU_Nil@std@@@?$_Tree@V?$_Tset_traits@HU?$less@H@std@@V?$allocator@H@2@$0A@@std@@@std@@IAE?AU?$pair@V?$_Tree_const_iterator@V?$_Tree_val@U?$_Tree_simple_types@H@std@@@std@@@std@@_N@1@_NABHU_Nil@1@@Z 0042c0b8     closedDriversList.obj
 0002:000050cc       __ehfuncinfo$??$_Insert_nohint@ABHU_Nil@std@@@?$_Tree@V?$_Tset_traits@HU?$less@H@std@@V?$allocator@H@2@$0A@@std@@@std@@IAE?AU?$pair@V?$_Tree_const_iterator@V?$_Tree_val@U?$_Tree_simple_types@H@std@@@std@@@std@@_N@1@_NABHU_Nil@1@@Z 0042c0cc     closedDriversList.obj
 0002:000050f0       __catchsym$??$_Buynode@ABH@?$_Tree_buy@HV?$allocator@H@std@@@std@@QAEPAU?$_Tree_node@HPAX@1@ABH@Z$2 0042c0f0     closedDriversList.obj
 0002:00005100       __unwindtable$??$_Buynode@ABH@?$_Tree_buy@HV?$allocator@H@std@@@std@@QAEPAU?$_Tree_node@HPAX@1@ABH@Z 0042c100     closedDriversList.obj
 0002:00005110       __tryblocktable$??$_Buynode@ABH@?$_Tree_buy@HV?$allocator@H@std@@@std@@QAEPAU?$_Tree_node@HPAX@1@ABH@Z 0042c110     closedDriversList.obj
 0002:00005124       __ehfuncinfo$??$_Buynode@ABH@?$_Tree_buy@HV?$allocator@H@std@@@std@@QAEPAU?$_Tree_node@HPAX@1@ABH@Z 0042c124     closedDriversList.obj
 0002:00005148       __unwindtable$?push_back@?$deque@VsizedBuffer@@V?$allocator@VsizedBuffer@@@std@@@std@@QAEX$$QAVsizedBuffer@@@Z 0042c148     Cscache.obj
 0002:00005150       __ehfuncinfo$?push_back@?$deque@VsizedBuffer@@V?$allocator@VsizedBuffer@@@std@@@std@@QAEX$$QAVsizedBuffer@@@Z 0042c150     Cscache.obj
 0002:00005174       __unwindtable$?CSCache_Check@@YAHPAD@Z 0042c174     Cscache.obj
 0002:00005184       __ehfuncinfo$?CSCache_Check@@YAHPAD@Z 0042c184     Cscache.obj
 0002:000051a8       __ehfuncinfo$?CSCache_PostedPoll@@YAXXZ 0042c1a8     Cscache.obj
 0002:000051cc       __unwindtable$?CSCache_PostedPoll@@YAXXZ 0042c1cc     Cscache.obj
 0002:000051f4       __unwindtable$?_Destroy_if_not_nil@?$_Tree@V?$_Tmap_traits@GVserialError@@U?$less@G@std@@V?$allocator@U?$pair@$$CBGVserialError@@@std@@@3@$00@std@@@std@@IAEXPAU?$_Tree_node@U?$pair@$$CBGVserialError@@@std@@PAX@2@@Z 0042c1f4     Cscmd.obj
 0002:000051fc       __ehfuncinfo$?_Destroy_if_not_nil@?$_Tree@V?$_Tmap_traits@GVserialError@@U?$less@G@std@@V?$allocator@U?$pair@$$CBGVserialError@@@std@@@3@$00@std@@@std@@IAEXPAU?$_Tree_node@U?$pair@$$CBGVserialError@@@std@@PAX@2@@Z 0042c1fc     Cscmd.obj
 0002:00005220       __unwindtable$?CSCmd_Heartbeat@@YAXPBDH_N@Z 0042c220     Cscmd.obj
 0002:00005230       __ehfuncinfo$?CSCmd_Heartbeat@@YAXPBDH_N@Z 0042c230     Cscmd.obj
 0002:00005254       __unwindtable$?CSCmd_CheckSerialNumber@@YAXHK_N@Z 0042c254     Cscmd.obj
 0002:00005274       __ehfuncinfo$?CSCmd_CheckSerialNumber@@YAXHK_N@Z 0042c274     Cscmd.obj
 0002:00005298       __unwindtable$?CSCmd_PostedPollParams@@YAXHHHH@Z 0042c298     Cscmd.obj
 0002:000052a0       __ehfuncinfo$?CSCmd_PostedPollParams@@YAXHHHH@Z 0042c2a0     Cscmd.obj
 0002:000052c4       __ehfuncinfo$?CSCmd_BuildDeviceStatusSlot@@YAXHPAVdeviceStatus@@PAD@Z 0042c2c4     Cscmd.obj
 0002:000052e8       __unwindtable$?CSCmd_BuildDeviceStatusSlot@@YAXHPAVdeviceStatus@@PAD@Z 0042c2e8     Cscmd.obj
 0002:00005310       __unwindtable$??$make_pair@AAHVserialError@@@std@@YA?AU?$pair@HVserialError@@@0@AAH$$QAVserialError@@@Z 0042c310     Cscmd.obj
 0002:00005318       __ehfuncinfo$??$make_pair@AAHVserialError@@@std@@YA?AU?$pair@HVserialError@@@0@AAH$$QAVserialError@@@Z 0042c318     Cscmd.obj
 0002:0000533c       __unwindtable$??1?$pair@HVserialError@@@std@@QAE@XZ 0042c33c     Cscmd.obj
 0002:00005344       __ehfuncinfo$??1?$pair@HVserialError@@@std@@QAE@XZ 0042c344     Cscmd.obj
 0002:00005368       __unwindtable$??$?0HVserialError@@X@?$pair@$$CBGVserialError@@@std@@QAE@$$QAU?$pair@HVserialError@@@1@@Z 0042c368     Cscmd.obj
 0002:00005368       __unwindtable$??$?0AAHVserialError@@X@?$pair@HVserialError@@@std@@QAE@AAH$$QAVserialError@@@Z 0042c368     Cscmd.obj
 0002:00005370       __ehfuncinfo$??$?0AAHVserialError@@X@?$pair@HVserialError@@@std@@QAE@AAH$$QAVserialError@@@Z 0042c370     Cscmd.obj
 0002:00005370       __ehfuncinfo$??$?0HVserialError@@X@?$pair@$$CBGVserialError@@@std@@QAE@$$QAU?$pair@HVserialError@@@1@@Z 0042c370     Cscmd.obj
 0002:00005394       __catchsym$?_Buynode0@?$_List_alloc@$0A@U?$_List_base_types@VdeviceStatusOnHost@@V?$allocator@VdeviceStatusOnHost@@@std@@@std@@@std@@QAEPAU?$_List_node@VdeviceStatusOnHost@@PAX@2@PAU32@0@Z$2 0042c394     Cscmd.obj
 0002:000053a4       __unwindtable$?_Buynode0@?$_List_alloc@$0A@U?$_List_base_types@VdeviceStatusOnHost@@V?$allocator@VdeviceStatusOnHost@@@std@@@std@@@std@@QAEPAU?$_List_node@VdeviceStatusOnHost@@PAX@2@PAU32@0@Z 0042c3a4     Cscmd.obj
 0002:000053b4       __tryblocktable$?_Buynode0@?$_List_alloc@$0A@U?$_List_base_types@VdeviceStatusOnHost@@V?$allocator@VdeviceStatusOnHost@@@std@@@std@@@std@@QAEPAU?$_List_node@VdeviceStatusOnHost@@PAX@2@PAU32@0@Z 0042c3b4     Cscmd.obj
 0002:000053c8       __ehfuncinfo$?_Buynode0@?$_List_alloc@$0A@U?$_List_base_types@VdeviceStatusOnHost@@V?$allocator@VdeviceStatusOnHost@@@std@@@std@@@std@@QAEPAU?$_List_node@VdeviceStatusOnHost@@PAX@2@PAU32@0@Z 0042c3c8     Cscmd.obj
 0002:000053ec       __unwindtable$??1?$list@VdeviceStatusOnHost@@V?$allocator@VdeviceStatusOnHost@@@std@@@std@@QAE@XZ 0042c3ec     Cscmd.obj
 0002:000053fc       __ehfuncinfo$??1?$list@VdeviceStatusOnHost@@V?$allocator@VdeviceStatusOnHost@@@std@@@std@@QAE@XZ 0042c3fc     Cscmd.obj
 0002:00005420       __catchsym$??$_Buynode@U?$pair@HVserialError@@@std@@@?$_Tree_buy@U?$pair@$$CBGVserialError@@@std@@V?$allocator@U?$pair@$$CBGVserialError@@@std@@@2@@std@@QAEPAU?$_Tree_node@U?$pair@$$CBGVserialError@@@std@@PAX@1@$$QAU?$pair@HVserialError@@@1@@Z$2 0042c420     Cscmd.obj
 0002:00005430       __unwindtable$??$_Buynode@U?$pair@HVserialError@@@std@@@?$_Tree_buy@U?$pair@$$CBGVserialError@@@std@@V?$allocator@U?$pair@$$CBGVserialError@@@std@@@2@@std@@QAEPAU?$_Tree_node@U?$pair@$$CBGVserialError@@@std@@PAX@1@$$QAU?$pair@HVserialError@@@1@@Z 0042c430     Cscmd.obj
 0002:00005440       __tryblocktable$??$_Buynode@U?$pair@HVserialError@@@std@@@?$_Tree_buy@U?$pair@$$CBGVserialError@@@std@@V?$allocator@U?$pair@$$CBGVserialError@@@std@@@2@@std@@QAEPAU?$_Tree_node@U?$pair@$$CBGVserialError@@@std@@PAX@1@$$QAU?$pair@HVserialError@@@1@@Z 0042c440     Cscmd.obj
 0002:00005454       __ehfuncinfo$??$_Buynode@U?$pair@HVserialError@@@std@@@?$_Tree_buy@U?$pair@$$CBGVserialError@@@std@@V?$allocator@U?$pair@$$CBGVserialError@@@std@@@2@@std@@QAEPAU?$_Tree_node@U?$pair@$$CBGVserialError@@@std@@PAX@1@$$QAU?$pair@HVserialError@@@1@@Z 0042c454     Cscmd.obj
 0002:00005478       __catchsym$??$_Insert_nohint@AAU?$pair@$$CBGVserialError@@@std@@PAU?$_Tree_node@U?$pair@$$CBGVserialError@@@std@@PAX@2@@?$_Tree@V?$_Tmap_traits@GVserialError@@U?$less@G@std@@V?$allocator@U?$pair@$$CBGVserialError@@@std@@@3@$00@std@@@std@@IAE?AU?$pair@V?$_Tree_iterator@V?$_Tree_val@U?$_Tree_simple_types@U?$pair@$$CBGVserialError@@@std@@@std@@@std@@@std@@_N@1@_NAAU?$pair@$$CBGVserialError@@@1@PAU?$_Tree_node@U?$pair@$$CBGVserialError@@@std@@PAX@1@@Z$2 0042c478     Cscmd.obj
 0002:00005488       __unwindtable$??$_Insert_nohint@AAU?$pair@$$CBGVserialError@@@std@@PAU?$_Tree_node@U?$pair@$$CBGVserialError@@@std@@PAX@2@@?$_Tree@V?$_Tmap_traits@GVserialError@@U?$less@G@std@@V?$allocator@U?$pair@$$CBGVserialError@@@std@@@3@$00@std@@@std@@IAE?AU?$pair@V?$_Tree_iterator@V?$_Tree_val@U?$_Tree_simple_types@U?$pair@$$CBGVserialError@@@std@@@std@@@std@@@std@@_N@1@_NAAU?$pair@$$CBGVserialError@@@1@PAU?$_Tree_node@U?$pair@$$CBGVserialError@@@std@@PAX@1@@Z 0042c488     Cscmd.obj
 0002:00005498       __tryblocktable$??$_Insert_nohint@AAU?$pair@$$CBGVserialError@@@std@@PAU?$_Tree_node@U?$pair@$$CBGVserialError@@@std@@PAX@2@@?$_Tree@V?$_Tmap_traits@GVserialError@@U?$less@G@std@@V?$allocator@U?$pair@$$CBGVserialError@@@std@@@3@$00@std@@@std@@IAE?AU?$pair@V?$_Tree_iterator@V?$_Tree_val@U?$_Tree_simple_types@U?$pair@$$CBGVserialError@@@std@@@std@@@std@@@std@@_N@1@_NAAU?$pair@$$CBGVserialError@@@1@PAU?$_Tree_node@U?$pair@$$CBGVserialError@@@std@@PAX@1@@Z 0042c498     Cscmd.obj
 0002:000054ac       __ehfuncinfo$??$_Insert_nohint@AAU?$pair@$$CBGVserialError@@@std@@PAU?$_Tree_node@U?$pair@$$CBGVserialError@@@std@@PAX@2@@?$_Tree@V?$_Tmap_traits@GVserialError@@U?$less@G@std@@V?$allocator@U?$pair@$$CBGVserialError@@@std@@@3@$00@std@@@std@@IAE?AU?$pair@V?$_Tree_iterator@V?$_Tree_val@U?$_Tree_simple_types@U?$pair@$$CBGVserialError@@@std@@@std@@@std@@@std@@_N@1@_NAAU?$pair@$$CBGVserialError@@@1@PAU?$_Tree_node@U?$pair@$$CBGVserialError@@@std@@PAX@1@@Z 0042c4ac     Cscmd.obj
 0002:000054d0       __unwindtable$??$_Insert_at@AAU?$pair@$$CBGVserialError@@@std@@PAU?$_Tree_node@U?$pair@$$CBGVserialError@@@std@@PAX@2@@?$_Tree@V?$_Tmap_traits@GVserialError@@U?$less@G@std@@V?$allocator@U?$pair@$$CBGVserialError@@@std@@@3@$00@std@@@std@@IAE?AV?$_Tree_iterator@V?$_Tree_val@U?$_Tree_simple_types@U?$pair@$$CBGVserialError@@@std@@@std@@@std@@@1@_NPAU?$_Tree_node@U?$pair@$$CBGVserialError@@@std@@PAX@1@AAU?$pair@$$CBGVserialError@@@1@1@Z 0042c4d0     Cscmd.obj
 0002:000054d8       __ehfuncinfo$??$_Insert_at@AAU?$pair@$$CBGVserialError@@@std@@PAU?$_Tree_node@U?$pair@$$CBGVserialError@@@std@@PAX@2@@?$_Tree@V?$_Tmap_traits@GVserialError@@U?$less@G@std@@V?$allocator@U?$pair@$$CBGVserialError@@@std@@@3@$00@std@@@std@@IAE?AV?$_Tree_iterator@V?$_Tree_val@U?$_Tree_simple_types@U?$pair@$$CBGVserialError@@@std@@@std@@@std@@@1@_NPAU?$_Tree_node@U?$pair@$$CBGVserialError@@@std@@PAX@1@AAU?$pair@$$CBGVserialError@@@1@1@Z 0042c4d8     Cscmd.obj
 0002:000054fc       __catchsym$?_Buynode0@?$_List_alloc@$0A@U?$_List_base_types@PAUHWND__@@V?$allocator@PAUHWND__@@@std@@@std@@@std@@QAEPAU?$_List_node@PAUHWND__@@PAX@2@PAU32@0@Z$2 0042c4fc     Csimain.obj
 0002:0000550c       __unwindtable$?_Buynode0@?$_List_alloc@$0A@U?$_List_base_types@PAUHWND__@@V?$allocator@PAUHWND__@@@std@@@std@@@std@@QAEPAU?$_List_node@PAUHWND__@@PAX@2@PAU32@0@Z 0042c50c     Csimain.obj
 0002:0000551c       __tryblocktable$?_Buynode0@?$_List_alloc@$0A@U?$_List_base_types@PAUHWND__@@V?$allocator@PAUHWND__@@@std@@@std@@@std@@QAEPAU?$_List_node@PAUHWND__@@PAX@2@PAU32@0@Z 0042c51c     Csimain.obj
 0002:00005530       __ehfuncinfo$?_Buynode0@?$_List_alloc@$0A@U?$_List_base_types@PAUHWND__@@V?$allocator@PAUHWND__@@@std@@@std@@@std@@QAEPAU?$_List_node@PAUHWND__@@PAX@2@PAU32@0@Z 0042c530     Csimain.obj
 0002:00005554       __unwindtable$??__EserialErrorClientList@@YAXXZ 0042c554     Csimain.obj
 0002:00005564       __ehfuncinfo$??__EserialErrorClientList@@YAXXZ 0042c564     Csimain.obj
 0002:00005588       __unwindtable$??__FserialErrorClientList@@YAXXZ 0042c588     Csimain.obj
 0002:00005598       __ehfuncinfo$??__FserialErrorClientList@@YAXXZ 0042c598     Csimain.obj
 0002:000055bc       __unwindtable$??__EnetMsgUpdateClientList@@YAXXZ 0042c5bc     Csimain.obj
 0002:000055cc       __ehfuncinfo$??__EnetMsgUpdateClientList@@YAXXZ 0042c5cc     Csimain.obj
 0002:000055f0       __unwindtable$??__FnetMsgUpdateClientList@@YAXXZ 0042c5f0     Csimain.obj
 0002:00005600       __ehfuncinfo$??__FnetMsgUpdateClientList@@YAXXZ 0042c600     Csimain.obj
 0002:00005624       __unwindtable$??__EnetTxRxStatusClientList@@YAXXZ 0042c624     Csimain.obj
 0002:00005634       __ehfuncinfo$??__EnetTxRxStatusClientList@@YAXXZ 0042c634     Csimain.obj
 0002:00005658       __unwindtable$??__FnetTxRxStatusClientList@@YAXXZ 0042c658     Csimain.obj
 0002:00005668       __ehfuncinfo$??__FnetTxRxStatusClientList@@YAXXZ 0042c668     Csimain.obj
 0002:0000568c       __unwindtable$??__EconfigChangeClientList@@YAXXZ 0042c68c     Csimain.obj
 0002:0000569c       __ehfuncinfo$??__EconfigChangeClientList@@YAXXZ 0042c69c     Csimain.obj
 0002:000056c0       __unwindtable$??__FconfigChangeClientList@@YAXXZ 0042c6c0     Csimain.obj
 0002:000056d0       __ehfuncinfo$??__FconfigChangeClientList@@YAXXZ 0042c6d0     Csimain.obj
 0002:000056f4       __catchsym$?_Buyheadnode@?$_Tree_alloc@$0A@U?$_Tree_base_types@U?$pair@$$CBKVsizedBuffer@@@std@@V?$allocator@U?$pair@$$CBKVsizedBuffer@@@std@@@2@@std@@@std@@QAEPAU?$_Tree_node@U?$pair@$$CBKVsizedBuffer@@@std@@PAX@2@XZ$2 0042c6f4     Csimain.obj
 0002:00005704       __unwindtable$?_Buyheadnode@?$_Tree_alloc@$0A@U?$_Tree_base_types@U?$pair@$$CBKVsizedBuffer@@@std@@V?$allocator@U?$pair@$$CBKVsizedBuffer@@@std@@@2@@std@@@std@@QAEPAU?$_Tree_node@U?$pair@$$CBKVsizedBuffer@@@std@@PAX@2@XZ 0042c704     Csimain.obj
 0002:00005714       __tryblocktable$?_Buyheadnode@?$_Tree_alloc@$0A@U?$_Tree_base_types@U?$pair@$$CBKVsizedBuffer@@@std@@V?$allocator@U?$pair@$$CBKVsizedBuffer@@@std@@@2@@std@@@std@@QAEPAU?$_Tree_node@U?$pair@$$CBKVsizedBuffer@@@std@@PAX@2@XZ 0042c714     Csimain.obj
 0002:00005728       __ehfuncinfo$?_Buyheadnode@?$_Tree_alloc@$0A@U?$_Tree_base_types@U?$pair@$$CBKVsizedBuffer@@@std@@V?$allocator@U?$pair@$$CBKVsizedBuffer@@@std@@@2@@std@@@std@@QAEPAU?$_Tree_node@U?$pair@$$CBKVsizedBuffer@@@std@@PAX@2@XZ 0042c728     Csimain.obj
 0002:0000574c       __unwindtable$??1?$_Tree_comp@$0A@V?$_Tmap_traits@PAUHWND__@@KU?$less@PAUHWND__@@@std@@V?$allocator@U?$pair@QAUHWND__@@K@std@@@3@$0A@@std@@@std@@QAE@XZ 0042c74c     Csimain.obj
 0002:0000574c       __unwindtable$??1?$_Tree_comp@$0A@V?$_Tmap_traits@HV?$basic_string@DU?$char_traits@D@std@@V?$allocator@D@2@@std@@U?$less@H@2@V?$allocator@U?$pair@$$CBHV?$basic_string@DU?$char_traits@D@std@@V?$allocator@D@2@@std@@@std@@@2@$0A@@std@@@std@@QAE@XZ 0042c74c     Csimain.obj
 0002:0000574c       __unwindtable$??1?$_Tree_comp@$0A@V?$_Tmap_traits@HPAVdatabase@@U?$less@H@std@@V?$allocator@U?$pair@$$CBHPAVdatabase@@@std@@@3@$0A@@std@@@std@@QAE@XZ 0042c74c     Csimain.obj
 0002:0000574c       __unwindtable$??1?$_Tree_comp@$0A@V?$_Tmap_traits@KVsizedBuffer@@U?$less@K@std@@V?$allocator@U?$pair@$$CBKVsizedBuffer@@@std@@@3@$0A@@std@@@std@@QAE@XZ 0042c74c     Csimain.obj
 0002:0000574c       __unwindtable$??1?$_Tree_comp@$0A@V?$_Tmap_traits@KKU?$less@K@std@@V?$allocator@U?$pair@$$CBKK@std@@@2@$0A@@std@@@std@@QAE@XZ 0042c74c     Csimain.obj
 0002:0000574c       __unwindtable$??1?$_Tree_comp@$0A@V?$_Tmap_traits@GVserialError@@U?$less@G@std@@V?$allocator@U?$pair@$$CBGVserialError@@@std@@@3@$00@std@@@std@@QAE@XZ 0042c74c     Csimain.obj
 0002:0000574c       __unwindtable$??1?$_Tree_comp@$0A@V?$_Tset_traits@HU?$less@H@std@@V?$allocator@H@2@$0A@@std@@@std@@QAE@XZ 0042c74c     Csimain.obj
 0002:0000574c       __unwindtable$??1?$_Tree_comp@$0A@V?$_Tmap_traits@HVdeviceStatusOnHost@@U?$less@H@std@@V?$allocator@U?$pair@$$CBHVdeviceStatusOnHost@@@std@@@3@$0A@@std@@@std@@QAE@XZ 0042c74c     Csimain.obj
 0002:0000575c       __ehfuncinfo$??1?$_Tree_comp@$0A@V?$_Tmap_traits@KKU?$less@K@std@@V?$allocator@U?$pair@$$CBKK@std@@@2@$0A@@std@@@std@@QAE@XZ 0042c75c     Csimain.obj
 0002:0000575c       __ehfuncinfo$??1?$_Tree_comp@$0A@V?$_Tmap_traits@HVdeviceStatusOnHost@@U?$less@H@std@@V?$allocator@U?$pair@$$CBHVdeviceStatusOnHost@@@std@@@3@$0A@@std@@@std@@QAE@XZ 0042c75c     Csimain.obj
 0002:0000575c       __ehfuncinfo$??1?$_Tree_comp@$0A@V?$_Tmap_traits@PAUHWND__@@KU?$less@PAUHWND__@@@std@@V?$allocator@U?$pair@QAUHWND__@@K@std@@@3@$0A@@std@@@std@@QAE@XZ 0042c75c     Csimain.obj
 0002:0000575c       __ehfuncinfo$??1?$_Tree_comp@$0A@V?$_Tmap_traits@HPAVdatabase@@U?$less@H@std@@V?$allocator@U?$pair@$$CBHPAVdatabase@@@std@@@3@$0A@@std@@@std@@QAE@XZ 0042c75c     Csimain.obj
 0002:0000575c       __ehfuncinfo$??1?$_Tree_comp@$0A@V?$_Tset_traits@HU?$less@H@std@@V?$allocator@H@2@$0A@@std@@@std@@QAE@XZ 0042c75c     Csimain.obj
 0002:0000575c       __ehfuncinfo$??1?$_Tree_comp@$0A@V?$_Tmap_traits@KVsizedBuffer@@U?$less@K@std@@V?$allocator@U?$pair@$$CBKVsizedBuffer@@@std@@@3@$0A@@std@@@std@@QAE@XZ 0042c75c     Csimain.obj
 0002:0000575c       __ehfuncinfo$??1?$_Tree_comp@$0A@V?$_Tmap_traits@HV?$basic_string@DU?$char_traits@D@std@@V?$allocator@D@2@@std@@U?$less@H@2@V?$allocator@U?$pair@$$CBHV?$basic_string@DU?$char_traits@D@std@@V?$allocator@D@2@@std@@@std@@@2@$0A@@std@@@std@@QAE@XZ 0042c75c     Csimain.obj
 0002:0000575c       __ehfuncinfo$??1?$_Tree_comp@$0A@V?$_Tmap_traits@GVserialError@@U?$less@G@std@@V?$allocator@U?$pair@$$CBGVserialError@@@std@@@3@$00@std@@@std@@QAE@XZ 0042c75c     Csimain.obj
 0002:00005780       __unwindtable$?erase@?$_Tree@V?$_Tmap_traits@KVsizedBuffer@@U?$less@K@std@@V?$allocator@U?$pair@$$CBKVsizedBuffer@@@std@@@3@$0A@@std@@@std@@QAE?AV?$_Tree_iterator@V?$_Tree_val@U?$_Tree_simple_types@U?$pair@$$CBKVsizedBuffer@@@std@@@std@@@std@@@2@V?$_Tree_const_iterator@V?$_Tree_val@U?$_Tree_simple_types@U?$pair@$$CBKVsizedBuffer@@@std@@@std@@@std@@@2@@Z 0042c780     Csimain.obj
 0002:00005788       __ehfuncinfo$?erase@?$_Tree@V?$_Tmap_traits@KVsizedBuffer@@U?$less@K@std@@V?$allocator@U?$pair@$$CBKVsizedBuffer@@@std@@@3@$0A@@std@@@std@@QAE?AV?$_Tree_iterator@V?$_Tree_val@U?$_Tree_simple_types@U?$pair@$$CBKVsizedBuffer@@@std@@@std@@@std@@@2@V?$_Tree_const_iterator@V?$_Tree_val@U?$_Tree_simple_types@U?$pair@$$CBKVsizedBuffer@@@std@@@std@@@std@@@2@@Z 0042c788     Csimain.obj
 0002:000057ac       __unwindtable$?_Erase@?$_Tree@V?$_Tmap_traits@KVsizedBuffer@@U?$less@K@std@@V?$allocator@U?$pair@$$CBKVsizedBuffer@@@std@@@3@$0A@@std@@@std@@IAEXPAU?$_Tree_node@U?$pair@$$CBKVsizedBuffer@@@std@@PAX@2@@Z 0042c7ac     Csimain.obj
 0002:000057b4       __ehfuncinfo$?_Erase@?$_Tree@V?$_Tmap_traits@KVsizedBuffer@@U?$less@K@std@@V?$allocator@U?$pair@$$CBKVsizedBuffer@@@std@@@3@$0A@@std@@@std@@IAEXPAU?$_Tree_node@U?$pair@$$CBKVsizedBuffer@@@std@@PAX@2@@Z 0042c7b4     Csimain.obj
 0002:000057d8       __unwindtable$??__ErevertivePacketList@@YAXXZ 0042c7d8     Csimain.obj
 0002:000057f8       __ehfuncinfo$??__ErevertivePacketList@@YAXXZ 0042c7f8     Csimain.obj
 0002:0000581c       __unwindtable$??__FrevertivePacketList@@YAXXZ 0042c81c     Csimain.obj
 0002:0000583c       __ehfuncinfo$??__FrevertivePacketList@@YAXXZ 0042c83c     Csimain.obj
 0002:00005860       __unwindtable$?erase@?$_Tree@V?$_Tmap_traits@GVserialError@@U?$less@G@std@@V?$allocator@U?$pair@$$CBGVserialError@@@std@@@3@$00@std@@@std@@QAE?AV?$_Tree_iterator@V?$_Tree_val@U?$_Tree_simple_types@U?$pair@$$CBGVserialError@@@std@@@std@@@std@@@2@V?$_Tree_const_iterator@V?$_Tree_val@U?$_Tree_simple_types@U?$pair@$$CBGVserialError@@@std@@@std@@@std@@@2@@Z 0042c860     Csimain.obj
 0002:00005868       __ehfuncinfo$?erase@?$_Tree@V?$_Tmap_traits@GVserialError@@U?$less@G@std@@V?$allocator@U?$pair@$$CBGVserialError@@@std@@@3@$00@std@@@std@@QAE?AV?$_Tree_iterator@V?$_Tree_val@U?$_Tree_simple_types@U?$pair@$$CBGVserialError@@@std@@@std@@@std@@@2@V?$_Tree_const_iterator@V?$_Tree_val@U?$_Tree_simple_types@U?$pair@$$CBGVserialError@@@std@@@std@@@std@@@2@@Z 0042c868     Csimain.obj
 0002:0000588c       __unwindtable$?_Erase@?$_Tree@V?$_Tmap_traits@GVserialError@@U?$less@G@std@@V?$allocator@U?$pair@$$CBGVserialError@@@std@@@3@$00@std@@@std@@IAEXPAU?$_Tree_node@U?$pair@$$CBGVserialError@@@std@@PAX@2@@Z 0042c88c     Csimain.obj
 0002:00005894       __ehfuncinfo$?_Erase@?$_Tree@V?$_Tmap_traits@GVserialError@@U?$less@G@std@@V?$allocator@U?$pair@$$CBGVserialError@@@std@@@3@$00@std@@@std@@IAEXPAU?$_Tree_node@U?$pair@$$CBGVserialError@@@std@@PAX@2@@Z 0042c894     Csimain.obj
 0002:000058b8       __unwindtable$??__ErevSerialErrorRequestStack@@YAXXZ 0042c8b8     Csimain.obj
 0002:000058d8       __ehfuncinfo$??__ErevSerialErrorRequestStack@@YAXXZ 0042c8d8     Csimain.obj
 0002:000058fc       __unwindtable$??__FrevSerialErrorRequestStack@@YAXXZ 0042c8fc     Csimain.obj
 0002:0000591c       __ehfuncinfo$??__FrevSerialErrorRequestStack@@YAXXZ 0042c91c     Csimain.obj
 0002:00005940       __unwindtable$??__EoutgoingRecoveryPackets@@YAXXZ 0042c940     Csimain.obj
 0002:00005960       __ehfuncinfo$??__EoutgoingRecoveryPackets@@YAXXZ 0042c960     Csimain.obj
 0002:00005984       __unwindtable$??__FoutgoingRecoveryPackets@@YAXXZ 0042c984     Csimain.obj
 0002:000059a4       __ehfuncinfo$??__FoutgoingRecoveryPackets@@YAXXZ 0042c9a4     Csimain.obj
 0002:000059c8       __unwindtable$??__ErecoveredPacketQueue@@YAXXZ 0042c9c8     Csimain.obj
 0002:000059e8       __ehfuncinfo$??__ErecoveredPacketQueue@@YAXXZ 0042c9e8     Csimain.obj
 0002:00005a0c       __unwindtable$??__FrecoveredPacketQueue@@YAXXZ 0042ca0c     Csimain.obj
 0002:00005a2c       __ehfuncinfo$??__FrecoveredPacketQueue@@YAXXZ 0042ca2c     Csimain.obj
 0002:00005a50       __catchsym$?_Buynode0@?$_List_alloc@$0A@U?$_List_base_types@VserialError@@V?$allocator@VserialError@@@std@@@std@@@std@@QAEPAU?$_List_node@VserialError@@PAX@2@PAU32@0@Z$2 0042ca50     Csimain.obj
 0002:00005a60       __unwindtable$?_Buynode0@?$_List_alloc@$0A@U?$_List_base_types@VserialError@@V?$allocator@VserialError@@@std@@@std@@@std@@QAEPAU?$_List_node@VserialError@@PAX@2@PAU32@0@Z 0042ca60     Csimain.obj
 0002:00005a70       __tryblocktable$?_Buynode0@?$_List_alloc@$0A@U?$_List_base_types@VserialError@@V?$allocator@VserialError@@@std@@@std@@@std@@QAEPAU?$_List_node@VserialError@@PAX@2@PAU32@0@Z 0042ca70     Csimain.obj
 0002:00005a84       __ehfuncinfo$?_Buynode0@?$_List_alloc@$0A@U?$_List_base_types@VserialError@@V?$allocator@VserialError@@@std@@@std@@@std@@QAEPAU?$_List_node@VserialError@@PAX@2@PAU32@0@Z 0042ca84     Csimain.obj
 0002:00005aa8       __unwindtable$??__ErecoveryRequestRejectionList@@YAXXZ 0042caa8     Csimain.obj
 0002:00005ab8       __ehfuncinfo$??__ErecoveryRequestRejectionList@@YAXXZ 0042cab8     Csimain.obj
 0002:00005adc       __unwindtable$??__FrecoveryRequestRejectionList@@YAXXZ 0042cadc     Csimain.obj
 0002:00005aec       __ehfuncinfo$??__FrecoveryRequestRejectionList@@YAXXZ 0042caec     Csimain.obj
 0002:00005b10       __unwindtable$??__EdeviceStatusRepollList@@YAXXZ 0042cb10     Csimain.obj
 0002:00005b30       __ehfuncinfo$??__EdeviceStatusRepollList@@YAXXZ 0042cb30     Csimain.obj
 0002:00005b54       __unwindtable$??__FdeviceStatusRepollList@@YAXXZ 0042cb54     Csimain.obj
 0002:00005b74       __ehfuncinfo$??__FdeviceStatusRepollList@@YAXXZ 0042cb74     Csimain.obj
 0002:00005b98       __unwindtable$??__EworkstationStatusRepollList@@YAXXZ 0042cb98     Csimain.obj
 0002:00005bb8       __ehfuncinfo$??__EworkstationStatusRepollList@@YAXXZ 0042cbb8     Csimain.obj
 0002:00005bdc       __unwindtable$??__FworkstationStatusRepollList@@YAXXZ 0042cbdc     Csimain.obj
 0002:00005bfc       __ehfuncinfo$??__FworkstationStatusRepollList@@YAXXZ 0042cbfc     Csimain.obj
 0002:00005c20       __unwindtable$??1?$_Deque_val@U?$_Deque_simple_types@VsizedBuffer@@@std@@@std@@QAE@XZ 0042cc20     Csimain.obj
 0002:00005c28       __ehfuncinfo$??1?$_Deque_val@U?$_Deque_simple_types@VsizedBuffer@@@std@@@std@@QAE@XZ 0042cc28     Csimain.obj
 0002:00005c4c       __unwindtable$??0?$_Deque_alloc@$0A@U?$_Deque_base_types@VsizedBuffer@@V?$allocator@VsizedBuffer@@@std@@@std@@@std@@QAE@ABV?$allocator@VsizedBuffer@@@1@@Z 0042cc4c     Csimain.obj
 0002:00005c64       __ehfuncinfo$??0?$_Deque_alloc@$0A@U?$_Deque_base_types@VsizedBuffer@@V?$allocator@VsizedBuffer@@@std@@@std@@@std@@QAE@ABV?$allocator@VsizedBuffer@@@1@@Z 0042cc64     Csimain.obj
 0002:00005c88       __unwindtable$??1?$_Deque_alloc@$0A@U?$_Deque_base_types@VsizedBuffer@@V?$allocator@VsizedBuffer@@@std@@@std@@@std@@QAE@XZ 0042cc88     Csimain.obj
 0002:00005c98       __ehfuncinfo$??1?$_Deque_alloc@$0A@U?$_Deque_base_types@VsizedBuffer@@V?$allocator@VsizedBuffer@@@std@@@std@@@std@@QAE@XZ 0042cc98     Csimain.obj
 0002:00005cbc       __unwindtable$??1?$deque@VsizedBuffer@@V?$allocator@VsizedBuffer@@@std@@@std@@QAE@XZ 0042ccbc     Csimain.obj
 0002:00005cd4       __ehfuncinfo$??1?$deque@VsizedBuffer@@V?$allocator@VsizedBuffer@@@std@@@std@@QAE@XZ 0042ccd4     Csimain.obj
 0002:00005cf8       __unwindtable$??__EpollQueue@@YAXXZ 0042ccf8     Csimain.obj
 0002:00005d08       __ehfuncinfo$??__EpollQueue@@YAXXZ 0042cd08     Csimain.obj
 0002:00005d2c       __unwindtable$??__FpollQueue@@YAXXZ 0042cd2c     Csimain.obj
 0002:00005d4c       __ehfuncinfo$??__FpollQueue@@YAXXZ 0042cd4c     Csimain.obj
 0002:00005d70       __unwindtable$?MainWndProc@@YGJPAUHWND__@@IIJ@Z 0042cd70     Csimain.obj
 0002:00005d78       __ehfuncinfo$?MainWndProc@@YGJPAUHWND__@@IIJ@Z 0042cd78     Csimain.obj
 0002:00005d9c       __unwindtable$?CSMain_Init@@YAXXZ 0042cd9c     Csimain.obj
 0002:00005dac       __ehfuncinfo$?CSMain_Init@@YAXXZ 0042cdac     Csimain.obj
 0002:00005dd0       __unwindtable$?CSMain_LogStats@@YAXXZ 0042cdd0     Csimain.obj
 0002:00005dd8       __ehfuncinfo$?CSMain_LogStats@@YAXXZ 0042cdd8     Csimain.obj
 0002:00005dfc       __unwindtable$?CSMain_InitGlobals@@YAXXZ 0042cdfc     Csimain.obj
 0002:00005e04       __ehfuncinfo$?CSMain_InitGlobals@@YAXXZ 0042ce04     Csimain.obj
 0002:00005e28       __unwindtable$??1?$pair@$$CBKVsizedBuffer@@@std@@QAE@XZ 0042ce28     Csimain.obj
 0002:00005e28       __unwindtable$??1?$pair@KVsizedBuffer@@@std@@QAE@XZ 0042ce28     Csimain.obj
 0002:00005e30       __ehfuncinfo$??1?$pair@KVsizedBuffer@@@std@@QAE@XZ 0042ce30     Csimain.obj
 0002:00005e30       __ehfuncinfo$??1?$pair@$$CBKVsizedBuffer@@@std@@QAE@XZ 0042ce30     Csimain.obj
 0002:00005e54       __catchsym$??$_Buynode@PAUHWND__@@@?$_List_buy@PAUHWND__@@V?$allocator@PAUHWND__@@@std@@@std@@QAEPAU?$_List_node@PAUHWND__@@PAX@1@PAU21@0$$QAPAUHWND__@@@Z$2 0042ce54     Csimain.obj
 0002:00005e54       __catchsym$??$_Buynode@ABQAUHWND__@@@?$_List_buy@PAUHWND__@@V?$allocator@PAUHWND__@@@std@@@std@@QAEPAU?$_List_node@PAUHWND__@@PAX@1@PAU21@0ABQAUHWND__@@@Z$2 0042ce54     Csimain.obj
 0002:00005e64       __unwindtable$??$_Buynode@ABQAUHWND__@@@?$_List_buy@PAUHWND__@@V?$allocator@PAUHWND__@@@std@@@std@@QAEPAU?$_List_node@PAUHWND__@@PAX@1@PAU21@0ABQAUHWND__@@@Z 0042ce64     Csimain.obj
 0002:00005e64       __unwindtable$??$_Buynode@PAUHWND__@@@?$_List_buy@PAUHWND__@@V?$allocator@PAUHWND__@@@std@@@std@@QAEPAU?$_List_node@PAUHWND__@@PAX@1@PAU21@0$$QAPAUHWND__@@@Z 0042ce64     Csimain.obj
 0002:00005e74       __tryblocktable$??$_Buynode@ABQAUHWND__@@@?$_List_buy@PAUHWND__@@V?$allocator@PAUHWND__@@@std@@@std@@QAEPAU?$_List_node@PAUHWND__@@PAX@1@PAU21@0ABQAUHWND__@@@Z 0042ce74     Csimain.obj
 0002:00005e74       __tryblocktable$??$_Buynode@PAUHWND__@@@?$_List_buy@PAUHWND__@@V?$allocator@PAUHWND__@@@std@@@std@@QAEPAU?$_List_node@PAUHWND__@@PAX@1@PAU21@0$$QAPAUHWND__@@@Z 0042ce74     Csimain.obj
 0002:00005e88       __ehfuncinfo$??$_Buynode@PAUHWND__@@@?$_List_buy@PAUHWND__@@V?$allocator@PAUHWND__@@@std@@@std@@QAEPAU?$_List_node@PAUHWND__@@PAX@1@PAU21@0$$QAPAUHWND__@@@Z 0042ce88     Csimain.obj
 0002:00005e88       __ehfuncinfo$??$_Buynode@ABQAUHWND__@@@?$_List_buy@PAUHWND__@@V?$allocator@PAUHWND__@@@std@@@std@@QAEPAU?$_List_node@PAUHWND__@@PAX@1@PAU21@0ABQAUHWND__@@@Z 0042ce88     Csimain.obj
 0002:00005eac       __catchsym$?_Buynode0@?$_Tree_buy@U?$pair@$$CBKVsizedBuffer@@@std@@V?$allocator@U?$pair@$$CBKVsizedBuffer@@@std@@@2@@std@@QAEPAU?$_Tree_node@U?$pair@$$CBKVsizedBuffer@@@std@@PAX@2@XZ$2 0042ceac     Csndi.obj
 0002:00005ebc       __unwindtable$?_Buynode0@?$_Tree_buy@U?$pair@$$CBKVsizedBuffer@@@std@@V?$allocator@U?$pair@$$CBKVsizedBuffer@@@std@@@2@@std@@QAEPAU?$_Tree_node@U?$pair@$$CBKVsizedBuffer@@@std@@PAX@2@XZ 0042cebc     Csndi.obj
 0002:00005ecc       __tryblocktable$?_Buynode0@?$_Tree_buy@U?$pair@$$CBKVsizedBuffer@@@std@@V?$allocator@U?$pair@$$CBKVsizedBuffer@@@std@@@2@@std@@QAEPAU?$_Tree_node@U?$pair@$$CBKVsizedBuffer@@@std@@PAX@2@XZ 0042cecc     Csndi.obj
 0002:00005ee0       __ehfuncinfo$?_Buynode0@?$_Tree_buy@U?$pair@$$CBKVsizedBuffer@@@std@@V?$allocator@U?$pair@$$CBKVsizedBuffer@@@std@@@2@@std@@QAEPAU?$_Tree_node@U?$pair@$$CBKVsizedBuffer@@@std@@PAX@2@XZ 0042cee0     Csndi.obj
 0002:00005f04       __unwindtable$?_Destroy_if_not_nil@?$_Tree@V?$_Tmap_traits@KVsizedBuffer@@U?$less@K@std@@V?$allocator@U?$pair@$$CBKVsizedBuffer@@@std@@@3@$0A@@std@@@std@@IAEXPAU?$_Tree_node@U?$pair@$$CBKVsizedBuffer@@@std@@PAX@2@@Z 0042cf04     Csndi.obj
 0002:00005f0c       __ehfuncinfo$?_Destroy_if_not_nil@?$_Tree@V?$_Tmap_traits@KVsizedBuffer@@U?$less@K@std@@V?$allocator@U?$pair@$$CBKVsizedBuffer@@@std@@@3@$0A@@std@@@std@@IAEXPAU?$_Tree_node@U?$pair@$$CBKVsizedBuffer@@@std@@PAX@2@@Z 0042cf0c     Csndi.obj
 0002:00005f30       __unwindtable$?CSNDI_SendToDriver@@YAXPADH@Z 0042cf30     Csndi.obj
 0002:00005f38       __ehfuncinfo$?CSNDI_SendToDriver@@YAXPADH@Z 0042cf38     Csndi.obj
 0002:00005f5c       __unwindtable$?CSNDI_TxPacket@@YAXXZ 0042cf5c     Csndi.obj
 0002:00005f74       __ehfuncinfo$?CSNDI_TxPacket@@YAXXZ 0042cf74     Csndi.obj
 0002:00005f98       __catchsym$??$_Buynode@U?$pair@KVsizedBuffer@@@std@@@?$_Tree_buy@U?$pair@$$CBKVsizedBuffer@@@std@@V?$allocator@U?$pair@$$CBKVsizedBuffer@@@std@@@2@@std@@QAEPAU?$_Tree_node@U?$pair@$$CBKVsizedBuffer@@@std@@PAX@1@$$QAU?$pair@KVsizedBuffer@@@1@@Z$2 0042cf98     Csndi.obj
 0002:00005fa8       __unwindtable$??$_Buynode@U?$pair@KVsizedBuffer@@@std@@@?$_Tree_buy@U?$pair@$$CBKVsizedBuffer@@@std@@V?$allocator@U?$pair@$$CBKVsizedBuffer@@@std@@@2@@std@@QAEPAU?$_Tree_node@U?$pair@$$CBKVsizedBuffer@@@std@@PAX@1@$$QAU?$pair@KVsizedBuffer@@@1@@Z 0042cfa8     Csndi.obj
 0002:00005fb8       __tryblocktable$??$_Buynode@U?$pair@KVsizedBuffer@@@std@@@?$_Tree_buy@U?$pair@$$CBKVsizedBuffer@@@std@@V?$allocator@U?$pair@$$CBKVsizedBuffer@@@std@@@2@@std@@QAEPAU?$_Tree_node@U?$pair@$$CBKVsizedBuffer@@@std@@PAX@1@$$QAU?$pair@KVsizedBuffer@@@1@@Z 0042cfb8     Csndi.obj
 0002:00005fcc       __ehfuncinfo$??$_Buynode@U?$pair@KVsizedBuffer@@@std@@@?$_Tree_buy@U?$pair@$$CBKVsizedBuffer@@@std@@V?$allocator@U?$pair@$$CBKVsizedBuffer@@@std@@@2@@std@@QAEPAU?$_Tree_node@U?$pair@$$CBKVsizedBuffer@@@std@@PAX@1@$$QAU?$pair@KVsizedBuffer@@@1@@Z 0042cfcc     Csndi.obj
 0002:00005ff0       __catchsym$??$_Insert_nohint@AAU?$pair@$$CBKVsizedBuffer@@@std@@PAU?$_Tree_node@U?$pair@$$CBKVsizedBuffer@@@std@@PAX@2@@?$_Tree@V?$_Tmap_traits@KVsizedBuffer@@U?$less@K@std@@V?$allocator@U?$pair@$$CBKVsizedBuffer@@@std@@@3@$0A@@std@@@std@@IAE?AU?$pair@V?$_Tree_iterator@V?$_Tree_val@U?$_Tree_simple_types@U?$pair@$$CBKVsizedBuffer@@@std@@@std@@@std@@@std@@_N@1@_NAAU?$pair@$$CBKVsizedBuffer@@@1@PAU?$_Tree_node@U?$pair@$$CBKVsizedBuffer@@@std@@PAX@1@@Z$2 0042cff0     Csndi.obj
 0002:00006000       __unwindtable$??$_Insert_nohint@AAU?$pair@$$CBKVsizedBuffer@@@std@@PAU?$_Tree_node@U?$pair@$$CBKVsizedBuffer@@@std@@PAX@2@@?$_Tree@V?$_Tmap_traits@KVsizedBuffer@@U?$less@K@std@@V?$allocator@U?$pair@$$CBKVsizedBuffer@@@std@@@3@$0A@@std@@@std@@IAE?AU?$pair@V?$_Tree_iterator@V?$_Tree_val@U?$_Tree_simple_types@U?$pair@$$CBKVsizedBuffer@@@std@@@std@@@std@@@std@@_N@1@_NAAU?$pair@$$CBKVsizedBuffer@@@1@PAU?$_Tree_node@U?$pair@$$CBKVsizedBuffer@@@std@@PAX@1@@Z 0042d000     Csndi.obj
 0002:00006010       __tryblocktable$??$_Insert_nohint@AAU?$pair@$$CBKVsizedBuffer@@@std@@PAU?$_Tree_node@U?$pair@$$CBKVsizedBuffer@@@std@@PAX@2@@?$_Tree@V?$_Tmap_traits@KVsizedBuffer@@U?$less@K@std@@V?$allocator@U?$pair@$$CBKVsizedBuffer@@@std@@@3@$0A@@std@@@std@@IAE?AU?$pair@V?$_Tree_iterator@V?$_Tree_val@U?$_Tree_simple_types@U?$pair@$$CBKVsizedBuffer@@@std@@@std@@@std@@@std@@_N@1@_NAAU?$pair@$$CBKVsizedBuffer@@@1@PAU?$_Tree_node@U?$pair@$$CBKVsizedBuffer@@@std@@PAX@1@@Z 0042d010     Csndi.obj
 0002:00006024       __ehfuncinfo$??$_Insert_nohint@AAU?$pair@$$CBKVsizedBuffer@@@std@@PAU?$_Tree_node@U?$pair@$$CBKVsizedBuffer@@@std@@PAX@2@@?$_Tree@V?$_Tmap_traits@KVsizedBuffer@@U?$less@K@std@@V?$allocator@U?$pair@$$CBKVsizedBuffer@@@std@@@3@$0A@@std@@@std@@IAE?AU?$pair@V?$_Tree_iterator@V?$_Tree_val@U?$_Tree_simple_types@U?$pair@$$CBKVsizedBuffer@@@std@@@std@@@std@@@std@@_N@1@_NAAU?$pair@$$CBKVsizedBuffer@@@1@PAU?$_Tree_node@U?$pair@$$CBKVsizedBuffer@@@std@@PAX@1@@Z 0042d024     Csndi.obj
 0002:00006048       __unwindtable$??$construct@U?$pair@$$CBKVsizedBuffer@@@std@@U?$pair@KVsizedBuffer@@@2@@?$_Wrap_alloc@V?$allocator@U?$_Tree_node@U?$pair@$$CBKVsizedBuffer@@@std@@PAX@std@@@std@@@std@@QAEXPAU?$pair@$$CBKVsizedBuffer@@@1@$$QAU?$pair@KVsizedBuffer@@@1@@Z 0042d048     Csndi.obj
 0002:00006058       __ehfuncinfo$??$construct@U?$pair@$$CBKVsizedBuffer@@@std@@U?$pair@KVsizedBuffer@@@2@@?$_Wrap_alloc@V?$allocator@U?$_Tree_node@U?$pair@$$CBKVsizedBuffer@@@std@@PAX@std@@@std@@@std@@QAEXPAU?$pair@$$CBKVsizedBuffer@@@1@$$QAU?$pair@KVsizedBuffer@@@1@@Z 0042d058     Csndi.obj
 0002:0000607c       __unwindtable$??$_Insert_at@AAU?$pair@$$CBKVsizedBuffer@@@std@@PAU?$_Tree_node@U?$pair@$$CBKVsizedBuffer@@@std@@PAX@2@@?$_Tree@V?$_Tmap_traits@KVsizedBuffer@@U?$less@K@std@@V?$allocator@U?$pair@$$CBKVsizedBuffer@@@std@@@3@$0A@@std@@@std@@IAE?AV?$_Tree_iterator@V?$_Tree_val@U?$_Tree_simple_types@U?$pair@$$CBKVsizedBuffer@@@std@@@std@@@std@@@1@_NPAU?$_Tree_node@U?$pair@$$CBKVsizedBuffer@@@std@@PAX@1@AAU?$pair@$$CBKVsizedBuffer@@@1@1@Z 0042d07c     Csndi.obj
 0002:00006084       __ehfuncinfo$??$_Insert_at@AAU?$pair@$$CBKVsizedBuffer@@@std@@PAU?$_Tree_node@U?$pair@$$CBKVsizedBuffer@@@std@@PAX@2@@?$_Tree@V?$_Tmap_traits@KVsizedBuffer@@U?$less@K@std@@V?$allocator@U?$pair@$$CBKVsizedBuffer@@@std@@@3@$0A@@std@@@std@@IAE?AV?$_Tree_iterator@V?$_Tree_val@U?$_Tree_simple_types@U?$pair@$$CBKVsizedBuffer@@@std@@@std@@@std@@@1@_NPAU?$_Tree_node@U?$pair@$$CBKVsizedBuffer@@@std@@PAX@1@AAU?$pair@$$CBKVsizedBuffer@@@1@1@Z 0042d084     Csndi.obj
 0002:000060a8       __ehfuncinfo$??0deviceStatus@@QAE@H@Z 0042d0a8     deviceStatus.obj
 0002:000060cc       __unwindtable$??0deviceStatus@@QAE@H@Z 0042d0cc     deviceStatus.obj
 0002:000060f4       __ehfuncinfo$??1deviceStatus@@UAE@XZ 0042d0f4     deviceStatus.obj
 0002:00006118       __unwindtable$??1deviceStatus@@UAE@XZ 0042d118     deviceStatus.obj
 0002:00006140       __catchsym$?_Buyheadnode@?$_Tree_alloc@$0A@U?$_Tree_base_types@U?$pair@$$CBHVdeviceStatusOnHost@@@std@@V?$allocator@U?$pair@$$CBHVdeviceStatusOnHost@@@std@@@2@@std@@@std@@QAEPAU?$_Tree_node@U?$pair@$$CBHVdeviceStatusOnHost@@@std@@PAX@2@XZ$2 0042d140     deviceStatus.obj
 0002:00006150       __unwindtable$?_Buyheadnode@?$_Tree_alloc@$0A@U?$_Tree_base_types@U?$pair@$$CBHVdeviceStatusOnHost@@@std@@V?$allocator@U?$pair@$$CBHVdeviceStatusOnHost@@@std@@@2@@std@@@std@@QAEPAU?$_Tree_node@U?$pair@$$CBHVdeviceStatusOnHost@@@std@@PAX@2@XZ 0042d150     deviceStatus.obj
 0002:00006160       __tryblocktable$?_Buyheadnode@?$_Tree_alloc@$0A@U?$_Tree_base_types@U?$pair@$$CBHVdeviceStatusOnHost@@@std@@V?$allocator@U?$pair@$$CBHVdeviceStatusOnHost@@@std@@@2@@std@@@std@@QAEPAU?$_Tree_node@U?$pair@$$CBHVdeviceStatusOnHost@@@std@@PAX@2@XZ 0042d160     deviceStatus.obj
 0002:00006174       __ehfuncinfo$?_Buyheadnode@?$_Tree_alloc@$0A@U?$_Tree_base_types@U?$pair@$$CBHVdeviceStatusOnHost@@@std@@V?$allocator@U?$pair@$$CBHVdeviceStatusOnHost@@@std@@@2@@std@@@std@@QAEPAU?$_Tree_node@U?$pair@$$CBHVdeviceStatusOnHost@@@std@@PAX@2@XZ 0042d174     deviceStatus.obj
 0002:00006198       __catchsym$?_Buynode0@?$_Tree_buy@U?$pair@$$CBHVdeviceStatusOnHost@@@std@@V?$allocator@U?$pair@$$CBHVdeviceStatusOnHost@@@std@@@2@@std@@QAEPAU?$_Tree_node@U?$pair@$$CBHVdeviceStatusOnHost@@@std@@PAX@2@XZ$2 0042d198     deviceStatus.obj
 0002:000061a8       __unwindtable$?_Buynode0@?$_Tree_buy@U?$pair@$$CBHVdeviceStatusOnHost@@@std@@V?$allocator@U?$pair@$$CBHVdeviceStatusOnHost@@@std@@@2@@std@@QAEPAU?$_Tree_node@U?$pair@$$CBHVdeviceStatusOnHost@@@std@@PAX@2@XZ 0042d1a8     deviceStatus.obj
 0002:000061b8       __tryblocktable$?_Buynode0@?$_Tree_buy@U?$pair@$$CBHVdeviceStatusOnHost@@@std@@V?$allocator@U?$pair@$$CBHVdeviceStatusOnHost@@@std@@@2@@std@@QAEPAU?$_Tree_node@U?$pair@$$CBHVdeviceStatusOnHost@@@std@@PAX@2@XZ 0042d1b8     deviceStatus.obj
 0002:000061cc       __ehfuncinfo$?_Buynode0@?$_Tree_buy@U?$pair@$$CBHVdeviceStatusOnHost@@@std@@V?$allocator@U?$pair@$$CBHVdeviceStatusOnHost@@@std@@@2@@std@@QAEPAU?$_Tree_node@U?$pair@$$CBHVdeviceStatusOnHost@@@std@@PAX@2@XZ 0042d1cc     deviceStatus.obj
 0002:000061f0       __unwindtable$??1?$_Tree@V?$_Tset_traits@HU?$less@H@std@@V?$allocator@H@2@$0A@@std@@@std@@QAE@XZ 0042d1f0     deviceStatus.obj
 0002:000061f0       __unwindtable$??1?$_Tree@V?$_Tmap_traits@PAUHWND__@@KU?$less@PAUHWND__@@@std@@V?$allocator@U?$pair@QAUHWND__@@K@std@@@3@$0A@@std@@@std@@QAE@XZ 0042d1f0     deviceStatus.obj
 0002:000061f0       __unwindtable$??1?$_Tree@V?$_Tmap_traits@HV?$basic_string@DU?$char_traits@D@std@@V?$allocator@D@2@@std@@U?$less@H@2@V?$allocator@U?$pair@$$CBHV?$basic_string@DU?$char_traits@D@std@@V?$allocator@D@2@@std@@@std@@@2@$0A@@std@@@std@@QAE@XZ 0042d1f0     deviceStatus.obj
 0002:000061f0       __unwindtable$??1?$_Tree@V?$_Tmap_traits@HPAVdatabase@@U?$less@H@std@@V?$allocator@U?$pair@$$CBHPAVdatabase@@@std@@@3@$0A@@std@@@std@@QAE@XZ 0042d1f0     deviceStatus.obj
 0002:000061f0       __unwindtable$??1?$_Tree@V?$_Tmap_traits@GVserialError@@U?$less@G@std@@V?$allocator@U?$pair@$$CBGVserialError@@@std@@@3@$00@std@@@std@@QAE@XZ 0042d1f0     deviceStatus.obj
 0002:000061f0       __unwindtable$??1?$_Tree@V?$_Tmap_traits@HVdeviceStatusOnHost@@U?$less@H@std@@V?$allocator@U?$pair@$$CBHVdeviceStatusOnHost@@@std@@@3@$0A@@std@@@std@@QAE@XZ 0042d1f0     deviceStatus.obj
 0002:000061f0       __unwindtable$??1?$_Tree@V?$_Tmap_traits@KVsizedBuffer@@U?$less@K@std@@V?$allocator@U?$pair@$$CBKVsizedBuffer@@@std@@@3@$0A@@std@@@std@@QAE@XZ 0042d1f0     deviceStatus.obj
 0002:000061f0       __unwindtable$??1?$_Tree@V?$_Tmap_traits@KKU?$less@K@std@@V?$allocator@U?$pair@$$CBKK@std@@@2@$0A@@std@@@std@@QAE@XZ 0042d1f0     deviceStatus.obj
 0002:00006208       __ehfuncinfo$??1?$_Tree@V?$_Tmap_traits@KKU?$less@K@std@@V?$allocator@U?$pair@$$CBKK@std@@@2@$0A@@std@@@std@@QAE@XZ 0042d208     deviceStatus.obj
 0002:00006208       __ehfuncinfo$??1?$_Tree@V?$_Tmap_traits@KVsizedBuffer@@U?$less@K@std@@V?$allocator@U?$pair@$$CBKVsizedBuffer@@@std@@@3@$0A@@std@@@std@@QAE@XZ 0042d208     deviceStatus.obj
 0002:00006208       __ehfuncinfo$??1?$_Tree@V?$_Tmap_traits@GVserialError@@U?$less@G@std@@V?$allocator@U?$pair@$$CBGVserialError@@@std@@@3@$00@std@@@std@@QAE@XZ 0042d208     deviceStatus.obj
 0002:00006208       __ehfuncinfo$??1?$_Tree@V?$_Tset_traits@HU?$less@H@std@@V?$allocator@H@2@$0A@@std@@@std@@QAE@XZ 0042d208     deviceStatus.obj
 0002:00006208       __ehfuncinfo$??1?$_Tree@V?$_Tmap_traits@HVdeviceStatusOnHost@@U?$less@H@std@@V?$allocator@U?$pair@$$CBHVdeviceStatusOnHost@@@std@@@3@$0A@@std@@@std@@QAE@XZ 0042d208     deviceStatus.obj
 0002:00006208       __ehfuncinfo$??1?$_Tree@V?$_Tmap_traits@PAUHWND__@@KU?$less@PAUHWND__@@@std@@V?$allocator@U?$pair@QAUHWND__@@K@std@@@3@$0A@@std@@@std@@QAE@XZ 0042d208     deviceStatus.obj
 0002:00006208       __ehfuncinfo$??1?$_Tree@V?$_Tmap_traits@HPAVdatabase@@U?$less@H@std@@V?$allocator@U?$pair@$$CBHPAVdatabase@@@std@@@3@$0A@@std@@@std@@QAE@XZ 0042d208     deviceStatus.obj
 0002:00006208       __ehfuncinfo$??1?$_Tree@V?$_Tmap_traits@HV?$basic_string@DU?$char_traits@D@std@@V?$allocator@D@2@@std@@U?$less@H@2@V?$allocator@U?$pair@$$CBHV?$basic_string@DU?$char_traits@D@std@@V?$allocator@D@2@@std@@@std@@@2@$0A@@std@@@std@@QAE@XZ 0042d208     deviceStatus.obj
 0002:0000622c       __catchsym$??$_Buynode@U?$pair@HVdeviceStatusOnHost@@@std@@@?$_Tree_buy@U?$pair@$$CBHVdeviceStatusOnHost@@@std@@V?$allocator@U?$pair@$$CBHVdeviceStatusOnHost@@@std@@@2@@std@@QAEPAU?$_Tree_node@U?$pair@$$CBHVdeviceStatusOnHost@@@std@@PAX@1@$$QAU?$pair@HVdeviceStatusOnHost@@@1@@Z$2 0042d22c     deviceStatus.obj
 0002:0000623c       __unwindtable$??$_Buynode@U?$pair@HVdeviceStatusOnHost@@@std@@@?$_Tree_buy@U?$pair@$$CBHVdeviceStatusOnHost@@@std@@V?$allocator@U?$pair@$$CBHVdeviceStatusOnHost@@@std@@@2@@std@@QAEPAU?$_Tree_node@U?$pair@$$CBHVdeviceStatusOnHost@@@std@@PAX@1@$$QAU?$pair@HVdeviceStatusOnHost@@@1@@Z 0042d23c     deviceStatus.obj
 0002:0000624c       __tryblocktable$??$_Buynode@U?$pair@HVdeviceStatusOnHost@@@std@@@?$_Tree_buy@U?$pair@$$CBHVdeviceStatusOnHost@@@std@@V?$allocator@U?$pair@$$CBHVdeviceStatusOnHost@@@std@@@2@@std@@QAEPAU?$_Tree_node@U?$pair@$$CBHVdeviceStatusOnHost@@@std@@PAX@1@$$QAU?$pair@HVdeviceStatusOnHost@@@1@@Z 0042d24c     deviceStatus.obj
 0002:00006260       __ehfuncinfo$??$_Buynode@U?$pair@HVdeviceStatusOnHost@@@std@@@?$_Tree_buy@U?$pair@$$CBHVdeviceStatusOnHost@@@std@@V?$allocator@U?$pair@$$CBHVdeviceStatusOnHost@@@std@@@2@@std@@QAEPAU?$_Tree_node@U?$pair@$$CBHVdeviceStatusOnHost@@@std@@PAX@1@$$QAU?$pair@HVdeviceStatusOnHost@@@1@@Z 0042d260     deviceStatus.obj
 0002:00006284       __catchsym$??$_Insert_nohint@AAU?$pair@$$CBHVdeviceStatusOnHost@@@std@@PAU?$_Tree_node@U?$pair@$$CBHVdeviceStatusOnHost@@@std@@PAX@2@@?$_Tree@V?$_Tmap_traits@HVdeviceStatusOnHost@@U?$less@H@std@@V?$allocator@U?$pair@$$CBHVdeviceStatusOnHost@@@std@@@3@$0A@@std@@@std@@IAE?AU?$pair@V?$_Tree_iterator@V?$_Tree_val@U?$_Tree_simple_types@U?$pair@$$CBHVdeviceStatusOnHost@@@std@@@std@@@std@@@std@@_N@1@_NAAU?$pair@$$CBHVdeviceStatusOnHost@@@1@PAU?$_Tree_node@U?$pair@$$CBHVdeviceStatusOnHost@@@std@@PAX@1@@Z$2 0042d284     deviceStatus.obj
 0002:00006294       __unwindtable$??$_Insert_nohint@AAU?$pair@$$CBHVdeviceStatusOnHost@@@std@@PAU?$_Tree_node@U?$pair@$$CBHVdeviceStatusOnHost@@@std@@PAX@2@@?$_Tree@V?$_Tmap_traits@HVdeviceStatusOnHost@@U?$less@H@std@@V?$allocator@U?$pair@$$CBHVdeviceStatusOnHost@@@std@@@3@$0A@@std@@@std@@IAE?AU?$pair@V?$_Tree_iterator@V?$_Tree_val@U?$_Tree_simple_types@U?$pair@$$CBHVdeviceStatusOnHost@@@std@@@std@@@std@@@std@@_N@1@_NAAU?$pair@$$CBHVdeviceStatusOnHost@@@1@PAU?$_Tree_node@U?$pair@$$CBHVdeviceStatusOnHost@@@std@@PAX@1@@Z 0042d294     deviceStatus.obj
 0002:000062a4       __tryblocktable$??$_Insert_nohint@AAU?$pair@$$CBHVdeviceStatusOnHost@@@std@@PAU?$_Tree_node@U?$pair@$$CBHVdeviceStatusOnHost@@@std@@PAX@2@@?$_Tree@V?$_Tmap_traits@HVdeviceStatusOnHost@@U?$less@H@std@@V?$allocator@U?$pair@$$CBHVdeviceStatusOnHost@@@std@@@3@$0A@@std@@@std@@IAE?AU?$pair@V?$_Tree_iterator@V?$_Tree_val@U?$_Tree_simple_types@U?$pair@$$CBHVdeviceStatusOnHost@@@std@@@std@@@std@@@std@@_N@1@_NAAU?$pair@$$CBHVdeviceStatusOnHost@@@1@PAU?$_Tree_node@U?$pair@$$CBHVdeviceStatusOnHost@@@std@@PAX@1@@Z 0042d2a4     deviceStatus.obj
 0002:000062b8       __ehfuncinfo$??$_Insert_nohint@AAU?$pair@$$CBHVdeviceStatusOnHost@@@std@@PAU?$_Tree_node@U?$pair@$$CBHVdeviceStatusOnHost@@@std@@PAX@2@@?$_Tree@V?$_Tmap_traits@HVdeviceStatusOnHost@@U?$less@H@std@@V?$allocator@U?$pair@$$CBHVdeviceStatusOnHost@@@std@@@3@$0A@@std@@@std@@IAE?AU?$pair@V?$_Tree_iterator@V?$_Tree_val@U?$_Tree_simple_types@U?$pair@$$CBHVdeviceStatusOnHost@@@std@@@std@@@std@@@std@@_N@1@_NAAU?$pair@$$CBHVdeviceStatusOnHost@@@1@PAU?$_Tree_node@U?$pair@$$CBHVdeviceStatusOnHost@@@std@@PAX@1@@Z 0042d2b8     deviceStatus.obj
 0002:000062dc       __catchsym$??$_Buynode@ABVdeviceStatusOnHost@@@?$_List_buy@VdeviceStatusOnHost@@V?$allocator@VdeviceStatusOnHost@@@std@@@std@@QAEPAU?$_List_node@VdeviceStatusOnHost@@PAX@1@PAU21@0ABVdeviceStatusOnHost@@@Z$2 0042d2dc     deviceStatus.obj
 0002:000062ec       __unwindtable$??$_Buynode@ABVdeviceStatusOnHost@@@?$_List_buy@VdeviceStatusOnHost@@V?$allocator@VdeviceStatusOnHost@@@std@@@std@@QAEPAU?$_List_node@VdeviceStatusOnHost@@PAX@1@PAU21@0ABVdeviceStatusOnHost@@@Z 0042d2ec     deviceStatus.obj
 0002:000062fc       __tryblocktable$??$_Buynode@ABVdeviceStatusOnHost@@@?$_List_buy@VdeviceStatusOnHost@@V?$allocator@VdeviceStatusOnHost@@@std@@@std@@QAEPAU?$_List_node@VdeviceStatusOnHost@@PAX@1@PAU21@0ABVdeviceStatusOnHost@@@Z 0042d2fc     deviceStatus.obj
 0002:00006310       __ehfuncinfo$??$_Buynode@ABVdeviceStatusOnHost@@@?$_List_buy@VdeviceStatusOnHost@@V?$allocator@VdeviceStatusOnHost@@@std@@@std@@QAEPAU?$_List_node@VdeviceStatusOnHost@@PAX@1@PAU21@0ABVdeviceStatusOnHost@@@Z 0042d310     deviceStatus.obj
 0002:00006334       __unwindtable$??$construct@PAU?$_Tree_node@U?$pair@QAUHWND__@@K@std@@PAX@std@@AAPAU12@@?$_Wrap_alloc@V?$allocator@U?$_Tree_node@U?$pair@QAUHWND__@@K@std@@PAX@std@@@std@@@std@@QAEXPAPAU?$_Tree_node@U?$pair@QAUHWND__@@K@std@@PAX@1@AAPAU21@@Z 0042d334     deviceStatus.obj
 0002:00006334       __unwindtable$??$construct@PAU?$_Tree_node@U?$pair@$$CBHV?$basic_string@DU?$char_traits@D@std@@V?$allocator@D@2@@std@@@std@@PAX@std@@AAPAU12@@?$_Wrap_alloc@V?$allocator@U?$_Tree_node@U?$pair@$$CBHV?$basic_string@DU?$char_traits@D@std@@V?$allocator@D@2@@std@@@std@@PAX@std@@@std@@@std@@QAEXPAPAU?$_Tree_node@U?$pair@$$CBHV?$basic_string@DU?$char_traits@D@std@@V?$allocator@D@2@@std@@@std@@PAX@1@AAPAU21@@Z 0042d334     deviceStatus.obj
 0002:00006334       __unwindtable$??$construct@U?$pair@$$CBHVdeviceStatusOnHost@@@std@@U?$pair@HVdeviceStatusOnHost@@@2@@?$_Wrap_alloc@V?$allocator@U?$_Tree_node@U?$pair@$$CBHVdeviceStatusOnHost@@@std@@PAX@std@@@std@@@std@@QAEXPAU?$pair@$$CBHVdeviceStatusOnHost@@@1@$$QAU?$pair@HVdeviceStatusOnHost@@@1@@Z 0042d334     deviceStatus.obj
 0002:00006334       __unwindtable$??$construct@PAU?$_Tree_node@HPAX@std@@AAPAU12@@?$_Wrap_alloc@V?$allocator@U?$_Tree_node@HPAX@std@@@std@@@std@@QAEXPAPAU?$_Tree_node@HPAX@1@AAPAU21@@Z 0042d334     deviceStatus.obj
 0002:00006334       __unwindtable$??$construct@U?$pair@QAUHWND__@@K@std@@ABUpiecewise_construct_t@2@V?$tuple@ABQAUHWND__@@@2@V?$tuple@$$$V@2@@?$_Wrap_alloc@V?$allocator@U?$_Tree_node@U?$pair@QAUHWND__@@K@std@@PAX@std@@@std@@@std@@QAEXPAU?$pair@QAUHWND__@@K@1@ABUpiecewise_construct_t@1@$$QAV?$tuple@ABQAUHWND__@@@1@$$QAV?$tuple@$$$V@1@@Z 0042d334     deviceStatus.obj
 0002:00006334       __unwindtable$??$construct@PAU?$_Tree_node@U?$pair@$$CBKK@std@@PAX@std@@AAPAU12@@?$_Wrap_alloc@V?$allocator@U?$_Tree_node@U?$pair@$$CBKK@std@@PAX@std@@@std@@@std@@QAEXPAPAU?$_Tree_node@U?$pair@$$CBKK@std@@PAX@1@AAPAU21@@Z 0042d334     deviceStatus.obj
 0002:00006334       __unwindtable$??$construct@VdeviceStatusOnHost@@ABV1@@?$_Wrap_alloc@V?$allocator@U?$_List_node@VdeviceStatusOnHost@@PAX@std@@@std@@@std@@QAEXPAVdeviceStatusOnHost@@ABV2@@Z 0042d334     deviceStatus.obj
 0002:00006334       __unwindtable$??$construct@PAUHWND__@@ABQAU1@@?$_Wrap_alloc@V?$allocator@U?$_List_node@PAUHWND__@@PAX@std@@@std@@@std@@QAEXPAPAUHWND__@@ABQAU2@@Z 0042d334     deviceStatus.obj
 0002:00006334       __unwindtable$??$construct@HABH@?$_Wrap_alloc@V?$allocator@U?$_Tree_node@HPAX@std@@@std@@@std@@QAEXPAHABH@Z 0042d334     deviceStatus.obj
 0002:00006334       __unwindtable$??$construct@PAU?$_List_node@VdeviceStatusOnHost@@PAX@std@@AAPAU12@@?$_Wrap_alloc@V?$allocator@U?$_List_node@VdeviceStatusOnHost@@PAX@std@@@std@@@std@@QAEXPAPAU?$_List_node@VdeviceStatusOnHost@@PAX@1@AAPAU21@@Z 0042d334     deviceStatus.obj
 0002:00006334       __unwindtable$??$construct@VserialError@@V1@@?$_Wrap_alloc@V?$allocator@U?$_List_node@VserialError@@PAX@std@@@std@@@std@@QAEXPAVserialError@@$$QAV2@@Z 0042d334     deviceStatus.obj
 0002:00006334       __unwindtable$??$construct@PAU?$_Tree_node@U?$pair@$$CBHVdeviceStatusOnHost@@@std@@PAX@std@@AAPAU12@@?$_Wrap_alloc@V?$allocator@U?$_Tree_node@U?$pair@$$CBHVdeviceStatusOnHost@@@std@@PAX@std@@@std@@@std@@QAEXPAPAU?$_Tree_node@U?$pair@$$CBHVdeviceStatusOnHost@@@std@@PAX@1@AAPAU21@@Z 0042d334     deviceStatus.obj
 0002:00006334       __unwindtable$??$construct@PAUHWND__@@PAU1@@?$_Wrap_alloc@V?$allocator@U?$_List_node@PAUHWND__@@PAX@std@@@std@@@std@@QAEXPAPAUHWND__@@$$QAPAU2@@Z 0042d334     deviceStatus.obj
 0002:00006334       __unwindtable$??$construct@U?$pair@$$CBHPAVdatabase@@@std@@U?$pair@HPAVdatabase@@@2@@?$_Wrap_alloc@V?$allocator@U?$_Tree_node@U?$pair@$$CBHPAVdatabase@@@std@@PAX@std@@@std@@@std@@QAEXPAU?$pair@$$CBHPAVdatabase@@@1@$$QAU?$pair@HPAVdatabase@@@1@@Z 0042d334     deviceStatus.obj
 0002:00006334       __unwindtable$??$construct@U?$pair@$$CBGVserialError@@@std@@U?$pair@HVserialError@@@2@@?$_Wrap_alloc@V?$allocator@U?$_Tree_node@U?$pair@$$CBGVserialError@@@std@@PAX@std@@@std@@@std@@QAEXPAU?$pair@$$CBGVserialError@@@1@$$QAU?$pair@HVserialError@@@1@@Z 0042d334     deviceStatus.obj
 0002:00006334       __unwindtable$??$construct@PAU?$_Tree_node@U?$pair@$$CBKVsizedBuffer@@@std@@PAX@std@@AAPAU12@@?$_Wrap_alloc@V?$allocator@U?$_Tree_node@U?$pair@$$CBKVsizedBuffer@@@std@@PAX@std@@@std@@@std@@QAEXPAPAU?$_Tree_node@U?$pair@$$CBKVsizedBuffer@@@std@@PAX@1@AAPAU21@@Z 0042d334     deviceStatus.obj
 0002:00006334       __unwindtable$??$construct@PAU?$_List_node@VserialError@@PAX@std@@AAPAU12@@?$_Wrap_alloc@V?$allocator@U?$_List_node@VserialError@@PAX@std@@@std@@@std@@QAEXPAPAU?$_List_node@VserialError@@PAX@1@AAPAU21@@Z 0042d334     deviceStatus.obj
 0002:00006334       __unwindtable$??$construct@PAU?$_Tree_node@U?$pair@$$CBHPAVdatabase@@@std@@PAX@std@@AAPAU12@@?$_Wrap_alloc@V?$allocator@U?$_Tree_node@U?$pair@$$CBHPAVdatabase@@@std@@PAX@std@@@std@@@std@@QAEXPAPAU?$_Tree_node@U?$pair@$$CBHPAVdatabase@@@std@@PAX@1@AAPAU21@@Z 0042d334     deviceStatus.obj
 0002:00006334       __unwindtable$??$construct@PAU?$_Tree_node@U?$pair@$$CBGVserialError@@@std@@PAX@std@@AAPAU12@@?$_Wrap_alloc@V?$allocator@U?$_Tree_node@U?$pair@$$CBGVserialError@@@std@@PAX@std@@@std@@@std@@QAEXPAPAU?$_Tree_node@U?$pair@$$CBGVserialError@@@std@@PAX@1@AAPAU21@@Z 0042d334     deviceStatus.obj
 0002:00006334       __unwindtable$??$construct@PAU?$_List_node@PAUHWND__@@PAX@std@@AAPAU12@@?$_Wrap_alloc@V?$allocator@U?$_List_node@PAUHWND__@@PAX@std@@@std@@@std@@QAEXPAPAU?$_List_node@PAUHWND__@@PAX@1@AAPAU21@@Z 0042d334     deviceStatus.obj
 0002:00006334       __unwindtable$??$construct@U?$pair@$$CBKK@std@@U?$pair@KK@2@@?$_Wrap_alloc@V?$allocator@U?$_Tree_node@U?$pair@$$CBKK@std@@PAX@std@@@std@@@std@@QAEXPAU?$pair@$$CBKK@1@$$QAU?$pair@KK@1@@Z 0042d334     deviceStatus.obj
 0002:0000633c       __ehfuncinfo$??$construct@PAU?$_Tree_node@U?$pair@$$CBKK@std@@PAX@std@@AAPAU12@@?$_Wrap_alloc@V?$allocator@U?$_Tree_node@U?$pair@$$CBKK@std@@PAX@std@@@std@@@std@@QAEXPAPAU?$_Tree_node@U?$pair@$$CBKK@std@@PAX@1@AAPAU21@@Z 0042d33c     deviceStatus.obj
 0002:0000633c       __ehfuncinfo$??$construct@U?$pair@$$CBKK@std@@U?$pair@KK@2@@?$_Wrap_alloc@V?$allocator@U?$_Tree_node@U?$pair@$$CBKK@std@@PAX@std@@@std@@@std@@QAEXPAU?$pair@$$CBKK@1@$$QAU?$pair@KK@1@@Z 0042d33c     deviceStatus.obj
 0002:0000633c       __ehfuncinfo$??$construct@PAU?$_List_node@PAUHWND__@@PAX@std@@AAPAU12@@?$_Wrap_alloc@V?$allocator@U?$_List_node@PAUHWND__@@PAX@std@@@std@@@std@@QAEXPAPAU?$_List_node@PAUHWND__@@PAX@1@AAPAU21@@Z 0042d33c     deviceStatus.obj
 0002:0000633c       __ehfuncinfo$??$construct@PAU?$_List_node@VserialError@@PAX@std@@AAPAU12@@?$_Wrap_alloc@V?$allocator@U?$_List_node@VserialError@@PAX@std@@@std@@@std@@QAEXPAPAU?$_List_node@VserialError@@PAX@1@AAPAU21@@Z 0042d33c     deviceStatus.obj
 0002:0000633c       __ehfuncinfo$??$construct@PAU?$_Tree_node@U?$pair@$$CBKVsizedBuffer@@@std@@PAX@std@@AAPAU12@@?$_Wrap_alloc@V?$allocator@U?$_Tree_node@U?$pair@$$CBKVsizedBuffer@@@std@@PAX@std@@@std@@@std@@QAEXPAPAU?$_Tree_node@U?$pair@$$CBKVsizedBuffer@@@std@@PAX@1@AAPAU21@@Z 0042d33c     deviceStatus.obj
 0002:0000633c       __ehfuncinfo$??$construct@U?$pair@$$CBHPAVdatabase@@@std@@U?$pair@HPAVdatabase@@@2@@?$_Wrap_alloc@V?$allocator@U?$_Tree_node@U?$pair@$$CBHPAVdatabase@@@std@@PAX@std@@@std@@@std@@QAEXPAU?$pair@$$CBHPAVdatabase@@@1@$$QAU?$pair@HPAVdatabase@@@1@@Z 0042d33c     deviceStatus.obj
 0002:0000633c       __ehfuncinfo$??$construct@PAUHWND__@@PAU1@@?$_Wrap_alloc@V?$allocator@U?$_List_node@PAUHWND__@@PAX@std@@@std@@@std@@QAEXPAPAUHWND__@@$$QAPAU2@@Z 0042d33c     deviceStatus.obj
 0002:0000633c       __ehfuncinfo$??$construct@PAU?$_Tree_node@U?$pair@$$CBHVdeviceStatusOnHost@@@std@@PAX@std@@AAPAU12@@?$_Wrap_alloc@V?$allocator@U?$_Tree_node@U?$pair@$$CBHVdeviceStatusOnHost@@@std@@PAX@std@@@std@@@std@@QAEXPAPAU?$_Tree_node@U?$pair@$$CBHVdeviceStatusOnHost@@@std@@PAX@1@AAPAU21@@Z 0042d33c     deviceStatus.obj
 0002:0000633c       __ehfuncinfo$??$construct@VserialError@@V1@@?$_Wrap_alloc@V?$allocator@U?$_List_node@VserialError@@PAX@std@@@std@@@std@@QAEXPAVserialError@@$$QAV2@@Z 0042d33c     deviceStatus.obj
 0002:0000633c       __ehfuncinfo$??$construct@HABH@?$_Wrap_alloc@V?$allocator@U?$_Tree_node@HPAX@std@@@std@@@std@@QAEXPAHABH@Z 0042d33c     deviceStatus.obj
 0002:0000633c       __ehfuncinfo$??$construct@PAU?$_Tree_node@HPAX@std@@AAPAU12@@?$_Wrap_alloc@V?$allocator@U?$_Tree_node@HPAX@std@@@std@@@std@@QAEXPAPAU?$_Tree_node@HPAX@1@AAPAU21@@Z 0042d33c     deviceStatus.obj
 0002:0000633c       __ehfuncinfo$??$construct@U?$pair@QAUHWND__@@K@std@@ABUpiecewise_construct_t@2@V?$tuple@ABQAUHWND__@@@2@V?$tuple@$$$V@2@@?$_Wrap_alloc@V?$allocator@U?$_Tree_node@U?$pair@QAUHWND__@@K@std@@PAX@std@@@std@@@std@@QAEXPAU?$pair@QAUHWND__@@K@1@ABUpiecewise_construct_t@1@$$QAV?$tuple@ABQAUHWND__@@@1@$$QAV?$tuple@$$$V@1@@Z 0042d33c     deviceStatus.obj
 0002:0000633c       __ehfuncinfo$??$construct@U?$pair@$$CBHVdeviceStatusOnHost@@@std@@U?$pair@HVdeviceStatusOnHost@@@2@@?$_Wrap_alloc@V?$allocator@U?$_Tree_node@U?$pair@$$CBHVdeviceStatusOnHost@@@std@@PAX@std@@@std@@@std@@QAEXPAU?$pair@$$CBHVdeviceStatusOnHost@@@1@$$QAU?$pair@HVdeviceStatusOnHost@@@1@@Z 0042d33c     deviceStatus.obj
 0002:0000633c       __ehfuncinfo$??$construct@PAU?$_Tree_node@U?$pair@$$CBHV?$basic_string@DU?$char_traits@D@std@@V?$allocator@D@2@@std@@@std@@PAX@std@@AAPAU12@@?$_Wrap_alloc@V?$allocator@U?$_Tree_node@U?$pair@$$CBHV?$basic_string@DU?$char_traits@D@std@@V?$allocator@D@2@@std@@@std@@PAX@std@@@std@@@std@@QAEXPAPAU?$_Tree_node@U?$pair@$$CBHV?$basic_string@DU?$char_traits@D@std@@V?$allocator@D@2@@std@@@std@@PAX@1@AAPAU21@@Z 0042d33c     deviceStatus.obj
 0002:0000633c       __ehfuncinfo$??$construct@PAU?$_Tree_node@U?$pair@QAUHWND__@@K@std@@PAX@std@@AAPAU12@@?$_Wrap_alloc@V?$allocator@U?$_Tree_node@U?$pair@QAUHWND__@@K@std@@PAX@std@@@std@@@std@@QAEXPAPAU?$_Tree_node@U?$pair@QAUHWND__@@K@std@@PAX@1@AAPAU21@@Z 0042d33c     deviceStatus.obj
 0002:0000633c       __ehfuncinfo$??$construct@VdeviceStatusOnHost@@ABV1@@?$_Wrap_alloc@V?$allocator@U?$_List_node@VdeviceStatusOnHost@@PAX@std@@@std@@@std@@QAEXPAVdeviceStatusOnHost@@ABV2@@Z 0042d33c     deviceStatus.obj
 0002:0000633c       __ehfuncinfo$??$construct@PAUHWND__@@ABQAU1@@?$_Wrap_alloc@V?$allocator@U?$_List_node@PAUHWND__@@PAX@std@@@std@@@std@@QAEXPAPAUHWND__@@ABQAU2@@Z 0042d33c     deviceStatus.obj
 0002:0000633c       __ehfuncinfo$??$construct@PAU?$_List_node@VdeviceStatusOnHost@@PAX@std@@AAPAU12@@?$_Wrap_alloc@V?$allocator@U?$_List_node@VdeviceStatusOnHost@@PAX@std@@@std@@@std@@QAEXPAPAU?$_List_node@VdeviceStatusOnHost@@PAX@1@AAPAU21@@Z 0042d33c     deviceStatus.obj
 0002:0000633c       __ehfuncinfo$??$construct@U?$pair@$$CBGVserialError@@@std@@U?$pair@HVserialError@@@2@@?$_Wrap_alloc@V?$allocator@U?$_Tree_node@U?$pair@$$CBGVserialError@@@std@@PAX@std@@@std@@@std@@QAEXPAU?$pair@$$CBGVserialError@@@1@$$QAU?$pair@HVserialError@@@1@@Z 0042d33c     deviceStatus.obj
 0002:0000633c       __ehfuncinfo$??$construct@PAU?$_Tree_node@U?$pair@$$CBGVserialError@@@std@@PAX@std@@AAPAU12@@?$_Wrap_alloc@V?$allocator@U?$_Tree_node@U?$pair@$$CBGVserialError@@@std@@PAX@std@@@std@@@std@@QAEXPAPAU?$_Tree_node@U?$pair@$$CBGVserialError@@@std@@PAX@1@AAPAU21@@Z 0042d33c     deviceStatus.obj
 0002:0000633c       __ehfuncinfo$??$construct@PAU?$_Tree_node@U?$pair@$$CBHPAVdatabase@@@std@@PAX@std@@AAPAU12@@?$_Wrap_alloc@V?$allocator@U?$_Tree_node@U?$pair@$$CBHPAVdatabase@@@std@@PAX@std@@@std@@@std@@QAEXPAPAU?$_Tree_node@U?$pair@$$CBHPAVdatabase@@@std@@PAX@1@AAPAU21@@Z 0042d33c     deviceStatus.obj
 0002:00006360       __ehfuncinfo$??0externalsListDialog@@QAE@XZ 0042d360     externalsListDialog.obj
 0002:00006384       __unwindtable$??0externalsListDialog@@QAE@XZ 0042d384     externalsListDialog.obj
 0002:000063ac       __ehfuncinfo$??1externalsListDialog@@UAE@XZ 0042d3ac     externalsListDialog.obj
 0002:000063d0       __unwindtable$??1externalsListDialog@@UAE@XZ 0042d3d0     externalsListDialog.obj
 0002:000063f8       __catchsym$??$_Buynode@ABUpiecewise_construct_t@std@@V?$tuple@ABQAUHWND__@@@2@V?$tuple@$$$V@2@@?$_Tree_buy@U?$pair@QAUHWND__@@K@std@@V?$allocator@U?$pair@QAUHWND__@@K@std@@@2@@std@@QAEPAU?$_Tree_node@U?$pair@QAUHWND__@@K@std@@PAX@1@ABUpiecewise_construct_t@1@$$QAV?$tuple@ABQAUHWND__@@@1@$$QAV?$tuple@$$$V@1@@Z$2 0042d3f8     externalsListDialog.obj
 0002:00006408       __unwindtable$??$_Buynode@ABUpiecewise_construct_t@std@@V?$tuple@ABQAUHWND__@@@2@V?$tuple@$$$V@2@@?$_Tree_buy@U?$pair@QAUHWND__@@K@std@@V?$allocator@U?$pair@QAUHWND__@@K@std@@@2@@std@@QAEPAU?$_Tree_node@U?$pair@QAUHWND__@@K@std@@PAX@1@ABUpiecewise_construct_t@1@$$QAV?$tuple@ABQAUHWND__@@@1@$$QAV?$tuple@$$$V@1@@Z 0042d408     externalsListDialog.obj
 0002:00006418       __tryblocktable$??$_Buynode@ABUpiecewise_construct_t@std@@V?$tuple@ABQAUHWND__@@@2@V?$tuple@$$$V@2@@?$_Tree_buy@U?$pair@QAUHWND__@@K@std@@V?$allocator@U?$pair@QAUHWND__@@K@std@@@2@@std@@QAEPAU?$_Tree_node@U?$pair@QAUHWND__@@K@std@@PAX@1@ABUpiecewise_construct_t@1@$$QAV?$tuple@ABQAUHWND__@@@1@$$QAV?$tuple@$$$V@1@@Z 0042d418     externalsListDialog.obj
 0002:0000642c       __ehfuncinfo$??$_Buynode@ABUpiecewise_construct_t@std@@V?$tuple@ABQAUHWND__@@@2@V?$tuple@$$$V@2@@?$_Tree_buy@U?$pair@QAUHWND__@@K@std@@V?$allocator@U?$pair@QAUHWND__@@K@std@@@2@@std@@QAEPAU?$_Tree_node@U?$pair@QAUHWND__@@K@std@@PAX@1@ABUpiecewise_construct_t@1@$$QAV?$tuple@ABQAUHWND__@@@1@$$QAV?$tuple@$$$V@1@@Z 0042d42c     externalsListDialog.obj
 0002:00006450       __catchsym$??$_Insert_hint@AAU?$pair@QAUHWND__@@K@std@@PAU?$_Tree_node@U?$pair@QAUHWND__@@K@std@@PAX@2@@?$_Tree@V?$_Tmap_traits@PAUHWND__@@KU?$less@PAUHWND__@@@std@@V?$allocator@U?$pair@QAUHWND__@@K@std@@@3@$0A@@std@@@std@@IAE?AV?$_Tree_iterator@V?$_Tree_val@U?$_Tree_simple_types@U?$pair@QAUHWND__@@K@std@@@std@@@std@@@1@V?$_Tree_const_iterator@V?$_Tree_val@U?$_Tree_simple_types@U?$pair@QAUHWND__@@K@std@@@std@@@std@@@1@AAU?$pair@QAUHWND__@@K@1@PAU?$_Tree_node@U?$pair@QAUHWND__@@K@std@@PAX@1@@Z$2 0042d450     externalsListDialog.obj
 0002:00006460       __unwindtable$??$_Insert_hint@AAU?$pair@QAUHWND__@@K@std@@PAU?$_Tree_node@U?$pair@QAUHWND__@@K@std@@PAX@2@@?$_Tree@V?$_Tmap_traits@PAUHWND__@@KU?$less@PAUHWND__@@@std@@V?$allocator@U?$pair@QAUHWND__@@K@std@@@3@$0A@@std@@@std@@IAE?AV?$_Tree_iterator@V?$_Tree_val@U?$_Tree_simple_types@U?$pair@QAUHWND__@@K@std@@@std@@@std@@@1@V?$_Tree_const_iterator@V?$_Tree_val@U?$_Tree_simple_types@U?$pair@QAUHWND__@@K@std@@@std@@@std@@@1@AAU?$pair@QAUHWND__@@K@1@PAU?$_Tree_node@U?$pair@QAUHWND__@@K@std@@PAX@1@@Z 0042d460     externalsListDialog.obj
 0002:00006470       __tryblocktable$??$_Insert_hint@AAU?$pair@QAUHWND__@@K@std@@PAU?$_Tree_node@U?$pair@QAUHWND__@@K@std@@PAX@2@@?$_Tree@V?$_Tmap_traits@PAUHWND__@@KU?$less@PAUHWND__@@@std@@V?$allocator@U?$pair@QAUHWND__@@K@std@@@3@$0A@@std@@@std@@IAE?AV?$_Tree_iterator@V?$_Tree_val@U?$_Tree_simple_types@U?$pair@QAUHWND__@@K@std@@@std@@@std@@@1@V?$_Tree_const_iterator@V?$_Tree_val@U?$_Tree_simple_types@U?$pair@QAUHWND__@@K@std@@@std@@@std@@@1@AAU?$pair@QAUHWND__@@K@1@PAU?$_Tree_node@U?$pair@QAUHWND__@@K@std@@PAX@1@@Z 0042d470     externalsListDialog.obj
 0002:00006484       __ehfuncinfo$??$_Insert_hint@AAU?$pair@QAUHWND__@@K@std@@PAU?$_Tree_node@U?$pair@QAUHWND__@@K@std@@PAX@2@@?$_Tree@V?$_Tmap_traits@PAUHWND__@@KU?$less@PAUHWND__@@@std@@V?$allocator@U?$pair@QAUHWND__@@K@std@@@3@$0A@@std@@@std@@IAE?AV?$_Tree_iterator@V?$_Tree_val@U?$_Tree_simple_types@U?$pair@QAUHWND__@@K@std@@@std@@@std@@@1@V?$_Tree_const_iterator@V?$_Tree_val@U?$_Tree_simple_types@U?$pair@QAUHWND__@@K@std@@@std@@@std@@@1@AAU?$pair@QAUHWND__@@K@1@PAU?$_Tree_node@U?$pair@QAUHWND__@@K@std@@PAX@1@@Z 0042d484     externalsListDialog.obj
 0002:000064a8       __ehfuncinfo$?netRx@networkInterfaceImpl@@SAXPBEH@Z 0042d4a8     networkInterfaceImpl.obj
 0002:000064cc       __unwindtable$?netRx@networkInterfaceImpl@@SAXPBEH@Z 0042d4cc     networkInterfaceImpl.obj
 0002:0000650c       __unwindtable$??$make_pair@AAKVsizedBuffer@@@std@@YA?AU?$pair@KVsizedBuffer@@@0@AAK$$QAVsizedBuffer@@@Z 0042d50c     networkInterfaceImpl.obj
 0002:0000650c       __unwindtable$??$make_pair@AAKAAVsizedBuffer@@@std@@YA?AU?$pair@KVsizedBuffer@@@0@AAKAAVsizedBuffer@@@Z 0042d50c     networkInterfaceImpl.obj
 0002:0000650c       __unwindtable$??$make_pair@KVsizedBuffer@@@std@@YA?AU?$pair@KVsizedBuffer@@@0@$$QAK$$QAVsizedBuffer@@@Z 0042d50c     networkInterfaceImpl.obj
 0002:0000651c       __ehfuncinfo$??$make_pair@AAKAAVsizedBuffer@@@std@@YA?AU?$pair@KVsizedBuffer@@@0@AAKAAVsizedBuffer@@@Z 0042d51c     networkInterfaceImpl.obj
 0002:0000651c       __ehfuncinfo$??$make_pair@AAKVsizedBuffer@@@std@@YA?AU?$pair@KVsizedBuffer@@@0@AAK$$QAVsizedBuffer@@@Z 0042d51c     networkInterfaceImpl.obj
 0002:0000651c       __ehfuncinfo$??$make_pair@KVsizedBuffer@@@std@@YA?AU?$pair@KVsizedBuffer@@@0@$$QAK$$QAVsizedBuffer@@@Z 0042d51c     networkInterfaceImpl.obj
 0002:00006540       __catchsym$??$_Buynode@ABUpiecewise_construct_t@std@@V?$tuple@ABK@2@V?$tuple@$$$V@2@@?$_Tree_buy@U?$pair@$$CBKVsizedBuffer@@@std@@V?$allocator@U?$pair@$$CBKVsizedBuffer@@@std@@@2@@std@@QAEPAU?$_Tree_node@U?$pair@$$CBKVsizedBuffer@@@std@@PAX@1@ABUpiecewise_construct_t@1@$$QAV?$tuple@ABK@1@$$QAV?$tuple@$$$V@1@@Z$2 0042d540     networkInterfaceImpl.obj
 0002:00006550       __unwindtable$??$_Buynode@ABUpiecewise_construct_t@std@@V?$tuple@ABK@2@V?$tuple@$$$V@2@@?$_Tree_buy@U?$pair@$$CBKVsizedBuffer@@@std@@V?$allocator@U?$pair@$$CBKVsizedBuffer@@@std@@@2@@std@@QAEPAU?$_Tree_node@U?$pair@$$CBKVsizedBuffer@@@std@@PAX@1@ABUpiecewise_construct_t@1@$$QAV?$tuple@ABK@1@$$QAV?$tuple@$$$V@1@@Z 0042d550     networkInterfaceImpl.obj
 0002:00006560       __tryblocktable$??$_Buynode@ABUpiecewise_construct_t@std@@V?$tuple@ABK@2@V?$tuple@$$$V@2@@?$_Tree_buy@U?$pair@$$CBKVsizedBuffer@@@std@@V?$allocator@U?$pair@$$CBKVsizedBuffer@@@std@@@2@@std@@QAEPAU?$_Tree_node@U?$pair@$$CBKVsizedBuffer@@@std@@PAX@1@ABUpiecewise_construct_t@1@$$QAV?$tuple@ABK@1@$$QAV?$tuple@$$$V@1@@Z 0042d560     networkInterfaceImpl.obj
 0002:00006574       __ehfuncinfo$??$_Buynode@ABUpiecewise_construct_t@std@@V?$tuple@ABK@2@V?$tuple@$$$V@2@@?$_Tree_buy@U?$pair@$$CBKVsizedBuffer@@@std@@V?$allocator@U?$pair@$$CBKVsizedBuffer@@@std@@@2@@std@@QAEPAU?$_Tree_node@U?$pair@$$CBKVsizedBuffer@@@std@@PAX@1@ABUpiecewise_construct_t@1@$$QAV?$tuple@ABK@1@$$QAV?$tuple@$$$V@1@@Z 0042d574     networkInterfaceImpl.obj
 0002:00006598       __catchsym$??$_Insert_hint@AAU?$pair@$$CBKVsizedBuffer@@@std@@PAU?$_Tree_node@U?$pair@$$CBKVsizedBuffer@@@std@@PAX@2@@?$_Tree@V?$_Tmap_traits@KVsizedBuffer@@U?$less@K@std@@V?$allocator@U?$pair@$$CBKVsizedBuffer@@@std@@@3@$0A@@std@@@std@@IAE?AV?$_Tree_iterator@V?$_Tree_val@U?$_Tree_simple_types@U?$pair@$$CBKVsizedBuffer@@@std@@@std@@@std@@@1@V?$_Tree_const_iterator@V?$_Tree_val@U?$_Tree_simple_types@U?$pair@$$CBKVsizedBuffer@@@std@@@std@@@std@@@1@AAU?$pair@$$CBKVsizedBuffer@@@1@PAU?$_Tree_node@U?$pair@$$CBKVsizedBuffer@@@std@@PAX@1@@Z$2 0042d598     networkInterfaceImpl.obj
 0002:000065a8       __unwindtable$??$_Insert_hint@AAU?$pair@$$CBKVsizedBuffer@@@std@@PAU?$_Tree_node@U?$pair@$$CBKVsizedBuffer@@@std@@PAX@2@@?$_Tree@V?$_Tmap_traits@KVsizedBuffer@@U?$less@K@std@@V?$allocator@U?$pair@$$CBKVsizedBuffer@@@std@@@3@$0A@@std@@@std@@IAE?AV?$_Tree_iterator@V?$_Tree_val@U?$_Tree_simple_types@U?$pair@$$CBKVsizedBuffer@@@std@@@std@@@std@@@1@V?$_Tree_const_iterator@V?$_Tree_val@U?$_Tree_simple_types@U?$pair@$$CBKVsizedBuffer@@@std@@@std@@@std@@@1@AAU?$pair@$$CBKVsizedBuffer@@@1@PAU?$_Tree_node@U?$pair@$$CBKVsizedBuffer@@@std@@PAX@1@@Z 0042d5a8     networkInterfaceImpl.obj
 0002:000065b8       __tryblocktable$??$_Insert_hint@AAU?$pair@$$CBKVsizedBuffer@@@std@@PAU?$_Tree_node@U?$pair@$$CBKVsizedBuffer@@@std@@PAX@2@@?$_Tree@V?$_Tmap_traits@KVsizedBuffer@@U?$less@K@std@@V?$allocator@U?$pair@$$CBKVsizedBuffer@@@std@@@3@$0A@@std@@@std@@IAE?AV?$_Tree_iterator@V?$_Tree_val@U?$_Tree_simple_types@U?$pair@$$CBKVsizedBuffer@@@std@@@std@@@std@@@1@V?$_Tree_const_iterator@V?$_Tree_val@U?$_Tree_simple_types@U?$pair@$$CBKVsizedBuffer@@@std@@@std@@@std@@@1@AAU?$pair@$$CBKVsizedBuffer@@@1@PAU?$_Tree_node@U?$pair@$$CBKVsizedBuffer@@@std@@PAX@1@@Z 0042d5b8     networkInterfaceImpl.obj
 0002:000065cc       __ehfuncinfo$??$_Insert_hint@AAU?$pair@$$CBKVsizedBuffer@@@std@@PAU?$_Tree_node@U?$pair@$$CBKVsizedBuffer@@@std@@PAX@2@@?$_Tree@V?$_Tmap_traits@KVsizedBuffer@@U?$less@K@std@@V?$allocator@U?$pair@$$CBKVsizedBuffer@@@std@@@3@$0A@@std@@@std@@IAE?AV?$_Tree_iterator@V?$_Tree_val@U?$_Tree_simple_types@U?$pair@$$CBKVsizedBuffer@@@std@@@std@@@std@@@1@V?$_Tree_const_iterator@V?$_Tree_val@U?$_Tree_simple_types@U?$pair@$$CBKVsizedBuffer@@@std@@@std@@@std@@@1@AAU?$pair@$$CBKVsizedBuffer@@@1@PAU?$_Tree_node@U?$pair@$$CBKVsizedBuffer@@@std@@PAX@1@@Z 0042d5cc     networkInterfaceImpl.obj
 0002:000065f0       __catchsym$??$_Buynode@VserialError@@@?$_List_buy@VserialError@@V?$allocator@VserialError@@@std@@@std@@QAEPAU?$_List_node@VserialError@@PAX@1@PAU21@0$$QAVserialError@@@Z$2 0042d5f0     networkInterfaceImpl.obj
 0002:00006600       __unwindtable$??$_Buynode@VserialError@@@?$_List_buy@VserialError@@V?$allocator@VserialError@@@std@@@std@@QAEPAU?$_List_node@VserialError@@PAX@1@PAU21@0$$QAVserialError@@@Z 0042d600     networkInterfaceImpl.obj
 0002:00006610       __tryblocktable$??$_Buynode@VserialError@@@?$_List_buy@VserialError@@V?$allocator@VserialError@@@std@@@std@@QAEPAU?$_List_node@VserialError@@PAX@1@PAU21@0$$QAVserialError@@@Z 0042d610     networkInterfaceImpl.obj
 0002:00006624       __ehfuncinfo$??$_Buynode@VserialError@@@?$_List_buy@VserialError@@V?$allocator@VserialError@@@std@@@std@@QAEPAU?$_List_node@VserialError@@PAX@1@PAU21@0$$QAVserialError@@@Z 0042d624     networkInterfaceImpl.obj
 0002:00006648       __unwindtable$??$construct@U?$pair@$$CBKVsizedBuffer@@@std@@ABUpiecewise_construct_t@2@V?$tuple@ABK@2@V?$tuple@$$$V@2@@?$_Wrap_alloc@V?$allocator@U?$_Tree_node@U?$pair@$$CBKVsizedBuffer@@@std@@PAX@std@@@std@@@std@@QAEXPAU?$pair@$$CBKVsizedBuffer@@@1@ABUpiecewise_construct_t@1@$$QAV?$tuple@ABK@1@$$QAV?$tuple@$$$V@1@@Z 0042d648     networkInterfaceImpl.obj
 0002:00006660       __ehfuncinfo$??$construct@U?$pair@$$CBKVsizedBuffer@@@std@@ABUpiecewise_construct_t@2@V?$tuple@ABK@2@V?$tuple@$$$V@2@@?$_Wrap_alloc@V?$allocator@U?$_Tree_node@U?$pair@$$CBKVsizedBuffer@@@std@@PAX@std@@@std@@@std@@QAEXPAU?$pair@$$CBKVsizedBuffer@@@1@ABUpiecewise_construct_t@1@$$QAV?$tuple@ABK@1@$$QAV?$tuple@$$$V@1@@Z 0042d660     networkInterfaceImpl.obj
 0002:00006684       __ehfuncinfo$??0supersededMemory@@QAE@XZ 0042d684     supersededMemory.obj
 0002:00006684       __ehfuncinfo$??0databaseMgr@@QAE@PBD@Z 0042d684     supersededMemory.obj
 0002:000066a8       __unwindtable$??0databaseMgr@@QAE@PBD@Z 0042d6a8     supersededMemory.obj
 0002:000066a8       __unwindtable$??0supersededMemory@@QAE@XZ 0042d6a8     supersededMemory.obj
 0002:000066d0       __ehfuncinfo$??1databaseMgr@@UAE@XZ 0042d6d0     supersededMemory.obj
 0002:000066d0       __ehfuncinfo$??1supersededMemory@@UAE@XZ 0042d6d0     supersededMemory.obj
 0002:000066f4       __unwindtable$??1supersededMemory@@UAE@XZ 0042d6f4     supersededMemory.obj
 0002:000066f4       __unwindtable$??1databaseMgr@@UAE@XZ 0042d6f4     supersededMemory.obj
 0002:0000671c       __catchsym$?_Buynode0@?$_Tree_buy@U?$pair@$$CBHPAVdatabase@@@std@@V?$allocator@U?$pair@$$CBHPAVdatabase@@@std@@@2@@std@@QAEPAU?$_Tree_node@U?$pair@$$CBHPAVdatabase@@@std@@PAX@2@XZ$2 0042d71c     supersededMemory.obj
 0002:0000671c       __catchsym$?_Buynode0@?$_Tree_buy@U?$pair@$$CBKK@std@@V?$allocator@U?$pair@$$CBKK@std@@@2@@std@@QAEPAU?$_Tree_node@U?$pair@$$CBKK@std@@PAX@2@XZ$2 0042d71c     supersededMemory.obj
 0002:0000671c       __catchsym$?_Buynode0@?$_Tree_buy@U?$pair@QAUHWND__@@K@std@@V?$allocator@U?$pair@QAUHWND__@@K@std@@@2@@std@@QAEPAU?$_Tree_node@U?$pair@QAUHWND__@@K@std@@PAX@2@XZ$2 0042d71c     supersededMemory.obj
 0002:0000672c       __unwindtable$?_Buynode0@?$_Tree_buy@U?$pair@QAUHWND__@@K@std@@V?$allocator@U?$pair@QAUHWND__@@K@std@@@2@@std@@QAEPAU?$_Tree_node@U?$pair@QAUHWND__@@K@std@@PAX@2@XZ 0042d72c     supersededMemory.obj
 0002:0000672c       __unwindtable$?_Buynode0@?$_Tree_buy@U?$pair@$$CBKK@std@@V?$allocator@U?$pair@$$CBKK@std@@@2@@std@@QAEPAU?$_Tree_node@U?$pair@$$CBKK@std@@PAX@2@XZ 0042d72c     supersededMemory.obj
 0002:0000672c       __unwindtable$?_Buynode0@?$_Tree_buy@U?$pair@$$CBHPAVdatabase@@@std@@V?$allocator@U?$pair@$$CBHPAVdatabase@@@std@@@2@@std@@QAEPAU?$_Tree_node@U?$pair@$$CBHPAVdatabase@@@std@@PAX@2@XZ 0042d72c     supersededMemory.obj
 0002:0000673c       __tryblocktable$?_Buynode0@?$_Tree_buy@U?$pair@QAUHWND__@@K@std@@V?$allocator@U?$pair@QAUHWND__@@K@std@@@2@@std@@QAEPAU?$_Tree_node@U?$pair@QAUHWND__@@K@std@@PAX@2@XZ 0042d73c     supersededMemory.obj
 0002:0000673c       __tryblocktable$?_Buynode0@?$_Tree_buy@U?$pair@$$CBKK@std@@V?$allocator@U?$pair@$$CBKK@std@@@2@@std@@QAEPAU?$_Tree_node@U?$pair@$$CBKK@std@@PAX@2@XZ 0042d73c     supersededMemory.obj
 0002:0000673c       __tryblocktable$?_Buynode0@?$_Tree_buy@U?$pair@$$CBHPAVdatabase@@@std@@V?$allocator@U?$pair@$$CBHPAVdatabase@@@std@@@2@@std@@QAEPAU?$_Tree_node@U?$pair@$$CBHPAVdatabase@@@std@@PAX@2@XZ 0042d73c     supersededMemory.obj
 0002:00006750       __ehfuncinfo$?_Buynode0@?$_Tree_buy@U?$pair@QAUHWND__@@K@std@@V?$allocator@U?$pair@QAUHWND__@@K@std@@@2@@std@@QAEPAU?$_Tree_node@U?$pair@QAUHWND__@@K@std@@PAX@2@XZ 0042d750     supersededMemory.obj
 0002:00006750       __ehfuncinfo$?_Buynode0@?$_Tree_buy@U?$pair@$$CBKK@std@@V?$allocator@U?$pair@$$CBKK@std@@@2@@std@@QAEPAU?$_Tree_node@U?$pair@$$CBKK@std@@PAX@2@XZ 0042d750     supersededMemory.obj
 0002:00006750       __ehfuncinfo$?_Buynode0@?$_Tree_buy@U?$pair@$$CBHPAVdatabase@@@std@@V?$allocator@U?$pair@$$CBHPAVdatabase@@@std@@@2@@std@@QAEPAU?$_Tree_node@U?$pair@$$CBHPAVdatabase@@@std@@PAX@2@XZ 0042d750     supersededMemory.obj
 0002:00006774       __catchsym$??$_Insert_nohint@AAU?$pair@$$CBKK@std@@PAU?$_Tree_node@U?$pair@$$CBKK@std@@PAX@2@@?$_Tree@V?$_Tmap_traits@KKU?$less@K@std@@V?$allocator@U?$pair@$$CBKK@std@@@2@$0A@@std@@@std@@IAE?AU?$pair@V?$_Tree_iterator@V?$_Tree_val@U?$_Tree_simple_types@U?$pair@$$CBKK@std@@@std@@@std@@@std@@_N@1@_NAAU?$pair@$$CBKK@1@PAU?$_Tree_node@U?$pair@$$CBKK@std@@PAX@1@@Z$2 0042d774     supersededMemory.obj
 0002:00006774       __catchsym$??$_Insert_nohint@AAU?$pair@QAUHWND__@@K@std@@PAU?$_Tree_node@U?$pair@QAUHWND__@@K@std@@PAX@2@@?$_Tree@V?$_Tmap_traits@PAUHWND__@@KU?$less@PAUHWND__@@@std@@V?$allocator@U?$pair@QAUHWND__@@K@std@@@3@$0A@@std@@@std@@IAE?AU?$pair@V?$_Tree_iterator@V?$_Tree_val@U?$_Tree_simple_types@U?$pair@QAUHWND__@@K@std@@@std@@@std@@@std@@_N@1@_NAAU?$pair@QAUHWND__@@K@1@PAU?$_Tree_node@U?$pair@QAUHWND__@@K@std@@PAX@1@@Z$2 0042d774     supersededMemory.obj
 0002:00006784       __unwindtable$??$_Insert_nohint@AAU?$pair@$$CBKK@std@@PAU?$_Tree_node@U?$pair@$$CBKK@std@@PAX@2@@?$_Tree@V?$_Tmap_traits@KKU?$less@K@std@@V?$allocator@U?$pair@$$CBKK@std@@@2@$0A@@std@@@std@@IAE?AU?$pair@V?$_Tree_iterator@V?$_Tree_val@U?$_Tree_simple_types@U?$pair@$$CBKK@std@@@std@@@std@@@std@@_N@1@_NAAU?$pair@$$CBKK@1@PAU?$_Tree_node@U?$pair@$$CBKK@std@@PAX@1@@Z 0042d784     supersededMemory.obj
 0002:00006784       __unwindtable$??$_Insert_nohint@AAU?$pair@QAUHWND__@@K@std@@PAU?$_Tree_node@U?$pair@QAUHWND__@@K@std@@PAX@2@@?$_Tree@V?$_Tmap_traits@PAUHWND__@@KU?$less@PAUHWND__@@@std@@V?$allocator@U?$pair@QAUHWND__@@K@std@@@3@$0A@@std@@@std@@IAE?AU?$pair@V?$_Tree_iterator@V?$_Tree_val@U?$_Tree_simple_types@U?$pair@QAUHWND__@@K@std@@@std@@@std@@@std@@_N@1@_NAAU?$pair@QAUHWND__@@K@1@PAU?$_Tree_node@U?$pair@QAUHWND__@@K@std@@PAX@1@@Z 0042d784     supersededMemory.obj
 0002:00006794       __tryblocktable$??$_Insert_nohint@AAU?$pair@$$CBKK@std@@PAU?$_Tree_node@U?$pair@$$CBKK@std@@PAX@2@@?$_Tree@V?$_Tmap_traits@KKU?$less@K@std@@V?$allocator@U?$pair@$$CBKK@std@@@2@$0A@@std@@@std@@IAE?AU?$pair@V?$_Tree_iterator@V?$_Tree_val@U?$_Tree_simple_types@U?$pair@$$CBKK@std@@@std@@@std@@@std@@_N@1@_NAAU?$pair@$$CBKK@1@PAU?$_Tree_node@U?$pair@$$CBKK@std@@PAX@1@@Z 0042d794     supersededMemory.obj
 0002:00006794       __tryblocktable$??$_Insert_nohint@AAU?$pair@QAUHWND__@@K@std@@PAU?$_Tree_node@U?$pair@QAUHWND__@@K@std@@PAX@2@@?$_Tree@V?$_Tmap_traits@PAUHWND__@@KU?$less@PAUHWND__@@@std@@V?$allocator@U?$pair@QAUHWND__@@K@std@@@3@$0A@@std@@@std@@IAE?AU?$pair@V?$_Tree_iterator@V?$_Tree_val@U?$_Tree_simple_types@U?$pair@QAUHWND__@@K@std@@@std@@@std@@@std@@_N@1@_NAAU?$pair@QAUHWND__@@K@1@PAU?$_Tree_node@U?$pair@QAUHWND__@@K@std@@PAX@1@@Z 0042d794     supersededMemory.obj
 0002:000067a8       __ehfuncinfo$??$_Insert_nohint@AAU?$pair@$$CBKK@std@@PAU?$_Tree_node@U?$pair@$$CBKK@std@@PAX@2@@?$_Tree@V?$_Tmap_traits@KKU?$less@K@std@@V?$allocator@U?$pair@$$CBKK@std@@@2@$0A@@std@@@std@@IAE?AU?$pair@V?$_Tree_iterator@V?$_Tree_val@U?$_Tree_simple_types@U?$pair@$$CBKK@std@@@std@@@std@@@std@@_N@1@_NAAU?$pair@$$CBKK@1@PAU?$_Tree_node@U?$pair@$$CBKK@std@@PAX@1@@Z 0042d7a8     supersededMemory.obj
 0002:000067a8       __ehfuncinfo$??$_Insert_nohint@AAU?$pair@QAUHWND__@@K@std@@PAU?$_Tree_node@U?$pair@QAUHWND__@@K@std@@PAX@2@@?$_Tree@V?$_Tmap_traits@PAUHWND__@@KU?$less@PAUHWND__@@@std@@V?$allocator@U?$pair@QAUHWND__@@K@std@@@3@$0A@@std@@@std@@IAE?AU?$pair@V?$_Tree_iterator@V?$_Tree_val@U?$_Tree_simple_types@U?$pair@QAUHWND__@@K@std@@@std@@@std@@@std@@_N@1@_NAAU?$pair@QAUHWND__@@K@1@PAU?$_Tree_node@U?$pair@QAUHWND__@@K@std@@PAX@1@@Z 0042d7a8     supersededMemory.obj
 0002:000067cc       __unwindtable$?dgMsgQueueNextItem@@YA?AVsizedBuffer@@XZ 0042d7cc     bbcnb32_static:BBCNB32.obj
 0002:000067d4       __ehfuncinfo$?dgMsgQueueNextItem@@YA?AVsizedBuffer@@XZ 0042d7d4     bbcnb32_static:BBCNB32.obj
 0002:000067f8       __sehtable$__onexit        0042d7f8     MSVCRT:atonexit.obj
 0002:00006818       __sehtable$___tmainCRTStartup 0042d818     MSVCRT:crtexew.obj
 0002:00006838       __sehtable$??_M@YGXPAXIHP6EX0@Z@Z 0042d838     MSVCRT:ehvecdtr.obj
 0002:00006858       __sehtable$?__ArrayUnwind@@YGXPAXIHP6EX0@Z@Z 0042d858     MSVCRT:ehvecdtr.obj
 0002:00006878       __sehtable$__IsNonwritableInCurrentImage 0042d878     MSVCRT:pesect.obj
 0002:00006d26       .idata$6                   0042dd26     version:VERSION.dll
 0002:00006d44       .idata$6                   0042dd44     Shlwapi:SHLWAPI.dll
 0002:00006d50       .idata$6                   0042dd50     ws2_32:WS2_32.dll
 0002:00006d5c       .idata$6                   0042dd5c     bncsif32:BNCSIF32.dll
 0002:00006d78       .idata$6                   0042dd78     handleshare:handleShare.dll
 0002:00007088       .idata$6                   0042e088     kernel32:KERNEL32.dll
 0002:0000737e       .idata$6                   0042e37e     user32:USER32.dll
 0002:0000739c       .idata$6                   0042e39c     gdi32:GDI32.dll
 0002:000073d8       .idata$6                   0042e3d8     advapi32:ADVAPI32.dll
 0002:000073f6       .idata$6                   0042e3f6     shell32:SHELL32.dll
 0002:000074c0       .idata$6                   0042e4c0     msvcprt:MSVCP120.dll
 0002:0000768a       .idata$6                   0042e68a     MSVCRT:MSVCR120.dll
 0002:0000788a       .idata$6                   0042e88a     netapi32:NETAPI32.dll
 0003:00000010       _BNCS_DISKLOG_SIG          0042f010     bncs_disklog.obj
 0003:00000080       _BNCS_CCCHECK_SIG          0042f080     ccCheck.obj
 0003:000000e8       _BNCS_BNCSWM32_SIG         0042f0e8     bncswm32:BncsWM32.obj
 0003:00000378       __Tuple_alloc              0042f378     database.obj
 0003:00000379       _ignore                    0042f379     database.obj
 0003:0000037a       _allocator_arg             0042f37a     database.obj
 0003:0000037b       _piecewise_construct       0042f37b     database.obj
 0003:00000384       __Tuple_alloc              0042f384     databaseMgr.obj
 0003:00000385       _ignore                    0042f385     databaseMgr.obj
 0003:00000386       _allocator_arg             0042f386     databaseMgr.obj
 0003:00000387       _piecewise_construct       0042f387     databaseMgr.obj
 0003:00000388       _allocator_arg             0042f388     ccCheck.obj
 0003:00000389       _piecewise_construct       0042f389     ccCheck.obj
 0003:00000394       _allocator_arg             0042f394     closedDriversList.obj
 0003:00000395       _piecewise_construct       0042f395     closedDriversList.obj
 0003:00000396       __Nil_obj                  0042f396     closedDriversList.obj
 0003:00000397       __Tuple_alloc              0042f397     Csabout.obj
 0003:00000398       _ignore                    0042f398     Csabout.obj
 0003:00000399       _allocator_arg             0042f399     Csabout.obj
 0003:0000039a       _piecewise_construct       0042f39a     Csabout.obj
 0003:0000039b       __Tuple_alloc              0042f39b     Cscache.obj
 0003:0000039c       _ignore                    0042f39c     Cscache.obj
 0003:0000039d       _allocator_arg             0042f39d     Cscache.obj
 0003:0000039e       _piecewise_construct       0042f39e     Cscache.obj
 0003:0000039f       __Tuple_alloc              0042f39f     Cscmd.obj
 0003:000003a0       _ignore                    0042f3a0     Cscmd.obj
 0003:000003a1       _allocator_arg             0042f3a1     Cscmd.obj
 0003:000003a2       _piecewise_construct       0042f3a2     Cscmd.obj
 0003:000003a3       __Nil_obj                  0042f3a3     Cscmd.obj
 0003:000003a4       ?timeErrorLogged@?7??CSCmd_TimeService@@YAXPAD@Z@4_NA 0042f3a4     Cscmd.obj
 0003:000003b0       __Tuple_alloc              0042f3b0     Csdbase.obj
 0003:000003b1       _ignore                    0042f3b1     Csdbase.obj
 0003:000003b2       _allocator_arg             0042f3b2     Csdbase.obj
 0003:000003b3       _piecewise_construct       0042f3b3     Csdbase.obj
 0003:000003b4       ?acResult@?1??CSDbase_GetDBList@@YAPADH@Z@4PADA 0042f3b4     Csdbase.obj
 0003:000003d8       ?acName@?6??CSDbase_GetDbaseName@@YAPADGHG@Z@4PADA 0042f3d8     Csdbase.obj
 0003:00000508       __Tuple_alloc              0042f508     csdbext.obj
 0003:00000509       _ignore                    0042f509     csdbext.obj
 0003:0000050a       _allocator_arg             0042f50a     csdbext.obj
 0003:0000050b       _piecewise_construct       0042f50b     csdbext.obj
 0003:0000050c       __Tuple_alloc              0042f50c     Csdialog.obj
 0003:0000050d       _ignore                    0042f50d     Csdialog.obj
 0003:0000050e       _allocator_arg             0042f50e     Csdialog.obj
 0003:0000050f       _piecewise_construct       0042f50f     Csdialog.obj
 0003:00426684       __Tuple_alloc              00855684     Csimain.obj
 0003:00426685       _ignore                    00855685     Csimain.obj
 0003:00426686       _allocator_arg             00855686     Csimain.obj
 0003:00426687       _piecewise_construct       00855687     Csimain.obj
 0003:00426720       ?unreliabilityRateCount@?HL@??MainWndProc@@YGJPAUHWND__@@IIJ@Z@4IA 00855720     Csimain.obj
 0003:00426724       ?unreliabilityCount@?HL@??MainWndProc@@YGJPAUHWND__@@IIJ@Z@4IA 00855724     Csimain.obj
 0003:00426728       __Tuple_alloc              00855728     CSLICENS.obj
 0003:00426729       _ignore                    00855729     CSLICENS.obj
 0003:0042672a       _allocator_arg             0085572a     CSLICENS.obj
 0003:0042672b       _piecewise_construct       0085572b     CSLICENS.obj
 0003:0042672c       __Tuple_alloc              0085572c     Csndi.obj
 0003:0042672d       _ignore                    0085572d     Csndi.obj
 0003:0042672e       _allocator_arg             0085572e     Csndi.obj
 0003:0042672f       _piecewise_construct       0085572f     Csndi.obj
 0003:00426730       ?acFilePath@?1??CSNDI_UniPollRevertive@@YAXHHPADHHH@Z@4PADA 00855730     Csndi.obj
 0003:00426834       ?unreliabilityRateCount@?BC@??CSNDI_TxPacket@@YAXXZ@4IA 00855834     Csndi.obj
 0003:00426838       ?unreliabilityCount@?BC@??CSNDI_TxPacket@@YAXXZ@4IA 00855838     Csndi.obj
 0003:0042683c       __Tuple_alloc              0085583c     Csnetcli.obj
 0003:0042683d       _ignore                    0085583d     Csnetcli.obj
 0003:0042683e       _allocator_arg             0085583e     Csnetcli.obj
 0003:0042683f       _piecewise_construct       0085583f     Csnetcli.obj
 0003:00426840       __Tuple_alloc              00855840     CSNETMSG.obj
 0003:00426841       _ignore                    00855841     CSNETMSG.obj
 0003:00426842       _allocator_arg             00855842     CSNETMSG.obj
 0003:00426843       _piecewise_construct       00855843     CSNETMSG.obj
 0003:00426844       __Tuple_alloc              00855844     Csnetses.obj
 0003:00426845       _ignore                    00855845     Csnetses.obj
 0003:00426846       _allocator_arg             00855846     Csnetses.obj
 0003:00426847       _piecewise_construct       00855847     Csnetses.obj
 0003:00426848       __Tuple_alloc              00855848     Csnetsrv.obj
 0003:00426849       _ignore                    00855849     Csnetsrv.obj
 0003:0042684a       _allocator_arg             0085584a     Csnetsrv.obj
 0003:0042684b       _piecewise_construct       0085584b     Csnetsrv.obj
 0003:0042684c       __Tuple_alloc              0085584c     Csnetsup.obj
 0003:0042684d       _ignore                    0085584d     Csnetsup.obj
 0003:0042684e       _allocator_arg             0085584e     Csnetsup.obj
 0003:0042684f       _piecewise_construct       0085584f     Csnetsup.obj
 0003:00426850       __Tuple_alloc              00855850     CSPARSER.obj
 0003:00426851       _ignore                    00855851     CSPARSER.obj
 0003:00426852       _allocator_arg             00855852     CSPARSER.obj
 0003:00426853       _piecewise_construct       00855853     CSPARSER.obj
 0003:00426854       __Tuple_alloc              00855854     Csprof.obj
 0003:00426855       _ignore                    00855855     Csprof.obj
 0003:00426856       _allocator_arg             00855856     Csprof.obj
 0003:00426857       _piecewise_construct       00855857     Csprof.obj
 0003:00426858       __Tuple_alloc              00855858     Csreg.obj
 0003:00426859       _ignore                    00855859     Csreg.obj
 0003:0042685a       _allocator_arg             0085585a     Csreg.obj
 0003:0042685b       _piecewise_construct       0085585b     Csreg.obj
 0003:0042685c       __Tuple_alloc              0085585c     CSSNDMSG.obj
 0003:0042685d       _ignore                    0085585d     CSSNDMSG.obj
 0003:0042685e       _allocator_arg             0085585e     CSSNDMSG.obj
 0003:0042685f       _piecewise_construct       0085585f     CSSNDMSG.obj
 0003:00426860       __Tuple_alloc              00855860     CSSUFU.obj
 0003:00426861       _ignore                    00855861     CSSUFU.obj
 0003:00426862       _allocator_arg             00855862     CSSUFU.obj
 0003:00426863       _piecewise_construct       00855863     CSSUFU.obj
 0003:00426864       __Tuple_alloc              00855864     deviceStatus.obj
 0003:00426865       _ignore                    00855865     deviceStatus.obj
 0003:00426866       _allocator_arg             00855866     deviceStatus.obj
 0003:00426867       _piecewise_construct       00855867     deviceStatus.obj
 0003:00426868       _allocator_arg             00855868     except.obj
 0003:00426869       _piecewise_construct       00855869     except.obj
 0003:00426870       __Tuple_alloc              00855870     externalsListDialog.obj
 0003:00426871       _ignore                    00855871     externalsListDialog.obj
 0003:00426872       _allocator_arg             00855872     externalsListDialog.obj
 0003:00426873       _piecewise_construct       00855873     externalsListDialog.obj
 0003:00426878       __Tuple_alloc              00855878     networkInterfaceImpl.obj
 0003:00426879       _ignore                    00855879     networkInterfaceImpl.obj
 0003:0042687a       _allocator_arg             0085587a     networkInterfaceImpl.obj
 0003:0042687b       _piecewise_construct       0085587b     networkInterfaceImpl.obj
 0003:0042687c       __Tuple_alloc              0085587c     pktRecoveryDialog.obj
 0003:0042687d       _ignore                    0085587d     pktRecoveryDialog.obj
 0003:0042687e       _allocator_arg             0085587e     pktRecoveryDialog.obj
 0003:0042687f       _piecewise_construct       0085587f     pktRecoveryDialog.obj
 0003:00426888       ?acPath@?1??GetINIPath@@YAPADPBD@Z@4PADA 00855888     PROFILE.obj
 0003:00426a88       ?acPath@?1??GetTempPathA@@YAPADXZ@4PADA 00855a88     PROFILE.obj
 0003:00426c88       __Tuple_alloc              00855c88     supersededMemory.obj
 0003:00426c89       _ignore                    00855c89     supersededMemory.obj
 0003:00426c8a       _allocator_arg             00855c8a     supersededMemory.obj
 0003:00426c8b       _piecewise_construct       00855c8b     supersededMemory.obj
 0003:00426d30       _allocator_arg             00855d30     bbcnb32_static:BBCNB32.obj
 0003:00426d31       _piecewise_construct       00855d31     bbcnb32_static:BBCNB32.obj
 0003:00426d34       _g_szNameFilter            00855d34     bbcnb32_static:BBCNB32.obj
 0003:00426d38       ?fThreadPrioritySet@?1??PostRoutineNCBDGRECV@@9@4@4_NA 00855d38     bbcnb32_static:BBCNB32.obj
 0003:00426d39       _allocator_arg             00855d39     bbcnb32_static:NCBSUFU.obj
 0003:00426d3a       _piecewise_construct       00855d3a     bbcnb32_static:NCBSUFU.obj
 0003:00426d3b       _allocator_arg             00855d3b     bbcnb32_static:NCBALLOC.obj
 0003:00426d3c       _piecewise_construct       00855d3c     bbcnb32_static:NCBALLOC.obj
 0003:00426d3d       _allocator_arg             00855d3d     bbcnb32_static:NCBCALLS.obj
 0003:00426d3e       _piecewise_construct       00855d3e     bbcnb32_static:NCBCALLS.obj
 0003:00426d40       _?g_fTriedAndFailed@?1??HtmlHelpW@@9@16@4HA$S28322 00855d40     htmlhelp:init.obj
 0003:00426d44       _?g_hmodHHCtrl@?1??HtmlHelpA@@9@16@4PAUHINSTANCE__@@A$S28294 00855d44     htmlhelp:init.obj
 0003:00426d48       _?g_hmodHHCtrl@?1??HtmlHelpW@@9@16@4PAUHINSTANCE__@@A$S28320 00855d48     htmlhelp:init.obj
 0003:00426d4c       _?g_fTriedAndFailed@?1??HtmlHelpA@@9@16@4HA$S28296 00855d4c     htmlhelp:init.obj
 0003:00426d58       _acCopyDataResult          00855d58     bncswm32:BncsWM32.obj
 0003:00426f5c       _lCopyDataResult           00855f5c     bncswm32:BncsWM32.obj
 0003:00426f60       ?lResult@?1??BNCS32SendMessage@@9@4JA 00855f60     bncswm32:BncsWM32.obj
 0003:00426f64       ?acNumericData@?1??BNCS32SendMessage@@9@4PADA 00855f64     bncswm32:BncsWM32.obj
 0003:00426f74       ?CDS@?1??BNCS32SendMessage@@9@4UtagCOPYDATASTRUCT@@A 00855f74     bncswm32:BncsWM32.obj
 0003:00426f80       ?uMsg@?1??BNCS32ReceiveMessage@@9@4IA 00855f80     bncswm32:BncsWM32.obj
 0003:00426f84       ?wParam@?1??BNCS32ReceiveMessage@@9@4IA 00855f84     bncswm32:BncsWM32.obj
 0003:00426f88       ?lParam@?1??BNCS32ReceiveMessage@@9@4JA 00855f88     bncswm32:BncsWM32.obj
 0003:00426f8c       ?lResult@?1??BNCS32ReceiveMessage@@9@4JA 00855f8c     bncswm32:BncsWM32.obj
 0003:00426f90       _GS_ExceptionRecord        00855f90     MSVCRT:gs_report.obj
 0003:00426fe0       _GS_ContextRecord          00855fe0     MSVCRT:gs_report.obj
 0003:004272ac       _DebuggerWasPresent        008562ac     MSVCRT:gs_report.obj
 0003:004272b0       _has_cctor                 008562b0     MSVCRT:crtexew.obj
 0003:004272b4       _mainret                   008562b4     MSVCRT:crtexew.obj
 0003:004272b8       _managedapp                008562b8     MSVCRT:crtexew.obj
 0003:004272bc       _argc                      008562bc     MSVCRT:crtexew.obj
 0003:004272c0       _argv                      008562c0     MSVCRT:crtexew.obj
 0003:004272c4       _envp                      008562c4     MSVCRT:crtexew.obj
 0003:004272c8       _argret                    008562c8     MSVCRT:crtexew.obj
 0003:004272cc       _startinfo                 008562cc     MSVCRT:crtexew.obj
 0004:00000430       $R000000                   00857430     csi32.res
 0004:000007f8       $R0003C8                   008577f8     csi32.res
 0004:000014e8       $R0010B8                   008584e8     csi32.res
 0004:00001850       $R001420                   00858850     csi32.res
 0004:00001930       $R001500                   00858930     csi32.res
 0004:00001b90       $R001760                   00858b90     csi32.res
 0004:00002140       $R001D10                   00859140     csi32.res
 0004:000025c8       $R002198                   008595c8     csi32.res
 0004:00002738       $R002308                   00859738     csi32.res
 0004:00002af0       $R0026C0                   00859af0     csi32.res
 0004:00002af8       $R0026C8                   00859af8     csi32.res
 0004:00003ba0       $R003770                   0085aba0     csi32.res
 0004:00006148       $R005D18                   0085d148     csi32.res
 0004:000065b0       $R006180                   0085d5b0     csi32.res
 0004:000065e0       $R0061B0                   0085d5e0     csi32.res
