 GRD32db

 Timestamp is 5e9db8c6 (Mon Apr 20 15:59:18 2020)

 Preferred load address is 00400000

 Start         Length     Name                   Class
 0001:00000000 0001a6cdH .textbss                DATA
 0002:00000000 00002914H .text                   CODE
 0002:00002920 0000245bH .text$di                CODE
 0002:00004d80 00033741H .text$mn                CODE
 0002:000384d0 000025efH .text$x                 CODE
 0002:0003aac0 000010c4H .text$yd                CODE
 0003:00000000 00000104H .CRT$XCA                DATA
 0003:00000104 00000104H .CRT$XCAA               DATA
 0003:00000208 000003e0H .CRT$XCU                DATA
 0003:000005e8 00000104H .CRT$XCZ                DATA
 0003:000006ec 00000104H .CRT$XIA                DATA
 0003:000007f0 00000104H .CRT$XIAA               DATA
 0003:000008f4 00000104H .CRT$XIC                DATA
 0003:000009f8 00000104H .CRT$XIY                DATA
 0003:00000afc 00000104H .CRT$XIZ                DATA
 0003:00000c00 0000555dH .rdata                  DATA
 0003:00006160 00000169H .rdata$debug            DATA
 0003:000062cc 0000043cH .rdata$r                DATA
 0003:00006708 00000104H .rtc$IAA                DATA
 0003:0000680c 000001c0H .rtc$IMZ                DATA
 0003:000069cc 00000104H .rtc$IZZ                DATA
 0003:00006ad0 00000104H .rtc$TAA                DATA
 0003:00006bd4 000001c0H .rtc$TMZ                DATA
 0003:00006d94 00000104H .rtc$TZZ                DATA
 0003:00006e98 00001867H .xdata$x                DATA
 0003:000086ff 00000000H .edata                  DATA
 0004:00000000 000004a4H .data                   DATA
 0004:000004a4 00000262H .data$r                 DATA
 0004:00000720 000658d8H .bss                    DATA
 0005:00000000 00000564H .idata$5                DATA
 0005:00000564 000000c8H .idata$2                DATA
 0005:0000062c 00000014H .idata$3                DATA
 0005:00000640 00000564H .idata$4                DATA
 0005:00000ba4 00001012H .idata$6                DATA
 0006:00000000 000004ebH .rsrc$01                DATA
 0006:000004f0 0000b7d0H .rsrc$02                DATA

  Address         Publics by Value              Rva+Base       Lib:Object

 0000:00000000       ___safe_se_handler_count   00000000     <absolute>
 0000:00000000       ___guard_flags             00000000     <absolute>
 0000:00000000       __except_list              00000000     <absolute>
 0000:00000000       ___safe_se_handler_table   00000000     <absolute>
 0000:00000000       ___guard_fids_table        00000000     <absolute>
 0000:00000000       ___guard_fids_count        00000000     <absolute>
 0000:00009876       __fltused                  00009876     <absolute>
 0000:00009876       __ldused                   00009876     <absolute>
 0000:00000000       ___ImageBase               00400000     <linker-defined>
 0001:00000000       __enc$textbss$begin        00401000     <linker-defined>
 0001:0001a6cd       __enc$textbss$end          0041b6cd     <linker-defined>
 0002:000024f9       _HtmlHelpA@16              0041e4f9 f   htmlhelp:init.obj
 0002:0000262e       _HtmlHelpW@16              0041e62e f   htmlhelp:init.obj
 0002:00004d80       ?readConfigSection@ccConfig@@SAXABV?$basic_string@DU?$char_traits@D@std@@V?$allocator@D@2@@std@@0AAV?$map@V?$basic_string@DU?$char_traits@D@std@@V?$allocator@D@2@@std@@V12@U?$less@V?$basic_string@DU?$char_traits@D@std@@V?$allocator@D@2@@std@@@2@V?$allocator@U?$pair@$$CBV?$basic_string@DU?$char_traits@D@std@@V?$allocator@D@2@@std@@V12@@std@@@2@@3@@Z 00420d80 f   ccConfig.obj
 0002:00004f70       ?readConfigSection@ccConfig@@SAXHABV?$basic_string@DU?$char_traits@D@std@@V?$allocator@D@2@@std@@AAV?$map@V?$basic_string@DU?$char_traits@D@std@@V?$allocator@D@2@@std@@V12@U?$less@V?$basic_string@DU?$char_traits@D@std@@V?$allocator@D@2@@std@@@2@V?$allocator@U?$pair@$$CBV?$basic_string@DU?$char_traits@D@std@@V?$allocator@D@2@@std@@V12@@std@@@2@@3@@Z 00420f70 f   ccConfig.obj
 0002:000050e0       ?getString@ccConfig@@SA?AV?$basic_string@DU?$char_traits@D@std@@V?$allocator@D@2@@std@@ABV23@000_N@Z 004210e0 f   ccConfig.obj
 0002:000052f0       ?getString@ccConfig@@SA?AV?$basic_string@DU?$char_traits@D@std@@V?$allocator@D@2@@std@@HABV23@00_N@Z 004212f0 f   ccConfig.obj
 0002:00005500       ?getInt@ccConfig@@SAHABV?$basic_string@DU?$char_traits@D@std@@V?$allocator@D@2@@std@@00H_N@Z 00421500 f   ccConfig.obj
 0002:000056e0       ?getInt@ccConfig@@SAHHABV?$basic_string@DU?$char_traits@D@std@@V?$allocator@D@2@@std@@0H_N@Z 004216e0 f   ccConfig.obj
 0002:000058d0       ?getDevPath@ccConfig@@SA?AV?$basic_string@DU?$char_traits@D@std@@V?$allocator@D@2@@std@@XZ 004218d0 f   ccConfig.obj
 0002:00005b10       ?getSystem@ccConfig@@SA?AV?$basic_string@DU?$char_traits@D@std@@V?$allocator@D@2@@std@@XZ 00421b10 f   ccConfig.obj
 0002:00005c50       ?getDevPath@ccConfig@@SA?AV?$basic_string@DU?$char_traits@D@std@@V?$allocator@D@2@@std@@H@Z 00421c50 f   ccConfig.obj
 0002:00005db0       ?getDevPath@ccConfig@@SA?AV?$basic_string@DU?$char_traits@D@std@@V?$allocator@D@2@@std@@ABV23@@Z 00421db0 f   ccConfig.obj
 0002:00005eb0       ?isV4Based@ccConfig@@SA_NXZ 00421eb0 f   ccConfig.obj
 0002:00005f40       ?isV3Based@ccConfig@@SA_NXZ 00421f40 f   ccConfig.obj
 0002:00006010       ?workstation@ccConfig@@SAHXZ 00422010 f   ccConfig.obj
 0002:000061f0       ??0ccConfig@@QAE@XZ        004221f0 f   ccConfig.obj
 0002:00006280       ??0ccConfig@@QAE@ABV?$basic_string@DU?$char_traits@D@std@@V?$allocator@D@2@@std@@0@Z 00422280 f   ccConfig.obj
 0002:00006380       ??0ccConfig@@QAE@HABV?$basic_string@DU?$char_traits@D@std@@V?$allocator@D@2@@std@@@Z 00422380 f   ccConfig.obj
 0002:00006480       ??1ccConfig@@UAE@XZ        00422480 f   ccConfig.obj
 0002:000064d0       ?getString@ccConfig@@QAE?AV?$basic_string@DU?$char_traits@D@std@@V?$allocator@D@2@@std@@ABV23@0_N@Z 004224d0 f   ccConfig.obj
 0002:00006650       ?getInt@ccConfig@@QAEHABV?$basic_string@DU?$char_traits@D@std@@V?$allocator@D@2@@std@@H_N@Z 00422650 f   ccConfig.obj
 0002:00006840       ?developerMode@ccConfig@@SA_NXZ 00422840 f   ccConfig.obj
 0002:000068c0       ?readConfigSectionAbs@ccConfig@@CAXABV?$basic_string@DU?$char_traits@D@std@@V?$allocator@D@2@@std@@0AAV?$map@V?$basic_string@DU?$char_traits@D@std@@V?$allocator@D@2@@std@@V12@U?$less@V?$basic_string@DU?$char_traits@D@std@@V?$allocator@D@2@@std@@@2@V?$allocator@U?$pair@$$CBV?$basic_string@DU?$char_traits@D@std@@V?$allocator@D@2@@std@@V12@@std@@@2@@3@@Z 004228c0 f   ccConfig.obj
 0002:00007440       ??$?0AAV?$_Tree_iterator@V?$_Tree_val@U?$_Tree_simple_types@U?$pair@$$CBV?$basic_string@DU?$char_traits@D@std@@V?$allocator@D@2@@std@@V12@@std@@@std@@@std@@@std@@_NX@?$pair@V?$_Tree_iterator@V?$_Tree_val@U?$_Tree_simple_types@U?$pair@$$CBV?$basic_string@DU?$char_traits@D@std@@V?$allocator@D@2@@std@@V12@@std@@@std@@@std@@@std@@_N@std@@QAE@AAV?$_Tree_iterator@V?$_Tree_val@U?$_Tree_simple_types@U?$pair@$$CBV?$basic_string@DU?$char_traits@D@std@@V?$allocator@D@2@@std@@V12@@std@@@std@@@std@@@1@$$QA_N@Z 00423440 f i ccConfig.obj
 0002:000074f0       ??$?0AAV?$basic_string@DU?$char_traits@D@std@@V?$allocator@D@2@@std@@AAV01@X@?$pair@V?$basic_string@DU?$char_traits@D@std@@V?$allocator@D@2@@std@@V12@@std@@QAE@AAV?$basic_string@DU?$char_traits@D@std@@V?$allocator@D@2@@1@0@Z 004234f0 f i ccConfig.obj
 0002:000075a0       ??$?0U?$_Tree_node@U?$pair@$$CBV?$basic_string@DU?$char_traits@D@std@@V?$allocator@D@2@@std@@V12@@std@@PAX@std@@@?$allocator@U_Container_proxy@std@@@std@@QAE@ABV?$allocator@U?$_Tree_node@U?$pair@$$CBV?$basic_string@DU?$char_traits@D@std@@V?$allocator@D@2@@std@@V12@@std@@PAX@std@@@1@@Z 004235a0 f i ccConfig.obj
 0002:000075c0       ??$?0U?$_Wrap_alloc@V?$allocator@U?$_Tree_node@U?$pair@$$CBV?$basic_string@DU?$char_traits@D@std@@V?$allocator@D@2@@std@@V12@@std@@PAX@std@@@std@@@std@@@?$_Wrap_alloc@V?$allocator@U_Container_proxy@std@@@std@@@std@@QAE@ABU?$_Wrap_alloc@V?$allocator@U?$_Tree_node@U?$pair@$$CBV?$basic_string@DU?$char_traits@D@std@@V?$allocator@D@2@@std@@V12@@std@@PAX@std@@@std@@@1@@Z 004235c0 f i ccConfig.obj
 0002:00007600       ??$?0V?$_Tree_iterator@V?$_Tree_val@U?$_Tree_simple_types@U?$pair@$$CBV?$basic_string@DU?$char_traits@D@std@@V?$allocator@D@2@@std@@V12@@std@@@std@@@std@@@std@@_NX@?$pair@V?$_Tree_iterator@V?$_Tree_val@U?$_Tree_simple_types@U?$pair@$$CBV?$basic_string@DU?$char_traits@D@std@@V?$allocator@D@2@@std@@V12@@std@@@std@@@std@@@std@@_N@std@@QAE@$$QAV?$_Tree_iterator@V?$_Tree_val@U?$_Tree_simple_types@U?$pair@$$CBV?$basic_string@DU?$char_traits@D@std@@V?$allocator@D@2@@std@@V12@@std@@@std@@@std@@@1@$$QA_N@Z 00423600 f i ccConfig.obj
 0002:000076b0       ??$?0V?$basic_string@DU?$char_traits@D@std@@V?$allocator@D@2@@std@@V01@X@?$pair@$$CBV?$basic_string@DU?$char_traits@D@std@@V?$allocator@D@2@@std@@V12@@std@@QAE@$$QAU?$pair@V?$basic_string@DU?$char_traits@D@std@@V?$allocator@D@2@@std@@V12@@1@@Z 004236b0 f i ccConfig.obj
 0002:00007760       ??$?8DD@std@@YA_NABV?$allocator@D@0@0@Z 00423760 f i ccConfig.obj
 0002:00007770       ??$?8DU?$char_traits@D@std@@V?$allocator@D@1@@std@@YA_NABV?$basic_string@DU?$char_traits@D@std@@V?$allocator@D@2@@0@PBD@Z 00423770 f i ccConfig.obj
 0002:000077c0       ??$?8V?$allocator@D@std@@V01@@std@@YA_NABU?$_Wrap_alloc@V?$allocator@D@std@@@0@0@Z 004237c0 f i ccConfig.obj
 0002:00007810       ??$?9V?$allocator@D@std@@V01@@std@@YA_NABU?$_Wrap_alloc@V?$allocator@D@std@@@0@0@Z 00423810 f i ccConfig.obj
 0002:00007870       ??$?HDU?$char_traits@D@std@@V?$allocator@D@1@@std@@YA?AV?$basic_string@DU?$char_traits@D@std@@V?$allocator@D@2@@0@$$QAV10@ABV10@@Z 00423870 f i ccConfig.obj
 0002:000078d0       ??$?HDU?$char_traits@D@std@@V?$allocator@D@1@@std@@YA?AV?$basic_string@DU?$char_traits@D@std@@V?$allocator@D@2@@0@$$QAV10@PBD@Z 004238d0 f i ccConfig.obj
 0002:00007930       ??$?HDU?$char_traits@D@std@@V?$allocator@D@1@@std@@YA?AV?$basic_string@DU?$char_traits@D@std@@V?$allocator@D@2@@0@ABV10@PBD@Z 00423930 f i ccConfig.obj
 0002:00007a80       ??$?HDU?$char_traits@D@std@@V?$allocator@D@1@@std@@YA?AV?$basic_string@DU?$char_traits@D@std@@V?$allocator@D@2@@0@PBDABV10@@Z 00423a80 f i ccConfig.obj
 0002:00007bd0       ??$?MDU?$char_traits@D@std@@V?$allocator@D@1@@std@@YA_NABV?$basic_string@DU?$char_traits@D@std@@V?$allocator@D@2@@0@0@Z 00423bd0 f i ccConfig.obj
 0002:00007c20       ??$_Allocate@D@std@@YAPADIPAD@Z 00423c20 f i ccConfig.obj
 0002:00007c90       ??$_Allocate@U?$_Tree_node@U?$pair@$$CBV?$basic_string@DU?$char_traits@D@std@@V?$allocator@D@2@@std@@V12@@std@@PAX@std@@@std@@YAPAU?$_Tree_node@U?$pair@$$CBV?$basic_string@DU?$char_traits@D@std@@V?$allocator@D@2@@std@@V12@@std@@PAX@0@IPAU10@@Z 00423c90 f i ccConfig.obj
 0002:00007d10       ??$_Allocate@U_Container_proxy@std@@@std@@YAPAU_Container_proxy@0@IPAU10@@Z 00423d10 f i ccConfig.obj
 0002:00007d90       ??$_Buynode@U?$pair@V?$basic_string@DU?$char_traits@D@std@@V?$allocator@D@2@@std@@V12@@std@@@?$_Tree_buy@U?$pair@$$CBV?$basic_string@DU?$char_traits@D@std@@V?$allocator@D@2@@std@@V12@@std@@V?$allocator@U?$pair@$$CBV?$basic_string@DU?$char_traits@D@std@@V?$allocator@D@2@@std@@V12@@std@@@2@@std@@QAEPAU?$_Tree_node@U?$pair@$$CBV?$basic_string@DU?$char_traits@D@std@@V?$allocator@D@2@@std@@V12@@std@@PAX@1@$$QAU?$pair@V?$basic_string@DU?$char_traits@D@std@@V?$allocator@D@2@@std@@V12@@1@@Z 00423d90 f i ccConfig.obj
 0002:00007ee0       ??$_Buynode_if_nil@AAU?$pair@$$CBV?$basic_string@DU?$char_traits@D@std@@V?$allocator@D@2@@std@@V12@@std@@@?$_Tree@V?$_Tmap_traits@V?$basic_string@DU?$char_traits@D@std@@V?$allocator@D@2@@std@@V12@U?$less@V?$basic_string@DU?$char_traits@D@std@@V?$allocator@D@2@@std@@@2@V?$allocator@U?$pair@$$CBV?$basic_string@DU?$char_traits@D@std@@V?$allocator@D@2@@std@@V12@@std@@@2@$0A@@std@@@std@@IAEPAU?$_Tree_node@U?$pair@$$CBV?$basic_string@DU?$char_traits@D@std@@V?$allocator@D@2@@std@@V12@@std@@PAX@1@PAU21@AAU?$pair@$$CBV?$basic_string@DU?$char_traits@D@std@@V?$allocator@D@2@@std@@V12@@1@@Z 00423ee0 f i ccConfig.obj
 0002:00007f00       ??$_Debug_lt_pred@U?$less@V?$basic_string@DU?$char_traits@D@std@@V?$allocator@D@2@@std@@@std@@ABV?$basic_string@DU?$char_traits@D@std@@V?$allocator@D@2@@2@ABV32@@std@@YA_NU?$less@V?$basic_string@DU?$char_traits@D@std@@V?$allocator@D@2@@std@@@0@ABV?$basic_string@DU?$char_traits@D@std@@V?$allocator@D@2@@0@1PB_WI@Z 00423f00 f i ccConfig.obj
 0002:00007fb0       ??$_Debug_pointer@D@std@@YAXPBDPB_WI@Z 00423fb0 f i ccConfig.obj
 0002:00007ff0       ??$_Insert_at@AAU?$pair@$$CBV?$basic_string@DU?$char_traits@D@std@@V?$allocator@D@2@@std@@V12@@std@@PAU?$_Tree_node@U?$pair@$$CBV?$basic_string@DU?$char_traits@D@std@@V?$allocator@D@2@@std@@V12@@std@@PAX@2@@?$_Tree@V?$_Tmap_traits@V?$basic_string@DU?$char_traits@D@std@@V?$allocator@D@2@@std@@V12@U?$less@V?$basic_string@DU?$char_traits@D@std@@V?$allocator@D@2@@std@@@2@V?$allocator@U?$pair@$$CBV?$basic_string@DU?$char_traits@D@std@@V?$allocator@D@2@@std@@V12@@std@@@2@$0A@@std@@@std@@IAE?AV?$_Tree_iterator@V?$_Tree_val@U?$_Tree_simple_types@U?$pair@$$CBV?$basic_string@DU?$char_traits@D@std@@V?$allocator@D@2@@std@@V12@@std@@@std@@@std@@@1@_NPAU?$_Tree_node@U?$pair@$$CBV?$basic_string@DU?$char_traits@D@std@@V?$allocator@D@2@@std@@V12@@std@@PAX@1@AAU?$pair@$$CBV?$basic_string@DU?$char_traits@D@std@@V?$allocator@D@2@@std@@V12@@1@1@Z 00423ff0 f i ccConfig.obj
 0002:00008560       ??$_Insert_nohint@AAU?$pair@$$CBV?$basic_string@DU?$char_traits@D@std@@V?$allocator@D@2@@std@@V12@@std@@PAU?$_Tree_node@U?$pair@$$CBV?$basic_string@DU?$char_traits@D@std@@V?$allocator@D@2@@std@@V12@@std@@PAX@2@@?$_Tree@V?$_Tmap_traits@V?$basic_string@DU?$char_traits@D@std@@V?$allocator@D@2@@std@@V12@U?$less@V?$basic_string@DU?$char_traits@D@std@@V?$allocator@D@2@@std@@@2@V?$allocator@U?$pair@$$CBV?$basic_string@DU?$char_traits@D@std@@V?$allocator@D@2@@std@@V12@@std@@@2@$0A@@std@@@std@@IAE?AU?$pair@V?$_Tree_iterator@V?$_Tree_val@U?$_Tree_simple_types@U?$pair@$$CBV?$basic_string@DU?$char_traits@D@std@@V?$allocator@D@2@@std@@V12@@std@@@std@@@std@@@std@@_N@1@_NAAU?$pair@$$CBV?$basic_string@DU?$char_traits@D@std@@V?$allocator@D@2@@std@@V12@@1@PAU?$_Tree_node@U?$pair@$$CBV?$basic_string@DU?$char_traits@D@std@@V?$allocator@D@2@@std@@V12@@std@@PAX@1@@Z 00424560 f i ccConfig.obj
 0002:00008c20       ??$_Kfn@$$CBV?$basic_string@DU?$char_traits@D@std@@V?$allocator@D@2@@std@@V12@@?$_Tmap_traits@V?$basic_string@DU?$char_traits@D@std@@V?$allocator@D@2@@std@@V12@U?$less@V?$basic_string@DU?$char_traits@D@std@@V?$allocator@D@2@@std@@@2@V?$allocator@U?$pair@$$CBV?$basic_string@DU?$char_traits@D@std@@V?$allocator@D@2@@std@@V12@@std@@@2@$0A@@std@@SAABV?$basic_string@DU?$char_traits@D@std@@V?$allocator@D@2@@1@ABU?$pair@$$CBV?$basic_string@DU?$char_traits@D@std@@V?$allocator@D@2@@std@@V12@@1@@Z 00424c20 f i ccConfig.obj
 0002:00008c30       ??$_Move@AAD@std@@YA$$QADAAD@Z 00424c30 f i ccConfig.obj
 0002:00008c40       ??$addressof@D@std@@YAPADAAD@Z 00424c40 f i ccConfig.obj
 0002:00008c50       ??$addressof@PAU?$_Tree_node@U?$pair@$$CBV?$basic_string@DU?$char_traits@D@std@@V?$allocator@D@2@@std@@V12@@std@@PAX@std@@@std@@YAPAPAU?$_Tree_node@U?$pair@$$CBV?$basic_string@DU?$char_traits@D@std@@V?$allocator@D@2@@std@@V12@@std@@PAX@0@AAPAU10@@Z 00424c50 f i ccConfig.obj
 0002:00008c60       ??$addressof@U?$pair@$$CBV?$basic_string@DU?$char_traits@D@std@@V?$allocator@D@2@@std@@V12@@std@@@std@@YAPAU?$pair@$$CBV?$basic_string@DU?$char_traits@D@std@@V?$allocator@D@2@@std@@V12@@0@AAU10@@Z 00424c60 f i ccConfig.obj
 0002:00008c70       ??$assign@V?$_String_iterator@V?$_String_val@U?$_Simple_types@D@std@@@std@@@std@@@?$basic_string@DU?$char_traits@D@std@@V?$allocator@D@2@@std@@QAEAAV01@V?$_String_iterator@V?$_String_val@U?$_Simple_types@D@std@@@std@@@1@0@Z 00424c70 f i ccConfig.obj
 0002:00008e10       ??$construct@PADAAPAD@?$_Wrap_alloc@V?$allocator@D@std@@@std@@QAEXPAPADAAPAD@Z 00424e10 f i ccConfig.obj
 0002:00008e60       ??$construct@PADAAPAD@?$allocator@D@std@@QAEXPAPADAAPAD@Z 00424e60 f i ccConfig.obj
 0002:00008f30       ??$construct@PADAAPAD@?$allocator_traits@V?$allocator@D@std@@@std@@SAXAAV?$allocator@D@1@PAPADAAPAD@Z 00424f30 f i ccConfig.obj
 0002:00008f60       ??$construct@PAU?$_Tree_node@U?$pair@$$CBV?$basic_string@DU?$char_traits@D@std@@V?$allocator@D@2@@std@@V12@@std@@PAX@std@@AAPAU12@@?$_Wrap_alloc@V?$allocator@U?$_Tree_node@U?$pair@$$CBV?$basic_string@DU?$char_traits@D@std@@V?$allocator@D@2@@std@@V12@@std@@PAX@std@@@std@@@std@@QAEXPAPAU?$_Tree_node@U?$pair@$$CBV?$basic_string@DU?$char_traits@D@std@@V?$allocator@D@2@@std@@V12@@std@@PAX@1@AAPAU21@@Z 00424f60 f i ccConfig.obj
 0002:00008fb0       ??$construct@PAU?$_Tree_node@U?$pair@$$CBV?$basic_string@DU?$char_traits@D@std@@V?$allocator@D@2@@std@@V12@@std@@PAX@std@@AAPAU12@@?$allocator@U?$_Tree_node@U?$pair@$$CBV?$basic_string@DU?$char_traits@D@std@@V?$allocator@D@2@@std@@V12@@std@@PAX@std@@@std@@QAEXPAPAU?$_Tree_node@U?$pair@$$CBV?$basic_string@DU?$char_traits@D@std@@V?$allocator@D@2@@std@@V12@@std@@PAX@1@AAPAU21@@Z 00424fb0 f i ccConfig.obj
 0002:00009080       ??$construct@PAU?$_Tree_node@U?$pair@$$CBV?$basic_string@DU?$char_traits@D@std@@V?$allocator@D@2@@std@@V12@@std@@PAX@std@@AAPAU12@@?$allocator_traits@V?$allocator@U?$_Tree_node@U?$pair@$$CBV?$basic_string@DU?$char_traits@D@std@@V?$allocator@D@2@@std@@V12@@std@@PAX@std@@@std@@@std@@SAXAAV?$allocator@U?$_Tree_node@U?$pair@$$CBV?$basic_string@DU?$char_traits@D@std@@V?$allocator@D@2@@std@@V12@@std@@PAX@std@@@1@PAPAU?$_Tree_node@U?$pair@$$CBV?$basic_string@DU?$char_traits@D@std@@V?$allocator@D@2@@std@@V12@@std@@PAX@1@AAPAU31@@Z 00425080 f i ccConfig.obj
 0002:000090b0       ??$construct@U?$pair@$$CBV?$basic_string@DU?$char_traits@D@std@@V?$allocator@D@2@@std@@V12@@std@@U?$pair@V?$basic_string@DU?$char_traits@D@std@@V?$allocator@D@2@@std@@V12@@2@@?$_Wrap_alloc@V?$allocator@U?$_Tree_node@U?$pair@$$CBV?$basic_string@DU?$char_traits@D@std@@V?$allocator@D@2@@std@@V12@@std@@PAX@std@@@std@@@std@@QAEXPAU?$pair@$$CBV?$basic_string@DU?$char_traits@D@std@@V?$allocator@D@2@@std@@V12@@1@$$QAU?$pair@V?$basic_string@DU?$char_traits@D@std@@V?$allocator@D@2@@std@@V12@@1@@Z 004250b0 f i ccConfig.obj
 0002:00009100       ??$construct@U?$pair@$$CBV?$basic_string@DU?$char_traits@D@std@@V?$allocator@D@2@@std@@V12@@std@@U?$pair@V?$basic_string@DU?$char_traits@D@std@@V?$allocator@D@2@@std@@V12@@2@@?$allocator@U?$_Tree_node@U?$pair@$$CBV?$basic_string@DU?$char_traits@D@std@@V?$allocator@D@2@@std@@V12@@std@@PAX@std@@@std@@QAEXPAU?$pair@$$CBV?$basic_string@DU?$char_traits@D@std@@V?$allocator@D@2@@std@@V12@@1@$$QAU?$pair@V?$basic_string@DU?$char_traits@D@std@@V?$allocator@D@2@@std@@V12@@1@@Z 00425100 f i ccConfig.obj
 0002:000091d0       ??$construct@U?$pair@$$CBV?$basic_string@DU?$char_traits@D@std@@V?$allocator@D@2@@std@@V12@@std@@U?$pair@V?$basic_string@DU?$char_traits@D@std@@V?$allocator@D@2@@std@@V12@@2@@?$allocator_traits@V?$allocator@U?$_Tree_node@U?$pair@$$CBV?$basic_string@DU?$char_traits@D@std@@V?$allocator@D@2@@std@@V12@@std@@PAX@std@@@std@@@std@@SAXAAV?$allocator@U?$_Tree_node@U?$pair@$$CBV?$basic_string@DU?$char_traits@D@std@@V?$allocator@D@2@@std@@V12@@std@@PAX@std@@@1@PAU?$pair@$$CBV?$basic_string@DU?$char_traits@D@std@@V?$allocator@D@2@@std@@V12@@1@$$QAU?$pair@V?$basic_string@DU?$char_traits@D@std@@V?$allocator@D@2@@std@@V12@@1@@Z 004251d0 f i ccConfig.obj
 0002:00009200       ??$construct@U_Container_proxy@std@@U12@@?$_Wrap_alloc@V?$allocator@U_Container_proxy@std@@@std@@@std@@QAEXPAU_Container_proxy@1@$$QAU21@@Z 00425200 f i ccConfig.obj
 0002:00009250       ??$construct@U_Container_proxy@std@@U12@@?$allocator@U_Container_proxy@std@@@std@@QAEXPAU_Container_proxy@1@$$QAU21@@Z 00425250 f i ccConfig.obj
 0002:00009320       ??$construct@U_Container_proxy@std@@U12@@?$allocator_traits@V?$allocator@U_Container_proxy@std@@@std@@@std@@SAXAAV?$allocator@U_Container_proxy@std@@@1@PAU_Container_proxy@1@$$QAU31@@Z 00425320 f i ccConfig.obj
 0002:00009350       ??$destroy@PAD@?$_Wrap_alloc@V?$allocator@D@std@@@std@@QAEXPAPAD@Z 00425350 f i ccConfig.obj
 0002:00009390       ??$destroy@PAD@?$allocator@D@std@@QAEXPAPAD@Z 00425390 f i ccConfig.obj
 0002:000093b0       ??$destroy@PAD@?$allocator_traits@V?$allocator@D@std@@@std@@SAXAAV?$allocator@D@1@PAPAD@Z 004253b0 f i ccConfig.obj
 0002:000093d0       ??$destroy@PAU?$_Tree_node@U?$pair@$$CBV?$basic_string@DU?$char_traits@D@std@@V?$allocator@D@2@@std@@V12@@std@@PAX@std@@@?$_Wrap_alloc@V?$allocator@U?$_Tree_node@U?$pair@$$CBV?$basic_string@DU?$char_traits@D@std@@V?$allocator@D@2@@std@@V12@@std@@PAX@std@@@std@@@std@@QAEXPAPAU?$_Tree_node@U?$pair@$$CBV?$basic_string@DU?$char_traits@D@std@@V?$allocator@D@2@@std@@V12@@std@@PAX@1@@Z 004253d0 f i ccConfig.obj
 0002:00009410       ??$destroy@PAU?$_Tree_node@U?$pair@$$CBV?$basic_string@DU?$char_traits@D@std@@V?$allocator@D@2@@std@@V12@@std@@PAX@std@@@?$allocator@U?$_Tree_node@U?$pair@$$CBV?$basic_string@DU?$char_traits@D@std@@V?$allocator@D@2@@std@@V12@@std@@PAX@std@@@std@@QAEXPAPAU?$_Tree_node@U?$pair@$$CBV?$basic_string@DU?$char_traits@D@std@@V?$allocator@D@2@@std@@V12@@std@@PAX@1@@Z 00425410 f i ccConfig.obj
 0002:00009430       ??$destroy@PAU?$_Tree_node@U?$pair@$$CBV?$basic_string@DU?$char_traits@D@std@@V?$allocator@D@2@@std@@V12@@std@@PAX@std@@@?$allocator_traits@V?$allocator@U?$_Tree_node@U?$pair@$$CBV?$basic_string@DU?$char_traits@D@std@@V?$allocator@D@2@@std@@V12@@std@@PAX@std@@@std@@@std@@SAXAAV?$allocator@U?$_Tree_node@U?$pair@$$CBV?$basic_string@DU?$char_traits@D@std@@V?$allocator@D@2@@std@@V12@@std@@PAX@std@@@1@PAPAU?$_Tree_node@U?$pair@$$CBV?$basic_string@DU?$char_traits@D@std@@V?$allocator@D@2@@std@@V12@@std@@PAX@1@@Z 00425430 f i ccConfig.obj
 0002:00009450       ??$destroy@U?$pair@$$CBV?$basic_string@DU?$char_traits@D@std@@V?$allocator@D@2@@std@@V12@@std@@@?$_Wrap_alloc@V?$allocator@U?$_Tree_node@U?$pair@$$CBV?$basic_string@DU?$char_traits@D@std@@V?$allocator@D@2@@std@@V12@@std@@PAX@std@@@std@@@std@@QAEXPAU?$pair@$$CBV?$basic_string@DU?$char_traits@D@std@@V?$allocator@D@2@@std@@V12@@1@@Z 00425450 f i ccConfig.obj
 0002:00009490       ??$destroy@U?$pair@$$CBV?$basic_string@DU?$char_traits@D@std@@V?$allocator@D@2@@std@@V12@@std@@@?$allocator@U?$_Tree_node@U?$pair@$$CBV?$basic_string@DU?$char_traits@D@std@@V?$allocator@D@2@@std@@V12@@std@@PAX@std@@@std@@QAEXPAU?$pair@$$CBV?$basic_string@DU?$char_traits@D@std@@V?$allocator@D@2@@std@@V12@@1@@Z 00425490 f i ccConfig.obj
 0002:000094d0       ??$destroy@U?$pair@$$CBV?$basic_string@DU?$char_traits@D@std@@V?$allocator@D@2@@std@@V12@@std@@@?$allocator_traits@V?$allocator@U?$_Tree_node@U?$pair@$$CBV?$basic_string@DU?$char_traits@D@std@@V?$allocator@D@2@@std@@V12@@std@@PAX@std@@@std@@@std@@SAXAAV?$allocator@U?$_Tree_node@U?$pair@$$CBV?$basic_string@DU?$char_traits@D@std@@V?$allocator@D@2@@std@@V12@@std@@PAX@std@@@1@PAU?$pair@$$CBV?$basic_string@DU?$char_traits@D@std@@V?$allocator@D@2@@std@@V12@@1@@Z 004254d0 f i ccConfig.obj
 0002:000094f0       ??$destroy@U_Container_proxy@std@@@?$_Wrap_alloc@V?$allocator@U_Container_proxy@std@@@std@@@std@@QAEXPAU_Container_proxy@1@@Z 004254f0 f i ccConfig.obj
 0002:00009530       ??$destroy@U_Container_proxy@std@@@?$allocator@U_Container_proxy@std@@@std@@QAEXPAU_Container_proxy@1@@Z 00425530 f i ccConfig.obj
 0002:00009550       ??$destroy@U_Container_proxy@std@@@?$allocator_traits@V?$allocator@U_Container_proxy@std@@@std@@@std@@SAXAAV?$allocator@U_Container_proxy@std@@@1@PAU_Container_proxy@1@@Z 00425550 f i ccConfig.obj
 0002:00009570       ??$forward@AAPAD@std@@YAAAPADAAPAD@Z 00425570 f i ccConfig.obj
 0002:00009580       ??$forward@AAPAU?$_Tree_node@U?$pair@$$CBV?$basic_string@DU?$char_traits@D@std@@V?$allocator@D@2@@std@@V12@@std@@PAX@std@@@std@@YAAAPAU?$_Tree_node@U?$pair@$$CBV?$basic_string@DU?$char_traits@D@std@@V?$allocator@D@2@@std@@V12@@std@@PAX@0@AAPAU10@@Z 00425580 f i ccConfig.obj
 0002:00009590       ??$forward@AAU?$pair@$$CBV?$basic_string@DU?$char_traits@D@std@@V?$allocator@D@2@@std@@V12@@std@@@std@@YAAAU?$pair@$$CBV?$basic_string@DU?$char_traits@D@std@@V?$allocator@D@2@@std@@V12@@0@AAU10@@Z 00425590 f i ccConfig.obj
 0002:000095a0       ??$forward@AAV?$_Tree_iterator@V?$_Tree_val@U?$_Tree_simple_types@U?$pair@$$CBV?$basic_string@DU?$char_traits@D@std@@V?$allocator@D@2@@std@@V12@@std@@@std@@@std@@@std@@@std@@YAAAV?$_Tree_iterator@V?$_Tree_val@U?$_Tree_simple_types@U?$pair@$$CBV?$basic_string@DU?$char_traits@D@std@@V?$allocator@D@2@@std@@V12@@std@@@std@@@std@@@0@AAV10@@Z 004255a0 f i ccConfig.obj
 0002:000095b0       ??$forward@AAV?$basic_string@DU?$char_traits@D@std@@V?$allocator@D@2@@std@@@std@@YAAAV?$basic_string@DU?$char_traits@D@std@@V?$allocator@D@2@@0@AAV10@@Z 004255b0 f i ccConfig.obj
 0002:000095c0       ??$forward@ABV?$basic_string@DU?$char_traits@D@std@@V?$allocator@D@2@@std@@@std@@YAABV?$basic_string@DU?$char_traits@D@std@@V?$allocator@D@2@@0@ABV10@@Z 004255c0 f i ccConfig.obj
 0002:000095d0       ??$forward@U?$pair@V?$basic_string@DU?$char_traits@D@std@@V?$allocator@D@2@@std@@V12@@std@@@std@@YA$$QAU?$pair@V?$basic_string@DU?$char_traits@D@std@@V?$allocator@D@2@@std@@V12@@0@AAU10@@Z 004255d0 f i ccConfig.obj
 0002:000095e0       ??$forward@U_Container_proxy@std@@@std@@YA$$QAU_Container_proxy@0@AAU10@@Z 004255e0 f i ccConfig.obj
 0002:000095f0       ??$forward@V?$_Tree_iterator@V?$_Tree_val@U?$_Tree_simple_types@U?$pair@$$CBV?$basic_string@DU?$char_traits@D@std@@V?$allocator@D@2@@std@@V12@@std@@@std@@@std@@@std@@@std@@YA$$QAV?$_Tree_iterator@V?$_Tree_val@U?$_Tree_simple_types@U?$pair@$$CBV?$basic_string@DU?$char_traits@D@std@@V?$allocator@D@2@@std@@V12@@std@@@std@@@std@@@0@AAV10@@Z 004255f0 f i ccConfig.obj
 0002:00009600       ??$forward@V?$basic_string@DU?$char_traits@D@std@@V?$allocator@D@2@@std@@@std@@YA$$QAV?$basic_string@DU?$char_traits@D@std@@V?$allocator@D@2@@0@AAV10@@Z 00425600 f i ccConfig.obj
 0002:00009610       ??$forward@_N@std@@YA$$QA_NAA_N@Z 00425610 f i ccConfig.obj
 0002:00009620       ??$insert@U?$pair@V?$basic_string@DU?$char_traits@D@std@@V?$allocator@D@2@@std@@V12@@std@@@?$_Tree@V?$_Tmap_traits@V?$basic_string@DU?$char_traits@D@std@@V?$allocator@D@2@@std@@V12@U?$less@V?$basic_string@DU?$char_traits@D@std@@V?$allocator@D@2@@std@@@2@V?$allocator@U?$pair@$$CBV?$basic_string@DU?$char_traits@D@std@@V?$allocator@D@2@@std@@V12@@std@@@2@$0A@@std@@@std@@QAE?AU?$pair@V?$_Tree_iterator@V?$_Tree_val@U?$_Tree_simple_types@U?$pair@$$CBV?$basic_string@DU?$char_traits@D@std@@V?$allocator@D@2@@std@@V12@@std@@@std@@@std@@@std@@_N@1@$$QAU?$pair@V?$basic_string@DU?$char_traits@D@std@@V?$allocator@D@2@@std@@V12@@1@@Z 00425620 f i ccConfig.obj
 0002:000096c0       ??$move@AAV?$basic_string@DU?$char_traits@D@std@@V?$allocator@D@2@@std@@@std@@YA$$QAV?$basic_string@DU?$char_traits@D@std@@V?$allocator@D@2@@0@AAV10@@Z 004256c0 f i ccConfig.obj
 0002:000096d0       ??$swap@D@std@@YAXAAD0@Z   004256d0 f i ccConfig.obj
 0002:00009780       ??0?$_Iterator012@Ubidirectional_iterator_tag@std@@U?$pair@$$CBV?$basic_string@DU?$char_traits@D@std@@V?$allocator@D@2@@std@@V12@@2@HPBU32@ABU32@U_Iterator_base12@2@@std@@QAE@ABU01@@Z 00425780 f i ccConfig.obj
 0002:000097c0       ??0?$_Iterator012@Ubidirectional_iterator_tag@std@@U?$pair@$$CBV?$basic_string@DU?$char_traits@D@std@@V?$allocator@D@2@@std@@V12@@2@HPBU32@ABU32@U_Iterator_base12@2@@std@@QAE@XZ 004257c0 f i ccConfig.obj
 0002:000097f0       ??0?$_Iterator012@Urandom_access_iterator_tag@std@@DHPBDABDU_Iterator_base12@2@@std@@QAE@ABU01@@Z 004257f0 f i ccConfig.obj
 0002:00009830       ??0?$_Iterator012@Urandom_access_iterator_tag@std@@DHPBDABDU_Iterator_base12@2@@std@@QAE@XZ 00425830 f i ccConfig.obj
 0002:00009860       ??0?$_String_alloc@$0A@U?$_String_base_types@DV?$allocator@D@std@@@std@@@std@@QAE@ABV?$allocator@D@1@@Z 00425860 f i ccConfig.obj
 0002:000098f0       ??0?$_String_const_iterator@V?$_String_val@U?$_Simple_types@D@std@@@std@@@std@@QAE@ABV01@@Z 004258f0 f i ccConfig.obj
 0002:00009940       ??0?$_String_const_iterator@V?$_String_val@U?$_Simple_types@D@std@@@std@@@std@@QAE@PBDPBU_Container_base12@1@@Z 00425940 f i ccConfig.obj
 0002:000099e0       ??0?$_String_iterator@V?$_String_val@U?$_Simple_types@D@std@@@std@@@std@@QAE@ABV01@@Z 004259e0 f i ccConfig.obj
 0002:00009a20       ??0?$_String_iterator@V?$_String_val@U?$_Simple_types@D@std@@@std@@@std@@QAE@PADPBU_Container_base12@1@@Z 00425a20 f i ccConfig.obj
 0002:00009a60       ??0?$_String_val@U?$_Simple_types@D@std@@@std@@QAE@XZ 00425a60 f i ccConfig.obj
 0002:00009ac0       ??0?$_Tree@V?$_Tmap_traits@V?$basic_string@DU?$char_traits@D@std@@V?$allocator@D@2@@std@@V12@U?$less@V?$basic_string@DU?$char_traits@D@std@@V?$allocator@D@2@@std@@@2@V?$allocator@U?$pair@$$CBV?$basic_string@DU?$char_traits@D@std@@V?$allocator@D@2@@std@@V12@@std@@@2@$0A@@std@@@std@@QAE@ABU?$less@V?$basic_string@DU?$char_traits@D@std@@V?$allocator@D@2@@std@@@1@ABV?$allocator@U?$pair@$$CBV?$basic_string@DU?$char_traits@D@std@@V?$allocator@D@2@@std@@V12@@std@@@1@@Z 00425ac0 f i ccConfig.obj
 0002:00009b00       ??0?$_Tree_alloc@$0A@U?$_Tree_base_types@U?$pair@$$CBV?$basic_string@DU?$char_traits@D@std@@V?$allocator@D@2@@std@@V12@@std@@V?$allocator@U?$pair@$$CBV?$basic_string@DU?$char_traits@D@std@@V?$allocator@D@2@@std@@V12@@std@@@2@@std@@@std@@QAE@ABV?$allocator@U?$pair@$$CBV?$basic_string@DU?$char_traits@D@std@@V?$allocator@D@2@@std@@V12@@std@@@1@@Z 00425b00 f i ccConfig.obj
 0002:00009bf0       ??0?$_Tree_buy@U?$pair@$$CBV?$basic_string@DU?$char_traits@D@std@@V?$allocator@D@2@@std@@V12@@std@@V?$allocator@U?$pair@$$CBV?$basic_string@DU?$char_traits@D@std@@V?$allocator@D@2@@std@@V12@@std@@@2@@std@@QAE@ABV?$allocator@U?$pair@$$CBV?$basic_string@DU?$char_traits@D@std@@V?$allocator@D@2@@std@@V12@@std@@@1@@Z 00425bf0 f i ccConfig.obj
 0002:00009c30       ??0?$_Tree_comp@$0A@V?$_Tmap_traits@V?$basic_string@DU?$char_traits@D@std@@V?$allocator@D@2@@std@@V12@U?$less@V?$basic_string@DU?$char_traits@D@std@@V?$allocator@D@2@@std@@@2@V?$allocator@U?$pair@$$CBV?$basic_string@DU?$char_traits@D@std@@V?$allocator@D@2@@std@@V12@@std@@@2@$0A@@std@@@std@@QAE@ABU?$less@V?$basic_string@DU?$char_traits@D@std@@V?$allocator@D@2@@std@@@1@ABV?$allocator@U?$pair@$$CBV?$basic_string@DU?$char_traits@D@std@@V?$allocator@D@2@@std@@V12@@std@@@1@@Z 00425c30 f i ccConfig.obj
 0002:00009c70       ??0?$_Tree_const_iterator@V?$_Tree_val@U?$_Tree_simple_types@U?$pair@$$CBV?$basic_string@DU?$char_traits@D@std@@V?$allocator@D@2@@std@@V12@@std@@@std@@@std@@@std@@QAE@ABV01@@Z 00425c70 f i ccConfig.obj
 0002:00009cb0       ??0?$_Tree_const_iterator@V?$_Tree_val@U?$_Tree_simple_types@U?$pair@$$CBV?$basic_string@DU?$char_traits@D@std@@V?$allocator@D@2@@std@@V12@@std@@@std@@@std@@@std@@QAE@PAU?$_Tree_node@U?$pair@$$CBV?$basic_string@DU?$char_traits@D@std@@V?$allocator@D@2@@std@@V12@@std@@PAX@1@PBV?$_Tree_val@U?$_Tree_simple_types@U?$pair@$$CBV?$basic_string@DU?$char_traits@D@std@@V?$allocator@D@2@@std@@V12@@std@@@std@@@1@@Z 00425cb0 f i ccConfig.obj
 0002:00009cf0       ??0?$_Tree_iterator@V?$_Tree_val@U?$_Tree_simple_types@U?$pair@$$CBV?$basic_string@DU?$char_traits@D@std@@V?$allocator@D@2@@std@@V12@@std@@@std@@@std@@@std@@QAE@ABV01@@Z 00425cf0 f i ccConfig.obj
 0002:00009d30       ??0?$_Tree_iterator@V?$_Tree_val@U?$_Tree_simple_types@U?$pair@$$CBV?$basic_string@DU?$char_traits@D@std@@V?$allocator@D@2@@std@@V12@@std@@@std@@@std@@@std@@QAE@PAU?$_Tree_node@U?$pair@$$CBV?$basic_string@DU?$char_traits@D@std@@V?$allocator@D@2@@std@@V12@@std@@PAX@1@PBV?$_Tree_val@U?$_Tree_simple_types@U?$pair@$$CBV?$basic_string@DU?$char_traits@D@std@@V?$allocator@D@2@@std@@V12@@std@@@std@@@1@@Z 00425d30 f i ccConfig.obj
 0002:00009d70       ??0?$_Tree_unchecked_const_iterator@V?$_Tree_val@U?$_Tree_simple_types@U?$pair@$$CBV?$basic_string@DU?$char_traits@D@std@@V?$allocator@D@2@@std@@V12@@std@@@std@@@std@@U_Iterator_base12@2@@std@@QAE@ABV01@@Z 00425d70 f i ccConfig.obj
 0002:00009dc0       ??0?$_Tree_unchecked_const_iterator@V?$_Tree_val@U?$_Tree_simple_types@U?$pair@$$CBV?$basic_string@DU?$char_traits@D@std@@V?$allocator@D@2@@std@@V12@@std@@@std@@@std@@U_Iterator_base12@2@@std@@QAE@PAU?$_Tree_node@U?$pair@$$CBV?$basic_string@DU?$char_traits@D@std@@V?$allocator@D@2@@std@@V12@@std@@PAX@1@PBV?$_Tree_val@U?$_Tree_simple_types@U?$pair@$$CBV?$basic_string@DU?$char_traits@D@std@@V?$allocator@D@2@@std@@V12@@std@@@std@@@1@@Z 00425dc0 f i ccConfig.obj
 0002:00009e60       ??0?$_Tree_val@U?$_Tree_simple_types@U?$pair@$$CBV?$basic_string@DU?$char_traits@D@std@@V?$allocator@D@2@@std@@V12@@std@@@std@@@std@@QAE@XZ 00425e60 f i ccConfig.obj
 0002:00009ec0       ??0?$_Wrap_alloc@V?$allocator@D@std@@@std@@QAE@ABV?$allocator@D@1@@Z 00425ec0 f i ccConfig.obj
 0002:00009f00       ??0?$_Wrap_alloc@V?$allocator@D@std@@@std@@QAE@XZ 00425f00 f i ccConfig.obj
 0002:00009f30       ??0?$_Wrap_alloc@V?$allocator@U?$_Tree_node@U?$pair@$$CBV?$basic_string@DU?$char_traits@D@std@@V?$allocator@D@2@@std@@V12@@std@@PAX@std@@@std@@@std@@QAE@XZ 00425f30 f i ccConfig.obj
 0002:00009f60       ??0?$allocator@D@std@@QAE@ABV01@@Z 00425f60 f i ccConfig.obj
 0002:00009f80       ??0?$allocator@D@std@@QAE@XZ 00425f80 f i ccConfig.obj
 0002:00009fa0       ??0?$allocator@U?$_Tree_node@U?$pair@$$CBV?$basic_string@DU?$char_traits@D@std@@V?$allocator@D@2@@std@@V12@@std@@PAX@std@@@std@@QAE@XZ 00425fa0 f i ccConfig.obj
 0002:00009fc0       ??0?$allocator@U?$pair@$$CBV?$basic_string@DU?$char_traits@D@std@@V?$allocator@D@2@@std@@V12@@std@@@std@@QAE@XZ 00425fc0 f i ccConfig.obj
 0002:00009fe0       ??0?$allocator@U_Container_proxy@std@@@std@@QAE@XZ 00425fe0 f i ccConfig.obj
 0002:0000a000       ??0?$basic_string@DU?$char_traits@D@std@@V?$allocator@D@2@@std@@QAE@$$QAV01@@Z 00426000 f i ccConfig.obj
 0002:0000a080       ??0?$basic_string@DU?$char_traits@D@std@@V?$allocator@D@2@@std@@QAE@ABV01@@Z 00426080 f i ccConfig.obj
 0002:0000a150       ??0?$basic_string@DU?$char_traits@D@std@@V?$allocator@D@2@@std@@QAE@PBD@Z 00426150 f i ccConfig.obj
 0002:0000a200       ??0?$basic_string@DU?$char_traits@D@std@@V?$allocator@D@2@@std@@QAE@XZ 00426200 f i ccConfig.obj
 0002:0000a2a0       ??0?$map@V?$basic_string@DU?$char_traits@D@std@@V?$allocator@D@2@@std@@V12@U?$less@V?$basic_string@DU?$char_traits@D@std@@V?$allocator@D@2@@std@@@2@V?$allocator@U?$pair@$$CBV?$basic_string@DU?$char_traits@D@std@@V?$allocator@D@2@@std@@V12@@std@@@2@@std@@QAE@XZ 004262a0 f i ccConfig.obj
 0002:0000a2f0       ??0_Container_proxy@std@@QAE@XZ 004262f0 f i ccConfig.obj
 0002:0000a330       ??0_Generic_error_category@std@@QAE@XZ 00426330 f i ccConfig.obj
 0002:0000a370       ??0_Ignore@std@@QAE@XZ     00426370 f i ccConfig.obj
 0002:0000a390       ??0_Iostream_error_category@std@@QAE@XZ 00426390 f i ccConfig.obj
 0002:0000a3d0       ??0_Iterator_base12@std@@QAE@ABU01@@Z 004263d0 f i ccConfig.obj
 0002:0000a420       ??0_Iterator_base12@std@@QAE@XZ 00426420 f i ccConfig.obj
 0002:0000a460       ??0_System_error_category@std@@QAE@XZ 00426460 f i ccConfig.obj
 0002:0000a4a0       ??0error_category@std@@QAE@XZ 004264a0 f i ccConfig.obj
 0002:0000a4d0       ??0error_condition@std@@QAE@HABVerror_category@1@@Z 004264d0 f i ccConfig.obj
 0002:0000a510       ??1?$_Iterator012@Ubidirectional_iterator_tag@std@@U?$pair@$$CBV?$basic_string@DU?$char_traits@D@std@@V?$allocator@D@2@@std@@V12@@2@HPBU32@ABU32@U_Iterator_base12@2@@std@@QAE@XZ 00426510 f i ccConfig.obj
 0002:0000a540       ??1?$_Iterator012@Urandom_access_iterator_tag@std@@DHPBDABDU_Iterator_base12@2@@std@@QAE@XZ 00426540 f i ccConfig.obj
 0002:0000a570       ??1?$_String_alloc@$0A@U?$_String_base_types@DV?$allocator@D@std@@@std@@@std@@QAE@XZ 00426570 f i ccConfig.obj
 0002:0000a5b0       ??1?$_String_const_iterator@V?$_String_val@U?$_Simple_types@D@std@@@std@@@std@@QAE@XZ 004265b0 f i ccConfig.obj
 0002:0000a5e0       ??1?$_String_iterator@V?$_String_val@U?$_Simple_types@D@std@@@std@@@std@@QAE@XZ 004265e0 f i ccConfig.obj
 0002:0000a610       ??1?$_String_val@U?$_Simple_types@D@std@@@std@@QAE@XZ 00426610 f i ccConfig.obj
 0002:0000a650       ??1?$_Tree@V?$_Tmap_traits@V?$basic_string@DU?$char_traits@D@std@@V?$allocator@D@2@@std@@V12@U?$less@V?$basic_string@DU?$char_traits@D@std@@V?$allocator@D@2@@std@@@2@V?$allocator@U?$pair@$$CBV?$basic_string@DU?$char_traits@D@std@@V?$allocator@D@2@@std@@V12@@std@@@2@$0A@@std@@@std@@QAE@XZ 00426650 f i ccConfig.obj
 0002:0000a690       ??1?$_Tree_alloc@$0A@U?$_Tree_base_types@U?$pair@$$CBV?$basic_string@DU?$char_traits@D@std@@V?$allocator@D@2@@std@@V12@@std@@V?$allocator@U?$pair@$$CBV?$basic_string@DU?$char_traits@D@std@@V?$allocator@D@2@@std@@V12@@std@@@2@@std@@@std@@QAE@XZ 00426690 f i ccConfig.obj
 0002:0000a6e0       ??1?$_Tree_buy@U?$pair@$$CBV?$basic_string@DU?$char_traits@D@std@@V?$allocator@D@2@@std@@V12@@std@@V?$allocator@U?$pair@$$CBV?$basic_string@DU?$char_traits@D@std@@V?$allocator@D@2@@std@@V12@@std@@@2@@std@@QAE@XZ 004266e0 f i ccConfig.obj
 0002:0000a710       ??1?$_Tree_comp@$0A@V?$_Tmap_traits@V?$basic_string@DU?$char_traits@D@std@@V?$allocator@D@2@@std@@V12@U?$less@V?$basic_string@DU?$char_traits@D@std@@V?$allocator@D@2@@std@@@2@V?$allocator@U?$pair@$$CBV?$basic_string@DU?$char_traits@D@std@@V?$allocator@D@2@@std@@V12@@std@@@2@$0A@@std@@@std@@QAE@XZ 00426710 f i ccConfig.obj
 0002:0000a740       ??1?$_Tree_const_iterator@V?$_Tree_val@U?$_Tree_simple_types@U?$pair@$$CBV?$basic_string@DU?$char_traits@D@std@@V?$allocator@D@2@@std@@V12@@std@@@std@@@std@@@std@@QAE@XZ 00426740 f i ccConfig.obj
 0002:0000a770       ??1?$_Tree_iterator@V?$_Tree_val@U?$_Tree_simple_types@U?$pair@$$CBV?$basic_string@DU?$char_traits@D@std@@V?$allocator@D@2@@std@@V12@@std@@@std@@@std@@@std@@QAE@XZ 00426770 f i ccConfig.obj
 0002:0000a7a0       ??1?$_Tree_unchecked_const_iterator@V?$_Tree_val@U?$_Tree_simple_types@U?$pair@$$CBV?$basic_string@DU?$char_traits@D@std@@V?$allocator@D@2@@std@@V12@@std@@@std@@@std@@U_Iterator_base12@2@@std@@QAE@XZ 004267a0 f i ccConfig.obj
 0002:0000a7d0       ??1?$_Tree_val@U?$_Tree_simple_types@U?$pair@$$CBV?$basic_string@DU?$char_traits@D@std@@V?$allocator@D@2@@std@@V12@@std@@@std@@@std@@QAE@XZ 004267d0 f i ccConfig.obj
 0002:0000a810       ??1?$basic_string@DU?$char_traits@D@std@@V?$allocator@D@2@@std@@QAE@XZ 00426810 f i ccConfig.obj
 0002:0000a850       ??1?$map@V?$basic_string@DU?$char_traits@D@std@@V?$allocator@D@2@@std@@V12@U?$less@V?$basic_string@DU?$char_traits@D@std@@V?$allocator@D@2@@std@@@2@V?$allocator@U?$pair@$$CBV?$basic_string@DU?$char_traits@D@std@@V?$allocator@D@2@@std@@V12@@std@@@2@@std@@QAE@XZ 00426850 f i ccConfig.obj
 0002:0000a880       ??1?$pair@$$CBV?$basic_string@DU?$char_traits@D@std@@V?$allocator@D@2@@std@@V12@@std@@QAE@XZ 00426880 f i ccConfig.obj
 0002:0000a8c0       ??1?$pair@V?$_Tree_iterator@V?$_Tree_val@U?$_Tree_simple_types@U?$pair@$$CBV?$basic_string@DU?$char_traits@D@std@@V?$allocator@D@2@@std@@V12@@std@@@std@@@std@@@std@@_N@std@@QAE@XZ 004268c0 f i ccConfig.obj
 0002:0000a8f0       ??1?$pair@V?$basic_string@DU?$char_traits@D@std@@V?$allocator@D@2@@std@@V12@@std@@QAE@XZ 004268f0 f i ccConfig.obj
 0002:0000a930       ??1_Generic_error_category@std@@UAE@XZ 00426930 f i ccConfig.obj
 0002:0000a960       ??1_Iostream_error_category@std@@UAE@XZ 00426960 f i ccConfig.obj
 0002:0000a990       ??1_Iterator_base12@std@@QAE@XZ 00426990 f i ccConfig.obj
 0002:0000aa40       ??1_System_error_category@std@@UAE@XZ 00426a40 f i ccConfig.obj
 0002:0000aa70       ??1error_category@std@@UAE@XZ 00426a70 f i ccConfig.obj
 0002:0000aaa0       ??2@YAPAXIPAX@Z            00426aa0 f i ccConfig.obj
 0002:0000aab0       ??3@YAXPAX0@Z              00426ab0 f i ccConfig.obj
 0002:0000aac0       ??4?$basic_string@DU?$char_traits@D@std@@V?$allocator@D@2@@std@@QAEAAV01@$$QAV01@@Z 00426ac0 f i ccConfig.obj
 0002:0000abc0       ??4?$basic_string@DU?$char_traits@D@std@@V?$allocator@D@2@@std@@QAEAAV01@ABV01@@Z 00426bc0 f i ccConfig.obj
 0002:0000ac70       ??4_Iterator_base12@std@@QAEAAU01@ABU01@@Z 00426c70 f i ccConfig.obj
 0002:0000ada0       ??8?$_String_const_iterator@V?$_String_val@U?$_Simple_types@D@std@@@std@@@std@@QBE_NABV01@@Z 00426da0 f i ccConfig.obj
 0002:0000ae10       ??8?$_Tree_const_iterator@V?$_Tree_val@U?$_Tree_simple_types@U?$pair@$$CBV?$basic_string@DU?$char_traits@D@std@@V?$allocator@D@2@@std@@V12@@std@@@std@@@std@@@std@@QBE_NABV01@@Z 00426e10 f i ccConfig.obj
 0002:0000af50       ??8error_category@std@@QBE_NABV01@@Z 00426f50 f i ccConfig.obj
 0002:0000afa0       ??8error_condition@std@@QBE_NABV01@@Z 00426fa0 f i ccConfig.obj
 0002:0000b030       ??9?$_Tree_const_iterator@V?$_Tree_val@U?$_Tree_simple_types@U?$pair@$$CBV?$basic_string@DU?$char_traits@D@std@@V?$allocator@D@2@@std@@V12@@std@@@std@@@std@@@std@@QBE_NABV01@@Z 00427030 f i ccConfig.obj
 0002:0000b090       ??C?$_Tree_iterator@V?$_Tree_val@U?$_Tree_simple_types@U?$pair@$$CBV?$basic_string@DU?$char_traits@D@std@@V?$allocator@D@2@@std@@V12@@std@@@std@@@std@@@std@@QBEPAU?$pair@$$CBV?$basic_string@DU?$char_traits@D@std@@V?$allocator@D@2@@std@@V12@@1@XZ 00427090 f i ccConfig.obj
 0002:0000b0d0       ??D?$_String_const_iterator@V?$_String_val@U?$_Simple_types@D@std@@@std@@@std@@QBEABDXZ 004270d0 f i ccConfig.obj
 0002:0000b200       ??D?$_String_iterator@V?$_String_val@U?$_Simple_types@D@std@@@std@@@std@@QBEAADXZ 00427200 f i ccConfig.obj
 0002:0000b230       ??D?$_Tree_const_iterator@V?$_Tree_val@U?$_Tree_simple_types@U?$pair@$$CBV?$basic_string@DU?$char_traits@D@std@@V?$allocator@D@2@@std@@V12@@std@@@std@@@std@@@std@@QBEABU?$pair@$$CBV?$basic_string@DU?$char_traits@D@std@@V?$allocator@D@2@@std@@V12@@1@XZ 00427230 f i ccConfig.obj
 0002:0000b350       ??D?$_Tree_iterator@V?$_Tree_val@U?$_Tree_simple_types@U?$pair@$$CBV?$basic_string@DU?$char_traits@D@std@@V?$allocator@D@2@@std@@V12@@std@@@std@@@std@@@std@@QBEAAU?$pair@$$CBV?$basic_string@DU?$char_traits@D@std@@V?$allocator@D@2@@std@@V12@@1@XZ 00427350 f i ccConfig.obj
 0002:0000b380       ??E?$_Tree_const_iterator@V?$_Tree_val@U?$_Tree_simple_types@U?$pair@$$CBV?$basic_string@DU?$char_traits@D@std@@V?$allocator@D@2@@std@@V12@@std@@@std@@@std@@@std@@QAE?AV01@H@Z 00427380 f i ccConfig.obj
 0002:0000b490       ??E?$_Tree_const_iterator@V?$_Tree_val@U?$_Tree_simple_types@U?$pair@$$CBV?$basic_string@DU?$char_traits@D@std@@V?$allocator@D@2@@std@@V12@@std@@@std@@@std@@@std@@QAEAAV01@XZ 00427490 f i ccConfig.obj
 0002:0000b5b0       ??E?$_Tree_unchecked_const_iterator@V?$_Tree_val@U?$_Tree_simple_types@U?$pair@$$CBV?$basic_string@DU?$char_traits@D@std@@V?$allocator@D@2@@std@@V12@@std@@@std@@@std@@U_Iterator_base12@2@@std@@QAEAAV01@XZ 004275b0 f i ccConfig.obj
 0002:0000b6c0       ??F?$_Tree_const_iterator@V?$_Tree_val@U?$_Tree_simple_types@U?$pair@$$CBV?$basic_string@DU?$char_traits@D@std@@V?$allocator@D@2@@std@@V12@@std@@@std@@@std@@@std@@QAEAAV01@XZ 004276c0 f i ccConfig.obj
 0002:0000b890       ??F?$_Tree_iterator@V?$_Tree_val@U?$_Tree_simple_types@U?$pair@$$CBV?$basic_string@DU?$char_traits@D@std@@V?$allocator@D@2@@std@@V12@@std@@@std@@@std@@@std@@QAEAAV01@XZ 00427890 f i ccConfig.obj
 0002:0000b8c0       ??F?$_Tree_unchecked_const_iterator@V?$_Tree_val@U?$_Tree_simple_types@U?$pair@$$CBV?$basic_string@DU?$char_traits@D@std@@V?$allocator@D@2@@std@@V12@@std@@@std@@@std@@U_Iterator_base12@2@@std@@QAEAAV01@XZ 004278c0 f i ccConfig.obj
 0002:0000ba10       ??G?$_String_const_iterator@V?$_String_val@U?$_Simple_types@D@std@@@std@@@std@@QBEHABV01@@Z 00427a10 f i ccConfig.obj
 0002:0000ba60       ??G?$_String_iterator@V?$_String_val@U?$_Simple_types@D@std@@@std@@@std@@QBEHABV?$_String_const_iterator@V?$_String_val@U?$_Simple_types@D@std@@@std@@@1@@Z 00427a60 f i ccConfig.obj
 0002:0000bb20       ??R?$less@V?$basic_string@DU?$char_traits@D@std@@V?$allocator@D@2@@std@@@std@@QBE_NABV?$basic_string@DU?$char_traits@D@std@@V?$allocator@D@2@@1@0@Z 00427b20 f i ccConfig.obj
 0002:0000bb60       ??Y?$basic_string@DU?$char_traits@D@std@@V?$allocator@D@2@@std@@QAEAAV01@ABV01@@Z 00427b60 f i ccConfig.obj
 0002:0000bba0       ??Y?$basic_string@DU?$char_traits@D@std@@V?$allocator@D@2@@std@@QAEAAV01@PBD@Z 00427ba0 f i ccConfig.obj
 0002:0000bbe0       ??_G?$pair@$$CBV?$basic_string@DU?$char_traits@D@std@@V?$allocator@D@2@@std@@V12@@std@@QAEPAXI@Z 00427be0 f i ccConfig.obj
 0002:0000bc30       ??_E_Generic_error_category@std@@UAEPAXI@Z 00427c30 f i ccConfig.obj
 0002:0000bc30       ??_G_Generic_error_category@std@@UAEPAXI@Z 00427c30 f i ccConfig.obj
 0002:0000bc80       ??_E_Iostream_error_category@std@@UAEPAXI@Z 00427c80 f i ccConfig.obj
 0002:0000bc80       ??_G_Iostream_error_category@std@@UAEPAXI@Z 00427c80 f i ccConfig.obj
 0002:0000bcd0       ??_E_System_error_category@std@@UAEPAXI@Z 00427cd0 f i ccConfig.obj
 0002:0000bcd0       ??_G_System_error_category@std@@UAEPAXI@Z 00427cd0 f i ccConfig.obj
 0002:0000bd20       ??_EccConfig@@UAEPAXI@Z    00427d20 f i ccConfig.obj
 0002:0000bd20       ??_GccConfig@@UAEPAXI@Z    00427d20 f i ccConfig.obj
 0002:0000bd70       ??_Gerror_category@std@@UAEPAXI@Z 00427d70 f i ccConfig.obj
 0002:0000bd70       ??_Eerror_category@std@@UAEPAXI@Z 00427d70 f i ccConfig.obj
 0002:0000bdc0       ?_Adopt@_Iterator_base12@std@@QAEXPBU_Container_base12@2@@Z 00427dc0 f i ccConfig.obj
 0002:0000bf70       ?_Alloc_proxy@?$_String_alloc@$0A@U?$_String_base_types@DV?$allocator@D@std@@@std@@@std@@QAEXXZ 00427f70 f i ccConfig.obj
 0002:0000c030       ?_Alloc_proxy@?$_Tree_alloc@$0A@U?$_Tree_base_types@U?$pair@$$CBV?$basic_string@DU?$char_traits@D@std@@V?$allocator@D@2@@std@@V12@@std@@V?$allocator@U?$pair@$$CBV?$basic_string@DU?$char_traits@D@std@@V?$allocator@D@2@@std@@V12@@std@@@2@@std@@@std@@QAEXXZ 00428030 f i ccConfig.obj
 0002:0000c100       ?_Assign_rv@?$basic_string@DU?$char_traits@D@std@@V?$allocator@D@2@@std@@QAEX$$QAV12@@Z 00428100 f i ccConfig.obj
 0002:0000c1d0       ?_Buyheadnode@?$_Tree_alloc@$0A@U?$_Tree_base_types@U?$pair@$$CBV?$basic_string@DU?$char_traits@D@std@@V?$allocator@D@2@@std@@V12@@std@@V?$allocator@U?$pair@$$CBV?$basic_string@DU?$char_traits@D@std@@V?$allocator@D@2@@std@@V12@@std@@@2@@std@@@std@@QAEPAU?$_Tree_node@U?$pair@$$CBV?$basic_string@DU?$char_traits@D@std@@V?$allocator@D@2@@std@@V12@@std@@PAX@2@XZ 004281d0 f i ccConfig.obj
 0002:0000c3e0       ?_Buynode0@?$_Tree_buy@U?$pair@$$CBV?$basic_string@DU?$char_traits@D@std@@V?$allocator@D@2@@std@@V12@@std@@V?$allocator@U?$pair@$$CBV?$basic_string@DU?$char_traits@D@std@@V?$allocator@D@2@@std@@V12@@std@@@2@@std@@QAEPAU?$_Tree_node@U?$pair@$$CBV?$basic_string@DU?$char_traits@D@std@@V?$allocator@D@2@@std@@V12@@std@@PAX@2@XZ 004283e0 f i ccConfig.obj
 0002:0000c5a0       ?_Change_alloc@?$_String_alloc@$0A@U?$_String_base_types@DV?$allocator@D@std@@@std@@@std@@QAEXABU?$_Wrap_alloc@V?$allocator@D@std@@@2@@Z 004285a0 f i ccConfig.obj
 0002:0000c5c0       ?_Clrcont@_Iterator_base12@std@@QAEXXZ 004285c0 f i ccConfig.obj
 0002:0000c5f0       ?_Color@?$_Tree_val@U?$_Tree_simple_types@U?$pair@$$CBV?$basic_string@DU?$char_traits@D@std@@V?$allocator@D@2@@std@@V12@@std@@@std@@@std@@SAAADPAU?$_Tree_node@U?$pair@$$CBV?$basic_string@DU?$char_traits@D@std@@V?$allocator@D@2@@std@@V12@@std@@PAX@2@@Z 004285f0 f i ccConfig.obj
 0002:0000c600       ?_Compat@?$_String_const_iterator@V?$_String_val@U?$_Simple_types@D@std@@@std@@@std@@QBEXABV12@@Z 00428600 f i ccConfig.obj
 0002:0000c700       ?_Copy@?$basic_string@DU?$char_traits@D@std@@V?$allocator@D@2@@std@@QAEXII@Z 00428700 f i ccConfig.obj
 0002:0000c980       ?_Destroy_if_not_nil@?$_Tree@V?$_Tmap_traits@V?$basic_string@DU?$char_traits@D@std@@V?$allocator@D@2@@std@@V12@U?$less@V?$basic_string@DU?$char_traits@D@std@@V?$allocator@D@2@@std@@@2@V?$allocator@U?$pair@$$CBV?$basic_string@DU?$char_traits@D@std@@V?$allocator@D@2@@std@@V12@@std@@@2@$0A@@std@@@std@@IAEXPAU?$_Tree_node@U?$pair@$$CBV?$basic_string@DU?$char_traits@D@std@@V?$allocator@D@2@@std@@V12@@std@@PAX@2@@Z 00428980 f i ccConfig.obj
 0002:0000ca10       ?_Eos@?$basic_string@DU?$char_traits@D@std@@V?$allocator@D@2@@std@@QAEXI@Z 00428a10 f i ccConfig.obj
 0002:0000ca70       ?_Erase@?$_Tree@V?$_Tmap_traits@V?$basic_string@DU?$char_traits@D@std@@V?$allocator@D@2@@std@@V12@U?$less@V?$basic_string@DU?$char_traits@D@std@@V?$allocator@D@2@@std@@@2@V?$allocator@U?$pair@$$CBV?$basic_string@DU?$char_traits@D@std@@V?$allocator@D@2@@std@@V12@@std@@@2@$0A@@std@@@std@@IAEXPAU?$_Tree_node@U?$pair@$$CBV?$basic_string@DU?$char_traits@D@std@@V?$allocator@D@2@@std@@V12@@std@@PAX@2@@Z 00428a70 f i ccConfig.obj
 0002:0000cb60       ?_Free_proxy@?$_String_alloc@$0A@U?$_String_base_types@DV?$allocator@D@std@@@std@@@std@@QAEXXZ 00428b60 f i ccConfig.obj
 0002:0000cc20       ?_Free_proxy@?$_Tree_alloc@$0A@U?$_Tree_base_types@U?$pair@$$CBV?$basic_string@DU?$char_traits@D@std@@V?$allocator@D@2@@std@@V12@@std@@V?$allocator@U?$pair@$$CBV?$basic_string@DU?$char_traits@D@std@@V?$allocator@D@2@@std@@V12@@std@@@2@@std@@@std@@QAEXXZ 00428c20 f i ccConfig.obj
 0002:0000cd00       ?_Freeheadnode@?$_Tree_alloc@$0A@U?$_Tree_base_types@U?$pair@$$CBV?$basic_string@DU?$char_traits@D@std@@V?$allocator@D@2@@std@@V12@@std@@V?$allocator@U?$pair@$$CBV?$basic_string@DU?$char_traits@D@std@@V?$allocator@D@2@@std@@V12@@std@@@2@@std@@@std@@QAEXPAU?$_Tree_node@U?$pair@$$CBV?$basic_string@DU?$char_traits@D@std@@V?$allocator@D@2@@std@@V12@@std@@PAX@2@@Z 00428d00 f i ccConfig.obj
 0002:0000cdf0       ?_Freenode0@?$_Tree_buy@U?$pair@$$CBV?$basic_string@DU?$char_traits@D@std@@V?$allocator@D@2@@std@@V12@@std@@V?$allocator@U?$pair@$$CBV?$basic_string@DU?$char_traits@D@std@@V?$allocator@D@2@@std@@V12@@std@@@2@@std@@QAEXPAU?$_Tree_node@U?$pair@$$CBV?$basic_string@DU?$char_traits@D@std@@V?$allocator@D@2@@std@@V12@@std@@PAX@2@@Z 00428df0 f i ccConfig.obj
 0002:0000cee0       ?_Getal@?$_String_alloc@$0A@U?$_String_base_types@DV?$allocator@D@std@@@std@@@std@@QBE?AU?$_Wrap_alloc@V?$allocator@D@std@@@2@XZ 00428ee0 f i ccConfig.obj
 0002:0000cf20       ?_Getal@?$_Tree_alloc@$0A@U?$_Tree_base_types@U?$pair@$$CBV?$basic_string@DU?$char_traits@D@std@@V?$allocator@D@2@@std@@V12@@std@@V?$allocator@U?$pair@$$CBV?$basic_string@DU?$char_traits@D@std@@V?$allocator@D@2@@std@@V12@@std@@@2@@std@@@std@@QBE?AU?$_Wrap_alloc@V?$allocator@U?$_Tree_node@U?$pair@$$CBV?$basic_string@DU?$char_traits@D@std@@V?$allocator@D@2@@std@@V12@@std@@PAX@std@@@std@@@2@XZ 00428f20 f i ccConfig.obj
 0002:0000cf60       ?_Getcomp@?$_Tree_comp@$0A@V?$_Tmap_traits@V?$basic_string@DU?$char_traits@D@std@@V?$allocator@D@2@@std@@V12@U?$less@V?$basic_string@DU?$char_traits@D@std@@V?$allocator@D@2@@std@@@2@V?$allocator@U?$pair@$$CBV?$basic_string@DU?$char_traits@D@std@@V?$allocator@D@2@@std@@V12@@std@@@2@$0A@@std@@@std@@QBE?AU?$less@V?$basic_string@DU?$char_traits@D@std@@V?$allocator@D@2@@std@@@2@XZ 00428f60 f i ccConfig.obj
 0002:0000cf90       ?_Getcont@_Iterator_base12@std@@QBEPBU_Container_base12@2@XZ 00428f90 f i ccConfig.obj
 0002:0000cfe0       ?_Getpnext@_Iterator_base12@std@@QAEPAPAU12@XZ 00428fe0 f i ccConfig.obj
 0002:0000d000       ?_Grow@?$basic_string@DU?$char_traits@D@std@@V?$allocator@D@2@@std@@QAE_NI_N@Z 00429000 f i ccConfig.obj
 0002:0000d100       ?_Inside@?$basic_string@DU?$char_traits@D@std@@V?$allocator@D@2@@std@@QAE_NPBD@Z 00429100 f i ccConfig.obj
 0002:0000d160       ?_Isnil@?$_Tree_val@U?$_Tree_simple_types@U?$pair@$$CBV?$basic_string@DU?$char_traits@D@std@@V?$allocator@D@2@@std@@V12@@std@@@std@@@std@@SAAADPAU?$_Tree_node@U?$pair@$$CBV?$basic_string@DU?$char_traits@D@std@@V?$allocator@D@2@@std@@V12@@std@@PAX@2@@Z 00429160 f i ccConfig.obj
 0002:0000d170       ?_Key@?$_Tree@V?$_Tmap_traits@V?$basic_string@DU?$char_traits@D@std@@V?$allocator@D@2@@std@@V12@U?$less@V?$basic_string@DU?$char_traits@D@std@@V?$allocator@D@2@@std@@@2@V?$allocator@U?$pair@$$CBV?$basic_string@DU?$char_traits@D@std@@V?$allocator@D@2@@std@@V12@@std@@@2@$0A@@std@@@std@@IBEABV?$basic_string@DU?$char_traits@D@std@@V?$allocator@D@2@@2@PAU?$_Tree_node@U?$pair@$$CBV?$basic_string@DU?$char_traits@D@std@@V?$allocator@D@2@@std@@V12@@std@@PAX@2@@Z 00429170 f i ccConfig.obj
 0002:0000d1b0       ?_Kfn@?$_Tree@V?$_Tmap_traits@V?$basic_string@DU?$char_traits@D@std@@V?$allocator@D@2@@std@@V12@U?$less@V?$basic_string@DU?$char_traits@D@std@@V?$allocator@D@2@@std@@@2@V?$allocator@U?$pair@$$CBV?$basic_string@DU?$char_traits@D@std@@V?$allocator@D@2@@std@@V12@@std@@@2@$0A@@std@@@std@@IBEABV?$basic_string@DU?$char_traits@D@std@@V?$allocator@D@2@@2@ABU?$pair@$$CBV?$basic_string@DU?$char_traits@D@std@@V?$allocator@D@2@@std@@V12@@2@@Z 004291b0 f i ccConfig.obj
 0002:0000d1f0       ?_Lbound@?$_Tree@V?$_Tmap_traits@V?$basic_string@DU?$char_traits@D@std@@V?$allocator@D@2@@std@@V12@U?$less@V?$basic_string@DU?$char_traits@D@std@@V?$allocator@D@2@@std@@@2@V?$allocator@U?$pair@$$CBV?$basic_string@DU?$char_traits@D@std@@V?$allocator@D@2@@std@@V12@@std@@@2@$0A@@std@@@std@@IAEPAU?$_Tree_node@U?$pair@$$CBV?$basic_string@DU?$char_traits@D@std@@V?$allocator@D@2@@std@@V12@@std@@PAX@2@ABV?$basic_string@DU?$char_traits@D@std@@V?$allocator@D@2@@2@@Z 004291f0 f i ccConfig.obj
 0002:0000d2e0       ?_Left@?$_Tree_val@U?$_Tree_simple_types@U?$pair@$$CBV?$basic_string@DU?$char_traits@D@std@@V?$allocator@D@2@@std@@V12@@std@@@std@@@std@@SAAAPAU?$_Tree_node@U?$pair@$$CBV?$basic_string@DU?$char_traits@D@std@@V?$allocator@D@2@@std@@V12@@std@@PAX@2@PAU32@@Z 004292e0 f i ccConfig.obj
 0002:0000d2f0       ?_Lmost@?$_Tree@V?$_Tmap_traits@V?$basic_string@DU?$char_traits@D@std@@V?$allocator@D@2@@std@@V12@U?$less@V?$basic_string@DU?$char_traits@D@std@@V?$allocator@D@2@@std@@@2@V?$allocator@U?$pair@$$CBV?$basic_string@DU?$char_traits@D@std@@V?$allocator@D@2@@std@@V12@@std@@@2@$0A@@std@@@std@@IBEAAPAU?$_Tree_node@U?$pair@$$CBV?$basic_string@DU?$char_traits@D@std@@V?$allocator@D@2@@std@@V12@@std@@PAX@2@XZ 004292f0 f i ccConfig.obj
 0002:0000d330       ?_Lrotate@?$_Tree@V?$_Tmap_traits@V?$basic_string@DU?$char_traits@D@std@@V?$allocator@D@2@@std@@V12@U?$less@V?$basic_string@DU?$char_traits@D@std@@V?$allocator@D@2@@std@@@2@V?$allocator@U?$pair@$$CBV?$basic_string@DU?$char_traits@D@std@@V?$allocator@D@2@@std@@V12@@std@@@2@$0A@@std@@@std@@IAEXPAU?$_Tree_node@U?$pair@$$CBV?$basic_string@DU?$char_traits@D@std@@V?$allocator@D@2@@std@@V12@@std@@PAX@2@@Z 00429330 f i ccConfig.obj
 0002:0000d4d0       ?_Max@?$_Tree_val@U?$_Tree_simple_types@U?$pair@$$CBV?$basic_string@DU?$char_traits@D@std@@V?$allocator@D@2@@std@@V12@@std@@@std@@@std@@SAPAU?$_Tree_node@U?$pair@$$CBV?$basic_string@DU?$char_traits@D@std@@V?$allocator@D@2@@std@@V12@@std@@PAX@2@PAU32@@Z 004294d0 f i ccConfig.obj
 0002:0000d520       ?_Min@?$_Tree_val@U?$_Tree_simple_types@U?$pair@$$CBV?$basic_string@DU?$char_traits@D@std@@V?$allocator@D@2@@std@@V12@@std@@@std@@@std@@SAPAU?$_Tree_node@U?$pair@$$CBV?$basic_string@DU?$char_traits@D@std@@V?$allocator@D@2@@std@@V12@@std@@PAX@2@PAU32@@Z 00429520 f i ccConfig.obj
 0002:0000d570       ?_Mynode@?$_Tree_unchecked_const_iterator@V?$_Tree_val@U?$_Tree_simple_types@U?$pair@$$CBV?$basic_string@DU?$char_traits@D@std@@V?$allocator@D@2@@std@@V12@@std@@@std@@@std@@U_Iterator_base12@2@@std@@QBEPAU?$_Tree_node@U?$pair@$$CBV?$basic_string@DU?$char_traits@D@std@@V?$allocator@D@2@@std@@V12@@std@@PAX@2@XZ 00429570 f i ccConfig.obj
 0002:0000d590       ?_Myptr@?$_String_val@U?$_Simple_types@D@std@@@std@@QAEPADXZ 00429590 f i ccConfig.obj
 0002:0000d600       ?_Myptr@?$_String_val@U?$_Simple_types@D@std@@@std@@QBEPBDXZ 00429600 f i ccConfig.obj
 0002:0000d670       ?_Myval@?$_Tree_val@U?$_Tree_simple_types@U?$pair@$$CBV?$basic_string@DU?$char_traits@D@std@@V?$allocator@D@2@@std@@V12@@std@@@std@@@std@@SAAAU?$pair@$$CBV?$basic_string@DU?$char_traits@D@std@@V?$allocator@D@2@@std@@V12@@2@PAU?$_Tree_node@U?$pair@$$CBV?$basic_string@DU?$char_traits@D@std@@V?$allocator@D@2@@std@@V12@@std@@PAX@2@@Z 00429670 f i ccConfig.obj
 0002:0000d680       ?_Orphan_me@_Iterator_base12@std@@QAEXXZ 00429680 f i ccConfig.obj
 0002:0000d740       ?_Orphan_ptr@?$_Tree@V?$_Tmap_traits@V?$basic_string@DU?$char_traits@D@std@@V?$allocator@D@2@@std@@V12@U?$less@V?$basic_string@DU?$char_traits@D@std@@V?$allocator@D@2@@std@@@2@V?$allocator@U?$pair@$$CBV?$basic_string@DU?$char_traits@D@std@@V?$allocator@D@2@@std@@V12@@std@@@2@$0A@@std@@@std@@IBEXAAV12@PAU?$_Tree_node@U?$pair@$$CBV?$basic_string@DU?$char_traits@D@std@@V?$allocator@D@2@@std@@V12@@std@@PAX@2@@Z 00429740 f i ccConfig.obj
 0002:0000d8c0       ?_Parent@?$_Tree_val@U?$_Tree_simple_types@U?$pair@$$CBV?$basic_string@DU?$char_traits@D@std@@V?$allocator@D@2@@std@@V12@@std@@@std@@@std@@SAAAPAU?$_Tree_node@U?$pair@$$CBV?$basic_string@DU?$char_traits@D@std@@V?$allocator@D@2@@std@@V12@@std@@PAX@2@PAU32@@Z 004298c0 f i ccConfig.obj
 0002:0000d8d0       ?_Pdif@?$basic_string@DU?$char_traits@D@std@@V?$allocator@D@2@@std@@SAIV?$_String_const_iterator@V?$_String_val@U?$_Simple_types@D@std@@@std@@@2@0@Z 004298d0 f i ccConfig.obj
 0002:0000d990       ?_Right@?$_Tree_val@U?$_Tree_simple_types@U?$pair@$$CBV?$basic_string@DU?$char_traits@D@std@@V?$allocator@D@2@@std@@V12@@std@@@std@@@std@@SAAAPAU?$_Tree_node@U?$pair@$$CBV?$basic_string@DU?$char_traits@D@std@@V?$allocator@D@2@@std@@V12@@std@@PAX@2@PAU32@@Z 00429990 f i ccConfig.obj
 0002:0000d9a0       ?_Rmost@?$_Tree@V?$_Tmap_traits@V?$basic_string@DU?$char_traits@D@std@@V?$allocator@D@2@@std@@V12@U?$less@V?$basic_string@DU?$char_traits@D@std@@V?$allocator@D@2@@std@@@2@V?$allocator@U?$pair@$$CBV?$basic_string@DU?$char_traits@D@std@@V?$allocator@D@2@@std@@V12@@std@@@2@$0A@@std@@@std@@IBEAAPAU?$_Tree_node@U?$pair@$$CBV?$basic_string@DU?$char_traits@D@std@@V?$allocator@D@2@@std@@V12@@std@@PAX@2@XZ 004299a0 f i ccConfig.obj
 0002:0000d9e0       ?_Root@?$_Tree@V?$_Tmap_traits@V?$basic_string@DU?$char_traits@D@std@@V?$allocator@D@2@@std@@V12@U?$less@V?$basic_string@DU?$char_traits@D@std@@V?$allocator@D@2@@std@@@2@V?$allocator@U?$pair@$$CBV?$basic_string@DU?$char_traits@D@std@@V?$allocator@D@2@@std@@V12@@std@@@2@$0A@@std@@@std@@IBEAAPAU?$_Tree_node@U?$pair@$$CBV?$basic_string@DU?$char_traits@D@std@@V?$allocator@D@2@@std@@V12@@std@@PAX@2@XZ 004299e0 f i ccConfig.obj
 0002:0000da20       ?_Rrotate@?$_Tree@V?$_Tmap_traits@V?$basic_string@DU?$char_traits@D@std@@V?$allocator@D@2@@std@@V12@U?$less@V?$basic_string@DU?$char_traits@D@std@@V?$allocator@D@2@@std@@@2@V?$allocator@U?$pair@$$CBV?$basic_string@DU?$char_traits@D@std@@V?$allocator@D@2@@std@@V12@@std@@@2@$0A@@std@@@std@@IAEXPAU?$_Tree_node@U?$pair@$$CBV?$basic_string@DU?$char_traits@D@std@@V?$allocator@D@2@@std@@V12@@std@@PAX@2@@Z 00429a20 f i ccConfig.obj
 0002:0000dbc0       ?_Tidy@?$_Tree@V?$_Tmap_traits@V?$basic_string@DU?$char_traits@D@std@@V?$allocator@D@2@@std@@V12@U?$less@V?$basic_string@DU?$char_traits@D@std@@V?$allocator@D@2@@std@@@2@V?$allocator@U?$pair@$$CBV?$basic_string@DU?$char_traits@D@std@@V?$allocator@D@2@@std@@V12@@std@@@2@$0A@@std@@@std@@IAEXXZ 00429bc0 f i ccConfig.obj
 0002:0000dcf0       ?_Tidy@?$basic_string@DU?$char_traits@D@std@@V?$allocator@D@2@@std@@QAEX_NI@Z 00429cf0 f i ccConfig.obj
 0002:0000ddf0       ?_Xlen@?$basic_string@DU?$char_traits@D@std@@V?$allocator@D@2@@std@@QBEXXZ 00429df0 f i ccConfig.obj
 0002:0000de30       ?_Xran@?$basic_string@DU?$char_traits@D@std@@V?$allocator@D@2@@std@@QBEXXZ 00429e30 f i ccConfig.obj
 0002:0000de70       ?allocate@?$_Wrap_alloc@V?$allocator@D@std@@@std@@QAEPADI@Z 00429e70 f i ccConfig.obj
 0002:0000deb0       ?allocate@?$_Wrap_alloc@V?$allocator@U?$_Tree_node@U?$pair@$$CBV?$basic_string@DU?$char_traits@D@std@@V?$allocator@D@2@@std@@V12@@std@@PAX@std@@@std@@@std@@QAEPAU?$_Tree_node@U?$pair@$$CBV?$basic_string@DU?$char_traits@D@std@@V?$allocator@D@2@@std@@V12@@std@@PAX@2@I@Z 00429eb0 f i ccConfig.obj
 0002:0000def0       ?allocate@?$_Wrap_alloc@V?$allocator@U_Container_proxy@std@@@std@@@std@@QAEPAU_Container_proxy@2@I@Z 00429ef0 f i ccConfig.obj
 0002:0000df30       ?allocate@?$allocator@D@std@@QAEPADI@Z 00429f30 f i ccConfig.obj
 0002:0000df70       ?allocate@?$allocator@U?$_Tree_node@U?$pair@$$CBV?$basic_string@DU?$char_traits@D@std@@V?$allocator@D@2@@std@@V12@@std@@PAX@std@@@std@@QAEPAU?$_Tree_node@U?$pair@$$CBV?$basic_string@DU?$char_traits@D@std@@V?$allocator@D@2@@std@@V12@@std@@PAX@2@I@Z 00429f70 f i ccConfig.obj
 0002:0000dfb0       ?allocate@?$allocator@U_Container_proxy@std@@@std@@QAEPAU_Container_proxy@2@I@Z 00429fb0 f i ccConfig.obj
 0002:0000dff0       ?append@?$basic_string@DU?$char_traits@D@std@@V?$allocator@D@2@@std@@QAEAAV12@ABV12@@Z 00429ff0 f i ccConfig.obj
 0002:0000e030       ?append@?$basic_string@DU?$char_traits@D@std@@V?$allocator@D@2@@std@@QAEAAV12@ABV12@II@Z 0042a030 f i ccConfig.obj
 0002:0000e130       ?append@?$basic_string@DU?$char_traits@D@std@@V?$allocator@D@2@@std@@QAEAAV12@PBD@Z 0042a130 f i ccConfig.obj
 0002:0000e190       ?append@?$basic_string@DU?$char_traits@D@std@@V?$allocator@D@2@@std@@QAEAAV12@PBDI@Z 0042a190 f i ccConfig.obj
 0002:0000e2b0       ?assign@?$basic_string@DU?$char_traits@D@std@@V?$allocator@D@2@@std@@QAEAAV12@ABV12@@Z 0042a2b0 f i ccConfig.obj
 0002:0000e2f0       ?assign@?$basic_string@DU?$char_traits@D@std@@V?$allocator@D@2@@std@@QAEAAV12@ABV12@II@Z 0042a2f0 f i ccConfig.obj
 0002:0000e3f0       ?assign@?$basic_string@DU?$char_traits@D@std@@V?$allocator@D@2@@std@@QAEAAV12@PBD@Z 0042a3f0 f i ccConfig.obj
 0002:0000e450       ?assign@?$basic_string@DU?$char_traits@D@std@@V?$allocator@D@2@@std@@QAEAAV12@PBDI@Z 0042a450 f i ccConfig.obj
 0002:0000e530       ?assign@?$char_traits@D@std@@SAXAADABD@Z 0042a530 f i ccConfig.obj
 0002:0000e550       ?begin@?$_Tree@V?$_Tmap_traits@V?$basic_string@DU?$char_traits@D@std@@V?$allocator@D@2@@std@@V12@U?$less@V?$basic_string@DU?$char_traits@D@std@@V?$allocator@D@2@@std@@@2@V?$allocator@U?$pair@$$CBV?$basic_string@DU?$char_traits@D@std@@V?$allocator@D@2@@std@@V12@@std@@@2@$0A@@std@@@std@@QAE?AV?$_Tree_iterator@V?$_Tree_val@U?$_Tree_simple_types@U?$pair@$$CBV?$basic_string@DU?$char_traits@D@std@@V?$allocator@D@2@@std@@V12@@std@@@std@@@std@@@2@XZ 0042a550 f i ccConfig.obj
 0002:0000e5a0       ?begin@?$basic_string@DU?$char_traits@D@std@@V?$allocator@D@2@@std@@QAE?AV?$_String_iterator@V?$_String_val@U?$_Simple_types@D@std@@@std@@@2@XZ 0042a5a0 f i ccConfig.obj
 0002:0000e5f0       ?c_str@?$basic_string@DU?$char_traits@D@std@@V?$allocator@D@2@@std@@QBEPBDXZ 0042a5f0 f i ccConfig.obj
 0002:0000e620       ?category@error_code@std@@QBEABVerror_category@2@XZ 0042a620 f i ccConfig.obj
 0002:0000e640       ?category@error_condition@std@@QBEABVerror_category@2@XZ 0042a640 f i ccConfig.obj
 0002:0000e660       ?clear@?$_Tree@V?$_Tmap_traits@V?$basic_string@DU?$char_traits@D@std@@V?$allocator@D@2@@std@@V12@U?$less@V?$basic_string@DU?$char_traits@D@std@@V?$allocator@D@2@@std@@@2@V?$allocator@U?$pair@$$CBV?$basic_string@DU?$char_traits@D@std@@V?$allocator@D@2@@std@@V12@@std@@@2@$0A@@std@@@std@@QAEXXZ 0042a660 f i ccConfig.obj
 0002:0000e700       ?compare@?$basic_string@DU?$char_traits@D@std@@V?$allocator@D@2@@std@@QBEHABV12@@Z 0042a700 f i ccConfig.obj
 0002:0000e760       ?compare@?$basic_string@DU?$char_traits@D@std@@V?$allocator@D@2@@std@@QBEHIIPBDI@Z 0042a760 f i ccConfig.obj
 0002:0000e8a0       ?compare@?$basic_string@DU?$char_traits@D@std@@V?$allocator@D@2@@std@@QBEHPBD@Z 0042a8a0 f i ccConfig.obj
 0002:0000e910       ?compare@?$char_traits@D@std@@SAHPBD0I@Z 0042a910 f i ccConfig.obj
 0002:0000e970       ?copy@?$char_traits@D@std@@SAPADPADPBDI@Z 0042a970 f i ccConfig.obj
 0002:0000e9d0       ?deallocate@?$_Wrap_alloc@V?$allocator@D@std@@@std@@QAEXPADI@Z 0042a9d0 f i ccConfig.obj
 0002:0000ea10       ?deallocate@?$_Wrap_alloc@V?$allocator@U?$_Tree_node@U?$pair@$$CBV?$basic_string@DU?$char_traits@D@std@@V?$allocator@D@2@@std@@V12@@std@@PAX@std@@@std@@@std@@QAEXPAU?$_Tree_node@U?$pair@$$CBV?$basic_string@DU?$char_traits@D@std@@V?$allocator@D@2@@std@@V12@@std@@PAX@2@I@Z 0042aa10 f i ccConfig.obj
 0002:0000ea50       ?deallocate@?$_Wrap_alloc@V?$allocator@U_Container_proxy@std@@@std@@@std@@QAEXPAU_Container_proxy@2@I@Z 0042aa50 f i ccConfig.obj
 0002:0000ea90       ?deallocate@?$allocator@D@std@@QAEXPADI@Z 0042aa90 f i ccConfig.obj
 0002:0000ead0       ?deallocate@?$allocator@U?$_Tree_node@U?$pair@$$CBV?$basic_string@DU?$char_traits@D@std@@V?$allocator@D@2@@std@@V12@@std@@PAX@std@@@std@@QAEXPAU?$_Tree_node@U?$pair@$$CBV?$basic_string@DU?$char_traits@D@std@@V?$allocator@D@2@@std@@V12@@std@@PAX@2@I@Z 0042aad0 f i ccConfig.obj
 0002:0000eb10       ?deallocate@?$allocator@U_Container_proxy@std@@@std@@QAEXPAU_Container_proxy@2@I@Z 0042ab10 f i ccConfig.obj
 0002:0000eb50       ?default_error_condition@_System_error_category@std@@UBE?AVerror_condition@2@H@Z 0042ab50 f i ccConfig.obj
 0002:0000ebe0       ?default_error_condition@error_category@std@@UBE?AVerror_condition@2@H@Z 0042abe0 f i ccConfig.obj
 0002:0000ec20       ?end@?$_Tree@V?$_Tmap_traits@V?$basic_string@DU?$char_traits@D@std@@V?$allocator@D@2@@std@@V12@U?$less@V?$basic_string@DU?$char_traits@D@std@@V?$allocator@D@2@@std@@@2@V?$allocator@U?$pair@$$CBV?$basic_string@DU?$char_traits@D@std@@V?$allocator@D@2@@std@@V12@@std@@@2@$0A@@std@@@std@@QAE?AV?$_Tree_iterator@V?$_Tree_val@U?$_Tree_simple_types@U?$pair@$$CBV?$basic_string@DU?$char_traits@D@std@@V?$allocator@D@2@@std@@V12@@std@@@std@@@std@@@2@XZ 0042ac20 f i ccConfig.obj
 0002:0000ec70       ?end@?$basic_string@DU?$char_traits@D@std@@V?$allocator@D@2@@std@@QAE?AV?$_String_iterator@V?$_String_val@U?$_Simple_types@D@std@@@std@@@2@XZ 0042ac70 f i ccConfig.obj
 0002:0000ecc0       ?equivalent@error_category@std@@UBE_NABVerror_code@2@H@Z 0042acc0 f i ccConfig.obj
 0002:0000ed40       ?equivalent@error_category@std@@UBE_NHABVerror_condition@2@@Z 0042ad40 f i ccConfig.obj
 0002:0000edb0       ?erase@?$_Tree@V?$_Tmap_traits@V?$basic_string@DU?$char_traits@D@std@@V?$allocator@D@2@@std@@V12@U?$less@V?$basic_string@DU?$char_traits@D@std@@V?$allocator@D@2@@std@@@2@V?$allocator@U?$pair@$$CBV?$basic_string@DU?$char_traits@D@std@@V?$allocator@D@2@@std@@V12@@std@@@2@$0A@@std@@@std@@QAE?AV?$_Tree_iterator@V?$_Tree_val@U?$_Tree_simple_types@U?$pair@$$CBV?$basic_string@DU?$char_traits@D@std@@V?$allocator@D@2@@std@@V12@@std@@@std@@@std@@@2@V?$_Tree_const_iterator@V?$_Tree_val@U?$_Tree_simple_types@U?$pair@$$CBV?$basic_string@DU?$char_traits@D@std@@V?$allocator@D@2@@std@@V12@@std@@@std@@@std@@@2@0@Z 0042adb0 f i ccConfig.obj
 0002:0000f030       ?erase@?$_Tree@V?$_Tmap_traits@V?$basic_string@DU?$char_traits@D@std@@V?$allocator@D@2@@std@@V12@U?$less@V?$basic_string@DU?$char_traits@D@std@@V?$allocator@D@2@@std@@@2@V?$allocator@U?$pair@$$CBV?$basic_string@DU?$char_traits@D@std@@V?$allocator@D@2@@std@@V12@@std@@@2@$0A@@std@@@std@@QAE?AV?$_Tree_iterator@V?$_Tree_val@U?$_Tree_simple_types@U?$pair@$$CBV?$basic_string@DU?$char_traits@D@std@@V?$allocator@D@2@@std@@V12@@std@@@std@@@std@@@2@V?$_Tree_const_iterator@V?$_Tree_val@U?$_Tree_simple_types@U?$pair@$$CBV?$basic_string@DU?$char_traits@D@std@@V?$allocator@D@2@@std@@V12@@std@@@std@@@std@@@2@@Z 0042b030 f i ccConfig.obj
 0002:0000fa90       ?erase@?$basic_string@DU?$char_traits@D@std@@V?$allocator@D@2@@std@@QAEAAV12@I@Z 0042ba90 f i ccConfig.obj
 0002:0000fae0       ?erase@?$basic_string@DU?$char_traits@D@std@@V?$allocator@D@2@@std@@QAEAAV12@II@Z 0042bae0 f i ccConfig.obj
 0002:0000fbb0       ?find@?$_Tree@V?$_Tmap_traits@V?$basic_string@DU?$char_traits@D@std@@V?$allocator@D@2@@std@@V12@U?$less@V?$basic_string@DU?$char_traits@D@std@@V?$allocator@D@2@@std@@@2@V?$allocator@U?$pair@$$CBV?$basic_string@DU?$char_traits@D@std@@V?$allocator@D@2@@std@@V12@@std@@@2@$0A@@std@@@std@@QAE?AV?$_Tree_iterator@V?$_Tree_val@U?$_Tree_simple_types@U?$pair@$$CBV?$basic_string@DU?$char_traits@D@std@@V?$allocator@D@2@@std@@V12@@std@@@std@@@std@@@2@ABV?$basic_string@DU?$char_traits@D@std@@V?$allocator@D@2@@2@@Z 0042bbb0 f i ccConfig.obj
 0002:0000fe20       ?generic_category@std@@YAABVerror_category@1@XZ 0042be20 f i ccConfig.obj
 0002:0000fe30       ?length@?$char_traits@D@std@@SAIPBD@Z 0042be30 f i ccConfig.obj
 0002:0000fe80       ?lower_bound@?$_Tree@V?$_Tmap_traits@V?$basic_string@DU?$char_traits@D@std@@V?$allocator@D@2@@std@@V12@U?$less@V?$basic_string@DU?$char_traits@D@std@@V?$allocator@D@2@@std@@@2@V?$allocator@U?$pair@$$CBV?$basic_string@DU?$char_traits@D@std@@V?$allocator@D@2@@std@@V12@@std@@@2@$0A@@std@@@std@@QAE?AV?$_Tree_iterator@V?$_Tree_val@U?$_Tree_simple_types@U?$pair@$$CBV?$basic_string@DU?$char_traits@D@std@@V?$allocator@D@2@@std@@V12@@std@@@std@@@std@@@2@ABV?$basic_string@DU?$char_traits@D@std@@V?$allocator@D@2@@2@@Z 0042be80 f i ccConfig.obj
 0002:0000fef0       ?max_size@?$_Tree@V?$_Tmap_traits@V?$basic_string@DU?$char_traits@D@std@@V?$allocator@D@2@@std@@V12@U?$less@V?$basic_string@DU?$char_traits@D@std@@V?$allocator@D@2@@std@@@2@V?$allocator@U?$pair@$$CBV?$basic_string@DU?$char_traits@D@std@@V?$allocator@D@2@@std@@V12@@std@@@2@$0A@@std@@@std@@QBEIXZ 0042bef0 f i ccConfig.obj
 0002:0000ff40       ?max_size@?$_Wrap_alloc@V?$allocator@D@std@@@std@@QBEIXZ 0042bf40 f i ccConfig.obj
 0002:0000ff80       ?max_size@?$_Wrap_alloc@V?$allocator@U?$_Tree_node@U?$pair@$$CBV?$basic_string@DU?$char_traits@D@std@@V?$allocator@D@2@@std@@V12@@std@@PAX@std@@@std@@@std@@QBEIXZ 0042bf80 f i ccConfig.obj
 0002:0000ffc0       ?max_size@?$allocator@D@std@@QBEIXZ 0042bfc0 f i ccConfig.obj
 0002:0000ffe0       ?max_size@?$allocator@U?$_Tree_node@U?$pair@$$CBV?$basic_string@DU?$char_traits@D@std@@V?$allocator@D@2@@std@@V12@@std@@PAX@std@@@std@@QBEIXZ 0042bfe0 f i ccConfig.obj
 0002:00010000       ?max_size@?$allocator_traits@V?$allocator@D@std@@@std@@SAIABV?$allocator@D@2@@Z 0042c000 f i ccConfig.obj
 0002:00010020       ?max_size@?$allocator_traits@V?$allocator@U?$_Tree_node@U?$pair@$$CBV?$basic_string@DU?$char_traits@D@std@@V?$allocator@D@2@@std@@V12@@std@@PAX@std@@@std@@@std@@SAIABV?$allocator@U?$_Tree_node@U?$pair@$$CBV?$basic_string@DU?$char_traits@D@std@@V?$allocator@D@2@@std@@V12@@std@@PAX@std@@@2@@Z 0042c020 f i ccConfig.obj
 0002:00010040       ?max_size@?$basic_string@DU?$char_traits@D@std@@V?$allocator@D@2@@std@@QBEIXZ 0042c040 f i ccConfig.obj
 0002:000100b0       ?message@_Generic_error_category@std@@UBE?AV?$basic_string@DU?$char_traits@D@std@@V?$allocator@D@2@@2@H@Z 0042c0b0 f i ccConfig.obj
 0002:00010150       ?message@_Iostream_error_category@std@@UBE?AV?$basic_string@DU?$char_traits@D@std@@V?$allocator@D@2@@2@H@Z 0042c150 f i ccConfig.obj
 0002:000101e0       ?message@_System_error_category@std@@UBE?AV?$basic_string@DU?$char_traits@D@std@@V?$allocator@D@2@@2@H@Z 0042c1e0 f i ccConfig.obj
 0002:00010280       ?move@?$char_traits@D@std@@SAPADPADPBDI@Z 0042c280 f i ccConfig.obj
 0002:000102e0       ?name@_Generic_error_category@std@@UBEPBDXZ 0042c2e0 f i ccConfig.obj
 0002:00010300       ?name@_Iostream_error_category@std@@UBEPBDXZ 0042c300 f i ccConfig.obj
 0002:00010320       ?name@_System_error_category@std@@UBEPBDXZ 0042c320 f i ccConfig.obj
 0002:00010340       ?pointer_to@?$pointer_traits@PAU?$pair@$$CBV?$basic_string@DU?$char_traits@D@std@@V?$allocator@D@2@@std@@V12@@std@@@std@@SAPAU?$pair@$$CBV?$basic_string@DU?$char_traits@D@std@@V?$allocator@D@2@@std@@V12@@2@AAU32@@Z 0042c340 f i ccConfig.obj
 0002:00010360       ?replace@?$basic_string@DU?$char_traits@D@std@@V?$allocator@D@2@@std@@QAEAAV12@IIABV12@II@Z 0042c360 f i ccConfig.obj
 0002:000106f0       ?replace@?$basic_string@DU?$char_traits@D@std@@V?$allocator@D@2@@std@@QAEAAV12@IIPBDI@Z 0042c6f0 f i ccConfig.obj
 0002:00010900       ?replace@?$basic_string@DU?$char_traits@D@std@@V?$allocator@D@2@@std@@QAEAAV12@V?$_String_const_iterator@V?$_String_val@U?$_Simple_types@D@std@@@std@@@2@0V?$_String_iterator@V?$_String_val@U?$_Simple_types@D@std@@@std@@@2@1@Z 0042c900 f i ccConfig.obj
 0002:00010c00       ?reserve@?$basic_string@DU?$char_traits@D@std@@V?$allocator@D@2@@std@@QAEXI@Z 0042cc00 f i ccConfig.obj
 0002:00010c80       ?select_on_container_copy_construction@?$_Wrap_alloc@V?$allocator@D@std@@@std@@QBE?AU12@XZ 0042cc80 f i ccConfig.obj
 0002:00010ce0       ?select_on_container_copy_construction@?$allocator@D@std@@QBE?AV12@XZ 0042cce0 f i ccConfig.obj
 0002:00010d20       ?select_on_container_copy_construction@?$allocator_traits@V?$allocator@D@std@@@std@@SA?AV?$allocator@D@2@ABV32@@Z 0042cd20 f i ccConfig.obj
 0002:00010d50       ?size@?$basic_string@DU?$char_traits@D@std@@V?$allocator@D@2@@std@@QBEIXZ 0042cd50 f i ccConfig.obj
 0002:00010d70       ?strchr@@YAPADPADH@Z       0042cd70 f i ccConfig.obj
 0002:00010db0       ?system_category@std@@YAABVerror_category@1@XZ 0042cdb0 f i ccConfig.obj
 0002:00010dc0       ?value@error_code@std@@QBEHXZ 0042cdc0 f i ccConfig.obj
 0002:00010de0       ?value@error_condition@std@@QBEHXZ 0042cde0 f i ccConfig.obj
 0002:00010e00       _hypot                     0042ce00 f i ccConfig.obj
 0002:00010e50       ?GRAbout_AboutDialogProc@@YGHPAUHWND__@@GGJ@Z 0042ce50 f   GRABOUT.obj
 0002:00010fd0       ?GRAbout_About@@YAXXZ      0042cfd0 f   GRABOUT.obj
 0002:00011080       ?GRAdrienne_Interrogate@@YAHH@Z 0042d080 f   GRADRIEN.obj
 0002:00011180       ?GRAdrienne_Connect@@YAHHH@Z 0042d180 f   GRADRIEN.obj
 0002:000112d0       ?GRAdrienne_DataIn@@YAXHE@Z 0042d2d0 f   GRADRIEN.obj
 0002:000113b0       ?GRAdrienne_Decode@@YAXH@Z 0042d3b0 f   GRADRIEN.obj
 0002:00011450       ?GRAdrienne_BufferClear@@YAXH@Z 0042d450 f   GRADRIEN.obj
 0002:000115a0       ?GRBbcRcp_Interrogate@@YAHH@Z 0042d5a0 f   GRBBCRCP.obj
 0002:00011660       ?GRBbcRcp_Connect@@YAHHH@Z 0042d660 f   GRBBCRCP.obj
 0002:00011750       ?GRBbcRcp_DataIn@@YAXHE@Z  0042d750 f   GRBBCRCP.obj
 0002:000119c0       ?GRBbcRcp_Decode@@YAXPADH@Z 0042d9c0 f   GRBBCRCP.obj
 0002:00011bb0       ?GRBbcRcp_SplitRevertive@@YAHPADQAY0M@D@Z 0042dbb0 f   GRBBCRCP.obj
 0002:00011ed0       ?GRBtsAsc_Interrogate@@YAHH@Z 0042ded0 f   GRBTSASC.obj
 0002:00011fe0       ?GRBtsAsc_Connect@@YAHHH@Z 0042dfe0 f   GRBTSASC.obj
 0002:000120e0       ?GRBtsAsc_DataIn@@YAXHE@Z  0042e0e0 f   GRBTSASC.obj
 0002:00012350       ?GRBtsAsc_Decode@@YAXPADH@Z 0042e350 f   GRBTSASC.obj
 0002:00012620       ?GRBtsEs_Init@@YAHXZ       0042e620 f   GRBTSES.obj
 0002:00012820       ?GRBtsEs_Init2@@YAHXZ      0042e820 f   GRBTSES.obj
 0002:00012950       ?GRBtsEs_StartUpChk@@YAXXZ 0042e950 f   GRBTSES.obj
 0002:00012990       ?GRBtsEs_Connect@@YAHHH@Z  0042e990 f   GRBTSES.obj
 0002:00012ba0       ?GRBtsEs_ACK@@YAXH@Z       0042eba0 f   GRBTSES.obj
 0002:00012c30       ?GRBtsEs_DataIn@@YAXHE@Z   0042ec30 f   GRBTSES.obj
 0002:00012e20       ?GRBtsEs_Decode@@YAXH@Z    0042ee20 f   GRBTSES.obj
 0002:000130a0       ?GRBtsEs_GetCheckSum@@YAEPADH@Z 0042f0a0 f   GRBTSES.obj
 0002:000133e0       ?GRCmd_RouterConnect@@YAHPAD_N@Z 0042f3e0 f   GRCMD.obj
 0002:00013ad0       ?GRCmd_RouterFile@@YAHPAD@Z 0042fad0 f   GRCMD.obj
 0002:00013b90       ?GRCmd_RouterLock@@YAHPAD@Z 0042fb90 f   GRCMD.obj
 0002:00013d10       ?GRCmd_RouterModify@@YAHPAD@Z 0042fd10 f   GRCMD.obj
 0002:00013fd0       ?GRCmd_RouterPoll@@YAHPAD@Z 0042ffd0 f   GRCMD.obj
 0002:000140e0       ?GRCmd_RouterQuery@@YAHPAD@Z 004300e0 f   GRCMD.obj
 0002:000141f0       ?GRCmd_Debug@@YAXHH@Z      004301f0 f   GRCMD.obj
 0002:00014750       ?GRComSup_Init@@YAXXZ      00430750 f   Grcomsup.obj
 0002:00014860       ?GRComSup_OpenComm@@YAPAXHH@Z 00430860 f   Grcomsup.obj
 0002:00014a20       ?GRComSup_Closedown@@YAXXZ 00430a20 f   Grcomsup.obj
 0002:00014a80       ?GRComSup_SendData@@YAXHPAEH@Z 00430a80 f   Grcomsup.obj
 0002:00014ca0       ?GRComSup_ClockDataIn@@YAXG@Z 00430ca0 f   Grcomsup.obj
 0002:00014f10       ?GRComSup_IdToPort@@YAHH@Z 00430f10 f   Grcomsup.obj
 0002:00014f70       ?GRComSup_FlagError@@YAXH@Z 00430f70 f   Grcomsup.obj
 0002:00015110       ?GRComSup_DestToPort@@YAHH@Z 00431110 f   Grcomsup.obj
 0002:00015400       ?GRCox_Interrogate@@YAHH@Z 00431400 f   GRCOX.obj
 0002:000156c0       ?GRCox_Connect@@YAHHH@Z    004316c0 f   GRCOX.obj
 0002:00015900       ?GRCox_GetCheckSum@@YAEPADH@Z 00431900 f   GRCOX.obj
 0002:00015ae0       ?CSISup_Link@@YAHXZ        00431ae0 f   GRCSISUP.obj
 0002:00015ca0       ?CSISup_Init@@YAHXZ        00431ca0 f   GRCSISUP.obj
 0002:00015ea0       ?CSISup_Closedown@@YAXXZ   00431ea0 f   GRCSISUP.obj
 0002:00015ee0       ?CSISup_AssertTxRxMode@@YAHI@Z 00431ee0 f   GRCSISUP.obj
 0002:00015fd0       ?CSISup_DisplayTxRxMode@@YAXI@Z 00431fd0 f   GRCSISUP.obj
 0002:00016250       ?CSISup_TxRevertive@@YAXHHHH@Z 00432250 f   GRCSISUP.obj
 0002:000169b0       ?GRDialog_DialogProc@@YGJPAUHWND__@@IIJ@Z 004329b0 f   GRDIALOG.obj
 0002:00017040       ?GRDialog_DialogProc_ext@@YGJPAUHWND__@@IIJ@Z 00433040 f   GRDIALOG.obj
 0002:00017730       ?GRDialog_Init@@YAXXZ      00433730 f   GRDIALOG.obj
 0002:00017990       ?GRDialog_InitDialog@@YAXXZ 00433990 f   GRDIALOG.obj
 0002:00017e40       ?GRDialog_Closedown@@YAXXZ 00433e40 f   GRDIALOG.obj
 0002:00017ef0       ?GRDialog_SourceSelected@@YAXXZ 00433ef0 f   GRDIALOG.obj
 0002:00017fc0       ?GRDialog_DestSelected@@YAXXZ 00433fc0 f   GRDIALOG.obj
 0002:000180c0       ?GRDialog_Enable@@YAXXZ    004340c0 f   GRDIALOG.obj
 0002:00018100       ?GRDialog_EnableBtn@@YAXXZ 00434100 f   GRDIALOG.obj
 0002:000181f0       ?GRDialog_EnableKeys@@YAX_N@Z 004341f0 f   GRDIALOG.obj
 0002:00018500       ?GRDialog_Take@@YAXXZ      00434500 f   GRDIALOG.obj
 0002:00018730       ?GRDialog_Update@@YAXXZ    00434730 f   GRDIALOG.obj
 0002:00018a40       ?GRDialog_Tally@@YAXXZ     00434a40 f   GRDIALOG.obj
 0002:00018ea0       ?GRDialog_ToggleLock@@YAXXZ 00434ea0 f   GRDIALOG.obj
 0002:00018fb0       ?GRDialog_RevDelayUpdate@@YAXXZ 00434fb0 f   GRDIALOG.obj
 0002:00019030       ?GRDialog_FillSourceBox@@YAXXZ 00435030 f   GRDIALOG.obj
 0002:00019280       ?GRDialog_FillDestBox@@YAXXZ 00435280 f   GRDIALOG.obj
 0002:000194b0       ?GRDialog_ClearErrors@@YAXXZ 004354b0 f   GRDIALOG.obj
 0002:00019530       ?GRDialog_Arrange@@YAX_N@Z 00435530 f   GRDIALOG.obj
 0002:000198b0       ?GRDialog_ShowVirtuals@@YAXXZ 004358b0 f   GRDIALOG.obj
 0002:000199b0       ?GRDialog_SourceHold@@YAXXZ 004359b0 f   GRDIALOG.obj
 0002:00019b00       ?GRDialog_SourceHoldBtn@@YAXXZ 00435b00 f   GRDIALOG.obj
 0002:00019be0       ?GRDialog_Reset@@YAXXZ     00435be0 f   GRDIALOG.obj
 0002:00019c70       ?GRDialog_Park@@YAXXZ      00435c70 f   GRDIALOG.obj
 0002:00019c90       ?GRDialog_ParkBtn@@YAXXZ   00435c90 f   GRDIALOG.obj
 0002:00019e80       ?GRDialog_Undo@@YAXXZ      00435e80 f   GRDIALOG.obj
 0002:00019ea0       ?GRDialog_SmallScreenMode@@YAXXZ 00435ea0 f   GRDIALOG.obj
 0002:00019f90       ?SaveGUIPos@@YAXXZ         00435f90 f   GRDIALOG.obj
 0002:0001a010       ?WriteGUIPos@@YAXPBD@Z     00436010 f   GRDIALOG.obj
 0002:0001a230       ?LoadGUIPos@@YAXPBDHH_N1@Z 00436230 f   GRDIALOG.obj
 0002:0001a480       ?getPadding@@YAX_NAAH1QBD@Z 00436480 f   GRDIALOG.obj
 0002:0001a5a0       ?setResizable@@YAXPAUHWND__@@_N@Z 004365a0 f   GRDIALOG.obj
 0002:0001a620       ?GRDialog_ArrangeStatusOnly@@YAX_N@Z 00436620 f   GRDIALOG.obj
 0002:0001b750       ?GRExt_Connect@@YAXHH@Z    00437750 f   GREXT.obj
 0002:0001b790       ?GRExt_GetDest@@YAHH@Z     00437790 f   GREXT.obj
 0002:0001b7e0       ?GRExt_SetDest@@YAXIJE@Z   004377e0 f   GREXT.obj
 0002:0001b880       ?GRExt_SendUserStr@@YAXPAD@Z 00437880 f   GREXT.obj
 0002:0001b8d0       ?GRExt_RouteInternal@@YAXHH@Z 004378d0 f   GREXT.obj
 0002:0001ba00       ?FwdBuff_Init@@YAXXZ       00437a00 f   GRFWDBUF.obj
 0002:0001ba90       ?FwdBuff_Write@@YAXPAD@Z   00437a90 f   GRFWDBUF.obj
 0002:0001bb10       ?FwdBuff_Read@@YAXXZ       00437b10 f   GRFWDBUF.obj
 0002:0001bc50       ?GRIdxfu_ReadIndex@@YAXXZ  00437c50 f   GRIDXFU.obj
 0002:0001bea0       ?GRIdxfu_WriteIndex@@YAXXZ 00437ea0 f   GRIDXFU.obj
 0002:0001c0b0       ?GRIdxfu_ReadLockFile@@YAXXZ 004380b0 f   GRIDXFU.obj
 0002:0001c220       ?GRIdxfu_WriteLockFile@@YAXXZ 00438220 f   GRIDXFU.obj
 0002:0001c560       ?GRLeitch_Interrogate@@YAHH@Z 00438560 f   GRLEITCH.obj
 0002:0001c690       ?GRLeitch_Connect@@YAHHH@Z 00438690 f   GRLEITCH.obj
 0002:0001c7d0       ?GRLeitch_DataIn@@YAXHE@Z  004387d0 f   GRLEITCH.obj
 0002:0001c900       ?GRLeitch_Decode@@YAXH@Z   00438900 f   GRLEITCH.obj
 0002:0001ce40       ?strstr@@YAPADPADPBD@Z     00438e40 f i GRLEITCH.obj
 0002:0001ce80       _WinMain@16                00438e80 f   GRMAIN.obj
 0002:0001d010       ?InitApplication@@YAHPAUHINSTANCE__@@@Z 00439010 f   GRMAIN.obj
 0002:0001d0f0       ?InitInstance@@YAHPAUHINSTANCE__@@H@Z 004390f0 f   GRMAIN.obj
 0002:0001d230       ?MainWndProc@@YGJPAUHWND__@@IIJ@Z 00439230 f   GRMAIN.obj
 0002:0001ea60       ?GRMain_Initialise@@YAXXZ  0043aa60 f   GRMAIN.obj
 0002:0001eb40       ?GRMain_Init@@YAXXZ        0043ab40 f   GRMAIN.obj
 0002:0001ec40       ?GRMain_Closedown@@YAXXZ   0043ac40 f   GRMAIN.obj
 0002:0001ed20       ?GRMain_ClientMsg@@YAXJ@Z  0043ad20 f   GRMAIN.obj
 0002:0001eec0       ?GRMain_DatabasePoll@@YAXIJ@Z 0043aec0 f   GRMAIN.obj
 0002:0001efa0       ?GRMain_SendDestStr@@YAXIJ@Z 0043afa0 f   GRMAIN.obj
 0002:0001f0a0       ?GRMain_InquireGoTxRx@@YAHXZ 0043b0a0 f   GRMAIN.obj
 0002:0001f160       ?GRMain_ConfigStatusDialogProc@@YGHPAUHWND__@@IIJ@Z 0043b160 f   GRMAIN.obj
 0002:0001f2c0       ?GRMain_ConfigFileAsPath@@YAPADH_N@Z 0043b2c0 f   GRMAIN.obj
 0002:0001f3a0       ?GRMain_DoHelp@@YAXXZ      0043b3a0 f   GRMAIN.obj
 0002:0001fe30       ?GRNetCmd_Parse@@YAHPAD@Z  0043be30 f   GRNETCMD.obj
 0002:00020230       ?GRNetwork_Interrogate@@YAHH@Z 0043c230 f   GRNETWRK.obj
 0002:00020330       ?GRNetwork_Connect@@YAHHH@Z 0043c330 f   GRNETWRK.obj
 0002:00020440       ?GRNetwork_DataIn@@YAXHE@Z 0043c440 f   GRNETWRK.obj
 0002:000204f0       ?GRNetwork_Decode@@YAXH@Z  0043c4f0 f   GRNETWRK.obj
 0002:00020820       ?GRNtpEq_Interrogate@@YAHH@Z 0043c820 f   GRNTPEQ.obj
 0002:000208f0       ?GRNtpEq_Connect@@YAHHH@Z  0043c8f0 f   GRNTPEQ.obj
 0002:00020a70       ?GRNtpEq_DataIn@@YAXHE@Z   0043ca70 f   GRNTPEQ.obj
 0002:00020cb0       ?GRNtpEq_Decode@@YAXPADH@Z 0043ccb0 f   GRNTPEQ.obj
 0002:000210a0       ?GRNtpEq_GetEqNum@@YAHH@Z  0043d0a0 f   GRNTPEQ.obj
 0002:000210d0       ?GRNtpEq_GetEqRange@@YAHH@Z 0043d0d0 f   GRNTPEQ.obj
 0002:00021110       ?GRNtpEq_GetDest@@YAHHH@Z  0043d110 f   GRNTPEQ.obj
 0002:00021380       ?GRParser_Parse@@YAXPAD@Z  0043d380 f   GRPARSER.obj
 0002:000214f0       ?GRParser_FilterUserStr@@YAHPAD@Z 0043d4f0 f   GRPARSER.obj
 0002:000215e0       ?GRPesa_Interrogate@@YAHI@Z 0043d5e0 f   GRPESA.obj
 0002:00021730       ?GRPesa_Connect@@YAHII@Z   0043d730 f   GRPESA.obj
 0002:000218a0       ?GRPesa_DataIn@@YAXHE@Z    0043d8a0 f   GRPESA.obj
 0002:00021990       ?GRPesa_Decode@@YAXPADH@Z  0043d990 f   GRPESA.obj
 0002:00021b20       ?GRPesa_GetCheckSum@@YAXPAD0@Z 0043db20 f   GRPESA.obj
 0002:00021d50       ?GRProbel_Interrogate@@YAHH@Z 0043dd50 f   GRPROBEL.obj
 0002:00021e80       ?GRProbel_Connect@@YAHHH@Z 0043de80 f   GRPROBEL.obj
 0002:00021ff0       ?GRProbel_DataIn@@YAXHE@Z  0043dff0 f   GRPROBEL.obj
 0002:00022170       ?GRProbel_Decode@@YAXH@Z   0043e170 f   GRPROBEL.obj
 0002:00022630       ?GRProbel_GetCheckSum@@YAEPADH@Z 0043e630 f   GRPROBEL.obj
 0002:00022910       ?GRProf_Init@@YAXXZ        0043e910 f   Grprof.obj
 0002:000245a0       ?GRProf_Access@@YAXXZ      004405a0 f   Grprof.obj
 0002:000248b0       ?GRProf_GrantAccess@@YAXH@Z 004408b0 f   Grprof.obj
 0002:000248e0       ?GRProf_GetVersionInfo@@YAXXZ 004408e0 f   Grprof.obj
 0002:00024aa0       ?GRProf_ReadDialogPrefs@@YAXXZ 00440aa0 f   Grprof.obj
 0002:00024e40       ?GRProf_WriteWinPos@@YAXJ@Z 00440e40 f   Grprof.obj
 0002:000257a0       ?GRQuartz_Interrogate@@YAHH@Z 004417a0 f   GRQUARTZ.obj
 0002:00025890       ?GRQuartz_Connect@@YAHHH@Z 00441890 f   GRQUARTZ.obj
 0002:00025970       ?GRQuartz_DataIn@@YAXHE@Z  00441970 f   GRQUARTZ.obj
 0002:00025a80       ?GRQuartz_Decode@@YAXPADH@Z 00441a80 f   GRQUARTZ.obj
 0002:00025f50       ?GRRouSup_MapTallyTables@@YAXHH@Z 00441f50 f   GRROUSUP.obj
 0002:00025fc0       ?GRRouSup_SourceValid@@YAHH@Z 00441fc0 f   GRROUSUP.obj
 0002:00026000       ?GRRouSup_DestValid@@YAHH@Z 00442000 f   GRROUSUP.obj
 0002:00026070       ?RRCmd_RouterConnect@@YAXPAD@Z 00442070 f   GRRRD.obj
 0002:00026240       ?RRCmd_Connect_RSRD@@YAXHHH@Z 00442240 f   GRRRD.obj
 0002:00026300       ?RRCmd_Connect_RSVD@@YAXHHH@Z 00442300 f   GRRRD.obj
 0002:00026340       ?RRCmd_Connect_VSRD@@YAXHHH@Z 00442340 f   GRRRD.obj
 0002:00026440       ?RRCmd_Connect_VSVD@@YAXHHH@Z 00442440 f   GRRRD.obj
 0002:00026490       ?RRCmd_Trace@@YAXH@Z       00442490 f   GRRRD.obj
 0002:000265e0       ?RRCmd_GetRealSrce@@YAHH@Z 004425e0 f   GRRRD.obj
 0002:00026800       ?GRSimple_Interrogate@@YAHH@Z 00442800 f   GRSIMPLE.obj
 0002:00026a10       ?GRSimple_Connect@@YAHHH@Z 00442a10 f   GRSIMPLE.obj
 0002:00026be0       ?GRSMSGPI_Interrogate@@YAHH@Z 00442be0 f   GRSMSGPI.obj
 0002:00026ca0       ?GRSMSGPI_Connect@@YAHHH@Z 00442ca0 f   GRSMSGPI.obj
 0002:00026d90       ?GRSMSGPI_DataIn@@YAXHE@Z  00442d90 f   GRSMSGPI.obj
 0002:00026ed0       ?GRSMSGPI_Decode@@YAXPADH@Z 00442ed0 f   GRSMSGPI.obj
 0002:000270e0       ?GRSMSRTR_Interrogate@@YAHH@Z 004430e0 f   GRSMSRTR.obj
 0002:000271c0       ?GRSMSRTR_Connect@@YAHHH@Z 004431c0 f   GRSMSRTR.obj
 0002:000272b0       ?GRSMSRTR_DataIn@@YAXHE@Z  004432b0 f   GRSMSRTR.obj
 0002:000273f0       ?GRSMSRTR_Decode@@YAXPADH@Z 004433f0 f   GRSMSRTR.obj
 0002:00027740       ?BNCSSendMessage@@YAJPAUHWND__@@0IIJHHHE@Z 00443740 f   GRSNDMSG.obj
 0002:00027820       ?GRSony_Interrogate@@YAHH@Z 00443820 f   GRSONY.obj
 0002:00027970       ?GRSony_Connect@@YAHHH@Z   00443970 f   GRSONY.obj
 0002:00027b00       ?GRSony_DataIn@@YAXHE@Z    00443b00 f   GRSONY.obj
 0002:00027d40       ?GRSony_Decode@@YAXH@Z     00443d40 f   GRSONY.obj
 0002:00028100       ?GRSony_GetCheckSum@@YAEPADH@Z 00444100 f   GRSONY.obj
 0002:00028490       ?GetMultiplier@@YAEHH@Z    00444490 f   GRSUFU.obj
 0002:000284d0       ?GetSource@@YAHEE@Z        004444d0 f   GRSUFU.obj
 0002:00028510       ?GetDestination@@YAHEE@Z   00444510 f   GRSUFU.obj
 0002:00028550       ?GetCheckSum@@YAEPADH@Z    00444550 f   GRSUFU.obj
 0002:000285d0       ?GetArguments@@YAXPADH@Z   004445d0 f   GRSUFU.obj
 0002:00028800       ?ODS@@YAXPAD@Z             00444800 f   GRSUFU.obj
 0002:000288c0       ?SendMsgToLog@@YAXPADH@Z   004448c0 f   GRSUFU.obj
 0002:00028970       ?DataDump@@YAXPADH@Z       00444970 f   GRSUFU.obj
 0002:00028b50       ?GetPortId@@YAHH@Z         00444b50 f   GRSUFU.obj
 0002:00028d80       ?GRTimer_Delay@@YAXH@Z     00444d80 f   GRTIMER.obj
 0002:00028d90       ?GRVistek_Interrogate@@YAHH@Z 00444d90 f   GRVISTEK.obj
 0002:00028e50       ?GRVistek_Connect@@YAHHH@Z 00444e50 f   GRVISTEK.obj
 0002:00028f20       ?GRVistek_DataIn@@YAXHE@Z  00444f20 f   GRVISTEK.obj
 0002:00029160       ?GRVistek_Decode@@YAXPADH@Z 00445160 f   GRVISTEK.obj
 0002:000294f0       ??0indexMapping@@QAE@XZ    004454f0 f   indexMapping.obj
 0002:00029580       ??0indexMapping@@QAE@H@Z   00445580 f   indexMapping.obj
 0002:00029620       ??1indexMapping@@UAE@XZ    00445620 f   indexMapping.obj
 0002:00029660       ?mapSource@indexMapping@@QAEHH@Z 00445660 f   indexMapping.obj
 0002:000297b0       ?unmapSource@indexMapping@@QAEHH@Z 004457b0 f   indexMapping.obj
 0002:000298f0       ?mapDest@indexMapping@@QAEHH@Z 004458f0 f   indexMapping.obj
 0002:00029a40       ?unmapDest@indexMapping@@QAEHH@Z 00445a40 f   indexMapping.obj
 0002:00029b80       ?load@indexMapping@@QAEXH@Z 00445b80 f   indexMapping.obj
 0002:0002a010       ?mustMapSources@indexMapping@@QAE_NXZ 00446010 f   indexMapping.obj
 0002:0002a030       ?mustMapDests@indexMapping@@QAE_NXZ 00446030 f   indexMapping.obj
 0002:0002a050       ?setMustMapSources@indexMapping@@QAEX_N@Z 00446050 f   indexMapping.obj
 0002:0002a070       ?setMustMapDests@indexMapping@@QAEX_N@Z 00446070 f   indexMapping.obj
 0002:0002a090       ?dumpSourceMapToDebug@indexMapping@@QAEXXZ 00446090 f   indexMapping.obj
 0002:0002a260       ?dumpDestMapToDebug@indexMapping@@QAEXXZ 00446260 f   indexMapping.obj
 0002:0002a7f0       ??$?0AAHAAHX@?$pair@HH@std@@QAE@AAH0@Z 004467f0 f i indexMapping.obj
 0002:0002a850       ??$?0AAV?$_Tree_iterator@V?$_Tree_val@U?$_Tree_simple_types@U?$pair@$$CBHH@std@@@std@@@std@@@std@@_NX@?$pair@V?$_Tree_iterator@V?$_Tree_val@U?$_Tree_simple_types@U?$pair@$$CBHH@std@@@std@@@std@@@std@@_N@std@@QAE@AAV?$_Tree_iterator@V?$_Tree_val@U?$_Tree_simple_types@U?$pair@$$CBHH@std@@@std@@@std@@@1@$$QA_N@Z 00446850 f i indexMapping.obj
 0002:0002a900       ??$?0HHX@?$pair@$$CBHH@std@@QAE@$$QAU?$pair@HH@1@@Z 00446900 f i indexMapping.obj
 0002:0002a960       ??$?0U?$_Tree_node@U?$pair@$$CBHH@std@@PAX@std@@@?$allocator@U_Container_proxy@std@@@std@@QAE@ABV?$allocator@U?$_Tree_node@U?$pair@$$CBHH@std@@PAX@std@@@1@@Z 00446960 f i indexMapping.obj
 0002:0002a980       ??$?0U?$_Wrap_alloc@V?$allocator@U?$_Tree_node@U?$pair@$$CBHH@std@@PAX@std@@@std@@@std@@@?$_Wrap_alloc@V?$allocator@U_Container_proxy@std@@@std@@@std@@QAE@ABU?$_Wrap_alloc@V?$allocator@U?$_Tree_node@U?$pair@$$CBHH@std@@PAX@std@@@std@@@1@@Z 00446980 f i indexMapping.obj
 0002:0002a9c0       ??$?0V?$_Tree_iterator@V?$_Tree_val@U?$_Tree_simple_types@U?$pair@$$CBHH@std@@@std@@@std@@@std@@_NX@?$pair@V?$_Tree_iterator@V?$_Tree_val@U?$_Tree_simple_types@U?$pair@$$CBHH@std@@@std@@@std@@@std@@_N@std@@QAE@$$QAV?$_Tree_iterator@V?$_Tree_val@U?$_Tree_simple_types@U?$pair@$$CBHH@std@@@std@@@std@@@1@$$QA_N@Z 004469c0 f i indexMapping.obj
 0002:0002aa70       ??$_Allocate@U?$_Tree_node@U?$pair@$$CBHH@std@@PAX@std@@@std@@YAPAU?$_Tree_node@U?$pair@$$CBHH@std@@PAX@0@IPAU10@@Z 00446a70 f i indexMapping.obj
 0002:0002aaf0       ??$_Buynode@U?$pair@HH@std@@@?$_Tree_buy@U?$pair@$$CBHH@std@@V?$allocator@U?$pair@$$CBHH@std@@@2@@std@@QAEPAU?$_Tree_node@U?$pair@$$CBHH@std@@PAX@1@$$QAU?$pair@HH@1@@Z 00446af0 f i indexMapping.obj
 0002:0002ac40       ??$_Buynode_if_nil@AAU?$pair@$$CBHH@std@@@?$_Tree@V?$_Tmap_traits@HHU?$less@H@std@@V?$allocator@U?$pair@$$CBHH@std@@@2@$0A@@std@@@std@@IAEPAU?$_Tree_node@U?$pair@$$CBHH@std@@PAX@1@PAU21@AAU?$pair@$$CBHH@1@@Z 00446c40 f i indexMapping.obj
 0002:0002ac60       ??$_Debug_lt_pred@U?$less@H@std@@ABHABH@std@@YA_NU?$less@H@0@ABH1PB_WI@Z 00446c60 f i indexMapping.obj
 0002:0002ad10       ??$_Insert_at@AAU?$pair@$$CBHH@std@@PAU?$_Tree_node@U?$pair@$$CBHH@std@@PAX@2@@?$_Tree@V?$_Tmap_traits@HHU?$less@H@std@@V?$allocator@U?$pair@$$CBHH@std@@@2@$0A@@std@@@std@@IAE?AV?$_Tree_iterator@V?$_Tree_val@U?$_Tree_simple_types@U?$pair@$$CBHH@std@@@std@@@std@@@1@_NPAU?$_Tree_node@U?$pair@$$CBHH@std@@PAX@1@AAU?$pair@$$CBHH@1@1@Z 00446d10 f i indexMapping.obj
 0002:0002b280       ??$_Insert_nohint@AAU?$pair@$$CBHH@std@@PAU?$_Tree_node@U?$pair@$$CBHH@std@@PAX@2@@?$_Tree@V?$_Tmap_traits@HHU?$less@H@std@@V?$allocator@U?$pair@$$CBHH@std@@@2@$0A@@std@@@std@@IAE?AU?$pair@V?$_Tree_iterator@V?$_Tree_val@U?$_Tree_simple_types@U?$pair@$$CBHH@std@@@std@@@std@@@std@@_N@1@_NAAU?$pair@$$CBHH@1@PAU?$_Tree_node@U?$pair@$$CBHH@std@@PAX@1@@Z 00447280 f i indexMapping.obj
 0002:0002b940       ??$_Kfn@$$CBHH@?$_Tmap_traits@HHU?$less@H@std@@V?$allocator@U?$pair@$$CBHH@std@@@2@$0A@@std@@SAABHABU?$pair@$$CBHH@1@@Z 00447940 f i indexMapping.obj
 0002:0002b950       ??$addressof@PAU?$_Tree_node@U?$pair@$$CBHH@std@@PAX@std@@@std@@YAPAPAU?$_Tree_node@U?$pair@$$CBHH@std@@PAX@0@AAPAU10@@Z 00447950 f i indexMapping.obj
 0002:0002b960       ??$addressof@U?$pair@$$CBHH@std@@@std@@YAPAU?$pair@$$CBHH@0@AAU10@@Z 00447960 f i indexMapping.obj
 0002:0002b970       ??$construct@PAU?$_Tree_node@U?$pair@$$CBHH@std@@PAX@std@@AAPAU12@@?$_Wrap_alloc@V?$allocator@U?$_Tree_node@U?$pair@$$CBHH@std@@PAX@std@@@std@@@std@@QAEXPAPAU?$_Tree_node@U?$pair@$$CBHH@std@@PAX@1@AAPAU21@@Z 00447970 f i indexMapping.obj
 0002:0002b9c0       ??$construct@PAU?$_Tree_node@U?$pair@$$CBHH@std@@PAX@std@@AAPAU12@@?$allocator@U?$_Tree_node@U?$pair@$$CBHH@std@@PAX@std@@@std@@QAEXPAPAU?$_Tree_node@U?$pair@$$CBHH@std@@PAX@1@AAPAU21@@Z 004479c0 f i indexMapping.obj
 0002:0002ba90       ??$construct@PAU?$_Tree_node@U?$pair@$$CBHH@std@@PAX@std@@AAPAU12@@?$allocator_traits@V?$allocator@U?$_Tree_node@U?$pair@$$CBHH@std@@PAX@std@@@std@@@std@@SAXAAV?$allocator@U?$_Tree_node@U?$pair@$$CBHH@std@@PAX@std@@@1@PAPAU?$_Tree_node@U?$pair@$$CBHH@std@@PAX@1@AAPAU31@@Z 00447a90 f i indexMapping.obj
 0002:0002bac0       ??$construct@U?$pair@$$CBHH@std@@U?$pair@HH@2@@?$_Wrap_alloc@V?$allocator@U?$_Tree_node@U?$pair@$$CBHH@std@@PAX@std@@@std@@@std@@QAEXPAU?$pair@$$CBHH@1@$$QAU?$pair@HH@1@@Z 00447ac0 f i indexMapping.obj
 0002:0002bb10       ??$construct@U?$pair@$$CBHH@std@@U?$pair@HH@2@@?$allocator@U?$_Tree_node@U?$pair@$$CBHH@std@@PAX@std@@@std@@QAEXPAU?$pair@$$CBHH@1@$$QAU?$pair@HH@1@@Z 00447b10 f i indexMapping.obj
 0002:0002bbe0       ??$construct@U?$pair@$$CBHH@std@@U?$pair@HH@2@@?$allocator_traits@V?$allocator@U?$_Tree_node@U?$pair@$$CBHH@std@@PAX@std@@@std@@@std@@SAXAAV?$allocator@U?$_Tree_node@U?$pair@$$CBHH@std@@PAX@std@@@1@PAU?$pair@$$CBHH@1@$$QAU?$pair@HH@1@@Z 00447be0 f i indexMapping.obj
 0002:0002bc10       ??$destroy@PAU?$_Tree_node@U?$pair@$$CBHH@std@@PAX@std@@@?$_Wrap_alloc@V?$allocator@U?$_Tree_node@U?$pair@$$CBHH@std@@PAX@std@@@std@@@std@@QAEXPAPAU?$_Tree_node@U?$pair@$$CBHH@std@@PAX@1@@Z 00447c10 f i indexMapping.obj
 0002:0002bc50       ??$destroy@PAU?$_Tree_node@U?$pair@$$CBHH@std@@PAX@std@@@?$allocator@U?$_Tree_node@U?$pair@$$CBHH@std@@PAX@std@@@std@@QAEXPAPAU?$_Tree_node@U?$pair@$$CBHH@std@@PAX@1@@Z 00447c50 f i indexMapping.obj
 0002:0002bc70       ??$destroy@PAU?$_Tree_node@U?$pair@$$CBHH@std@@PAX@std@@@?$allocator_traits@V?$allocator@U?$_Tree_node@U?$pair@$$CBHH@std@@PAX@std@@@std@@@std@@SAXAAV?$allocator@U?$_Tree_node@U?$pair@$$CBHH@std@@PAX@std@@@1@PAPAU?$_Tree_node@U?$pair@$$CBHH@std@@PAX@1@@Z 00447c70 f i indexMapping.obj
 0002:0002bc90       ??$destroy@U?$pair@$$CBHH@std@@@?$_Wrap_alloc@V?$allocator@U?$_Tree_node@U?$pair@$$CBHH@std@@PAX@std@@@std@@@std@@QAEXPAU?$pair@$$CBHH@1@@Z 00447c90 f i indexMapping.obj
 0002:0002bcd0       ??$destroy@U?$pair@$$CBHH@std@@@?$allocator@U?$_Tree_node@U?$pair@$$CBHH@std@@PAX@std@@@std@@QAEXPAU?$pair@$$CBHH@1@@Z 00447cd0 f i indexMapping.obj
 0002:0002bcf0       ??$destroy@U?$pair@$$CBHH@std@@@?$allocator_traits@V?$allocator@U?$_Tree_node@U?$pair@$$CBHH@std@@PAX@std@@@std@@@std@@SAXAAV?$allocator@U?$_Tree_node@U?$pair@$$CBHH@std@@PAX@std@@@1@PAU?$pair@$$CBHH@1@@Z 00447cf0 f i indexMapping.obj
 0002:0002bd10       ??$forward@AAH@std@@YAAAHAAH@Z 00447d10 f i indexMapping.obj
 0002:0002bd20       ??$forward@AAPAU?$_Tree_node@U?$pair@$$CBHH@std@@PAX@std@@@std@@YAAAPAU?$_Tree_node@U?$pair@$$CBHH@std@@PAX@0@AAPAU10@@Z 00447d20 f i indexMapping.obj
 0002:0002bd30       ??$forward@AAU?$pair@$$CBHH@std@@@std@@YAAAU?$pair@$$CBHH@0@AAU10@@Z 00447d30 f i indexMapping.obj
 0002:0002bd40       ??$forward@AAV?$_Tree_iterator@V?$_Tree_val@U?$_Tree_simple_types@U?$pair@$$CBHH@std@@@std@@@std@@@std@@@std@@YAAAV?$_Tree_iterator@V?$_Tree_val@U?$_Tree_simple_types@U?$pair@$$CBHH@std@@@std@@@std@@@0@AAV10@@Z 00447d40 f i indexMapping.obj
 0002:0002bd50       ??$forward@ABH@std@@YAABHABH@Z 00447d50 f i indexMapping.obj
 0002:0002bd60       ??$forward@H@std@@YA$$QAHAAH@Z 00447d60 f i indexMapping.obj
 0002:0002bd70       ??$forward@U?$pair@HH@std@@@std@@YA$$QAU?$pair@HH@0@AAU10@@Z 00447d70 f i indexMapping.obj
 0002:0002bd80       ??$forward@V?$_Tree_iterator@V?$_Tree_val@U?$_Tree_simple_types@U?$pair@$$CBHH@std@@@std@@@std@@@std@@@std@@YA$$QAV?$_Tree_iterator@V?$_Tree_val@U?$_Tree_simple_types@U?$pair@$$CBHH@std@@@std@@@std@@@0@AAV10@@Z 00447d80 f i indexMapping.obj
 0002:0002bd90       ??$insert@U?$pair@HH@std@@@?$_Tree@V?$_Tmap_traits@HHU?$less@H@std@@V?$allocator@U?$pair@$$CBHH@std@@@2@$0A@@std@@@std@@QAE?AU?$pair@V?$_Tree_iterator@V?$_Tree_val@U?$_Tree_simple_types@U?$pair@$$CBHH@std@@@std@@@std@@@std@@_N@1@$$QAU?$pair@HH@1@@Z 00447d90 f i indexMapping.obj
 0002:0002be30       ??0?$_Iterator012@Ubidirectional_iterator_tag@std@@U?$pair@$$CBHH@2@HPBU32@ABU32@U_Iterator_base12@2@@std@@QAE@ABU01@@Z 00447e30 f i indexMapping.obj
 0002:0002be70       ??0?$_Iterator012@Ubidirectional_iterator_tag@std@@U?$pair@$$CBHH@2@HPBU32@ABU32@U_Iterator_base12@2@@std@@QAE@XZ 00447e70 f i indexMapping.obj
 0002:0002bea0       ??0?$_Tree@V?$_Tmap_traits@HHU?$less@H@std@@V?$allocator@U?$pair@$$CBHH@std@@@2@$0A@@std@@@std@@QAE@ABU?$less@H@1@ABV?$allocator@U?$pair@$$CBHH@std@@@1@@Z 00447ea0 f i indexMapping.obj
 0002:0002bee0       ??0?$_Tree_alloc@$0A@U?$_Tree_base_types@U?$pair@$$CBHH@std@@V?$allocator@U?$pair@$$CBHH@std@@@2@@std@@@std@@QAE@ABV?$allocator@U?$pair@$$CBHH@std@@@1@@Z 00447ee0 f i indexMapping.obj
 0002:0002bfd0       ??0?$_Tree_buy@U?$pair@$$CBHH@std@@V?$allocator@U?$pair@$$CBHH@std@@@2@@std@@QAE@ABV?$allocator@U?$pair@$$CBHH@std@@@1@@Z 00447fd0 f i indexMapping.obj
 0002:0002c010       ??0?$_Tree_comp@$0A@V?$_Tmap_traits@HHU?$less@H@std@@V?$allocator@U?$pair@$$CBHH@std@@@2@$0A@@std@@@std@@QAE@ABU?$less@H@1@ABV?$allocator@U?$pair@$$CBHH@std@@@1@@Z 00448010 f i indexMapping.obj
 0002:0002c050       ??0?$_Tree_const_iterator@V?$_Tree_val@U?$_Tree_simple_types@U?$pair@$$CBHH@std@@@std@@@std@@@std@@QAE@ABV01@@Z 00448050 f i indexMapping.obj
 0002:0002c090       ??0?$_Tree_const_iterator@V?$_Tree_val@U?$_Tree_simple_types@U?$pair@$$CBHH@std@@@std@@@std@@@std@@QAE@PAU?$_Tree_node@U?$pair@$$CBHH@std@@PAX@1@PBV?$_Tree_val@U?$_Tree_simple_types@U?$pair@$$CBHH@std@@@std@@@1@@Z 00448090 f i indexMapping.obj
 0002:0002c0d0       ??0?$_Tree_iterator@V?$_Tree_val@U?$_Tree_simple_types@U?$pair@$$CBHH@std@@@std@@@std@@@std@@QAE@ABV01@@Z 004480d0 f i indexMapping.obj
 0002:0002c110       ??0?$_Tree_iterator@V?$_Tree_val@U?$_Tree_simple_types@U?$pair@$$CBHH@std@@@std@@@std@@@std@@QAE@PAU?$_Tree_node@U?$pair@$$CBHH@std@@PAX@1@PBV?$_Tree_val@U?$_Tree_simple_types@U?$pair@$$CBHH@std@@@std@@@1@@Z 00448110 f i indexMapping.obj
 0002:0002c150       ??0?$_Tree_unchecked_const_iterator@V?$_Tree_val@U?$_Tree_simple_types@U?$pair@$$CBHH@std@@@std@@@std@@U_Iterator_base12@2@@std@@QAE@ABV01@@Z 00448150 f i indexMapping.obj
 0002:0002c1a0       ??0?$_Tree_unchecked_const_iterator@V?$_Tree_val@U?$_Tree_simple_types@U?$pair@$$CBHH@std@@@std@@@std@@U_Iterator_base12@2@@std@@QAE@PAU?$_Tree_node@U?$pair@$$CBHH@std@@PAX@1@PBV?$_Tree_val@U?$_Tree_simple_types@U?$pair@$$CBHH@std@@@std@@@1@@Z 004481a0 f i indexMapping.obj
 0002:0002c240       ??0?$_Tree_val@U?$_Tree_simple_types@U?$pair@$$CBHH@std@@@std@@@std@@QAE@XZ 00448240 f i indexMapping.obj
 0002:0002c2a0       ??0?$_Wrap_alloc@V?$allocator@U?$_Tree_node@U?$pair@$$CBHH@std@@PAX@std@@@std@@@std@@QAE@XZ 004482a0 f i indexMapping.obj
 0002:0002c2d0       ??0?$allocator@U?$_Tree_node@U?$pair@$$CBHH@std@@PAX@std@@@std@@QAE@XZ 004482d0 f i indexMapping.obj
 0002:0002c2f0       ??0?$allocator@U?$pair@$$CBHH@std@@@std@@QAE@XZ 004482f0 f i indexMapping.obj
 0002:0002c310       ??0?$map@HHU?$less@H@std@@V?$allocator@U?$pair@$$CBHH@std@@@2@@std@@QAE@XZ 00448310 f i indexMapping.obj
 0002:0002c360       ??1?$_Iterator012@Ubidirectional_iterator_tag@std@@U?$pair@$$CBHH@2@HPBU32@ABU32@U_Iterator_base12@2@@std@@QAE@XZ 00448360 f i indexMapping.obj
 0002:0002c390       ??1?$_Tree@V?$_Tmap_traits@HHU?$less@H@std@@V?$allocator@U?$pair@$$CBHH@std@@@2@$0A@@std@@@std@@QAE@XZ 00448390 f i indexMapping.obj
 0002:0002c3d0       ??1?$_Tree_alloc@$0A@U?$_Tree_base_types@U?$pair@$$CBHH@std@@V?$allocator@U?$pair@$$CBHH@std@@@2@@std@@@std@@QAE@XZ 004483d0 f i indexMapping.obj
 0002:0002c420       ??1?$_Tree_buy@U?$pair@$$CBHH@std@@V?$allocator@U?$pair@$$CBHH@std@@@2@@std@@QAE@XZ 00448420 f i indexMapping.obj
 0002:0002c450       ??1?$_Tree_comp@$0A@V?$_Tmap_traits@HHU?$less@H@std@@V?$allocator@U?$pair@$$CBHH@std@@@2@$0A@@std@@@std@@QAE@XZ 00448450 f i indexMapping.obj
 0002:0002c480       ??1?$_Tree_const_iterator@V?$_Tree_val@U?$_Tree_simple_types@U?$pair@$$CBHH@std@@@std@@@std@@@std@@QAE@XZ 00448480 f i indexMapping.obj
 0002:0002c4b0       ??1?$_Tree_iterator@V?$_Tree_val@U?$_Tree_simple_types@U?$pair@$$CBHH@std@@@std@@@std@@@std@@QAE@XZ 004484b0 f i indexMapping.obj
 0002:0002c4e0       ??1?$_Tree_unchecked_const_iterator@V?$_Tree_val@U?$_Tree_simple_types@U?$pair@$$CBHH@std@@@std@@@std@@U_Iterator_base12@2@@std@@QAE@XZ 004484e0 f i indexMapping.obj
 0002:0002c510       ??1?$_Tree_val@U?$_Tree_simple_types@U?$pair@$$CBHH@std@@@std@@@std@@QAE@XZ 00448510 f i indexMapping.obj
 0002:0002c550       ??1?$map@HHU?$less@H@std@@V?$allocator@U?$pair@$$CBHH@std@@@2@@std@@QAE@XZ 00448550 f i indexMapping.obj
 0002:0002c580       ??1?$pair@V?$_Tree_iterator@V?$_Tree_val@U?$_Tree_simple_types@U?$pair@$$CBHH@std@@@std@@@std@@@std@@_N@std@@QAE@XZ 00448580 f i indexMapping.obj
 0002:0002c5b0       ??8?$_Tree_const_iterator@V?$_Tree_val@U?$_Tree_simple_types@U?$pair@$$CBHH@std@@@std@@@std@@@std@@QBE_NABV01@@Z 004485b0 f i indexMapping.obj
 0002:0002c6f0       ??9?$_Tree_const_iterator@V?$_Tree_val@U?$_Tree_simple_types@U?$pair@$$CBHH@std@@@std@@@std@@@std@@QBE_NABV01@@Z 004486f0 f i indexMapping.obj
 0002:0002c750       ??C?$_Tree_iterator@V?$_Tree_val@U?$_Tree_simple_types@U?$pair@$$CBHH@std@@@std@@@std@@@std@@QBEPAU?$pair@$$CBHH@1@XZ 00448750 f i indexMapping.obj
 0002:0002c790       ??D?$_Tree_const_iterator@V?$_Tree_val@U?$_Tree_simple_types@U?$pair@$$CBHH@std@@@std@@@std@@@std@@QBEABU?$pair@$$CBHH@1@XZ 00448790 f i indexMapping.obj
 0002:0002c8b0       ??D?$_Tree_iterator@V?$_Tree_val@U?$_Tree_simple_types@U?$pair@$$CBHH@std@@@std@@@std@@@std@@QBEAAU?$pair@$$CBHH@1@XZ 004488b0 f i indexMapping.obj
 0002:0002c8e0       ??E?$_Tree_const_iterator@V?$_Tree_val@U?$_Tree_simple_types@U?$pair@$$CBHH@std@@@std@@@std@@@std@@QAE?AV01@H@Z 004488e0 f i indexMapping.obj
 0002:0002c9f0       ??E?$_Tree_const_iterator@V?$_Tree_val@U?$_Tree_simple_types@U?$pair@$$CBHH@std@@@std@@@std@@@std@@QAEAAV01@XZ 004489f0 f i indexMapping.obj
 0002:0002cb10       ??E?$_Tree_iterator@V?$_Tree_val@U?$_Tree_simple_types@U?$pair@$$CBHH@std@@@std@@@std@@@std@@QAEAAV01@XZ 00448b10 f i indexMapping.obj
 0002:0002cb40       ??E?$_Tree_iterator@V?$_Tree_val@U?$_Tree_simple_types@U?$pair@$$CBV?$basic_string@DU?$char_traits@D@std@@V?$allocator@D@2@@std@@V12@@std@@@std@@@std@@@std@@QAEAAV01@XZ 00448b40 f i indexMapping.obj
 0002:0002cb70       ??E?$_Tree_unchecked_const_iterator@V?$_Tree_val@U?$_Tree_simple_types@U?$pair@$$CBHH@std@@@std@@@std@@U_Iterator_base12@2@@std@@QAEAAV01@XZ 00448b70 f i indexMapping.obj
 0002:0002cc80       ??F?$_Tree_const_iterator@V?$_Tree_val@U?$_Tree_simple_types@U?$pair@$$CBHH@std@@@std@@@std@@@std@@QAEAAV01@XZ 00448c80 f i indexMapping.obj
 0002:0002ce50       ??F?$_Tree_iterator@V?$_Tree_val@U?$_Tree_simple_types@U?$pair@$$CBHH@std@@@std@@@std@@@std@@QAEAAV01@XZ 00448e50 f i indexMapping.obj
 0002:0002ce80       ??F?$_Tree_unchecked_const_iterator@V?$_Tree_val@U?$_Tree_simple_types@U?$pair@$$CBHH@std@@@std@@@std@@U_Iterator_base12@2@@std@@QAEAAV01@XZ 00448e80 f i indexMapping.obj
 0002:0002cfd0       ??R?$less@H@std@@QBE_NABH0@Z 00448fd0 f i indexMapping.obj
 0002:0002d020       ??_EindexMapping@@UAEPAXI@Z 00449020 f i indexMapping.obj
 0002:0002d020       ??_GindexMapping@@UAEPAXI@Z 00449020 f i indexMapping.obj
 0002:0002d070       ?_Alloc_proxy@?$_Tree_alloc@$0A@U?$_Tree_base_types@U?$pair@$$CBHH@std@@V?$allocator@U?$pair@$$CBHH@std@@@2@@std@@@std@@QAEXXZ 00449070 f i indexMapping.obj
 0002:0002d140       ?_Buyheadnode@?$_Tree_alloc@$0A@U?$_Tree_base_types@U?$pair@$$CBHH@std@@V?$allocator@U?$pair@$$CBHH@std@@@2@@std@@@std@@QAEPAU?$_Tree_node@U?$pair@$$CBHH@std@@PAX@2@XZ 00449140 f i indexMapping.obj
 0002:0002d350       ?_Buynode0@?$_Tree_buy@U?$pair@$$CBHH@std@@V?$allocator@U?$pair@$$CBHH@std@@@2@@std@@QAEPAU?$_Tree_node@U?$pair@$$CBHH@std@@PAX@2@XZ 00449350 f i indexMapping.obj
 0002:0002d510       ?_Color@?$_Tree_val@U?$_Tree_simple_types@U?$pair@$$CBHH@std@@@std@@@std@@SAAADPAU?$_Tree_node@U?$pair@$$CBHH@std@@PAX@2@@Z 00449510 f i indexMapping.obj
 0002:0002d520       ?_Destroy_if_not_nil@?$_Tree@V?$_Tmap_traits@HHU?$less@H@std@@V?$allocator@U?$pair@$$CBHH@std@@@2@$0A@@std@@@std@@IAEXPAU?$_Tree_node@U?$pair@$$CBHH@std@@PAX@2@@Z 00449520 f i indexMapping.obj
 0002:0002d5b0       ?_Erase@?$_Tree@V?$_Tmap_traits@HHU?$less@H@std@@V?$allocator@U?$pair@$$CBHH@std@@@2@$0A@@std@@@std@@IAEXPAU?$_Tree_node@U?$pair@$$CBHH@std@@PAX@2@@Z 004495b0 f i indexMapping.obj
 0002:0002d6a0       ?_Free_proxy@?$_Tree_alloc@$0A@U?$_Tree_base_types@U?$pair@$$CBHH@std@@V?$allocator@U?$pair@$$CBHH@std@@@2@@std@@@std@@QAEXXZ 004496a0 f i indexMapping.obj
 0002:0002d780       ?_Freeheadnode@?$_Tree_alloc@$0A@U?$_Tree_base_types@U?$pair@$$CBHH@std@@V?$allocator@U?$pair@$$CBHH@std@@@2@@std@@@std@@QAEXPAU?$_Tree_node@U?$pair@$$CBHH@std@@PAX@2@@Z 00449780 f i indexMapping.obj
 0002:0002d870       ?_Freenode0@?$_Tree_buy@U?$pair@$$CBHH@std@@V?$allocator@U?$pair@$$CBHH@std@@@2@@std@@QAEXPAU?$_Tree_node@U?$pair@$$CBHH@std@@PAX@2@@Z 00449870 f i indexMapping.obj
 0002:0002d960       ?_Getal@?$_Tree_alloc@$0A@U?$_Tree_base_types@U?$pair@$$CBHH@std@@V?$allocator@U?$pair@$$CBHH@std@@@2@@std@@@std@@QBE?AU?$_Wrap_alloc@V?$allocator@U?$_Tree_node@U?$pair@$$CBHH@std@@PAX@std@@@std@@@2@XZ 00449960 f i indexMapping.obj
 0002:0002d9a0       ?_Getcomp@?$_Tree_comp@$0A@V?$_Tmap_traits@HHU?$less@H@std@@V?$allocator@U?$pair@$$CBHH@std@@@2@$0A@@std@@@std@@QBE?AU?$less@H@2@XZ 004499a0 f i indexMapping.obj
 0002:0002d9d0       ?_Isnil@?$_Tree_val@U?$_Tree_simple_types@U?$pair@$$CBHH@std@@@std@@@std@@SAAADPAU?$_Tree_node@U?$pair@$$CBHH@std@@PAX@2@@Z 004499d0 f i indexMapping.obj
 0002:0002d9e0       ?_Key@?$_Tree@V?$_Tmap_traits@HHU?$less@H@std@@V?$allocator@U?$pair@$$CBHH@std@@@2@$0A@@std@@@std@@IBEABHPAU?$_Tree_node@U?$pair@$$CBHH@std@@PAX@2@@Z 004499e0 f i indexMapping.obj
 0002:0002da20       ?_Kfn@?$_Tree@V?$_Tmap_traits@HHU?$less@H@std@@V?$allocator@U?$pair@$$CBHH@std@@@2@$0A@@std@@@std@@IBEABHABU?$pair@$$CBHH@2@@Z 00449a20 f i indexMapping.obj
 0002:0002da60       ?_Lbound@?$_Tree@V?$_Tmap_traits@HHU?$less@H@std@@V?$allocator@U?$pair@$$CBHH@std@@@2@$0A@@std@@@std@@IAEPAU?$_Tree_node@U?$pair@$$CBHH@std@@PAX@2@ABH@Z 00449a60 f i indexMapping.obj
 0002:0002db50       ?_Left@?$_Tree_val@U?$_Tree_simple_types@U?$pair@$$CBHH@std@@@std@@@std@@SAAAPAU?$_Tree_node@U?$pair@$$CBHH@std@@PAX@2@PAU32@@Z 00449b50 f i indexMapping.obj
 0002:0002db60       ?_Lmost@?$_Tree@V?$_Tmap_traits@HHU?$less@H@std@@V?$allocator@U?$pair@$$CBHH@std@@@2@$0A@@std@@@std@@IBEAAPAU?$_Tree_node@U?$pair@$$CBHH@std@@PAX@2@XZ 00449b60 f i indexMapping.obj
 0002:0002dba0       ?_Lrotate@?$_Tree@V?$_Tmap_traits@HHU?$less@H@std@@V?$allocator@U?$pair@$$CBHH@std@@@2@$0A@@std@@@std@@IAEXPAU?$_Tree_node@U?$pair@$$CBHH@std@@PAX@2@@Z 00449ba0 f i indexMapping.obj
 0002:0002dd40       ?_Max@?$_Tree_val@U?$_Tree_simple_types@U?$pair@$$CBHH@std@@@std@@@std@@SAPAU?$_Tree_node@U?$pair@$$CBHH@std@@PAX@2@PAU32@@Z 00449d40 f i indexMapping.obj
 0002:0002dd90       ?_Min@?$_Tree_val@U?$_Tree_simple_types@U?$pair@$$CBHH@std@@@std@@@std@@SAPAU?$_Tree_node@U?$pair@$$CBHH@std@@PAX@2@PAU32@@Z 00449d90 f i indexMapping.obj
 0002:0002dde0       ?_Mynode@?$_Tree_unchecked_const_iterator@V?$_Tree_val@U?$_Tree_simple_types@U?$pair@$$CBHH@std@@@std@@@std@@U_Iterator_base12@2@@std@@QBEPAU?$_Tree_node@U?$pair@$$CBHH@std@@PAX@2@XZ 00449de0 f i indexMapping.obj
 0002:0002de00       ?_Myval@?$_Tree_val@U?$_Tree_simple_types@U?$pair@$$CBHH@std@@@std@@@std@@SAAAU?$pair@$$CBHH@2@PAU?$_Tree_node@U?$pair@$$CBHH@std@@PAX@2@@Z 00449e00 f i indexMapping.obj
 0002:0002de10       ?_Orphan_ptr@?$_Tree@V?$_Tmap_traits@HHU?$less@H@std@@V?$allocator@U?$pair@$$CBHH@std@@@2@$0A@@std@@@std@@IBEXAAV12@PAU?$_Tree_node@U?$pair@$$CBHH@std@@PAX@2@@Z 00449e10 f i indexMapping.obj
 0002:0002df90       ?_Parent@?$_Tree_val@U?$_Tree_simple_types@U?$pair@$$CBHH@std@@@std@@@std@@SAAAPAU?$_Tree_node@U?$pair@$$CBHH@std@@PAX@2@PAU32@@Z 00449f90 f i indexMapping.obj
 0002:0002dfa0       ?_Right@?$_Tree_val@U?$_Tree_simple_types@U?$pair@$$CBHH@std@@@std@@@std@@SAAAPAU?$_Tree_node@U?$pair@$$CBHH@std@@PAX@2@PAU32@@Z 00449fa0 f i indexMapping.obj
 0002:0002dfb0       ?_Rmost@?$_Tree@V?$_Tmap_traits@HHU?$less@H@std@@V?$allocator@U?$pair@$$CBHH@std@@@2@$0A@@std@@@std@@IBEAAPAU?$_Tree_node@U?$pair@$$CBHH@std@@PAX@2@XZ 00449fb0 f i indexMapping.obj
 0002:0002dff0       ?_Root@?$_Tree@V?$_Tmap_traits@HHU?$less@H@std@@V?$allocator@U?$pair@$$CBHH@std@@@2@$0A@@std@@@std@@IBEAAPAU?$_Tree_node@U?$pair@$$CBHH@std@@PAX@2@XZ 00449ff0 f i indexMapping.obj
 0002:0002e030       ?_Rrotate@?$_Tree@V?$_Tmap_traits@HHU?$less@H@std@@V?$allocator@U?$pair@$$CBHH@std@@@2@$0A@@std@@@std@@IAEXPAU?$_Tree_node@U?$pair@$$CBHH@std@@PAX@2@@Z 0044a030 f i indexMapping.obj
 0002:0002e1d0       ?_Tidy@?$_Tree@V?$_Tmap_traits@HHU?$less@H@std@@V?$allocator@U?$pair@$$CBHH@std@@@2@$0A@@std@@@std@@IAEXXZ 0044a1d0 f i indexMapping.obj
 0002:0002e300       ?allocate@?$_Wrap_alloc@V?$allocator@U?$_Tree_node@U?$pair@$$CBHH@std@@PAX@std@@@std@@@std@@QAEPAU?$_Tree_node@U?$pair@$$CBHH@std@@PAX@2@I@Z 0044a300 f i indexMapping.obj
 0002:0002e340       ?allocate@?$allocator@U?$_Tree_node@U?$pair@$$CBHH@std@@PAX@std@@@std@@QAEPAU?$_Tree_node@U?$pair@$$CBHH@std@@PAX@2@I@Z 0044a340 f i indexMapping.obj
 0002:0002e380       ?begin@?$_Tree@V?$_Tmap_traits@HHU?$less@H@std@@V?$allocator@U?$pair@$$CBHH@std@@@2@$0A@@std@@@std@@QAE?AV?$_Tree_iterator@V?$_Tree_val@U?$_Tree_simple_types@U?$pair@$$CBHH@std@@@std@@@std@@@2@XZ 0044a380 f i indexMapping.obj
 0002:0002e3d0       ?clear@?$_Tree@V?$_Tmap_traits@HHU?$less@H@std@@V?$allocator@U?$pair@$$CBHH@std@@@2@$0A@@std@@@std@@QAEXXZ 0044a3d0 f i indexMapping.obj
 0002:0002e470       ?deallocate@?$_Wrap_alloc@V?$allocator@U?$_Tree_node@U?$pair@$$CBHH@std@@PAX@std@@@std@@@std@@QAEXPAU?$_Tree_node@U?$pair@$$CBHH@std@@PAX@2@I@Z 0044a470 f i indexMapping.obj
 0002:0002e4b0       ?deallocate@?$allocator@U?$_Tree_node@U?$pair@$$CBHH@std@@PAX@std@@@std@@QAEXPAU?$_Tree_node@U?$pair@$$CBHH@std@@PAX@2@I@Z 0044a4b0 f i indexMapping.obj
 0002:0002e4f0       ?end@?$_Tree@V?$_Tmap_traits@HHU?$less@H@std@@V?$allocator@U?$pair@$$CBHH@std@@@2@$0A@@std@@@std@@QAE?AV?$_Tree_iterator@V?$_Tree_val@U?$_Tree_simple_types@U?$pair@$$CBHH@std@@@std@@@std@@@2@XZ 0044a4f0 f i indexMapping.obj
 0002:0002e540       ?erase@?$_Tree@V?$_Tmap_traits@HHU?$less@H@std@@V?$allocator@U?$pair@$$CBHH@std@@@2@$0A@@std@@@std@@QAE?AV?$_Tree_iterator@V?$_Tree_val@U?$_Tree_simple_types@U?$pair@$$CBHH@std@@@std@@@std@@@2@V?$_Tree_const_iterator@V?$_Tree_val@U?$_Tree_simple_types@U?$pair@$$CBHH@std@@@std@@@std@@@2@0@Z 0044a540 f i indexMapping.obj
 0002:0002e7c0       ?erase@?$_Tree@V?$_Tmap_traits@HHU?$less@H@std@@V?$allocator@U?$pair@$$CBHH@std@@@2@$0A@@std@@@std@@QAE?AV?$_Tree_iterator@V?$_Tree_val@U?$_Tree_simple_types@U?$pair@$$CBHH@std@@@std@@@std@@@2@V?$_Tree_const_iterator@V?$_Tree_val@U?$_Tree_simple_types@U?$pair@$$CBHH@std@@@std@@@std@@@2@@Z 0044a7c0 f i indexMapping.obj
 0002:0002f220       ?find@?$_Tree@V?$_Tmap_traits@HHU?$less@H@std@@V?$allocator@U?$pair@$$CBHH@std@@@2@$0A@@std@@@std@@QAE?AV?$_Tree_iterator@V?$_Tree_val@U?$_Tree_simple_types@U?$pair@$$CBHH@std@@@std@@@std@@@2@ABH@Z 0044b220 f i indexMapping.obj
 0002:0002f490       ?lower_bound@?$_Tree@V?$_Tmap_traits@HHU?$less@H@std@@V?$allocator@U?$pair@$$CBHH@std@@@2@$0A@@std@@@std@@QAE?AV?$_Tree_iterator@V?$_Tree_val@U?$_Tree_simple_types@U?$pair@$$CBHH@std@@@std@@@std@@@2@ABH@Z 0044b490 f i indexMapping.obj
 0002:0002f500       ?max_size@?$_Tree@V?$_Tmap_traits@HHU?$less@H@std@@V?$allocator@U?$pair@$$CBHH@std@@@2@$0A@@std@@@std@@QBEIXZ 0044b500 f i indexMapping.obj
 0002:0002f550       ?max_size@?$_Wrap_alloc@V?$allocator@U?$_Tree_node@U?$pair@$$CBHH@std@@PAX@std@@@std@@@std@@QBEIXZ 0044b550 f i indexMapping.obj
 0002:0002f590       ?max_size@?$allocator@U?$_Tree_node@U?$pair@$$CBHH@std@@PAX@std@@@std@@QBEIXZ 0044b590 f i indexMapping.obj
 0002:0002f5b0       ?max_size@?$allocator_traits@V?$allocator@U?$_Tree_node@U?$pair@$$CBHH@std@@PAX@std@@@std@@@std@@SAIABV?$allocator@U?$_Tree_node@U?$pair@$$CBHH@std@@PAX@std@@@2@@Z 0044b5b0 f i indexMapping.obj
 0002:0002f5d0       ?pointer_to@?$pointer_traits@PAU?$pair@$$CBHH@std@@@std@@SAPAU?$pair@$$CBHH@2@AAU32@@Z 0044b5d0 f i indexMapping.obj
 0002:0002f5f0       ?GetPrivateINIString@@YAXPBD00PADKQAD@Z 0044b5f0 f   PROFILE.obj
 0002:0002f6e0       ?WritePrivateINIString@@YAXPBD000@Z 0044b6e0 f   PROFILE.obj
 0002:0002f7c0       ?GetEnvironmentType@@YAHXZ 0044b7c0 f   PROFILE.obj
 0002:0002f8b0       ?GetSystemPath@@YAPADXZ    0044b8b0 f   PROFILE.obj
 0002:0002f9c0       ?GetINIPath@@YAPADPAD@Z    0044b9c0 f   PROFILE.obj
 0002:0002fa90       ?GetDataPath@@YAPADPAD@Z   0044ba90 f   PROFILE.obj
 0002:0002fb40       ?GetLockPath@@YAPADPAD@Z   0044bb40 f   PROFILE.obj
 0002:0002fbf0       ?GetCachePath@@YAPADPAD@Z  0044bbf0 f   PROFILE.obj
 0002:0002fca0       ?GetPanelsPath@@YAPADPAD@Z 0044bca0 f   PROFILE.obj
 0002:0002fd50       ?GetImagesPath@@YAPADPAD@Z 0044bd50 f   PROFILE.obj
 0002:0002fe00       ?GetScriptsPath@@YAPADPAD@Z 0044be00 f   PROFILE.obj
 0002:0002feb0       ?GetStylePath@@YAPADPAD@Z  0044beb0 f   PROFILE.obj
 0002:0002ff60       ?GetTempPathA@@YAPADPAD@Z  0044bf60 f   PROFILE.obj
 0002:000303f0       ??0sizedBuffer@@QAE@XZ     0044c3f0 f   sizedBuffer.obj
 0002:00030430       ??0sizedBuffer@@QAE@PBEHH@Z 0044c430 f   sizedBuffer.obj
 0002:000304e0       ??0sizedBuffer@@QAE@ABV0@@Z 0044c4e0 f   sizedBuffer.obj
 0002:00030520       ??1sizedBuffer@@UAE@XZ     0044c520 f   sizedBuffer.obj
 0002:00030580       ??0sizedBuffer@@QAE@$$QAV0@@Z 0044c580 f   sizedBuffer.obj
 0002:000305f0       ??4sizedBuffer@@QAEAAV0@$$QAV0@@Z 0044c5f0 f   sizedBuffer.obj
 0002:00030670       ?size@sizedBuffer@@QBEHXZ  0044c670 f   sizedBuffer.obj
 0002:00030690       ?data@sizedBuffer@@QBEPBEXZ 0044c690 f   sizedBuffer.obj
 0002:000306b0       ?ref@sizedBuffer@@QBEHXZ   0044c6b0 f   sizedBuffer.obj
 0002:000306d0       ??4sizedBuffer@@QAEAAV0@ABV0@@Z 0044c6d0 f   sizedBuffer.obj
 0002:00030740       ??8@YA_NABVsizedBuffer@@0@Z 0044c740 f   sizedBuffer.obj
 0002:000307b0       ??AsizedBuffer@@QBEEH@Z    0044c7b0 f   sizedBuffer.obj
 0002:000307e0       ?doCopy@sizedBuffer@@AAEXABV1@@Z 0044c7e0 f   sizedBuffer.obj
 0002:000309c0       ??_GsizedBuffer@@UAEPAXI@Z 0044c9c0 f i sizedBuffer.obj
 0002:000309c0       ??_EsizedBuffer@@UAEPAXI@Z 0044c9c0 f i sizedBuffer.obj
 0002:00030a10       _BNCS32SendMessage         0044ca10 f   bncsWM32db:BncsWM32.obj
 0002:00030b50       _BNCS32ReceiveMessage      0044cb50 f   bncsWM32db:BncsWM32.obj
 0002:00030d96       _BNCS32TxMessage           0044cd96 f   bncsif32db:BNCSIF32db.dll
 0002:00030d9c       _BNCS32RxMessage           0044cd9c f   bncsif32db:BNCSIF32db.dll
 0002:00030db0       _EnableCommNotification    0044cdb0 f   com32cmdb:Comms.obj
 0002:00030f40       _ReadComm                  0044cf40 f   com32cmdb:Comms.obj
 0002:00031020       _WriteComm                 0044d020 f   com32cmdb:Comms.obj
 0002:00031200       _OpenComm32                0044d200 f   com32cmdb:Comms.obj
 0002:00031560       _CloseComm32               0044d560 f   com32cmdb:Comms.obj
 0002:00031780       _GetCommError              0044d780 f   com32cmdb:Comms.obj
 0002:00031880       _FlushComm                 0044d880 f   com32cmdb:Comms.obj
 0002:00031920       _ConfigCommDialog          0044d920 f   com32cmdb:Comms.obj
 0002:00031ad0       _GetCommState32            0044dad0 f   com32cmdb:Comms.obj
 0002:00031b70       _SetCommState32            0044db70 f   com32cmdb:Comms.obj
 0002:00031c10       _bInitBuf                  0044dc10 f   com32cmdb:Comms.obj
 0002:00031d70       _bKillBuf                  0044dd70 f   com32cmdb:Comms.obj
 0002:00031e20       _bKillBufEx                0044de20 f   com32cmdb:Comms.obj
 0002:00031e50       _bAddData                  0044de50 f   com32cmdb:Comms.obj
 0002:00031f60       _bGetData                  0044df60 f   com32cmdb:Comms.obj
 0002:00032060       _commsODS                  0044e060 f   com32cmdb:Comms.obj
 0002:00032070       _iRemainByteEx             0044e070 f   com32cmdb:Comms.obj
 0002:00032150       _iRemainByte               0044e150 f   com32cmdb:Comms.obj
 0002:000321c0       _bAddByte                  0044e1c0 f   com32cmdb:Comms.obj
 0002:00032230       _bGetByte                  0044e230 f   com32cmdb:Comms.obj
 0002:000322c0       _ConfigComm32              0044e2c0 f   com32cmdb:Comms.obj
 0002:000325d0       _ComRxThread@4             0044e5d0 f   com32cmdb:Comms.obj
 0002:000328c0       _ProcessCommError          0044e8c0 f   com32cmdb:Comms.obj
 0002:00032980       _ProcessBytes              0044e980 f   com32cmdb:Comms.obj
 0002:00033294       _setGrdHwnd                0044f294 f   grd32fix:grd32fix.dll
 0002:000332a0       ??0cBncsVersion@@QAE@PBD@Z 0044f2a0 f   BncsVersionInfodb:cBncsVersion.obj
 0002:00033b80       ??1cBncsVersion@@UAE@XZ    0044fb80 f   BncsVersionInfodb:cBncsVersion.obj
 0002:00034060       ??_GcBncsVersion@@UAEPAXI@Z 00450060 f i BncsVersionInfodb:cBncsVersion.obj
 0002:00034060       ??_EcBncsVersion@@UAEPAXI@Z 00450060 f i BncsVersionInfodb:cBncsVersion.obj
 0002:000340d0       ?strpbrk@@YAPADPADPBD@Z    004500d0 f i BncsVersionInfodb:cBncsVersion.obj
 0002:00034122       _GetPrivateProfileIntA@16  00450122 f   kernel32:KERNEL32.dll
 0002:00034128       _GetPrivateProfileStringA@24 00450128 f   kernel32:KERNEL32.dll
 0002:0003412e       _WritePrivateProfileStringA@16 0045012e f   kernel32:KERNEL32.dll
 0002:00034134       _OutputDebugStringA@4      00450134 f   kernel32:KERNEL32.dll
 0002:0003413a       _FreeLibrary@4             0045013a f   kernel32:KERNEL32.dll
 0002:00034140       _GetProcAddress@8          00450140 f   kernel32:KERNEL32.dll
 0002:00034146       _LoadLibraryA@4            00450146 f   kernel32:KERNEL32.dll
 0002:0003414c       _WinExec@8                 0045014c f   kernel32:KERNEL32.dll
 0002:00034152       _lstrcpynA@12              00450152 f   kernel32:KERNEL32.dll
 0002:00034158       _lstrcpyA@8                00450158 f   kernel32:KERNEL32.dll
 0002:0003415e       _GetModuleFileNameA@12     0045015e f   kernel32:KERNEL32.dll
 0002:00034164       _GetTempPathA@8            00450164 f   kernel32:KERNEL32.dll
 0002:0003416a       _GetWindowsDirectoryA@8    0045016a f   kernel32:KERNEL32.dll
 0002:00034170       _GlobalAlloc@8             00450170 f   kernel32:KERNEL32.dll
 0002:00034176       _GlobalFlags@4             00450176 f   kernel32:KERNEL32.dll
 0002:0003417c       _GlobalLock@4              0045017c f   kernel32:KERNEL32.dll
 0002:00034182       _GlobalUnlock@4            00450182 f   kernel32:KERNEL32.dll
 0002:00034188       _GlobalFree@4              00450188 f   kernel32:KERNEL32.dll
 0002:0003418e       _CreateThread@24           0045018e f   kernel32:KERNEL32.dll
 0002:00034194       _GetLastError@0            00450194 f   kernel32:KERNEL32.dll
 0002:0003419a       _SetLastError@4            0045019a f   kernel32:KERNEL32.dll
 0002:000341a0       _GetOverlappedResult@16    004501a0 f   kernel32:KERNEL32.dll
 0002:000341a6       _ResetEvent@4              004501a6 f   kernel32:KERNEL32.dll
 0002:000341ac       _ReleaseSemaphore@12       004501ac f   kernel32:KERNEL32.dll
 0002:000341b2       _WaitForSingleObject@8     004501b2 f   kernel32:KERNEL32.dll
 0002:000341b8       _WriteFile@20              004501b8 f   kernel32:KERNEL32.dll
 0002:000341be       _ReadFile@20               004501be f   kernel32:KERNEL32.dll
 0002:000341c4       _CloseHandle@4             004501c4 f   kernel32:KERNEL32.dll
 0002:000341ca       _ClearCommError@12         004501ca f   kernel32:KERNEL32.dll
 0002:000341d0       _GetCommProperties@8       004501d0 f   kernel32:KERNEL32.dll
 0002:000341d6       _GetCommState@8            004501d6 f   kernel32:KERNEL32.dll
 0002:000341dc       _PurgeComm@8               004501dc f   kernel32:KERNEL32.dll
 0002:000341e2       _SetCommState@8            004501e2 f   kernel32:KERNEL32.dll
 0002:000341e8       _SetCommTimeouts@8         004501e8 f   kernel32:KERNEL32.dll
 0002:000341ee       _GetTickCount@0            004501ee f   kernel32:KERNEL32.dll
 0002:000341f4       _CreateEventA@16           004501f4 f   kernel32:KERNEL32.dll
 0002:000341fa       _CreateSemaphoreA@16       004501fa f   kernel32:KERNEL32.dll
 0002:00034200       _CreateFileA@28            00450200 f   kernel32:KERNEL32.dll
 0002:00034206       _CommConfigDialogA@12      00450206 f   kernel32:KERNEL32.dll
 0002:0003420c       _DialogBoxParamA@20        0045020c f   user32:USER32.dll
 0002:00034212       _EndDialog@8               00450212 f   user32:USER32.dll
 0002:00034218       _SetDlgItemTextA@12        00450218 f   user32:USER32.dll
 0002:0003421e       _SendMessageA@16           0045021e f   user32:USER32.dll
 0002:00034224       _SetTimer@16               00450224 f   user32:USER32.dll
 0002:0003422a       _KillTimer@8               0045022a f   user32:USER32.dll
 0002:00034230       _GetDlgItem@8              00450230 f   user32:USER32.dll
 0002:00034236       _SetWindowTextA@8          00450236 f   user32:USER32.dll
 0002:0003423c       _MessageBoxA@16            0045023c f   user32:USER32.dll
 0002:00034242       _wsprintfA                 00450242 f   user32:USER32.dll
 0002:00034248       _PostMessageA@16           00450248 f   user32:USER32.dll
 0002:0003424e       _ShowWindow@8              0045024e f   user32:USER32.dll
 0002:00034254       _SetWindowPos@28           00450254 f   user32:USER32.dll
 0002:0003425a       _IsWindowVisible@4         0045025a f   user32:USER32.dll
 0002:00034260       _IsIconic@4                00450260 f   user32:USER32.dll
 0002:00034266       _CreateDialogParamA@20     00450266 f   user32:USER32.dll
 0002:0003426c       _EnableWindow@8            0045026c f   user32:USER32.dll
 0002:00034272       _GetSystemMetrics@4        00450272 f   user32:USER32.dll
 0002:00034278       _LoadMenuA@8               00450278 f   user32:USER32.dll
 0002:0003427e       _SetMenu@8                 0045027e f   user32:USER32.dll
 0002:00034284       _DrawMenuBar@4             00450284 f   user32:USER32.dll
 0002:0003428a       _CheckMenuItem@12          0045028a f   user32:USER32.dll
 0002:00034290       _EnableMenuItem@12         00450290 f   user32:USER32.dll
 0002:00034296       _UpdateWindow@4            00450296 f   user32:USER32.dll
 0002:0003429c       _InvalidateRect@12         0045029c f   user32:USER32.dll
 0002:000342a2       _GetWindowRect@8           004502a2 f   user32:USER32.dll
 0002:000342a8       _MessageBeep@4             004502a8 f   user32:USER32.dll
 0002:000342ae       _GetSysColor@4             004502ae f   user32:USER32.dll
 0002:000342b4       _GetSysColorBrush@4        004502b4 f   user32:USER32.dll
 0002:000342ba       _GetWindowLongA@8          004502ba f   user32:USER32.dll
 0002:000342c0       _SetWindowLongA@12         004502c0 f   user32:USER32.dll
 0002:000342c6       _GetMessageA@16            004502c6 f   user32:USER32.dll
 0002:000342cc       _TranslateMessage@4        004502cc f   user32:USER32.dll
 0002:000342d2       _DispatchMessageA@4        004502d2 f   user32:USER32.dll
 0002:000342d8       _SetMessageQueue@4         004502d8 f   user32:USER32.dll
 0002:000342de       _DefWindowProcA@16         004502de f   user32:USER32.dll
 0002:000342e4       _PostQuitMessage@4         004502e4 f   user32:USER32.dll
 0002:000342ea       _RegisterClassA@4          004502ea f   user32:USER32.dll
 0002:000342f0       _CreateWindowExA@48        004502f0 f   user32:USER32.dll
 0002:000342f6       _IsWindow@4                004502f6 f   user32:USER32.dll
 0002:000342fc       _SetFocus@4                004502fc f   user32:USER32.dll
 0002:00034302       _GetMenu@4                 00450302 f   user32:USER32.dll
 0002:00034308       _LoadCursorA@8             00450308 f   user32:USER32.dll
 0002:0003430e       _LoadIconA@8               0045030e f   user32:USER32.dll
 0002:00034314       _CreateSolidBrush@4        00450314 f   gdi32:GDI32.dll
 0002:0003431a       _DeleteObject@4            0045031a f   gdi32:GDI32.dll
 0002:00034320       _SetBkColor@8              00450320 f   gdi32:GDI32.dll
 0002:00034326       _SetTextColor@8            00450326 f   gdi32:GDI32.dll
 0002:0003432c       _GetStockObject@4          0045032c f   gdi32:GDI32.dll
 0002:00034332       _RegCloseKey@4             00450332 f   advapi32:ADVAPI32.dll
 0002:00034338       _RegQueryValueExA@24       00450338 f   advapi32:ADVAPI32.dll
 0002:0003433e       _RegOpenKeyExA@20          0045033e f   advapi32:ADVAPI32.dll
 0002:00034344       _ShellExecuteA@24          00450344 f   shell32:SHELL32.dll
 0002:0003434a       ??0_Lockit@std@@QAE@H@Z    0045034a f   msvcprtd:MSVCP120D.dll
 0002:00034350       ??1_Lockit@std@@QAE@XZ     00450350 f   msvcprtd:MSVCP120D.dll
 0002:00034356       ?_Debug_message@std@@YAXPB_W0I@Z 00450356 f   msvcprtd:MSVCP120D.dll
 0002:0003435c       ??0_Container_base12@std@@QAE@XZ 0045035c f   msvcprtd:MSVCP120D.dll
 0002:00034362       ??1_Container_base12@std@@QAE@XZ 00450362 f   msvcprtd:MSVCP120D.dll
 0002:00034368       ?_Getpfirst@_Container_base12@std@@QBEPAPAU_Iterator_base12@2@XZ 00450368 f   msvcprtd:MSVCP120D.dll
 0002:0003436e       ?_Orphan_all@_Container_base12@std@@QAEXXZ 0045036e f   msvcprtd:MSVCP120D.dll
 0002:00034374       ?_Xbad_alloc@std@@YAXXZ    00450374 f   msvcprtd:MSVCP120D.dll
 0002:0003437a       ?_Xlength_error@std@@YAXPBD@Z 0045037a f   msvcprtd:MSVCP120D.dll
 0002:00034380       ?_Xout_of_range@std@@YAXPBD@Z 00450380 f   msvcprtd:MSVCP120D.dll
 0002:00034386       ??0id@locale@std@@QAE@I@Z  00450386 f   msvcprtd:MSVCP120D.dll
 0002:0003438c       ?_Syserror_map@std@@YAPBDH@Z 0045038c f   msvcprtd:MSVCP120D.dll
 0002:00034392       ?_Winerror_map@std@@YAPBDH@Z 00450392 f   msvcprtd:MSVCP120D.dll
 0002:00034398       __purecall                 00450398 f   MSVCRTD:MSVCR120D.dll
 0002:0003439e       ??2@YAPAXI@Z               0045039e f   MSVCRTD:MSVCR120D.dll
 0002:000343a4       ??3@YAXPAX@Z               004503a4 f   MSVCRTD:MSVCR120D.dll
 0002:000343b0       ___atonexitinit            004503b0 f   MSVCRTD:atonexit.obj
 0002:00034490       __onexit                   00450490 f   MSVCRTD:atonexit.obj
 0002:000345d0       _atexit                    004505d0 f   MSVCRTD:atonexit.obj
 0002:00034606       __invalid_parameter        00450606 f   MSVCRTD:MSVCR120D.dll
 0002:0003460c       _atoi                      0045060c f   MSVCRTD:MSVCR120D.dll
 0002:00034612       _getenv                    00450612 f   MSVCRTD:MSVCR120D.dll
 0002:00034618       _memcmp                    00450618 f   MSVCRTD:MSVCR120D.dll
 0002:0003461e       _memcpy                    0045061e f   MSVCRTD:MSVCR120D.dll
 0002:00034624       _strcmp                    00450624 f   MSVCRTD:MSVCR120D.dll
 0002:0003462a       _strlen                    0045062a f   MSVCRTD:MSVCR120D.dll
 0002:00034630       _memmove                   00450630 f   MSVCRTD:MSVCR120D.dll
 0002:00034636       _strchr                    00450636 f   MSVCRTD:MSVCR120D.dll
 0002:0003463c       __hypot                    0045063c f   MSVCRTD:MSVCR120D.dll
 0002:00034642       _fclose                    00450642 f   MSVCRTD:MSVCR120D.dll
 0002:00034648       _fgets                     00450648 f   MSVCRTD:MSVCR120D.dll
 0002:0003464e       _fopen                     0045064e f   MSVCRTD:MSVCR120D.dll
 0002:00034654       _sprintf                   00450654 f   MSVCRTD:MSVCR120D.dll
 0002:0003465a       __CrtDbgReportW            0045065a f   MSVCRTD:MSVCR120D.dll
 0002:00034660       @_RTC_AllocaHelper@12      00450660 f   MSVCRTD:stack.obj
 0002:000346a0       @_RTC_CheckStackVars2@12   004506a0 f   MSVCRTD:stack.obj
 0002:000347b0       @_RTC_CheckStackVars@8     004507b0 f   MSVCRTD:stack.obj
 0002:00034820       __RTC_CheckEsp             00450820 f   MSVCRTD:stack.obj
 0002:00034850       @__security_check_cookie@4 00450850 f   MSVCRTD:secchk.obj
 0002:00034862       __CxxThrowException@8      00450862 f   MSVCRTD:MSVCR120D.dll
 0002:00034870       __RTC_InitBase             00450870 f   MSVCRTD:init.obj
 0002:000348b0       __RTC_Shutdown             004508b0 f   MSVCRTD:init.obj
 0002:000348c8       ___CxxFrameHandler3        004508c8 f   MSVCRTD:MSVCR120D.dll
 0002:000348d0       ??0type_info@@AAE@ABV0@@Z  004508d0 f   MSVCRTD:ti_inst.obj
 0002:000348f0       ??4type_info@@AAEAAV0@ABV0@@Z 004508f0 f   MSVCRTD:ti_inst.obj
 0002:00034910       ??_Etype_info@@UAEPAXI@Z   00450910 f i MSVCRTD:ti_inst.obj
 0002:000349a0       ___raise_securityfailure   004509a0 f   MSVCRTD:gs_report.obj
 0002:00034a00       ___report_gsfailure        00450a00 f   MSVCRTD:gs_report.obj
 0002:00034b50       ___report_rangecheckfailure 00450b50 f   MSVCRTD:gs_report.obj
 0002:00034b60       ___report_securityfailure  00450b60 f   MSVCRTD:gs_report.obj
 0002:00034c70       ___report_securityfailureEx 00450c70 f   MSVCRTD:gs_report.obj
 0002:00034dde       _strncpy                   00450dde f   MSVCRTD:MSVCR120D.dll
 0002:00034de4       _sscanf                    00450de4 f   MSVCRTD:MSVCR120D.dll
 0002:00034f90       ?_RTC_AllocaFailure@@YAXPAXPAU_RTC_ALLOCA_NODE@@H@Z 00450f90 f   MSVCRTD:error.obj
 0002:00035170       ?_RTC_Failure@@YAXPAXH@Z   00451170 f   MSVCRTD:error.obj
 0002:000351e0       ?_RTC_StackFailure@@YAXPAXPBD@Z 004511e0 f   MSVCRTD:error.obj
 0002:00035640       __RTC_UninitUse            00451640 f   MSVCRTD:error.obj
 0002:0003576a       _strcpy                    0045176a f   MSVCRTD:MSVCR120D.dll
 0002:00035770       _fgetc                     00451770 f   MSVCRTD:MSVCR120D.dll
 0002:00035776       _fputc                     00451776 f   MSVCRTD:MSVCR120D.dll
 0002:0003577c       _strstr                    0045177c f   MSVCRTD:MSVCR120D.dll
 0002:00035782       _strcat                    00451782 f   MSVCRTD:MSVCR120D.dll
 0002:00035788       _memset                    00451788 f   MSVCRTD:MSVCR120D.dll
 0002:0003578e       _strtok                    0045178e f   MSVCRTD:MSVCR120D.dll
 0002:000358c0       _NtCurrentTeb              004518c0 f i MSVCRTD:crtexew.obj
 0002:000358d0       _WinMainCRTStartup         004518d0 f   MSVCRTD:crtexew.obj
 0002:00035d32       _strpbrk                   00451d32 f   MSVCRTD:MSVCR120D.dll
 0002:00035d38       _free                      00451d38 f   MSVCRTD:MSVCR120D.dll
 0002:00035d3e       _malloc                    00451d3e f   MSVCRTD:MSVCR120D.dll
 0002:00035d44       __lock                     00451d44 f   MSVCRTD:MSVCR120D.dll
 0002:00035d4a       __unlock                   00451d4a f   MSVCRTD:MSVCR120D.dll
 0002:00035d50       __calloc_dbg               00451d50 f   MSVCRTD:MSVCR120D.dll
 0002:00035d56       ___dllonexit               00451d56 f   MSVCRTD:MSVCR120D.dll
 0002:00035d60       __except_handler4          00451d60 f   MSVCRTD:chandler4gs.obj
 0002:00035d90       ?_RTC_GetErrorFunc@@YAP6AHHPBDH00ZZPBX@Z 00451d90 f   MSVCRTD:userapi.obj
 0002:00035da0       ?_RTC_GetErrorFuncW@@YAP6AHHPB_WH00ZZPBX@Z 00451da0 f   MSVCRTD:userapi.obj
 0002:00035db0       __RTC_GetErrDesc           00451db0 f   MSVCRTD:userapi.obj
 0002:00035dd0       __RTC_NumErrors            00451dd0 f   MSVCRTD:userapi.obj
 0002:00035de0       __RTC_SetErrorFunc         00451de0 f   MSVCRTD:userapi.obj
 0002:00035e10       __RTC_SetErrorFuncW        00451e10 f   MSVCRTD:userapi.obj
 0002:00035e40       __RTC_SetErrorType         00451e40 f   MSVCRTD:userapi.obj
 0002:00035e6c       __CRT_RTC_INITW            00451e6c f   MSVCRTD:MSVCR120D.dll
 0002:00035e80       ??_M@YGXPAXIHP6EX0@Z@Z     00451e80 f   MSVCRTD:ehvecdtr.obj
 0002:00035fa0       ?__ArrayUnwind@@YGXPAXIHP6EX0@Z@Z 00451fa0 f   MSVCRTD:ehvecdtr.obj
 0002:0003604c       ??1type_info@@UAE@XZ       0045204c f   MSVCRTD:MSVCR120D.dll
 0002:00036052       __crt_debugger_hook        00452052 f   MSVCRTD:MSVCR120D.dll
 0002:00036058       ___crtUnhandledException   00452058 f   MSVCRTD:MSVCR120D.dll
 0002:0003605e       ___crtTerminateProcess     0045205e f   MSVCRTD:MSVCR120D.dll
 0002:000365d0       ?_RTC_GetSrcLine@@YAHPAEPA_WKPAH1K@Z 004525d0 f   MSVCRTD:pdblkup.obj
 0002:00036930       ?__CxxUnhandledExceptionFilter@@YGJPAU_EXCEPTION_POINTERS@@@Z 00452930 f   MSVCRTD:unhandld.obj
 0002:000369b0       ___CxxSetUnhandledExceptionFilter 004529b0 f   MSVCRTD:unhandld.obj
 0002:000369ca       __XcptFilter               004529ca f   MSVCRTD:MSVCR120D.dll
 0002:000369d0       ___crtGetShowWindowMode    004529d0 f   MSVCRTD:MSVCR120D.dll
 0002:000369d6       __amsg_exit                004529d6 f   MSVCRTD:MSVCR120D.dll
 0002:000369e0       __setargv                  004529e0 f   MSVCRTD:dllargv.obj
 0002:000369e8       ___getmainargs             004529e8 f   MSVCRTD:MSVCR120D.dll
 0002:000369ee       ___set_app_type            004529ee f   MSVCRTD:MSVCR120D.dll
 0002:000369f4       __CrtSetCheckCount         004529f4 f   MSVCRTD:MSVCR120D.dll
 0002:00036a00       __FindPESection            00452a00 f   MSVCRTD:pesect.obj
 0002:00036a90       __IsNonwritableInCurrentImage 00452a90 f   MSVCRTD:pesect.obj
 0002:00036c10       __ValidateImageBase        00452c10 f   MSVCRTD:pesect.obj
 0002:00036c84       _exit                      00452c84 f   MSVCRTD:MSVCR120D.dll
 0002:00036c8a       __exit                     00452c8a f   MSVCRTD:MSVCR120D.dll
 0002:00036c90       __cexit                    00452c90 f   MSVCRTD:MSVCR120D.dll
 0002:00036ca0       ___security_init_cookie    00452ca0 f   MSVCRTD:gs_support.obj
 0002:00036dc0       __matherr                  00452dc0 f   MSVCRTD:merr.obj
 0002:00036dc8       __ismbblead                00452dc8 f   MSVCRTD:MSVCR120D.dll
 0002:00036dd0       __RTC_Initialize           00452dd0 f   MSVCRTD:initsect.obj
 0002:00036e00       __RTC_Terminate            00452e00 f   MSVCRTD:initsect.obj
 0002:00036e2e       __configthreadlocale       00452e2e f   MSVCRTD:MSVCR120D.dll
 0002:00036e40       __invoke_watson_if_error   00452e40 f i MSVCRTD:fp8.obj
 0002:00036e70       __setdefaultprecision      00452e70 f   MSVCRTD:fp8.obj
 0002:00036eb2       ___setusermatherr          00452eb2 f   MSVCRTD:MSVCR120D.dll
 0002:00036eb8       __initterm_e               00452eb8 f   MSVCRTD:MSVCR120D.dll
 0002:00036ebe       __initterm                 00452ebe f   MSVCRTD:MSVCR120D.dll
 0002:00036ec4       __except_handler4_common   00452ec4 f   MSVCRTD:MSVCR120D.dll
 0002:00036eca       ?terminate@@YAXXZ          00452eca f   MSVCRTD:MSVCR120D.dll
 0002:00036ed0       _wcscpy_s                  00452ed0 f   MSVCRTD:MSVCR120D.dll
 0002:00036ed6       __wmakepath_s              00452ed6 f   MSVCRTD:MSVCR120D.dll
 0002:00036edc       __wsplitpath_s             00452edc f   MSVCRTD:MSVCR120D.dll
 0002:00036ee2       ___crtSetUnhandledExceptionFilter 00452ee2 f   MSVCRTD:MSVCR120D.dll
 0002:00036ee8       __invoke_watson            00452ee8 f   MSVCRTD:MSVCR120D.dll
 0002:00036eee       __controlfp_s              00452eee f   MSVCRTD:MSVCR120D.dll
 0002:00036ef4       _GetFileVersionInfoSizeA@8 00452ef4 f   version:VERSION.dll
 0002:00036efa       _GetFileVersionInfoA@16    00452efa f   version:VERSION.dll
 0002:00036f00       _VerQueryValueA@16         00452f00 f   version:VERSION.dll
 0002:00036f06       _EncodePointer@4           00452f06 f   kernel32:KERNEL32.dll
 0002:00036f0c       _DecodePointer@4           00452f0c f   kernel32:KERNEL32.dll
 0002:00036f12       _IsDebuggerPresent@0       00452f12 f   kernel32:KERNEL32.dll
 0002:00036f18       _IsProcessorFeaturePresent@4 00452f18 f   kernel32:KERNEL32.dll
 0002:00036f1e       _RaiseException@16         00452f1e f   kernel32:KERNEL32.dll
 0002:00036f24       _LoadLibraryExW@12         00452f24 f   kernel32:KERNEL32.dll
 0002:00036f2a       _MultiByteToWideChar@24    00452f2a f   kernel32:KERNEL32.dll
 0002:00036f30       _WideCharToMultiByte@32    00452f30 f   kernel32:KERNEL32.dll
 0002:00036f36       _HeapAlloc@12              00452f36 f   kernel32:KERNEL32.dll
 0002:00036f3c       _HeapFree@12               00452f3c f   kernel32:KERNEL32.dll
 0002:00036f42       _GetProcessHeap@0          00452f42 f   kernel32:KERNEL32.dll
 0002:00036f48       _VirtualQuery@12           00452f48 f   kernel32:KERNEL32.dll
 0002:00036f4e       _GetModuleFileNameW@12     00452f4e f   kernel32:KERNEL32.dll
 0002:00036f54       _GetModuleHandleW@4        00452f54 f   kernel32:KERNEL32.dll
 0002:00036f5a       _QueryPerformanceCounter@4 00452f5a f   kernel32:KERNEL32.dll
 0002:00036f60       _GetCurrentProcessId@0     00452f60 f   kernel32:KERNEL32.dll
 0002:00036f66       _GetCurrentThreadId@0      00452f66 f   kernel32:KERNEL32.dll
 0002:00036f6c       _GetSystemTimeAsFileTime@4 00452f6c f   kernel32:KERNEL32.dll
 0002:00036f72       __stricmp                  00452f72 f   MSVCRTD:MSVCR120D.dll
 0002:00036f78       __strupr                   00452f78 f   MSVCRTD:MSVCR120D.dll
 0002:00036f7e       __strlwr                   00452f7e f   MSVCRTD:MSVCR120D.dll
 0003:00000000       ___xc_a                    00458000     MSVCRTD:cinitexe.obj
 0003:000005e8       ___xc_z                    004585e8     MSVCRTD:cinitexe.obj
 0003:000006ec       ___xi_a                    004586ec     MSVCRTD:cinitexe.obj
 0003:00000afc       ___xi_z                    00458afc     MSVCRTD:cinitexe.obj
 0003:00000e88       ??_C@_1JA@EADLBAJ@?$AAC?$AA?3?$AA?2?$AAP?$AAr?$AAo?$AAg?$AAr?$AAa?$AAm?$AA?5?$AAF?$AAi?$AAl?$AAe?$AAs?$AA?5?$AA?$CI?$AAx?$AA8?$AA6?$AA?$CJ?$AA?2?$AAM?$AAi?$AAc?$AAr?$AAo?$AAs?$AAo?$AAf?$AAt@ 00458e88     ccConfig.obj
 0003:00000f34       ??_C@_1DC@POOIKBAO@?$AAI?$AAT?$AAE?$AAR?$AAA?$AAT?$AAO?$AAR?$AA?5?$AAL?$AAI?$AAS?$AAT?$AA?5?$AAC?$AAO?$AAR?$AAR?$AAU?$AAP?$AAT?$AAE?$AAD?$AA?$CB?$AA?$AA@ 00458f34     ccConfig.obj
 0003:00000f70       ?npos@?$basic_string@DU?$char_traits@D@std@@V?$allocator@D@2@@std@@2IB 00458f70     ccConfig.obj
 0003:00000f78       ??_7error_category@std@@6B@ 00458f78     ccConfig.obj
 0003:00000f9c       ??_7_Generic_error_category@std@@6B@ 00458f9c     ccConfig.obj
 0003:00000fbc       ??_C@_07DCLBNMLN@generic?$AA@ 00458fbc     ccConfig.obj
 0003:00000fc8       ??_C@_0O@BFJCFAAK@unknown?5error?$AA@ 00458fc8     ccConfig.obj
 0003:00000fdc       ??_7_Iostream_error_category@std@@6B@ 00458fdc     ccConfig.obj
 0003:00000ffc       ??_C@_08LLGCOLLL@iostream?$AA@ 00458ffc     ccConfig.obj
 0003:00001008       ??_C@_0BG@PADBLCHM@iostream?5stream?5error?$AA@ 00459008     ccConfig.obj
 0003:00001028       ??_7_System_error_category@std@@6B@ 00459028     ccConfig.obj
 0003:00001048       ??_C@_06FHFOAHML@system?$AA@ 00459048     ccConfig.obj
 0003:00001054       ??_7ccConfig@@6B@          00459054     ccConfig.obj
 0003:00001060       ??_C@_1IO@FEAPGJBD@?$AAC?$AA?3?$AA?2?$AAP?$AAr?$AAo?$AAg?$AAr?$AAa?$AAm?$AA?5?$AAF?$AAi?$AAl?$AAe?$AAs?$AA?5?$AA?$CI?$AAx?$AA8?$AA6?$AA?$CJ?$AA?2?$AAM?$AAi?$AAc?$AAr?$AAo?$AAs?$AAo?$AAf?$AAt@ 00459060     ccConfig.obj
 0003:00001110       ??_C@_1IK@GEHGEPIJ@?$AAC?$AA?3?$AA?2?$AAP?$AAr?$AAo?$AAg?$AAr?$AAa?$AAm?$AA?5?$AAF?$AAi?$AAl?$AAe?$AAs?$AA?5?$AA?$CI?$AAx?$AA8?$AA6?$AA?$CJ?$AA?2?$AAM?$AAi?$AAc?$AAr?$AAo?$AAs?$AAo?$AAf?$AAt@ 00459110     ccConfig.obj
 0003:000011b8       ??_C@_1DO@CFEEPGGJ@?$AAm?$AAa?$AAp?$AA?1?$AAs?$AAe?$AAt?$AA?5?$AAi?$AAt?$AAe?$AAr?$AAa?$AAt?$AAo?$AAr?$AAs?$AA?5?$AAi?$AAn?$AAc?$AAo?$AAm?$AAp?$AAa?$AAt?$AAi?$AAb?$AAl?$AAe?$AA?$AA@ 004591b8     ccConfig.obj
 0003:00001204       ??_C@_0CI@FNPHFCCM@Standard?5C?$CL?$CL?5Libraries?5Invalid?5A@ 00459204     ccConfig.obj
 0003:00001238       ??_C@_1FO@GJIHNDLM@?$AA?$CC?$AAS?$AAt?$AAa?$AAn?$AAd?$AAa?$AAr?$AAd?$AA?5?$AAC?$AA?$CL?$AA?$CL?$AA?5?$AAL?$AAi?$AAb?$AAr?$AAa?$AAr?$AAi?$AAe?$AAs?$AA?5?$AAI?$AAn?$AAv?$AAa?$AAl?$AAi?$AAd?$AA?5@ 00459238     ccConfig.obj
 0003:000012a8       ??_C@_15GANGMFKL@?$AA?$CF?$AAs?$AA?$AA@ 004592a8     ccConfig.obj
 0003:000012b0       ??_C@_1CFG@FGJHCIBH@?$AAs?$AAt?$AAd?$AA?3?$AA?3?$AA_?$AAT?$AAr?$AAe?$AAe?$AA_?$AAc?$AAo?$AAn?$AAs?$AAt?$AA_?$AAi?$AAt?$AAe?$AAr?$AAa?$AAt?$AAo?$AAr?$AA?$DM?$AAc?$AAl?$AAa?$AAs?$AAs?$AA?5@ 004592b0     ccConfig.obj
 0003:00001580       ??_C@_1CG@JNLFBNGN@?$AA?$CC?$AAi?$AAn?$AAv?$AAa?$AAl?$AAi?$AAd?$AA?5?$AAa?$AAr?$AAg?$AAu?$AAm?$AAe?$AAn?$AAt?$AA?$CC?$AA?$AA@ 00459580     ccConfig.obj
 0003:000015b0       ??_C@_0BA@JFNIOLAK@string?5too?5long?$AA@ 004595b0     ccConfig.obj
 0003:000015c4       ??_C@_0BI@CFPLBAOH@invalid?5string?5position?$AA@ 004595c4     ccConfig.obj
 0003:000015e0       ??_C@_1EI@FHEHNNNM@?$AAm?$AAa?$AAp?$AA?1?$AAs?$AAe?$AAt?$AA?5?$AAi?$AAt?$AAe?$AAr?$AAa?$AAt?$AAo?$AAr?$AA?5?$AAn?$AAo?$AAt?$AA?5?$AAd?$AAe?$AAr?$AAe?$AAf?$AAe?$AAr?$AAe?$AAn?$AAc?$AAa@ 004595e0     ccConfig.obj
 0003:00001638       ??_C@_0CE@OFMIGAMM@Standard?5C?$CL?$CL?5Libraries?5Out?5of?5Ra@ 00459638     ccConfig.obj
 0003:00001668       ??_C@_1FG@IBPIFFN@?$AA?$CC?$AAS?$AAt?$AAa?$AAn?$AAd?$AAa?$AAr?$AAd?$AA?5?$AAC?$AA?$CL?$AA?$CL?$AA?5?$AAL?$AAi?$AAb?$AAr?$AAa?$AAr?$AAi?$AAe?$AAs?$AA?5?$AAO?$AAu?$AAt?$AA?5?$AAo?$AAf?$AA?5?$AAR@ 00459668     ccConfig.obj
 0003:000016d0       ??_C@_1CFE@PPLBLEGL@?$AAs?$AAt?$AAd?$AA?3?$AA?3?$AA_?$AAT?$AAr?$AAe?$AAe?$AA_?$AAc?$AAo?$AAn?$AAs?$AAt?$AA_?$AAi?$AAt?$AAe?$AAr?$AAa?$AAt?$AAo?$AAr?$AA?$DM?$AAc?$AAl?$AAa?$AAs?$AAs?$AA?5@ 004596d0     ccConfig.obj
 0003:0000199c       ??_C@_1BO@MEPPHOO@?$AA?$CC?$AAo?$AAu?$AAt?$AA?5?$AAo?$AAf?$AA?5?$AAr?$AAa?$AAn?$AAg?$AAe?$AA?$CC?$AA?$AA@ 0045999c     ccConfig.obj
 0003:000019c0       ??_C@_1EK@PPDBPCAN@?$AAm?$AAa?$AAp?$AA?1?$AAs?$AAe?$AAt?$AA?5?$AAe?$AAr?$AAa?$AAs?$AAe?$AA?5?$AAi?$AAt?$AAe?$AAr?$AAa?$AAt?$AAo?$AAr?$AA?5?$AAo?$AAu?$AAt?$AAs?$AAi?$AAd?$AAe?$AA?5?$AAr@ 004599c0     ccConfig.obj
 0003:00001a18       ??_C@_1EG@EHJFMBHJ@?$AAm?$AAa?$AAp?$AA?1?$AAs?$AAe?$AAt?$AA?5?$AAi?$AAt?$AAe?$AAr?$AAa?$AAt?$AAo?$AAr?$AA?5?$AAn?$AAo?$AAt?$AA?5?$AAi?$AAn?$AAc?$AAr?$AAe?$AAm?$AAe?$AAn?$AAt?$AAa?$AAb@ 00459a18     ccConfig.obj
 0003:00001a70       ??_C@_1CFG@PGGKMBNC@?$AAs?$AAt?$AAd?$AA?3?$AA?3?$AA_?$AAT?$AAr?$AAe?$AAe?$AA_?$AAc?$AAo?$AAn?$AAs?$AAt?$AA_?$AAi?$AAt?$AAe?$AAr?$AAa?$AAt?$AAo?$AAr?$AA?$DM?$AAc?$AAl?$AAa?$AAs?$AAs?$AA?5@ 00459a70     ccConfig.obj
 0003:00001d40       ??_C@_1DM@KDEKGMPF@?$AAs?$AAt?$AAr?$AAi?$AAn?$AAg?$AA?5?$AAi?$AAt?$AAe?$AAr?$AAa?$AAt?$AAo?$AAr?$AAs?$AA?5?$AAi?$AAn?$AAc?$AAo?$AAm?$AAp?$AAa?$AAt?$AAi?$AAb?$AAl?$AAe?$AA?$AA@ 00459d40     ccConfig.obj
 0003:00001d88       ??_C@_1MA@BDELDFHB@?$AAs?$AAt?$AAd?$AA?3?$AA?3?$AA_?$AAS?$AAt?$AAr?$AAi?$AAn?$AAg?$AA_?$AAc?$AAo?$AAn?$AAs?$AAt?$AA_?$AAi?$AAt?$AAe?$AAr?$AAa?$AAt?$AAo?$AAr?$AA?$DM?$AAc?$AAl?$AAa?$AAs@ 00459d88     ccConfig.obj
 0003:00001e70       ??_C@_1CK@EOPGIILJ@?$AAi?$AAn?$AAv?$AAa?$AAl?$AAi?$AAd?$AA?5?$AAn?$AAu?$AAl?$AAl?$AA?5?$AAp?$AAo?$AAi?$AAn?$AAt?$AAe?$AAr?$AA?$AA@ 00459e70     ccConfig.obj
 0003:00001ea4       ??_C@_1CE@IGJMOCCK@?$AAi?$AAn?$AAv?$AAa?$AAl?$AAi?$AAd?$AA?5?$AAo?$AAp?$AAe?$AAr?$AAa?$AAt?$AAo?$AAr?$AA?$DM?$AA?$AA@ 00459ea4     ccConfig.obj
 0003:00001ed0       ??_C@_1EG@CNCHLAOB@?$AAs?$AAt?$AAr?$AAi?$AAn?$AAg?$AA?5?$AAi?$AAt?$AAe?$AAr?$AAa?$AAt?$AAo?$AAr?$AA?5?$AAn?$AAo?$AAt?$AA?5?$AAd?$AAe?$AAr?$AAe?$AAf?$AAe?$AAr?$AAe?$AAn?$AAc?$AAa?$AAb@ 00459ed0     ccConfig.obj
 0003:00001f28       ??_C@_1MG@GDGHDIKC@?$AAs?$AAt?$AAd?$AA?3?$AA?3?$AA_?$AAS?$AAt?$AAr?$AAi?$AAn?$AAg?$AA_?$AAc?$AAo?$AAn?$AAs?$AAt?$AA_?$AAi?$AAt?$AAe?$AAr?$AAa?$AAt?$AAo?$AAr?$AA?$DM?$AAc?$AAl?$AAa?$AAs@ 00459f28     ccConfig.obj
 0003:00002018       ??_C@_1EG@OKCGOALM@?$AAm?$AAa?$AAp?$AA?1?$AAs?$AAe?$AAt?$AA?5?$AAi?$AAt?$AAe?$AAr?$AAa?$AAt?$AAo?$AAr?$AA?5?$AAn?$AAo?$AAt?$AA?5?$AAd?$AAe?$AAc?$AAr?$AAe?$AAm?$AAe?$AAn?$AAt?$AAa?$AAb@ 0045a018     ccConfig.obj
 0003:00002070       ??_C@_1CFG@FFIHNBD@?$AAs?$AAt?$AAd?$AA?3?$AA?3?$AA_?$AAT?$AAr?$AAe?$AAe?$AA_?$AAc?$AAo?$AAn?$AAs?$AAt?$AA_?$AAi?$AAt?$AAe?$AAr?$AAa?$AAt?$AAo?$AAr?$AA?$DM?$AAc?$AAl?$AAa?$AAs?$AAs?$AA?5@ 0045a070     ccConfig.obj
 0003:00002340       ??_C@_0BE@JONHPENG@map?1set?$DMT?$DO?5too?5long?$AA@ 0045a340     ccConfig.obj
 0003:000048e8       ??_7indexMapping@@6B@      0045c8e8     indexMapping.obj
 0003:000048f0       ??_C@_1BAE@LOGANKFC@?$AAs?$AAt?$AAd?$AA?3?$AA?3?$AA_?$AAT?$AAr?$AAe?$AAe?$AA_?$AAc?$AAo?$AAn?$AAs?$AAt?$AA_?$AAi?$AAt?$AAe?$AAr?$AAa?$AAt?$AAo?$AAr?$AA?$DM?$AAc?$AAl?$AAa?$AAs?$AAs?$AA?5@ 0045c8f0     indexMapping.obj
 0003:00004a28       ??_C@_1BAE@BOJNDDJH@?$AAs?$AAt?$AAd?$AA?3?$AA?3?$AA_?$AAT?$AAr?$AAe?$AAe?$AA_?$AAc?$AAo?$AAn?$AAs?$AAt?$AA_?$AAi?$AAt?$AAe?$AAr?$AAa?$AAt?$AAo?$AAr?$AA?$DM?$AAc?$AAl?$AAa?$AAs?$AAs?$AA?5@ 0045ca28     indexMapping.obj
 0003:00004b60       ??_C@_1BAC@GDFKBMI@?$AAs?$AAt?$AAd?$AA?3?$AA?3?$AA_?$AAT?$AAr?$AAe?$AAe?$AA_?$AAc?$AAo?$AAn?$AAs?$AAt?$AA_?$AAi?$AAt?$AAe?$AAr?$AAa?$AAt?$AAo?$AAr?$AA?$DM?$AAc?$AAl?$AAa?$AAs?$AAs?$AA?5@ 0045cb60     indexMapping.obj
 0003:00004c98       ??_C@_1BAE@ONKPIPFG@?$AAs?$AAt?$AAd?$AA?3?$AA?3?$AA_?$AAT?$AAr?$AAe?$AAe?$AA_?$AAc?$AAo?$AAn?$AAs?$AAt?$AA_?$AAi?$AAt?$AAe?$AAr?$AAa?$AAt?$AAo?$AAr?$AA?$DM?$AAc?$AAl?$AAa?$AAs?$AAs?$AA?5@ 0045cc98     indexMapping.obj
 0003:00004fe0       ??_7sizedBuffer@@6B@       0045cfe0     sizedBuffer.obj
 0003:00004fe8       ??_C@_05CLMJGDKL@?$CF08lx?$AA@ 0045cfe8     bncsWM32db:BncsWM32.obj
 0003:0000504c       ??_C@_00A@?$AA@            0045d04c     htmlhelp:init.obj
 0003:00005054       ??_7cBncsVersion@@6B@      0045d054     BncsVersionInfodb:cBncsVersion.obj
 0003:0000505c       ??_C@_0BJ@KPNNKBCP@?2VarFileInfo?2Translation?$AA@ 0045d05c     BncsVersionInfodb:cBncsVersion.obj
 0003:0000507c       ??_C@_08EAKGLGNO@?$CF04X?$CF04X?$AA@ 0045d07c     BncsVersionInfodb:cBncsVersion.obj
 0003:00005088       ??_C@_0BP@OKGDDKKJ@?2StringFileInfo?2?$CFs?2FileVersion?$AA@ 0045d088     BncsVersionInfodb:cBncsVersion.obj
 0003:000050b0       ??_C@_01IHBHIGKO@?0?$AA@   0045d0b0     BncsVersionInfodb:cBncsVersion.obj
 0003:000050b4       ??_C@_0CD@DNOFBAPJ@?2StringFileInfo?2?$CFs?2FileDescripti@ 0045d0b4     BncsVersionInfodb:cBncsVersion.obj
 0003:000050e0       ??_C@_0BM@HLKDAPDC@?2StringFileInfo?2?$CFs?2Comments?$AA@ 0045d0e0     BncsVersionInfodb:cBncsVersion.obj
 0003:00005104       ??_C@_0CA@EHAODNDK@?2StringFileInfo?2?$CFs?2InternalName?$AA@ 0045d104     BncsVersionInfodb:cBncsVersion.obj
 0003:0000512c       ??_C@_0BP@MGNIHEJF@?2StringFileInfo?2?$CFs?2ProductName?$AA@ 0045d12c     BncsVersionInfodb:cBncsVersion.obj
 0003:00005154       ??_C@_0BP@IFNEMNK@?2StringFileInfo?2?$CFs?2CompanyName?$AA@ 0045d154     BncsVersionInfodb:cBncsVersion.obj
 0003:0000517c       ??_C@_0CC@BENIJKPI@?2StringFileInfo?2?$CFs?2LegalCopyrigh@ 0045d17c     BncsVersionInfodb:cBncsVersion.obj
 0003:000051a4       ??_C@_0CC@IAGJDCJF@?2StringFileInfo?2?$CFs?2ProductVersio@ 0045d1a4     BncsVersionInfodb:cBncsVersion.obj
 0003:000051cc       ??_C@_0CD@CHCCGCCP@?2StringFileInfo?2?$CFs?2LegalTradeMar@ 0045d1cc     BncsVersionInfodb:cBncsVersion.obj
 0003:000051f8       ??_C@_0CA@GODGGLFO@?2StringFileInfo?2?$CFs?2PrivateBuild?$AA@ 0045d1f8     BncsVersionInfodb:cBncsVersion.obj
 0003:00005220       ??_C@_0CE@NLHFPOLE@?2StringFileInfo?2?$CFs?2OriginalFileN@ 0045d220     BncsVersionInfodb:cBncsVersion.obj
 0003:0000524c       ??_C@_0CA@OOEBJJOA@?2StringFileInfo?2?$CFs?2SpecialBuild?$AA@ 0045d24c     BncsVersionInfodb:cBncsVersion.obj
 0003:00005278       ??_C@_1MC@KPMPFEII@?$AA?$CI?$AA_?$AA_?$AAo?$AAn?$AAe?$AAx?$AAi?$AAt?$AAb?$AAe?$AAg?$AAi?$AAn?$AA?5?$AA?$CB?$AA?$DN?$AA?5?$AAN?$AAU?$AAL?$AAL?$AA?5?$AA?$CG?$AA?$CG?$AA?5?$AA_?$AA_?$AAo?$AAn?$AAe?$AAx@ 0045d278     MSVCRTD:atonexit.obj
 0003:00005360       ??_C@_1FK@IGIDCAPD@?$AAf?$AA?3?$AA?2?$AAd?$AAd?$AA?2?$AAv?$AAc?$AAt?$AAo?$AAo?$AAl?$AAs?$AA?2?$AAc?$AAr?$AAt?$AA?2?$AAc?$AAr?$AAt?$AAw?$AA3?$AA2?$AA?2?$AAd?$AAl?$AAl?$AAs?$AAt?$AAu?$AAf@ 0045d360     MSVCRTD:atonexit.obj
 0003:000053cc       ??_C@_0CN@LMJJPMEG@f?3?2dd?2vctools?2crt?2crtw32?2dllstuf@ 0045d3cc     MSVCRTD:atonexit.obj
 0003:00005402       ?value@?$integral_constant@_N$0A@@std@@2_NB 0045d402     MSVCRTD:ti_inst.obj
 0003:00005403       ?value@?$integral_constant@_N$00@std@@2_NB 0045d403     MSVCRTD:ti_inst.obj
 0003:00005408       ??_7type_info@@6B@         0045d408     MSVCRTD:ti_inst.obj
 0003:000054d8       ??_C@_0NN@NGPKDKPD@The?5value?5of?5ESP?5was?5not?5properl@ 0045d4d8     MSVCRTD:error.obj
 0003:000055e8       ??_C@_0BBN@GPMLNJCF@A?5cast?5to?5a?5smaller?5data?5type?5ha@ 0045d5e8     MSVCRTD:error.obj
 0003:00005740       ??_C@_0BN@FFOINMNJ@Stack?5memory?5was?5corrupted?6?$AN?$AA@ 0045d740     MSVCRTD:error.obj
 0003:00005764       ??_C@_0DG@HKJMLLLP@A?5local?5variable?5was?5used?5before@ 0045d764     MSVCRTD:error.obj
 0003:000057a4       ??_C@_0CM@NGINOKPC@Stack?5memory?5around?5_alloca?5was?5@ 0045d7a4     MSVCRTD:error.obj
 0003:000057d8       ??_C@_0BO@GNIAFIKK@Unknown?5Runtime?5Check?5Error?6?$AN?$AA@ 0045d7d8     MSVCRTD:error.obj
 0003:00005800       ??_C@_1GM@OLMCBDMB@?$AAR?$AAu?$AAn?$AAt?$AAi?$AAm?$AAe?$AA?5?$AAC?$AAh?$AAe?$AAc?$AAk?$AA?5?$AAE?$AAr?$AAr?$AAo?$AAr?$AA?4?$AA?6?$AA?$AN?$AA?5?$AAU?$AAn?$AAa?$AAb?$AAl?$AAe?$AA?5?$AAt?$AAo@ 0045d800     MSVCRTD:error.obj
 0003:00005888       ??_C@_1EA@NFKNIFJP@?$AAR?$AAu?$AAn?$AA?9?$AAT?$AAi?$AAm?$AAe?$AA?5?$AAC?$AAh?$AAe?$AAc?$AAk?$AA?5?$AAF?$AAa?$AAi?$AAl?$AAu?$AAr?$AAe?$AA?5?$AA?$CD?$AA?$CF?$AAd?$AA?5?$AA?9?$AA?5?$AA?$CF?$AAs?$AA?$AA@ 0045d888     MSVCRTD:error.obj
 0003:000058d4       ??_C@_0BB@PFFGGCJP@Unknown?5Filename?$AA@ 0045d8d4     MSVCRTD:error.obj
 0003:000058e8       ??_C@_0BE@GNBOBNCK@Unknown?5Module?5Name?$AA@ 0045d8e8     MSVCRTD:error.obj
 0003:00005900       ??_C@_0CA@IODNCDPG@Run?9Time?5Check?5Failure?5?$CD?$CFd?5?9?5?$CFs?$AA@ 0045d900     MSVCRTD:error.obj
 0003:00005928       ??_C@_0CG@IAFNJNEE@Stack?5corrupted?5near?5unknown?5var@ 0045d928     MSVCRTD:error.obj
 0003:00005958       ??_C@_05MKKEDADM@?$CF?42X?5?$AA@ 0045d958     MSVCRTD:error.obj
 0003:00005960       ??_C@_1BG@OILDLIOJ@?$AAu?$AAs?$AAe?$AAr?$AA3?$AA2?$AA?4?$AAd?$AAl?$AAl?$AA?$AA@ 0045d960     MSVCRTD:error.obj
 0003:0000597c       ??_C@_09FOPFMPEJ@wsprintfA?$AA@ 0045d97c     MSVCRTD:error.obj
 0003:00005988       ??_C@_0EJ@LJKNEOLN@Stack?5area?5around?5_alloca?5memory@ 0045d988     MSVCRTD:error.obj
 0003:000059e0       ??_C@_08OMAHNMHJ@?6Data?3?5?$DM?$AA@ 0045d9e0     MSVCRTD:error.obj
 0003:000059ec       ??_C@_0CK@DKGBICFE@?6Allocation?5number?5within?5this?5f@ 0045d9ec     MSVCRTD:error.obj
 0003:00005a20       ??_C@_07DFDJCKFN@?6Size?3?5?$AA@ 0045da20     MSVCRTD:error.obj
 0003:00005a2c       ??_C@_0N@MHFFIMFG@?6Address?3?50x?$AA@ 0045da2c     MSVCRTD:error.obj
 0003:00005a40       ??_C@_0EI@CLEPFNGI@Stack?5area?5around?5_alloca?5memory@ 0045da40     MSVCRTD:error.obj
 0003:00005a98       ??_C@_0BC@KIBAILCI@?$CFs?$CFs?$CFp?$CFs?$CFld?$CFs?$CFd?$CFs?$AA@ 0045da98     MSVCRTD:error.obj
 0003:00005ab0       ??_C@_01EEMJAFIK@?6?$AA@   0045dab0     MSVCRTD:error.obj
 0003:00005ab4       ??_C@_02LLMPMKNF@?$DO?5?$AA@ 0045dab4     MSVCRTD:error.obj
 0003:00005ab8       ??_C@_08KJEDNCKC@?$CFs?$CFs?$CFs?$CFs?$AA@ 0045dab8     MSVCRTD:error.obj
 0003:00005ac4       ??_C@_0DE@OHJBPMBP@A?5variable?5is?5being?5used?5without@ 0045dac4     MSVCRTD:error.obj
 0003:00005b08       ??_C@_1FA@DALEHHGL@?$AA_?$AA_?$AAn?$AAa?$AAt?$AAi?$AAv?$AAe?$AA_?$AAs?$AAt?$AAa?$AAr?$AAt?$AAu?$AAp?$AA_?$AAs?$AAt?$AAa?$AAt?$AAe?$AA?5?$AA?$DN?$AA?$DN?$AA?5?$AA_?$AA_?$AAi?$AAn?$AAi?$AAt@ 0045db08     MSVCRTD:crtexew.obj
 0003:00005b68       ??_C@_1FG@DKNDLLJO@?$AAf?$AA?3?$AA?2?$AAd?$AAd?$AA?2?$AAv?$AAc?$AAt?$AAo?$AAo?$AAl?$AAs?$AA?2?$AAc?$AAr?$AAt?$AA?2?$AAc?$AAr?$AAt?$AAw?$AA3?$AA2?$AA?2?$AAd?$AAl?$AAl?$AAs?$AAt?$AAu?$AAf@ 0045db68     MSVCRTD:crtexew.obj
 0003:00005be8       ??_C@_0BJ@HEGAHDFO@Stack?5pointer?5corruption?$AA@ 0045dbe8     MSVCRTD:userapi.obj
 0003:00005c08       ??_C@_0CK@FEGOIOPB@Cast?5to?5smaller?5type?5causing?5los@ 0045dc08     MSVCRTD:userapi.obj
 0003:00005c3c       ??_C@_0BI@CIGMDCBH@Stack?5memory?5corruption?$AA@ 0045dc3c     MSVCRTD:userapi.obj
 0003:00005c58       ??_C@_0CK@CNLNOEPB@Local?5variable?5used?5before?5initi@ 0045dc58     MSVCRTD:userapi.obj
 0003:00005c8c       ??_C@_0BP@OGBCLIBO@Stack?5around?5_alloca?5corrupted?$AA@ 0045dc8c     MSVCRTD:userapi.obj
 0003:00005d00       ?LocalIdBitWidth@CrossScopeId@CodeViewInfo@@2IB 0045dd00     MSVCRTD:pdblkup.obj
 0003:00005d04       ?IdScopeBitWidth@CrossScopeId@CodeViewInfo@@2IB 0045dd04     MSVCRTD:pdblkup.obj
 0003:00005d08       ?StartCrossScopeId@CrossScopeId@CodeViewInfo@@2IB 0045dd08     MSVCRTD:pdblkup.obj
 0003:00005d0c       ?LocalIdMask@CrossScopeId@CodeViewInfo@@2IB 0045dd0c     MSVCRTD:pdblkup.obj
 0003:00005d10       ?ScopeIdMask@CrossScopeId@CodeViewInfo@@2IB 0045dd10     MSVCRTD:pdblkup.obj
 0003:00005d14       ?MaxLocalId@CrossScopeId@CodeViewInfo@@2IB 0045dd14     MSVCRTD:pdblkup.obj
 0003:00005d18       ?MaxScopeId@CrossScopeId@CodeViewInfo@@2IB 0045dd18     MSVCRTD:pdblkup.obj
 0003:00005d1c       ??_C@_1BK@GAEMIDIL@?$AAA?$AAD?$AAV?$AAA?$AAP?$AAI?$AA3?$AA2?$AA?4?$AAD?$AAL?$AAL?$AA?$AA@ 0045dd1c     MSVCRTD:pdblkup.obj
 0003:00005d3c       ??_C@_0O@COHOBMLB@RegOpenKeyExW?$AA@ 0045dd3c     MSVCRTD:pdblkup.obj
 0003:00005d4c       ??_C@_0BB@GLNAEDBD@RegQueryValueExW?$AA@ 0045dd4c     MSVCRTD:pdblkup.obj
 0003:00005d60       ??_C@_0M@HLOHPNFA@RegCloseKey?$AA@ 0045dd60     MSVCRTD:pdblkup.obj
 0003:00005d70       ??_C@_1FM@EGIBBNPP@?$AAS?$AAO?$AAF?$AAT?$AAW?$AAA?$AAR?$AAE?$AA?2?$AAM?$AAi?$AAc?$AAr?$AAo?$AAs?$AAo?$AAf?$AAt?$AA?2?$AAV?$AAi?$AAs?$AAu?$AAa?$AAl?$AAS?$AAt?$AAu?$AAd?$AAi?$AAo?$AA?2@ 0045dd70     MSVCRTD:pdblkup.obj
 0003:00005de0       ??_C@_1BG@EABPBLLF@?$AAP?$AAr?$AAo?$AAd?$AAu?$AAc?$AAt?$AAD?$AAi?$AAr?$AA?$AA@ 0045dde0     MSVCRTD:pdblkup.obj
 0003:00005e20       ??_C@_1BC@EOIMGOME@?$AAM?$AAS?$AAP?$AAD?$AAB?$AA1?$AA2?$AA0?$AA?$AA@ 0045de20     MSVCRTD:pdblkup.obj
 0003:00005e38       ??_C@_0BB@KCIACLNC@PDBOpenValidate5?$AA@ 0045de38     MSVCRTD:pdblkup.obj
 0003:00005e4c       ??_C@_01KDCPPGHE@r?$AA@    0045de4c     MSVCRTD:pdblkup.obj
 0003:00005e50       ?ProcessDetach@NativeDll@<CrtImplementationDetails>@@0IB 0045de50     MSVCRTD:unhandld.obj
 0003:00005e54       ?ProcessAttach@NativeDll@<CrtImplementationDetails>@@0IB 0045de54     MSVCRTD:unhandld.obj
 0003:00005e58       ?ThreadAttach@NativeDll@<CrtImplementationDetails>@@0IB 0045de58     MSVCRTD:unhandld.obj
 0003:00005e5c       ?ThreadDetach@NativeDll@<CrtImplementationDetails>@@0IB 0045de5c     MSVCRTD:unhandld.obj
 0003:00005e60       ?ProcessVerifier@NativeDll@<CrtImplementationDetails>@@0IB 0045de60     MSVCRTD:unhandld.obj
 0003:00005e68       ??_C@_1FI@JJOJLGLE@?$AAf?$AA?3?$AA?2?$AAd?$AAd?$AA?2?$AAv?$AAc?$AAt?$AAo?$AAo?$AAl?$AAs?$AA?2?$AAc?$AAr?$AAt?$AA?2?$AAc?$AAr?$AAt?$AAw?$AA3?$AA2?$AA?2?$AAs?$AAt?$AAa?$AAr?$AAt?$AAu?$AAp@ 0045de68     MSVCRTD:fp8.obj
 0003:00005ed4       ??_C@_1CK@JMKHCBEI@?$AA_?$AAs?$AAe?$AAt?$AAd?$AAe?$AAf?$AAa?$AAu?$AAl?$AAt?$AAp?$AAr?$AAe?$AAc?$AAi?$AAs?$AAi?$AAo?$AAn?$AA?$AA@ 0045ded4     MSVCRTD:fp8.obj
 0003:00005f08       ??_C@_1GE@KOCFNGPB@?$AA_?$AAc?$AAo?$AAn?$AAt?$AAr?$AAo?$AAl?$AAf?$AAp?$AA_?$AAs?$AA?$CI?$AA?$CI?$AA?$CI?$AAv?$AAo?$AAi?$AAd?$AA?5?$AA?$CK?$AA?$CJ?$AA0?$AA?$CJ?$AA?0?$AA?5?$AA0?$AAx?$AA0?$AA0?$AA0?$AA1@ 0045df08     MSVCRTD:fp8.obj
 0003:00005f80       __load_config_used         0045df80     MSVCRTD:loadcfg.obj
 0003:000062cc       ??_R4error_category@std@@6B@ 0045e2cc     ccConfig.obj
 0003:000062e4       ??_R3error_category@std@@8 0045e2e4     ccConfig.obj
 0003:000062f8       ??_R2error_category@std@@8 0045e2f8     ccConfig.obj
 0003:00006300       ??_R1A@?0A@EA@error_category@std@@8 0045e300     ccConfig.obj
 0003:00006324       ??_R4_Generic_error_category@std@@6B@ 0045e324     ccConfig.obj
 0003:0000633c       ??_R3_Generic_error_category@std@@8 0045e33c     ccConfig.obj
 0003:00006350       ??_R2_Generic_error_category@std@@8 0045e350     ccConfig.obj
 0003:0000635c       ??_R1A@?0A@EA@_Generic_error_category@std@@8 0045e35c     ccConfig.obj
 0003:00006380       ??_R4_Iostream_error_category@std@@6B@ 0045e380     ccConfig.obj
 0003:00006398       ??_R3_Iostream_error_category@std@@8 0045e398     ccConfig.obj
 0003:000063ac       ??_R2_Iostream_error_category@std@@8 0045e3ac     ccConfig.obj
 0003:000063bc       ??_R1A@?0A@EA@_Iostream_error_category@std@@8 0045e3bc     ccConfig.obj
 0003:000063e0       ??_R4_System_error_category@std@@6B@ 0045e3e0     ccConfig.obj
 0003:000063f8       ??_R3_System_error_category@std@@8 0045e3f8     ccConfig.obj
 0003:0000640c       ??_R2_System_error_category@std@@8 0045e40c     ccConfig.obj
 0003:0000641c       ??_R1A@?0A@EA@_System_error_category@std@@8 0045e41c     ccConfig.obj
 0003:00006440       ??_R4ccConfig@@6B@         0045e440     ccConfig.obj
 0003:00006458       ??_R3ccConfig@@8           0045e458     ccConfig.obj
 0003:0000646c       ??_R2ccConfig@@8           0045e46c     ccConfig.obj
 0003:00006474       ??_R1A@?0A@EA@ccConfig@@8  0045e474     ccConfig.obj
 0003:00006498       ??_R4indexMapping@@6B@     0045e498     indexMapping.obj
 0003:000064b0       ??_R3indexMapping@@8       0045e4b0     indexMapping.obj
 0003:000064c4       ??_R2indexMapping@@8       0045e4c4     indexMapping.obj
 0003:000064cc       ??_R1A@?0A@EA@indexMapping@@8 0045e4cc     indexMapping.obj
 0003:000064f0       ??_R4sizedBuffer@@6B@      0045e4f0     sizedBuffer.obj
 0003:00006508       ??_R3sizedBuffer@@8        0045e508     sizedBuffer.obj
 0003:0000651c       ??_R2sizedBuffer@@8        0045e51c     sizedBuffer.obj
 0003:00006524       ??_R1A@?0A@EA@sizedBuffer@@8 0045e524     sizedBuffer.obj
 0003:00006548       ??_R4cBncsVersion@@6B@     0045e548     BncsVersionInfodb:cBncsVersion.obj
 0003:00006560       ??_R3cBncsVersion@@8       0045e560     BncsVersionInfodb:cBncsVersion.obj
 0003:00006574       ??_R2cBncsVersion@@8       0045e574     BncsVersionInfodb:cBncsVersion.obj
 0003:0000657c       ??_R1A@?0A@EA@cBncsVersion@@8 0045e57c     BncsVersionInfodb:cBncsVersion.obj
 0003:000065a0       ??_R4type_info@@6B@        0045e5a0     MSVCRTD:ti_inst.obj
 0003:000065b8       ??_R3type_info@@8          0045e5b8     MSVCRTD:ti_inst.obj
 0003:000065cc       ??_R2type_info@@8          0045e5cc     MSVCRTD:ti_inst.obj
 0003:000065d4       ??_R1A@?0A@EA@type_info@@8 0045e5d4     MSVCRTD:ti_inst.obj
 0003:00006708       ___rtc_iaa                 0045e708     MSVCRTD:initsect.obj
 0003:000069cc       ___rtc_izz                 0045e9cc     MSVCRTD:initsect.obj
 0003:00006ad0       ___rtc_taa                 0045ead0     MSVCRTD:initsect.obj
 0003:00006d94       ___rtc_tzz                 0045ed94     MSVCRTD:initsect.obj
 0004:0000035c       ___security_cookie         0046135c     MSVCRTD:gs_cookie.obj
 0004:00000360       ___security_cookie_complement 00461360     MSVCRTD:gs_cookie.obj
 0004:00000370       ?_RTC_ErrorLevels@@3PAHA   00461370     MSVCRTD:error.obj
 0004:00000388       ___defaultmatherr          00461388     MSVCRTD:merr.obj
 0004:0000038c       ___globallocalestatus      0046138c     MSVCRTD:xthdloc.obj
 0004:00000390       ___native_dllmain_reason   00461390     MSVCRTD:natstart.obj
 0004:000004a4       ??_R0?AVerror_category@std@@@8 004614a4     ccConfig.obj
 0004:000004cc       ??_R0?AV_Generic_error_category@std@@@8 004614cc     ccConfig.obj
 0004:00000500       ??_R0?AV_Iostream_error_category@std@@@8 00461500     ccConfig.obj
 0004:00000534       ??_R0?AV_System_error_category@std@@@8 00461534     ccConfig.obj
 0004:00000568       ??_R0?AVccConfig@@@8       00461568     ccConfig.obj
 0004:00000584       ??_R0?AVindexMapping@@@8   00461584     indexMapping.obj
 0004:000005a4       ??_R0?AVsizedBuffer@@@8    004615a4     sizedBuffer.obj
 0004:000005c4       ??_R0?AVcBncsVersion@@@8   004615c4     BncsVersionInfodb:cBncsVersion.obj
 0004:000005e4       ??_R0?AVtype_info@@@8      004615e4     MSVCRTD:ti_inst.obj
 0004:00000724       ?_Generic_object@?$_Error_objects@H@std@@2V_Generic_error_category@2@A 00461724     ccConfig.obj
 0004:00000728       ?_Iostream_object@?$_Error_objects@H@std@@2V_Iostream_error_category@2@A 00461728     ccConfig.obj
 0004:0000072c       ?_System_object@?$_Error_objects@H@std@@2V_System_error_category@2@A 0046172c     ccConfig.obj
 0004:00000730       ?id@?$num_put@DV?$back_insert_iterator@V?$basic_string@DU?$char_traits@D@std@@V?$allocator@D@2@@std@@@std@@@std@@2V0locale@2@A 00461730     ccConfig.obj
 0004:00000734       ?id@?$num_put@_WV?$back_insert_iterator@V?$basic_string@_WU?$char_traits@_W@std@@V?$allocator@_W@2@@std@@@std@@@std@@2V0locale@2@A 00461734     ccConfig.obj
 0004:00000748       ?iCmdLen@@3HA              00461748     GRBTSES.obj
 0004:0000074c       ?bDecMsg@@3HA              0046174c     GRBTSES.obj
 0004:00000750       ?bInit1@@3HA               00461750     GRBTSES.obj
 0004:00000754       ?bInit2@@3HA               00461754     GRBTSES.obj
 0004:00000758       ?bInitTimer@@3HA           00461758     GRBTSES.obj
 0004:00000774       ?g_iInitialHeight@@3HA     00461774     GRDIALOG.obj
 0004:000007c0       ?acVar@@3PAY0PP@DA         004617c0     GRMAIN.obj
 0004:000011b6       ?bLastMsgType@@3EA         004621b6     GRMAIN.obj
 0004:000011b7       ?bExtCtlType@@3EA          004621b7     GRMAIN.obj
 0004:000011b8       ?aiVar@@3PAHA              004621b8     GRMAIN.obj
 0004:000011e0       ?avVar@@3PADA              004621e0     GRMAIN.obj
 0004:000011ea       ?bExtDrvType@@3EA          004621ea     GRMAIN.obj
 0004:000011eb       ?bAdrienneAddrHigh@@3EA    004621eb     GRMAIN.obj
 0004:000011ec       ?hWndMain@@3PAUHWND__@@A   004621ec     GRMAIN.obj
 0004:000011f0       ?hWndDlg@@3PAUHWND__@@A    004621f0     GRMAIN.obj
 0004:000011f4       ?hWndDlg_ext@@3PAUHWND__@@A 004621f4     GRMAIN.obj
 0004:000011f8       ?hWndExternal@@3PAUHWND__@@A 004621f8     GRMAIN.obj
 0004:000011fc       ?hWndControl@@3PAUHWND__@@A 004621fc     GRMAIN.obj
 0004:00001200       ?hInst@@3PAUHINSTANCE__@@A 00462200     GRMAIN.obj
 0004:00001204       ?hMenuMain@@3PAUHMENU__@@A 00462204     GRMAIN.obj
 0004:00001208       ?hMenu@@3PAUHMENU__@@A     00462208     GRMAIN.obj
 0004:0000120c       ?lpMainDlgProc@@3P6GHXZA   0046220c     GRMAIN.obj
 0004:00001210       ?lpDialog@@3P6GHXZA        00462210     GRMAIN.obj
 0004:00001214       ?iSimulation@@3HA          00462214     GRMAIN.obj
 0004:00001218       ?bClosedown@@3HA           00462218     GRMAIN.obj
 0004:0000121c       ?iWorkstationId@@3HA       0046221c     GRMAIN.obj
 0004:00001220       ?bDebugMode@@3HA           00462220     GRMAIN.obj
 0004:00001224       ?iSources@@3HA             00462224     GRMAIN.obj
 0004:00001228       ?acDebug@@3PADA            00462228     GRMAIN.obj
 0004:00001628       ?iDests@@3HA               00462628     GRMAIN.obj
 0004:0000162c       ?iParkSource@@3HA          0046262c     GRMAIN.obj
 0004:00001630       ?iMaxNames@@3HA            00462630     GRMAIN.obj
 0004:00001634       ?iTallyCount@@3HA          00462634     GRMAIN.obj
 0004:00001638       ?iDestCount@@3HA           00462638     GRMAIN.obj
 0004:0000163c       ?iAdrienneAddr@@3HA        0046263c     GRMAIN.obj
 0004:00001640       ?bAdrienneAddrLow@@3EA     00462640     GRMAIN.obj
 0004:00001644       ?iRevertiveMode@@3HA       00462644     GRMAIN.obj
 0004:00001648       ?iTallyDelay@@3HA          00462648     GRMAIN.obj
 0004:0000164c       ?bListBoxMode@@3HA         0046264c     GRMAIN.obj
 0004:00001650       ?iCurrentSrce@@3HA         00462650     GRMAIN.obj
 0004:00001654       ?iUndoSrce@@3HA            00462654     GRMAIN.obj
 0004:00001658       ?iSelectedSrce@@3HA        00462658     GRMAIN.obj
 0004:0000165c       ?iSelectedDest@@3HA        0046265c     GRMAIN.obj
 0004:00001660       ?iTallyTable@@3PAHA        00462660     GRMAIN.obj
 0004:00005664       ?lNetTx@@3JA               00466664     GRMAIN.obj
 0004:00005668       ?iRRDTable@@3PAHA          00466668     GRMAIN.obj
 0004:0000966c       ?lNetRx@@3JA               0046a66c     GRMAIN.obj
 0004:00009670       ?iRevTable@@3PAHA          0046a670     GRMAIN.obj
 0004:0000d674       ?iRtrDrvNum@@3HA           0046e674     GRMAIN.obj
 0004:0000d678       ?bLockDest@@3PAHA          0046e678     GRMAIN.obj
 0004:0001167c       ?iBbcRcpLevels@@3HA        0047267c     GRMAIN.obj
 0004:00011680       ?acRtrName@@3PADA          00472680     GRMAIN.obj
 0004:000116d4       ?iLeitchLevel@@3HA         004726d4     GRMAIN.obj
 0004:000116d8       ?acQuartzLvls@@3PADA       004726d8     GRMAIN.obj
 0004:000116e0       ?bSourceToDest@@3HA        004726e0     GRMAIN.obj
 0004:000116e4       ?bDestToSource@@3HA        004726e4     GRMAIN.obj
 0004:000116e8       ?iRxEnable@@3HA            004726e8     GRMAIN.obj
 0004:000116ec       ?iInitTallyCount@@3HA      004726ec     GRMAIN.obj
 0004:000116f0       ?bNetUpdateOnStart@@3HA    004726f0     GRMAIN.obj
 0004:000116f4       ?bDialogExtend@@3HA        004726f4     GRMAIN.obj
 0004:000116f8       ?bSourceHold@@3HA          004726f8     GRMAIN.obj
 0004:000116fc       ?bSourceHoldBtn@@3HA       004726fc     GRMAIN.obj
 0004:00011700       ?bPark@@3HA                00472700     GRMAIN.obj
 0004:00011704       ?iSrceHold@@3HA            00472704     GRMAIN.obj
 0004:00011708       ?bUndoAvailable@@3HA       00472708     GRMAIN.obj
 0004:0001170c       ?bDialogSmallScreen@@3HA   0047270c     GRMAIN.obj
 0004:00011710       ?iDlgW@@3HA                00472710     GRMAIN.obj
 0004:00011714       ?iDlgH@@3HA                00472714     GRMAIN.obj
 0004:00011718       ?iFirstVirtual@@3HA        00472718     GRMAIN.obj
 0004:0001171c       ?bDialogShowVirtuals@@3HA  0047271c     GRMAIN.obj
 0004:00011720       ?bDialogTempShowVirtuals@@3HA 00472720     GRMAIN.obj
 0004:00011724       ?iGoRxOnlyOnComFail@@3HA   00472724     GRMAIN.obj
 0004:00011728       ?iGoRxOnlyOnExternalFail@@3HA 00472728     GRMAIN.obj
 0004:0001172c       ?iLastDatabaseChange@@3HA  0047272c     GRMAIN.obj
 0004:00011730       ?iLastDatabaseChangeIndex@@3HA 00472730     GRMAIN.obj
 0004:00011734       ?iPesaDelay@@3HA           00472734     GRMAIN.obj
 0004:00011738       ?iInhibitNetworkOnStart@@3HA 00472738     GRMAIN.obj
 0004:0001173c       ?iCommErrorLimit@@3HA      0047273c     GRMAIN.obj
 0004:00011740       ?acFileVersion@@3PADA      00472740     GRMAIN.obj
 0004:00011750       ?acLegalCopyright@@3PADA   00472750     GRMAIN.obj
 0004:00011790       ?GRD@@3UGRDPort@@A         00472790     GRMAIN.obj
 0004:00012290       ?acPath@@3PADA             00473290     GRMAIN.obj
 0004:00012394       ?iInitTallyDelay@@3HA      00473394     GRMAIN.obj
 0004:00012398       ?uUpdateDelay@@3IA         00473398     GRMAIN.obj
 0004:0001239c       ?iRevDelay@@3HA            0047339c     GRMAIN.obj
 0004:000123a0       ?uSaveDelay@@3IA           004733a0     GRMAIN.obj
 0004:000123a4       ?uSaveCount@@3IA           004733a4     GRMAIN.obj
 0004:000123a8       ?iReAssert@@3HA            004733a8     GRMAIN.obj
 0004:000123ac       ?iKbEnabled@@3HA           004733ac     GRMAIN.obj
 0004:000123b0       ?bAccess@@3PAHA            004733b0     GRMAIN.obj
 0004:000523b0       ?bDestLockedFlag@@3HA      004b33b0     GRMAIN.obj
 0004:000523b4       ?bEnableKeys@@3HA          004b33b4     GRMAIN.obj
 0004:000523b8       ?bEnableBtn@@3HA           004b33b8     GRMAIN.obj
 0004:000523bc       ?iDriverMode@@3HA          004b33bc     GRMAIN.obj
 0004:000523c0       ?iControlMode@@3HA         004b33c0     GRMAIN.obj
 0004:000523c4       ?iDefaultDriverMode@@3HA   004b33c4     GRMAIN.obj
 0004:000523c8       ?iDefaultControlMode@@3HA  004b33c8     GRMAIN.obj
 0004:000523cc       ?iFwdBuffDelay@@3HA        004b33cc     GRMAIN.obj
 0004:000523d0       ?iFwdBuffWPtr@@3HA         004b33d0     GRMAIN.obj
 0004:000523d4       ?iFwdBuffRPtr@@3HA         004b33d4     GRMAIN.obj
 0004:000523d8       ?acFwdBuff@@3PAY0EA@DA     004b33d8     GRMAIN.obj
 0004:00052c18       ?hWndCSI@@3PAUHWND__@@A    004b3c18     GRMAIN.obj
 0004:00052c1c       ?iInterfaceMode@@3HA       004b3c1c     GRMAIN.obj
 0004:00052c20       ?iNetworkRtrType@@3HA      004b3c20     GRMAIN.obj
 0004:00052c24       ?iNetworkRtrLvl@@3HA       004b3c24     GRMAIN.obj
 0004:00052c28       ?iNetworkRtrInit@@3HA      004b3c28     GRMAIN.obj
 0004:00052c2c       ?iSonyAddr@@3HA            004b3c2c     GRMAIN.obj
 0004:00052c30       ?iSonyDelay@@3HA           004b3c30     GRMAIN.obj
 0004:00052c34       ?pIndexMapping@@3PAVindexMapping@@A 004b3c34     GRMAIN.obj
 0004:00052c38       ?iUseIndexMapping@@3HA     004b3c38     GRMAIN.obj
 0004:00052c3c       ?iSelectedMappedDest@@3HA  004b3c3c     GRMAIN.obj
 0004:00063508       ?iInMessage@@3HA           004c4508     GRSONY.obj
 0004:00063524       ?iEnvType@@3HA             004c4524     PROFILE.obj
 0004:00064fe8       _hGPortInfo                004c5fe8     com32cmdb:Comms.obj
 0004:000650b0       ?pHtmlHelpW@@3P6GPAUHWND__@@PAU1@PBGIK@ZA 004c60b0     htmlhelp:init.obj
 0004:000650b4       ?pHtmlHelpA@@3P6GPAUHWND__@@PAU1@PBDIK@ZA 004c60b4     htmlhelp:init.obj
 0004:00065480       ?wsprintffp@@3P6AHPADPBDZZA 004c6480     MSVCRTD:error.obj
 0004:000654c0       __commode                  004c64c0     MSVCRTD:xncommod.obj
 0004:000654c4       __dowildcard               004c64c4     MSVCRTD:wildcard.obj
 0004:000654c8       __newmode                  004c64c8     MSVCRTD:_newmode.obj
 0004:000654cc       __fmode                    004c64cc     MSVCRTD:xtxtmode.obj
 0004:000654e0       _iBTR                      004c64e0     <common>
 0004:00065ac0       _szODS                     004c6ac0     <common>
 0004:00065bc0       _bReading                  004c6bc0     <common>
 0004:00065fc0       ___native_startup_lock     004c6fc0     <common>
 0004:00065fd0       ___native_startup_state    004c6fd0     <common>
 0004:00065fd4       ___dyn_tls_init_callback   004c6fd4     <common>
 0004:00065fe4       ___onexitend               004c6fe4     <common>
 0004:00065ff4       ___onexitbegin             004c6ff4     <common>
 0005:00000000       __imp__RegCloseKey@4       004c7000     advapi32:ADVAPI32.dll
 0005:00000004       __imp__RegQueryValueExA@24 004c7004     advapi32:ADVAPI32.dll
 0005:00000008       __imp__RegOpenKeyExA@20    004c7008     advapi32:ADVAPI32.dll
 0005:0000000c       \177ADVAPI32_NULL_THUNK_DATA 004c700c     advapi32:ADVAPI32.dll
 0005:00000038       __imp__BNCS32RxMessage     004c7038     bncsif32db:BNCSIF32db.dll
 0005:0000003c       __imp__BNCS32TxMessage     004c703c     bncsif32db:BNCSIF32db.dll
 0005:00000040       \177BNCSIF32db_NULL_THUNK_DATA 004c7040     bncsif32db:BNCSIF32db.dll
 0005:0000006c       __imp__SetTextColor@8      004c706c     gdi32:GDI32.dll
 0005:00000070       __imp__SetBkColor@8        004c7070     gdi32:GDI32.dll
 0005:00000074       __imp__DeleteObject@4      004c7074     gdi32:GDI32.dll
 0005:00000078       __imp__GetStockObject@4    004c7078     gdi32:GDI32.dll
 0005:0000007c       __imp__CreateSolidBrush@4  004c707c     gdi32:GDI32.dll
 0005:00000080       \177GDI32_NULL_THUNK_DATA  004c7080     gdi32:GDI32.dll
 0005:000000b0       __imp__lstrcpynA@12        004c70b0     kernel32:KERNEL32.dll
 0005:000000b4       __imp__lstrcpyA@8          004c70b4     kernel32:KERNEL32.dll
 0005:000000b8       __imp__GetModuleFileNameA@12 004c70b8     kernel32:KERNEL32.dll
 0005:000000bc       __imp__GetTempPathA@8      004c70bc     kernel32:KERNEL32.dll
 0005:000000c0       __imp__GetWindowsDirectoryA@8 004c70c0     kernel32:KERNEL32.dll
 0005:000000c4       __imp__GlobalAlloc@8       004c70c4     kernel32:KERNEL32.dll
 0005:000000c8       __imp__GlobalFlags@4       004c70c8     kernel32:KERNEL32.dll
 0005:000000cc       __imp__GlobalLock@4        004c70cc     kernel32:KERNEL32.dll
 0005:000000d0       __imp__GlobalUnlock@4      004c70d0     kernel32:KERNEL32.dll
 0005:000000d4       __imp__GlobalFree@4        004c70d4     kernel32:KERNEL32.dll
 0005:000000d8       __imp__CreateThread@24     004c70d8     kernel32:KERNEL32.dll
 0005:000000dc       __imp__GetLastError@0      004c70dc     kernel32:KERNEL32.dll
 0005:000000e0       __imp__SetLastError@4      004c70e0     kernel32:KERNEL32.dll
 0005:000000e4       __imp__GetOverlappedResult@16 004c70e4     kernel32:KERNEL32.dll
 0005:000000e8       __imp__ResetEvent@4        004c70e8     kernel32:KERNEL32.dll
 0005:000000ec       __imp__ReleaseSemaphore@12 004c70ec     kernel32:KERNEL32.dll
 0005:000000f0       __imp__WaitForSingleObject@8 004c70f0     kernel32:KERNEL32.dll
 0005:000000f4       __imp__WriteFile@20        004c70f4     kernel32:KERNEL32.dll
 0005:000000f8       __imp__ReadFile@20         004c70f8     kernel32:KERNEL32.dll
 0005:000000fc       __imp__CloseHandle@4       004c70fc     kernel32:KERNEL32.dll
 0005:00000100       __imp__ClearCommError@12   004c7100     kernel32:KERNEL32.dll
 0005:00000104       __imp__GetCommProperties@8 004c7104     kernel32:KERNEL32.dll
 0005:00000108       __imp__GetCommState@8      004c7108     kernel32:KERNEL32.dll
 0005:0000010c       __imp__PurgeComm@8         004c710c     kernel32:KERNEL32.dll
 0005:00000110       __imp__SetCommState@8      004c7110     kernel32:KERNEL32.dll
 0005:00000114       __imp__SetCommTimeouts@8   004c7114     kernel32:KERNEL32.dll
 0005:00000118       __imp__GetTickCount@0      004c7118     kernel32:KERNEL32.dll
 0005:0000011c       __imp__CreateEventA@16     004c711c     kernel32:KERNEL32.dll
 0005:00000120       __imp__CreateSemaphoreA@16 004c7120     kernel32:KERNEL32.dll
 0005:00000124       __imp__WinExec@8           004c7124     kernel32:KERNEL32.dll
 0005:00000128       __imp__CommConfigDialogA@12 004c7128     kernel32:KERNEL32.dll
 0005:0000012c       __imp__GetCurrentProcessId@0 004c712c     kernel32:KERNEL32.dll
 0005:00000130       __imp__QueryPerformanceCounter@4 004c7130     kernel32:KERNEL32.dll
 0005:00000134       __imp__GetModuleHandleW@4  004c7134     kernel32:KERNEL32.dll
 0005:00000138       __imp__GetModuleFileNameW@12 004c7138     kernel32:KERNEL32.dll
 0005:0000013c       __imp__VirtualQuery@12     004c713c     kernel32:KERNEL32.dll
 0005:00000140       __imp__GetProcessHeap@0    004c7140     kernel32:KERNEL32.dll
 0005:00000144       __imp__HeapFree@12         004c7144     kernel32:KERNEL32.dll
 0005:00000148       __imp__HeapAlloc@12        004c7148     kernel32:KERNEL32.dll
 0005:0000014c       __imp__WideCharToMultiByte@32 004c714c     kernel32:KERNEL32.dll
 0005:00000150       __imp__MultiByteToWideChar@24 004c7150     kernel32:KERNEL32.dll
 0005:00000154       __imp__LoadLibraryExW@12   004c7154     kernel32:KERNEL32.dll
 0005:00000158       __imp__RaiseException@16   004c7158     kernel32:KERNEL32.dll
 0005:0000015c       __imp__IsProcessorFeaturePresent@4 004c715c     kernel32:KERNEL32.dll
 0005:00000160       __imp__IsDebuggerPresent@0 004c7160     kernel32:KERNEL32.dll
 0005:00000164       __imp__DecodePointer@4     004c7164     kernel32:KERNEL32.dll
 0005:00000168       __imp__EncodePointer@4     004c7168     kernel32:KERNEL32.dll
 0005:0000016c       __imp__GetSystemTimeAsFileTime@4 004c716c     kernel32:KERNEL32.dll
 0005:00000170       __imp__GetCurrentThreadId@0 004c7170     kernel32:KERNEL32.dll
 0005:00000174       __imp__GetPrivateProfileIntA@16 004c7174     kernel32:KERNEL32.dll
 0005:00000178       __imp__GetPrivateProfileStringA@24 004c7178     kernel32:KERNEL32.dll
 0005:0000017c       __imp__WritePrivateProfileStringA@16 004c717c     kernel32:KERNEL32.dll
 0005:00000180       __imp__OutputDebugStringA@4 004c7180     kernel32:KERNEL32.dll
 0005:00000184       __imp__FreeLibrary@4       004c7184     kernel32:KERNEL32.dll
 0005:00000188       __imp__GetProcAddress@8    004c7188     kernel32:KERNEL32.dll
 0005:0000018c       __imp__LoadLibraryA@4      004c718c     kernel32:KERNEL32.dll
 0005:00000190       __imp__CreateFileA@28      004c7190     kernel32:KERNEL32.dll
 0005:00000194       \177KERNEL32_NULL_THUNK_DATA 004c7194     kernel32:KERNEL32.dll
 0005:000001ec       __imp_??0_Container_base12@std@@QAE@XZ 004c71ec     msvcprtd:MSVCP120D.dll
 0005:000001f0       __imp_?_Debug_message@std@@YAXPB_W0I@Z 004c71f0     msvcprtd:MSVCP120D.dll
 0005:000001f4       __imp_??1_Lockit@std@@QAE@XZ 004c71f4     msvcprtd:MSVCP120D.dll
 0005:000001f8       __imp_??0_Lockit@std@@QAE@H@Z 004c71f8     msvcprtd:MSVCP120D.dll
 0005:000001fc       __imp_?_Getpfirst@_Container_base12@std@@QBEPAPAU_Iterator_base12@2@XZ 004c71fc     msvcprtd:MSVCP120D.dll
 0005:00000200       __imp_?_Orphan_all@_Container_base12@std@@QAEXXZ 004c7200     msvcprtd:MSVCP120D.dll
 0005:00000204       __imp_?_Xbad_alloc@std@@YAXXZ 004c7204     msvcprtd:MSVCP120D.dll
 0005:00000208       __imp_?_Xlength_error@std@@YAXPBD@Z 004c7208     msvcprtd:MSVCP120D.dll
 0005:0000020c       __imp_?_Xout_of_range@std@@YAXPBD@Z 004c720c     msvcprtd:MSVCP120D.dll
 0005:00000210       __imp_??0id@locale@std@@QAE@I@Z 004c7210     msvcprtd:MSVCP120D.dll
 0005:00000214       __imp_?_Syserror_map@std@@YAPBDH@Z 004c7214     msvcprtd:MSVCP120D.dll
 0005:00000218       __imp_?_Winerror_map@std@@YAPBDH@Z 004c7218     msvcprtd:MSVCP120D.dll
 0005:0000021c       __imp_??1_Container_base12@std@@QAE@XZ 004c721c     msvcprtd:MSVCP120D.dll
 0005:00000220       \177MSVCP120D_NULL_THUNK_DATA 004c7220     msvcprtd:MSVCP120D.dll
 0005:00000254       __imp__malloc              004c7254     MSVCRTD:MSVCR120D.dll
 0005:00000258       __imp___strupr             004c7258     MSVCRTD:MSVCR120D.dll
 0005:00000258       __imp__strupr              004c7258     MSVCRTD:MSVCR120D.dll
 0005:0000025c       __imp___stricmp            004c725c     MSVCRTD:MSVCR120D.dll
 0005:0000025c       __imp__stricmp             004c725c     MSVCRTD:MSVCR120D.dll
 0005:00000260       __imp___controlfp_s        004c7260     MSVCRTD:MSVCR120D.dll
 0005:00000264       __imp___invoke_watson      004c7264     MSVCRTD:MSVCR120D.dll
 0005:00000268       __imp____crtSetUnhandledExceptionFilter 004c7268     MSVCRTD:MSVCR120D.dll
 0005:0000026c       __imp___wsplitpath_s       004c726c     MSVCRTD:MSVCR120D.dll
 0005:00000270       __imp___wmakepath_s        004c7270     MSVCRTD:MSVCR120D.dll
 0005:00000274       __imp__wcscpy_s            004c7274     MSVCRTD:MSVCR120D.dll
 0005:00000278       __imp_?terminate@@YAXXZ    004c7278     MSVCRTD:MSVCR120D.dll
 0005:0000027c       __imp___except_handler4_common 004c727c     MSVCRTD:MSVCR120D.dll
 0005:00000280       __imp___commode            004c7280     MSVCRTD:MSVCR120D.dll
 0005:00000284       __imp___fmode              004c7284     MSVCRTD:MSVCR120D.dll
 0005:00000288       __imp___acmdln             004c7288     MSVCRTD:MSVCR120D.dll
 0005:0000028c       __imp___initterm           004c728c     MSVCRTD:MSVCR120D.dll
 0005:00000290       __imp___initterm_e         004c7290     MSVCRTD:MSVCR120D.dll
 0005:00000294       __imp____setusermatherr    004c7294     MSVCRTD:MSVCR120D.dll
 0005:00000298       __imp___configthreadlocale 004c7298     MSVCRTD:MSVCR120D.dll
 0005:0000029c       __imp___ismbblead          004c729c     MSVCRTD:MSVCR120D.dll
 0005:000002a0       __imp___cexit              004c72a0     MSVCRTD:MSVCR120D.dll
 0005:000002a4       __imp___exit               004c72a4     MSVCRTD:MSVCR120D.dll
 0005:000002a8       __imp__exit                004c72a8     MSVCRTD:MSVCR120D.dll
 0005:000002ac       __imp___CrtSetCheckCount   004c72ac     MSVCRTD:MSVCR120D.dll
 0005:000002b0       __imp____set_app_type      004c72b0     MSVCRTD:MSVCR120D.dll
 0005:000002b4       __imp____getmainargs       004c72b4     MSVCRTD:MSVCR120D.dll
 0005:000002b8       __imp___amsg_exit          004c72b8     MSVCRTD:MSVCR120D.dll
 0005:000002bc       __imp____crtGetShowWindowMode 004c72bc     MSVCRTD:MSVCR120D.dll
 0005:000002c0       __imp___XcptFilter         004c72c0     MSVCRTD:MSVCR120D.dll
 0005:000002c4       __imp____crtTerminateProcess 004c72c4     MSVCRTD:MSVCR120D.dll
 0005:000002c8       __imp____crtUnhandledException 004c72c8     MSVCRTD:MSVCR120D.dll
 0005:000002cc       __imp___purecall           004c72cc     MSVCRTD:MSVCR120D.dll
 0005:000002d0       __imp_??2@YAPAXI@Z         004c72d0     MSVCRTD:MSVCR120D.dll
 0005:000002d4       __imp_??3@YAXPAX@Z         004c72d4     MSVCRTD:MSVCR120D.dll
 0005:000002d8       __imp___invalid_parameter  004c72d8     MSVCRTD:MSVCR120D.dll
 0005:000002dc       __imp__atoi                004c72dc     MSVCRTD:MSVCR120D.dll
 0005:000002e0       __imp__getenv              004c72e0     MSVCRTD:MSVCR120D.dll
 0005:000002e4       __imp__memcmp              004c72e4     MSVCRTD:MSVCR120D.dll
 0005:000002e8       __imp__memcpy              004c72e8     MSVCRTD:MSVCR120D.dll
 0005:000002ec       __imp__strcmp              004c72ec     MSVCRTD:MSVCR120D.dll
 0005:000002f0       __imp__strlen              004c72f0     MSVCRTD:MSVCR120D.dll
 0005:000002f4       __imp__memmove             004c72f4     MSVCRTD:MSVCR120D.dll
 0005:000002f8       __imp__strchr              004c72f8     MSVCRTD:MSVCR120D.dll
 0005:000002fc       __imp___hypot              004c72fc     MSVCRTD:MSVCR120D.dll
 0005:00000300       __imp__fclose              004c7300     MSVCRTD:MSVCR120D.dll
 0005:00000304       __imp__fgets               004c7304     MSVCRTD:MSVCR120D.dll
 0005:00000308       __imp__fopen               004c7308     MSVCRTD:MSVCR120D.dll
 0005:0000030c       __imp__sprintf             004c730c     MSVCRTD:MSVCR120D.dll
 0005:00000310       __imp___CrtDbgReportW      004c7310     MSVCRTD:MSVCR120D.dll
 0005:00000314       __imp___CxxThrowException@8 004c7314     MSVCRTD:MSVCR120D.dll
 0005:00000318       __imp____CxxFrameHandler3  004c7318     MSVCRTD:MSVCR120D.dll
 0005:0000031c       __imp__strncpy             004c731c     MSVCRTD:MSVCR120D.dll
 0005:00000320       __imp__sscanf              004c7320     MSVCRTD:MSVCR120D.dll
 0005:00000324       __imp__strcpy              004c7324     MSVCRTD:MSVCR120D.dll
 0005:00000328       __imp__fgetc               004c7328     MSVCRTD:MSVCR120D.dll
 0005:0000032c       __imp__fputc               004c732c     MSVCRTD:MSVCR120D.dll
 0005:00000330       __imp__strstr              004c7330     MSVCRTD:MSVCR120D.dll
 0005:00000334       __imp__strcat              004c7334     MSVCRTD:MSVCR120D.dll
 0005:00000338       __imp__memset              004c7338     MSVCRTD:MSVCR120D.dll
 0005:0000033c       __imp__strtok              004c733c     MSVCRTD:MSVCR120D.dll
 0005:00000340       __imp__strpbrk             004c7340     MSVCRTD:MSVCR120D.dll
 0005:00000344       __imp__free                004c7344     MSVCRTD:MSVCR120D.dll
 0005:00000348       __imp___strlwr             004c7348     MSVCRTD:MSVCR120D.dll
 0005:00000348       __imp__strlwr              004c7348     MSVCRTD:MSVCR120D.dll
 0005:0000034c       __imp___lock               004c734c     MSVCRTD:MSVCR120D.dll
 0005:00000350       __imp___unlock             004c7350     MSVCRTD:MSVCR120D.dll
 0005:00000354       __imp___calloc_dbg         004c7354     MSVCRTD:MSVCR120D.dll
 0005:00000358       __imp____dllonexit         004c7358     MSVCRTD:MSVCR120D.dll
 0005:0000035c       __imp___onexit             004c735c     MSVCRTD:MSVCR120D.dll
 0005:00000360       __imp___CRT_RTC_INITW      004c7360     MSVCRTD:MSVCR120D.dll
 0005:00000364       __imp_??1type_info@@UAE@XZ 004c7364     MSVCRTD:MSVCR120D.dll
 0005:00000368       __imp___crt_debugger_hook  004c7368     MSVCRTD:MSVCR120D.dll
 0005:0000036c       \177MSVCR120D_NULL_THUNK_DATA 004c736c     MSVCRTD:MSVCR120D.dll
 0005:000003d0       __imp__ShellExecuteA@24    004c73d0     shell32:SHELL32.dll
 0005:000003d4       \177SHELL32_NULL_THUNK_DATA 004c73d4     shell32:SHELL32.dll
 0005:00000400       __imp__LoadMenuA@8         004c7400     user32:USER32.dll
 0005:00000404       __imp__SetMenu@8           004c7404     user32:USER32.dll
 0005:00000408       __imp__DrawMenuBar@4       004c7408     user32:USER32.dll
 0005:0000040c       __imp__CheckMenuItem@12    004c740c     user32:USER32.dll
 0005:00000410       __imp__EnableMenuItem@12   004c7410     user32:USER32.dll
 0005:00000414       __imp__GetSystemMetrics@4  004c7414     user32:USER32.dll
 0005:00000418       __imp__InvalidateRect@12   004c7418     user32:USER32.dll
 0005:0000041c       __imp__GetWindowRect@8     004c741c     user32:USER32.dll
 0005:00000420       __imp__MessageBeep@4       004c7420     user32:USER32.dll
 0005:00000424       __imp__GetSysColor@4       004c7424     user32:USER32.dll
 0005:00000428       __imp__GetSysColorBrush@4  004c7428     user32:USER32.dll
 0005:0000042c       __imp__GetWindowLongA@8    004c742c     user32:USER32.dll
 0005:00000430       __imp__UpdateWindow@4      004c7430     user32:USER32.dll
 0005:00000434       __imp__EnableWindow@8      004c7434     user32:USER32.dll
 0005:00000438       __imp__SetWindowLongA@12   004c7438     user32:USER32.dll
 0005:0000043c       __imp__GetMessageA@16      004c743c     user32:USER32.dll
 0005:00000440       __imp__TranslateMessage@4  004c7440     user32:USER32.dll
 0005:00000444       __imp__DispatchMessageA@4  004c7444     user32:USER32.dll
 0005:00000448       __imp__SetMessageQueue@4   004c7448     user32:USER32.dll
 0005:0000044c       __imp__DefWindowProcA@16   004c744c     user32:USER32.dll
 0005:00000450       __imp__PostQuitMessage@4   004c7450     user32:USER32.dll
 0005:00000454       __imp__RegisterClassA@4    004c7454     user32:USER32.dll
 0005:00000458       __imp__CreateWindowExA@48  004c7458     user32:USER32.dll
 0005:0000045c       __imp__IsWindow@4          004c745c     user32:USER32.dll
 0005:00000460       __imp__LoadIconA@8         004c7460     user32:USER32.dll
 0005:00000464       __imp__GetMenu@4           004c7464     user32:USER32.dll
 0005:00000468       __imp__LoadCursorA@8       004c7468     user32:USER32.dll
 0005:0000046c       __imp__DialogBoxParamA@20  004c746c     user32:USER32.dll
 0005:00000470       __imp__EndDialog@8         004c7470     user32:USER32.dll
 0005:00000474       __imp__CreateDialogParamA@20 004c7474     user32:USER32.dll
 0005:00000478       __imp__IsIconic@4          004c7478     user32:USER32.dll
 0005:0000047c       __imp__IsWindowVisible@4   004c747c     user32:USER32.dll
 0005:00000480       __imp__SetWindowPos@28     004c7480     user32:USER32.dll
 0005:00000484       __imp__ShowWindow@8        004c7484     user32:USER32.dll
 0005:00000488       __imp__PostMessageA@16     004c7488     user32:USER32.dll
 0005:0000048c       __imp__wsprintfA           004c748c     user32:USER32.dll
 0005:00000490       __imp__MessageBoxA@16      004c7490     user32:USER32.dll
 0005:00000494       __imp__SetWindowTextA@8    004c7494     user32:USER32.dll
 0005:00000498       __imp__GetDlgItem@8        004c7498     user32:USER32.dll
 0005:0000049c       __imp__KillTimer@8         004c749c     user32:USER32.dll
 0005:000004a0       __imp__SetTimer@16         004c74a0     user32:USER32.dll
 0005:000004a4       __imp__SendMessageA@16     004c74a4     user32:USER32.dll
 0005:000004a8       __imp__SetDlgItemTextA@12  004c74a8     user32:USER32.dll
 0005:000004ac       __imp__SetFocus@4          004c74ac     user32:USER32.dll
 0005:000004b0       \177USER32_NULL_THUNK_DATA 004c74b0     user32:USER32.dll
 0005:000004fc       __imp__VerQueryValueA@16   004c74fc     version:VERSION.dll
 0005:00000500       __imp__GetFileVersionInfoSizeA@8 004c7500     version:VERSION.dll
 0005:00000504       __imp__GetFileVersionInfoA@16 004c7504     version:VERSION.dll
 0005:00000508       \177VERSION_NULL_THUNK_DATA 004c7508     version:VERSION.dll
 0005:00000534       __imp__setGrdHwnd          004c7534     grd32fix:grd32fix.dll
 0005:00000538       \177grd32fix_NULL_THUNK_DATA 004c7538     grd32fix:grd32fix.dll
 0005:00000564       __IMPORT_DESCRIPTOR_BNCSIF32db 004c7564     bncsif32db:BNCSIF32db.dll
 0005:00000578       __IMPORT_DESCRIPTOR_grd32fix 004c7578     grd32fix:grd32fix.dll
 0005:0000058c       __IMPORT_DESCRIPTOR_KERNEL32 004c758c     kernel32:KERNEL32.dll
 0005:000005a0       __IMPORT_DESCRIPTOR_USER32 004c75a0     user32:USER32.dll
 0005:000005b4       __IMPORT_DESCRIPTOR_GDI32  004c75b4     gdi32:GDI32.dll
 0005:000005c8       __IMPORT_DESCRIPTOR_ADVAPI32 004c75c8     advapi32:ADVAPI32.dll
 0005:000005dc       __IMPORT_DESCRIPTOR_SHELL32 004c75dc     shell32:SHELL32.dll
 0005:000005f0       __IMPORT_DESCRIPTOR_MSVCP120D 004c75f0     msvcprtd:MSVCP120D.dll
 0005:00000604       __IMPORT_DESCRIPTOR_MSVCR120D 004c7604     MSVCRTD:MSVCR120D.dll
 0005:00000618       __IMPORT_DESCRIPTOR_VERSION 004c7618     version:VERSION.dll
 0005:0000062c       __NULL_IMPORT_DESCRIPTOR   004c762c     bncsif32db:BNCSIF32db.dll

 Exports

  ordinal    name

