 InfoDriver32db

 Timestamp is 5e9db891 (Mon Apr 20 15:58:25 2020)

 Preferred load address is 00400000

 Start         Length     Name                   Class
 0001:00000000 00024675H .textbss                DATA
 0002:00000000 00003fb1H .text                   CODE
 0002:00003fc0 0000337dH .text$di                CODE
 0002:00007340 000442bfH .text$mn                CODE
 0002:0004b600 00004833H .text$x                 CODE
 0002:0004fe40 000019ddH .text$yd                CODE
 0003:00000000 00000104H .CRT$XCA                DATA
 0003:00000104 00000104H .CRT$XCAA               DATA
 0003:00000208 000002f8H .CRT$XCU                DATA
 0003:00000500 00000104H .CRT$XCZ                DATA
 0003:00000604 00000104H .CRT$XIA                DATA
 0003:00000708 00000104H .CRT$XIAA               DATA
 0003:0000080c 00000104H .CRT$XIC                DATA
 0003:00000910 00000104H .CRT$XIY                DATA
 0003:00000a14 00000104H .CRT$XIZ                DATA
 0003:00000b20 00006e64H .rdata                  DATA
 0003:00007984 00000173H .rdata$debug            DATA
 0003:00007af8 000009b2H .rdata$r                DATA
 0003:000084ac 00000104H .rtc$IAA                DATA
 0003:000085b0 00000190H .rtc$IMZ                DATA
 0003:00008740 00000104H .rtc$IZZ                DATA
 0003:00008844 00000104H .rtc$TAA                DATA
 0003:00008948 00000190H .rtc$TMZ                DATA
 0003:00008ad8 00000104H .rtc$TZZ                DATA
 0003:00008be0 000039d3H .xdata$x                DATA
 0003:0000c5b3 00000000H .edata                  DATA
 0004:00000000 00000331H .data                   DATA
 0004:00000334 0000048dH .data$r                 DATA
 0004:000007c8 00055630H .bss                    DATA
 0005:00000000 000005e8H .idata$5                DATA
 0005:000005e8 000000dcH .idata$2                DATA
 0005:000006c4 00000014H .idata$3                DATA
 0005:000006d8 000005e8H .idata$4                DATA
 0005:00000cc0 000010e3H .idata$6                DATA
 0006:00000000 0000058eH .rsrc$01                DATA
 0006:00000590 0000a043H .rsrc$02                DATA

  Address         Publics by Value              Rva+Base       Lib:Object

 0000:00000000       ___guard_fids_table        00000000     <absolute>
 0000:00000000       ___safe_se_handler_table   00000000     <absolute>
 0000:00000000       ___safe_se_handler_count   00000000     <absolute>
 0000:00000000       ___guard_fids_count        00000000     <absolute>
 0000:00000000       ___guard_flags             00000000     <absolute>
 0000:00000000       __except_list              00000000     <absolute>
 0000:00009876       __fltused                  00009876     <absolute>
 0000:00009876       __ldused                   00009876     <absolute>
 0000:00000000       ___ImageBase               00400000     <linker-defined>
 0001:00000000       __enc$textbss$begin        00401000     <linker-defined>
 0001:00024675       __enc$textbss$end          00425675     <linker-defined>
 0002:00003dbd       _HtmlHelpA@16              00429dbd f   htmlhelp:init.obj
 0002:00003ef2       _HtmlHelpW@16              00429ef2 f   htmlhelp:init.obj
 0002:00007340       ??0ccCheck@@QAE@ABV?$basic_string@DU?$char_traits@D@std@@V?$allocator@D@2@@std@@@Z 0042d340 f   ccCheck.obj
 0002:000073b0       ??1ccCheck@@UAE@XZ         0042d3b0 f   ccCheck.obj
 0002:000073e0       ?setHeader@ccCheck@@QAEXABV?$basic_string@DU?$char_traits@D@std@@V?$allocator@D@2@@std@@@Z 0042d3e0 f   ccCheck.obj
 0002:00007410       ?checkDevice@ccCheck@@QAE_NI@Z 0042d410 f   ccCheck.obj
 0002:000074f0       ?checkIndex@ccCheck@@QAE_NI@Z 0042d4f0 f   ccCheck.obj
 0002:000075d0       ?checkSource@ccCheck@@QAE_NH@Z 0042d5d0 f   ccCheck.obj
 0002:000076c0       ?checkRange@ccCheck@@QAE_NII@Z 0042d6c0 f   ccCheck.obj
 0002:00007770       ?checkIndexRange@ccCheck@@QAE_NII@Z 0042d770 f   ccCheck.obj
 0002:00007850       ?checkDbIndexRange@ccCheck@@QAE_NII@Z 0042d850 f   ccCheck.obj
 0002:00007900       ?checkDatabase@ccCheck@@QAE_NII@Z 0042d900 f   ccCheck.obj
 0002:00007a40       ?checkDatabase@ccCheck@@QAE_NI@Z 0042da40 f   ccCheck.obj
 0002:00007b80       ?checkV1Database@ccCheck@@QAE_NI@Z 0042db80 f   ccCheck.obj
 0002:00007c60       ?checkString@ccCheck@@QAE_NABV?$basic_string@DU?$char_traits@D@std@@V?$allocator@D@2@@std@@@Z 0042dc60 f   ccCheck.obj
 0002:00007d20       ?checkString@ccCheck@@QAE_NABV?$basic_string@DU?$char_traits@D@std@@V?$allocator@D@2@@std@@I@Z 0042dd20 f   ccCheck.obj
 0002:00007de0       ?checkWorkstation@ccCheck@@QAE_NI@Z 0042dde0 f   ccCheck.obj
 0002:00007f40       ?log@ccCheck@@QAEXABV?$basic_string@DU?$char_traits@D@std@@V?$allocator@D@2@@std@@@Z 0042df40 f   ccCheck.obj
 0002:00008050       ?setMaxIndex@ccCheck@@QAEXI@Z 0042e050 f   ccCheck.obj
 0002:00008070       ?setMaxSource@ccCheck@@QAEXH@Z 0042e070 f   ccCheck.obj
 0002:00008090       ?setMaxDatabase@ccCheck@@QAEXI@Z 0042e090 f   ccCheck.obj
 0002:000080b0       ?setMaxDevice@ccCheck@@QAEXI@Z 0042e0b0 f   ccCheck.obj
 0002:000080d0       ?setMaxString@ccCheck@@QAEXI@Z 0042e0d0 f   ccCheck.obj
 0002:00008470       ??$?8DD@std@@YA_NABV?$allocator@D@0@0@Z 0042e470 f i ccCheck.obj
 0002:00008480       ??$?8V?$allocator@D@std@@V01@@std@@YA_NABU?$_Wrap_alloc@V?$allocator@D@std@@@0@0@Z 0042e480 f i ccCheck.obj
 0002:000084d0       ??$?9V?$allocator@D@std@@V01@@std@@YA_NABU?$_Wrap_alloc@V?$allocator@D@std@@@0@0@Z 0042e4d0 f i ccCheck.obj
 0002:00008530       ??$?HDU?$char_traits@D@std@@V?$allocator@D@1@@std@@YA?AV?$basic_string@DU?$char_traits@D@std@@V?$allocator@D@2@@0@$$QAV10@ABV10@@Z 0042e530 f i ccCheck.obj
 0002:00008590       ??$?HDU?$char_traits@D@std@@V?$allocator@D@1@@std@@YA?AV?$basic_string@DU?$char_traits@D@std@@V?$allocator@D@2@@0@$$QAV10@PBD@Z 0042e590 f i ccCheck.obj
 0002:000085f0       ??$?HDU?$char_traits@D@std@@V?$allocator@D@1@@std@@YA?AV?$basic_string@DU?$char_traits@D@std@@V?$allocator@D@2@@0@ABV10@PBD@Z 0042e5f0 f i ccCheck.obj
 0002:00008740       ??$?HDU?$char_traits@D@std@@V?$allocator@D@1@@std@@YA?AV?$basic_string@DU?$char_traits@D@std@@V?$allocator@D@2@@0@PBDABV10@@Z 0042e740 f i ccCheck.obj
 0002:00008890       ??$_Allocate@D@std@@YAPADIPAD@Z 0042e890 f i ccCheck.obj
 0002:00008900       ??$_Allocate@U_Container_proxy@std@@@std@@YAPAU_Container_proxy@0@IPAU10@@Z 0042e900 f i ccCheck.obj
 0002:00008980       ??$_Debug_pointer@D@std@@YAXPBDPB_WI@Z 0042e980 f i ccCheck.obj
 0002:000089c0       ??$addressof@D@std@@YAPADAAD@Z 0042e9c0 f i ccCheck.obj
 0002:000089d0       ??$construct@PADAAPAD@?$_Wrap_alloc@V?$allocator@D@std@@@std@@QAEXPAPADAAPAD@Z 0042e9d0 f i ccCheck.obj
 0002:00008a20       ??$construct@PADAAPAD@?$allocator@D@std@@QAEXPAPADAAPAD@Z 0042ea20 f i ccCheck.obj
 0002:00008af0       ??$construct@PADAAPAD@?$allocator_traits@V?$allocator@D@std@@@std@@SAXAAV?$allocator@D@1@PAPADAAPAD@Z 0042eaf0 f i ccCheck.obj
 0002:00008b20       ??$construct@U_Container_proxy@std@@U12@@?$allocator@U_Container_proxy@std@@@std@@QAEXPAU_Container_proxy@1@$$QAU21@@Z 0042eb20 f i ccCheck.obj
 0002:00008bf0       ??$destroy@PAD@?$_Wrap_alloc@V?$allocator@D@std@@@std@@QAEXPAPAD@Z 0042ebf0 f i ccCheck.obj
 0002:00008c30       ??$destroy@PAD@?$allocator@D@std@@QAEXPAPAD@Z 0042ec30 f i ccCheck.obj
 0002:00008c50       ??$destroy@PAD@?$allocator_traits@V?$allocator@D@std@@@std@@SAXAAV?$allocator@D@1@PAPAD@Z 0042ec50 f i ccCheck.obj
 0002:00008c70       ??$destroy@U_Container_proxy@std@@@?$allocator@U_Container_proxy@std@@@std@@QAEXPAU_Container_proxy@1@@Z 0042ec70 f i ccCheck.obj
 0002:00008c90       ??$forward@AAPAD@std@@YAAAPADAAPAD@Z 0042ec90 f i ccCheck.obj
 0002:00008ca0       ??$forward@U_Container_proxy@std@@@std@@YA$$QAU_Container_proxy@0@AAU10@@Z 0042eca0 f i ccCheck.obj
 0002:00008cb0       ??$forward@V?$basic_string@DU?$char_traits@D@std@@V?$allocator@D@2@@std@@@std@@YA$$QAV?$basic_string@DU?$char_traits@D@std@@V?$allocator@D@2@@0@AAV10@@Z 0042ecb0 f i ccCheck.obj
 0002:00008cc0       ??$move@AAV?$basic_string@DU?$char_traits@D@std@@V?$allocator@D@2@@std@@@std@@YA$$QAV?$basic_string@DU?$char_traits@D@std@@V?$allocator@D@2@@0@AAV10@@Z 0042ecc0 f i ccCheck.obj
 0002:00008cd0       ??0?$_String_alloc@$0A@U?$_String_base_types@DV?$allocator@D@std@@@std@@@std@@QAE@ABV?$allocator@D@1@@Z 0042ecd0 f i ccCheck.obj
 0002:00008d60       ??0?$_String_val@U?$_Simple_types@D@std@@@std@@QAE@XZ 0042ed60 f i ccCheck.obj
 0002:00008dc0       ??0?$_Wrap_alloc@V?$allocator@D@std@@@std@@QAE@ABV?$allocator@D@1@@Z 0042edc0 f i ccCheck.obj
 0002:00008e00       ??0?$_Wrap_alloc@V?$allocator@D@std@@@std@@QAE@XZ 0042ee00 f i ccCheck.obj
 0002:00008e30       ??0?$allocator@D@std@@QAE@ABV01@@Z 0042ee30 f i ccCheck.obj
 0002:00008e50       ??0?$allocator@D@std@@QAE@XZ 0042ee50 f i ccCheck.obj
 0002:00008e70       ??0?$allocator@U_Container_proxy@std@@@std@@QAE@XZ 0042ee70 f i ccCheck.obj
 0002:00008e90       ??0?$basic_string@DU?$char_traits@D@std@@V?$allocator@D@2@@std@@QAE@$$QAV01@@Z 0042ee90 f i ccCheck.obj
 0002:00008f10       ??0?$basic_string@DU?$char_traits@D@std@@V?$allocator@D@2@@std@@QAE@ABV01@@Z 0042ef10 f i ccCheck.obj
 0002:00008fe0       ??0?$basic_string@DU?$char_traits@D@std@@V?$allocator@D@2@@std@@QAE@PBD@Z 0042efe0 f i ccCheck.obj
 0002:00009090       ??0?$basic_string@DU?$char_traits@D@std@@V?$allocator@D@2@@std@@QAE@XZ 0042f090 f i ccCheck.obj
 0002:00009130       ??0_Container_proxy@std@@QAE@XZ 0042f130 f i ccCheck.obj
 0002:00009170       ??0_Generic_error_category@std@@QAE@XZ 0042f170 f i ccCheck.obj
 0002:000091b0       ??0_Iostream_error_category@std@@QAE@XZ 0042f1b0 f i ccCheck.obj
 0002:000091f0       ??0_System_error_category@std@@QAE@XZ 0042f1f0 f i ccCheck.obj
 0002:00009230       ??0error_category@std@@QAE@XZ 0042f230 f i ccCheck.obj
 0002:00009260       ??0error_condition@std@@QAE@HABVerror_category@1@@Z 0042f260 f i ccCheck.obj
 0002:000092a0       ??1?$_String_alloc@$0A@U?$_String_base_types@DV?$allocator@D@std@@@std@@@std@@QAE@XZ 0042f2a0 f i ccCheck.obj
 0002:000092e0       ??1?$_String_val@U?$_Simple_types@D@std@@@std@@QAE@XZ 0042f2e0 f i ccCheck.obj
 0002:00009320       ??1?$basic_string@DU?$char_traits@D@std@@V?$allocator@D@2@@std@@QAE@XZ 0042f320 f i ccCheck.obj
 0002:00009360       ??1_Generic_error_category@std@@UAE@XZ 0042f360 f i ccCheck.obj
 0002:00009390       ??1_Iostream_error_category@std@@UAE@XZ 0042f390 f i ccCheck.obj
 0002:000093c0       ??1_System_error_category@std@@UAE@XZ 0042f3c0 f i ccCheck.obj
 0002:000093f0       ??1error_category@std@@UAE@XZ 0042f3f0 f i ccCheck.obj
 0002:00009420       ??2@YAPAXIPAX@Z            0042f420 f i ccCheck.obj
 0002:00009430       ??3@YAXPAX0@Z              0042f430 f i ccCheck.obj
 0002:00009440       ??4?$basic_string@DU?$char_traits@D@std@@V?$allocator@D@2@@std@@QAEAAV01@ABV01@@Z 0042f440 f i ccCheck.obj
 0002:000094f0       ??8error_category@std@@QBE_NABV01@@Z 0042f4f0 f i ccCheck.obj
 0002:00009540       ??8error_condition@std@@QBE_NABV01@@Z 0042f540 f i ccCheck.obj
 0002:000095d0       ??Y?$basic_string@DU?$char_traits@D@std@@V?$allocator@D@2@@std@@QAEAAV01@ABV01@@Z 0042f5d0 f i ccCheck.obj
 0002:00009610       ??Y?$basic_string@DU?$char_traits@D@std@@V?$allocator@D@2@@std@@QAEAAV01@PBD@Z 0042f610 f i ccCheck.obj
 0002:00009650       ??_E_Generic_error_category@std@@UAEPAXI@Z 0042f650 f i ccCheck.obj
 0002:00009650       ??_G_Generic_error_category@std@@UAEPAXI@Z 0042f650 f i ccCheck.obj
 0002:000096a0       ??_G_Iostream_error_category@std@@UAEPAXI@Z 0042f6a0 f i ccCheck.obj
 0002:000096a0       ??_E_Iostream_error_category@std@@UAEPAXI@Z 0042f6a0 f i ccCheck.obj
 0002:000096f0       ??_G_System_error_category@std@@UAEPAXI@Z 0042f6f0 f i ccCheck.obj
 0002:000096f0       ??_E_System_error_category@std@@UAEPAXI@Z 0042f6f0 f i ccCheck.obj
 0002:00009740       ??_GccCheck@@UAEPAXI@Z     0042f740 f i ccCheck.obj
 0002:00009740       ??_EccCheck@@UAEPAXI@Z     0042f740 f i ccCheck.obj
 0002:00009790       ??_Gerror_category@std@@UAEPAXI@Z 0042f790 f i ccCheck.obj
 0002:00009790       ??_Eerror_category@std@@UAEPAXI@Z 0042f790 f i ccCheck.obj
 0002:000097e0       ?_Alloc_proxy@?$_String_alloc@$0A@U?$_String_base_types@DV?$allocator@D@std@@@std@@@std@@QAEXXZ 0042f7e0 f i ccCheck.obj
 0002:000098a0       ?_Assign_rv@?$basic_string@DU?$char_traits@D@std@@V?$allocator@D@2@@std@@QAEX$$QAV12@@Z 0042f8a0 f i ccCheck.obj
 0002:00009970       ?_Change_alloc@?$_String_alloc@$0A@U?$_String_base_types@DV?$allocator@D@std@@@std@@@std@@QAEXABU?$_Wrap_alloc@V?$allocator@D@std@@@2@@Z 0042f970 f i ccCheck.obj
 0002:00009990       ?_Copy@?$basic_string@DU?$char_traits@D@std@@V?$allocator@D@2@@std@@QAEXII@Z 0042f990 f i ccCheck.obj
 0002:00009c10       ?_Eos@?$basic_string@DU?$char_traits@D@std@@V?$allocator@D@2@@std@@QAEXI@Z 0042fc10 f i ccCheck.obj
 0002:00009c70       ?_Free_proxy@?$_String_alloc@$0A@U?$_String_base_types@DV?$allocator@D@std@@@std@@@std@@QAEXXZ 0042fc70 f i ccCheck.obj
 0002:00009d30       ?_Getal@?$_String_alloc@$0A@U?$_String_base_types@DV?$allocator@D@std@@@std@@@std@@QBE?AU?$_Wrap_alloc@V?$allocator@D@std@@@2@XZ 0042fd30 f i ccCheck.obj
 0002:00009d70       ?_Grow@?$basic_string@DU?$char_traits@D@std@@V?$allocator@D@2@@std@@QAE_NI_N@Z 0042fd70 f i ccCheck.obj
 0002:00009e70       ?_Inside@?$basic_string@DU?$char_traits@D@std@@V?$allocator@D@2@@std@@QAE_NPBD@Z 0042fe70 f i ccCheck.obj
 0002:00009ed0       ?_Myptr@?$_String_val@U?$_Simple_types@D@std@@@std@@QAEPADXZ 0042fed0 f i ccCheck.obj
 0002:00009f40       ?_Myptr@?$_String_val@U?$_Simple_types@D@std@@@std@@QBEPBDXZ 0042ff40 f i ccCheck.obj
 0002:00009fb0       ?_Tidy@?$basic_string@DU?$char_traits@D@std@@V?$allocator@D@2@@std@@QAEX_NI@Z 0042ffb0 f i ccCheck.obj
 0002:0000a0b0       ?_Xlen@?$basic_string@DU?$char_traits@D@std@@V?$allocator@D@2@@std@@QBEXXZ 004300b0 f i ccCheck.obj
 0002:0000a0f0       ?_Xran@?$basic_string@DU?$char_traits@D@std@@V?$allocator@D@2@@std@@QBEXXZ 004300f0 f i ccCheck.obj
 0002:0000a130       ?allocate@?$_Wrap_alloc@V?$allocator@D@std@@@std@@QAEPADI@Z 00430130 f i ccCheck.obj
 0002:0000a170       ?allocate@?$allocator@D@std@@QAEPADI@Z 00430170 f i ccCheck.obj
 0002:0000a1b0       ?allocate@?$allocator@U_Container_proxy@std@@@std@@QAEPAU_Container_proxy@2@I@Z 004301b0 f i ccCheck.obj
 0002:0000a1f0       ?append@?$basic_string@DU?$char_traits@D@std@@V?$allocator@D@2@@std@@QAEAAV12@ABV12@@Z 004301f0 f i ccCheck.obj
 0002:0000a230       ?append@?$basic_string@DU?$char_traits@D@std@@V?$allocator@D@2@@std@@QAEAAV12@ABV12@II@Z 00430230 f i ccCheck.obj
 0002:0000a330       ?append@?$basic_string@DU?$char_traits@D@std@@V?$allocator@D@2@@std@@QAEAAV12@PBD@Z 00430330 f i ccCheck.obj
 0002:0000a390       ?append@?$basic_string@DU?$char_traits@D@std@@V?$allocator@D@2@@std@@QAEAAV12@PBDI@Z 00430390 f i ccCheck.obj
 0002:0000a4b0       ?assign@?$basic_string@DU?$char_traits@D@std@@V?$allocator@D@2@@std@@QAEAAV12@ABV12@@Z 004304b0 f i ccCheck.obj
 0002:0000a4f0       ?assign@?$basic_string@DU?$char_traits@D@std@@V?$allocator@D@2@@std@@QAEAAV12@ABV12@II@Z 004304f0 f i ccCheck.obj
 0002:0000a5f0       ?assign@?$basic_string@DU?$char_traits@D@std@@V?$allocator@D@2@@std@@QAEAAV12@PBD@Z 004305f0 f i ccCheck.obj
 0002:0000a650       ?assign@?$basic_string@DU?$char_traits@D@std@@V?$allocator@D@2@@std@@QAEAAV12@PBDI@Z 00430650 f i ccCheck.obj
 0002:0000a730       ?assign@?$char_traits@D@std@@SAXAADABD@Z 00430730 f i ccCheck.obj
 0002:0000a750       ?c_str@?$basic_string@DU?$char_traits@D@std@@V?$allocator@D@2@@std@@QBEPBDXZ 00430750 f i ccCheck.obj
 0002:0000a780       ?category@error_code@std@@QBEABVerror_category@2@XZ 00430780 f i ccCheck.obj
 0002:0000a7a0       ?category@error_condition@std@@QBEABVerror_category@2@XZ 004307a0 f i ccCheck.obj
 0002:0000a7c0       ?copy@?$char_traits@D@std@@SAPADPADPBDI@Z 004307c0 f i ccCheck.obj
 0002:0000a820       ?deallocate@?$_Wrap_alloc@V?$allocator@D@std@@@std@@QAEXPADI@Z 00430820 f i ccCheck.obj
 0002:0000a860       ?deallocate@?$allocator@D@std@@QAEXPADI@Z 00430860 f i ccCheck.obj
 0002:0000a8a0       ?deallocate@?$allocator@U_Container_proxy@std@@@std@@QAEXPAU_Container_proxy@2@I@Z 004308a0 f i ccCheck.obj
 0002:0000a8e0       ?default_error_condition@_System_error_category@std@@UBE?AVerror_condition@2@H@Z 004308e0 f i ccCheck.obj
 0002:0000a970       ?default_error_condition@error_category@std@@UBE?AVerror_condition@2@H@Z 00430970 f i ccCheck.obj
 0002:0000a9b0       ?equivalent@error_category@std@@UBE_NABVerror_code@2@H@Z 004309b0 f i ccCheck.obj
 0002:0000aa30       ?equivalent@error_category@std@@UBE_NHABVerror_condition@2@@Z 00430a30 f i ccCheck.obj
 0002:0000aaa0       ?erase@?$basic_string@DU?$char_traits@D@std@@V?$allocator@D@2@@std@@QAEAAV12@I@Z 00430aa0 f i ccCheck.obj
 0002:0000aaf0       ?erase@?$basic_string@DU?$char_traits@D@std@@V?$allocator@D@2@@std@@QAEAAV12@II@Z 00430af0 f i ccCheck.obj
 0002:0000abc0       ?generic_category@std@@YAABVerror_category@1@XZ 00430bc0 f i ccCheck.obj
 0002:0000abd0       ?length@?$basic_string@DU?$char_traits@D@std@@V?$allocator@D@2@@std@@QBEIXZ 00430bd0 f i ccCheck.obj
 0002:0000abf0       ?length@?$char_traits@D@std@@SAIPBD@Z 00430bf0 f i ccCheck.obj
 0002:0000ac40       ?max_size@?$_Wrap_alloc@V?$allocator@D@std@@@std@@QBEIXZ 00430c40 f i ccCheck.obj
 0002:0000ac80       ?max_size@?$allocator@D@std@@QBEIXZ 00430c80 f i ccCheck.obj
 0002:0000aca0       ?max_size@?$allocator_traits@V?$allocator@D@std@@@std@@SAIABV?$allocator@D@2@@Z 00430ca0 f i ccCheck.obj
 0002:0000acc0       ?max_size@?$basic_string@DU?$char_traits@D@std@@V?$allocator@D@2@@std@@QBEIXZ 00430cc0 f i ccCheck.obj
 0002:0000ad30       ?message@_Generic_error_category@std@@UBE?AV?$basic_string@DU?$char_traits@D@std@@V?$allocator@D@2@@2@H@Z 00430d30 f i ccCheck.obj
 0002:0000add0       ?message@_Iostream_error_category@std@@UBE?AV?$basic_string@DU?$char_traits@D@std@@V?$allocator@D@2@@2@H@Z 00430dd0 f i ccCheck.obj
 0002:0000ae60       ?message@_System_error_category@std@@UBE?AV?$basic_string@DU?$char_traits@D@std@@V?$allocator@D@2@@2@H@Z 00430e60 f i ccCheck.obj
 0002:0000af00       ?move@?$char_traits@D@std@@SAPADPADPBDI@Z 00430f00 f i ccCheck.obj
 0002:0000af60       ?name@_Generic_error_category@std@@UBEPBDXZ 00430f60 f i ccCheck.obj
 0002:0000af80       ?name@_Iostream_error_category@std@@UBEPBDXZ 00430f80 f i ccCheck.obj
 0002:0000afa0       ?name@_System_error_category@std@@UBEPBDXZ 00430fa0 f i ccCheck.obj
 0002:0000afc0       ?reserve@?$basic_string@DU?$char_traits@D@std@@V?$allocator@D@2@@std@@QAEXI@Z 00430fc0 f i ccCheck.obj
 0002:0000b040       ?select_on_container_copy_construction@?$_Wrap_alloc@V?$allocator@D@std@@@std@@QBE?AU12@XZ 00431040 f i ccCheck.obj
 0002:0000b0a0       ?select_on_container_copy_construction@?$allocator@D@std@@QBE?AV12@XZ 004310a0 f i ccCheck.obj
 0002:0000b0e0       ?select_on_container_copy_construction@?$allocator_traits@V?$allocator@D@std@@@std@@SA?AV?$allocator@D@2@ABV32@@Z 004310e0 f i ccCheck.obj
 0002:0000b110       ?size@?$basic_string@DU?$char_traits@D@std@@V?$allocator@D@2@@std@@QBEIXZ 00431110 f i ccCheck.obj
 0002:0000b130       ?system_category@std@@YAABVerror_category@1@XZ 00431130 f i ccCheck.obj
 0002:0000b140       ?value@error_code@std@@QBEHXZ 00431140 f i ccCheck.obj
 0002:0000b160       ?value@error_condition@std@@QBEHXZ 00431160 f i ccCheck.obj
 0002:0000b180       _hypot                     00431180 f i ccCheck.obj
 0002:0000b1d0       ??0ccClient@@QAE@PAVIccClientCallback@@ABV?$basic_string@DU?$char_traits@D@std@@V?$allocator@D@2@@std@@@Z 004311d0 f   ccClient.obj
 0002:0000b450       ??1ccClient@@UAE@XZ        00431450 f   ccClient.obj
 0002:0000b590       ?version@ccClient@@QAEJXZ  00431590 f   ccClient.obj
 0002:0000b5b0       ?routerCrosspoint@ccClient@@QAEXHHHABV?$basic_string@DU?$char_traits@D@std@@V?$allocator@D@2@@std@@_NH@Z 004315b0 f   ccClient.obj
 0002:0000b720       ?routerPoll@ccClient@@QAEXHHH_N@Z 00431720 f   ccClient.obj
 0002:0000b760       ?routerQuery@ccClient@@QAEXHHH_N@Z 00431760 f   ccClient.obj
 0002:0000b7a0       ?routerLock@ccClient@@QAEXHHH_N0H@Z 004317a0 f   ccClient.obj
 0002:0000b7f0       ?routerFile@ccClient@@QAEXH@Z 004317f0 f   ccClient.obj
 0002:0000b830       ?infoWrite@ccClient@@QAEXHHABV?$basic_string@DU?$char_traits@D@std@@V?$allocator@D@2@@std@@_NH@Z 00431830 f   ccClient.obj
 0002:0000b9b0       ?infoPoll@ccClient@@QAEXHHH_N@Z 004319b0 f   ccClient.obj
 0002:0000b9f0       ?infoQuery@ccClient@@QAEXHHH_N@Z 004319f0 f   ccClient.obj
 0002:0000ba30       ?infoLock@ccClient@@QAEXHHH_N0H@Z 00431a30 f   ccClient.obj
 0002:0000ba80       ?gpiSwitch@ccClient@@QAEXHH_N0H@Z 00431a80 f   ccClient.obj
 0002:0000bc20       ?gpiFile@ccClient@@QAEXH@Z 00431c20 f   ccClient.obj
 0002:0000bc60       ?gpiLock@ccClient@@QAEXHHH_N0H@Z 00431c60 f   ccClient.obj
 0002:0000bcb0       ?gpiPoll@ccClient@@QAEXHHH_N@Z 00431cb0 f   ccClient.obj
 0002:0000bcf0       ?gpiQuery@ccClient@@QAEXHHH_N@Z 00431cf0 f   ccClient.obj
 0002:0000bd30       ?deviceMessage@ccClient@@QAEXHHABV?$basic_string@DU?$char_traits@D@std@@V?$allocator@D@2@@std@@H@Z 00431d30 f   ccClient.obj
 0002:0000be50       ?deviceProfile@ccClient@@QAEXHAAH00AAV?$basic_string@DU?$char_traits@D@std@@V?$allocator@D@2@@std@@@Z 00431e50 f   ccClient.obj
 0002:0000c080       ?databaseName@ccClient@@QAE_NHHHAAV?$basic_string@DU?$char_traits@D@std@@V?$allocator@D@2@@std@@@Z 00432080 f   ccClient.obj
 0002:0000c1c0       ?databaseIndex@ccClient@@QAEHHHABV?$basic_string@DU?$char_traits@D@std@@V?$allocator@D@2@@std@@@Z 004321c0 f   ccClient.obj
 0002:0000c3a0       ?databaseModify@ccClient@@QAE_NHHHABV?$basic_string@DU?$char_traits@D@std@@V?$allocator@D@2@@std@@_N1H@Z 004323a0 f   ccClient.obj
 0002:0000c590       ?revertiveRegister@ccClient@@QAEXHHH_NH@Z 00432590 f   ccClient.obj
 0002:0000c670       ?revertiveDeregister@ccClient@@QAEXHHH@Z 00432670 f   ccClient.obj
 0002:0000c770       ?revertiveDeregisterAll@ccClient@@QAEXXZ 00432770 f   ccClient.obj
 0002:0000c7c0       ?cacheValue@ccClient@@QAE_NHHAAV?$basic_string@DU?$char_traits@D@std@@V?$allocator@D@2@@std@@PAH@Z 004327c0 f   ccClient.obj
 0002:0000c940       ?cacheIndex@ccClient@@QAEHHHHABV?$basic_string@DU?$char_traits@D@std@@V?$allocator@D@2@@std@@@Z 00432940 f   ccClient.obj
 0002:0000ca80       ?cacheEnable@ccClient@@QAEX_N@Z 00432a80 f   ccClient.obj
 0002:0000cad0       ?cacheTest@ccClient@@QAE_NHHH@Z 00432ad0 f   ccClient.obj
 0002:0000cb90       ?cacheFlush@ccClient@@QAEXH@Z 00432b90 f   ccClient.obj
 0002:0000cbf0       ?isCacheEnabled@ccClient@@QAE_NXZ 00432bf0 f   ccClient.obj
 0002:0000cc50       ?connect@ccClient@@QAE_NW4ipcType@cc@@J@Z 00432c50 f   ccClient.obj
 0002:0000d030       ?isConnected@ccClient@@QAE_NXZ 00433030 f   ccClient.obj
 0002:0000d080       ?disconnect@ccClient@@QAE_NXZ 00433080 f   ccClient.obj
 0002:0000d140       ?writeEnable@ccClient@@QAEX_N@Z 00433140 f   ccClient.obj
 0002:0000d160       ?isWriteEnabled@ccClient@@QAE_NXZ 00433160 f   ccClient.obj
 0002:0000d180       ?setCloseHostOnExit@ccClient@@QAEX_N@Z 00433180 f   ccClient.obj
 0002:0000d1a0       ?counters@ccClient@@QAE_NAAI0@Z 004331a0 f   ccClient.obj
 0002:0000d220       ?resetCounters@ccClient@@QAEXXZ 00433220 f   ccClient.obj
 0002:0000d260       ?setCallback@ccClient@@QAEXPAVIccClientCallback@@@Z 00433260 f   ccClient.obj
 0002:0000d280       ?getClientRegistrationExtent@ccClient@@QAE_NHAAH0@Z 00433280 f   ccClient.obj
 0002:0000d320       ?sendBufferedCommands@ccClient@@QAEXXZ 00433320 f   ccClient.obj
 0002:0000d360       ?registerForNetMessage@ccClient@@QAEXXZ 00433360 f   ccClient.obj
 0002:0000d3b0       ?deregisterForNetMessage@ccClient@@QAEXXZ 004333b0 f   ccClient.obj
 0002:0000d400       ?registerForConfigChangeMessage@ccClient@@QAEXXZ 00433400 f   ccClient.obj
 0002:0000d450       ?deregisterForConfigChangeMessage@ccClient@@QAEXXZ 00433450 f   ccClient.obj
 0002:0000d4a0       ?sendConfigChangeMessage@ccClient@@QAEXABV?$basic_string@DU?$char_traits@D@std@@V?$allocator@D@2@@std@@@Z 004334a0 f   ccClient.obj
 0002:0000d4f0       ?flushDatabaseCache@ccClient@@QAEXH@Z 004334f0 f   ccClient.obj
 0002:0000d540       ?maxDevices@ccClient@@QAEIXZ 00433540 f   ccClient.obj
 0002:0000d5a0       ?maxIndexes@ccClient@@QAEIXZ 004335a0 f   ccClient.obj
 0002:0000d600       ?maxSources@ccClient@@QAEIXZ 00433600 f   ccClient.obj
 0002:0000d660       ?maxDatabases@ccClient@@QAEIXZ 00433660 f   ccClient.obj
 0002:0000d6c0       ?maxString@ccClient@@QAEIXZ 004336c0 f   ccClient.obj
 0002:0000d720       ?workstation@ccClient@@QAEHXZ 00433720 f   ccClient.obj
 0002:0000d740       ?WndProc@ccClient@@CGJPAUHWND__@@IIJ@Z 00433740 f   ccClient.obj
 0002:0000ea10       ?BNCSSendMessage@ccClient@@AAEJIIJHHH@Z 00434a10 f   ccClient.obj
 0002:0000ead0       ?deviceQuery@ccClient@@AAEXDHHH_N@Z 00434ad0 f   ccClient.obj
 0002:0000ecb0       ?devicePoll@ccClient@@AAEXDHHH_N@Z 00434cb0 f   ccClient.obj
 0002:0000ee90       ?deviceLock@ccClient@@AAEXDHHH_N0H@Z 00434e90 f   ccClient.obj
 0002:0000f0c0       ?deviceFile@ccClient@@AAEXDH@Z 004350c0 f   ccClient.obj
 0002:00010260       ??$?0U?$_Wrap_alloc@V?$allocator@V?$basic_string@DU?$char_traits@D@std@@V?$allocator@D@2@@std@@@std@@@std@@@?$_Wrap_alloc@V?$allocator@PAV?$basic_string@DU?$char_traits@D@std@@V?$allocator@D@2@@std@@@std@@@std@@QAE@ABU?$_Wrap_alloc@V?$allocator@V?$basic_string@DU?$char_traits@D@std@@V?$allocator@D@2@@std@@@std@@@1@@Z 00436260 f i ccClient.obj
 0002:000102a0       ??$?0V?$basic_string@DU?$char_traits@D@std@@V?$allocator@D@2@@std@@@?$allocator@PAV?$basic_string@DU?$char_traits@D@std@@V?$allocator@D@2@@std@@@std@@QAE@ABV?$allocator@V?$basic_string@DU?$char_traits@D@std@@V?$allocator@D@2@@std@@@1@@Z 004362a0 f i ccClient.obj
 0002:000102c0       ??$_Allocate@PAV?$basic_string@DU?$char_traits@D@std@@V?$allocator@D@2@@std@@@std@@YAPAPAV?$basic_string@DU?$char_traits@D@std@@V?$allocator@D@2@@0@IPAPAV10@@Z 004362c0 f i ccClient.obj
 0002:00010340       ??$_Allocate@V?$basic_string@DU?$char_traits@D@std@@V?$allocator@D@2@@std@@@std@@YAPAV?$basic_string@DU?$char_traits@D@std@@V?$allocator@D@2@@0@IPAV10@@Z 00436340 f i ccClient.obj
 0002:000103c0       ??$_Debug_pointer@PAV?$basic_string@DU?$char_traits@D@std@@V?$allocator@D@2@@std@@@std@@YAXPAPAV?$basic_string@DU?$char_traits@D@std@@V?$allocator@D@2@@0@PB_WI@Z 004363c0 f i ccClient.obj
 0002:00010400       ??$_Debug_range2@PAPAV?$basic_string@DU?$char_traits@D@std@@V?$allocator@D@2@@std@@@std@@YAXPAPAV?$basic_string@DU?$char_traits@D@std@@V?$allocator@D@2@@0@0PB_WIUrandom_access_iterator_tag@0@@Z 00436400 f i ccClient.obj
 0002:00010480       ??$_Debug_range@PAPAV?$basic_string@DU?$char_traits@D@std@@V?$allocator@D@2@@std@@@std@@YAXPAPAV?$basic_string@DU?$char_traits@D@std@@V?$allocator@D@2@@0@0PB_WI@Z 00436480 f i ccClient.obj
 0002:000104e0       ??$_Destroy_range@U?$_Wrap_alloc@V?$allocator@PAV?$basic_string@DU?$char_traits@D@std@@V?$allocator@D@2@@std@@@std@@@std@@@std@@YAXPAPAV?$basic_string@DU?$char_traits@D@std@@V?$allocator@D@2@@0@0AAU?$_Wrap_alloc@V?$allocator@PAV?$basic_string@DU?$char_traits@D@std@@V?$allocator@D@2@@std@@@std@@@0@@Z 004364e0 f i ccClient.obj
 0002:00010540       ??$_Destroy_range@U?$_Wrap_alloc@V?$allocator@PAV?$basic_string@DU?$char_traits@D@std@@V?$allocator@D@2@@std@@@std@@@std@@@std@@YAXPAPAV?$basic_string@DU?$char_traits@D@std@@V?$allocator@D@2@@0@0AAU?$_Wrap_alloc@V?$allocator@PAV?$basic_string@DU?$char_traits@D@std@@V?$allocator@D@2@@std@@@std@@@0@U_Scalar_ptr_iterator_tag@0@@Z 00436540 f i ccClient.obj
 0002:00010550       ??$_Fill_n@PAPAV?$basic_string@DU?$char_traits@D@std@@V?$allocator@D@2@@std@@IPAV12@@std@@YAPAPAV?$basic_string@DU?$char_traits@D@std@@V?$allocator@D@2@@0@PAPAV10@IABQAV10@@Z 00436550 f i ccClient.obj
 0002:00010590       ??$_Iter_cat@PAPAV?$basic_string@DU?$char_traits@D@std@@V?$allocator@D@2@@std@@@std@@YA?AUrandom_access_iterator_tag@0@ABQAPAV?$basic_string@DU?$char_traits@D@std@@V?$allocator@D@2@@0@@Z 00436590 f i ccClient.obj
 0002:00010600       ??$_Ptr_cat@PAV?$basic_string@DU?$char_traits@D@std@@V?$allocator@D@2@@std@@PAV12@@std@@YA?AU_Scalar_ptr_iterator_tag@0@PAPAV?$basic_string@DU?$char_traits@D@std@@V?$allocator@D@2@@0@0@Z 00436600 f i ccClient.obj
 0002:00010660       ??$_Rechecked@PAPAV?$basic_string@DU?$char_traits@D@std@@V?$allocator@D@2@@std@@PAPAV12@@std@@YAAAPAPAV?$basic_string@DU?$char_traits@D@std@@V?$allocator@D@2@@0@AAPAPAV10@PAPAV10@@Z 00436660 f i ccClient.obj
 0002:00010680       ??$_Unchecked@PAPAV?$basic_string@DU?$char_traits@D@std@@V?$allocator@D@2@@std@@@std@@YAPAPAV?$basic_string@DU?$char_traits@D@std@@V?$allocator@D@2@@0@PAPAV10@@Z 00436680 f i ccClient.obj
 0002:00010690       ??$_Uninit_copy@PAPAV?$basic_string@DU?$char_traits@D@std@@V?$allocator@D@2@@std@@PAPAV12@U?$_Wrap_alloc@V?$allocator@PAV?$basic_string@DU?$char_traits@D@std@@V?$allocator@D@2@@std@@@std@@@2@@std@@YAPAPAV?$basic_string@DU?$char_traits@D@std@@V?$allocator@D@2@@0@PAPAV10@00AAU?$_Wrap_alloc@V?$allocator@PAV?$basic_string@DU?$char_traits@D@std@@V?$allocator@D@2@@std@@@std@@@0@@Z 00436690 f i ccClient.obj
 0002:000106f0       ??$_Uninit_copy@PAV?$basic_string@DU?$char_traits@D@std@@V?$allocator@D@2@@std@@PAV12@@std@@YAPAPAV?$basic_string@DU?$char_traits@D@std@@V?$allocator@D@2@@0@PAPAV10@00AAU?$_Wrap_alloc@V?$allocator@PAV?$basic_string@DU?$char_traits@D@std@@V?$allocator@D@2@@std@@@std@@@0@U_Scalar_ptr_iterator_tag@0@@Z 004366f0 f i ccClient.obj
 0002:00010790       ??$_Uninit_def_fill_n@PAV?$basic_string@DU?$char_traits@D@std@@V?$allocator@D@2@@std@@IPAV12@@std@@YAXPAPAV?$basic_string@DU?$char_traits@D@std@@V?$allocator@D@2@@0@IAAU?$_Wrap_alloc@V?$allocator@PAV?$basic_string@DU?$char_traits@D@std@@V?$allocator@D@2@@std@@@std@@@0@0U_Scalar_ptr_iterator_tag@0@@Z 00436790 f i ccClient.obj
 0002:000107e0       ??$_Uninitialized_copy@PAPAV?$basic_string@DU?$char_traits@D@std@@V?$allocator@D@2@@std@@PAPAV12@U?$_Wrap_alloc@V?$allocator@PAV?$basic_string@DU?$char_traits@D@std@@V?$allocator@D@2@@std@@@std@@@2@@std@@YAPAPAV?$basic_string@DU?$char_traits@D@std@@V?$allocator@D@2@@0@PAPAV10@00AAU?$_Wrap_alloc@V?$allocator@PAV?$basic_string@DU?$char_traits@D@std@@V?$allocator@D@2@@std@@@std@@@0@@Z 004367e0 f i ccClient.obj
 0002:00010850       ??$_Uninitialized_default_fill_n@PAPAV?$basic_string@DU?$char_traits@D@std@@V?$allocator@D@2@@std@@IU?$_Wrap_alloc@V?$allocator@PAV?$basic_string@DU?$char_traits@D@std@@V?$allocator@D@2@@std@@@std@@@2@@std@@YAXPAPAV?$basic_string@DU?$char_traits@D@std@@V?$allocator@D@2@@0@IAAU?$_Wrap_alloc@V?$allocator@PAV?$basic_string@DU?$char_traits@D@std@@V?$allocator@D@2@@std@@@std@@@0@@Z 00436850 f i ccClient.obj
 0002:000108c0       ??$_Val_type@PAPAV?$basic_string@DU?$char_traits@D@std@@V?$allocator@D@2@@std@@@std@@YAPAPAV?$basic_string@DU?$char_traits@D@std@@V?$allocator@D@2@@0@PAPAV10@@Z 004368c0 f i ccClient.obj
 0002:000108d0       ??$construct@U_Container_proxy@std@@U12@@?$_Wrap_alloc@V?$allocator@U_Container_proxy@std@@@std@@@std@@QAEXPAU_Container_proxy@1@$$QAU21@@Z 004368d0 f i ccClient.obj
 0002:00010920       ??$construct@U_Container_proxy@std@@U12@@?$allocator_traits@V?$allocator@U_Container_proxy@std@@@std@@@std@@SAXAAV?$allocator@U_Container_proxy@std@@@1@PAU_Container_proxy@1@$$QAU31@@Z 00436920 f i ccClient.obj
 0002:00010950       ??$construct@V?$basic_string@DU?$char_traits@D@std@@V?$allocator@D@2@@std@@ABV12@@?$_Wrap_alloc@V?$allocator@V?$basic_string@DU?$char_traits@D@std@@V?$allocator@D@2@@std@@@std@@@std@@QAEXPAV?$basic_string@DU?$char_traits@D@std@@V?$allocator@D@2@@1@ABV21@@Z 00436950 f i ccClient.obj
 0002:000109a0       ??$construct@V?$basic_string@DU?$char_traits@D@std@@V?$allocator@D@2@@std@@ABV12@@?$allocator_traits@V?$allocator@V?$basic_string@DU?$char_traits@D@std@@V?$allocator@D@2@@std@@@std@@@std@@SAXAAV?$allocator@V?$basic_string@DU?$char_traits@D@std@@V?$allocator@D@2@@std@@@1@PAV?$basic_string@DU?$char_traits@D@std@@V?$allocator@D@2@@1@ABV31@@Z 004369a0 f i ccClient.obj
 0002:000109d0       ??$construct@V?$basic_string@DU?$char_traits@D@std@@V?$allocator@D@2@@std@@V12@@?$_Wrap_alloc@V?$allocator@V?$basic_string@DU?$char_traits@D@std@@V?$allocator@D@2@@std@@@std@@@std@@QAEXPAV?$basic_string@DU?$char_traits@D@std@@V?$allocator@D@2@@1@$$QAV21@@Z 004369d0 f i ccClient.obj
 0002:00010a20       ??$construct@V?$basic_string@DU?$char_traits@D@std@@V?$allocator@D@2@@std@@V12@@?$allocator@V?$basic_string@DU?$char_traits@D@std@@V?$allocator@D@2@@std@@@std@@QAEXPAV?$basic_string@DU?$char_traits@D@std@@V?$allocator@D@2@@1@$$QAV21@@Z 00436a20 f i ccClient.obj
 0002:00010af0       ??$construct@V?$basic_string@DU?$char_traits@D@std@@V?$allocator@D@2@@std@@V12@@?$allocator_traits@V?$allocator@V?$basic_string@DU?$char_traits@D@std@@V?$allocator@D@2@@std@@@std@@@std@@SAXAAV?$allocator@V?$basic_string@DU?$char_traits@D@std@@V?$allocator@D@2@@std@@@1@PAV?$basic_string@DU?$char_traits@D@std@@V?$allocator@D@2@@1@$$QAV31@@Z 00436af0 f i ccClient.obj
 0002:00010b20       ??$destroy@PAV?$basic_string@DU?$char_traits@D@std@@V?$allocator@D@2@@std@@@?$_Wrap_alloc@V?$allocator@V?$basic_string@DU?$char_traits@D@std@@V?$allocator@D@2@@std@@@std@@@std@@QAEXPAPAV?$basic_string@DU?$char_traits@D@std@@V?$allocator@D@2@@1@@Z 00436b20 f i ccClient.obj
 0002:00010b60       ??$destroy@PAV?$basic_string@DU?$char_traits@D@std@@V?$allocator@D@2@@std@@@?$allocator@V?$basic_string@DU?$char_traits@D@std@@V?$allocator@D@2@@std@@@std@@QAEXPAPAV?$basic_string@DU?$char_traits@D@std@@V?$allocator@D@2@@1@@Z 00436b60 f i ccClient.obj
 0002:00010b80       ??$destroy@PAV?$basic_string@DU?$char_traits@D@std@@V?$allocator@D@2@@std@@@?$allocator_traits@V?$allocator@V?$basic_string@DU?$char_traits@D@std@@V?$allocator@D@2@@std@@@std@@@std@@SAXAAV?$allocator@V?$basic_string@DU?$char_traits@D@std@@V?$allocator@D@2@@std@@@1@PAPAV?$basic_string@DU?$char_traits@D@std@@V?$allocator@D@2@@1@@Z 00436b80 f i ccClient.obj
 0002:00010ba0       ??$destroy@U_Container_proxy@std@@@?$_Wrap_alloc@V?$allocator@U_Container_proxy@std@@@std@@@std@@QAEXPAU_Container_proxy@1@@Z 00436ba0 f i ccClient.obj
 0002:00010be0       ??$destroy@U_Container_proxy@std@@@?$allocator_traits@V?$allocator@U_Container_proxy@std@@@std@@@std@@SAXAAV?$allocator@U_Container_proxy@std@@@1@PAU_Container_proxy@1@@Z 00436be0 f i ccClient.obj
 0002:00010c00       ??$destroy@V?$basic_string@DU?$char_traits@D@std@@V?$allocator@D@2@@std@@@?$_Wrap_alloc@V?$allocator@V?$basic_string@DU?$char_traits@D@std@@V?$allocator@D@2@@std@@@std@@@std@@QAEXPAV?$basic_string@DU?$char_traits@D@std@@V?$allocator@D@2@@1@@Z 00436c00 f i ccClient.obj
 0002:00010c40       ??$destroy@V?$basic_string@DU?$char_traits@D@std@@V?$allocator@D@2@@std@@@?$allocator@V?$basic_string@DU?$char_traits@D@std@@V?$allocator@D@2@@std@@@std@@QAEXPAV?$basic_string@DU?$char_traits@D@std@@V?$allocator@D@2@@1@@Z 00436c40 f i ccClient.obj
 0002:00010c80       ??$destroy@V?$basic_string@DU?$char_traits@D@std@@V?$allocator@D@2@@std@@@?$allocator_traits@V?$allocator@V?$basic_string@DU?$char_traits@D@std@@V?$allocator@D@2@@std@@@std@@@std@@SAXAAV?$allocator@V?$basic_string@DU?$char_traits@D@std@@V?$allocator@D@2@@std@@@1@PAV?$basic_string@DU?$char_traits@D@std@@V?$allocator@D@2@@1@@Z 00436c80 f i ccClient.obj
 0002:00010ca0       ??$forward@ABV?$basic_string@DU?$char_traits@D@std@@V?$allocator@D@2@@std@@@std@@YAABV?$basic_string@DU?$char_traits@D@std@@V?$allocator@D@2@@0@ABV10@@Z 00436ca0 f i ccClient.obj
 0002:00010cb0       ??0?$_Deque_alloc@$0A@U?$_Deque_base_types@V?$basic_string@DU?$char_traits@D@std@@V?$allocator@D@2@@std@@V?$allocator@V?$basic_string@DU?$char_traits@D@std@@V?$allocator@D@2@@std@@@2@@std@@@std@@QAE@ABV?$allocator@V?$basic_string@DU?$char_traits@D@std@@V?$allocator@D@2@@std@@@1@@Z 00436cb0 f i ccClient.obj
 0002:00010d40       ??0?$_Deque_const_iterator@V?$_Deque_val@U?$_Deque_simple_types@V?$basic_string@DU?$char_traits@D@std@@V?$allocator@D@2@@std@@@std@@@std@@@std@@QAE@IPBU_Container_base12@1@@Z 00436d40 f i ccClient.obj
 0002:00010de0       ??0?$_Deque_iterator@V?$_Deque_val@U?$_Deque_simple_types@V?$basic_string@DU?$char_traits@D@std@@V?$allocator@D@2@@std@@@std@@@std@@@std@@QAE@IPBU_Container_base12@1@@Z 00436de0 f i ccClient.obj
 0002:00010e20       ??0?$_Deque_val@U?$_Deque_simple_types@V?$basic_string@DU?$char_traits@D@std@@V?$allocator@D@2@@std@@@std@@@std@@QAE@XZ 00436e20 f i ccClient.obj
 0002:00010ea0       ??0?$_Wrap_alloc@V?$allocator@U_Container_proxy@std@@@std@@@std@@QAE@XZ 00436ea0 f i ccClient.obj
 0002:00010ed0       ??0?$_Wrap_alloc@V?$allocator@V?$basic_string@DU?$char_traits@D@std@@V?$allocator@D@2@@std@@@std@@@std@@QAE@XZ 00436ed0 f i ccClient.obj
 0002:00010f00       ??0?$allocator@V?$basic_string@DU?$char_traits@D@std@@V?$allocator@D@2@@std@@@std@@QAE@XZ 00436f00 f i ccClient.obj
 0002:00010f20       ??0?$deque@V?$basic_string@DU?$char_traits@D@std@@V?$allocator@D@2@@std@@V?$allocator@V?$basic_string@DU?$char_traits@D@std@@V?$allocator@D@2@@std@@@2@@std@@QAE@XZ 00436f20 f i ccClient.obj
 0002:00010f70       ??0?$queue@V?$basic_string@DU?$char_traits@D@std@@V?$allocator@D@2@@std@@V?$deque@V?$basic_string@DU?$char_traits@D@std@@V?$allocator@D@2@@std@@V?$allocator@V?$basic_string@DU?$char_traits@D@std@@V?$allocator@D@2@@std@@@2@@2@@std@@QAE@XZ 00436f70 f i ccClient.obj
 0002:00010fa0       ??0_Ignore@std@@QAE@XZ     00436fa0 f i ccClient.obj
 0002:00010fc0       ??0_Iterator_base12@std@@QAE@XZ 00436fc0 f i ccClient.obj
 0002:00011000       ??1?$_Deque_alloc@$0A@U?$_Deque_base_types@V?$basic_string@DU?$char_traits@D@std@@V?$allocator@D@2@@std@@V?$allocator@V?$basic_string@DU?$char_traits@D@std@@V?$allocator@D@2@@std@@@2@@std@@@std@@QAE@XZ 00437000 f i ccClient.obj
 0002:00011040       ??1?$_Deque_const_iterator@V?$_Deque_val@U?$_Deque_simple_types@V?$basic_string@DU?$char_traits@D@std@@V?$allocator@D@2@@std@@@std@@@std@@@std@@QAE@XZ 00437040 f i ccClient.obj
 0002:00011070       ??1?$_Deque_iterator@V?$_Deque_val@U?$_Deque_simple_types@V?$basic_string@DU?$char_traits@D@std@@V?$allocator@D@2@@std@@@std@@@std@@@std@@QAE@XZ 00437070 f i ccClient.obj
 0002:000110a0       ??1?$_Deque_val@U?$_Deque_simple_types@V?$basic_string@DU?$char_traits@D@std@@V?$allocator@D@2@@std@@@std@@@std@@QAE@XZ 004370a0 f i ccClient.obj
 0002:000110e0       ??1?$deque@V?$basic_string@DU?$char_traits@D@std@@V?$allocator@D@2@@std@@V?$allocator@V?$basic_string@DU?$char_traits@D@std@@V?$allocator@D@2@@std@@@2@@std@@QAE@XZ 004370e0 f i ccClient.obj
 0002:00011120       ??1?$queue@V?$basic_string@DU?$char_traits@D@std@@V?$allocator@D@2@@std@@V?$deque@V?$basic_string@DU?$char_traits@D@std@@V?$allocator@D@2@@std@@V?$allocator@V?$basic_string@DU?$char_traits@D@std@@V?$allocator@D@2@@std@@@2@@2@@std@@QAE@XZ 00437120 f i ccClient.obj
 0002:00011150       ??1_Iterator_base12@std@@QAE@XZ 00437150 f i ccClient.obj
 0002:00011200       ??4?$basic_string@DU?$char_traits@D@std@@V?$allocator@D@2@@std@@QAEAAV01@PBD@Z 00437200 f i ccClient.obj
 0002:00011240       ??D?$_Deque_const_iterator@V?$_Deque_val@U?$_Deque_simple_types@V?$basic_string@DU?$char_traits@D@std@@V?$allocator@D@2@@std@@@std@@@std@@@std@@QBEABV?$basic_string@DU?$char_traits@D@std@@V?$allocator@D@2@@1@XZ 00437240 f i ccClient.obj
 0002:000113b0       ??D?$_Deque_iterator@V?$_Deque_val@U?$_Deque_simple_types@V?$basic_string@DU?$char_traits@D@std@@V?$allocator@D@2@@std@@@std@@@std@@@std@@QBEAAV?$basic_string@DU?$char_traits@D@std@@V?$allocator@D@2@@1@XZ 004373b0 f i ccClient.obj
 0002:000113e0       ??_G?$basic_string@DU?$char_traits@D@std@@V?$allocator@D@2@@std@@QAEPAXI@Z 004373e0 f i ccClient.obj
 0002:00011430       ??_EccClient@@UAEPAXI@Z    00437430 f i ccClient.obj
 0002:00011430       ??_GccClient@@UAEPAXI@Z    00437430 f i ccClient.obj
 0002:00011480       ?_Adopt@_Iterator_base12@std@@QAEXPBU_Container_base12@2@@Z 00437480 f i ccClient.obj
 0002:00011630       ?_Alloc_proxy@?$_Deque_alloc@$0A@U?$_Deque_base_types@V?$basic_string@DU?$char_traits@D@std@@V?$allocator@D@2@@std@@V?$allocator@V?$basic_string@DU?$char_traits@D@std@@V?$allocator@D@2@@std@@@2@@std@@@std@@QAEXXZ 00437630 f i ccClient.obj
 0002:000116f0       ?_Clrcont@_Iterator_base12@std@@QAEXXZ 004376f0 f i ccClient.obj
 0002:00011720       ?_Free_proxy@?$_Deque_alloc@$0A@U?$_Deque_base_types@V?$basic_string@DU?$char_traits@D@std@@V?$allocator@D@2@@std@@V?$allocator@V?$basic_string@DU?$char_traits@D@std@@V?$allocator@D@2@@std@@@2@@std@@@std@@QAEXXZ 00437720 f i ccClient.obj
 0002:000117e0       ?_Getal@?$_Deque_alloc@$0A@U?$_Deque_base_types@V?$basic_string@DU?$char_traits@D@std@@V?$allocator@D@2@@std@@V?$allocator@V?$basic_string@DU?$char_traits@D@std@@V?$allocator@D@2@@std@@@2@@std@@@std@@QBE?AU?$_Wrap_alloc@V?$allocator@V?$basic_string@DU?$char_traits@D@std@@V?$allocator@D@2@@std@@@std@@@2@XZ 004377e0 f i ccClient.obj
 0002:00011820       ?_Getblock@?$_Deque_val@U?$_Deque_simple_types@V?$basic_string@DU?$char_traits@D@std@@V?$allocator@D@2@@std@@@std@@@std@@QBEII@Z 00437820 f i ccClient.obj
 0002:00011850       ?_Getcont@_Iterator_base12@std@@QBEPBU_Container_base12@2@XZ 00437850 f i ccClient.obj
 0002:000118a0       ?_Getpnext@_Iterator_base12@std@@QAEPAPAU12@XZ 004378a0 f i ccClient.obj
 0002:000118c0       ?_Growmap@?$deque@V?$basic_string@DU?$char_traits@D@std@@V?$allocator@D@2@@std@@V?$allocator@V?$basic_string@DU?$char_traits@D@std@@V?$allocator@D@2@@std@@@2@@std@@IAEXI@Z 004378c0 f i ccClient.obj
 0002:00011ba0       ?_Orphan_me@_Iterator_base12@std@@QAEXXZ 00437ba0 f i ccClient.obj
 0002:00011c60       ?_Orphan_off@?$deque@V?$basic_string@DU?$char_traits@D@std@@V?$allocator@D@2@@std@@V?$allocator@V?$basic_string@DU?$char_traits@D@std@@V?$allocator@D@2@@std@@@2@@std@@IBEXI@Z 00437c60 f i ccClient.obj
 0002:00011e20       ?_Setcont@?$_Deque_const_iterator@V?$_Deque_val@U?$_Deque_simple_types@V?$basic_string@DU?$char_traits@D@std@@V?$allocator@D@2@@std@@@std@@@std@@@std@@QAEXPBV?$_Deque_val@U?$_Deque_simple_types@V?$basic_string@DU?$char_traits@D@std@@V?$allocator@D@2@@std@@@std@@@2@@Z 00437e20 f i ccClient.obj
 0002:00011e60       ?_Tidy@?$deque@V?$basic_string@DU?$char_traits@D@std@@V?$allocator@D@2@@std@@V?$allocator@V?$basic_string@DU?$char_traits@D@std@@V?$allocator@D@2@@std@@@2@@std@@IAEXXZ 00437e60 f i ccClient.obj
 0002:00011fd0       ?_Xlen@?$deque@V?$basic_string@DU?$char_traits@D@std@@V?$allocator@D@2@@std@@V?$allocator@V?$basic_string@DU?$char_traits@D@std@@V?$allocator@D@2@@std@@@2@@std@@IBEXXZ 00437fd0 f i ccClient.obj
 0002:00012010       ?allocate@?$_Wrap_alloc@V?$allocator@PAV?$basic_string@DU?$char_traits@D@std@@V?$allocator@D@2@@std@@@std@@@std@@QAEPAPAV?$basic_string@DU?$char_traits@D@std@@V?$allocator@D@2@@2@I@Z 00438010 f i ccClient.obj
 0002:00012050       ?allocate@?$_Wrap_alloc@V?$allocator@U_Container_proxy@std@@@std@@@std@@QAEPAU_Container_proxy@2@I@Z 00438050 f i ccClient.obj
 0002:00012090       ?allocate@?$_Wrap_alloc@V?$allocator@V?$basic_string@DU?$char_traits@D@std@@V?$allocator@D@2@@std@@@std@@@std@@QAEPAV?$basic_string@DU?$char_traits@D@std@@V?$allocator@D@2@@2@I@Z 00438090 f i ccClient.obj
 0002:000120d0       ?allocate@?$allocator@PAV?$basic_string@DU?$char_traits@D@std@@V?$allocator@D@2@@std@@@std@@QAEPAPAV?$basic_string@DU?$char_traits@D@std@@V?$allocator@D@2@@2@I@Z 004380d0 f i ccClient.obj
 0002:00012110       ?allocate@?$allocator@V?$basic_string@DU?$char_traits@D@std@@V?$allocator@D@2@@std@@@std@@QAEPAV?$basic_string@DU?$char_traits@D@std@@V?$allocator@D@2@@2@I@Z 00438110 f i ccClient.obj
 0002:00012150       ?begin@?$deque@V?$basic_string@DU?$char_traits@D@std@@V?$allocator@D@2@@std@@V?$allocator@V?$basic_string@DU?$char_traits@D@std@@V?$allocator@D@2@@std@@@2@@std@@QAE?AV?$_Deque_iterator@V?$_Deque_val@U?$_Deque_simple_types@V?$basic_string@DU?$char_traits@D@std@@V?$allocator@D@2@@std@@@std@@@std@@@2@XZ 00438150 f i ccClient.obj
 0002:000121a0       ?construct@?$allocator@V?$basic_string@DU?$char_traits@D@std@@V?$allocator@D@2@@std@@@std@@QAEXPAV?$basic_string@DU?$char_traits@D@std@@V?$allocator@D@2@@2@ABV32@@Z 004381a0 f i ccClient.obj
 0002:00012260       ?deallocate@?$_Wrap_alloc@V?$allocator@PAV?$basic_string@DU?$char_traits@D@std@@V?$allocator@D@2@@std@@@std@@@std@@QAEXPAPAV?$basic_string@DU?$char_traits@D@std@@V?$allocator@D@2@@2@I@Z 00438260 f i ccClient.obj
 0002:000122a0       ?deallocate@?$_Wrap_alloc@V?$allocator@U_Container_proxy@std@@@std@@@std@@QAEXPAU_Container_proxy@2@I@Z 004382a0 f i ccClient.obj
 0002:000122e0       ?deallocate@?$_Wrap_alloc@V?$allocator@V?$basic_string@DU?$char_traits@D@std@@V?$allocator@D@2@@std@@@std@@@std@@QAEXPAV?$basic_string@DU?$char_traits@D@std@@V?$allocator@D@2@@2@I@Z 004382e0 f i ccClient.obj
 0002:00012320       ?deallocate@?$allocator@PAV?$basic_string@DU?$char_traits@D@std@@V?$allocator@D@2@@std@@@std@@QAEXPAPAV?$basic_string@DU?$char_traits@D@std@@V?$allocator@D@2@@2@I@Z 00438320 f i ccClient.obj
 0002:00012360       ?deallocate@?$allocator@V?$basic_string@DU?$char_traits@D@std@@V?$allocator@D@2@@std@@@std@@QAEXPAV?$basic_string@DU?$char_traits@D@std@@V?$allocator@D@2@@2@I@Z 00438360 f i ccClient.obj
 0002:000123a0       ?empty@?$deque@V?$basic_string@DU?$char_traits@D@std@@V?$allocator@D@2@@std@@V?$allocator@V?$basic_string@DU?$char_traits@D@std@@V?$allocator@D@2@@std@@@2@@std@@QBE_NXZ 004383a0 f i ccClient.obj
 0002:000123f0       ?front@?$deque@V?$basic_string@DU?$char_traits@D@std@@V?$allocator@D@2@@std@@V?$allocator@V?$basic_string@DU?$char_traits@D@std@@V?$allocator@D@2@@std@@@2@@std@@QAEAAV?$basic_string@DU?$char_traits@D@std@@V?$allocator@D@2@@2@XZ 004383f0 f i ccClient.obj
 0002:000124b0       ?front@?$queue@V?$basic_string@DU?$char_traits@D@std@@V?$allocator@D@2@@std@@V?$deque@V?$basic_string@DU?$char_traits@D@std@@V?$allocator@D@2@@std@@V?$allocator@V?$basic_string@DU?$char_traits@D@std@@V?$allocator@D@2@@std@@@2@@2@@std@@QAEAAV?$basic_string@DU?$char_traits@D@std@@V?$allocator@D@2@@2@XZ 004384b0 f i ccClient.obj
 0002:000124e0       ?max_size@?$_Wrap_alloc@V?$allocator@V?$basic_string@DU?$char_traits@D@std@@V?$allocator@D@2@@std@@@std@@@std@@QBEIXZ 004384e0 f i ccClient.obj
 0002:00012520       ?max_size@?$allocator@V?$basic_string@DU?$char_traits@D@std@@V?$allocator@D@2@@std@@@std@@QBEIXZ 00438520 f i ccClient.obj
 0002:00012540       ?max_size@?$allocator_traits@V?$allocator@V?$basic_string@DU?$char_traits@D@std@@V?$allocator@D@2@@std@@@std@@@std@@SAIABV?$allocator@V?$basic_string@DU?$char_traits@D@std@@V?$allocator@D@2@@std@@@2@@Z 00438540 f i ccClient.obj
 0002:00012560       ?max_size@?$deque@V?$basic_string@DU?$char_traits@D@std@@V?$allocator@D@2@@std@@V?$allocator@V?$basic_string@DU?$char_traits@D@std@@V?$allocator@D@2@@std@@@2@@std@@QBEIXZ 00438560 f i ccClient.obj
 0002:000125b0       ?pop@?$queue@V?$basic_string@DU?$char_traits@D@std@@V?$allocator@D@2@@std@@V?$deque@V?$basic_string@DU?$char_traits@D@std@@V?$allocator@D@2@@std@@V?$allocator@V?$basic_string@DU?$char_traits@D@std@@V?$allocator@D@2@@std@@@2@@2@@std@@QAEXXZ 004385b0 f i ccClient.obj
 0002:000125e0       ?pop_back@?$deque@V?$basic_string@DU?$char_traits@D@std@@V?$allocator@D@2@@std@@V?$allocator@V?$basic_string@DU?$char_traits@D@std@@V?$allocator@D@2@@std@@@2@@std@@QAEXXZ 004385e0 f i ccClient.obj
 0002:00012700       ?pop_front@?$deque@V?$basic_string@DU?$char_traits@D@std@@V?$allocator@D@2@@std@@V?$allocator@V?$basic_string@DU?$char_traits@D@std@@V?$allocator@D@2@@std@@@2@@std@@QAEXXZ 00438700 f i ccClient.obj
 0002:00012830       ?push@?$queue@V?$basic_string@DU?$char_traits@D@std@@V?$allocator@D@2@@std@@V?$deque@V?$basic_string@DU?$char_traits@D@std@@V?$allocator@D@2@@std@@V?$allocator@V?$basic_string@DU?$char_traits@D@std@@V?$allocator@D@2@@std@@@2@@2@@std@@QAEX$$QAV?$basic_string@DU?$char_traits@D@std@@V?$allocator@D@2@@2@@Z 00438830 f i ccClient.obj
 0002:00012870       ?push@?$queue@V?$basic_string@DU?$char_traits@D@std@@V?$allocator@D@2@@std@@V?$deque@V?$basic_string@DU?$char_traits@D@std@@V?$allocator@D@2@@std@@V?$allocator@V?$basic_string@DU?$char_traits@D@std@@V?$allocator@D@2@@std@@@2@@2@@std@@QAEXABV?$basic_string@DU?$char_traits@D@std@@V?$allocator@D@2@@2@@Z 00438870 f i ccClient.obj
 0002:000128b0       ?push_back@?$deque@V?$basic_string@DU?$char_traits@D@std@@V?$allocator@D@2@@std@@V?$allocator@V?$basic_string@DU?$char_traits@D@std@@V?$allocator@D@2@@std@@@2@@std@@QAEX$$QAV?$basic_string@DU?$char_traits@D@std@@V?$allocator@D@2@@2@@Z 004388b0 f i ccClient.obj
 0002:00012a20       ?push_back@?$deque@V?$basic_string@DU?$char_traits@D@std@@V?$allocator@D@2@@std@@V?$allocator@V?$basic_string@DU?$char_traits@D@std@@V?$allocator@D@2@@std@@@2@@std@@QAEXABV?$basic_string@DU?$char_traits@D@std@@V?$allocator@D@2@@2@@Z 00438a20 f i ccClient.obj
 0002:00012b80       ?size@?$deque@V?$basic_string@DU?$char_traits@D@std@@V?$allocator@D@2@@std@@V?$allocator@V?$basic_string@DU?$char_traits@D@std@@V?$allocator@D@2@@std@@@2@@std@@QBEIXZ 00438b80 f i ccClient.obj
 0002:00012ba0       ?size@?$queue@V?$basic_string@DU?$char_traits@D@std@@V?$allocator@D@2@@std@@V?$deque@V?$basic_string@DU?$char_traits@D@std@@V?$allocator@D@2@@std@@V?$allocator@V?$basic_string@DU?$char_traits@D@std@@V?$allocator@D@2@@std@@@2@@2@@std@@QBEIXZ 00438ba0 f i ccClient.obj
 0002:00012bd0       ?readConfigSection@ccConfig@@SAXABV?$basic_string@DU?$char_traits@D@std@@V?$allocator@D@2@@std@@0AAV?$map@V?$basic_string@DU?$char_traits@D@std@@V?$allocator@D@2@@std@@V12@U?$less@V?$basic_string@DU?$char_traits@D@std@@V?$allocator@D@2@@std@@@2@V?$allocator@U?$pair@$$CBV?$basic_string@DU?$char_traits@D@std@@V?$allocator@D@2@@std@@V12@@std@@@2@@3@@Z 00438bd0 f   ccConfig.obj
 0002:00012dc0       ?readConfigSectionRoot@ccConfig@@SAXABV?$basic_string@DU?$char_traits@D@std@@V?$allocator@D@2@@std@@0AAV?$map@V?$basic_string@DU?$char_traits@D@std@@V?$allocator@D@2@@std@@V12@U?$less@V?$basic_string@DU?$char_traits@D@std@@V?$allocator@D@2@@std@@@2@V?$allocator@U?$pair@$$CBV?$basic_string@DU?$char_traits@D@std@@V?$allocator@D@2@@std@@V12@@std@@@2@@3@@Z 00438dc0 f   ccConfig.obj
 0002:00012ec0       ?readConfigSection@ccConfig@@SAXHABV?$basic_string@DU?$char_traits@D@std@@V?$allocator@D@2@@std@@AAV?$map@V?$basic_string@DU?$char_traits@D@std@@V?$allocator@D@2@@std@@V12@U?$less@V?$basic_string@DU?$char_traits@D@std@@V?$allocator@D@2@@std@@@2@V?$allocator@U?$pair@$$CBV?$basic_string@DU?$char_traits@D@std@@V?$allocator@D@2@@std@@V12@@std@@@2@@3@@Z 00438ec0 f   ccConfig.obj
 0002:00013030       ?deleteKeysFromSectionRoot@ccConfig@@SAXABV?$basic_string@DU?$char_traits@D@std@@V?$allocator@D@2@@std@@00@Z 00439030 f   ccConfig.obj
 0002:000132a0       ?writeConfigSection@ccConfig@@SAXABV?$basic_string@DU?$char_traits@D@std@@V?$allocator@D@2@@std@@0ABV?$map@V?$basic_string@DU?$char_traits@D@std@@V?$allocator@D@2@@std@@V12@U?$less@V?$basic_string@DU?$char_traits@D@std@@V?$allocator@D@2@@std@@@2@V?$allocator@U?$pair@$$CBV?$basic_string@DU?$char_traits@D@std@@V?$allocator@D@2@@std@@V12@@std@@@2@@3@@Z 004392a0 f   ccConfig.obj
 0002:00013490       ?writeConfigSectionRoot@ccConfig@@SAXABV?$basic_string@DU?$char_traits@D@std@@V?$allocator@D@2@@std@@0ABV?$map@V?$basic_string@DU?$char_traits@D@std@@V?$allocator@D@2@@std@@V12@U?$less@V?$basic_string@DU?$char_traits@D@std@@V?$allocator@D@2@@std@@@2@V?$allocator@U?$pair@$$CBV?$basic_string@DU?$char_traits@D@std@@V?$allocator@D@2@@std@@V12@@std@@@2@@3@@Z 00439490 f   ccConfig.obj
 0002:00013590       ?writeConfigSection@ccConfig@@SAXHABV?$basic_string@DU?$char_traits@D@std@@V?$allocator@D@2@@std@@ABV?$map@V?$basic_string@DU?$char_traits@D@std@@V?$allocator@D@2@@std@@V12@U?$less@V?$basic_string@DU?$char_traits@D@std@@V?$allocator@D@2@@std@@@2@V?$allocator@U?$pair@$$CBV?$basic_string@DU?$char_traits@D@std@@V?$allocator@D@2@@std@@V12@@std@@@2@@3@@Z 00439590 f   ccConfig.obj
 0002:00013700       ?getString@ccConfig@@SA?AV?$basic_string@DU?$char_traits@D@std@@V?$allocator@D@2@@std@@ABV23@000_N@Z 00439700 f   ccConfig.obj
 0002:00013910       ?getString@ccConfig@@SA?AV?$basic_string@DU?$char_traits@D@std@@V?$allocator@D@2@@std@@HABV23@00_N@Z 00439910 f   ccConfig.obj
 0002:00013b20       ?setString@ccConfig@@SAXABV?$basic_string@DU?$char_traits@D@std@@V?$allocator@D@2@@std@@000@Z 00439b20 f   ccConfig.obj
 0002:00013c60       ?setString@ccConfig@@SAXHABV?$basic_string@DU?$char_traits@D@std@@V?$allocator@D@2@@std@@00@Z 00439c60 f   ccConfig.obj
 0002:00013dc0       ?getInt@ccConfig@@SAHABV?$basic_string@DU?$char_traits@D@std@@V?$allocator@D@2@@std@@00H_N@Z 00439dc0 f   ccConfig.obj
 0002:00013fa0       ?getInt@ccConfig@@SAHHABV?$basic_string@DU?$char_traits@D@std@@V?$allocator@D@2@@std@@0H_N@Z 00439fa0 f   ccConfig.obj
 0002:00014190       ?getDevPath@ccConfig@@SA?AV?$basic_string@DU?$char_traits@D@std@@V?$allocator@D@2@@std@@XZ 0043a190 f   ccConfig.obj
 0002:000143d0       ?getSystem@ccConfig@@SA?AV?$basic_string@DU?$char_traits@D@std@@V?$allocator@D@2@@std@@XZ 0043a3d0 f   ccConfig.obj
 0002:00014510       ?getDevPath@ccConfig@@SA?AV?$basic_string@DU?$char_traits@D@std@@V?$allocator@D@2@@std@@H@Z 0043a510 f   ccConfig.obj
 0002:00014670       ?getDevPath@ccConfig@@SA?AV?$basic_string@DU?$char_traits@D@std@@V?$allocator@D@2@@std@@ABV23@@Z 0043a670 f   ccConfig.obj
 0002:00014770       ?isV4Based@ccConfig@@SA_NXZ 0043a770 f   ccConfig.obj
 0002:00014800       ?isV3Based@ccConfig@@SA_NXZ 0043a800 f   ccConfig.obj
 0002:000148d0       ?workstation@ccConfig@@SAHXZ 0043a8d0 f   ccConfig.obj
 0002:00014b40       ?sectionsAbs@ccConfig@@SAXABV?$basic_string@DU?$char_traits@D@std@@V?$allocator@D@2@@std@@AAV?$list@V?$basic_string@DU?$char_traits@D@std@@V?$allocator@D@2@@std@@V?$allocator@V?$basic_string@DU?$char_traits@D@std@@V?$allocator@D@2@@std@@@2@@3@@Z 0043ab40 f   ccConfig.obj
 0002:00014d50       ?sections@ccConfig@@SAXABV?$basic_string@DU?$char_traits@D@std@@V?$allocator@D@2@@std@@AAV?$list@V?$basic_string@DU?$char_traits@D@std@@V?$allocator@D@2@@std@@V?$allocator@V?$basic_string@DU?$char_traits@D@std@@V?$allocator@D@2@@std@@@2@@3@@Z 0043ad50 f   ccConfig.obj
 0002:00014f40       ?sectionsRoot@ccConfig@@SAXABV?$basic_string@DU?$char_traits@D@std@@V?$allocator@D@2@@std@@AAV?$list@V?$basic_string@DU?$char_traits@D@std@@V?$allocator@D@2@@std@@V?$allocator@V?$basic_string@DU?$char_traits@D@std@@V?$allocator@D@2@@std@@@2@@3@@Z 0043af40 f   ccConfig.obj
 0002:00015040       ?sections@ccConfig@@SAXHAAV?$list@V?$basic_string@DU?$char_traits@D@std@@V?$allocator@D@2@@std@@V?$allocator@V?$basic_string@DU?$char_traits@D@std@@V?$allocator@D@2@@std@@@2@@std@@@Z 0043b040 f   ccConfig.obj
 0002:000151b0       ?deleteSectionRoot@ccConfig@@SAXABV?$basic_string@DU?$char_traits@D@std@@V?$allocator@D@2@@std@@0@Z 0043b1b0 f   ccConfig.obj
 0002:000152b0       ??0ccConfig@@QAE@XZ        0043b2b0 f   ccConfig.obj
 0002:00015340       ??0ccConfig@@QAE@ABV?$basic_string@DU?$char_traits@D@std@@V?$allocator@D@2@@std@@0@Z 0043b340 f   ccConfig.obj
 0002:00015440       ??0ccConfig@@QAE@HABV?$basic_string@DU?$char_traits@D@std@@V?$allocator@D@2@@std@@@Z 0043b440 f   ccConfig.obj
 0002:00015540       ??1ccConfig@@UAE@XZ        0043b540 f   ccConfig.obj
 0002:00015590       ?getString@ccConfig@@QAE?AV?$basic_string@DU?$char_traits@D@std@@V?$allocator@D@2@@std@@ABV23@0_N@Z 0043b590 f   ccConfig.obj
 0002:00015720       ?setString@ccConfig@@QAEXABV?$basic_string@DU?$char_traits@D@std@@V?$allocator@D@2@@std@@0@Z 0043b720 f   ccConfig.obj
 0002:00015860       ?getInt@ccConfig@@QAEHABV?$basic_string@DU?$char_traits@D@std@@V?$allocator@D@2@@std@@H_N@Z 0043b860 f   ccConfig.obj
 0002:00015a40       ?developerMode@ccConfig@@SA_NXZ 0043ba40 f   ccConfig.obj
 0002:00015ac0       ?getLogPath@ccConfig@@SA?AV?$basic_string@DU?$char_traits@D@std@@V?$allocator@D@2@@std@@ABV23@0@Z 0043bac0 f   ccConfig.obj
 0002:00015c90       ?readConfigSectionAbs@ccConfig@@CAXABV?$basic_string@DU?$char_traits@D@std@@V?$allocator@D@2@@std@@0AAV?$map@V?$basic_string@DU?$char_traits@D@std@@V?$allocator@D@2@@std@@V12@U?$less@V?$basic_string@DU?$char_traits@D@std@@V?$allocator@D@2@@std@@@2@V?$allocator@U?$pair@$$CBV?$basic_string@DU?$char_traits@D@std@@V?$allocator@D@2@@std@@V12@@std@@@2@@3@@Z 0043bc90 f   ccConfig.obj
 0002:00016080       ?writeConfigSectionAbs@ccConfig@@CAXABV?$basic_string@DU?$char_traits@D@std@@V?$allocator@D@2@@std@@0ABV?$map@V?$basic_string@DU?$char_traits@D@std@@V?$allocator@D@2@@std@@V12@U?$less@V?$basic_string@DU?$char_traits@D@std@@V?$allocator@D@2@@std@@@2@V?$allocator@U?$pair@$$CBV?$basic_string@DU?$char_traits@D@std@@V?$allocator@D@2@@std@@V12@@std@@@2@@3@@Z 0043c080 f   ccConfig.obj
 0002:00016670       ?buftolower@ccConfig@@CAPADPAD@Z 0043c670 f   ccConfig.obj
 0002:00016700       ?strtolower@ccConfig@@CA?AV?$basic_string@DU?$char_traits@D@std@@V?$allocator@D@2@@std@@ABV23@@Z 0043c700 f   ccConfig.obj
 0002:00016820       ?find@ccConfig@@AAE?AV?$_Tree_iterator@V?$_Tree_val@U?$_Tree_simple_types@U?$pair@$$CBV?$basic_string@DU?$char_traits@D@std@@V?$allocator@D@2@@std@@V12@@std@@@std@@@std@@@std@@ABV?$basic_string@DU?$char_traits@D@std@@V?$allocator@D@2@@3@@Z 0043c820 f   ccConfig.obj
 0002:000179f0       ??$?0AAV?$_Tree_iterator@V?$_Tree_val@U?$_Tree_simple_types@U?$pair@$$CBV?$basic_string@DU?$char_traits@D@std@@V?$allocator@D@2@@std@@V12@@std@@@std@@@std@@@std@@_NX@?$pair@V?$_Tree_iterator@V?$_Tree_val@U?$_Tree_simple_types@U?$pair@$$CBV?$basic_string@DU?$char_traits@D@std@@V?$allocator@D@2@@std@@V12@@std@@@std@@@std@@@std@@_N@std@@QAE@AAV?$_Tree_iterator@V?$_Tree_val@U?$_Tree_simple_types@U?$pair@$$CBV?$basic_string@DU?$char_traits@D@std@@V?$allocator@D@2@@std@@V12@@std@@@std@@@std@@@1@$$QA_N@Z 0043d9f0 f i ccConfig.obj
 0002:00017aa0       ??$?0AAV?$basic_string@DU?$char_traits@D@std@@V?$allocator@D@2@@std@@AAV01@X@?$pair@V?$basic_string@DU?$char_traits@D@std@@V?$allocator@D@2@@std@@V12@@std@@QAE@AAV?$basic_string@DU?$char_traits@D@std@@V?$allocator@D@2@@1@0@Z 0043daa0 f i ccConfig.obj
 0002:00017b50       ??$?0U?$_Tree_node@U?$pair@$$CBV?$basic_string@DU?$char_traits@D@std@@V?$allocator@D@2@@std@@V12@@std@@PAX@std@@@?$allocator@U_Container_proxy@std@@@std@@QAE@ABV?$allocator@U?$_Tree_node@U?$pair@$$CBV?$basic_string@DU?$char_traits@D@std@@V?$allocator@D@2@@std@@V12@@std@@PAX@std@@@1@@Z 0043db50 f i ccConfig.obj
 0002:00017b70       ??$?0U?$_Wrap_alloc@V?$allocator@U?$_Tree_node@U?$pair@$$CBV?$basic_string@DU?$char_traits@D@std@@V?$allocator@D@2@@std@@V12@@std@@PAX@std@@@std@@@std@@@?$_Wrap_alloc@V?$allocator@U_Container_proxy@std@@@std@@@std@@QAE@ABU?$_Wrap_alloc@V?$allocator@U?$_Tree_node@U?$pair@$$CBV?$basic_string@DU?$char_traits@D@std@@V?$allocator@D@2@@std@@V12@@std@@PAX@std@@@std@@@1@@Z 0043db70 f i ccConfig.obj
 0002:00017bb0       ??$?0V?$_Tree_iterator@V?$_Tree_val@U?$_Tree_simple_types@U?$pair@$$CBV?$basic_string@DU?$char_traits@D@std@@V?$allocator@D@2@@std@@V12@@std@@@std@@@std@@@std@@_NX@?$pair@V?$_Tree_iterator@V?$_Tree_val@U?$_Tree_simple_types@U?$pair@$$CBV?$basic_string@DU?$char_traits@D@std@@V?$allocator@D@2@@std@@V12@@std@@@std@@@std@@@std@@_N@std@@QAE@$$QAV?$_Tree_iterator@V?$_Tree_val@U?$_Tree_simple_types@U?$pair@$$CBV?$basic_string@DU?$char_traits@D@std@@V?$allocator@D@2@@std@@V12@@std@@@std@@@std@@@1@$$QA_N@Z 0043dbb0 f i ccConfig.obj
 0002:00017c60       ??$?0V?$basic_string@DU?$char_traits@D@std@@V?$allocator@D@2@@std@@V01@X@?$pair@$$CBV?$basic_string@DU?$char_traits@D@std@@V?$allocator@D@2@@std@@V12@@std@@QAE@$$QAU?$pair@V?$basic_string@DU?$char_traits@D@std@@V?$allocator@D@2@@std@@V12@@1@@Z 0043dc60 f i ccConfig.obj
 0002:00017d10       ??$?8DU?$char_traits@D@std@@V?$allocator@D@1@@std@@YA_NABV?$basic_string@DU?$char_traits@D@std@@V?$allocator@D@2@@0@0@Z 0043dd10 f i ccConfig.obj
 0002:00017d60       ??$?8DU?$char_traits@D@std@@V?$allocator@D@1@@std@@YA_NABV?$basic_string@DU?$char_traits@D@std@@V?$allocator@D@2@@0@PBD@Z 0043dd60 f i ccConfig.obj
 0002:00017db0       ??$?MDU?$char_traits@D@std@@V?$allocator@D@1@@std@@YA_NABV?$basic_string@DU?$char_traits@D@std@@V?$allocator@D@2@@0@0@Z 0043ddb0 f i ccConfig.obj
 0002:00017e00       ??$_Allocate@U?$_List_node@V?$basic_string@DU?$char_traits@D@std@@V?$allocator@D@2@@std@@PAX@std@@@std@@YAPAU?$_List_node@V?$basic_string@DU?$char_traits@D@std@@V?$allocator@D@2@@std@@PAX@0@IPAU10@@Z 0043de00 f i ccConfig.obj
 0002:00017e80       ??$_Allocate@U?$_Tree_node@U?$pair@$$CBV?$basic_string@DU?$char_traits@D@std@@V?$allocator@D@2@@std@@V12@@std@@PAX@std@@@std@@YAPAU?$_Tree_node@U?$pair@$$CBV?$basic_string@DU?$char_traits@D@std@@V?$allocator@D@2@@std@@V12@@std@@PAX@0@IPAU10@@Z 0043de80 f i ccConfig.obj
 0002:00017f00       ??$_Buynode@U?$pair@V?$basic_string@DU?$char_traits@D@std@@V?$allocator@D@2@@std@@V12@@std@@@?$_Tree_buy@U?$pair@$$CBV?$basic_string@DU?$char_traits@D@std@@V?$allocator@D@2@@std@@V12@@std@@V?$allocator@U?$pair@$$CBV?$basic_string@DU?$char_traits@D@std@@V?$allocator@D@2@@std@@V12@@std@@@2@@std@@QAEPAU?$_Tree_node@U?$pair@$$CBV?$basic_string@DU?$char_traits@D@std@@V?$allocator@D@2@@std@@V12@@std@@PAX@1@$$QAU?$pair@V?$basic_string@DU?$char_traits@D@std@@V?$allocator@D@2@@std@@V12@@1@@Z 0043df00 f i ccConfig.obj
 0002:00018050       ??$_Buynode@V?$basic_string@DU?$char_traits@D@std@@V?$allocator@D@2@@std@@@?$_List_buy@V?$basic_string@DU?$char_traits@D@std@@V?$allocator@D@2@@std@@V?$allocator@V?$basic_string@DU?$char_traits@D@std@@V?$allocator@D@2@@std@@@2@@std@@QAEPAU?$_List_node@V?$basic_string@DU?$char_traits@D@std@@V?$allocator@D@2@@std@@PAX@1@PAU21@0$$QAV?$basic_string@DU?$char_traits@D@std@@V?$allocator@D@2@@1@@Z 0043e050 f i ccConfig.obj
 0002:000181a0       ??$_Buynode_if_nil@AAU?$pair@$$CBV?$basic_string@DU?$char_traits@D@std@@V?$allocator@D@2@@std@@V12@@std@@@?$_Tree@V?$_Tmap_traits@V?$basic_string@DU?$char_traits@D@std@@V?$allocator@D@2@@std@@V12@U?$less@V?$basic_string@DU?$char_traits@D@std@@V?$allocator@D@2@@std@@@2@V?$allocator@U?$pair@$$CBV?$basic_string@DU?$char_traits@D@std@@V?$allocator@D@2@@std@@V12@@std@@@2@$0A@@std@@@std@@IAEPAU?$_Tree_node@U?$pair@$$CBV?$basic_string@DU?$char_traits@D@std@@V?$allocator@D@2@@std@@V12@@std@@PAX@1@PAU21@AAU?$pair@$$CBV?$basic_string@DU?$char_traits@D@std@@V?$allocator@D@2@@std@@V12@@1@@Z 0043e1a0 f i ccConfig.obj
 0002:000181c0       ??$_Debug_lt_pred@U?$less@V?$basic_string@DU?$char_traits@D@std@@V?$allocator@D@2@@std@@@std@@ABV?$basic_string@DU?$char_traits@D@std@@V?$allocator@D@2@@2@ABV32@@std@@YA_NU?$less@V?$basic_string@DU?$char_traits@D@std@@V?$allocator@D@2@@std@@@0@ABV?$basic_string@DU?$char_traits@D@std@@V?$allocator@D@2@@0@1PB_WI@Z 0043e1c0 f i ccConfig.obj
 0002:00018270       ??$_Insert@V?$basic_string@DU?$char_traits@D@std@@V?$allocator@D@2@@std@@@?$list@V?$basic_string@DU?$char_traits@D@std@@V?$allocator@D@2@@std@@V?$allocator@V?$basic_string@DU?$char_traits@D@std@@V?$allocator@D@2@@std@@@2@@std@@QAEXV?$_List_unchecked_const_iterator@V?$_List_val@U?$_List_simple_types@V?$basic_string@DU?$char_traits@D@std@@V?$allocator@D@2@@std@@@std@@@std@@U_Iterator_base0@2@@1@$$QAV?$basic_string@DU?$char_traits@D@std@@V?$allocator@D@2@@1@@Z 0043e270 f i ccConfig.obj
 0002:00018340       ??$_Insert_at@AAU?$pair@$$CBV?$basic_string@DU?$char_traits@D@std@@V?$allocator@D@2@@std@@V12@@std@@PAU?$_Tree_node@U?$pair@$$CBV?$basic_string@DU?$char_traits@D@std@@V?$allocator@D@2@@std@@V12@@std@@PAX@2@@?$_Tree@V?$_Tmap_traits@V?$basic_string@DU?$char_traits@D@std@@V?$allocator@D@2@@std@@V12@U?$less@V?$basic_string@DU?$char_traits@D@std@@V?$allocator@D@2@@std@@@2@V?$allocator@U?$pair@$$CBV?$basic_string@DU?$char_traits@D@std@@V?$allocator@D@2@@std@@V12@@std@@@2@$0A@@std@@@std@@IAE?AV?$_Tree_iterator@V?$_Tree_val@U?$_Tree_simple_types@U?$pair@$$CBV?$basic_string@DU?$char_traits@D@std@@V?$allocator@D@2@@std@@V12@@std@@@std@@@std@@@1@_NPAU?$_Tree_node@U?$pair@$$CBV?$basic_string@DU?$char_traits@D@std@@V?$allocator@D@2@@std@@V12@@std@@PAX@1@AAU?$pair@$$CBV?$basic_string@DU?$char_traits@D@std@@V?$allocator@D@2@@std@@V12@@1@1@Z 0043e340 f i ccConfig.obj
 0002:000188b0       ??$_Insert_nohint@AAU?$pair@$$CBV?$basic_string@DU?$char_traits@D@std@@V?$allocator@D@2@@std@@V12@@std@@PAU?$_Tree_node@U?$pair@$$CBV?$basic_string@DU?$char_traits@D@std@@V?$allocator@D@2@@std@@V12@@std@@PAX@2@@?$_Tree@V?$_Tmap_traits@V?$basic_string@DU?$char_traits@D@std@@V?$allocator@D@2@@std@@V12@U?$less@V?$basic_string@DU?$char_traits@D@std@@V?$allocator@D@2@@std@@@2@V?$allocator@U?$pair@$$CBV?$basic_string@DU?$char_traits@D@std@@V?$allocator@D@2@@std@@V12@@std@@@2@$0A@@std@@@std@@IAE?AU?$pair@V?$_Tree_iterator@V?$_Tree_val@U?$_Tree_simple_types@U?$pair@$$CBV?$basic_string@DU?$char_traits@D@std@@V?$allocator@D@2@@std@@V12@@std@@@std@@@std@@@std@@_N@1@_NAAU?$pair@$$CBV?$basic_string@DU?$char_traits@D@std@@V?$allocator@D@2@@std@@V12@@1@PAU?$_Tree_node@U?$pair@$$CBV?$basic_string@DU?$char_traits@D@std@@V?$allocator@D@2@@std@@V12@@std@@PAX@1@@Z 0043e8b0 f i ccConfig.obj
 0002:00018f70       ??$_Kfn@$$CBV?$basic_string@DU?$char_traits@D@std@@V?$allocator@D@2@@std@@V12@@?$_Tmap_traits@V?$basic_string@DU?$char_traits@D@std@@V?$allocator@D@2@@std@@V12@U?$less@V?$basic_string@DU?$char_traits@D@std@@V?$allocator@D@2@@std@@@2@V?$allocator@U?$pair@$$CBV?$basic_string@DU?$char_traits@D@std@@V?$allocator@D@2@@std@@V12@@std@@@2@$0A@@std@@SAABV?$basic_string@DU?$char_traits@D@std@@V?$allocator@D@2@@1@ABU?$pair@$$CBV?$basic_string@DU?$char_traits@D@std@@V?$allocator@D@2@@std@@V12@@1@@Z 0043ef70 f i ccConfig.obj
 0002:00018f80       ??$_Move@AAD@std@@YA$$QADAAD@Z 0043ef80 f i ccConfig.obj
 0002:00018f90       ??$addressof@$$CBU?$pair@$$CBV?$basic_string@DU?$char_traits@D@std@@V?$allocator@D@2@@std@@V12@@std@@@std@@YAPBU?$pair@$$CBV?$basic_string@DU?$char_traits@D@std@@V?$allocator@D@2@@std@@V12@@0@ABU10@@Z 0043ef90 f i ccConfig.obj
 0002:00018fa0       ??$addressof@PAU?$_List_node@V?$basic_string@DU?$char_traits@D@std@@V?$allocator@D@2@@std@@PAX@std@@@std@@YAPAPAU?$_List_node@V?$basic_string@DU?$char_traits@D@std@@V?$allocator@D@2@@std@@PAX@0@AAPAU10@@Z 0043efa0 f i ccConfig.obj
 0002:00018fb0       ??$addressof@PAU?$_Tree_node@U?$pair@$$CBV?$basic_string@DU?$char_traits@D@std@@V?$allocator@D@2@@std@@V12@@std@@PAX@std@@@std@@YAPAPAU?$_Tree_node@U?$pair@$$CBV?$basic_string@DU?$char_traits@D@std@@V?$allocator@D@2@@std@@V12@@std@@PAX@0@AAPAU10@@Z 0043efb0 f i ccConfig.obj
 0002:00018fc0       ??$addressof@U?$pair@$$CBV?$basic_string@DU?$char_traits@D@std@@V?$allocator@D@2@@std@@V12@@std@@@std@@YAPAU?$pair@$$CBV?$basic_string@DU?$char_traits@D@std@@V?$allocator@D@2@@std@@V12@@0@AAU10@@Z 0043efc0 f i ccConfig.obj
 0002:00018fd0       ??$addressof@V?$basic_string@DU?$char_traits@D@std@@V?$allocator@D@2@@std@@@std@@YAPAV?$basic_string@DU?$char_traits@D@std@@V?$allocator@D@2@@0@AAV10@@Z 0043efd0 f i ccConfig.obj
 0002:00018fe0       ??$assign@V?$_String_iterator@V?$_String_val@U?$_Simple_types@D@std@@@std@@@std@@@?$basic_string@DU?$char_traits@D@std@@V?$allocator@D@2@@std@@QAEAAV01@V?$_String_iterator@V?$_String_val@U?$_Simple_types@D@std@@@std@@@1@0@Z 0043efe0 f i ccConfig.obj
 0002:00019180       ??$construct@PAU?$_List_node@V?$basic_string@DU?$char_traits@D@std@@V?$allocator@D@2@@std@@PAX@std@@AAPAU12@@?$_Wrap_alloc@V?$allocator@U?$_List_node@V?$basic_string@DU?$char_traits@D@std@@V?$allocator@D@2@@std@@PAX@std@@@std@@@std@@QAEXPAPAU?$_List_node@V?$basic_string@DU?$char_traits@D@std@@V?$allocator@D@2@@std@@PAX@1@AAPAU21@@Z 0043f180 f i ccConfig.obj
 0002:000191d0       ??$construct@PAU?$_List_node@V?$basic_string@DU?$char_traits@D@std@@V?$allocator@D@2@@std@@PAX@std@@AAPAU12@@?$allocator@U?$_List_node@V?$basic_string@DU?$char_traits@D@std@@V?$allocator@D@2@@std@@PAX@std@@@std@@QAEXPAPAU?$_List_node@V?$basic_string@DU?$char_traits@D@std@@V?$allocator@D@2@@std@@PAX@1@AAPAU21@@Z 0043f1d0 f i ccConfig.obj
 0002:000192a0       ??$construct@PAU?$_List_node@V?$basic_string@DU?$char_traits@D@std@@V?$allocator@D@2@@std@@PAX@std@@AAPAU12@@?$allocator_traits@V?$allocator@U?$_List_node@V?$basic_string@DU?$char_traits@D@std@@V?$allocator@D@2@@std@@PAX@std@@@std@@@std@@SAXAAV?$allocator@U?$_List_node@V?$basic_string@DU?$char_traits@D@std@@V?$allocator@D@2@@std@@PAX@std@@@1@PAPAU?$_List_node@V?$basic_string@DU?$char_traits@D@std@@V?$allocator@D@2@@std@@PAX@1@AAPAU31@@Z 0043f2a0 f i ccConfig.obj
 0002:000192d0       ??$construct@PAU?$_Tree_node@U?$pair@$$CBV?$basic_string@DU?$char_traits@D@std@@V?$allocator@D@2@@std@@V12@@std@@PAX@std@@AAPAU12@@?$_Wrap_alloc@V?$allocator@U?$_Tree_node@U?$pair@$$CBV?$basic_string@DU?$char_traits@D@std@@V?$allocator@D@2@@std@@V12@@std@@PAX@std@@@std@@@std@@QAEXPAPAU?$_Tree_node@U?$pair@$$CBV?$basic_string@DU?$char_traits@D@std@@V?$allocator@D@2@@std@@V12@@std@@PAX@1@AAPAU21@@Z 0043f2d0 f i ccConfig.obj
 0002:00019320       ??$construct@PAU?$_Tree_node@U?$pair@$$CBV?$basic_string@DU?$char_traits@D@std@@V?$allocator@D@2@@std@@V12@@std@@PAX@std@@AAPAU12@@?$allocator@U?$_Tree_node@U?$pair@$$CBV?$basic_string@DU?$char_traits@D@std@@V?$allocator@D@2@@std@@V12@@std@@PAX@std@@@std@@QAEXPAPAU?$_Tree_node@U?$pair@$$CBV?$basic_string@DU?$char_traits@D@std@@V?$allocator@D@2@@std@@V12@@std@@PAX@1@AAPAU21@@Z 0043f320 f i ccConfig.obj
 0002:000193f0       ??$construct@PAU?$_Tree_node@U?$pair@$$CBV?$basic_string@DU?$char_traits@D@std@@V?$allocator@D@2@@std@@V12@@std@@PAX@std@@AAPAU12@@?$allocator_traits@V?$allocator@U?$_Tree_node@U?$pair@$$CBV?$basic_string@DU?$char_traits@D@std@@V?$allocator@D@2@@std@@V12@@std@@PAX@std@@@std@@@std@@SAXAAV?$allocator@U?$_Tree_node@U?$pair@$$CBV?$basic_string@DU?$char_traits@D@std@@V?$allocator@D@2@@std@@V12@@std@@PAX@std@@@1@PAPAU?$_Tree_node@U?$pair@$$CBV?$basic_string@DU?$char_traits@D@std@@V?$allocator@D@2@@std@@V12@@std@@PAX@1@AAPAU31@@Z 0043f3f0 f i ccConfig.obj
 0002:00019420       ??$construct@U?$pair@$$CBV?$basic_string@DU?$char_traits@D@std@@V?$allocator@D@2@@std@@V12@@std@@U?$pair@V?$basic_string@DU?$char_traits@D@std@@V?$allocator@D@2@@std@@V12@@2@@?$_Wrap_alloc@V?$allocator@U?$_Tree_node@U?$pair@$$CBV?$basic_string@DU?$char_traits@D@std@@V?$allocator@D@2@@std@@V12@@std@@PAX@std@@@std@@@std@@QAEXPAU?$pair@$$CBV?$basic_string@DU?$char_traits@D@std@@V?$allocator@D@2@@std@@V12@@1@$$QAU?$pair@V?$basic_string@DU?$char_traits@D@std@@V?$allocator@D@2@@std@@V12@@1@@Z 0043f420 f i ccConfig.obj
 0002:00019470       ??$construct@U?$pair@$$CBV?$basic_string@DU?$char_traits@D@std@@V?$allocator@D@2@@std@@V12@@std@@U?$pair@V?$basic_string@DU?$char_traits@D@std@@V?$allocator@D@2@@std@@V12@@2@@?$allocator@U?$_Tree_node@U?$pair@$$CBV?$basic_string@DU?$char_traits@D@std@@V?$allocator@D@2@@std@@V12@@std@@PAX@std@@@std@@QAEXPAU?$pair@$$CBV?$basic_string@DU?$char_traits@D@std@@V?$allocator@D@2@@std@@V12@@1@$$QAU?$pair@V?$basic_string@DU?$char_traits@D@std@@V?$allocator@D@2@@std@@V12@@1@@Z 0043f470 f i ccConfig.obj
 0002:00019540       ??$construct@U?$pair@$$CBV?$basic_string@DU?$char_traits@D@std@@V?$allocator@D@2@@std@@V12@@std@@U?$pair@V?$basic_string@DU?$char_traits@D@std@@V?$allocator@D@2@@std@@V12@@2@@?$allocator_traits@V?$allocator@U?$_Tree_node@U?$pair@$$CBV?$basic_string@DU?$char_traits@D@std@@V?$allocator@D@2@@std@@V12@@std@@PAX@std@@@std@@@std@@SAXAAV?$allocator@U?$_Tree_node@U?$pair@$$CBV?$basic_string@DU?$char_traits@D@std@@V?$allocator@D@2@@std@@V12@@std@@PAX@std@@@1@PAU?$pair@$$CBV?$basic_string@DU?$char_traits@D@std@@V?$allocator@D@2@@std@@V12@@1@$$QAU?$pair@V?$basic_string@DU?$char_traits@D@std@@V?$allocator@D@2@@std@@V12@@1@@Z 0043f540 f i ccConfig.obj
 0002:00019570       ??$construct@V?$basic_string@DU?$char_traits@D@std@@V?$allocator@D@2@@std@@V12@@?$_Wrap_alloc@V?$allocator@U?$_List_node@V?$basic_string@DU?$char_traits@D@std@@V?$allocator@D@2@@std@@PAX@std@@@std@@@std@@QAEXPAV?$basic_string@DU?$char_traits@D@std@@V?$allocator@D@2@@1@$$QAV21@@Z 0043f570 f i ccConfig.obj
 0002:000195c0       ??$construct@V?$basic_string@DU?$char_traits@D@std@@V?$allocator@D@2@@std@@V12@@?$allocator@U?$_List_node@V?$basic_string@DU?$char_traits@D@std@@V?$allocator@D@2@@std@@PAX@std@@@std@@QAEXPAV?$basic_string@DU?$char_traits@D@std@@V?$allocator@D@2@@1@$$QAV21@@Z 0043f5c0 f i ccConfig.obj
 0002:00019690       ??$construct@V?$basic_string@DU?$char_traits@D@std@@V?$allocator@D@2@@std@@V12@@?$allocator_traits@V?$allocator@U?$_List_node@V?$basic_string@DU?$char_traits@D@std@@V?$allocator@D@2@@std@@PAX@std@@@std@@@std@@SAXAAV?$allocator@U?$_List_node@V?$basic_string@DU?$char_traits@D@std@@V?$allocator@D@2@@std@@PAX@std@@@1@PAV?$basic_string@DU?$char_traits@D@std@@V?$allocator@D@2@@1@$$QAV31@@Z 0043f690 f i ccConfig.obj
 0002:000196c0       ??$destroy@PAU?$_Tree_node@U?$pair@$$CBV?$basic_string@DU?$char_traits@D@std@@V?$allocator@D@2@@std@@V12@@std@@PAX@std@@@?$_Wrap_alloc@V?$allocator@U?$_Tree_node@U?$pair@$$CBV?$basic_string@DU?$char_traits@D@std@@V?$allocator@D@2@@std@@V12@@std@@PAX@std@@@std@@@std@@QAEXPAPAU?$_Tree_node@U?$pair@$$CBV?$basic_string@DU?$char_traits@D@std@@V?$allocator@D@2@@std@@V12@@std@@PAX@1@@Z 0043f6c0 f i ccConfig.obj
 0002:00019700       ??$destroy@PAU?$_Tree_node@U?$pair@$$CBV?$basic_string@DU?$char_traits@D@std@@V?$allocator@D@2@@std@@V12@@std@@PAX@std@@@?$allocator@U?$_Tree_node@U?$pair@$$CBV?$basic_string@DU?$char_traits@D@std@@V?$allocator@D@2@@std@@V12@@std@@PAX@std@@@std@@QAEXPAPAU?$_Tree_node@U?$pair@$$CBV?$basic_string@DU?$char_traits@D@std@@V?$allocator@D@2@@std@@V12@@std@@PAX@1@@Z 0043f700 f i ccConfig.obj
 0002:00019720       ??$destroy@PAU?$_Tree_node@U?$pair@$$CBV?$basic_string@DU?$char_traits@D@std@@V?$allocator@D@2@@std@@V12@@std@@PAX@std@@@?$allocator_traits@V?$allocator@U?$_Tree_node@U?$pair@$$CBV?$basic_string@DU?$char_traits@D@std@@V?$allocator@D@2@@std@@V12@@std@@PAX@std@@@std@@@std@@SAXAAV?$allocator@U?$_Tree_node@U?$pair@$$CBV?$basic_string@DU?$char_traits@D@std@@V?$allocator@D@2@@std@@V12@@std@@PAX@std@@@1@PAPAU?$_Tree_node@U?$pair@$$CBV?$basic_string@DU?$char_traits@D@std@@V?$allocator@D@2@@std@@V12@@std@@PAX@1@@Z 0043f720 f i ccConfig.obj
 0002:00019740       ??$destroy@U?$pair@$$CBV?$basic_string@DU?$char_traits@D@std@@V?$allocator@D@2@@std@@V12@@std@@@?$_Wrap_alloc@V?$allocator@U?$_Tree_node@U?$pair@$$CBV?$basic_string@DU?$char_traits@D@std@@V?$allocator@D@2@@std@@V12@@std@@PAX@std@@@std@@@std@@QAEXPAU?$pair@$$CBV?$basic_string@DU?$char_traits@D@std@@V?$allocator@D@2@@std@@V12@@1@@Z 0043f740 f i ccConfig.obj
 0002:00019780       ??$destroy@U?$pair@$$CBV?$basic_string@DU?$char_traits@D@std@@V?$allocator@D@2@@std@@V12@@std@@@?$allocator@U?$_Tree_node@U?$pair@$$CBV?$basic_string@DU?$char_traits@D@std@@V?$allocator@D@2@@std@@V12@@std@@PAX@std@@@std@@QAEXPAU?$pair@$$CBV?$basic_string@DU?$char_traits@D@std@@V?$allocator@D@2@@std@@V12@@1@@Z 0043f780 f i ccConfig.obj
 0002:000197c0       ??$destroy@U?$pair@$$CBV?$basic_string@DU?$char_traits@D@std@@V?$allocator@D@2@@std@@V12@@std@@@?$allocator_traits@V?$allocator@U?$_Tree_node@U?$pair@$$CBV?$basic_string@DU?$char_traits@D@std@@V?$allocator@D@2@@std@@V12@@std@@PAX@std@@@std@@@std@@SAXAAV?$allocator@U?$_Tree_node@U?$pair@$$CBV?$basic_string@DU?$char_traits@D@std@@V?$allocator@D@2@@std@@V12@@std@@PAX@std@@@1@PAU?$pair@$$CBV?$basic_string@DU?$char_traits@D@std@@V?$allocator@D@2@@std@@V12@@1@@Z 0043f7c0 f i ccConfig.obj
 0002:000197e0       ??$forward@AAPAU?$_List_node@V?$basic_string@DU?$char_traits@D@std@@V?$allocator@D@2@@std@@PAX@std@@@std@@YAAAPAU?$_List_node@V?$basic_string@DU?$char_traits@D@std@@V?$allocator@D@2@@std@@PAX@0@AAPAU10@@Z 0043f7e0 f i ccConfig.obj
 0002:000197f0       ??$forward@AAPAU?$_Tree_node@U?$pair@$$CBV?$basic_string@DU?$char_traits@D@std@@V?$allocator@D@2@@std@@V12@@std@@PAX@std@@@std@@YAAAPAU?$_Tree_node@U?$pair@$$CBV?$basic_string@DU?$char_traits@D@std@@V?$allocator@D@2@@std@@V12@@std@@PAX@0@AAPAU10@@Z 0043f7f0 f i ccConfig.obj
 0002:00019800       ??$forward@AAU?$pair@$$CBV?$basic_string@DU?$char_traits@D@std@@V?$allocator@D@2@@std@@V12@@std@@@std@@YAAAU?$pair@$$CBV?$basic_string@DU?$char_traits@D@std@@V?$allocator@D@2@@std@@V12@@0@AAU10@@Z 0043f800 f i ccConfig.obj
 0002:00019810       ??$forward@AAV?$_Tree_iterator@V?$_Tree_val@U?$_Tree_simple_types@U?$pair@$$CBV?$basic_string@DU?$char_traits@D@std@@V?$allocator@D@2@@std@@V12@@std@@@std@@@std@@@std@@@std@@YAAAV?$_Tree_iterator@V?$_Tree_val@U?$_Tree_simple_types@U?$pair@$$CBV?$basic_string@DU?$char_traits@D@std@@V?$allocator@D@2@@std@@V12@@std@@@std@@@std@@@0@AAV10@@Z 0043f810 f i ccConfig.obj
 0002:00019820       ??$forward@AAV?$basic_string@DU?$char_traits@D@std@@V?$allocator@D@2@@std@@@std@@YAAAV?$basic_string@DU?$char_traits@D@std@@V?$allocator@D@2@@0@AAV10@@Z 0043f820 f i ccConfig.obj
 0002:00019830       ??$forward@U?$pair@V?$basic_string@DU?$char_traits@D@std@@V?$allocator@D@2@@std@@V12@@std@@@std@@YA$$QAU?$pair@V?$basic_string@DU?$char_traits@D@std@@V?$allocator@D@2@@std@@V12@@0@AAU10@@Z 0043f830 f i ccConfig.obj
 0002:00019840       ??$forward@V?$_Tree_iterator@V?$_Tree_val@U?$_Tree_simple_types@U?$pair@$$CBV?$basic_string@DU?$char_traits@D@std@@V?$allocator@D@2@@std@@V12@@std@@@std@@@std@@@std@@@std@@YA$$QAV?$_Tree_iterator@V?$_Tree_val@U?$_Tree_simple_types@U?$pair@$$CBV?$basic_string@DU?$char_traits@D@std@@V?$allocator@D@2@@std@@V12@@std@@@std@@@std@@@0@AAV10@@Z 0043f840 f i ccConfig.obj
 0002:00019850       ??$forward@_N@std@@YA$$QA_NAA_N@Z 0043f850 f i ccConfig.obj
 0002:00019860       ??$insert@U?$pair@V?$basic_string@DU?$char_traits@D@std@@V?$allocator@D@2@@std@@V12@@std@@@?$_Tree@V?$_Tmap_traits@V?$basic_string@DU?$char_traits@D@std@@V?$allocator@D@2@@std@@V12@U?$less@V?$basic_string@DU?$char_traits@D@std@@V?$allocator@D@2@@std@@@2@V?$allocator@U?$pair@$$CBV?$basic_string@DU?$char_traits@D@std@@V?$allocator@D@2@@std@@V12@@std@@@2@$0A@@std@@@std@@QAE?AU?$pair@V?$_Tree_iterator@V?$_Tree_val@U?$_Tree_simple_types@U?$pair@$$CBV?$basic_string@DU?$char_traits@D@std@@V?$allocator@D@2@@std@@V12@@std@@@std@@@std@@@std@@_N@1@$$QAU?$pair@V?$basic_string@DU?$char_traits@D@std@@V?$allocator@D@2@@std@@V12@@1@@Z 0043f860 f i ccConfig.obj
 0002:00019900       ??$swap@D@std@@YAXAAD0@Z   0043f900 f i ccConfig.obj
 0002:000199b0       ??0?$_Iterator012@Ubidirectional_iterator_tag@std@@U?$pair@$$CBV?$basic_string@DU?$char_traits@D@std@@V?$allocator@D@2@@std@@V12@@2@HPBU32@ABU32@U_Iterator_base12@2@@std@@QAE@ABU01@@Z 0043f9b0 f i ccConfig.obj
 0002:000199f0       ??0?$_Iterator012@Ubidirectional_iterator_tag@std@@U?$pair@$$CBV?$basic_string@DU?$char_traits@D@std@@V?$allocator@D@2@@std@@V12@@2@HPBU32@ABU32@U_Iterator_base12@2@@std@@QAE@XZ 0043f9f0 f i ccConfig.obj
 0002:00019a20       ??0?$_Iterator012@Urandom_access_iterator_tag@std@@DHPBDABDU_Iterator_base12@2@@std@@QAE@ABU01@@Z 0043fa20 f i ccConfig.obj
 0002:00019a60       ??0?$_Iterator012@Urandom_access_iterator_tag@std@@DHPBDABDU_Iterator_base12@2@@std@@QAE@XZ 0043fa60 f i ccConfig.obj
 0002:00019a90       ??0?$_List_unchecked_const_iterator@V?$_List_val@U?$_List_simple_types@V?$basic_string@DU?$char_traits@D@std@@V?$allocator@D@2@@std@@@std@@@std@@U_Iterator_base0@2@@std@@QAE@PAU?$_List_node@V?$basic_string@DU?$char_traits@D@std@@V?$allocator@D@2@@std@@PAX@1@PBV?$_List_val@U?$_List_simple_types@V?$basic_string@DU?$char_traits@D@std@@V?$allocator@D@2@@std@@@std@@@1@@Z 0043fa90 f i ccConfig.obj
 0002:00019ae0       ??0?$_List_unchecked_iterator@V?$_List_val@U?$_List_simple_types@V?$basic_string@DU?$char_traits@D@std@@V?$allocator@D@2@@std@@@std@@@std@@@std@@QAE@PAU?$_List_node@V?$basic_string@DU?$char_traits@D@std@@V?$allocator@D@2@@std@@PAX@1@PBV?$_List_val@U?$_List_simple_types@V?$basic_string@DU?$char_traits@D@std@@V?$allocator@D@2@@std@@@std@@@1@@Z 0043fae0 f i ccConfig.obj
 0002:00019b20       ??0?$_String_const_iterator@V?$_String_val@U?$_Simple_types@D@std@@@std@@@std@@QAE@ABV01@@Z 0043fb20 f i ccConfig.obj
 0002:00019b70       ??0?$_String_const_iterator@V?$_String_val@U?$_Simple_types@D@std@@@std@@@std@@QAE@PBDPBU_Container_base12@1@@Z 0043fb70 f i ccConfig.obj
 0002:00019c10       ??0?$_String_iterator@V?$_String_val@U?$_Simple_types@D@std@@@std@@@std@@QAE@ABV01@@Z 0043fc10 f i ccConfig.obj
 0002:00019c50       ??0?$_String_iterator@V?$_String_val@U?$_Simple_types@D@std@@@std@@@std@@QAE@PADPBU_Container_base12@1@@Z 0043fc50 f i ccConfig.obj
 0002:00019c90       ??0?$_Tree@V?$_Tmap_traits@V?$basic_string@DU?$char_traits@D@std@@V?$allocator@D@2@@std@@V12@U?$less@V?$basic_string@DU?$char_traits@D@std@@V?$allocator@D@2@@std@@@2@V?$allocator@U?$pair@$$CBV?$basic_string@DU?$char_traits@D@std@@V?$allocator@D@2@@std@@V12@@std@@@2@$0A@@std@@@std@@QAE@ABU?$less@V?$basic_string@DU?$char_traits@D@std@@V?$allocator@D@2@@std@@@1@ABV?$allocator@U?$pair@$$CBV?$basic_string@DU?$char_traits@D@std@@V?$allocator@D@2@@std@@V12@@std@@@1@@Z 0043fc90 f i ccConfig.obj
 0002:00019cd0       ??0?$_Tree_alloc@$0A@U?$_Tree_base_types@U?$pair@$$CBV?$basic_string@DU?$char_traits@D@std@@V?$allocator@D@2@@std@@V12@@std@@V?$allocator@U?$pair@$$CBV?$basic_string@DU?$char_traits@D@std@@V?$allocator@D@2@@std@@V12@@std@@@2@@std@@@std@@QAE@ABV?$allocator@U?$pair@$$CBV?$basic_string@DU?$char_traits@D@std@@V?$allocator@D@2@@std@@V12@@std@@@1@@Z 0043fcd0 f i ccConfig.obj
 0002:00019dc0       ??0?$_Tree_buy@U?$pair@$$CBV?$basic_string@DU?$char_traits@D@std@@V?$allocator@D@2@@std@@V12@@std@@V?$allocator@U?$pair@$$CBV?$basic_string@DU?$char_traits@D@std@@V?$allocator@D@2@@std@@V12@@std@@@2@@std@@QAE@ABV?$allocator@U?$pair@$$CBV?$basic_string@DU?$char_traits@D@std@@V?$allocator@D@2@@std@@V12@@std@@@1@@Z 0043fdc0 f i ccConfig.obj
 0002:00019e00       ??0?$_Tree_comp@$0A@V?$_Tmap_traits@V?$basic_string@DU?$char_traits@D@std@@V?$allocator@D@2@@std@@V12@U?$less@V?$basic_string@DU?$char_traits@D@std@@V?$allocator@D@2@@std@@@2@V?$allocator@U?$pair@$$CBV?$basic_string@DU?$char_traits@D@std@@V?$allocator@D@2@@std@@V12@@std@@@2@$0A@@std@@@std@@QAE@ABU?$less@V?$basic_string@DU?$char_traits@D@std@@V?$allocator@D@2@@std@@@1@ABV?$allocator@U?$pair@$$CBV?$basic_string@DU?$char_traits@D@std@@V?$allocator@D@2@@std@@V12@@std@@@1@@Z 0043fe00 f i ccConfig.obj
 0002:00019e40       ??0?$_Tree_const_iterator@V?$_Tree_val@U?$_Tree_simple_types@U?$pair@$$CBV?$basic_string@DU?$char_traits@D@std@@V?$allocator@D@2@@std@@V12@@std@@@std@@@std@@@std@@QAE@ABV01@@Z 0043fe40 f i ccConfig.obj
 0002:00019e80       ??0?$_Tree_const_iterator@V?$_Tree_val@U?$_Tree_simple_types@U?$pair@$$CBV?$basic_string@DU?$char_traits@D@std@@V?$allocator@D@2@@std@@V12@@std@@@std@@@std@@@std@@QAE@PAU?$_Tree_node@U?$pair@$$CBV?$basic_string@DU?$char_traits@D@std@@V?$allocator@D@2@@std@@V12@@std@@PAX@1@PBV?$_Tree_val@U?$_Tree_simple_types@U?$pair@$$CBV?$basic_string@DU?$char_traits@D@std@@V?$allocator@D@2@@std@@V12@@std@@@std@@@1@@Z 0043fe80 f i ccConfig.obj
 0002:00019ec0       ??0?$_Tree_iterator@V?$_Tree_val@U?$_Tree_simple_types@U?$pair@$$CBV?$basic_string@DU?$char_traits@D@std@@V?$allocator@D@2@@std@@V12@@std@@@std@@@std@@@std@@QAE@ABV01@@Z 0043fec0 f i ccConfig.obj
 0002:00019f00       ??0?$_Tree_iterator@V?$_Tree_val@U?$_Tree_simple_types@U?$pair@$$CBV?$basic_string@DU?$char_traits@D@std@@V?$allocator@D@2@@std@@V12@@std@@@std@@@std@@@std@@QAE@PAU?$_Tree_node@U?$pair@$$CBV?$basic_string@DU?$char_traits@D@std@@V?$allocator@D@2@@std@@V12@@std@@PAX@1@PBV?$_Tree_val@U?$_Tree_simple_types@U?$pair@$$CBV?$basic_string@DU?$char_traits@D@std@@V?$allocator@D@2@@std@@V12@@std@@@std@@@1@@Z 0043ff00 f i ccConfig.obj
 0002:00019f40       ??0?$_Tree_unchecked_const_iterator@V?$_Tree_val@U?$_Tree_simple_types@U?$pair@$$CBV?$basic_string@DU?$char_traits@D@std@@V?$allocator@D@2@@std@@V12@@std@@@std@@@std@@U_Iterator_base12@2@@std@@QAE@ABV01@@Z 0043ff40 f i ccConfig.obj
 0002:00019f90       ??0?$_Tree_unchecked_const_iterator@V?$_Tree_val@U?$_Tree_simple_types@U?$pair@$$CBV?$basic_string@DU?$char_traits@D@std@@V?$allocator@D@2@@std@@V12@@std@@@std@@@std@@U_Iterator_base12@2@@std@@QAE@PAU?$_Tree_node@U?$pair@$$CBV?$basic_string@DU?$char_traits@D@std@@V?$allocator@D@2@@std@@V12@@std@@PAX@1@PBV?$_Tree_val@U?$_Tree_simple_types@U?$pair@$$CBV?$basic_string@DU?$char_traits@D@std@@V?$allocator@D@2@@std@@V12@@std@@@std@@@1@@Z 0043ff90 f i ccConfig.obj
 0002:0001a030       ??0?$_Tree_val@U?$_Tree_simple_types@U?$pair@$$CBV?$basic_string@DU?$char_traits@D@std@@V?$allocator@D@2@@std@@V12@@std@@@std@@@std@@QAE@XZ 00440030 f i ccConfig.obj
 0002:0001a090       ??0?$_Wrap_alloc@V?$allocator@U?$_List_node@V?$basic_string@DU?$char_traits@D@std@@V?$allocator@D@2@@std@@PAX@std@@@std@@@std@@QAE@XZ 00440090 f i ccConfig.obj
 0002:0001a0c0       ??0?$_Wrap_alloc@V?$allocator@U?$_Tree_node@U?$pair@$$CBV?$basic_string@DU?$char_traits@D@std@@V?$allocator@D@2@@std@@V12@@std@@PAX@std@@@std@@@std@@QAE@XZ 004400c0 f i ccConfig.obj
 0002:0001a0f0       ??0?$allocator@U?$_List_node@V?$basic_string@DU?$char_traits@D@std@@V?$allocator@D@2@@std@@PAX@std@@@std@@QAE@XZ 004400f0 f i ccConfig.obj
 0002:0001a110       ??0?$allocator@U?$_Tree_node@U?$pair@$$CBV?$basic_string@DU?$char_traits@D@std@@V?$allocator@D@2@@std@@V12@@std@@PAX@std@@@std@@QAE@XZ 00440110 f i ccConfig.obj
 0002:0001a130       ??0?$allocator@U?$pair@$$CBV?$basic_string@DU?$char_traits@D@std@@V?$allocator@D@2@@std@@V12@@std@@@std@@QAE@XZ 00440130 f i ccConfig.obj
 0002:0001a150       ??0?$map@V?$basic_string@DU?$char_traits@D@std@@V?$allocator@D@2@@std@@V12@U?$less@V?$basic_string@DU?$char_traits@D@std@@V?$allocator@D@2@@std@@@2@V?$allocator@U?$pair@$$CBV?$basic_string@DU?$char_traits@D@std@@V?$allocator@D@2@@std@@V12@@std@@@2@@std@@QAE@XZ 00440150 f i ccConfig.obj
 0002:0001a1a0       ??0_Iterator_base12@std@@QAE@ABU01@@Z 004401a0 f i ccConfig.obj
 0002:0001a1f0       ??1?$_Iterator012@Ubidirectional_iterator_tag@std@@U?$pair@$$CBV?$basic_string@DU?$char_traits@D@std@@V?$allocator@D@2@@std@@V12@@2@HPBU32@ABU32@U_Iterator_base12@2@@std@@QAE@XZ 004401f0 f i ccConfig.obj
 0002:0001a220       ??1?$_Iterator012@Urandom_access_iterator_tag@std@@DHPBDABDU_Iterator_base12@2@@std@@QAE@XZ 00440220 f i ccConfig.obj
 0002:0001a250       ??1?$_String_const_iterator@V?$_String_val@U?$_Simple_types@D@std@@@std@@@std@@QAE@XZ 00440250 f i ccConfig.obj
 0002:0001a280       ??1?$_String_iterator@V?$_String_val@U?$_Simple_types@D@std@@@std@@@std@@QAE@XZ 00440280 f i ccConfig.obj
 0002:0001a2b0       ??1?$_Tree@V?$_Tmap_traits@V?$basic_string@DU?$char_traits@D@std@@V?$allocator@D@2@@std@@V12@U?$less@V?$basic_string@DU?$char_traits@D@std@@V?$allocator@D@2@@std@@@2@V?$allocator@U?$pair@$$CBV?$basic_string@DU?$char_traits@D@std@@V?$allocator@D@2@@std@@V12@@std@@@2@$0A@@std@@@std@@QAE@XZ 004402b0 f i ccConfig.obj
 0002:0001a2f0       ??1?$_Tree_alloc@$0A@U?$_Tree_base_types@U?$pair@$$CBV?$basic_string@DU?$char_traits@D@std@@V?$allocator@D@2@@std@@V12@@std@@V?$allocator@U?$pair@$$CBV?$basic_string@DU?$char_traits@D@std@@V?$allocator@D@2@@std@@V12@@std@@@2@@std@@@std@@QAE@XZ 004402f0 f i ccConfig.obj
 0002:0001a340       ??1?$_Tree_buy@U?$pair@$$CBV?$basic_string@DU?$char_traits@D@std@@V?$allocator@D@2@@std@@V12@@std@@V?$allocator@U?$pair@$$CBV?$basic_string@DU?$char_traits@D@std@@V?$allocator@D@2@@std@@V12@@std@@@2@@std@@QAE@XZ 00440340 f i ccConfig.obj
 0002:0001a370       ??1?$_Tree_comp@$0A@V?$_Tmap_traits@V?$basic_string@DU?$char_traits@D@std@@V?$allocator@D@2@@std@@V12@U?$less@V?$basic_string@DU?$char_traits@D@std@@V?$allocator@D@2@@std@@@2@V?$allocator@U?$pair@$$CBV?$basic_string@DU?$char_traits@D@std@@V?$allocator@D@2@@std@@V12@@std@@@2@$0A@@std@@@std@@QAE@XZ 00440370 f i ccConfig.obj
 0002:0001a3a0       ??1?$_Tree_const_iterator@V?$_Tree_val@U?$_Tree_simple_types@U?$pair@$$CBV?$basic_string@DU?$char_traits@D@std@@V?$allocator@D@2@@std@@V12@@std@@@std@@@std@@@std@@QAE@XZ 004403a0 f i ccConfig.obj
 0002:0001a3d0       ??1?$_Tree_iterator@V?$_Tree_val@U?$_Tree_simple_types@U?$pair@$$CBV?$basic_string@DU?$char_traits@D@std@@V?$allocator@D@2@@std@@V12@@std@@@std@@@std@@@std@@QAE@XZ 004403d0 f i ccConfig.obj
 0002:0001a400       ??1?$_Tree_unchecked_const_iterator@V?$_Tree_val@U?$_Tree_simple_types@U?$pair@$$CBV?$basic_string@DU?$char_traits@D@std@@V?$allocator@D@2@@std@@V12@@std@@@std@@@std@@U_Iterator_base12@2@@std@@QAE@XZ 00440400 f i ccConfig.obj
 0002:0001a430       ??1?$_Tree_val@U?$_Tree_simple_types@U?$pair@$$CBV?$basic_string@DU?$char_traits@D@std@@V?$allocator@D@2@@std@@V12@@std@@@std@@@std@@QAE@XZ 00440430 f i ccConfig.obj
 0002:0001a470       ??1?$map@V?$basic_string@DU?$char_traits@D@std@@V?$allocator@D@2@@std@@V12@U?$less@V?$basic_string@DU?$char_traits@D@std@@V?$allocator@D@2@@std@@@2@V?$allocator@U?$pair@$$CBV?$basic_string@DU?$char_traits@D@std@@V?$allocator@D@2@@std@@V12@@std@@@2@@std@@QAE@XZ 00440470 f i ccConfig.obj
 0002:0001a4a0       ??1?$pair@$$CBV?$basic_string@DU?$char_traits@D@std@@V?$allocator@D@2@@std@@V12@@std@@QAE@XZ 004404a0 f i ccConfig.obj
 0002:0001a4e0       ??1?$pair@V?$_Tree_iterator@V?$_Tree_val@U?$_Tree_simple_types@U?$pair@$$CBV?$basic_string@DU?$char_traits@D@std@@V?$allocator@D@2@@std@@V12@@std@@@std@@@std@@@std@@_N@std@@QAE@XZ 004404e0 f i ccConfig.obj
 0002:0001a510       ??1?$pair@V?$basic_string@DU?$char_traits@D@std@@V?$allocator@D@2@@std@@V12@@std@@QAE@XZ 00440510 f i ccConfig.obj
 0002:0001a550       ??4?$_Iterator012@Ubidirectional_iterator_tag@std@@U?$pair@$$CBV?$basic_string@DU?$char_traits@D@std@@V?$allocator@D@2@@std@@V12@@2@HPBU32@ABU32@U_Iterator_base12@2@@std@@QAEAAU01@ABU01@@Z 00440550 f i ccConfig.obj
 0002:0001a590       ??4?$_Tree_const_iterator@V?$_Tree_val@U?$_Tree_simple_types@U?$pair@$$CBV?$basic_string@DU?$char_traits@D@std@@V?$allocator@D@2@@std@@V12@@std@@@std@@@std@@@std@@QAEAAV01@ABV01@@Z 00440590 f i ccConfig.obj
 0002:0001a5d0       ??4?$_Tree_iterator@V?$_Tree_val@U?$_Tree_simple_types@U?$pair@$$CBV?$basic_string@DU?$char_traits@D@std@@V?$allocator@D@2@@std@@V12@@std@@@std@@@std@@@std@@QAEAAV01@ABV01@@Z 004405d0 f i ccConfig.obj
 0002:0001a610       ??4?$_Tree_unchecked_const_iterator@V?$_Tree_val@U?$_Tree_simple_types@U?$pair@$$CBV?$basic_string@DU?$char_traits@D@std@@V?$allocator@D@2@@std@@V12@@std@@@std@@@std@@U_Iterator_base12@2@@std@@QAEAAV01@ABV01@@Z 00440610 f i ccConfig.obj
 0002:0001a660       ??4?$basic_string@DU?$char_traits@D@std@@V?$allocator@D@2@@std@@QAEAAV01@$$QAV01@@Z 00440660 f i ccConfig.obj
 0002:0001a760       ??4_Iterator_base12@std@@QAEAAU01@ABU01@@Z 00440760 f i ccConfig.obj
 0002:0001a890       ??8?$_String_const_iterator@V?$_String_val@U?$_Simple_types@D@std@@@std@@@std@@QBE_NABV01@@Z 00440890 f i ccConfig.obj
 0002:0001a900       ??8?$_Tree_const_iterator@V?$_Tree_val@U?$_Tree_simple_types@U?$pair@$$CBV?$basic_string@DU?$char_traits@D@std@@V?$allocator@D@2@@std@@V12@@std@@@std@@@std@@@std@@QBE_NABV01@@Z 00440900 f i ccConfig.obj
 0002:0001aa40       ??9?$_Tree_const_iterator@V?$_Tree_val@U?$_Tree_simple_types@U?$pair@$$CBV?$basic_string@DU?$char_traits@D@std@@V?$allocator@D@2@@std@@V12@@std@@@std@@@std@@@std@@QBE_NABV01@@Z 00440a40 f i ccConfig.obj
 0002:0001aaa0       ??C?$_Tree_const_iterator@V?$_Tree_val@U?$_Tree_simple_types@U?$pair@$$CBV?$basic_string@DU?$char_traits@D@std@@V?$allocator@D@2@@std@@V12@@std@@@std@@@std@@@std@@QBEPBU?$pair@$$CBV?$basic_string@DU?$char_traits@D@std@@V?$allocator@D@2@@std@@V12@@1@XZ 00440aa0 f i ccConfig.obj
 0002:0001aae0       ??C?$_Tree_iterator@V?$_Tree_val@U?$_Tree_simple_types@U?$pair@$$CBV?$basic_string@DU?$char_traits@D@std@@V?$allocator@D@2@@std@@V12@@std@@@std@@@std@@@std@@QBEPAU?$pair@$$CBV?$basic_string@DU?$char_traits@D@std@@V?$allocator@D@2@@std@@V12@@1@XZ 00440ae0 f i ccConfig.obj
 0002:0001ab20       ??D?$_String_const_iterator@V?$_String_val@U?$_Simple_types@D@std@@@std@@@std@@QBEABDXZ 00440b20 f i ccConfig.obj
 0002:0001ac50       ??D?$_String_iterator@V?$_String_val@U?$_Simple_types@D@std@@@std@@@std@@QBEAADXZ 00440c50 f i ccConfig.obj
 0002:0001ac80       ??D?$_Tree_const_iterator@V?$_Tree_val@U?$_Tree_simple_types@U?$pair@$$CBV?$basic_string@DU?$char_traits@D@std@@V?$allocator@D@2@@std@@V12@@std@@@std@@@std@@@std@@QBEABU?$pair@$$CBV?$basic_string@DU?$char_traits@D@std@@V?$allocator@D@2@@std@@V12@@1@XZ 00440c80 f i ccConfig.obj
 0002:0001ada0       ??D?$_Tree_iterator@V?$_Tree_val@U?$_Tree_simple_types@U?$pair@$$CBV?$basic_string@DU?$char_traits@D@std@@V?$allocator@D@2@@std@@V12@@std@@@std@@@std@@@std@@QBEAAU?$pair@$$CBV?$basic_string@DU?$char_traits@D@std@@V?$allocator@D@2@@std@@V12@@1@XZ 00440da0 f i ccConfig.obj
 0002:0001add0       ??E?$_Tree_const_iterator@V?$_Tree_val@U?$_Tree_simple_types@U?$pair@$$CBV?$basic_string@DU?$char_traits@D@std@@V?$allocator@D@2@@std@@V12@@std@@@std@@@std@@@std@@QAE?AV01@H@Z 00440dd0 f i ccConfig.obj
 0002:0001aee0       ??E?$_Tree_const_iterator@V?$_Tree_val@U?$_Tree_simple_types@U?$pair@$$CBV?$basic_string@DU?$char_traits@D@std@@V?$allocator@D@2@@std@@V12@@std@@@std@@@std@@@std@@QAEAAV01@XZ 00440ee0 f i ccConfig.obj
 0002:0001b000       ??E?$_Tree_iterator@V?$_Tree_val@U?$_Tree_simple_types@U?$pair@$$CBV?$basic_string@DU?$char_traits@D@std@@V?$allocator@D@2@@std@@V12@@std@@@std@@@std@@@std@@QAE?AV01@H@Z 00441000 f i ccConfig.obj
 0002:0001b110       ??E?$_Tree_iterator@V?$_Tree_val@U?$_Tree_simple_types@U?$pair@$$CBV?$basic_string@DU?$char_traits@D@std@@V?$allocator@D@2@@std@@V12@@std@@@std@@@std@@@std@@QAEAAV01@XZ 00441110 f i ccConfig.obj
 0002:0001b140       ??E?$_Tree_unchecked_const_iterator@V?$_Tree_val@U?$_Tree_simple_types@U?$pair@$$CBV?$basic_string@DU?$char_traits@D@std@@V?$allocator@D@2@@std@@V12@@std@@@std@@@std@@U_Iterator_base12@2@@std@@QAEAAV01@XZ 00441140 f i ccConfig.obj
 0002:0001b250       ??F?$_Tree_const_iterator@V?$_Tree_val@U?$_Tree_simple_types@U?$pair@$$CBV?$basic_string@DU?$char_traits@D@std@@V?$allocator@D@2@@std@@V12@@std@@@std@@@std@@@std@@QAEAAV01@XZ 00441250 f i ccConfig.obj
 0002:0001b420       ??F?$_Tree_iterator@V?$_Tree_val@U?$_Tree_simple_types@U?$pair@$$CBV?$basic_string@DU?$char_traits@D@std@@V?$allocator@D@2@@std@@V12@@std@@@std@@@std@@@std@@QAEAAV01@XZ 00441420 f i ccConfig.obj
 0002:0001b450       ??F?$_Tree_unchecked_const_iterator@V?$_Tree_val@U?$_Tree_simple_types@U?$pair@$$CBV?$basic_string@DU?$char_traits@D@std@@V?$allocator@D@2@@std@@V12@@std@@@std@@@std@@U_Iterator_base12@2@@std@@QAEAAV01@XZ 00441450 f i ccConfig.obj
 0002:0001b5a0       ??G?$_String_const_iterator@V?$_String_val@U?$_Simple_types@D@std@@@std@@@std@@QBEHABV01@@Z 004415a0 f i ccConfig.obj
 0002:0001b5f0       ??G?$_String_iterator@V?$_String_val@U?$_Simple_types@D@std@@@std@@@std@@QBEHABV?$_String_const_iterator@V?$_String_val@U?$_Simple_types@D@std@@@std@@@1@@Z 004415f0 f i ccConfig.obj
 0002:0001b6b0       ??R?$less@V?$basic_string@DU?$char_traits@D@std@@V?$allocator@D@2@@std@@@std@@QBE_NABV?$basic_string@DU?$char_traits@D@std@@V?$allocator@D@2@@1@0@Z 004416b0 f i ccConfig.obj
 0002:0001b6f0       ??_G?$pair@$$CBV?$basic_string@DU?$char_traits@D@std@@V?$allocator@D@2@@std@@V12@@std@@QAEPAXI@Z 004416f0 f i ccConfig.obj
 0002:0001b740       ??_EccConfig@@UAEPAXI@Z    00441740 f i ccConfig.obj
 0002:0001b740       ??_GccConfig@@UAEPAXI@Z    00441740 f i ccConfig.obj
 0002:0001b790       ?_Adopt@_Iterator_base0@std@@QAEXPBX@Z 00441790 f i ccConfig.obj
 0002:0001b7b0       ?_Alloc_proxy@?$_Tree_alloc@$0A@U?$_Tree_base_types@U?$pair@$$CBV?$basic_string@DU?$char_traits@D@std@@V?$allocator@D@2@@std@@V12@@std@@V?$allocator@U?$pair@$$CBV?$basic_string@DU?$char_traits@D@std@@V?$allocator@D@2@@std@@V12@@std@@@2@@std@@@std@@QAEXXZ 004417b0 f i ccConfig.obj
 0002:0001b880       ?_Buyheadnode@?$_Tree_alloc@$0A@U?$_Tree_base_types@U?$pair@$$CBV?$basic_string@DU?$char_traits@D@std@@V?$allocator@D@2@@std@@V12@@std@@V?$allocator@U?$pair@$$CBV?$basic_string@DU?$char_traits@D@std@@V?$allocator@D@2@@std@@V12@@std@@@2@@std@@@std@@QAEPAU?$_Tree_node@U?$pair@$$CBV?$basic_string@DU?$char_traits@D@std@@V?$allocator@D@2@@std@@V12@@std@@PAX@2@XZ 00441880 f i ccConfig.obj
 0002:0001ba90       ?_Buynode0@?$_List_alloc@$0A@U?$_List_base_types@V?$basic_string@DU?$char_traits@D@std@@V?$allocator@D@2@@std@@V?$allocator@V?$basic_string@DU?$char_traits@D@std@@V?$allocator@D@2@@std@@@2@@std@@@std@@QAEPAU?$_List_node@V?$basic_string@DU?$char_traits@D@std@@V?$allocator@D@2@@std@@PAX@2@PAU32@0@Z 00441a90 f i ccConfig.obj
 0002:0001bc30       ?_Buynode0@?$_Tree_buy@U?$pair@$$CBV?$basic_string@DU?$char_traits@D@std@@V?$allocator@D@2@@std@@V12@@std@@V?$allocator@U?$pair@$$CBV?$basic_string@DU?$char_traits@D@std@@V?$allocator@D@2@@std@@V12@@std@@@2@@std@@QAEPAU?$_Tree_node@U?$pair@$$CBV?$basic_string@DU?$char_traits@D@std@@V?$allocator@D@2@@std@@V12@@std@@PAX@2@XZ 00441c30 f i ccConfig.obj
 0002:0001bdf0       ?_Color@?$_Tree_val@U?$_Tree_simple_types@U?$pair@$$CBV?$basic_string@DU?$char_traits@D@std@@V?$allocator@D@2@@std@@V12@@std@@@std@@@std@@SAAADPAU?$_Tree_node@U?$pair@$$CBV?$basic_string@DU?$char_traits@D@std@@V?$allocator@D@2@@std@@V12@@std@@PAX@2@@Z 00441df0 f i ccConfig.obj
 0002:0001be00       ?_Compat@?$_String_const_iterator@V?$_String_val@U?$_Simple_types@D@std@@@std@@@std@@QBEXABV12@@Z 00441e00 f i ccConfig.obj
 0002:0001bf00       ?_Destroy_if_not_nil@?$_Tree@V?$_Tmap_traits@V?$basic_string@DU?$char_traits@D@std@@V?$allocator@D@2@@std@@V12@U?$less@V?$basic_string@DU?$char_traits@D@std@@V?$allocator@D@2@@std@@@2@V?$allocator@U?$pair@$$CBV?$basic_string@DU?$char_traits@D@std@@V?$allocator@D@2@@std@@V12@@std@@@2@$0A@@std@@@std@@IAEXPAU?$_Tree_node@U?$pair@$$CBV?$basic_string@DU?$char_traits@D@std@@V?$allocator@D@2@@std@@V12@@std@@PAX@2@@Z 00441f00 f i ccConfig.obj
 0002:0001bf90       ?_Erase@?$_Tree@V?$_Tmap_traits@V?$basic_string@DU?$char_traits@D@std@@V?$allocator@D@2@@std@@V12@U?$less@V?$basic_string@DU?$char_traits@D@std@@V?$allocator@D@2@@std@@@2@V?$allocator@U?$pair@$$CBV?$basic_string@DU?$char_traits@D@std@@V?$allocator@D@2@@std@@V12@@std@@@2@$0A@@std@@@std@@IAEXPAU?$_Tree_node@U?$pair@$$CBV?$basic_string@DU?$char_traits@D@std@@V?$allocator@D@2@@std@@V12@@std@@PAX@2@@Z 00441f90 f i ccConfig.obj
 0002:0001c080       ?_Free_proxy@?$_Tree_alloc@$0A@U?$_Tree_base_types@U?$pair@$$CBV?$basic_string@DU?$char_traits@D@std@@V?$allocator@D@2@@std@@V12@@std@@V?$allocator@U?$pair@$$CBV?$basic_string@DU?$char_traits@D@std@@V?$allocator@D@2@@std@@V12@@std@@@2@@std@@@std@@QAEXXZ 00442080 f i ccConfig.obj
 0002:0001c160       ?_Freeheadnode@?$_Tree_alloc@$0A@U?$_Tree_base_types@U?$pair@$$CBV?$basic_string@DU?$char_traits@D@std@@V?$allocator@D@2@@std@@V12@@std@@V?$allocator@U?$pair@$$CBV?$basic_string@DU?$char_traits@D@std@@V?$allocator@D@2@@std@@V12@@std@@@2@@std@@@std@@QAEXPAU?$_Tree_node@U?$pair@$$CBV?$basic_string@DU?$char_traits@D@std@@V?$allocator@D@2@@std@@V12@@std@@PAX@2@@Z 00442160 f i ccConfig.obj
 0002:0001c250       ?_Freenode0@?$_Tree_buy@U?$pair@$$CBV?$basic_string@DU?$char_traits@D@std@@V?$allocator@D@2@@std@@V12@@std@@V?$allocator@U?$pair@$$CBV?$basic_string@DU?$char_traits@D@std@@V?$allocator@D@2@@std@@V12@@std@@@2@@std@@QAEXPAU?$_Tree_node@U?$pair@$$CBV?$basic_string@DU?$char_traits@D@std@@V?$allocator@D@2@@std@@V12@@std@@PAX@2@@Z 00442250 f i ccConfig.obj
 0002:0001c340       ?_Getal@?$_List_alloc@$0A@U?$_List_base_types@V?$basic_string@DU?$char_traits@D@std@@V?$allocator@D@2@@std@@V?$allocator@V?$basic_string@DU?$char_traits@D@std@@V?$allocator@D@2@@std@@@2@@std@@@std@@QBE?AU?$_Wrap_alloc@V?$allocator@U?$_List_node@V?$basic_string@DU?$char_traits@D@std@@V?$allocator@D@2@@std@@PAX@std@@@std@@@2@XZ 00442340 f i ccConfig.obj
 0002:0001c380       ?_Getal@?$_Tree_alloc@$0A@U?$_Tree_base_types@U?$pair@$$CBV?$basic_string@DU?$char_traits@D@std@@V?$allocator@D@2@@std@@V12@@std@@V?$allocator@U?$pair@$$CBV?$basic_string@DU?$char_traits@D@std@@V?$allocator@D@2@@std@@V12@@std@@@2@@std@@@std@@QBE?AU?$_Wrap_alloc@V?$allocator@U?$_Tree_node@U?$pair@$$CBV?$basic_string@DU?$char_traits@D@std@@V?$allocator@D@2@@std@@V12@@std@@PAX@std@@@std@@@2@XZ 00442380 f i ccConfig.obj
 0002:0001c3c0       ?_Getcomp@?$_Tree_comp@$0A@V?$_Tmap_traits@V?$basic_string@DU?$char_traits@D@std@@V?$allocator@D@2@@std@@V12@U?$less@V?$basic_string@DU?$char_traits@D@std@@V?$allocator@D@2@@std@@@2@V?$allocator@U?$pair@$$CBV?$basic_string@DU?$char_traits@D@std@@V?$allocator@D@2@@std@@V12@@std@@@2@$0A@@std@@@std@@QBE?AU?$less@V?$basic_string@DU?$char_traits@D@std@@V?$allocator@D@2@@std@@@2@XZ 004423c0 f i ccConfig.obj
 0002:0001c3f0       ?_Incsize@?$list@V?$basic_string@DU?$char_traits@D@std@@V?$allocator@D@2@@std@@V?$allocator@V?$basic_string@DU?$char_traits@D@std@@V?$allocator@D@2@@std@@@2@@std@@QAEXI@Z 004423f0 f i ccConfig.obj
 0002:0001c460       ?_Isnil@?$_Tree_val@U?$_Tree_simple_types@U?$pair@$$CBV?$basic_string@DU?$char_traits@D@std@@V?$allocator@D@2@@std@@V12@@std@@@std@@@std@@SAAADPAU?$_Tree_node@U?$pair@$$CBV?$basic_string@DU?$char_traits@D@std@@V?$allocator@D@2@@std@@V12@@std@@PAX@2@@Z 00442460 f i ccConfig.obj
 0002:0001c470       ?_Key@?$_Tree@V?$_Tmap_traits@V?$basic_string@DU?$char_traits@D@std@@V?$allocator@D@2@@std@@V12@U?$less@V?$basic_string@DU?$char_traits@D@std@@V?$allocator@D@2@@std@@@2@V?$allocator@U?$pair@$$CBV?$basic_string@DU?$char_traits@D@std@@V?$allocator@D@2@@std@@V12@@std@@@2@$0A@@std@@@std@@IBEABV?$basic_string@DU?$char_traits@D@std@@V?$allocator@D@2@@2@PAU?$_Tree_node@U?$pair@$$CBV?$basic_string@DU?$char_traits@D@std@@V?$allocator@D@2@@std@@V12@@std@@PAX@2@@Z 00442470 f i ccConfig.obj
 0002:0001c4b0       ?_Kfn@?$_Tree@V?$_Tmap_traits@V?$basic_string@DU?$char_traits@D@std@@V?$allocator@D@2@@std@@V12@U?$less@V?$basic_string@DU?$char_traits@D@std@@V?$allocator@D@2@@std@@@2@V?$allocator@U?$pair@$$CBV?$basic_string@DU?$char_traits@D@std@@V?$allocator@D@2@@std@@V12@@std@@@2@$0A@@std@@@std@@IBEABV?$basic_string@DU?$char_traits@D@std@@V?$allocator@D@2@@2@ABU?$pair@$$CBV?$basic_string@DU?$char_traits@D@std@@V?$allocator@D@2@@std@@V12@@2@@Z 004424b0 f i ccConfig.obj
 0002:0001c4f0       ?_Left@?$_Tree_val@U?$_Tree_simple_types@U?$pair@$$CBV?$basic_string@DU?$char_traits@D@std@@V?$allocator@D@2@@std@@V12@@std@@@std@@@std@@SAAAPAU?$_Tree_node@U?$pair@$$CBV?$basic_string@DU?$char_traits@D@std@@V?$allocator@D@2@@std@@V12@@std@@PAX@2@PAU32@@Z 004424f0 f i ccConfig.obj
 0002:0001c500       ?_Lmost@?$_Tree@V?$_Tmap_traits@V?$basic_string@DU?$char_traits@D@std@@V?$allocator@D@2@@std@@V12@U?$less@V?$basic_string@DU?$char_traits@D@std@@V?$allocator@D@2@@std@@@2@V?$allocator@U?$pair@$$CBV?$basic_string@DU?$char_traits@D@std@@V?$allocator@D@2@@std@@V12@@std@@@2@$0A@@std@@@std@@IBEAAPAU?$_Tree_node@U?$pair@$$CBV?$basic_string@DU?$char_traits@D@std@@V?$allocator@D@2@@std@@V12@@std@@PAX@2@XZ 00442500 f i ccConfig.obj
 0002:0001c540       ?_Lrotate@?$_Tree@V?$_Tmap_traits@V?$basic_string@DU?$char_traits@D@std@@V?$allocator@D@2@@std@@V12@U?$less@V?$basic_string@DU?$char_traits@D@std@@V?$allocator@D@2@@std@@@2@V?$allocator@U?$pair@$$CBV?$basic_string@DU?$char_traits@D@std@@V?$allocator@D@2@@std@@V12@@std@@@2@$0A@@std@@@std@@IAEXPAU?$_Tree_node@U?$pair@$$CBV?$basic_string@DU?$char_traits@D@std@@V?$allocator@D@2@@std@@V12@@std@@PAX@2@@Z 00442540 f i ccConfig.obj
 0002:0001c6e0       ?_Max@?$_Tree_val@U?$_Tree_simple_types@U?$pair@$$CBV?$basic_string@DU?$char_traits@D@std@@V?$allocator@D@2@@std@@V12@@std@@@std@@@std@@SAPAU?$_Tree_node@U?$pair@$$CBV?$basic_string@DU?$char_traits@D@std@@V?$allocator@D@2@@std@@V12@@std@@PAX@2@PAU32@@Z 004426e0 f i ccConfig.obj
 0002:0001c730       ?_Min@?$_Tree_val@U?$_Tree_simple_types@U?$pair@$$CBV?$basic_string@DU?$char_traits@D@std@@V?$allocator@D@2@@std@@V12@@std@@@std@@@std@@SAPAU?$_Tree_node@U?$pair@$$CBV?$basic_string@DU?$char_traits@D@std@@V?$allocator@D@2@@std@@V12@@std@@PAX@2@PAU32@@Z 00442730 f i ccConfig.obj
 0002:0001c780       ?_Mynode@?$_List_unchecked_const_iterator@V?$_List_val@U?$_List_simple_types@V?$basic_string@DU?$char_traits@D@std@@V?$allocator@D@2@@std@@@std@@@std@@U_Iterator_base0@2@@std@@QBEPAU?$_List_node@V?$basic_string@DU?$char_traits@D@std@@V?$allocator@D@2@@std@@PAX@2@XZ 00442780 f i ccConfig.obj
 0002:0001c7a0       ?_Mynode@?$_Tree_unchecked_const_iterator@V?$_Tree_val@U?$_Tree_simple_types@U?$pair@$$CBV?$basic_string@DU?$char_traits@D@std@@V?$allocator@D@2@@std@@V12@@std@@@std@@@std@@U_Iterator_base12@2@@std@@QBEPAU?$_Tree_node@U?$pair@$$CBV?$basic_string@DU?$char_traits@D@std@@V?$allocator@D@2@@std@@V12@@std@@PAX@2@XZ 004427a0 f i ccConfig.obj
 0002:0001c7c0       ?_Myval@?$_List_val@U?$_List_simple_types@V?$basic_string@DU?$char_traits@D@std@@V?$allocator@D@2@@std@@@std@@@std@@SAAAV?$basic_string@DU?$char_traits@D@std@@V?$allocator@D@2@@2@PAU?$_List_node@V?$basic_string@DU?$char_traits@D@std@@V?$allocator@D@2@@std@@PAX@2@@Z 004427c0 f i ccConfig.obj
 0002:0001c7d0       ?_Myval@?$_Tree_val@U?$_Tree_simple_types@U?$pair@$$CBV?$basic_string@DU?$char_traits@D@std@@V?$allocator@D@2@@std@@V12@@std@@@std@@@std@@SAAAU?$pair@$$CBV?$basic_string@DU?$char_traits@D@std@@V?$allocator@D@2@@std@@V12@@2@PAU?$_Tree_node@U?$pair@$$CBV?$basic_string@DU?$char_traits@D@std@@V?$allocator@D@2@@std@@V12@@std@@PAX@2@@Z 004427d0 f i ccConfig.obj
 0002:0001c7e0       ?_Nextnode@?$_List_val@U?$_List_simple_types@V?$basic_string@DU?$char_traits@D@std@@V?$allocator@D@2@@std@@@std@@@std@@SAAAPAU?$_List_node@V?$basic_string@DU?$char_traits@D@std@@V?$allocator@D@2@@std@@PAX@2@PAU32@@Z 004427e0 f i ccConfig.obj
 0002:0001c7f0       ?_Orphan_ptr@?$_Tree@V?$_Tmap_traits@V?$basic_string@DU?$char_traits@D@std@@V?$allocator@D@2@@std@@V12@U?$less@V?$basic_string@DU?$char_traits@D@std@@V?$allocator@D@2@@std@@@2@V?$allocator@U?$pair@$$CBV?$basic_string@DU?$char_traits@D@std@@V?$allocator@D@2@@std@@V12@@std@@@2@$0A@@std@@@std@@IBEXAAV12@PAU?$_Tree_node@U?$pair@$$CBV?$basic_string@DU?$char_traits@D@std@@V?$allocator@D@2@@std@@V12@@std@@PAX@2@@Z 004427f0 f i ccConfig.obj
 0002:0001c970       ?_Parent@?$_Tree_val@U?$_Tree_simple_types@U?$pair@$$CBV?$basic_string@DU?$char_traits@D@std@@V?$allocator@D@2@@std@@V12@@std@@@std@@@std@@SAAAPAU?$_Tree_node@U?$pair@$$CBV?$basic_string@DU?$char_traits@D@std@@V?$allocator@D@2@@std@@V12@@std@@PAX@2@PAU32@@Z 00442970 f i ccConfig.obj
 0002:0001c980       ?_Pdif@?$basic_string@DU?$char_traits@D@std@@V?$allocator@D@2@@std@@SAIV?$_String_const_iterator@V?$_String_val@U?$_Simple_types@D@std@@@std@@@2@0@Z 00442980 f i ccConfig.obj
 0002:0001ca40       ?_Prevnode@?$_List_val@U?$_List_simple_types@V?$basic_string@DU?$char_traits@D@std@@V?$allocator@D@2@@std@@@std@@@std@@SAAAPAU?$_List_node@V?$basic_string@DU?$char_traits@D@std@@V?$allocator@D@2@@std@@PAX@2@PAU32@@Z 00442a40 f i ccConfig.obj
 0002:0001ca50       ?_Right@?$_Tree_val@U?$_Tree_simple_types@U?$pair@$$CBV?$basic_string@DU?$char_traits@D@std@@V?$allocator@D@2@@std@@V12@@std@@@std@@@std@@SAAAPAU?$_Tree_node@U?$pair@$$CBV?$basic_string@DU?$char_traits@D@std@@V?$allocator@D@2@@std@@V12@@std@@PAX@2@PAU32@@Z 00442a50 f i ccConfig.obj
 0002:0001ca60       ?_Rmost@?$_Tree@V?$_Tmap_traits@V?$basic_string@DU?$char_traits@D@std@@V?$allocator@D@2@@std@@V12@U?$less@V?$basic_string@DU?$char_traits@D@std@@V?$allocator@D@2@@std@@@2@V?$allocator@U?$pair@$$CBV?$basic_string@DU?$char_traits@D@std@@V?$allocator@D@2@@std@@V12@@std@@@2@$0A@@std@@@std@@IBEAAPAU?$_Tree_node@U?$pair@$$CBV?$basic_string@DU?$char_traits@D@std@@V?$allocator@D@2@@std@@V12@@std@@PAX@2@XZ 00442a60 f i ccConfig.obj
 0002:0001caa0       ?_Root@?$_Tree@V?$_Tmap_traits@V?$basic_string@DU?$char_traits@D@std@@V?$allocator@D@2@@std@@V12@U?$less@V?$basic_string@DU?$char_traits@D@std@@V?$allocator@D@2@@std@@@2@V?$allocator@U?$pair@$$CBV?$basic_string@DU?$char_traits@D@std@@V?$allocator@D@2@@std@@V12@@std@@@2@$0A@@std@@@std@@IBEAAPAU?$_Tree_node@U?$pair@$$CBV?$basic_string@DU?$char_traits@D@std@@V?$allocator@D@2@@std@@V12@@std@@PAX@2@XZ 00442aa0 f i ccConfig.obj
 0002:0001cae0       ?_Rrotate@?$_Tree@V?$_Tmap_traits@V?$basic_string@DU?$char_traits@D@std@@V?$allocator@D@2@@std@@V12@U?$less@V?$basic_string@DU?$char_traits@D@std@@V?$allocator@D@2@@std@@@2@V?$allocator@U?$pair@$$CBV?$basic_string@DU?$char_traits@D@std@@V?$allocator@D@2@@std@@V12@@std@@@2@$0A@@std@@@std@@IAEXPAU?$_Tree_node@U?$pair@$$CBV?$basic_string@DU?$char_traits@D@std@@V?$allocator@D@2@@std@@V12@@std@@PAX@2@@Z 00442ae0 f i ccConfig.obj
 0002:0001cc80       ?_Tidy@?$_Tree@V?$_Tmap_traits@V?$basic_string@DU?$char_traits@D@std@@V?$allocator@D@2@@std@@V12@U?$less@V?$basic_string@DU?$char_traits@D@std@@V?$allocator@D@2@@std@@@2@V?$allocator@U?$pair@$$CBV?$basic_string@DU?$char_traits@D@std@@V?$allocator@D@2@@std@@V12@@std@@@2@$0A@@std@@@std@@IAEXXZ 00442c80 f i ccConfig.obj
 0002:0001cdb0       ?_Unchecked_end@?$list@V?$basic_string@DU?$char_traits@D@std@@V?$allocator@D@2@@std@@V?$allocator@V?$basic_string@DU?$char_traits@D@std@@V?$allocator@D@2@@std@@@2@@std@@QAE?AV?$_List_unchecked_iterator@V?$_List_val@U?$_List_simple_types@V?$basic_string@DU?$char_traits@D@std@@V?$allocator@D@2@@std@@@std@@@std@@@2@XZ 00442db0 f i ccConfig.obj
 0002:0001ce00       ?allocate@?$_Wrap_alloc@V?$allocator@U?$_List_node@V?$basic_string@DU?$char_traits@D@std@@V?$allocator@D@2@@std@@PAX@std@@@std@@@std@@QAEPAU?$_List_node@V?$basic_string@DU?$char_traits@D@std@@V?$allocator@D@2@@std@@PAX@2@I@Z 00442e00 f i ccConfig.obj
 0002:0001ce40       ?allocate@?$_Wrap_alloc@V?$allocator@U?$_Tree_node@U?$pair@$$CBV?$basic_string@DU?$char_traits@D@std@@V?$allocator@D@2@@std@@V12@@std@@PAX@std@@@std@@@std@@QAEPAU?$_Tree_node@U?$pair@$$CBV?$basic_string@DU?$char_traits@D@std@@V?$allocator@D@2@@std@@V12@@std@@PAX@2@I@Z 00442e40 f i ccConfig.obj
 0002:0001ce80       ?allocate@?$allocator@U?$_List_node@V?$basic_string@DU?$char_traits@D@std@@V?$allocator@D@2@@std@@PAX@std@@@std@@QAEPAU?$_List_node@V?$basic_string@DU?$char_traits@D@std@@V?$allocator@D@2@@std@@PAX@2@I@Z 00442e80 f i ccConfig.obj
 0002:0001cec0       ?allocate@?$allocator@U?$_Tree_node@U?$pair@$$CBV?$basic_string@DU?$char_traits@D@std@@V?$allocator@D@2@@std@@V12@@std@@PAX@std@@@std@@QAEPAU?$_Tree_node@U?$pair@$$CBV?$basic_string@DU?$char_traits@D@std@@V?$allocator@D@2@@std@@V12@@std@@PAX@2@I@Z 00442ec0 f i ccConfig.obj
 0002:0001cf00       ?begin@?$_Tree@V?$_Tmap_traits@V?$basic_string@DU?$char_traits@D@std@@V?$allocator@D@2@@std@@V12@U?$less@V?$basic_string@DU?$char_traits@D@std@@V?$allocator@D@2@@std@@@2@V?$allocator@U?$pair@$$CBV?$basic_string@DU?$char_traits@D@std@@V?$allocator@D@2@@std@@V12@@std@@@2@$0A@@std@@@std@@QAE?AV?$_Tree_iterator@V?$_Tree_val@U?$_Tree_simple_types@U?$pair@$$CBV?$basic_string@DU?$char_traits@D@std@@V?$allocator@D@2@@std@@V12@@std@@@std@@@std@@@2@XZ 00442f00 f i ccConfig.obj
 0002:0001cf50       ?begin@?$_Tree@V?$_Tmap_traits@V?$basic_string@DU?$char_traits@D@std@@V?$allocator@D@2@@std@@V12@U?$less@V?$basic_string@DU?$char_traits@D@std@@V?$allocator@D@2@@std@@@2@V?$allocator@U?$pair@$$CBV?$basic_string@DU?$char_traits@D@std@@V?$allocator@D@2@@std@@V12@@std@@@2@$0A@@std@@@std@@QBE?AV?$_Tree_const_iterator@V?$_Tree_val@U?$_Tree_simple_types@U?$pair@$$CBV?$basic_string@DU?$char_traits@D@std@@V?$allocator@D@2@@std@@V12@@std@@@std@@@std@@@2@XZ 00442f50 f i ccConfig.obj
 0002:0001cfa0       ?begin@?$basic_string@DU?$char_traits@D@std@@V?$allocator@D@2@@std@@QAE?AV?$_String_iterator@V?$_String_val@U?$_Simple_types@D@std@@@std@@@2@XZ 00442fa0 f i ccConfig.obj
 0002:0001cff0       ?clear@?$_Tree@V?$_Tmap_traits@V?$basic_string@DU?$char_traits@D@std@@V?$allocator@D@2@@std@@V12@U?$less@V?$basic_string@DU?$char_traits@D@std@@V?$allocator@D@2@@std@@@2@V?$allocator@U?$pair@$$CBV?$basic_string@DU?$char_traits@D@std@@V?$allocator@D@2@@std@@V12@@std@@@2@$0A@@std@@@std@@QAEXXZ 00442ff0 f i ccConfig.obj
 0002:0001d090       ?compare@?$basic_string@DU?$char_traits@D@std@@V?$allocator@D@2@@std@@QBEHABV12@@Z 00443090 f i ccConfig.obj
 0002:0001d0f0       ?compare@?$basic_string@DU?$char_traits@D@std@@V?$allocator@D@2@@std@@QBEHIIPBDI@Z 004430f0 f i ccConfig.obj
 0002:0001d230       ?compare@?$basic_string@DU?$char_traits@D@std@@V?$allocator@D@2@@std@@QBEHPBD@Z 00443230 f i ccConfig.obj
 0002:0001d2a0       ?compare@?$char_traits@D@std@@SAHPBD0I@Z 004432a0 f i ccConfig.obj
 0002:0001d300       ?deallocate@?$_Wrap_alloc@V?$allocator@U?$_List_node@V?$basic_string@DU?$char_traits@D@std@@V?$allocator@D@2@@std@@PAX@std@@@std@@@std@@QAEXPAU?$_List_node@V?$basic_string@DU?$char_traits@D@std@@V?$allocator@D@2@@std@@PAX@2@I@Z 00443300 f i ccConfig.obj
 0002:0001d340       ?deallocate@?$_Wrap_alloc@V?$allocator@U?$_Tree_node@U?$pair@$$CBV?$basic_string@DU?$char_traits@D@std@@V?$allocator@D@2@@std@@V12@@std@@PAX@std@@@std@@@std@@QAEXPAU?$_Tree_node@U?$pair@$$CBV?$basic_string@DU?$char_traits@D@std@@V?$allocator@D@2@@std@@V12@@std@@PAX@2@I@Z 00443340 f i ccConfig.obj
 0002:0001d380       ?deallocate@?$allocator@U?$_List_node@V?$basic_string@DU?$char_traits@D@std@@V?$allocator@D@2@@std@@PAX@std@@@std@@QAEXPAU?$_List_node@V?$basic_string@DU?$char_traits@D@std@@V?$allocator@D@2@@std@@PAX@2@I@Z 00443380 f i ccConfig.obj
 0002:0001d3c0       ?deallocate@?$allocator@U?$_Tree_node@U?$pair@$$CBV?$basic_string@DU?$char_traits@D@std@@V?$allocator@D@2@@std@@V12@@std@@PAX@std@@@std@@QAEXPAU?$_Tree_node@U?$pair@$$CBV?$basic_string@DU?$char_traits@D@std@@V?$allocator@D@2@@std@@V12@@std@@PAX@2@I@Z 004433c0 f i ccConfig.obj
 0002:0001d400       ?end@?$_Tree@V?$_Tmap_traits@V?$basic_string@DU?$char_traits@D@std@@V?$allocator@D@2@@std@@V12@U?$less@V?$basic_string@DU?$char_traits@D@std@@V?$allocator@D@2@@std@@@2@V?$allocator@U?$pair@$$CBV?$basic_string@DU?$char_traits@D@std@@V?$allocator@D@2@@std@@V12@@std@@@2@$0A@@std@@@std@@QAE?AV?$_Tree_iterator@V?$_Tree_val@U?$_Tree_simple_types@U?$pair@$$CBV?$basic_string@DU?$char_traits@D@std@@V?$allocator@D@2@@std@@V12@@std@@@std@@@std@@@2@XZ 00443400 f i ccConfig.obj
 0002:0001d450       ?end@?$_Tree@V?$_Tmap_traits@V?$basic_string@DU?$char_traits@D@std@@V?$allocator@D@2@@std@@V12@U?$less@V?$basic_string@DU?$char_traits@D@std@@V?$allocator@D@2@@std@@@2@V?$allocator@U?$pair@$$CBV?$basic_string@DU?$char_traits@D@std@@V?$allocator@D@2@@std@@V12@@std@@@2@$0A@@std@@@std@@QBE?AV?$_Tree_const_iterator@V?$_Tree_val@U?$_Tree_simple_types@U?$pair@$$CBV?$basic_string@DU?$char_traits@D@std@@V?$allocator@D@2@@std@@V12@@std@@@std@@@std@@@2@XZ 00443450 f i ccConfig.obj
 0002:0001d4a0       ?end@?$basic_string@DU?$char_traits@D@std@@V?$allocator@D@2@@std@@QAE?AV?$_String_iterator@V?$_String_val@U?$_Simple_types@D@std@@@std@@@2@XZ 004434a0 f i ccConfig.obj
 0002:0001d4f0       ?erase@?$_Tree@V?$_Tmap_traits@V?$basic_string@DU?$char_traits@D@std@@V?$allocator@D@2@@std@@V12@U?$less@V?$basic_string@DU?$char_traits@D@std@@V?$allocator@D@2@@std@@@2@V?$allocator@U?$pair@$$CBV?$basic_string@DU?$char_traits@D@std@@V?$allocator@D@2@@std@@V12@@std@@@2@$0A@@std@@@std@@QAE?AV?$_Tree_iterator@V?$_Tree_val@U?$_Tree_simple_types@U?$pair@$$CBV?$basic_string@DU?$char_traits@D@std@@V?$allocator@D@2@@std@@V12@@std@@@std@@@std@@@2@V?$_Tree_const_iterator@V?$_Tree_val@U?$_Tree_simple_types@U?$pair@$$CBV?$basic_string@DU?$char_traits@D@std@@V?$allocator@D@2@@std@@V12@@std@@@std@@@std@@@2@0@Z 004434f0 f i ccConfig.obj
 0002:0001d770       ?erase@?$_Tree@V?$_Tmap_traits@V?$basic_string@DU?$char_traits@D@std@@V?$allocator@D@2@@std@@V12@U?$less@V?$basic_string@DU?$char_traits@D@std@@V?$allocator@D@2@@std@@@2@V?$allocator@U?$pair@$$CBV?$basic_string@DU?$char_traits@D@std@@V?$allocator@D@2@@std@@V12@@std@@@2@$0A@@std@@@std@@QAE?AV?$_Tree_iterator@V?$_Tree_val@U?$_Tree_simple_types@U?$pair@$$CBV?$basic_string@DU?$char_traits@D@std@@V?$allocator@D@2@@std@@V12@@std@@@std@@@std@@@2@V?$_Tree_const_iterator@V?$_Tree_val@U?$_Tree_simple_types@U?$pair@$$CBV?$basic_string@DU?$char_traits@D@std@@V?$allocator@D@2@@std@@V12@@std@@@std@@@std@@@2@@Z 00443770 f i ccConfig.obj
 0002:0001e1d0       ?find@?$basic_string@DU?$char_traits@D@std@@V?$allocator@D@2@@std@@QBEIABV12@I@Z 004441d0 f i ccConfig.obj
 0002:0001e220       ?find@?$basic_string@DU?$char_traits@D@std@@V?$allocator@D@2@@std@@QBEIPBDII@Z 00444220 f i ccConfig.obj
 0002:0001e370       ?find@?$char_traits@D@std@@SAPBDPBDIABD@Z 00444370 f i ccConfig.obj
 0002:0001e3e0       ?max_size@?$_Tree@V?$_Tmap_traits@V?$basic_string@DU?$char_traits@D@std@@V?$allocator@D@2@@std@@V12@U?$less@V?$basic_string@DU?$char_traits@D@std@@V?$allocator@D@2@@std@@@2@V?$allocator@U?$pair@$$CBV?$basic_string@DU?$char_traits@D@std@@V?$allocator@D@2@@std@@V12@@std@@@2@$0A@@std@@@std@@QBEIXZ 004443e0 f i ccConfig.obj
 0002:0001e430       ?max_size@?$_Wrap_alloc@V?$allocator@U?$_List_node@V?$basic_string@DU?$char_traits@D@std@@V?$allocator@D@2@@std@@PAX@std@@@std@@@std@@QBEIXZ 00444430 f i ccConfig.obj
 0002:0001e470       ?max_size@?$_Wrap_alloc@V?$allocator@U?$_Tree_node@U?$pair@$$CBV?$basic_string@DU?$char_traits@D@std@@V?$allocator@D@2@@std@@V12@@std@@PAX@std@@@std@@@std@@QBEIXZ 00444470 f i ccConfig.obj
 0002:0001e4b0       ?max_size@?$allocator@U?$_List_node@V?$basic_string@DU?$char_traits@D@std@@V?$allocator@D@2@@std@@PAX@std@@@std@@QBEIXZ 004444b0 f i ccConfig.obj
 0002:0001e4d0       ?max_size@?$allocator@U?$_Tree_node@U?$pair@$$CBV?$basic_string@DU?$char_traits@D@std@@V?$allocator@D@2@@std@@V12@@std@@PAX@std@@@std@@QBEIXZ 004444d0 f i ccConfig.obj
 0002:0001e4f0       ?max_size@?$allocator_traits@V?$allocator@U?$_List_node@V?$basic_string@DU?$char_traits@D@std@@V?$allocator@D@2@@std@@PAX@std@@@std@@@std@@SAIABV?$allocator@U?$_List_node@V?$basic_string@DU?$char_traits@D@std@@V?$allocator@D@2@@std@@PAX@std@@@2@@Z 004444f0 f i ccConfig.obj
 0002:0001e510       ?max_size@?$allocator_traits@V?$allocator@U?$_Tree_node@U?$pair@$$CBV?$basic_string@DU?$char_traits@D@std@@V?$allocator@D@2@@std@@V12@@std@@PAX@std@@@std@@@std@@SAIABV?$allocator@U?$_Tree_node@U?$pair@$$CBV?$basic_string@DU?$char_traits@D@std@@V?$allocator@D@2@@std@@V12@@std@@PAX@std@@@2@@Z 00444510 f i ccConfig.obj
 0002:0001e530       ?max_size@?$list@V?$basic_string@DU?$char_traits@D@std@@V?$allocator@D@2@@std@@V?$allocator@V?$basic_string@DU?$char_traits@D@std@@V?$allocator@D@2@@std@@@2@@std@@QBEIXZ 00444530 f i ccConfig.obj
 0002:0001e580       ?pointer_to@?$pointer_traits@PAU?$pair@$$CBV?$basic_string@DU?$char_traits@D@std@@V?$allocator@D@2@@std@@V12@@std@@@std@@SAPAU?$pair@$$CBV?$basic_string@DU?$char_traits@D@std@@V?$allocator@D@2@@std@@V12@@2@AAU32@@Z 00444580 f i ccConfig.obj
 0002:0001e5a0       ?pointer_to@?$pointer_traits@PBU?$pair@$$CBV?$basic_string@DU?$char_traits@D@std@@V?$allocator@D@2@@std@@V12@@std@@@std@@SAPBU?$pair@$$CBV?$basic_string@DU?$char_traits@D@std@@V?$allocator@D@2@@std@@V12@@2@ABU32@@Z 004445a0 f i ccConfig.obj
 0002:0001e5c0       ?push_back@?$list@V?$basic_string@DU?$char_traits@D@std@@V?$allocator@D@2@@std@@V?$allocator@V?$basic_string@DU?$char_traits@D@std@@V?$allocator@D@2@@std@@@2@@std@@QAEX$$QAV?$basic_string@DU?$char_traits@D@std@@V?$allocator@D@2@@2@@Z 004445c0 f i ccConfig.obj
 0002:0001e630       ?replace@?$basic_string@DU?$char_traits@D@std@@V?$allocator@D@2@@std@@QAEAAV12@IIABV12@II@Z 00444630 f i ccConfig.obj
 0002:0001e9c0       ?replace@?$basic_string@DU?$char_traits@D@std@@V?$allocator@D@2@@std@@QAEAAV12@IIPBDI@Z 004449c0 f i ccConfig.obj
 0002:0001ebd0       ?replace@?$basic_string@DU?$char_traits@D@std@@V?$allocator@D@2@@std@@QAEAAV12@V?$_String_const_iterator@V?$_String_val@U?$_Simple_types@D@std@@@std@@@2@0V?$_String_iterator@V?$_String_val@U?$_Simple_types@D@std@@@std@@@2@1@Z 00444bd0 f i ccConfig.obj
 0002:0001eed0       ?strchr@@YAPADPADH@Z       00444ed0 f i ccConfig.obj
 0002:0001ef10       ??0decodeBNCSString@@QAE@PBDD@Z 00444f10 f   decodeBNCSString.obj
 0002:0001ef60       ??0decodeBNCSString@@QAE@ABV0@@Z 00444f60 f   decodeBNCSString.obj
 0002:0001efd0       ??1decodeBNCSString@@UAE@XZ 00444fd0 f   decodeBNCSString.obj
 0002:0001f070       ??_GdecodeBNCSString@@UAEPAXI@Z 00445070 f i decodeBNCSString.obj
 0002:0001f070       ??_EdecodeBNCSString@@UAEPAXI@Z 00445070 f i decodeBNCSString.obj
 0002:0001f0c0       ?split@decodeBNCSString@@AAEXPBD@Z 004450c0 f i decodeBNCSString.obj
 0002:0001f430       ??0sizedBuffer@@QAE@XZ     00445430 f   sizedBuffer.obj
 0002:0001f470       ??0sizedBuffer@@QAE@PBEHH@Z 00445470 f   sizedBuffer.obj
 0002:0001f520       ??0sizedBuffer@@QAE@ABV0@@Z 00445520 f   sizedBuffer.obj
 0002:0001f560       ??1sizedBuffer@@UAE@XZ     00445560 f   sizedBuffer.obj
 0002:0001f5c0       ??0sizedBuffer@@QAE@$$QAV0@@Z 004455c0 f   sizedBuffer.obj
 0002:0001f630       ??4sizedBuffer@@QAEAAV0@$$QAV0@@Z 00445630 f   sizedBuffer.obj
 0002:0001f6b0       ?size@sizedBuffer@@QBEHXZ  004456b0 f   sizedBuffer.obj
 0002:0001f6d0       ?data@sizedBuffer@@QBEPBEXZ 004456d0 f   sizedBuffer.obj
 0002:0001f6f0       ?ref@sizedBuffer@@QBEHXZ   004456f0 f   sizedBuffer.obj
 0002:0001f710       ??4sizedBuffer@@QAEAAV0@ABV0@@Z 00445710 f   sizedBuffer.obj
 0002:0001f780       ??8@YA_NABVsizedBuffer@@0@Z 00445780 f   sizedBuffer.obj
 0002:0001f7f0       ??AsizedBuffer@@QBEEH@Z    004457f0 f   sizedBuffer.obj
 0002:0001f820       ?doCopy@sizedBuffer@@AAEXABV1@@Z 00445820 f   sizedBuffer.obj
 0002:0001fa00       ??_GsizedBuffer@@UAEPAXI@Z 00445a00 f i sizedBuffer.obj
 0002:0001fa00       ??_EsizedBuffer@@UAEPAXI@Z 00445a00 f i sizedBuffer.obj
 0002:0001fa50       ?About_DialogProc@@YGHPAUHWND__@@GGJ@Z 00445a50 f   ABOUT.obj
 0002:0001fbd0       ?About_About@@YAXXZ        00445bd0 f   ABOUT.obj
 0002:0001fc90       _GetBNCSConfigDirectory    00445c90 f   bncs_gcd.obj
 0002:0001fe30       _GetBNCSSystemDirectory    00445e30 f   bncs_gcd.obj
 0002:0001ffd0       _GetBNCSDLLDirectory       00445fd0 f   bncs_gcd.obj
 0002:00020170       _GetBNCSDataDirectory      00446170 f   bncs_gcd.obj
 0002:000204b0       ?Cmd_File@@YAHPAD@Z        004464b0 f   CMD.obj
 0002:000207c0       ?Cmd_Hardcopy@@YAHPAD@Z    004467c0 f   CMD.obj
 0002:00020920       ?Cmd_Lock@@YAHPAD@Z        00446920 f   CMD.obj
 0002:00020a80       ?Cmd_Poll@@YAHPAD@Z        00446a80 f   CMD.obj
 0002:00020bc0       ?Cmd_Query@@YAHPAD@Z       00446bc0 f   CMD.obj
 0002:00020d00       ?Cmd_Write@@YAHPAD@Z       00446d00 f   CMD.obj
 0002:000214b0       ??$?0AAHKX@?$pair@HK@std@@QAE@AAH$$QAK@Z 004474b0 f i CMD.obj
 0002:00021510       ??$?0AAV?$_Tree_iterator@V?$_Tree_val@U?$_Tree_simple_types@U?$pair@$$CBHK@std@@@std@@@std@@@std@@_NX@?$pair@V?$_Tree_iterator@V?$_Tree_val@U?$_Tree_simple_types@U?$pair@$$CBHK@std@@@std@@@std@@@std@@_N@std@@QAE@AAV?$_Tree_iterator@V?$_Tree_val@U?$_Tree_simple_types@U?$pair@$$CBHK@std@@@std@@@std@@@1@$$QA_N@Z 00447510 f i CMD.obj
 0002:000215c0       ??$?0HKX@?$pair@$$CBHK@std@@QAE@$$QAU?$pair@HK@1@@Z 004475c0 f i CMD.obj
 0002:00021620       ??$?0V?$_Tree_iterator@V?$_Tree_val@U?$_Tree_simple_types@U?$pair@$$CBHK@std@@@std@@@std@@@std@@_NX@?$pair@V?$_Tree_iterator@V?$_Tree_val@U?$_Tree_simple_types@U?$pair@$$CBHK@std@@@std@@@std@@@std@@_N@std@@QAE@$$QAV?$_Tree_iterator@V?$_Tree_val@U?$_Tree_simple_types@U?$pair@$$CBHK@std@@@std@@@std@@@1@$$QA_N@Z 00447620 f i CMD.obj
 0002:000216d0       ??$_Allocate@U?$_Tree_node@U?$pair@$$CBHK@std@@PAX@std@@@std@@YAPAU?$_Tree_node@U?$pair@$$CBHK@std@@PAX@0@IPAU10@@Z 004476d0 f i CMD.obj
 0002:00021750       ??$_Buynode@U?$pair@HK@std@@@?$_Tree_buy@U?$pair@$$CBHK@std@@V?$allocator@U?$pair@$$CBHK@std@@@2@@std@@QAEPAU?$_Tree_node@U?$pair@$$CBHK@std@@PAX@1@$$QAU?$pair@HK@1@@Z 00447750 f i CMD.obj
 0002:000218a0       ??$_Buynode_if_nil@AAU?$pair@$$CBHK@std@@@?$_Tree@V?$_Tmap_traits@HKU?$less@H@std@@V?$allocator@U?$pair@$$CBHK@std@@@2@$0A@@std@@@std@@IAEPAU?$_Tree_node@U?$pair@$$CBHK@std@@PAX@1@PAU21@AAU?$pair@$$CBHK@1@@Z 004478a0 f i CMD.obj
 0002:000218c0       ??$_Debug_lt_pred@U?$less@H@std@@ABHABH@std@@YA_NU?$less@H@0@ABH1PB_WI@Z 004478c0 f i CMD.obj
 0002:00021970       ??$_Insert_at@AAU?$pair@$$CBHK@std@@PAU?$_Tree_node@U?$pair@$$CBHK@std@@PAX@2@@?$_Tree@V?$_Tmap_traits@HKU?$less@H@std@@V?$allocator@U?$pair@$$CBHK@std@@@2@$0A@@std@@@std@@IAE?AV?$_Tree_iterator@V?$_Tree_val@U?$_Tree_simple_types@U?$pair@$$CBHK@std@@@std@@@std@@@1@_NPAU?$_Tree_node@U?$pair@$$CBHK@std@@PAX@1@AAU?$pair@$$CBHK@1@1@Z 00447970 f i CMD.obj
 0002:00021ee0       ??$_Insert_nohint@AAU?$pair@$$CBHK@std@@PAU?$_Tree_node@U?$pair@$$CBHK@std@@PAX@2@@?$_Tree@V?$_Tmap_traits@HKU?$less@H@std@@V?$allocator@U?$pair@$$CBHK@std@@@2@$0A@@std@@@std@@IAE?AU?$pair@V?$_Tree_iterator@V?$_Tree_val@U?$_Tree_simple_types@U?$pair@$$CBHK@std@@@std@@@std@@@std@@_N@1@_NAAU?$pair@$$CBHK@1@PAU?$_Tree_node@U?$pair@$$CBHK@std@@PAX@1@@Z 00447ee0 f i CMD.obj
 0002:000225a0       ??$_Kfn@$$CBHK@?$_Tmap_traits@HKU?$less@H@std@@V?$allocator@U?$pair@$$CBHK@std@@@2@$0A@@std@@SAABHABU?$pair@$$CBHK@1@@Z 004485a0 f i CMD.obj
 0002:000225b0       ??$addressof@PAU?$_Tree_node@U?$pair@$$CBHK@std@@PAX@std@@@std@@YAPAPAU?$_Tree_node@U?$pair@$$CBHK@std@@PAX@0@AAPAU10@@Z 004485b0 f i CMD.obj
 0002:000225c0       ??$addressof@U?$pair@$$CBHK@std@@@std@@YAPAU?$pair@$$CBHK@0@AAU10@@Z 004485c0 f i CMD.obj
 0002:000225d0       ??$construct@PAU?$_Tree_node@U?$pair@$$CBHK@std@@PAX@std@@AAPAU12@@?$_Wrap_alloc@V?$allocator@U?$_Tree_node@U?$pair@$$CBHK@std@@PAX@std@@@std@@@std@@QAEXPAPAU?$_Tree_node@U?$pair@$$CBHK@std@@PAX@1@AAPAU21@@Z 004485d0 f i CMD.obj
 0002:00022620       ??$construct@PAU?$_Tree_node@U?$pair@$$CBHK@std@@PAX@std@@AAPAU12@@?$allocator@U?$_Tree_node@U?$pair@$$CBHK@std@@PAX@std@@@std@@QAEXPAPAU?$_Tree_node@U?$pair@$$CBHK@std@@PAX@1@AAPAU21@@Z 00448620 f i CMD.obj
 0002:000226f0       ??$construct@PAU?$_Tree_node@U?$pair@$$CBHK@std@@PAX@std@@AAPAU12@@?$allocator_traits@V?$allocator@U?$_Tree_node@U?$pair@$$CBHK@std@@PAX@std@@@std@@@std@@SAXAAV?$allocator@U?$_Tree_node@U?$pair@$$CBHK@std@@PAX@std@@@1@PAPAU?$_Tree_node@U?$pair@$$CBHK@std@@PAX@1@AAPAU31@@Z 004486f0 f i CMD.obj
 0002:00022720       ??$construct@U?$pair@$$CBHK@std@@U?$pair@HK@2@@?$_Wrap_alloc@V?$allocator@U?$_Tree_node@U?$pair@$$CBHK@std@@PAX@std@@@std@@@std@@QAEXPAU?$pair@$$CBHK@1@$$QAU?$pair@HK@1@@Z 00448720 f i CMD.obj
 0002:00022770       ??$construct@U?$pair@$$CBHK@std@@U?$pair@HK@2@@?$allocator@U?$_Tree_node@U?$pair@$$CBHK@std@@PAX@std@@@std@@QAEXPAU?$pair@$$CBHK@1@$$QAU?$pair@HK@1@@Z 00448770 f i CMD.obj
 0002:00022840       ??$construct@U?$pair@$$CBHK@std@@U?$pair@HK@2@@?$allocator_traits@V?$allocator@U?$_Tree_node@U?$pair@$$CBHK@std@@PAX@std@@@std@@@std@@SAXAAV?$allocator@U?$_Tree_node@U?$pair@$$CBHK@std@@PAX@std@@@1@PAU?$pair@$$CBHK@1@$$QAU?$pair@HK@1@@Z 00448840 f i CMD.obj
 0002:00022870       ??$destroy@PAU?$_Tree_node@U?$pair@$$CBHK@std@@PAX@std@@@?$_Wrap_alloc@V?$allocator@U?$_Tree_node@U?$pair@$$CBHK@std@@PAX@std@@@std@@@std@@QAEXPAPAU?$_Tree_node@U?$pair@$$CBHK@std@@PAX@1@@Z 00448870 f i CMD.obj
 0002:000228b0       ??$destroy@PAU?$_Tree_node@U?$pair@$$CBHK@std@@PAX@std@@@?$allocator@U?$_Tree_node@U?$pair@$$CBHK@std@@PAX@std@@@std@@QAEXPAPAU?$_Tree_node@U?$pair@$$CBHK@std@@PAX@1@@Z 004488b0 f i CMD.obj
 0002:000228d0       ??$destroy@PAU?$_Tree_node@U?$pair@$$CBHK@std@@PAX@std@@@?$allocator_traits@V?$allocator@U?$_Tree_node@U?$pair@$$CBHK@std@@PAX@std@@@std@@@std@@SAXAAV?$allocator@U?$_Tree_node@U?$pair@$$CBHK@std@@PAX@std@@@1@PAPAU?$_Tree_node@U?$pair@$$CBHK@std@@PAX@1@@Z 004488d0 f i CMD.obj
 0002:000228f0       ??$destroy@U?$pair@$$CBHK@std@@@?$_Wrap_alloc@V?$allocator@U?$_Tree_node@U?$pair@$$CBHK@std@@PAX@std@@@std@@@std@@QAEXPAU?$pair@$$CBHK@1@@Z 004488f0 f i CMD.obj
 0002:00022930       ??$destroy@U?$pair@$$CBHK@std@@@?$allocator@U?$_Tree_node@U?$pair@$$CBHK@std@@PAX@std@@@std@@QAEXPAU?$pair@$$CBHK@1@@Z 00448930 f i CMD.obj
 0002:00022950       ??$destroy@U?$pair@$$CBHK@std@@@?$allocator_traits@V?$allocator@U?$_Tree_node@U?$pair@$$CBHK@std@@PAX@std@@@std@@@std@@SAXAAV?$allocator@U?$_Tree_node@U?$pair@$$CBHK@std@@PAX@std@@@1@PAU?$pair@$$CBHK@1@@Z 00448950 f i CMD.obj
 0002:00022970       ??$forward@AAH@std@@YAAAHAAH@Z 00448970 f i CMD.obj
 0002:00022980       ??$forward@AAPAU?$_Tree_node@U?$pair@$$CBHK@std@@PAX@std@@@std@@YAAAPAU?$_Tree_node@U?$pair@$$CBHK@std@@PAX@0@AAPAU10@@Z 00448980 f i CMD.obj
 0002:00022990       ??$forward@AAU?$pair@$$CBHK@std@@@std@@YAAAU?$pair@$$CBHK@0@AAU10@@Z 00448990 f i CMD.obj
 0002:000229a0       ??$forward@AAV?$_Tree_iterator@V?$_Tree_val@U?$_Tree_simple_types@U?$pair@$$CBHK@std@@@std@@@std@@@std@@@std@@YAAAV?$_Tree_iterator@V?$_Tree_val@U?$_Tree_simple_types@U?$pair@$$CBHK@std@@@std@@@std@@@0@AAV10@@Z 004489a0 f i CMD.obj
 0002:000229b0       ??$forward@ABH@std@@YAABHABH@Z 004489b0 f i CMD.obj
 0002:000229c0       ??$forward@H@std@@YA$$QAHAAH@Z 004489c0 f i CMD.obj
 0002:000229d0       ??$forward@K@std@@YA$$QAKAAK@Z 004489d0 f i CMD.obj
 0002:000229e0       ??$forward@U?$pair@HK@std@@@std@@YA$$QAU?$pair@HK@0@AAU10@@Z 004489e0 f i CMD.obj
 0002:000229f0       ??$forward@V?$_Tree_iterator@V?$_Tree_val@U?$_Tree_simple_types@U?$pair@$$CBHK@std@@@std@@@std@@@std@@@std@@YA$$QAV?$_Tree_iterator@V?$_Tree_val@U?$_Tree_simple_types@U?$pair@$$CBHK@std@@@std@@@std@@@0@AAV10@@Z 004489f0 f i CMD.obj
 0002:00022a00       ??$insert@U?$pair@HK@std@@@?$_Tree@V?$_Tmap_traits@HKU?$less@H@std@@V?$allocator@U?$pair@$$CBHK@std@@@2@$0A@@std@@@std@@QAE?AU?$pair@V?$_Tree_iterator@V?$_Tree_val@U?$_Tree_simple_types@U?$pair@$$CBHK@std@@@std@@@std@@@std@@_N@1@$$QAU?$pair@HK@1@@Z 00448a00 f i CMD.obj
 0002:00022aa0       ??$make_pair@AAHK@std@@YA?AU?$pair@HK@0@AAH$$QAK@Z 00448aa0 f i CMD.obj
 0002:00022ae0       ??$sprintf_s@$0EAB@@@YAHAAY0EAB@DPBDZZ 00448ae0 f i CMD.obj
 0002:00022b40       ??0?$_Iterator012@Ubidirectional_iterator_tag@std@@U?$pair@$$CBHK@2@HPBU32@ABU32@U_Iterator_base12@2@@std@@QAE@ABU01@@Z 00448b40 f i CMD.obj
 0002:00022b80       ??0?$_Iterator012@Ubidirectional_iterator_tag@std@@U?$pair@$$CBHK@2@HPBU32@ABU32@U_Iterator_base12@2@@std@@QAE@XZ 00448b80 f i CMD.obj
 0002:00022bb0       ??0?$_Tree_const_iterator@V?$_Tree_val@U?$_Tree_simple_types@U?$pair@$$CBHK@std@@@std@@@std@@@std@@QAE@ABV01@@Z 00448bb0 f i CMD.obj
 0002:00022bf0       ??0?$_Tree_const_iterator@V?$_Tree_val@U?$_Tree_simple_types@U?$pair@$$CBHK@std@@@std@@@std@@@std@@QAE@PAU?$_Tree_node@U?$pair@$$CBHK@std@@PAX@1@PBV?$_Tree_val@U?$_Tree_simple_types@U?$pair@$$CBHK@std@@@std@@@1@@Z 00448bf0 f i CMD.obj
 0002:00022c30       ??0?$_Tree_iterator@V?$_Tree_val@U?$_Tree_simple_types@U?$pair@$$CBHK@std@@@std@@@std@@@std@@QAE@ABV01@@Z 00448c30 f i CMD.obj
 0002:00022c70       ??0?$_Tree_iterator@V?$_Tree_val@U?$_Tree_simple_types@U?$pair@$$CBHK@std@@@std@@@std@@@std@@QAE@PAU?$_Tree_node@U?$pair@$$CBHK@std@@PAX@1@PBV?$_Tree_val@U?$_Tree_simple_types@U?$pair@$$CBHK@std@@@std@@@1@@Z 00448c70 f i CMD.obj
 0002:00022cb0       ??0?$_Tree_unchecked_const_iterator@V?$_Tree_val@U?$_Tree_simple_types@U?$pair@$$CBHK@std@@@std@@@std@@U_Iterator_base12@2@@std@@QAE@ABV01@@Z 00448cb0 f i CMD.obj
 0002:00022d00       ??0?$_Tree_unchecked_const_iterator@V?$_Tree_val@U?$_Tree_simple_types@U?$pair@$$CBHK@std@@@std@@@std@@U_Iterator_base12@2@@std@@QAE@PAU?$_Tree_node@U?$pair@$$CBHK@std@@PAX@1@PBV?$_Tree_val@U?$_Tree_simple_types@U?$pair@$$CBHK@std@@@std@@@1@@Z 00448d00 f i CMD.obj
 0002:00022da0       ??0?$_Wrap_alloc@V?$allocator@U?$_Tree_node@U?$pair@$$CBHK@std@@PAX@std@@@std@@@std@@QAE@XZ 00448da0 f i CMD.obj
 0002:00022dd0       ??0?$allocator@U?$_Tree_node@U?$pair@$$CBHK@std@@PAX@std@@@std@@QAE@XZ 00448dd0 f i CMD.obj
 0002:00022df0       ??1?$_Iterator012@Ubidirectional_iterator_tag@std@@U?$pair@$$CBHK@2@HPBU32@ABU32@U_Iterator_base12@2@@std@@QAE@XZ 00448df0 f i CMD.obj
 0002:00022e20       ??1?$_Tree_const_iterator@V?$_Tree_val@U?$_Tree_simple_types@U?$pair@$$CBHK@std@@@std@@@std@@@std@@QAE@XZ 00448e20 f i CMD.obj
 0002:00022e50       ??1?$_Tree_iterator@V?$_Tree_val@U?$_Tree_simple_types@U?$pair@$$CBHK@std@@@std@@@std@@@std@@QAE@XZ 00448e50 f i CMD.obj
 0002:00022e80       ??1?$_Tree_unchecked_const_iterator@V?$_Tree_val@U?$_Tree_simple_types@U?$pair@$$CBHK@std@@@std@@@std@@U_Iterator_base12@2@@std@@QAE@XZ 00448e80 f i CMD.obj
 0002:00022eb0       ??1?$pair@V?$_Tree_iterator@V?$_Tree_val@U?$_Tree_simple_types@U?$pair@$$CBHK@std@@@std@@@std@@@std@@_N@std@@QAE@XZ 00448eb0 f i CMD.obj
 0002:00022ee0       ??8?$_Tree_const_iterator@V?$_Tree_val@U?$_Tree_simple_types@U?$pair@$$CBHK@std@@@std@@@std@@@std@@QBE_NABV01@@Z 00448ee0 f i CMD.obj
 0002:00023020       ??F?$_Tree_const_iterator@V?$_Tree_val@U?$_Tree_simple_types@U?$pair@$$CBHK@std@@@std@@@std@@@std@@QAEAAV01@XZ 00449020 f i CMD.obj
 0002:000231f0       ??F?$_Tree_iterator@V?$_Tree_val@U?$_Tree_simple_types@U?$pair@$$CBHK@std@@@std@@@std@@@std@@QAEAAV01@XZ 004491f0 f i CMD.obj
 0002:00023220       ??F?$_Tree_unchecked_const_iterator@V?$_Tree_val@U?$_Tree_simple_types@U?$pair@$$CBHK@std@@@std@@@std@@U_Iterator_base12@2@@std@@QAEAAV01@XZ 00449220 f i CMD.obj
 0002:00023370       ??R?$less@H@std@@QBE_NABH0@Z 00449370 f i CMD.obj
 0002:000233c0       ?_Buynode0@?$_Tree_buy@U?$pair@$$CBHK@std@@V?$allocator@U?$pair@$$CBHK@std@@@2@@std@@QAEPAU?$_Tree_node@U?$pair@$$CBHK@std@@PAX@2@XZ 004493c0 f i CMD.obj
 0002:00023580       ?_Color@?$_Tree_val@U?$_Tree_simple_types@U?$pair@$$CBHK@std@@@std@@@std@@SAAADPAU?$_Tree_node@U?$pair@$$CBHK@std@@PAX@2@@Z 00449580 f i CMD.obj
 0002:00023590       ?_Destroy_if_not_nil@?$_Tree@V?$_Tmap_traits@HKU?$less@H@std@@V?$allocator@U?$pair@$$CBHK@std@@@2@$0A@@std@@@std@@IAEXPAU?$_Tree_node@U?$pair@$$CBHK@std@@PAX@2@@Z 00449590 f i CMD.obj
 0002:00023620       ?_Freenode0@?$_Tree_buy@U?$pair@$$CBHK@std@@V?$allocator@U?$pair@$$CBHK@std@@@2@@std@@QAEXPAU?$_Tree_node@U?$pair@$$CBHK@std@@PAX@2@@Z 00449620 f i CMD.obj
 0002:00023710       ?_Getal@?$_Tree_alloc@$0A@U?$_Tree_base_types@U?$pair@$$CBHK@std@@V?$allocator@U?$pair@$$CBHK@std@@@2@@std@@@std@@QBE?AU?$_Wrap_alloc@V?$allocator@U?$_Tree_node@U?$pair@$$CBHK@std@@PAX@std@@@std@@@2@XZ 00449710 f i CMD.obj
 0002:00023750       ?_Getcomp@?$_Tree_comp@$0A@V?$_Tmap_traits@HKU?$less@H@std@@V?$allocator@U?$pair@$$CBHK@std@@@2@$0A@@std@@@std@@QBE?AU?$less@H@2@XZ 00449750 f i CMD.obj
 0002:00023780       ?_Isnil@?$_Tree_val@U?$_Tree_simple_types@U?$pair@$$CBHK@std@@@std@@@std@@SAAADPAU?$_Tree_node@U?$pair@$$CBHK@std@@PAX@2@@Z 00449780 f i CMD.obj
 0002:00023790       ?_Key@?$_Tree@V?$_Tmap_traits@HKU?$less@H@std@@V?$allocator@U?$pair@$$CBHK@std@@@2@$0A@@std@@@std@@IBEABHPAU?$_Tree_node@U?$pair@$$CBHK@std@@PAX@2@@Z 00449790 f i CMD.obj
 0002:000237d0       ?_Kfn@?$_Tree@V?$_Tmap_traits@HKU?$less@H@std@@V?$allocator@U?$pair@$$CBHK@std@@@2@$0A@@std@@@std@@IBEABHABU?$pair@$$CBHK@2@@Z 004497d0 f i CMD.obj
 0002:00023810       ?_Lbound@?$_Tree@V?$_Tmap_traits@HKU?$less@H@std@@V?$allocator@U?$pair@$$CBHK@std@@@2@$0A@@std@@@std@@IAEPAU?$_Tree_node@U?$pair@$$CBHK@std@@PAX@2@ABH@Z 00449810 f i CMD.obj
 0002:00023900       ?_Left@?$_Tree_val@U?$_Tree_simple_types@U?$pair@$$CBHK@std@@@std@@@std@@SAAAPAU?$_Tree_node@U?$pair@$$CBHK@std@@PAX@2@PAU32@@Z 00449900 f i CMD.obj
 0002:00023910       ?_Lmost@?$_Tree@V?$_Tmap_traits@HKU?$less@H@std@@V?$allocator@U?$pair@$$CBHK@std@@@2@$0A@@std@@@std@@IBEAAPAU?$_Tree_node@U?$pair@$$CBHK@std@@PAX@2@XZ 00449910 f i CMD.obj
 0002:00023950       ?_Lrotate@?$_Tree@V?$_Tmap_traits@HKU?$less@H@std@@V?$allocator@U?$pair@$$CBHK@std@@@2@$0A@@std@@@std@@IAEXPAU?$_Tree_node@U?$pair@$$CBHK@std@@PAX@2@@Z 00449950 f i CMD.obj
 0002:00023af0       ?_Max@?$_Tree_val@U?$_Tree_simple_types@U?$pair@$$CBHK@std@@@std@@@std@@SAPAU?$_Tree_node@U?$pair@$$CBHK@std@@PAX@2@PAU32@@Z 00449af0 f i CMD.obj
 0002:00023b40       ?_Mynode@?$_Tree_unchecked_const_iterator@V?$_Tree_val@U?$_Tree_simple_types@U?$pair@$$CBHK@std@@@std@@@std@@U_Iterator_base12@2@@std@@QBEPAU?$_Tree_node@U?$pair@$$CBHK@std@@PAX@2@XZ 00449b40 f i CMD.obj
 0002:00023b60       ?_Myval@?$_Tree_val@U?$_Tree_simple_types@U?$pair@$$CBHK@std@@@std@@@std@@SAAAU?$pair@$$CBHK@2@PAU?$_Tree_node@U?$pair@$$CBHK@std@@PAX@2@@Z 00449b60 f i CMD.obj
 0002:00023b70       ?_Parent@?$_Tree_val@U?$_Tree_simple_types@U?$pair@$$CBHK@std@@@std@@@std@@SAAAPAU?$_Tree_node@U?$pair@$$CBHK@std@@PAX@2@PAU32@@Z 00449b70 f i CMD.obj
 0002:00023b80       ?_Right@?$_Tree_val@U?$_Tree_simple_types@U?$pair@$$CBHK@std@@@std@@@std@@SAAAPAU?$_Tree_node@U?$pair@$$CBHK@std@@PAX@2@PAU32@@Z 00449b80 f i CMD.obj
 0002:00023b90       ?_Rmost@?$_Tree@V?$_Tmap_traits@HKU?$less@H@std@@V?$allocator@U?$pair@$$CBHK@std@@@2@$0A@@std@@@std@@IBEAAPAU?$_Tree_node@U?$pair@$$CBHK@std@@PAX@2@XZ 00449b90 f i CMD.obj
 0002:00023bd0       ?_Root@?$_Tree@V?$_Tmap_traits@HKU?$less@H@std@@V?$allocator@U?$pair@$$CBHK@std@@@2@$0A@@std@@@std@@IBEAAPAU?$_Tree_node@U?$pair@$$CBHK@std@@PAX@2@XZ 00449bd0 f i CMD.obj
 0002:00023c10       ?_Rrotate@?$_Tree@V?$_Tmap_traits@HKU?$less@H@std@@V?$allocator@U?$pair@$$CBHK@std@@@2@$0A@@std@@@std@@IAEXPAU?$_Tree_node@U?$pair@$$CBHK@std@@PAX@2@@Z 00449c10 f i CMD.obj
 0002:00023db0       ?allocate@?$_Wrap_alloc@V?$allocator@U?$_Tree_node@U?$pair@$$CBHK@std@@PAX@std@@@std@@@std@@QAEPAU?$_Tree_node@U?$pair@$$CBHK@std@@PAX@2@I@Z 00449db0 f i CMD.obj
 0002:00023df0       ?allocate@?$allocator@U?$_Tree_node@U?$pair@$$CBHK@std@@PAX@std@@@std@@QAEPAU?$_Tree_node@U?$pair@$$CBHK@std@@PAX@2@I@Z 00449df0 f i CMD.obj
 0002:00023e30       ?begin@?$_Tree@V?$_Tmap_traits@HKU?$less@H@std@@V?$allocator@U?$pair@$$CBHK@std@@@2@$0A@@std@@@std@@QAE?AV?$_Tree_iterator@V?$_Tree_val@U?$_Tree_simple_types@U?$pair@$$CBHK@std@@@std@@@std@@@2@XZ 00449e30 f i CMD.obj
 0002:00023e80       ?deallocate@?$_Wrap_alloc@V?$allocator@U?$_Tree_node@U?$pair@$$CBHK@std@@PAX@std@@@std@@@std@@QAEXPAU?$_Tree_node@U?$pair@$$CBHK@std@@PAX@2@I@Z 00449e80 f i CMD.obj
 0002:00023ec0       ?deallocate@?$allocator@U?$_Tree_node@U?$pair@$$CBHK@std@@PAX@std@@@std@@QAEXPAU?$_Tree_node@U?$pair@$$CBHK@std@@PAX@2@I@Z 00449ec0 f i CMD.obj
 0002:00023f00       ?end@?$_Tree@V?$_Tmap_traits@HKU?$less@H@std@@V?$allocator@U?$pair@$$CBHK@std@@@2@$0A@@std@@@std@@QAE?AV?$_Tree_iterator@V?$_Tree_val@U?$_Tree_simple_types@U?$pair@$$CBHK@std@@@std@@@std@@@2@XZ 00449f00 f i CMD.obj
 0002:00023f50       ?find@?$_Tree@V?$_Tmap_traits@HKU?$less@H@std@@V?$allocator@U?$pair@$$CBHK@std@@@2@$0A@@std@@@std@@QAE?AV?$_Tree_iterator@V?$_Tree_val@U?$_Tree_simple_types@U?$pair@$$CBHK@std@@@std@@@std@@@2@ABH@Z 00449f50 f i CMD.obj
 0002:000241c0       ?lower_bound@?$_Tree@V?$_Tmap_traits@HKU?$less@H@std@@V?$allocator@U?$pair@$$CBHK@std@@@2@$0A@@std@@@std@@QAE?AV?$_Tree_iterator@V?$_Tree_val@U?$_Tree_simple_types@U?$pair@$$CBHK@std@@@std@@@std@@@2@ABH@Z 0044a1c0 f i CMD.obj
 0002:00024230       ?max_size@?$_Tree@V?$_Tmap_traits@HKU?$less@H@std@@V?$allocator@U?$pair@$$CBHK@std@@@2@$0A@@std@@@std@@QBEIXZ 0044a230 f i CMD.obj
 0002:00024280       ?max_size@?$_Wrap_alloc@V?$allocator@U?$_Tree_node@U?$pair@$$CBHK@std@@PAX@std@@@std@@@std@@QBEIXZ 0044a280 f i CMD.obj
 0002:000242c0       ?max_size@?$allocator@U?$_Tree_node@U?$pair@$$CBHK@std@@PAX@std@@@std@@QBEIXZ 0044a2c0 f i CMD.obj
 0002:000242e0       ?max_size@?$allocator_traits@V?$allocator@U?$_Tree_node@U?$pair@$$CBHK@std@@PAX@std@@@std@@@std@@SAIABV?$allocator@U?$_Tree_node@U?$pair@$$CBHK@std@@PAX@std@@@2@@Z 0044a2e0 f i CMD.obj
 0002:00024300       ?CSISup_Init@@YAHXZ        0044a300 f   CSISUP.obj
 0002:00024640       ?CSISup_Closedown@@YAXXZ   0044a640 f   CSISUP.obj
 0002:00024680       ?CSISup_AssertTxRxMode@@YAHI@Z 0044a680 f   CSISUP.obj
 0002:00024770       ?CSISup_DisplayTxRxMode@@YAXI@Z 0044a770 f   CSISUP.obj
 0002:00024980       ?CSISup_TxRevertive@@YAXHHHH@Z 0044a980 f   CSISUP.obj
 0002:00024eb0       ?Dialog_DialogProc@@YGJPAUHWND__@@IIJ@Z 0044aeb0 f   DIALOG.obj
 0002:000255a0       ?Dialog_Init@@YAXXZ        0044b5a0 f   DIALOG.obj
 0002:00025600       ?Dialog_InitDialog@@YAXXZ  0044b600 f   DIALOG.obj
 0002:000258b0       ?Dialog_InfoLB@@YAXXZ      0044b8b0 f   DIALOG.obj
 0002:00025b40       ?Dialog_Store@@YAXXZ       0044bb40 f   DIALOG.obj
 0002:00025d00       ?Dialog_ToggleLock@@YAXXZ  0044bd00 f   DIALOG.obj
 0002:00025e20       ?Dialog_Update@@YAXH@Z     0044be20 f   DIALOG.obj
 0002:000260b0       ?Dialog_FilterDisable@@YAXXZ 0044c0b0 f   DIALOG.obj
 0002:000265f0       ??0?$_Iterator012@Ubidirectional_iterator_tag@std@@PAVfilterBase@@HPBQAV3@ABQAV3@U_Iterator_base12@2@@std@@QAE@ABU01@@Z 0044c5f0 f i DIALOG.obj
 0002:00026630       ??0?$_Iterator012@Ubidirectional_iterator_tag@std@@PAVfilterBase@@HPBQAV3@ABQAV3@U_Iterator_base12@2@@std@@QAE@XZ 0044c630 f i DIALOG.obj
 0002:00026660       ??0?$_List_const_iterator@V?$_List_val@U?$_List_simple_types@PAVfilterBase@@@std@@@std@@@std@@QAE@ABV01@@Z 0044c660 f i DIALOG.obj
 0002:000266a0       ??0?$_List_const_iterator@V?$_List_val@U?$_List_simple_types@PAVfilterBase@@@std@@@std@@@std@@QAE@PAU?$_List_node@PAVfilterBase@@PAX@1@PBV?$_List_val@U?$_List_simple_types@PAVfilterBase@@@std@@@1@@Z 0044c6a0 f i DIALOG.obj
 0002:000266e0       ??0?$_List_iterator@V?$_List_val@U?$_List_simple_types@PAVfilterBase@@@std@@@std@@@std@@QAE@PAU?$_List_node@PAVfilterBase@@PAX@1@PBV?$_List_val@U?$_List_simple_types@PAVfilterBase@@@std@@@1@@Z 0044c6e0 f i DIALOG.obj
 0002:00026720       ??0?$_List_unchecked_const_iterator@V?$_List_val@U?$_List_simple_types@PAVfilterBase@@@std@@@std@@U_Iterator_base12@2@@std@@QAE@ABV01@@Z 0044c720 f i DIALOG.obj
 0002:00026770       ??0?$_List_unchecked_const_iterator@V?$_List_val@U?$_List_simple_types@PAVfilterBase@@@std@@@std@@U_Iterator_base12@2@@std@@QAE@PAU?$_List_node@PAVfilterBase@@PAX@1@PBV?$_List_val@U?$_List_simple_types@PAVfilterBase@@@std@@@1@@Z 0044c770 f i DIALOG.obj
 0002:00026810       ??1?$_Iterator012@Ubidirectional_iterator_tag@std@@PAVfilterBase@@HPBQAV3@ABQAV3@U_Iterator_base12@2@@std@@QAE@XZ 0044c810 f i DIALOG.obj
 0002:00026840       ??1?$_List_const_iterator@V?$_List_val@U?$_List_simple_types@PAVfilterBase@@@std@@@std@@@std@@QAE@XZ 0044c840 f i DIALOG.obj
 0002:00026870       ??1?$_List_iterator@V?$_List_val@U?$_List_simple_types@PAVfilterBase@@@std@@@std@@@std@@QAE@XZ 0044c870 f i DIALOG.obj
 0002:000268a0       ??1?$_List_unchecked_const_iterator@V?$_List_val@U?$_List_simple_types@PAVfilterBase@@@std@@@std@@U_Iterator_base12@2@@std@@QAE@XZ 0044c8a0 f i DIALOG.obj
 0002:000268d0       ??8?$_List_const_iterator@V?$_List_val@U?$_List_simple_types@PAVfilterBase@@@std@@@std@@@std@@QBE_NABV01@@Z 0044c8d0 f i DIALOG.obj
 0002:00026a10       ??9?$_List_const_iterator@V?$_List_val@U?$_List_simple_types@PAVfilterBase@@@std@@@std@@@std@@QBE_NABV01@@Z 0044ca10 f i DIALOG.obj
 0002:00026a70       ??D?$_List_const_iterator@V?$_List_val@U?$_List_simple_types@PAVfilterBase@@@std@@@std@@@std@@QBEABQAVfilterBase@@XZ 0044ca70 f i DIALOG.obj
 0002:00026b90       ??E?$_List_const_iterator@V?$_List_val@U?$_List_simple_types@PAVfilterBase@@@std@@@std@@@std@@QAEAAV01@XZ 0044cb90 f i DIALOG.obj
 0002:00026cc0       ?_Myval@?$_List_val@U?$_List_simple_types@PAVfilterBase@@@std@@@std@@SAAAPAVfilterBase@@PAU?$_List_node@PAVfilterBase@@PAX@2@@Z 0044ccc0 f i DIALOG.obj
 0002:00026cd0       ?_Nextnode@?$_List_val@U?$_List_simple_types@PAVfilterBase@@@std@@@std@@SAAAPAU?$_List_node@PAVfilterBase@@PAX@2@PAU32@@Z 0044ccd0 f i DIALOG.obj
 0002:00026ce0       ?begin@?$list@PAVfilterBase@@V?$allocator@PAVfilterBase@@@std@@@std@@QAE?AV?$_List_iterator@V?$_List_val@U?$_List_simple_types@PAVfilterBase@@@std@@@std@@@2@XZ 0044cce0 f i DIALOG.obj
 0002:00026d30       ?disabled@filters@@QAE_NXZ 0044cd30 f i DIALOG.obj
 0002:00026d50       ?end@?$list@PAVfilterBase@@V?$allocator@PAVfilterBase@@@std@@@std@@QAE?AV?$_List_iterator@V?$_List_val@U?$_List_simple_types@PAVfilterBase@@@std@@@std@@@2@XZ 0044cd50 f i DIALOG.obj
 0002:00026da0       ?setDisabled@filters@@QAEX_N@Z 0044cda0 f i DIALOG.obj
 0002:00026dd0       ?toString@filters@@QAE?AV?$basic_string@DU?$char_traits@D@std@@V?$allocator@D@2@@std@@XZ 0044cdd0 f i DIALOG.obj
 0002:00027100       ?Ext_SetSlot@@YAXIJE@Z     0044d100 f   EXT.obj
 0002:00027270       ?Ext_GetSlot@@YAXIJ@Z      0044d270 f   EXT.obj
 0002:00027310       ?Ext_SendUserStr@@YAXPAD@Z 0044d310 f   EXT.obj
 0002:00027360       ?Ext_WriteSlot@@YAXIJ@Z    0044d360 f   EXT.obj
 0002:00027530       ??$?0AAIKX@?$pair@IK@std@@QAE@AAI$$QAK@Z 0044d530 f i EXT.obj
 0002:00027590       ??$?0IKX@?$pair@$$CBHK@std@@QAE@$$QAU?$pair@IK@1@@Z 0044d590 f i EXT.obj
 0002:000275f0       ??$_Buynode@U?$pair@IK@std@@@?$_Tree_buy@U?$pair@$$CBHK@std@@V?$allocator@U?$pair@$$CBHK@std@@@2@@std@@QAEPAU?$_Tree_node@U?$pair@$$CBHK@std@@PAX@1@$$QAU?$pair@IK@1@@Z 0044d5f0 f i EXT.obj
 0002:00027740       ??$construct@U?$pair@$$CBHK@std@@U?$pair@IK@2@@?$_Wrap_alloc@V?$allocator@U?$_Tree_node@U?$pair@$$CBHK@std@@PAX@std@@@std@@@std@@QAEXPAU?$pair@$$CBHK@1@$$QAU?$pair@IK@1@@Z 0044d740 f i EXT.obj
 0002:00027790       ??$construct@U?$pair@$$CBHK@std@@U?$pair@IK@2@@?$allocator@U?$_Tree_node@U?$pair@$$CBHK@std@@PAX@std@@@std@@QAEXPAU?$pair@$$CBHK@1@$$QAU?$pair@IK@1@@Z 0044d790 f i EXT.obj
 0002:00027860       ??$construct@U?$pair@$$CBHK@std@@U?$pair@IK@2@@?$allocator_traits@V?$allocator@U?$_Tree_node@U?$pair@$$CBHK@std@@PAX@std@@@std@@@std@@SAXAAV?$allocator@U?$_Tree_node@U?$pair@$$CBHK@std@@PAX@std@@@1@PAU?$pair@$$CBHK@1@$$QAU?$pair@IK@1@@Z 0044d860 f i EXT.obj
 0002:00027890       ??$forward@AAI@std@@YAAAIAAI@Z 0044d890 f i EXT.obj
 0002:000278a0       ??$forward@I@std@@YA$$QAIAAI@Z 0044d8a0 f i EXT.obj
 0002:000278b0       ??$forward@U?$pair@IK@std@@@std@@YA$$QAU?$pair@IK@0@AAU10@@Z 0044d8b0 f i EXT.obj
 0002:000278c0       ??$insert@U?$pair@IK@std@@@?$_Tree@V?$_Tmap_traits@HKU?$less@H@std@@V?$allocator@U?$pair@$$CBHK@std@@@2@$0A@@std@@@std@@QAE?AU?$pair@V?$_Tree_iterator@V?$_Tree_val@U?$_Tree_simple_types@U?$pair@$$CBHK@std@@@std@@@std@@@std@@_N@1@$$QAU?$pair@IK@1@@Z 0044d8c0 f i EXT.obj
 0002:00027960       ??$make_pair@AAIK@std@@YA?AU?$pair@IK@0@AAI$$QAK@Z 0044d960 f i EXT.obj
 0002:000279a0       ?FilterDialogProc@@YGHPAUHWND__@@IIJ@Z 0044d9a0 f   filterDialog.obj
 0002:000281b0       ??$addressof@$$CBU?$pair@$$CBHPAVfilters@@@std@@@std@@YAPBU?$pair@$$CBHPAVfilters@@@0@ABU10@@Z 0044e1b0 f i filterDialog.obj
 0002:000281c0       ??$addressof@PAU?$_List_node@PAVfilterBase@@PAX@std@@@std@@YAPAPAU?$_List_node@PAVfilterBase@@PAX@0@AAPAU10@@Z 0044e1c0 f i filterDialog.obj
 0002:000281d0       ??$addressof@PAVfilterBase@@@std@@YAPAPAVfilterBase@@AAPAV1@@Z 0044e1d0 f i filterDialog.obj
 0002:000281e0       ??$addressof@U?$pair@$$CBHPAVfilters@@@std@@@std@@YAPAU?$pair@$$CBHPAVfilters@@@0@AAU10@@Z 0044e1e0 f i filterDialog.obj
 0002:000281f0       ??$destroy@PAU?$_List_node@PAVfilterBase@@PAX@std@@@?$_Wrap_alloc@V?$allocator@U?$_List_node@PAVfilterBase@@PAX@std@@@std@@@std@@QAEXPAPAU?$_List_node@PAVfilterBase@@PAX@1@@Z 0044e1f0 f i filterDialog.obj
 0002:00028230       ??$destroy@PAU?$_List_node@PAVfilterBase@@PAX@std@@@?$allocator@U?$_List_node@PAVfilterBase@@PAX@std@@@std@@QAEXPAPAU?$_List_node@PAVfilterBase@@PAX@1@@Z 0044e230 f i filterDialog.obj
 0002:00028250       ??$destroy@PAU?$_List_node@PAVfilterBase@@PAX@std@@@?$allocator_traits@V?$allocator@U?$_List_node@PAVfilterBase@@PAX@std@@@std@@@std@@SAXAAV?$allocator@U?$_List_node@PAVfilterBase@@PAX@std@@@1@PAPAU?$_List_node@PAVfilterBase@@PAX@1@@Z 0044e250 f i filterDialog.obj
 0002:00028270       ??$destroy@PAU?$_List_node@V?$basic_string@DU?$char_traits@D@std@@V?$allocator@D@2@@std@@PAX@std@@@?$_Wrap_alloc@V?$allocator@U?$_List_node@V?$basic_string@DU?$char_traits@D@std@@V?$allocator@D@2@@std@@PAX@std@@@std@@@std@@QAEXPAPAU?$_List_node@V?$basic_string@DU?$char_traits@D@std@@V?$allocator@D@2@@std@@PAX@1@@Z 0044e270 f i filterDialog.obj
 0002:000282b0       ??$destroy@PAU?$_List_node@V?$basic_string@DU?$char_traits@D@std@@V?$allocator@D@2@@std@@PAX@std@@@?$allocator@U?$_List_node@V?$basic_string@DU?$char_traits@D@std@@V?$allocator@D@2@@std@@PAX@std@@@std@@QAEXPAPAU?$_List_node@V?$basic_string@DU?$char_traits@D@std@@V?$allocator@D@2@@std@@PAX@1@@Z 0044e2b0 f i filterDialog.obj
 0002:000282d0       ??$destroy@PAU?$_List_node@V?$basic_string@DU?$char_traits@D@std@@V?$allocator@D@2@@std@@PAX@std@@@?$allocator_traits@V?$allocator@U?$_List_node@V?$basic_string@DU?$char_traits@D@std@@V?$allocator@D@2@@std@@PAX@std@@@std@@@std@@SAXAAV?$allocator@U?$_List_node@V?$basic_string@DU?$char_traits@D@std@@V?$allocator@D@2@@std@@PAX@std@@@1@PAPAU?$_List_node@V?$basic_string@DU?$char_traits@D@std@@V?$allocator@D@2@@std@@PAX@1@@Z 0044e2d0 f i filterDialog.obj
 0002:000282f0       ??$destroy@PAVfilterBase@@@?$_Wrap_alloc@V?$allocator@U?$_List_node@PAVfilterBase@@PAX@std@@@std@@@std@@QAEXPAPAVfilterBase@@@Z 0044e2f0 f i filterDialog.obj
 0002:00028330       ??$destroy@PAVfilterBase@@@?$allocator@U?$_List_node@PAVfilterBase@@PAX@std@@@std@@QAEXPAPAVfilterBase@@@Z 0044e330 f i filterDialog.obj
 0002:00028350       ??$destroy@PAVfilterBase@@@?$allocator_traits@V?$allocator@U?$_List_node@PAVfilterBase@@PAX@std@@@std@@@std@@SAXAAV?$allocator@U?$_List_node@PAVfilterBase@@PAX@std@@@1@PAPAVfilterBase@@@Z 0044e350 f i filterDialog.obj
 0002:00028370       ??$destroy@U?$pair@$$CBHPAVfilters@@@std@@@?$_Wrap_alloc@V?$allocator@U?$_Tree_node@U?$pair@$$CBHPAVfilters@@@std@@PAX@std@@@std@@@std@@QAEXPAU?$pair@$$CBHPAVfilters@@@1@@Z 0044e370 f i filterDialog.obj
 0002:000283b0       ??$destroy@U?$pair@$$CBHPAVfilters@@@std@@@?$allocator@U?$_Tree_node@U?$pair@$$CBHPAVfilters@@@std@@PAX@std@@@std@@QAEXPAU?$pair@$$CBHPAVfilters@@@1@@Z 0044e3b0 f i filterDialog.obj
 0002:000283d0       ??$destroy@U?$pair@$$CBHPAVfilters@@@std@@@?$allocator_traits@V?$allocator@U?$_Tree_node@U?$pair@$$CBHPAVfilters@@@std@@PAX@std@@@std@@@std@@SAXAAV?$allocator@U?$_Tree_node@U?$pair@$$CBHPAVfilters@@@std@@PAX@std@@@1@PAU?$pair@$$CBHPAVfilters@@@1@@Z 0044e3d0 f i filterDialog.obj
 0002:000283f0       ??$destroy@V?$basic_string@DU?$char_traits@D@std@@V?$allocator@D@2@@std@@@?$_Wrap_alloc@V?$allocator@U?$_List_node@V?$basic_string@DU?$char_traits@D@std@@V?$allocator@D@2@@std@@PAX@std@@@std@@@std@@QAEXPAV?$basic_string@DU?$char_traits@D@std@@V?$allocator@D@2@@1@@Z 0044e3f0 f i filterDialog.obj
 0002:00028430       ??$destroy@V?$basic_string@DU?$char_traits@D@std@@V?$allocator@D@2@@std@@@?$allocator@U?$_List_node@V?$basic_string@DU?$char_traits@D@std@@V?$allocator@D@2@@std@@PAX@std@@@std@@QAEXPAV?$basic_string@DU?$char_traits@D@std@@V?$allocator@D@2@@1@@Z 0044e430 f i filterDialog.obj
 0002:00028470       ??$destroy@V?$basic_string@DU?$char_traits@D@std@@V?$allocator@D@2@@std@@@?$allocator_traits@V?$allocator@U?$_List_node@V?$basic_string@DU?$char_traits@D@std@@V?$allocator@D@2@@std@@PAX@std@@@std@@@std@@SAXAAV?$allocator@U?$_List_node@V?$basic_string@DU?$char_traits@D@std@@V?$allocator@D@2@@std@@PAX@std@@@1@PAV?$basic_string@DU?$char_traits@D@std@@V?$allocator@D@2@@1@@Z 0044e470 f i filterDialog.obj
 0002:00028490       ??0?$_Iterator012@Ubidirectional_iterator_tag@std@@U?$pair@$$CBHPAVfilters@@@2@HPBU32@ABU32@U_Iterator_base12@2@@std@@QAE@ABU01@@Z 0044e490 f i filterDialog.obj
 0002:000284d0       ??0?$_Iterator012@Ubidirectional_iterator_tag@std@@U?$pair@$$CBHPAVfilters@@@2@HPBU32@ABU32@U_Iterator_base12@2@@std@@QAE@XZ 0044e4d0 f i filterDialog.obj
 0002:00028500       ??0?$_Iterator012@Ubidirectional_iterator_tag@std@@V?$basic_string@DU?$char_traits@D@std@@V?$allocator@D@2@@2@HPBV32@ABV32@U_Iterator_base12@2@@std@@QAE@ABU01@@Z 0044e500 f i filterDialog.obj
 0002:00028540       ??0?$_Iterator012@Ubidirectional_iterator_tag@std@@V?$basic_string@DU?$char_traits@D@std@@V?$allocator@D@2@@2@HPBV32@ABV32@U_Iterator_base12@2@@std@@QAE@XZ 0044e540 f i filterDialog.obj
 0002:00028570       ??0?$_List_const_iterator@V?$_List_val@U?$_List_simple_types@V?$basic_string@DU?$char_traits@D@std@@V?$allocator@D@2@@std@@@std@@@std@@@std@@QAE@ABV01@@Z 0044e570 f i filterDialog.obj
 0002:000285b0       ??0?$_List_const_iterator@V?$_List_val@U?$_List_simple_types@V?$basic_string@DU?$char_traits@D@std@@V?$allocator@D@2@@std@@@std@@@std@@@std@@QAE@PAU?$_List_node@V?$basic_string@DU?$char_traits@D@std@@V?$allocator@D@2@@std@@PAX@1@PBV?$_List_val@U?$_List_simple_types@V?$basic_string@DU?$char_traits@D@std@@V?$allocator@D@2@@std@@@std@@@1@@Z 0044e5b0 f i filterDialog.obj
 0002:000285f0       ??0?$_List_iterator@V?$_List_val@U?$_List_simple_types@V?$basic_string@DU?$char_traits@D@std@@V?$allocator@D@2@@std@@@std@@@std@@@std@@QAE@PAU?$_List_node@V?$basic_string@DU?$char_traits@D@std@@V?$allocator@D@2@@std@@PAX@1@PBV?$_List_val@U?$_List_simple_types@V?$basic_string@DU?$char_traits@D@std@@V?$allocator@D@2@@std@@@std@@@1@@Z 0044e5f0 f i filterDialog.obj
 0002:00028630       ??0?$_List_unchecked_const_iterator@V?$_List_val@U?$_List_simple_types@V?$basic_string@DU?$char_traits@D@std@@V?$allocator@D@2@@std@@@std@@@std@@U_Iterator_base12@2@@std@@QAE@ABV01@@Z 0044e630 f i filterDialog.obj
 0002:00028680       ??0?$_List_unchecked_const_iterator@V?$_List_val@U?$_List_simple_types@V?$basic_string@DU?$char_traits@D@std@@V?$allocator@D@2@@std@@@std@@@std@@U_Iterator_base12@2@@std@@QAE@PAU?$_List_node@V?$basic_string@DU?$char_traits@D@std@@V?$allocator@D@2@@std@@PAX@1@PBV?$_List_val@U?$_List_simple_types@V?$basic_string@DU?$char_traits@D@std@@V?$allocator@D@2@@std@@@std@@@1@@Z 0044e680 f i filterDialog.obj
 0002:00028720       ??0?$_Tree_const_iterator@V?$_Tree_val@U?$_Tree_simple_types@U?$pair@$$CBHPAVfilters@@@std@@@std@@@std@@@std@@QAE@ABV01@@Z 0044e720 f i filterDialog.obj
 0002:00028760       ??0?$_Tree_const_iterator@V?$_Tree_val@U?$_Tree_simple_types@U?$pair@$$CBHPAVfilters@@@std@@@std@@@std@@@std@@QAE@PAU?$_Tree_node@U?$pair@$$CBHPAVfilters@@@std@@PAX@1@PBV?$_Tree_val@U?$_Tree_simple_types@U?$pair@$$CBHPAVfilters@@@std@@@std@@@1@@Z 0044e760 f i filterDialog.obj
 0002:000287a0       ??0?$_Tree_iterator@V?$_Tree_val@U?$_Tree_simple_types@U?$pair@$$CBHPAVfilters@@@std@@@std@@@std@@@std@@QAE@PAU?$_Tree_node@U?$pair@$$CBHPAVfilters@@@std@@PAX@1@PBV?$_Tree_val@U?$_Tree_simple_types@U?$pair@$$CBHPAVfilters@@@std@@@std@@@1@@Z 0044e7a0 f i filterDialog.obj
 0002:000287e0       ??0?$_Tree_unchecked_const_iterator@V?$_Tree_val@U?$_Tree_simple_types@U?$pair@$$CBHPAVfilters@@@std@@@std@@@std@@U_Iterator_base12@2@@std@@QAE@ABV01@@Z 0044e7e0 f i filterDialog.obj
 0002:00028830       ??0?$_Tree_unchecked_const_iterator@V?$_Tree_val@U?$_Tree_simple_types@U?$pair@$$CBHPAVfilters@@@std@@@std@@@std@@U_Iterator_base12@2@@std@@QAE@PAU?$_Tree_node@U?$pair@$$CBHPAVfilters@@@std@@PAX@1@PBV?$_Tree_val@U?$_Tree_simple_types@U?$pair@$$CBHPAVfilters@@@std@@@std@@@1@@Z 0044e830 f i filterDialog.obj
 0002:000288d0       ??0?$_Wrap_alloc@V?$allocator@U?$_List_node@PAVfilterBase@@PAX@std@@@std@@@std@@QAE@XZ 0044e8d0 f i filterDialog.obj
 0002:00028900       ??0?$_Wrap_alloc@V?$allocator@U?$_Tree_node@U?$pair@$$CBHPAVfilters@@@std@@PAX@std@@@std@@@std@@QAE@XZ 0044e900 f i filterDialog.obj
 0002:00028930       ??0?$allocator@U?$_List_node@PAVfilterBase@@PAX@std@@@std@@QAE@XZ 0044e930 f i filterDialog.obj
 0002:00028950       ??0?$allocator@U?$_Tree_node@U?$pair@$$CBHPAVfilters@@@std@@PAX@std@@@std@@QAE@XZ 0044e950 f i filterDialog.obj
 0002:00028970       ??1?$_Iterator012@Ubidirectional_iterator_tag@std@@U?$pair@$$CBHPAVfilters@@@2@HPBU32@ABU32@U_Iterator_base12@2@@std@@QAE@XZ 0044e970 f i filterDialog.obj
 0002:000289a0       ??1?$_Iterator012@Ubidirectional_iterator_tag@std@@V?$basic_string@DU?$char_traits@D@std@@V?$allocator@D@2@@2@HPBV32@ABV32@U_Iterator_base12@2@@std@@QAE@XZ 0044e9a0 f i filterDialog.obj
 0002:000289d0       ??1?$_List_const_iterator@V?$_List_val@U?$_List_simple_types@V?$basic_string@DU?$char_traits@D@std@@V?$allocator@D@2@@std@@@std@@@std@@@std@@QAE@XZ 0044e9d0 f i filterDialog.obj
 0002:00028a00       ??1?$_List_iterator@V?$_List_val@U?$_List_simple_types@V?$basic_string@DU?$char_traits@D@std@@V?$allocator@D@2@@std@@@std@@@std@@@std@@QAE@XZ 0044ea00 f i filterDialog.obj
 0002:00028a30       ??1?$_List_unchecked_const_iterator@V?$_List_val@U?$_List_simple_types@V?$basic_string@DU?$char_traits@D@std@@V?$allocator@D@2@@std@@@std@@@std@@U_Iterator_base12@2@@std@@QAE@XZ 0044ea30 f i filterDialog.obj
 0002:00028a60       ??1?$_Tree_const_iterator@V?$_Tree_val@U?$_Tree_simple_types@U?$pair@$$CBHPAVfilters@@@std@@@std@@@std@@@std@@QAE@XZ 0044ea60 f i filterDialog.obj
 0002:00028a90       ??1?$_Tree_iterator@V?$_Tree_val@U?$_Tree_simple_types@U?$pair@$$CBHPAVfilters@@@std@@@std@@@std@@@std@@QAE@XZ 0044ea90 f i filterDialog.obj
 0002:00028ac0       ??1?$_Tree_unchecked_const_iterator@V?$_Tree_val@U?$_Tree_simple_types@U?$pair@$$CBHPAVfilters@@@std@@@std@@@std@@U_Iterator_base12@2@@std@@QAE@XZ 0044eac0 f i filterDialog.obj
 0002:00028af0       ??4?$_Iterator012@Ubidirectional_iterator_tag@std@@PAVfilterBase@@HPBQAV3@ABQAV3@U_Iterator_base12@2@@std@@QAEAAU01@ABU01@@Z 0044eaf0 f i filterDialog.obj
 0002:00028b30       ??4?$_Iterator012@Ubidirectional_iterator_tag@std@@U?$pair@$$CBHPAVfilters@@@2@HPBU32@ABU32@U_Iterator_base12@2@@std@@QAEAAU01@ABU01@@Z 0044eb30 f i filterDialog.obj
 0002:00028b70       ??4?$_Iterator012@Ubidirectional_iterator_tag@std@@V?$basic_string@DU?$char_traits@D@std@@V?$allocator@D@2@@2@HPBV32@ABV32@U_Iterator_base12@2@@std@@QAEAAU01@ABU01@@Z 0044eb70 f i filterDialog.obj
 0002:00028bb0       ??4?$_List_const_iterator@V?$_List_val@U?$_List_simple_types@PAVfilterBase@@@std@@@std@@@std@@QAEAAV01@ABV01@@Z 0044ebb0 f i filterDialog.obj
 0002:00028bf0       ??4?$_List_const_iterator@V?$_List_val@U?$_List_simple_types@V?$basic_string@DU?$char_traits@D@std@@V?$allocator@D@2@@std@@@std@@@std@@@std@@QAEAAV01@ABV01@@Z 0044ebf0 f i filterDialog.obj
 0002:00028c30       ??4?$_List_iterator@V?$_List_val@U?$_List_simple_types@PAVfilterBase@@@std@@@std@@@std@@QAEAAV01@ABV01@@Z 0044ec30 f i filterDialog.obj
 0002:00028c70       ??4?$_List_iterator@V?$_List_val@U?$_List_simple_types@V?$basic_string@DU?$char_traits@D@std@@V?$allocator@D@2@@std@@@std@@@std@@@std@@QAEAAV01@ABV01@@Z 0044ec70 f i filterDialog.obj
 0002:00028cb0       ??4?$_List_unchecked_const_iterator@V?$_List_val@U?$_List_simple_types@PAVfilterBase@@@std@@@std@@U_Iterator_base12@2@@std@@QAEAAV01@ABV01@@Z 0044ecb0 f i filterDialog.obj
 0002:00028d00       ??4?$_List_unchecked_const_iterator@V?$_List_val@U?$_List_simple_types@V?$basic_string@DU?$char_traits@D@std@@V?$allocator@D@2@@std@@@std@@@std@@U_Iterator_base12@2@@std@@QAEAAV01@ABV01@@Z 0044ed00 f i filterDialog.obj
 0002:00028d50       ??4?$_Tree_const_iterator@V?$_Tree_val@U?$_Tree_simple_types@U?$pair@$$CBHPAVfilters@@@std@@@std@@@std@@@std@@QAEAAV01@ABV01@@Z 0044ed50 f i filterDialog.obj
 0002:00028d90       ??4?$_Tree_unchecked_const_iterator@V?$_Tree_val@U?$_Tree_simple_types@U?$pair@$$CBHPAVfilters@@@std@@@std@@@std@@U_Iterator_base12@2@@std@@QAEAAV01@ABV01@@Z 0044ed90 f i filterDialog.obj
 0002:00028de0       ??8?$_List_const_iterator@V?$_List_val@U?$_List_simple_types@V?$basic_string@DU?$char_traits@D@std@@V?$allocator@D@2@@std@@@std@@@std@@@std@@QBE_NABV01@@Z 0044ede0 f i filterDialog.obj
 0002:00028f20       ??8?$_Tree_const_iterator@V?$_Tree_val@U?$_Tree_simple_types@U?$pair@$$CBHPAVfilters@@@std@@@std@@@std@@@std@@QBE_NABV01@@Z 0044ef20 f i filterDialog.obj
 0002:00029060       ??9?$_List_const_iterator@V?$_List_val@U?$_List_simple_types@V?$basic_string@DU?$char_traits@D@std@@V?$allocator@D@2@@std@@@std@@@std@@@std@@QBE_NABV01@@Z 0044f060 f i filterDialog.obj
 0002:000290c0       ??9?$_Tree_const_iterator@V?$_Tree_val@U?$_Tree_simple_types@U?$pair@$$CBHPAVfilters@@@std@@@std@@@std@@@std@@QBE_NABV01@@Z 0044f0c0 f i filterDialog.obj
 0002:00029120       ??C?$_List_iterator@V?$_List_val@U?$_List_simple_types@V?$basic_string@DU?$char_traits@D@std@@V?$allocator@D@2@@std@@@std@@@std@@@std@@QBEPAV?$basic_string@DU?$char_traits@D@std@@V?$allocator@D@2@@1@XZ 0044f120 f i filterDialog.obj
 0002:00029160       ??C?$_Tree_const_iterator@V?$_Tree_val@U?$_Tree_simple_types@U?$pair@$$CBHPAVfilters@@@std@@@std@@@std@@@std@@QBEPBU?$pair@$$CBHPAVfilters@@@1@XZ 0044f160 f i filterDialog.obj
 0002:000291a0       ??D?$_List_const_iterator@V?$_List_val@U?$_List_simple_types@V?$basic_string@DU?$char_traits@D@std@@V?$allocator@D@2@@std@@@std@@@std@@@std@@QBEABV?$basic_string@DU?$char_traits@D@std@@V?$allocator@D@2@@1@XZ 0044f1a0 f i filterDialog.obj
 0002:000292c0       ??D?$_List_iterator@V?$_List_val@U?$_List_simple_types@PAVfilterBase@@@std@@@std@@@std@@QBEAAPAVfilterBase@@XZ 0044f2c0 f i filterDialog.obj
 0002:000292f0       ??D?$_List_iterator@V?$_List_val@U?$_List_simple_types@V?$basic_string@DU?$char_traits@D@std@@V?$allocator@D@2@@std@@@std@@@std@@@std@@QBEAAV?$basic_string@DU?$char_traits@D@std@@V?$allocator@D@2@@1@XZ 0044f2f0 f i filterDialog.obj
 0002:00029320       ??D?$_Tree_const_iterator@V?$_Tree_val@U?$_Tree_simple_types@U?$pair@$$CBHPAVfilters@@@std@@@std@@@std@@@std@@QBEABU?$pair@$$CBHPAVfilters@@@1@XZ 0044f320 f i filterDialog.obj
 0002:00029440       ??E?$_List_const_iterator@V?$_List_val@U?$_List_simple_types@PAVfilterBase@@@std@@@std@@@std@@QAE?AV01@H@Z 0044f440 f i filterDialog.obj
 0002:00029550       ??E?$_List_const_iterator@V?$_List_val@U?$_List_simple_types@V?$basic_string@DU?$char_traits@D@std@@V?$allocator@D@2@@std@@@std@@@std@@@std@@QAE?AV01@H@Z 0044f550 f i filterDialog.obj
 0002:00029660       ??E?$_List_const_iterator@V?$_List_val@U?$_List_simple_types@V?$basic_string@DU?$char_traits@D@std@@V?$allocator@D@2@@std@@@std@@@std@@@std@@QAEAAV01@XZ 0044f660 f i filterDialog.obj
 0002:00029790       ??E?$_List_iterator@V?$_List_val@U?$_List_simple_types@PAVfilterBase@@@std@@@std@@@std@@QAEAAV01@XZ 0044f790 f i filterDialog.obj
 0002:000297c0       ??E?$_List_iterator@V?$_List_val@U?$_List_simple_types@V?$basic_string@DU?$char_traits@D@std@@V?$allocator@D@2@@std@@@std@@@std@@@std@@QAEAAV01@XZ 0044f7c0 f i filterDialog.obj
 0002:000297f0       ??E?$_Tree_const_iterator@V?$_Tree_val@U?$_Tree_simple_types@U?$pair@$$CBHPAVfilters@@@std@@@std@@@std@@@std@@QAEAAV01@XZ 0044f7f0 f i filterDialog.obj
 0002:00029910       ??E?$_Tree_unchecked_const_iterator@V?$_Tree_val@U?$_Tree_simple_types@U?$pair@$$CBHPAVfilters@@@std@@@std@@@std@@U_Iterator_base12@2@@std@@QAEAAV01@XZ 0044f910 f i filterDialog.obj
 0002:00029a20       ?_Color@?$_Tree_val@U?$_Tree_simple_types@U?$pair@$$CBHPAVfilters@@@std@@@std@@@std@@SAAADPAU?$_Tree_node@U?$pair@$$CBHPAVfilters@@@std@@PAX@2@@Z 0044fa20 f i filterDialog.obj
 0002:00029a30       ?_Freenode@?$_List_buy@PAVfilterBase@@V?$allocator@PAVfilterBase@@@std@@@std@@QAEXPAU?$_List_node@PAVfilterBase@@PAX@2@@Z 0044fa30 f i filterDialog.obj
 0002:00029b20       ?_Freenode@?$_List_buy@V?$basic_string@DU?$char_traits@D@std@@V?$allocator@D@2@@std@@V?$allocator@V?$basic_string@DU?$char_traits@D@std@@V?$allocator@D@2@@std@@@2@@std@@QAEXPAU?$_List_node@V?$basic_string@DU?$char_traits@D@std@@V?$allocator@D@2@@std@@PAX@2@@Z 0044fb20 f i filterDialog.obj
 0002:00029c10       ?_Getal@?$_List_alloc@$0A@U?$_List_base_types@PAVfilterBase@@V?$allocator@PAVfilterBase@@@std@@@std@@@std@@QBE?AU?$_Wrap_alloc@V?$allocator@U?$_List_node@PAVfilterBase@@PAX@std@@@std@@@2@XZ 0044fc10 f i filterDialog.obj
 0002:00029c50       ?_Getal@?$_Tree_alloc@$0A@U?$_Tree_base_types@U?$pair@$$CBHPAVfilters@@@std@@V?$allocator@U?$pair@$$CBHPAVfilters@@@std@@@2@@std@@@std@@QBE?AU?$_Wrap_alloc@V?$allocator@U?$_Tree_node@U?$pair@$$CBHPAVfilters@@@std@@PAX@std@@@std@@@2@XZ 0044fc50 f i filterDialog.obj
 0002:00029c90       ?_Isnil@?$_Tree_val@U?$_Tree_simple_types@U?$pair@$$CBHPAVfilters@@@std@@@std@@@std@@SAAADPAU?$_Tree_node@U?$pair@$$CBHPAVfilters@@@std@@PAX@2@@Z 0044fc90 f i filterDialog.obj
 0002:00029ca0       ?_Left@?$_Tree_val@U?$_Tree_simple_types@U?$pair@$$CBHPAVfilters@@@std@@@std@@@std@@SAAAPAU?$_Tree_node@U?$pair@$$CBHPAVfilters@@@std@@PAX@2@PAU32@@Z 0044fca0 f i filterDialog.obj
 0002:00029cb0       ?_Lmost@?$_Tree@V?$_Tmap_traits@HPAVfilters@@U?$less@H@std@@V?$allocator@U?$pair@$$CBHPAVfilters@@@std@@@3@$0A@@std@@@std@@IBEAAPAU?$_Tree_node@U?$pair@$$CBHPAVfilters@@@std@@PAX@2@XZ 0044fcb0 f i filterDialog.obj
 0002:00029cf0       ?_Lrotate@?$_Tree@V?$_Tmap_traits@HPAVfilters@@U?$less@H@std@@V?$allocator@U?$pair@$$CBHPAVfilters@@@std@@@3@$0A@@std@@@std@@IAEXPAU?$_Tree_node@U?$pair@$$CBHPAVfilters@@@std@@PAX@2@@Z 0044fcf0 f i filterDialog.obj
 0002:00029e90       ?_Make_iter@?$list@PAVfilterBase@@V?$allocator@PAVfilterBase@@@std@@@std@@QBE?AV?$_List_iterator@V?$_List_val@U?$_List_simple_types@PAVfilterBase@@@std@@@std@@@2@V?$_List_const_iterator@V?$_List_val@U?$_List_simple_types@PAVfilterBase@@@std@@@std@@@2@@Z 0044fe90 f i filterDialog.obj
 0002:00029ee0       ?_Make_iter@?$list@V?$basic_string@DU?$char_traits@D@std@@V?$allocator@D@2@@std@@V?$allocator@V?$basic_string@DU?$char_traits@D@std@@V?$allocator@D@2@@std@@@2@@std@@QBE?AV?$_List_iterator@V?$_List_val@U?$_List_simple_types@V?$basic_string@DU?$char_traits@D@std@@V?$allocator@D@2@@std@@@std@@@std@@@2@V?$_List_const_iterator@V?$_List_val@U?$_List_simple_types@V?$basic_string@DU?$char_traits@D@std@@V?$allocator@D@2@@std@@@std@@@std@@@2@@Z 0044fee0 f i filterDialog.obj
 0002:00029f30       ?_Max@?$_Tree_val@U?$_Tree_simple_types@U?$pair@$$CBHPAVfilters@@@std@@@std@@@std@@SAPAU?$_Tree_node@U?$pair@$$CBHPAVfilters@@@std@@PAX@2@PAU32@@Z 0044ff30 f i filterDialog.obj
 0002:00029f80       ?_Min@?$_Tree_val@U?$_Tree_simple_types@U?$pair@$$CBHPAVfilters@@@std@@@std@@@std@@SAPAU?$_Tree_node@U?$pair@$$CBHPAVfilters@@@std@@PAX@2@PAU32@@Z 0044ff80 f i filterDialog.obj
 0002:00029fd0       ?_Mynode@?$_List_unchecked_const_iterator@V?$_List_val@U?$_List_simple_types@PAVfilterBase@@@std@@@std@@U_Iterator_base12@2@@std@@QBEPAU?$_List_node@PAVfilterBase@@PAX@2@XZ 0044ffd0 f i filterDialog.obj
 0002:00029ff0       ?_Mynode@?$_List_unchecked_const_iterator@V?$_List_val@U?$_List_simple_types@V?$basic_string@DU?$char_traits@D@std@@V?$allocator@D@2@@std@@@std@@@std@@U_Iterator_base12@2@@std@@QBEPAU?$_List_node@V?$basic_string@DU?$char_traits@D@std@@V?$allocator@D@2@@std@@PAX@2@XZ 0044fff0 f i filterDialog.obj
 0002:0002a010       ?_Mynode@?$_Tree_unchecked_const_iterator@V?$_Tree_val@U?$_Tree_simple_types@U?$pair@$$CBHPAVfilters@@@std@@@std@@@std@@U_Iterator_base12@2@@std@@QBEPAU?$_Tree_node@U?$pair@$$CBHPAVfilters@@@std@@PAX@2@XZ 00450010 f i filterDialog.obj
 0002:0002a030       ?_Myval@?$_Tree_val@U?$_Tree_simple_types@U?$pair@$$CBHPAVfilters@@@std@@@std@@@std@@SAAAU?$pair@$$CBHPAVfilters@@@2@PAU?$_Tree_node@U?$pair@$$CBHPAVfilters@@@std@@PAX@2@@Z 00450030 f i filterDialog.obj
 0002:0002a040       ?_Orphan_ptr@?$_Tree@V?$_Tmap_traits@HPAVfilters@@U?$less@H@std@@V?$allocator@U?$pair@$$CBHPAVfilters@@@std@@@3@$0A@@std@@@std@@IBEXAAV12@PAU?$_Tree_node@U?$pair@$$CBHPAVfilters@@@std@@PAX@2@@Z 00450040 f i filterDialog.obj
 0002:0002a1c0       ?_Orphan_ptr@?$list@PAVfilterBase@@V?$allocator@PAVfilterBase@@@std@@@std@@QBEXAAV12@PAU?$_List_node@PAVfilterBase@@PAX@2@@Z 004501c0 f i filterDialog.obj
 0002:0002a340       ?_Orphan_ptr@?$list@V?$basic_string@DU?$char_traits@D@std@@V?$allocator@D@2@@std@@V?$allocator@V?$basic_string@DU?$char_traits@D@std@@V?$allocator@D@2@@std@@@2@@std@@QBEXAAV12@PAU?$_List_node@V?$basic_string@DU?$char_traits@D@std@@V?$allocator@D@2@@std@@PAX@2@@Z 00450340 f i filterDialog.obj
 0002:0002a4c0       ?_Parent@?$_Tree_val@U?$_Tree_simple_types@U?$pair@$$CBHPAVfilters@@@std@@@std@@@std@@SAAAPAU?$_Tree_node@U?$pair@$$CBHPAVfilters@@@std@@PAX@2@PAU32@@Z 004504c0 f i filterDialog.obj
 0002:0002a4d0       ?_Prevnode@?$_List_val@U?$_List_simple_types@PAVfilterBase@@@std@@@std@@SAAAPAU?$_List_node@PAVfilterBase@@PAX@2@PAU32@@Z 004504d0 f i filterDialog.obj
 0002:0002a4e0       ?_Right@?$_Tree_val@U?$_Tree_simple_types@U?$pair@$$CBHPAVfilters@@@std@@@std@@@std@@SAAAPAU?$_Tree_node@U?$pair@$$CBHPAVfilters@@@std@@PAX@2@PAU32@@Z 004504e0 f i filterDialog.obj
 0002:0002a4f0       ?_Rmost@?$_Tree@V?$_Tmap_traits@HPAVfilters@@U?$less@H@std@@V?$allocator@U?$pair@$$CBHPAVfilters@@@std@@@3@$0A@@std@@@std@@IBEAAPAU?$_Tree_node@U?$pair@$$CBHPAVfilters@@@std@@PAX@2@XZ 004504f0 f i filterDialog.obj
 0002:0002a530       ?_Root@?$_Tree@V?$_Tmap_traits@HPAVfilters@@U?$less@H@std@@V?$allocator@U?$pair@$$CBHPAVfilters@@@std@@@3@$0A@@std@@@std@@IBEAAPAU?$_Tree_node@U?$pair@$$CBHPAVfilters@@@std@@PAX@2@XZ 00450530 f i filterDialog.obj
 0002:0002a570       ?_Rrotate@?$_Tree@V?$_Tmap_traits@HPAVfilters@@U?$less@H@std@@V?$allocator@U?$pair@$$CBHPAVfilters@@@std@@@3@$0A@@std@@@std@@IAEXPAU?$_Tree_node@U?$pair@$$CBHPAVfilters@@@std@@PAX@2@@Z 00450570 f i filterDialog.obj
 0002:0002a710       ?_Unlinknode@?$list@PAVfilterBase@@V?$allocator@PAVfilterBase@@@std@@@std@@QAEPAU?$_List_node@PAVfilterBase@@PAX@2@V?$_List_const_iterator@V?$_List_val@U?$_List_simple_types@PAVfilterBase@@@std@@@std@@@2@@Z 00450710 f i filterDialog.obj
 0002:0002a890       ?_Unlinknode@?$list@V?$basic_string@DU?$char_traits@D@std@@V?$allocator@D@2@@std@@V?$allocator@V?$basic_string@DU?$char_traits@D@std@@V?$allocator@D@2@@std@@@2@@std@@QAEPAU?$_List_node@V?$basic_string@DU?$char_traits@D@std@@V?$allocator@D@2@@std@@PAX@2@V?$_List_const_iterator@V?$_List_val@U?$_List_simple_types@V?$basic_string@DU?$char_traits@D@std@@V?$allocator@D@2@@std@@@std@@@std@@@2@@Z 00450890 f i filterDialog.obj
 0002:0002aa10       ?begin@?$_Tree@V?$_Tmap_traits@HPAVfilters@@U?$less@H@std@@V?$allocator@U?$pair@$$CBHPAVfilters@@@std@@@3@$0A@@std@@@std@@QAE?AV?$_Tree_iterator@V?$_Tree_val@U?$_Tree_simple_types@U?$pair@$$CBHPAVfilters@@@std@@@std@@@std@@@2@XZ 00450a10 f i filterDialog.obj
 0002:0002aa60       ?begin@?$list@V?$basic_string@DU?$char_traits@D@std@@V?$allocator@D@2@@std@@V?$allocator@V?$basic_string@DU?$char_traits@D@std@@V?$allocator@D@2@@std@@@2@@std@@QAE?AV?$_List_iterator@V?$_List_val@U?$_List_simple_types@V?$basic_string@DU?$char_traits@D@std@@V?$allocator@D@2@@std@@@std@@@std@@@2@XZ 00450a60 f i filterDialog.obj
 0002:0002aab0       ?count@filters@@QAEHXZ     00450ab0 f i filterDialog.obj
 0002:0002ab00       ?deallocate@?$_Wrap_alloc@V?$allocator@U?$_List_node@PAVfilterBase@@PAX@std@@@std@@@std@@QAEXPAU?$_List_node@PAVfilterBase@@PAX@2@I@Z 00450b00 f i filterDialog.obj
 0002:0002ab40       ?deallocate@?$_Wrap_alloc@V?$allocator@U?$_Tree_node@U?$pair@$$CBHPAVfilters@@@std@@PAX@std@@@std@@@std@@QAEXPAU?$_Tree_node@U?$pair@$$CBHPAVfilters@@@std@@PAX@2@I@Z 00450b40 f i filterDialog.obj
 0002:0002ab80       ?deallocate@?$allocator@U?$_List_node@PAVfilterBase@@PAX@std@@@std@@QAEXPAU?$_List_node@PAVfilterBase@@PAX@2@I@Z 00450b80 f i filterDialog.obj
 0002:0002abc0       ?deallocate@?$allocator@U?$_Tree_node@U?$pair@$$CBHPAVfilters@@@std@@PAX@std@@@std@@QAEXPAU?$_Tree_node@U?$pair@$$CBHPAVfilters@@@std@@PAX@2@I@Z 00450bc0 f i filterDialog.obj
 0002:0002ac00       ?deleteFilter@filters@@QAEXABV?$basic_string@DU?$char_traits@D@std@@V?$allocator@D@2@@std@@@Z 00450c00 f i filterDialog.obj
 0002:0002af90       ?end@?$_Tree@V?$_Tmap_traits@HPAVfilters@@U?$less@H@std@@V?$allocator@U?$pair@$$CBHPAVfilters@@@std@@@3@$0A@@std@@@std@@QAE?AV?$_Tree_iterator@V?$_Tree_val@U?$_Tree_simple_types@U?$pair@$$CBHPAVfilters@@@std@@@std@@@std@@@2@XZ 00450f90 f i filterDialog.obj
 0002:0002afe0       ?end@?$list@V?$basic_string@DU?$char_traits@D@std@@V?$allocator@D@2@@std@@V?$allocator@V?$basic_string@DU?$char_traits@D@std@@V?$allocator@D@2@@std@@@2@@std@@QAE?AV?$_List_iterator@V?$_List_val@U?$_List_simple_types@V?$basic_string@DU?$char_traits@D@std@@V?$allocator@D@2@@std@@@std@@@std@@@2@XZ 00450fe0 f i filterDialog.obj
 0002:0002b030       ?erase@?$_Tree@V?$_Tmap_traits@HPAVfilters@@U?$less@H@std@@V?$allocator@U?$pair@$$CBHPAVfilters@@@std@@@3@$0A@@std@@@std@@QAE?AV?$_Tree_iterator@V?$_Tree_val@U?$_Tree_simple_types@U?$pair@$$CBHPAVfilters@@@std@@@std@@@std@@@2@V?$_Tree_const_iterator@V?$_Tree_val@U?$_Tree_simple_types@U?$pair@$$CBHPAVfilters@@@std@@@std@@@std@@@2@@Z 00451030 f i filterDialog.obj
 0002:0002ba90       ?erase@?$list@PAVfilterBase@@V?$allocator@PAVfilterBase@@@std@@@std@@QAE?AV?$_List_iterator@V?$_List_val@U?$_List_simple_types@PAVfilterBase@@@std@@@std@@@2@V?$_List_const_iterator@V?$_List_val@U?$_List_simple_types@PAVfilterBase@@@std@@@std@@@2@@Z 00451a90 f i filterDialog.obj
 0002:0002bbb0       ?erase@?$list@V?$basic_string@DU?$char_traits@D@std@@V?$allocator@D@2@@std@@V?$allocator@V?$basic_string@DU?$char_traits@D@std@@V?$allocator@D@2@@std@@@2@@std@@QAE?AV?$_List_iterator@V?$_List_val@U?$_List_simple_types@V?$basic_string@DU?$char_traits@D@std@@V?$allocator@D@2@@std@@@std@@@std@@@2@V?$_List_const_iterator@V?$_List_val@U?$_List_simple_types@V?$basic_string@DU?$char_traits@D@std@@V?$allocator@D@2@@std@@@std@@@std@@@2@@Z 00451bb0 f i filterDialog.obj
 0002:0002bcd0       ?key@filterBase@@QAE?AV?$basic_string@DU?$char_traits@D@std@@V?$allocator@D@2@@std@@XZ 00451cd0 f i filterDialog.obj
 0002:0002bd30       ?pointer_to@?$pointer_traits@PAV?$basic_string@DU?$char_traits@D@std@@V?$allocator@D@2@@std@@@std@@SAPAV?$basic_string@DU?$char_traits@D@std@@V?$allocator@D@2@@2@AAV32@@Z 00451d30 f i filterDialog.obj
 0002:0002bd50       ?pointer_to@?$pointer_traits@PBU?$pair@$$CBHPAVfilters@@@std@@@std@@SAPBU?$pair@$$CBHPAVfilters@@@2@ABU32@@Z 00451d50 f i filterDialog.obj
 0002:0002bd70       ?size@?$list@PAVfilterBase@@V?$allocator@PAVfilterBase@@@std@@@std@@QBEIXZ 00451d70 f i filterDialog.obj
 0002:0002bd90       ?size@?$list@V?$basic_string@DU?$char_traits@D@std@@V?$allocator@D@2@@std@@V?$allocator@V?$basic_string@DU?$char_traits@D@std@@V?$allocator@D@2@@std@@@2@@std@@QBEIXZ 00451d90 f i filterDialog.obj
 0002:0002bdb0       ?FilterEditDialogProc@@YGHPAUHWND__@@IIJ@Z 00451db0 f   filterEditDialog.obj
 0002:0002cd00       ??$sprintf_s@$0BAA@@@YAHAAY0BAA@DPBDZZ 00452d00 f i filterEditDialog.obj
 0002:0002cd60       ?val@@YAXABV?$basic_string@DU?$char_traits@D@std@@V?$allocator@D@2@@std@@AAN@Z 00452d60 f   filtering.obj
 0002:0002cdb0       ?val@@YAXABV?$basic_string@DU?$char_traits@D@std@@V?$allocator@D@2@@std@@AAH@Z 00452db0 f   filtering.obj
 0002:0002ce00       ?val@@YAXABV?$basic_string@DU?$char_traits@D@std@@V?$allocator@D@2@@std@@AAI@Z 00452e00 f   filtering.obj
 0002:0002ce50       ?varToString@@YA?AV?$basic_string@DU?$char_traits@D@std@@V?$allocator@D@2@@std@@IPBD@Z 00452e50 f   filtering.obj
 0002:0002cf10       ?varToString@@YA?AV?$basic_string@DU?$char_traits@D@std@@V?$allocator@D@2@@std@@HPBD@Z 00452f10 f   filtering.obj
 0002:0002cfd0       ?varToString@@YA?AV?$basic_string@DU?$char_traits@D@std@@V?$allocator@D@2@@std@@NPBD@Z 00452fd0 f   filtering.obj
 0002:0002d0e0       ?varTypeToString@@YA?AV?$basic_string@DU?$char_traits@D@std@@V?$allocator@D@2@@std@@I@Z 004530e0 f   filtering.obj
 0002:0002d120       ?varTypeToString@@YA?AV?$basic_string@DU?$char_traits@D@std@@V?$allocator@D@2@@std@@H@Z 00453120 f   filtering.obj
 0002:0002d160       ?varTypeToString@@YA?AV?$basic_string@DU?$char_traits@D@std@@V?$allocator@D@2@@std@@N@Z 00453160 f   filtering.obj
 0002:0002d1a0       ?findFilter@@YAPAVfilters@@H@Z 004531a0 f   filtering.obj
 0002:0002d430       ??$_Kfn@$$CBHPAVfilters@@@?$_Tmap_traits@HPAVfilters@@U?$less@H@std@@V?$allocator@U?$pair@$$CBHPAVfilters@@@std@@@3@$0A@@std@@SAABHABU?$pair@$$CBHPAVfilters@@@1@@Z 00453430 f i filtering.obj
 0002:0002d440       ??0?$_Tree_iterator@V?$_Tree_val@U?$_Tree_simple_types@U?$pair@$$CBHPAVfilters@@@std@@@std@@@std@@@std@@QAE@ABV01@@Z 00453440 f i filtering.obj
 0002:0002d480       ?_Getcomp@?$_Tree_comp@$0A@V?$_Tmap_traits@HPAVfilters@@U?$less@H@std@@V?$allocator@U?$pair@$$CBHPAVfilters@@@std@@@3@$0A@@std@@@std@@QBE?AU?$less@H@2@XZ 00453480 f i filtering.obj
 0002:0002d4b0       ?_Key@?$_Tree@V?$_Tmap_traits@HPAVfilters@@U?$less@H@std@@V?$allocator@U?$pair@$$CBHPAVfilters@@@std@@@3@$0A@@std@@@std@@IBEABHPAU?$_Tree_node@U?$pair@$$CBHPAVfilters@@@std@@PAX@2@@Z 004534b0 f i filtering.obj
 0002:0002d4f0       ?_Kfn@?$_Tree@V?$_Tmap_traits@HPAVfilters@@U?$less@H@std@@V?$allocator@U?$pair@$$CBHPAVfilters@@@std@@@3@$0A@@std@@@std@@IBEABHABU?$pair@$$CBHPAVfilters@@@2@@Z 004534f0 f i filtering.obj
 0002:0002d530       ?_Lbound@?$_Tree@V?$_Tmap_traits@HPAVfilters@@U?$less@H@std@@V?$allocator@U?$pair@$$CBHPAVfilters@@@std@@@3@$0A@@std@@@std@@IAEPAU?$_Tree_node@U?$pair@$$CBHPAVfilters@@@std@@PAX@2@ABH@Z 00453530 f i filtering.obj
 0002:0002d620       ?find@?$_Tree@V?$_Tmap_traits@HPAVfilters@@U?$less@H@std@@V?$allocator@U?$pair@$$CBHPAVfilters@@@std@@@3@$0A@@std@@@std@@QAE?AV?$_Tree_iterator@V?$_Tree_val@U?$_Tree_simple_types@U?$pair@$$CBHPAVfilters@@@std@@@std@@@std@@@2@ABH@Z 00453620 f i filtering.obj
 0002:0002d890       ?lower_bound@?$_Tree@V?$_Tmap_traits@HPAVfilters@@U?$less@H@std@@V?$allocator@U?$pair@$$CBHPAVfilters@@@std@@@3@$0A@@std@@@std@@QAE?AV?$_Tree_iterator@V?$_Tree_val@U?$_Tree_simple_types@U?$pair@$$CBHPAVfilters@@@std@@@std@@@std@@@2@ABH@Z 00453890 f i filtering.obj
 0002:0002d900       ?Idxfu_ReadLockFile@@YAXXZ 00453900 f   IDXFU.obj
 0002:0002da90       ?Idxfu_WriteLockFile@@YAXXZ 00453a90 f   IDXFU.obj
 0002:0002dce0       ??0importPreview@@QAE@PAUHINSTANCE__@@PAUHWND__@@@Z 00453ce0 f   importPreview.obj
 0002:0002dde0       ??1importPreview@@UAE@XZ   00453de0 f   importPreview.obj
 0002:0002de50       ?init@importPreview@@QAEXPAUHWND__@@@Z 00453e50 f   importPreview.obj
 0002:0002e2e0       ?setData@importPreview@@QAEXPBD@Z 004542e0 f   importPreview.obj
 0002:0002e490       ?exec@importPreview@@QAEXPBD0_N@Z 00454490 f   importPreview.obj
 0002:0002e500       ?addEntry@importPreview@@QAEXHPBD@Z 00454500 f   importPreview.obj
 0002:0002e9a0       ?addEntry@importPreview@@QAEXPBD@Z 004549a0 f   importPreview.obj
 0002:0002eaf0       ?importPreviewWndProc@importPreview@@CGHPAUHWND__@@GGJ@Z 00454af0 f   importPreview.obj
 0002:0002ebf0       ?addItemToList@importPreview@@AAEHHPBD@Z 00454bf0 f   importPreview.obj
 0002:0002edc0       ?write@importPreview@@AAEXXZ 00454dc0 f   importPreview.obj
 0002:0002ee80       ?sendNext@importPreview@@AAEXXZ 00454e80 f   importPreview.obj
 0002:0002f650       ??$?0AAHVsizedBuffer@@X@?$pair@HVsizedBuffer@@@std@@QAE@AAH$$QAVsizedBuffer@@@Z 00455650 f i importPreview.obj
 0002:0002f6b0       ??$?0AAV?$_Tree_iterator@V?$_Tree_val@U?$_Tree_simple_types@U?$pair@$$CBHVsizedBuffer@@@std@@@std@@@std@@@std@@_NX@?$pair@V?$_Tree_iterator@V?$_Tree_val@U?$_Tree_simple_types@U?$pair@$$CBHVsizedBuffer@@@std@@@std@@@std@@@std@@_N@std@@QAE@AAV?$_Tree_iterator@V?$_Tree_val@U?$_Tree_simple_types@U?$pair@$$CBHVsizedBuffer@@@std@@@std@@@std@@@1@$$QA_N@Z 004556b0 f i importPreview.obj
 0002:0002f760       ??$?0HVsizedBuffer@@X@?$pair@$$CBHVsizedBuffer@@@std@@QAE@$$QAU?$pair@HVsizedBuffer@@@1@@Z 00455760 f i importPreview.obj
 0002:0002f7d0       ??$?0U?$_Tree_node@U?$pair@$$CBHVsizedBuffer@@@std@@PAX@std@@@?$allocator@U_Container_proxy@std@@@std@@QAE@ABV?$allocator@U?$_Tree_node@U?$pair@$$CBHVsizedBuffer@@@std@@PAX@std@@@1@@Z 004557d0 f i importPreview.obj
 0002:0002f7f0       ??$?0U?$_Wrap_alloc@V?$allocator@U?$_Tree_node@U?$pair@$$CBHVsizedBuffer@@@std@@PAX@std@@@std@@@std@@@?$_Wrap_alloc@V?$allocator@U_Container_proxy@std@@@std@@@std@@QAE@ABU?$_Wrap_alloc@V?$allocator@U?$_Tree_node@U?$pair@$$CBHVsizedBuffer@@@std@@PAX@std@@@std@@@1@@Z 004557f0 f i importPreview.obj
 0002:0002f830       ??$?0V?$_Tree_iterator@V?$_Tree_val@U?$_Tree_simple_types@U?$pair@$$CBHVsizedBuffer@@@std@@@std@@@std@@@std@@_NX@?$pair@V?$_Tree_iterator@V?$_Tree_val@U?$_Tree_simple_types@U?$pair@$$CBHVsizedBuffer@@@std@@@std@@@std@@@std@@_N@std@@QAE@$$QAV?$_Tree_iterator@V?$_Tree_val@U?$_Tree_simple_types@U?$pair@$$CBHVsizedBuffer@@@std@@@std@@@std@@@1@$$QA_N@Z 00455830 f i importPreview.obj
 0002:0002f8e0       ??$_Allocate@U?$_Tree_node@U?$pair@$$CBHVsizedBuffer@@@std@@PAX@std@@@std@@YAPAU?$_Tree_node@U?$pair@$$CBHVsizedBuffer@@@std@@PAX@0@IPAU10@@Z 004558e0 f i importPreview.obj
 0002:0002f960       ??$_Buynode@U?$pair@HVsizedBuffer@@@std@@@?$_Tree_buy@U?$pair@$$CBHVsizedBuffer@@@std@@V?$allocator@U?$pair@$$CBHVsizedBuffer@@@std@@@2@@std@@QAEPAU?$_Tree_node@U?$pair@$$CBHVsizedBuffer@@@std@@PAX@1@$$QAU?$pair@HVsizedBuffer@@@1@@Z 00455960 f i importPreview.obj
 0002:0002fab0       ??$_Buynode_if_nil@AAU?$pair@$$CBHVsizedBuffer@@@std@@@?$_Tree@V?$_Tmap_traits@HVsizedBuffer@@U?$less@H@std@@V?$allocator@U?$pair@$$CBHVsizedBuffer@@@std@@@3@$0A@@std@@@std@@IAEPAU?$_Tree_node@U?$pair@$$CBHVsizedBuffer@@@std@@PAX@1@PAU21@AAU?$pair@$$CBHVsizedBuffer@@@1@@Z 00455ab0 f i importPreview.obj
 0002:0002fad0       ??$_Insert_at@AAU?$pair@$$CBHVsizedBuffer@@@std@@PAU?$_Tree_node@U?$pair@$$CBHVsizedBuffer@@@std@@PAX@2@@?$_Tree@V?$_Tmap_traits@HVsizedBuffer@@U?$less@H@std@@V?$allocator@U?$pair@$$CBHVsizedBuffer@@@std@@@3@$0A@@std@@@std@@IAE?AV?$_Tree_iterator@V?$_Tree_val@U?$_Tree_simple_types@U?$pair@$$CBHVsizedBuffer@@@std@@@std@@@std@@@1@_NPAU?$_Tree_node@U?$pair@$$CBHVsizedBuffer@@@std@@PAX@1@AAU?$pair@$$CBHVsizedBuffer@@@1@1@Z 00455ad0 f i importPreview.obj
 0002:00030040       ??$_Insert_nohint@AAU?$pair@$$CBHVsizedBuffer@@@std@@PAU?$_Tree_node@U?$pair@$$CBHVsizedBuffer@@@std@@PAX@2@@?$_Tree@V?$_Tmap_traits@HVsizedBuffer@@U?$less@H@std@@V?$allocator@U?$pair@$$CBHVsizedBuffer@@@std@@@3@$0A@@std@@@std@@IAE?AU?$pair@V?$_Tree_iterator@V?$_Tree_val@U?$_Tree_simple_types@U?$pair@$$CBHVsizedBuffer@@@std@@@std@@@std@@@std@@_N@1@_NAAU?$pair@$$CBHVsizedBuffer@@@1@PAU?$_Tree_node@U?$pair@$$CBHVsizedBuffer@@@std@@PAX@1@@Z 00456040 f i importPreview.obj
 0002:00030700       ??$_Kfn@$$CBHVsizedBuffer@@@?$_Tmap_traits@HVsizedBuffer@@U?$less@H@std@@V?$allocator@U?$pair@$$CBHVsizedBuffer@@@std@@@3@$0A@@std@@SAABHABU?$pair@$$CBHVsizedBuffer@@@1@@Z 00456700 f i importPreview.obj
 0002:00030710       ??$addressof@$$CBU?$pair@$$CBHVsizedBuffer@@@std@@@std@@YAPBU?$pair@$$CBHVsizedBuffer@@@0@ABU10@@Z 00456710 f i importPreview.obj
 0002:00030720       ??$addressof@PAU?$_Tree_node@U?$pair@$$CBHVsizedBuffer@@@std@@PAX@std@@@std@@YAPAPAU?$_Tree_node@U?$pair@$$CBHVsizedBuffer@@@std@@PAX@0@AAPAU10@@Z 00456720 f i importPreview.obj
 0002:00030730       ??$addressof@U?$pair@$$CBHVsizedBuffer@@@std@@@std@@YAPAU?$pair@$$CBHVsizedBuffer@@@0@AAU10@@Z 00456730 f i importPreview.obj
 0002:00030740       ??$construct@PAU?$_Tree_node@U?$pair@$$CBHVsizedBuffer@@@std@@PAX@std@@AAPAU12@@?$_Wrap_alloc@V?$allocator@U?$_Tree_node@U?$pair@$$CBHVsizedBuffer@@@std@@PAX@std@@@std@@@std@@QAEXPAPAU?$_Tree_node@U?$pair@$$CBHVsizedBuffer@@@std@@PAX@1@AAPAU21@@Z 00456740 f i importPreview.obj
 0002:00030790       ??$construct@PAU?$_Tree_node@U?$pair@$$CBHVsizedBuffer@@@std@@PAX@std@@AAPAU12@@?$allocator@U?$_Tree_node@U?$pair@$$CBHVsizedBuffer@@@std@@PAX@std@@@std@@QAEXPAPAU?$_Tree_node@U?$pair@$$CBHVsizedBuffer@@@std@@PAX@1@AAPAU21@@Z 00456790 f i importPreview.obj
 0002:00030860       ??$construct@PAU?$_Tree_node@U?$pair@$$CBHVsizedBuffer@@@std@@PAX@std@@AAPAU12@@?$allocator_traits@V?$allocator@U?$_Tree_node@U?$pair@$$CBHVsizedBuffer@@@std@@PAX@std@@@std@@@std@@SAXAAV?$allocator@U?$_Tree_node@U?$pair@$$CBHVsizedBuffer@@@std@@PAX@std@@@1@PAPAU?$_Tree_node@U?$pair@$$CBHVsizedBuffer@@@std@@PAX@1@AAPAU31@@Z 00456860 f i importPreview.obj
 0002:00030890       ??$construct@U?$pair@$$CBHVsizedBuffer@@@std@@U?$pair@HVsizedBuffer@@@2@@?$_Wrap_alloc@V?$allocator@U?$_Tree_node@U?$pair@$$CBHVsizedBuffer@@@std@@PAX@std@@@std@@@std@@QAEXPAU?$pair@$$CBHVsizedBuffer@@@1@$$QAU?$pair@HVsizedBuffer@@@1@@Z 00456890 f i importPreview.obj
 0002:000308e0       ??$construct@U?$pair@$$CBHVsizedBuffer@@@std@@U?$pair@HVsizedBuffer@@@2@@?$allocator@U?$_Tree_node@U?$pair@$$CBHVsizedBuffer@@@std@@PAX@std@@@std@@QAEXPAU?$pair@$$CBHVsizedBuffer@@@1@$$QAU?$pair@HVsizedBuffer@@@1@@Z 004568e0 f i importPreview.obj
 0002:000309b0       ??$construct@U?$pair@$$CBHVsizedBuffer@@@std@@U?$pair@HVsizedBuffer@@@2@@?$allocator_traits@V?$allocator@U?$_Tree_node@U?$pair@$$CBHVsizedBuffer@@@std@@PAX@std@@@std@@@std@@SAXAAV?$allocator@U?$_Tree_node@U?$pair@$$CBHVsizedBuffer@@@std@@PAX@std@@@1@PAU?$pair@$$CBHVsizedBuffer@@@1@$$QAU?$pair@HVsizedBuffer@@@1@@Z 004569b0 f i importPreview.obj
 0002:000309e0       ??$destroy@PAU?$_Tree_node@U?$pair@$$CBHVsizedBuffer@@@std@@PAX@std@@@?$_Wrap_alloc@V?$allocator@U?$_Tree_node@U?$pair@$$CBHVsizedBuffer@@@std@@PAX@std@@@std@@@std@@QAEXPAPAU?$_Tree_node@U?$pair@$$CBHVsizedBuffer@@@std@@PAX@1@@Z 004569e0 f i importPreview.obj
 0002:00030a20       ??$destroy@PAU?$_Tree_node@U?$pair@$$CBHVsizedBuffer@@@std@@PAX@std@@@?$allocator@U?$_Tree_node@U?$pair@$$CBHVsizedBuffer@@@std@@PAX@std@@@std@@QAEXPAPAU?$_Tree_node@U?$pair@$$CBHVsizedBuffer@@@std@@PAX@1@@Z 00456a20 f i importPreview.obj
 0002:00030a40       ??$destroy@PAU?$_Tree_node@U?$pair@$$CBHVsizedBuffer@@@std@@PAX@std@@@?$allocator_traits@V?$allocator@U?$_Tree_node@U?$pair@$$CBHVsizedBuffer@@@std@@PAX@std@@@std@@@std@@SAXAAV?$allocator@U?$_Tree_node@U?$pair@$$CBHVsizedBuffer@@@std@@PAX@std@@@1@PAPAU?$_Tree_node@U?$pair@$$CBHVsizedBuffer@@@std@@PAX@1@@Z 00456a40 f i importPreview.obj
 0002:00030a60       ??$destroy@U?$pair@$$CBHVsizedBuffer@@@std@@@?$_Wrap_alloc@V?$allocator@U?$_Tree_node@U?$pair@$$CBHVsizedBuffer@@@std@@PAX@std@@@std@@@std@@QAEXPAU?$pair@$$CBHVsizedBuffer@@@1@@Z 00456a60 f i importPreview.obj
 0002:00030aa0       ??$destroy@U?$pair@$$CBHVsizedBuffer@@@std@@@?$allocator@U?$_Tree_node@U?$pair@$$CBHVsizedBuffer@@@std@@PAX@std@@@std@@QAEXPAU?$pair@$$CBHVsizedBuffer@@@1@@Z 00456aa0 f i importPreview.obj
 0002:00030ae0       ??$destroy@U?$pair@$$CBHVsizedBuffer@@@std@@@?$allocator_traits@V?$allocator@U?$_Tree_node@U?$pair@$$CBHVsizedBuffer@@@std@@PAX@std@@@std@@@std@@SAXAAV?$allocator@U?$_Tree_node@U?$pair@$$CBHVsizedBuffer@@@std@@PAX@std@@@1@PAU?$pair@$$CBHVsizedBuffer@@@1@@Z 00456ae0 f i importPreview.obj
 0002:00030b00       ??$forward@AAPAU?$_Tree_node@U?$pair@$$CBHVsizedBuffer@@@std@@PAX@std@@@std@@YAAAPAU?$_Tree_node@U?$pair@$$CBHVsizedBuffer@@@std@@PAX@0@AAPAU10@@Z 00456b00 f i importPreview.obj
 0002:00030b10       ??$forward@AAU?$pair@$$CBHVsizedBuffer@@@std@@@std@@YAAAU?$pair@$$CBHVsizedBuffer@@@0@AAU10@@Z 00456b10 f i importPreview.obj
 0002:00030b20       ??$forward@AAV?$_Tree_iterator@V?$_Tree_val@U?$_Tree_simple_types@U?$pair@$$CBHVsizedBuffer@@@std@@@std@@@std@@@std@@@std@@YAAAV?$_Tree_iterator@V?$_Tree_val@U?$_Tree_simple_types@U?$pair@$$CBHVsizedBuffer@@@std@@@std@@@std@@@0@AAV10@@Z 00456b20 f i importPreview.obj
 0002:00030b30       ??$forward@U?$pair@HVsizedBuffer@@@std@@@std@@YA$$QAU?$pair@HVsizedBuffer@@@0@AAU10@@Z 00456b30 f i importPreview.obj
 0002:00030b40       ??$forward@V?$_Tree_iterator@V?$_Tree_val@U?$_Tree_simple_types@U?$pair@$$CBHVsizedBuffer@@@std@@@std@@@std@@@std@@@std@@YA$$QAV?$_Tree_iterator@V?$_Tree_val@U?$_Tree_simple_types@U?$pair@$$CBHVsizedBuffer@@@std@@@std@@@std@@@0@AAV10@@Z 00456b40 f i importPreview.obj
 0002:00030b50       ??$forward@VsizedBuffer@@@std@@YA$$QAVsizedBuffer@@AAV1@@Z 00456b50 f i importPreview.obj
 0002:00030b60       ??$insert@U?$pair@HVsizedBuffer@@@std@@@?$_Tree@V?$_Tmap_traits@HVsizedBuffer@@U?$less@H@std@@V?$allocator@U?$pair@$$CBHVsizedBuffer@@@std@@@3@$0A@@std@@@std@@QAE?AU?$pair@V?$_Tree_iterator@V?$_Tree_val@U?$_Tree_simple_types@U?$pair@$$CBHVsizedBuffer@@@std@@@std@@@std@@@std@@_N@1@$$QAU?$pair@HVsizedBuffer@@@1@@Z 00456b60 f i importPreview.obj
 0002:00030c00       ??$make_pair@AAHVsizedBuffer@@@std@@YA?AU?$pair@HVsizedBuffer@@@0@AAH$$QAVsizedBuffer@@@Z 00456c00 f i importPreview.obj
 0002:00030c70       ??0?$_Iterator012@Ubidirectional_iterator_tag@std@@U?$pair@$$CBHVsizedBuffer@@@2@HPBU32@ABU32@U_Iterator_base12@2@@std@@QAE@ABU01@@Z 00456c70 f i importPreview.obj
 0002:00030cb0       ??0?$_Iterator012@Ubidirectional_iterator_tag@std@@U?$pair@$$CBHVsizedBuffer@@@2@HPBU32@ABU32@U_Iterator_base12@2@@std@@QAE@XZ 00456cb0 f i importPreview.obj
 0002:00030ce0       ??0?$_Tree@V?$_Tmap_traits@HVsizedBuffer@@U?$less@H@std@@V?$allocator@U?$pair@$$CBHVsizedBuffer@@@std@@@3@$0A@@std@@@std@@QAE@ABU?$less@H@1@ABV?$allocator@U?$pair@$$CBHVsizedBuffer@@@std@@@1@@Z 00456ce0 f i importPreview.obj
 0002:00030d20       ??0?$_Tree_alloc@$0A@U?$_Tree_base_types@U?$pair@$$CBHVsizedBuffer@@@std@@V?$allocator@U?$pair@$$CBHVsizedBuffer@@@std@@@2@@std@@@std@@QAE@ABV?$allocator@U?$pair@$$CBHVsizedBuffer@@@std@@@1@@Z 00456d20 f i importPreview.obj
 0002:00030e10       ??0?$_Tree_buy@U?$pair@$$CBHVsizedBuffer@@@std@@V?$allocator@U?$pair@$$CBHVsizedBuffer@@@std@@@2@@std@@QAE@ABV?$allocator@U?$pair@$$CBHVsizedBuffer@@@std@@@1@@Z 00456e10 f i importPreview.obj
 0002:00030e50       ??0?$_Tree_comp@$0A@V?$_Tmap_traits@HVsizedBuffer@@U?$less@H@std@@V?$allocator@U?$pair@$$CBHVsizedBuffer@@@std@@@3@$0A@@std@@@std@@QAE@ABU?$less@H@1@ABV?$allocator@U?$pair@$$CBHVsizedBuffer@@@std@@@1@@Z 00456e50 f i importPreview.obj
 0002:00030e90       ??0?$_Tree_const_iterator@V?$_Tree_val@U?$_Tree_simple_types@U?$pair@$$CBHVsizedBuffer@@@std@@@std@@@std@@@std@@QAE@ABV01@@Z 00456e90 f i importPreview.obj
 0002:00030ed0       ??0?$_Tree_const_iterator@V?$_Tree_val@U?$_Tree_simple_types@U?$pair@$$CBHVsizedBuffer@@@std@@@std@@@std@@@std@@QAE@PAU?$_Tree_node@U?$pair@$$CBHVsizedBuffer@@@std@@PAX@1@PBV?$_Tree_val@U?$_Tree_simple_types@U?$pair@$$CBHVsizedBuffer@@@std@@@std@@@1@@Z 00456ed0 f i importPreview.obj
 0002:00030f10       ??0?$_Tree_const_iterator@V?$_Tree_val@U?$_Tree_simple_types@U?$pair@$$CBHVsizedBuffer@@@std@@@std@@@std@@@std@@QAE@XZ 00456f10 f i importPreview.obj
 0002:00030f40       ??0?$_Tree_iterator@V?$_Tree_val@U?$_Tree_simple_types@U?$pair@$$CBHVsizedBuffer@@@std@@@std@@@std@@@std@@QAE@ABV01@@Z 00456f40 f i importPreview.obj
 0002:00030f80       ??0?$_Tree_iterator@V?$_Tree_val@U?$_Tree_simple_types@U?$pair@$$CBHVsizedBuffer@@@std@@@std@@@std@@@std@@QAE@PAU?$_Tree_node@U?$pair@$$CBHVsizedBuffer@@@std@@PAX@1@PBV?$_Tree_val@U?$_Tree_simple_types@U?$pair@$$CBHVsizedBuffer@@@std@@@std@@@1@@Z 00456f80 f i importPreview.obj
 0002:00030fc0       ??0?$_Tree_unchecked_const_iterator@V?$_Tree_val@U?$_Tree_simple_types@U?$pair@$$CBHVsizedBuffer@@@std@@@std@@@std@@U_Iterator_base12@2@@std@@QAE@ABV01@@Z 00456fc0 f i importPreview.obj
 0002:00031010       ??0?$_Tree_unchecked_const_iterator@V?$_Tree_val@U?$_Tree_simple_types@U?$pair@$$CBHVsizedBuffer@@@std@@@std@@@std@@U_Iterator_base12@2@@std@@QAE@PAU?$_Tree_node@U?$pair@$$CBHVsizedBuffer@@@std@@PAX@1@PBV?$_Tree_val@U?$_Tree_simple_types@U?$pair@$$CBHVsizedBuffer@@@std@@@std@@@1@@Z 00457010 f i importPreview.obj
 0002:000310b0       ??0?$_Tree_unchecked_const_iterator@V?$_Tree_val@U?$_Tree_simple_types@U?$pair@$$CBHVsizedBuffer@@@std@@@std@@@std@@U_Iterator_base12@2@@std@@QAE@XZ 004570b0 f i importPreview.obj
 0002:000310f0       ??0?$_Tree_val@U?$_Tree_simple_types@U?$pair@$$CBHVsizedBuffer@@@std@@@std@@@std@@QAE@XZ 004570f0 f i importPreview.obj
 0002:00031150       ??0?$_Wrap_alloc@V?$allocator@U?$_Tree_node@U?$pair@$$CBHVsizedBuffer@@@std@@PAX@std@@@std@@@std@@QAE@XZ 00457150 f i importPreview.obj
 0002:00031180       ??0?$allocator@U?$_Tree_node@U?$pair@$$CBHVsizedBuffer@@@std@@PAX@std@@@std@@QAE@XZ 00457180 f i importPreview.obj
 0002:000311a0       ??0?$allocator@U?$pair@$$CBHVsizedBuffer@@@std@@@std@@QAE@XZ 004571a0 f i importPreview.obj
 0002:000311c0       ??0?$map@HVsizedBuffer@@U?$less@H@std@@V?$allocator@U?$pair@$$CBHVsizedBuffer@@@std@@@3@@std@@QAE@XZ 004571c0 f i importPreview.obj
 0002:00031210       ??1?$_Iterator012@Ubidirectional_iterator_tag@std@@U?$pair@$$CBHVsizedBuffer@@@2@HPBU32@ABU32@U_Iterator_base12@2@@std@@QAE@XZ 00457210 f i importPreview.obj
 0002:00031240       ??1?$_Tree@V?$_Tmap_traits@HVsizedBuffer@@U?$less@H@std@@V?$allocator@U?$pair@$$CBHVsizedBuffer@@@std@@@3@$0A@@std@@@std@@QAE@XZ 00457240 f i importPreview.obj
 0002:00031280       ??1?$_Tree_alloc@$0A@U?$_Tree_base_types@U?$pair@$$CBHVsizedBuffer@@@std@@V?$allocator@U?$pair@$$CBHVsizedBuffer@@@std@@@2@@std@@@std@@QAE@XZ 00457280 f i importPreview.obj
 0002:000312d0       ??1?$_Tree_buy@U?$pair@$$CBHVsizedBuffer@@@std@@V?$allocator@U?$pair@$$CBHVsizedBuffer@@@std@@@2@@std@@QAE@XZ 004572d0 f i importPreview.obj
 0002:00031300       ??1?$_Tree_comp@$0A@V?$_Tmap_traits@HVsizedBuffer@@U?$less@H@std@@V?$allocator@U?$pair@$$CBHVsizedBuffer@@@std@@@3@$0A@@std@@@std@@QAE@XZ 00457300 f i importPreview.obj
 0002:00031330       ??1?$_Tree_const_iterator@V?$_Tree_val@U?$_Tree_simple_types@U?$pair@$$CBHVsizedBuffer@@@std@@@std@@@std@@@std@@QAE@XZ 00457330 f i importPreview.obj
 0002:00031360       ??1?$_Tree_iterator@V?$_Tree_val@U?$_Tree_simple_types@U?$pair@$$CBHVsizedBuffer@@@std@@@std@@@std@@@std@@QAE@XZ 00457360 f i importPreview.obj
 0002:00031390       ??1?$_Tree_unchecked_const_iterator@V?$_Tree_val@U?$_Tree_simple_types@U?$pair@$$CBHVsizedBuffer@@@std@@@std@@@std@@U_Iterator_base12@2@@std@@QAE@XZ 00457390 f i importPreview.obj
 0002:000313c0       ??1?$_Tree_val@U?$_Tree_simple_types@U?$pair@$$CBHVsizedBuffer@@@std@@@std@@@std@@QAE@XZ 004573c0 f i importPreview.obj
 0002:00031400       ??1?$map@HVsizedBuffer@@U?$less@H@std@@V?$allocator@U?$pair@$$CBHVsizedBuffer@@@std@@@3@@std@@QAE@XZ 00457400 f i importPreview.obj
 0002:00031430       ??1?$pair@$$CBHVsizedBuffer@@@std@@QAE@XZ 00457430 f i importPreview.obj
 0002:00031460       ??1?$pair@HVsizedBuffer@@@std@@QAE@XZ 00457460 f i importPreview.obj
 0002:00031490       ??1?$pair@V?$_Tree_iterator@V?$_Tree_val@U?$_Tree_simple_types@U?$pair@$$CBHVsizedBuffer@@@std@@@std@@@std@@@std@@_N@std@@QAE@XZ 00457490 f i importPreview.obj
 0002:000314c0       ??4?$_Iterator012@Ubidirectional_iterator_tag@std@@U?$pair@$$CBHVsizedBuffer@@@2@HPBU32@ABU32@U_Iterator_base12@2@@std@@QAEAAU01@ABU01@@Z 004574c0 f i importPreview.obj
 0002:00031500       ??4?$_Tree_const_iterator@V?$_Tree_val@U?$_Tree_simple_types@U?$pair@$$CBHVsizedBuffer@@@std@@@std@@@std@@@std@@QAEAAV01@ABV01@@Z 00457500 f i importPreview.obj
 0002:00031540       ??4?$_Tree_unchecked_const_iterator@V?$_Tree_val@U?$_Tree_simple_types@U?$pair@$$CBHVsizedBuffer@@@std@@@std@@@std@@U_Iterator_base12@2@@std@@QAEAAV01@ABV01@@Z 00457540 f i importPreview.obj
 0002:00031590       ??8?$_Tree_const_iterator@V?$_Tree_val@U?$_Tree_simple_types@U?$pair@$$CBHVsizedBuffer@@@std@@@std@@@std@@@std@@QBE_NABV01@@Z 00457590 f i importPreview.obj
 0002:000316d0       ??9?$_Tree_const_iterator@V?$_Tree_val@U?$_Tree_simple_types@U?$pair@$$CBHVsizedBuffer@@@std@@@std@@@std@@@std@@QBE_NABV01@@Z 004576d0 f i importPreview.obj
 0002:00031730       ??C?$_Tree_const_iterator@V?$_Tree_val@U?$_Tree_simple_types@U?$pair@$$CBHVsizedBuffer@@@std@@@std@@@std@@@std@@QBEPBU?$pair@$$CBHVsizedBuffer@@@1@XZ 00457730 f i importPreview.obj
 0002:00031770       ??D?$_Tree_const_iterator@V?$_Tree_val@U?$_Tree_simple_types@U?$pair@$$CBHVsizedBuffer@@@std@@@std@@@std@@@std@@QBEABU?$pair@$$CBHVsizedBuffer@@@1@XZ 00457770 f i importPreview.obj
 0002:00031890       ??E?$_Tree_const_iterator@V?$_Tree_val@U?$_Tree_simple_types@U?$pair@$$CBHVsizedBuffer@@@std@@@std@@@std@@@std@@QAE?AV01@H@Z 00457890 f i importPreview.obj
 0002:000319a0       ??E?$_Tree_const_iterator@V?$_Tree_val@U?$_Tree_simple_types@U?$pair@$$CBHVsizedBuffer@@@std@@@std@@@std@@@std@@QAEAAV01@XZ 004579a0 f i importPreview.obj
 0002:00031ac0       ??E?$_Tree_unchecked_const_iterator@V?$_Tree_val@U?$_Tree_simple_types@U?$pair@$$CBHVsizedBuffer@@@std@@@std@@@std@@U_Iterator_base12@2@@std@@QAEAAV01@XZ 00457ac0 f i importPreview.obj
 0002:00031bd0       ??F?$_Tree_const_iterator@V?$_Tree_val@U?$_Tree_simple_types@U?$pair@$$CBHVsizedBuffer@@@std@@@std@@@std@@@std@@QAEAAV01@XZ 00457bd0 f i importPreview.obj
 0002:00031da0       ??F?$_Tree_iterator@V?$_Tree_val@U?$_Tree_simple_types@U?$pair@$$CBHVsizedBuffer@@@std@@@std@@@std@@@std@@QAEAAV01@XZ 00457da0 f i importPreview.obj
 0002:00031dd0       ??F?$_Tree_unchecked_const_iterator@V?$_Tree_val@U?$_Tree_simple_types@U?$pair@$$CBHVsizedBuffer@@@std@@@std@@@std@@U_Iterator_base12@2@@std@@QAEAAV01@XZ 00457dd0 f i importPreview.obj
 0002:00031f20       ??_G?$pair@$$CBHVsizedBuffer@@@std@@QAEPAXI@Z 00457f20 f i importPreview.obj
 0002:00031f70       ??_EimportPreview@@UAEPAXI@Z 00457f70 f i importPreview.obj
 0002:00031f70       ??_GimportPreview@@UAEPAXI@Z 00457f70 f i importPreview.obj
 0002:00031fc0       ?_Alloc_proxy@?$_Tree_alloc@$0A@U?$_Tree_base_types@U?$pair@$$CBHVsizedBuffer@@@std@@V?$allocator@U?$pair@$$CBHVsizedBuffer@@@std@@@2@@std@@@std@@QAEXXZ 00457fc0 f i importPreview.obj
 0002:00032090       ?_Buyheadnode@?$_Tree_alloc@$0A@U?$_Tree_base_types@U?$pair@$$CBHVsizedBuffer@@@std@@V?$allocator@U?$pair@$$CBHVsizedBuffer@@@std@@@2@@std@@@std@@QAEPAU?$_Tree_node@U?$pair@$$CBHVsizedBuffer@@@std@@PAX@2@XZ 00458090 f i importPreview.obj
 0002:000322a0       ?_Buynode0@?$_Tree_buy@U?$pair@$$CBHVsizedBuffer@@@std@@V?$allocator@U?$pair@$$CBHVsizedBuffer@@@std@@@2@@std@@QAEPAU?$_Tree_node@U?$pair@$$CBHVsizedBuffer@@@std@@PAX@2@XZ 004582a0 f i importPreview.obj
 0002:00032460       ?_Color@?$_Tree_val@U?$_Tree_simple_types@U?$pair@$$CBHVsizedBuffer@@@std@@@std@@@std@@SAAADPAU?$_Tree_node@U?$pair@$$CBHVsizedBuffer@@@std@@PAX@2@@Z 00458460 f i importPreview.obj
 0002:00032470       ?_Destroy_if_not_nil@?$_Tree@V?$_Tmap_traits@HVsizedBuffer@@U?$less@H@std@@V?$allocator@U?$pair@$$CBHVsizedBuffer@@@std@@@3@$0A@@std@@@std@@IAEXPAU?$_Tree_node@U?$pair@$$CBHVsizedBuffer@@@std@@PAX@2@@Z 00458470 f i importPreview.obj
 0002:00032500       ?_Erase@?$_Tree@V?$_Tmap_traits@HVsizedBuffer@@U?$less@H@std@@V?$allocator@U?$pair@$$CBHVsizedBuffer@@@std@@@3@$0A@@std@@@std@@IAEXPAU?$_Tree_node@U?$pair@$$CBHVsizedBuffer@@@std@@PAX@2@@Z 00458500 f i importPreview.obj
 0002:000325f0       ?_Free_proxy@?$_Tree_alloc@$0A@U?$_Tree_base_types@U?$pair@$$CBHVsizedBuffer@@@std@@V?$allocator@U?$pair@$$CBHVsizedBuffer@@@std@@@2@@std@@@std@@QAEXXZ 004585f0 f i importPreview.obj
 0002:000326d0       ?_Freeheadnode@?$_Tree_alloc@$0A@U?$_Tree_base_types@U?$pair@$$CBHVsizedBuffer@@@std@@V?$allocator@U?$pair@$$CBHVsizedBuffer@@@std@@@2@@std@@@std@@QAEXPAU?$_Tree_node@U?$pair@$$CBHVsizedBuffer@@@std@@PAX@2@@Z 004586d0 f i importPreview.obj
 0002:000327c0       ?_Freenode0@?$_Tree_buy@U?$pair@$$CBHVsizedBuffer@@@std@@V?$allocator@U?$pair@$$CBHVsizedBuffer@@@std@@@2@@std@@QAEXPAU?$_Tree_node@U?$pair@$$CBHVsizedBuffer@@@std@@PAX@2@@Z 004587c0 f i importPreview.obj
 0002:000328b0       ?_Getal@?$_Tree_alloc@$0A@U?$_Tree_base_types@U?$pair@$$CBHVsizedBuffer@@@std@@V?$allocator@U?$pair@$$CBHVsizedBuffer@@@std@@@2@@std@@@std@@QBE?AU?$_Wrap_alloc@V?$allocator@U?$_Tree_node@U?$pair@$$CBHVsizedBuffer@@@std@@PAX@std@@@std@@@2@XZ 004588b0 f i importPreview.obj
 0002:000328f0       ?_Getcomp@?$_Tree_comp@$0A@V?$_Tmap_traits@HVsizedBuffer@@U?$less@H@std@@V?$allocator@U?$pair@$$CBHVsizedBuffer@@@std@@@3@$0A@@std@@@std@@QBE?AU?$less@H@2@XZ 004588f0 f i importPreview.obj
 0002:00032920       ?_Isnil@?$_Tree_val@U?$_Tree_simple_types@U?$pair@$$CBHVsizedBuffer@@@std@@@std@@@std@@SAAADPAU?$_Tree_node@U?$pair@$$CBHVsizedBuffer@@@std@@PAX@2@@Z 00458920 f i importPreview.obj
 0002:00032930       ?_Key@?$_Tree@V?$_Tmap_traits@HVsizedBuffer@@U?$less@H@std@@V?$allocator@U?$pair@$$CBHVsizedBuffer@@@std@@@3@$0A@@std@@@std@@IBEABHPAU?$_Tree_node@U?$pair@$$CBHVsizedBuffer@@@std@@PAX@2@@Z 00458930 f i importPreview.obj
 0002:00032970       ?_Kfn@?$_Tree@V?$_Tmap_traits@HVsizedBuffer@@U?$less@H@std@@V?$allocator@U?$pair@$$CBHVsizedBuffer@@@std@@@3@$0A@@std@@@std@@IBEABHABU?$pair@$$CBHVsizedBuffer@@@2@@Z 00458970 f i importPreview.obj
 0002:000329b0       ?_Lbound@?$_Tree@V?$_Tmap_traits@HVsizedBuffer@@U?$less@H@std@@V?$allocator@U?$pair@$$CBHVsizedBuffer@@@std@@@3@$0A@@std@@@std@@IAEPAU?$_Tree_node@U?$pair@$$CBHVsizedBuffer@@@std@@PAX@2@ABH@Z 004589b0 f i importPreview.obj
 0002:00032aa0       ?_Left@?$_Tree_val@U?$_Tree_simple_types@U?$pair@$$CBHVsizedBuffer@@@std@@@std@@@std@@SAAAPAU?$_Tree_node@U?$pair@$$CBHVsizedBuffer@@@std@@PAX@2@PAU32@@Z 00458aa0 f i importPreview.obj
 0002:00032ab0       ?_Lmost@?$_Tree@V?$_Tmap_traits@HVsizedBuffer@@U?$less@H@std@@V?$allocator@U?$pair@$$CBHVsizedBuffer@@@std@@@3@$0A@@std@@@std@@IBEAAPAU?$_Tree_node@U?$pair@$$CBHVsizedBuffer@@@std@@PAX@2@XZ 00458ab0 f i importPreview.obj
 0002:00032af0       ?_Lrotate@?$_Tree@V?$_Tmap_traits@HVsizedBuffer@@U?$less@H@std@@V?$allocator@U?$pair@$$CBHVsizedBuffer@@@std@@@3@$0A@@std@@@std@@IAEXPAU?$_Tree_node@U?$pair@$$CBHVsizedBuffer@@@std@@PAX@2@@Z 00458af0 f i importPreview.obj
 0002:00032c90       ?_Max@?$_Tree_val@U?$_Tree_simple_types@U?$pair@$$CBHVsizedBuffer@@@std@@@std@@@std@@SAPAU?$_Tree_node@U?$pair@$$CBHVsizedBuffer@@@std@@PAX@2@PAU32@@Z 00458c90 f i importPreview.obj
 0002:00032ce0       ?_Min@?$_Tree_val@U?$_Tree_simple_types@U?$pair@$$CBHVsizedBuffer@@@std@@@std@@@std@@SAPAU?$_Tree_node@U?$pair@$$CBHVsizedBuffer@@@std@@PAX@2@PAU32@@Z 00458ce0 f i importPreview.obj
 0002:00032d30       ?_Mynode@?$_Tree_unchecked_const_iterator@V?$_Tree_val@U?$_Tree_simple_types@U?$pair@$$CBHVsizedBuffer@@@std@@@std@@@std@@U_Iterator_base12@2@@std@@QBEPAU?$_Tree_node@U?$pair@$$CBHVsizedBuffer@@@std@@PAX@2@XZ 00458d30 f i importPreview.obj
 0002:00032d50       ?_Myval@?$_Tree_val@U?$_Tree_simple_types@U?$pair@$$CBHVsizedBuffer@@@std@@@std@@@std@@SAAAU?$pair@$$CBHVsizedBuffer@@@2@PAU?$_Tree_node@U?$pair@$$CBHVsizedBuffer@@@std@@PAX@2@@Z 00458d50 f i importPreview.obj
 0002:00032d60       ?_Orphan_ptr@?$_Tree@V?$_Tmap_traits@HVsizedBuffer@@U?$less@H@std@@V?$allocator@U?$pair@$$CBHVsizedBuffer@@@std@@@3@$0A@@std@@@std@@IBEXAAV12@PAU?$_Tree_node@U?$pair@$$CBHVsizedBuffer@@@std@@PAX@2@@Z 00458d60 f i importPreview.obj
 0002:00032ee0       ?_Parent@?$_Tree_val@U?$_Tree_simple_types@U?$pair@$$CBHVsizedBuffer@@@std@@@std@@@std@@SAAAPAU?$_Tree_node@U?$pair@$$CBHVsizedBuffer@@@std@@PAX@2@PAU32@@Z 00458ee0 f i importPreview.obj
 0002:00032ef0       ?_Right@?$_Tree_val@U?$_Tree_simple_types@U?$pair@$$CBHVsizedBuffer@@@std@@@std@@@std@@SAAAPAU?$_Tree_node@U?$pair@$$CBHVsizedBuffer@@@std@@PAX@2@PAU32@@Z 00458ef0 f i importPreview.obj
 0002:00032f00       ?_Rmost@?$_Tree@V?$_Tmap_traits@HVsizedBuffer@@U?$less@H@std@@V?$allocator@U?$pair@$$CBHVsizedBuffer@@@std@@@3@$0A@@std@@@std@@IBEAAPAU?$_Tree_node@U?$pair@$$CBHVsizedBuffer@@@std@@PAX@2@XZ 00458f00 f i importPreview.obj
 0002:00032f40       ?_Root@?$_Tree@V?$_Tmap_traits@HVsizedBuffer@@U?$less@H@std@@V?$allocator@U?$pair@$$CBHVsizedBuffer@@@std@@@3@$0A@@std@@@std@@IBEAAPAU?$_Tree_node@U?$pair@$$CBHVsizedBuffer@@@std@@PAX@2@XZ 00458f40 f i importPreview.obj
 0002:00032f80       ?_Rrotate@?$_Tree@V?$_Tmap_traits@HVsizedBuffer@@U?$less@H@std@@V?$allocator@U?$pair@$$CBHVsizedBuffer@@@std@@@3@$0A@@std@@@std@@IAEXPAU?$_Tree_node@U?$pair@$$CBHVsizedBuffer@@@std@@PAX@2@@Z 00458f80 f i importPreview.obj
 0002:00033120       ?_Tidy@?$_Tree@V?$_Tmap_traits@HVsizedBuffer@@U?$less@H@std@@V?$allocator@U?$pair@$$CBHVsizedBuffer@@@std@@@3@$0A@@std@@@std@@IAEXXZ 00459120 f i importPreview.obj
 0002:00033250       ?allocate@?$_Wrap_alloc@V?$allocator@U?$_Tree_node@U?$pair@$$CBHVsizedBuffer@@@std@@PAX@std@@@std@@@std@@QAEPAU?$_Tree_node@U?$pair@$$CBHVsizedBuffer@@@std@@PAX@2@I@Z 00459250 f i importPreview.obj
 0002:00033290       ?allocate@?$allocator@U?$_Tree_node@U?$pair@$$CBHVsizedBuffer@@@std@@PAX@std@@@std@@QAEPAU?$_Tree_node@U?$pair@$$CBHVsizedBuffer@@@std@@PAX@2@I@Z 00459290 f i importPreview.obj
 0002:000332d0       ?begin@?$_Tree@V?$_Tmap_traits@HVsizedBuffer@@U?$less@H@std@@V?$allocator@U?$pair@$$CBHVsizedBuffer@@@std@@@3@$0A@@std@@@std@@QAE?AV?$_Tree_iterator@V?$_Tree_val@U?$_Tree_simple_types@U?$pair@$$CBHVsizedBuffer@@@std@@@std@@@std@@@2@XZ 004592d0 f i importPreview.obj
 0002:00033320       ?clear@?$_Tree@V?$_Tmap_traits@HVsizedBuffer@@U?$less@H@std@@V?$allocator@U?$pair@$$CBHVsizedBuffer@@@std@@@3@$0A@@std@@@std@@QAEXXZ 00459320 f i importPreview.obj
 0002:000333c0       ?deallocate@?$_Wrap_alloc@V?$allocator@U?$_Tree_node@U?$pair@$$CBHVsizedBuffer@@@std@@PAX@std@@@std@@@std@@QAEXPAU?$_Tree_node@U?$pair@$$CBHVsizedBuffer@@@std@@PAX@2@I@Z 004593c0 f i importPreview.obj
 0002:00033400       ?deallocate@?$allocator@U?$_Tree_node@U?$pair@$$CBHVsizedBuffer@@@std@@PAX@std@@@std@@QAEXPAU?$_Tree_node@U?$pair@$$CBHVsizedBuffer@@@std@@PAX@2@I@Z 00459400 f i importPreview.obj
 0002:00033440       ?end@?$_Tree@V?$_Tmap_traits@HVsizedBuffer@@U?$less@H@std@@V?$allocator@U?$pair@$$CBHVsizedBuffer@@@std@@@3@$0A@@std@@@std@@QAE?AV?$_Tree_iterator@V?$_Tree_val@U?$_Tree_simple_types@U?$pair@$$CBHVsizedBuffer@@@std@@@std@@@std@@@2@XZ 00459440 f i importPreview.obj
 0002:00033490       ?erase@?$_Tree@V?$_Tmap_traits@HVsizedBuffer@@U?$less@H@std@@V?$allocator@U?$pair@$$CBHVsizedBuffer@@@std@@@3@$0A@@std@@@std@@QAE?AV?$_Tree_iterator@V?$_Tree_val@U?$_Tree_simple_types@U?$pair@$$CBHVsizedBuffer@@@std@@@std@@@std@@@2@V?$_Tree_const_iterator@V?$_Tree_val@U?$_Tree_simple_types@U?$pair@$$CBHVsizedBuffer@@@std@@@std@@@std@@@2@0@Z 00459490 f i importPreview.obj
 0002:00033710       ?erase@?$_Tree@V?$_Tmap_traits@HVsizedBuffer@@U?$less@H@std@@V?$allocator@U?$pair@$$CBHVsizedBuffer@@@std@@@3@$0A@@std@@@std@@QAE?AV?$_Tree_iterator@V?$_Tree_val@U?$_Tree_simple_types@U?$pair@$$CBHVsizedBuffer@@@std@@@std@@@std@@@2@V?$_Tree_const_iterator@V?$_Tree_val@U?$_Tree_simple_types@U?$pair@$$CBHVsizedBuffer@@@std@@@std@@@std@@@2@@Z 00459710 f i importPreview.obj
 0002:00034170       ?find@?$_Tree@V?$_Tmap_traits@HVsizedBuffer@@U?$less@H@std@@V?$allocator@U?$pair@$$CBHVsizedBuffer@@@std@@@3@$0A@@std@@@std@@QAE?AV?$_Tree_iterator@V?$_Tree_val@U?$_Tree_simple_types@U?$pair@$$CBHVsizedBuffer@@@std@@@std@@@std@@@2@ABH@Z 0045a170 f i importPreview.obj
 0002:000343e0       ?lower_bound@?$_Tree@V?$_Tmap_traits@HVsizedBuffer@@U?$less@H@std@@V?$allocator@U?$pair@$$CBHVsizedBuffer@@@std@@@3@$0A@@std@@@std@@QAE?AV?$_Tree_iterator@V?$_Tree_val@U?$_Tree_simple_types@U?$pair@$$CBHVsizedBuffer@@@std@@@std@@@std@@@2@ABH@Z 0045a3e0 f i importPreview.obj
 0002:00034450       ?max_size@?$_Tree@V?$_Tmap_traits@HVsizedBuffer@@U?$less@H@std@@V?$allocator@U?$pair@$$CBHVsizedBuffer@@@std@@@3@$0A@@std@@@std@@QBEIXZ 0045a450 f i importPreview.obj
 0002:000344a0       ?max_size@?$_Wrap_alloc@V?$allocator@U?$_Tree_node@U?$pair@$$CBHVsizedBuffer@@@std@@PAX@std@@@std@@@std@@QBEIXZ 0045a4a0 f i importPreview.obj
 0002:000344e0       ?max_size@?$allocator@U?$_Tree_node@U?$pair@$$CBHVsizedBuffer@@@std@@PAX@std@@@std@@QBEIXZ 0045a4e0 f i importPreview.obj
 0002:00034500       ?max_size@?$allocator_traits@V?$allocator@U?$_Tree_node@U?$pair@$$CBHVsizedBuffer@@@std@@PAX@std@@@std@@@std@@SAIABV?$allocator@U?$_Tree_node@U?$pair@$$CBHVsizedBuffer@@@std@@PAX@std@@@2@@Z 0045a500 f i importPreview.obj
 0002:00034520       ?pointer_to@?$pointer_traits@PBU?$pair@$$CBHVsizedBuffer@@@std@@@std@@SAPBU?$pair@$$CBHVsizedBuffer@@@2@ABU32@@Z 0045a520 f i importPreview.obj
 0002:00034540       _WinMain@16                0045a540 f   MAIN.obj
 0002:000346e0       ?InitApplication@@YAHPAUHINSTANCE__@@@Z 0045a6e0 f   MAIN.obj
 0002:000347f0       ?InitInstance@@YAHPAUHINSTANCE__@@H@Z 0045a7f0 f   MAIN.obj
 0002:000348a0       ?MainWndProc@@YGJPAUHWND__@@IIJ@Z 0045a8a0 f   MAIN.obj
 0002:00036b10       ?Main_Initialise@@YAXXZ    0045cb10 f   MAIN.obj
 0002:00036cd0       ?Main_Init@@YAXXZ          0045ccd0 f   MAIN.obj
 0002:00036e20       ?Main_Closedown@@YAXXZ     0045ce20 f   MAIN.obj
 0002:00036f50       ?Main_ClientMsg@@YAXJ@Z    0045cf50 f   MAIN.obj
 0002:00037080       ?Main_SendDestStr@@YAXIJ@Z 0045d080 f   MAIN.obj
 0002:00037130       ?Main_ConfigStatusDialogProc@@YGHPAUHWND__@@IIJ@Z 0045d130 f   MAIN.obj
 0002:000371e0       ?Main_ConfigFileAsPath@@YAPADH@Z 0045d1e0 f   MAIN.obj
 0002:000372a0       ?Main_DoHelp@@YAXPBD@Z     0045d2a0 f   MAIN.obj
 0002:000373d0       ?Main_SendDelay@@YAXXZ     0045d3d0 f   MAIN.obj
 0002:00038160       ??$?0U?$_Tree_node@U?$pair@$$CBHK@std@@PAX@std@@@?$allocator@U_Container_proxy@std@@@std@@QAE@ABV?$allocator@U?$_Tree_node@U?$pair@$$CBHK@std@@PAX@std@@@1@@Z 0045e160 f i MAIN.obj
 0002:00038180       ??$?0U?$_Tree_node@U?$pair@$$CBHPAVfilters@@@std@@PAX@std@@@?$allocator@U_Container_proxy@std@@@std@@QAE@ABV?$allocator@U?$_Tree_node@U?$pair@$$CBHPAVfilters@@@std@@PAX@std@@@1@@Z 0045e180 f i MAIN.obj
 0002:000381a0       ??$?0U?$_Wrap_alloc@V?$allocator@U?$_Tree_node@U?$pair@$$CBHK@std@@PAX@std@@@std@@@std@@@?$_Wrap_alloc@V?$allocator@U_Container_proxy@std@@@std@@@std@@QAE@ABU?$_Wrap_alloc@V?$allocator@U?$_Tree_node@U?$pair@$$CBHK@std@@PAX@std@@@std@@@1@@Z 0045e1a0 f i MAIN.obj
 0002:000381e0       ??$?0U?$_Wrap_alloc@V?$allocator@U?$_Tree_node@U?$pair@$$CBHPAVfilters@@@std@@PAX@std@@@std@@@std@@@?$_Wrap_alloc@V?$allocator@U_Container_proxy@std@@@std@@@std@@QAE@ABU?$_Wrap_alloc@V?$allocator@U?$_Tree_node@U?$pair@$$CBHPAVfilters@@@std@@PAX@std@@@std@@@1@@Z 0045e1e0 f i MAIN.obj
 0002:00038220       ??$_Allocate@U?$_Tree_node@U?$pair@$$CBHPAVfilters@@@std@@PAX@std@@@std@@YAPAU?$_Tree_node@U?$pair@$$CBHPAVfilters@@@std@@PAX@0@IPAU10@@Z 0045e220 f i MAIN.obj
 0002:000382a0       ??$addressof@PAU?$_Tree_node@U?$pair@$$CBHPAVfilters@@@std@@PAX@std@@@std@@YAPAPAU?$_Tree_node@U?$pair@$$CBHPAVfilters@@@std@@PAX@0@AAPAU10@@Z 0045e2a0 f i MAIN.obj
 0002:000382b0       ??$construct@PAU?$_Tree_node@U?$pair@$$CBHPAVfilters@@@std@@PAX@std@@AAPAU12@@?$_Wrap_alloc@V?$allocator@U?$_Tree_node@U?$pair@$$CBHPAVfilters@@@std@@PAX@std@@@std@@@std@@QAEXPAPAU?$_Tree_node@U?$pair@$$CBHPAVfilters@@@std@@PAX@1@AAPAU21@@Z 0045e2b0 f i MAIN.obj
 0002:00038300       ??$construct@PAU?$_Tree_node@U?$pair@$$CBHPAVfilters@@@std@@PAX@std@@AAPAU12@@?$allocator@U?$_Tree_node@U?$pair@$$CBHPAVfilters@@@std@@PAX@std@@@std@@QAEXPAPAU?$_Tree_node@U?$pair@$$CBHPAVfilters@@@std@@PAX@1@AAPAU21@@Z 0045e300 f i MAIN.obj
 0002:000383d0       ??$construct@PAU?$_Tree_node@U?$pair@$$CBHPAVfilters@@@std@@PAX@std@@AAPAU12@@?$allocator_traits@V?$allocator@U?$_Tree_node@U?$pair@$$CBHPAVfilters@@@std@@PAX@std@@@std@@@std@@SAXAAV?$allocator@U?$_Tree_node@U?$pair@$$CBHPAVfilters@@@std@@PAX@std@@@1@PAPAU?$_Tree_node@U?$pair@$$CBHPAVfilters@@@std@@PAX@1@AAPAU31@@Z 0045e3d0 f i MAIN.obj
 0002:00038400       ??$destroy@PAU?$_Tree_node@U?$pair@$$CBHPAVfilters@@@std@@PAX@std@@@?$_Wrap_alloc@V?$allocator@U?$_Tree_node@U?$pair@$$CBHPAVfilters@@@std@@PAX@std@@@std@@@std@@QAEXPAPAU?$_Tree_node@U?$pair@$$CBHPAVfilters@@@std@@PAX@1@@Z 0045e400 f i MAIN.obj
 0002:00038440       ??$destroy@PAU?$_Tree_node@U?$pair@$$CBHPAVfilters@@@std@@PAX@std@@@?$allocator@U?$_Tree_node@U?$pair@$$CBHPAVfilters@@@std@@PAX@std@@@std@@QAEXPAPAU?$_Tree_node@U?$pair@$$CBHPAVfilters@@@std@@PAX@1@@Z 0045e440 f i MAIN.obj
 0002:00038460       ??$destroy@PAU?$_Tree_node@U?$pair@$$CBHPAVfilters@@@std@@PAX@std@@@?$allocator_traits@V?$allocator@U?$_Tree_node@U?$pair@$$CBHPAVfilters@@@std@@PAX@std@@@std@@@std@@SAXAAV?$allocator@U?$_Tree_node@U?$pair@$$CBHPAVfilters@@@std@@PAX@std@@@1@PAPAU?$_Tree_node@U?$pair@$$CBHPAVfilters@@@std@@PAX@1@@Z 0045e460 f i MAIN.obj
 0002:00038480       ??$forward@AAPAU?$_Tree_node@U?$pair@$$CBHPAVfilters@@@std@@PAX@std@@@std@@YAAAPAU?$_Tree_node@U?$pair@$$CBHPAVfilters@@@std@@PAX@0@AAPAU10@@Z 0045e480 f i MAIN.obj
 0002:00038490       ??0?$_List_alloc@$0A@U?$_List_base_types@V?$basic_string@DU?$char_traits@D@std@@V?$allocator@D@2@@std@@V?$allocator@V?$basic_string@DU?$char_traits@D@std@@V?$allocator@D@2@@std@@@2@@std@@@std@@QAE@ABV?$allocator@V?$basic_string@DU?$char_traits@D@std@@V?$allocator@D@2@@std@@@1@@Z 0045e490 f i MAIN.obj
 0002:00038580       ??0?$_List_buy@V?$basic_string@DU?$char_traits@D@std@@V?$allocator@D@2@@std@@V?$allocator@V?$basic_string@DU?$char_traits@D@std@@V?$allocator@D@2@@std@@@2@@std@@QAE@ABV?$allocator@V?$basic_string@DU?$char_traits@D@std@@V?$allocator@D@2@@std@@@1@@Z 0045e580 f i MAIN.obj
 0002:000385c0       ??0?$_List_val@U?$_List_simple_types@V?$basic_string@DU?$char_traits@D@std@@V?$allocator@D@2@@std@@@std@@@std@@QAE@XZ 0045e5c0 f i MAIN.obj
 0002:00038620       ??0?$_Tree@V?$_Tmap_traits@HKU?$less@H@std@@V?$allocator@U?$pair@$$CBHK@std@@@2@$0A@@std@@@std@@QAE@ABU?$less@H@1@ABV?$allocator@U?$pair@$$CBHK@std@@@1@@Z 0045e620 f i MAIN.obj
 0002:00038660       ??0?$_Tree@V?$_Tmap_traits@HPAVfilters@@U?$less@H@std@@V?$allocator@U?$pair@$$CBHPAVfilters@@@std@@@3@$0A@@std@@@std@@QAE@ABU?$less@H@1@ABV?$allocator@U?$pair@$$CBHPAVfilters@@@std@@@1@@Z 0045e660 f i MAIN.obj
 0002:000386a0       ??0?$_Tree_alloc@$0A@U?$_Tree_base_types@U?$pair@$$CBHK@std@@V?$allocator@U?$pair@$$CBHK@std@@@2@@std@@@std@@QAE@ABV?$allocator@U?$pair@$$CBHK@std@@@1@@Z 0045e6a0 f i MAIN.obj
 0002:00038790       ??0?$_Tree_alloc@$0A@U?$_Tree_base_types@U?$pair@$$CBHPAVfilters@@@std@@V?$allocator@U?$pair@$$CBHPAVfilters@@@std@@@2@@std@@@std@@QAE@ABV?$allocator@U?$pair@$$CBHPAVfilters@@@std@@@1@@Z 0045e790 f i MAIN.obj
 0002:00038880       ??0?$_Tree_buy@U?$pair@$$CBHK@std@@V?$allocator@U?$pair@$$CBHK@std@@@2@@std@@QAE@ABV?$allocator@U?$pair@$$CBHK@std@@@1@@Z 0045e880 f i MAIN.obj
 0002:000388c0       ??0?$_Tree_buy@U?$pair@$$CBHPAVfilters@@@std@@V?$allocator@U?$pair@$$CBHPAVfilters@@@std@@@2@@std@@QAE@ABV?$allocator@U?$pair@$$CBHPAVfilters@@@std@@@1@@Z 0045e8c0 f i MAIN.obj
 0002:00038900       ??0?$_Tree_comp@$0A@V?$_Tmap_traits@HKU?$less@H@std@@V?$allocator@U?$pair@$$CBHK@std@@@2@$0A@@std@@@std@@QAE@ABU?$less@H@1@ABV?$allocator@U?$pair@$$CBHK@std@@@1@@Z 0045e900 f i MAIN.obj
 0002:00038940       ??0?$_Tree_comp@$0A@V?$_Tmap_traits@HPAVfilters@@U?$less@H@std@@V?$allocator@U?$pair@$$CBHPAVfilters@@@std@@@3@$0A@@std@@@std@@QAE@ABU?$less@H@1@ABV?$allocator@U?$pair@$$CBHPAVfilters@@@std@@@1@@Z 0045e940 f i MAIN.obj
 0002:00038980       ??0?$_Tree_val@U?$_Tree_simple_types@U?$pair@$$CBHK@std@@@std@@@std@@QAE@XZ 0045e980 f i MAIN.obj
 0002:000389e0       ??0?$_Tree_val@U?$_Tree_simple_types@U?$pair@$$CBHPAVfilters@@@std@@@std@@@std@@QAE@XZ 0045e9e0 f i MAIN.obj
 0002:00038a40       ??0?$allocator@U?$pair@$$CBHK@std@@@std@@QAE@XZ 0045ea40 f i MAIN.obj
 0002:00038a60       ??0?$allocator@U?$pair@$$CBHPAVfilters@@@std@@@std@@QAE@XZ 0045ea60 f i MAIN.obj
 0002:00038a80       ??0?$list@V?$basic_string@DU?$char_traits@D@std@@V?$allocator@D@2@@std@@V?$allocator@V?$basic_string@DU?$char_traits@D@std@@V?$allocator@D@2@@std@@@2@@std@@QAE@XZ 0045ea80 f i MAIN.obj
 0002:00038ad0       ??0?$map@HKU?$less@H@std@@V?$allocator@U?$pair@$$CBHK@std@@@2@@std@@QAE@XZ 0045ead0 f i MAIN.obj
 0002:00038b20       ??0?$map@HPAVfilters@@U?$less@H@std@@V?$allocator@U?$pair@$$CBHPAVfilters@@@std@@@3@@std@@QAE@XZ 0045eb20 f i MAIN.obj
 0002:00038b70       ??0IccClientCallback@@QAE@XZ 0045eb70 f i MAIN.obj
 0002:00038ba0       ??0cciCallbackHelper@@QAE@XZ 0045eba0 f i MAIN.obj
 0002:00038be0       ??1?$_List_alloc@$0A@U?$_List_base_types@V?$basic_string@DU?$char_traits@D@std@@V?$allocator@D@2@@std@@V?$allocator@V?$basic_string@DU?$char_traits@D@std@@V?$allocator@D@2@@std@@@2@@std@@@std@@QAE@XZ 0045ebe0 f i MAIN.obj
 0002:00038c30       ??1?$_List_buy@V?$basic_string@DU?$char_traits@D@std@@V?$allocator@D@2@@std@@V?$allocator@V?$basic_string@DU?$char_traits@D@std@@V?$allocator@D@2@@std@@@2@@std@@QAE@XZ 0045ec30 f i MAIN.obj
 0002:00038c60       ??1?$_List_val@U?$_List_simple_types@V?$basic_string@DU?$char_traits@D@std@@V?$allocator@D@2@@std@@@std@@@std@@QAE@XZ 0045ec60 f i MAIN.obj
 0002:00038ca0       ??1?$_Tree@V?$_Tmap_traits@HKU?$less@H@std@@V?$allocator@U?$pair@$$CBHK@std@@@2@$0A@@std@@@std@@QAE@XZ 0045eca0 f i MAIN.obj
 0002:00038ce0       ??1?$_Tree@V?$_Tmap_traits@HPAVfilters@@U?$less@H@std@@V?$allocator@U?$pair@$$CBHPAVfilters@@@std@@@3@$0A@@std@@@std@@QAE@XZ 0045ece0 f i MAIN.obj
 0002:00038d20       ??1?$_Tree_alloc@$0A@U?$_Tree_base_types@U?$pair@$$CBHK@std@@V?$allocator@U?$pair@$$CBHK@std@@@2@@std@@@std@@QAE@XZ 0045ed20 f i MAIN.obj
 0002:00038d70       ??1?$_Tree_alloc@$0A@U?$_Tree_base_types@U?$pair@$$CBHPAVfilters@@@std@@V?$allocator@U?$pair@$$CBHPAVfilters@@@std@@@2@@std@@@std@@QAE@XZ 0045ed70 f i MAIN.obj
 0002:00038dc0       ??1?$_Tree_buy@U?$pair@$$CBHK@std@@V?$allocator@U?$pair@$$CBHK@std@@@2@@std@@QAE@XZ 0045edc0 f i MAIN.obj
 0002:00038df0       ??1?$_Tree_buy@U?$pair@$$CBHPAVfilters@@@std@@V?$allocator@U?$pair@$$CBHPAVfilters@@@std@@@2@@std@@QAE@XZ 0045edf0 f i MAIN.obj
 0002:00038e20       ??1?$_Tree_comp@$0A@V?$_Tmap_traits@HKU?$less@H@std@@V?$allocator@U?$pair@$$CBHK@std@@@2@$0A@@std@@@std@@QAE@XZ 0045ee20 f i MAIN.obj
 0002:00038e50       ??1?$_Tree_comp@$0A@V?$_Tmap_traits@HPAVfilters@@U?$less@H@std@@V?$allocator@U?$pair@$$CBHPAVfilters@@@std@@@3@$0A@@std@@@std@@QAE@XZ 0045ee50 f i MAIN.obj
 0002:00038e80       ??1?$_Tree_val@U?$_Tree_simple_types@U?$pair@$$CBHK@std@@@std@@@std@@QAE@XZ 0045ee80 f i MAIN.obj
 0002:00038ec0       ??1?$_Tree_val@U?$_Tree_simple_types@U?$pair@$$CBHPAVfilters@@@std@@@std@@@std@@QAE@XZ 0045eec0 f i MAIN.obj
 0002:00038f00       ??1?$list@V?$basic_string@DU?$char_traits@D@std@@V?$allocator@D@2@@std@@V?$allocator@V?$basic_string@DU?$char_traits@D@std@@V?$allocator@D@2@@std@@@2@@std@@QAE@XZ 0045ef00 f i MAIN.obj
 0002:00038f40       ??1?$map@HKU?$less@H@std@@V?$allocator@U?$pair@$$CBHK@std@@@2@@std@@QAE@XZ 0045ef40 f i MAIN.obj
 0002:00038f70       ??1?$map@HPAVfilters@@U?$less@H@std@@V?$allocator@U?$pair@$$CBHPAVfilters@@@std@@@3@@std@@QAE@XZ 0045ef70 f i MAIN.obj
 0002:00038fa0       ??4?$_Iterator012@Ubidirectional_iterator_tag@std@@U?$pair@$$CBHK@2@HPBU32@ABU32@U_Iterator_base12@2@@std@@QAEAAU01@ABU01@@Z 0045efa0 f i MAIN.obj
 0002:00038fe0       ??4?$_Tree_const_iterator@V?$_Tree_val@U?$_Tree_simple_types@U?$pair@$$CBHK@std@@@std@@@std@@@std@@QAEAAV01@ABV01@@Z 0045efe0 f i MAIN.obj
 0002:00039020       ??4?$_Tree_iterator@V?$_Tree_val@U?$_Tree_simple_types@U?$pair@$$CBHK@std@@@std@@@std@@@std@@QAEAAV01@ABV01@@Z 0045f020 f i MAIN.obj
 0002:00039060       ??4?$_Tree_unchecked_const_iterator@V?$_Tree_val@U?$_Tree_simple_types@U?$pair@$$CBHK@std@@@std@@@std@@U_Iterator_base12@2@@std@@QAEAAV01@ABV01@@Z 0045f060 f i MAIN.obj
 0002:000390b0       ??9?$_Tree_const_iterator@V?$_Tree_val@U?$_Tree_simple_types@U?$pair@$$CBHK@std@@@std@@@std@@@std@@QBE_NABV01@@Z 0045f0b0 f i MAIN.obj
 0002:00039110       ??C?$_Tree_iterator@V?$_Tree_val@U?$_Tree_simple_types@U?$pair@$$CBHK@std@@@std@@@std@@@std@@QBEPAU?$pair@$$CBHK@1@XZ 0045f110 f i MAIN.obj
 0002:00039150       ??D?$_Tree_const_iterator@V?$_Tree_val@U?$_Tree_simple_types@U?$pair@$$CBHK@std@@@std@@@std@@@std@@QBEABU?$pair@$$CBHK@1@XZ 0045f150 f i MAIN.obj
 0002:00039270       ??D?$_Tree_iterator@V?$_Tree_val@U?$_Tree_simple_types@U?$pair@$$CBHK@std@@@std@@@std@@@std@@QBEAAU?$pair@$$CBHK@1@XZ 0045f270 f i MAIN.obj
 0002:000392a0       ??E?$_Tree_const_iterator@V?$_Tree_val@U?$_Tree_simple_types@U?$pair@$$CBHK@std@@@std@@@std@@@std@@QAE?AV01@H@Z 0045f2a0 f i MAIN.obj
 0002:000393b0       ??E?$_Tree_const_iterator@V?$_Tree_val@U?$_Tree_simple_types@U?$pair@$$CBHK@std@@@std@@@std@@@std@@QAEAAV01@XZ 0045f3b0 f i MAIN.obj
 0002:000394d0       ??E?$_Tree_const_iterator@V?$_Tree_val@U?$_Tree_simple_types@U?$pair@$$CBHPAVfilters@@@std@@@std@@@std@@@std@@QAE?AV01@H@Z 0045f4d0 f i MAIN.obj
 0002:000395e0       ??E?$_Tree_iterator@V?$_Tree_val@U?$_Tree_simple_types@U?$pair@$$CBHK@std@@@std@@@std@@@std@@QAEAAV01@XZ 0045f5e0 f i MAIN.obj
 0002:00039610       ??E?$_Tree_unchecked_const_iterator@V?$_Tree_val@U?$_Tree_simple_types@U?$pair@$$CBHK@std@@@std@@@std@@U_Iterator_base12@2@@std@@QAEAAV01@XZ 0045f610 f i MAIN.obj
 0002:00039720       ?_Alloc_proxy@?$_List_alloc@$0A@U?$_List_base_types@V?$basic_string@DU?$char_traits@D@std@@V?$allocator@D@2@@std@@V?$allocator@V?$basic_string@DU?$char_traits@D@std@@V?$allocator@D@2@@std@@@2@@std@@@std@@QAEXXZ 0045f720 f i MAIN.obj
 0002:000397e0       ?_Alloc_proxy@?$_Tree_alloc@$0A@U?$_Tree_base_types@U?$pair@$$CBHK@std@@V?$allocator@U?$pair@$$CBHK@std@@@2@@std@@@std@@QAEXXZ 0045f7e0 f i MAIN.obj
 0002:000398b0       ?_Alloc_proxy@?$_Tree_alloc@$0A@U?$_Tree_base_types@U?$pair@$$CBHPAVfilters@@@std@@V?$allocator@U?$pair@$$CBHPAVfilters@@@std@@@2@@std@@@std@@QAEXXZ 0045f8b0 f i MAIN.obj
 0002:00039980       ?_Buyheadnode@?$_List_alloc@$0A@U?$_List_base_types@V?$basic_string@DU?$char_traits@D@std@@V?$allocator@D@2@@std@@V?$allocator@V?$basic_string@DU?$char_traits@D@std@@V?$allocator@D@2@@std@@@2@@std@@@std@@QAEPAU?$_List_node@V?$basic_string@DU?$char_traits@D@std@@V?$allocator@D@2@@std@@PAX@2@XZ 0045f980 f i MAIN.obj
 0002:000399c0       ?_Buyheadnode@?$_Tree_alloc@$0A@U?$_Tree_base_types@U?$pair@$$CBHK@std@@V?$allocator@U?$pair@$$CBHK@std@@@2@@std@@@std@@QAEPAU?$_Tree_node@U?$pair@$$CBHK@std@@PAX@2@XZ 0045f9c0 f i MAIN.obj
 0002:00039bd0       ?_Buyheadnode@?$_Tree_alloc@$0A@U?$_Tree_base_types@U?$pair@$$CBHPAVfilters@@@std@@V?$allocator@U?$pair@$$CBHPAVfilters@@@std@@@2@@std@@@std@@QAEPAU?$_Tree_node@U?$pair@$$CBHPAVfilters@@@std@@PAX@2@XZ 0045fbd0 f i MAIN.obj
 0002:00039de0       ?_Erase@?$_Tree@V?$_Tmap_traits@HKU?$less@H@std@@V?$allocator@U?$pair@$$CBHK@std@@@2@$0A@@std@@@std@@IAEXPAU?$_Tree_node@U?$pair@$$CBHK@std@@PAX@2@@Z 0045fde0 f i MAIN.obj
 0002:00039ed0       ?_Erase@?$_Tree@V?$_Tmap_traits@HPAVfilters@@U?$less@H@std@@V?$allocator@U?$pair@$$CBHPAVfilters@@@std@@@3@$0A@@std@@@std@@IAEXPAU?$_Tree_node@U?$pair@$$CBHPAVfilters@@@std@@PAX@2@@Z 0045fed0 f i MAIN.obj
 0002:00039fc0       ?_Free_proxy@?$_List_alloc@$0A@U?$_List_base_types@V?$basic_string@DU?$char_traits@D@std@@V?$allocator@D@2@@std@@V?$allocator@V?$basic_string@DU?$char_traits@D@std@@V?$allocator@D@2@@std@@@2@@std@@@std@@QAEXXZ 0045ffc0 f i MAIN.obj
 0002:0003a080       ?_Free_proxy@?$_Tree_alloc@$0A@U?$_Tree_base_types@U?$pair@$$CBHK@std@@V?$allocator@U?$pair@$$CBHK@std@@@2@@std@@@std@@QAEXXZ 00460080 f i MAIN.obj
 0002:0003a160       ?_Free_proxy@?$_Tree_alloc@$0A@U?$_Tree_base_types@U?$pair@$$CBHPAVfilters@@@std@@V?$allocator@U?$pair@$$CBHPAVfilters@@@std@@@2@@std@@@std@@QAEXXZ 00460160 f i MAIN.obj
 0002:0003a240       ?_Freeheadnode@?$_List_alloc@$0A@U?$_List_base_types@V?$basic_string@DU?$char_traits@D@std@@V?$allocator@D@2@@std@@V?$allocator@V?$basic_string@DU?$char_traits@D@std@@V?$allocator@D@2@@std@@@2@@std@@@std@@QAEXPAU?$_List_node@V?$basic_string@DU?$char_traits@D@std@@V?$allocator@D@2@@std@@PAX@2@@Z 00460240 f i MAIN.obj
 0002:0003a300       ?_Freeheadnode@?$_Tree_alloc@$0A@U?$_Tree_base_types@U?$pair@$$CBHK@std@@V?$allocator@U?$pair@$$CBHK@std@@@2@@std@@@std@@QAEXPAU?$_Tree_node@U?$pair@$$CBHK@std@@PAX@2@@Z 00460300 f i MAIN.obj
 0002:0003a3f0       ?_Freeheadnode@?$_Tree_alloc@$0A@U?$_Tree_base_types@U?$pair@$$CBHPAVfilters@@@std@@V?$allocator@U?$pair@$$CBHPAVfilters@@@std@@@2@@std@@@std@@QAEXPAU?$_Tree_node@U?$pair@$$CBHPAVfilters@@@std@@PAX@2@@Z 004603f0 f i MAIN.obj
 0002:0003a4e0       ?_Min@?$_Tree_val@U?$_Tree_simple_types@U?$pair@$$CBHK@std@@@std@@@std@@SAPAU?$_Tree_node@U?$pair@$$CBHK@std@@PAX@2@PAU32@@Z 004604e0 f i MAIN.obj
 0002:0003a530       ?_Orphan_ptr@?$_Tree@V?$_Tmap_traits@HKU?$less@H@std@@V?$allocator@U?$pair@$$CBHK@std@@@2@$0A@@std@@@std@@IBEXAAV12@PAU?$_Tree_node@U?$pair@$$CBHK@std@@PAX@2@@Z 00460530 f i MAIN.obj
 0002:0003a6b0       ?_Tidy@?$_Tree@V?$_Tmap_traits@HKU?$less@H@std@@V?$allocator@U?$pair@$$CBHK@std@@@2@$0A@@std@@@std@@IAEXXZ 004606b0 f i MAIN.obj
 0002:0003a7e0       ?_Tidy@?$_Tree@V?$_Tmap_traits@HPAVfilters@@U?$less@H@std@@V?$allocator@U?$pair@$$CBHPAVfilters@@@std@@@3@$0A@@std@@@std@@IAEXXZ 004607e0 f i MAIN.obj
 0002:0003a910       ?_Tidy@?$list@V?$basic_string@DU?$char_traits@D@std@@V?$allocator@D@2@@std@@V?$allocator@V?$basic_string@DU?$char_traits@D@std@@V?$allocator@D@2@@std@@@2@@std@@QAEXXZ 00460910 f i MAIN.obj
 0002:0003a940       ?allocate@?$_Wrap_alloc@V?$allocator@U?$_Tree_node@U?$pair@$$CBHPAVfilters@@@std@@PAX@std@@@std@@@std@@QAEPAU?$_Tree_node@U?$pair@$$CBHPAVfilters@@@std@@PAX@2@I@Z 00460940 f i MAIN.obj
 0002:0003a980       ?allocate@?$allocator@U?$_Tree_node@U?$pair@$$CBHPAVfilters@@@std@@PAX@std@@@std@@QAEPAU?$_Tree_node@U?$pair@$$CBHPAVfilters@@@std@@PAX@2@I@Z 00460980 f i MAIN.obj
 0002:0003a9c0       ?cccConfigChangeMessage@IccClientCallback@@MAEXABV?$basic_string@DU?$char_traits@D@std@@V?$allocator@D@2@@std@@@Z 004609c0 f i MAIN.obj
 0002:0003a9e0       ?cccConnected@IccClientCallback@@MAEXXZ 004609e0 f i MAIN.obj
 0002:0003aa00       ?cccConnected@cciCallbackHelper@@MAEXXZ 00460a00 f i MAIN.obj
 0002:0003aa20       ?cccDatabaseChange@IccClientCallback@@MAEXHHH@Z 00460a20 f i MAIN.obj
 0002:0003aa40       ?cccDatabaseChange@cciCallbackHelper@@MAEXHHH@Z 00460a40 f i MAIN.obj
 0002:0003aa60       ?cccDeviceMessage@IccClientCallback@@MAEXHHABV?$basic_string@DU?$char_traits@D@std@@V?$allocator@D@2@@std@@H@Z 00460a60 f i MAIN.obj
 0002:0003aa80       ?cccDeviceMessage@cciCallbackHelper@@MAEXHHABV?$basic_string@DU?$char_traits@D@std@@V?$allocator@D@2@@std@@H@Z 00460a80 f i MAIN.obj
 0002:0003aaa0       ?cccDeviceMode@IccClientCallback@@MAEXHHW4redundancyState@cc@@@Z 00460aa0 f i MAIN.obj
 0002:0003aac0       ?cccDeviceMode@cciCallbackHelper@@MAEXHHW4redundancyState@cc@@@Z 00460ac0 f i MAIN.obj
 0002:0003aae0       ?cccDisconnected@IccClientCallback@@MAEXXZ 00460ae0 f i MAIN.obj
 0002:0003ab00       ?cccDisconnected@cciCallbackHelper@@MAEXXZ 00460b00 f i MAIN.obj
 0002:0003ab20       ?cccGpiRevertive@IccClientCallback@@MAEXHH_N@Z 00460b20 f i MAIN.obj
 0002:0003ab40       ?cccGpiRevertive@cciCallbackHelper@@MAEXHH_N@Z 00460b40 f i MAIN.obj
 0002:0003ab60       ?cccInfoRevertive@IccClientCallback@@MAEXHHABV?$basic_string@DU?$char_traits@D@std@@V?$allocator@D@2@@std@@@Z 00460b60 f i MAIN.obj
 0002:0003ab80       ?cccInfoRevertive@cciCallbackHelper@@MAEXHHABV?$basic_string@DU?$char_traits@D@std@@V?$allocator@D@2@@std@@@Z 00460b80 f i MAIN.obj
 0002:0003adb0       ?cccPollError@IccClientCallback@@MAEXHH@Z 00460db0 f i MAIN.obj
 0002:0003add0       ?cccPollError@cciCallbackHelper@@MAEXHH@Z 00460dd0 f i MAIN.obj
 0002:0003adf0       ?cccRtrRevertive@IccClientCallback@@MAEXHHH@Z 00460df0 f i MAIN.obj
 0002:0003ae10       ?cccRtrRevertive@cciCallbackHelper@@MAEXHHH@Z 00460e10 f i MAIN.obj
 0002:0003ae30       ?cccSerialNumberError@IccClientCallback@@MAEXHH@Z 00460e30 f i MAIN.obj
 0002:0003ae50       ?cccSerialNumberError@cciCallbackHelper@@MAEXHH@Z 00460e50 f i MAIN.obj
 0002:0003ae70       ?clear@?$_Tree@V?$_Tmap_traits@HKU?$less@H@std@@V?$allocator@U?$pair@$$CBHK@std@@@2@$0A@@std@@@std@@QAEXXZ 00460e70 f i MAIN.obj
 0002:0003af10       ?clear@?$_Tree@V?$_Tmap_traits@HPAVfilters@@U?$less@H@std@@V?$allocator@U?$pair@$$CBHPAVfilters@@@std@@@3@$0A@@std@@@std@@QAEXXZ 00460f10 f i MAIN.obj
 0002:0003afb0       ?clear@?$list@V?$basic_string@DU?$char_traits@D@std@@V?$allocator@D@2@@std@@V?$allocator@V?$basic_string@DU?$char_traits@D@std@@V?$allocator@D@2@@std@@@2@@std@@QAEXXZ 00460fb0 f i MAIN.obj
 0002:0003b0a0       ?erase@?$_Tree@V?$_Tmap_traits@HKU?$less@H@std@@V?$allocator@U?$pair@$$CBHK@std@@@2@$0A@@std@@@std@@QAE?AV?$_Tree_iterator@V?$_Tree_val@U?$_Tree_simple_types@U?$pair@$$CBHK@std@@@std@@@std@@@2@V?$_Tree_const_iterator@V?$_Tree_val@U?$_Tree_simple_types@U?$pair@$$CBHK@std@@@std@@@std@@@2@0@Z 004610a0 f i MAIN.obj
 0002:0003b320       ?erase@?$_Tree@V?$_Tmap_traits@HKU?$less@H@std@@V?$allocator@U?$pair@$$CBHK@std@@@2@$0A@@std@@@std@@QAE?AV?$_Tree_iterator@V?$_Tree_val@U?$_Tree_simple_types@U?$pair@$$CBHK@std@@@std@@@std@@@2@V?$_Tree_const_iterator@V?$_Tree_val@U?$_Tree_simple_types@U?$pair@$$CBHK@std@@@std@@@std@@@2@@Z 00461320 f i MAIN.obj
 0002:0003bd80       ?erase@?$_Tree@V?$_Tmap_traits@HPAVfilters@@U?$less@H@std@@V?$allocator@U?$pair@$$CBHPAVfilters@@@std@@@3@$0A@@std@@@std@@QAE?AV?$_Tree_iterator@V?$_Tree_val@U?$_Tree_simple_types@U?$pair@$$CBHPAVfilters@@@std@@@std@@@std@@@2@V?$_Tree_const_iterator@V?$_Tree_val@U?$_Tree_simple_types@U?$pair@$$CBHPAVfilters@@@std@@@std@@@std@@@2@0@Z 00461d80 f i MAIN.obj
 0002:0003c000       ?pointer_to@?$pointer_traits@PAU?$pair@$$CBHK@std@@@std@@SAPAU?$pair@$$CBHK@2@AAU32@@Z 00462000 f i MAIN.obj
 0002:0003c020       ?setValue@filters@@QAE_NAAV?$basic_string@DU?$char_traits@D@std@@V?$allocator@D@2@@std@@@Z 00462020 f i MAIN.obj
 0002:0003c210       ?strstr@@YAPADPADPBD@Z     00462210 f i MAIN.obj
 0002:0003c250       ?Memory_Init@@YAXXZ        00462250 f   MEMORY.obj
 0002:0003c710       ?Memory_Closedown@@YAXXZ   00462710 f   MEMORY.obj
 0002:0003c760       ?Memory_InfoWrite@@YAXHHPAD@Z 00462760 f   MEMORY.obj
 0002:0003c7e0       ?Memory_InfoRead@@YAXHPAD@Z 004627e0 f   MEMORY.obj
 0002:0003c860       ?Memory_FlushDatFiles@@YAXXZ 00462860 f   MEMORY.obj
 0002:0003cac0       ?NetCmd_Parse@@YAHPAD@Z    00462ac0 f   NETCMD.obj
 0002:0003cee0       ?Parser_Parse@@YAXPAD@Z    00462ee0 f   PARSER.obj
 0002:0003d000       ?Prfu_Init@@YAXXZ          00463000 f   PRFU.obj
 0002:0003d1e0       ?Prfu_PrintBuffer@@YAXXZ   004631e0 f   PRFU.obj
 0002:0003d330       ?Prfu_ClearBuffer@@YAXXZ   00463330 f   PRFU.obj
 0002:0003d380       ?Prfu_Closedown@@YAXXZ     00463380 f   PRFU.obj
 0002:0003d490       ?Prof_Init@@YAXXZ          00463490 f   PROF.obj
 0002:0003dee0       ?Prof_GrantAccess@@YAXH@Z  00463ee0 f   PROF.obj
 0002:0003df10       ?Prof_GetVersionInfo@@YAXXZ 00463f10 f   PROF.obj
 0002:0003e0d0       ?Prof_AddFilterEntry@@YA_NHPBD@Z 004640d0 f   PROF.obj
 0002:0003e440       ?Prof_WriteFilterConfig@@YAXXZ 00464440 f   PROF.obj
 0002:0003e640       ?myFilterSetHasEntry@@YA_NPBD@Z 00464640 f   PROF.obj
 0002:0003ec40       ??$?0AAHAAPAVfilters@@X@?$pair@HPAVfilters@@@std@@QAE@AAHAAPAVfilters@@@Z 00464c40 f i PROF.obj
 0002:0003eca0       ??$?0AAV?$_Tree_iterator@V?$_Tree_val@U?$_Tree_simple_types@U?$pair@$$CBHPAVfilters@@@std@@@std@@@std@@@std@@_NX@?$pair@V?$_Tree_iterator@V?$_Tree_val@U?$_Tree_simple_types@U?$pair@$$CBHPAVfilters@@@std@@@std@@@std@@@std@@_N@std@@QAE@AAV?$_Tree_iterator@V?$_Tree_val@U?$_Tree_simple_types@U?$pair@$$CBHPAVfilters@@@std@@@std@@@std@@@1@$$QA_N@Z 00464ca0 f i PROF.obj
 0002:0003ed50       ??$?0HAAPAVfilters@@X@?$pair@HPAVfilters@@@std@@QAE@$$QAHAAPAVfilters@@@Z 00464d50 f i PROF.obj
 0002:0003edb0       ??$?0HPAVfilters@@X@?$pair@$$CBHPAVfilters@@@std@@QAE@$$QAU?$pair@HPAVfilters@@@1@@Z 00464db0 f i PROF.obj
 0002:0003ee10       ??$?0V?$_Tree_iterator@V?$_Tree_val@U?$_Tree_simple_types@U?$pair@$$CBHPAVfilters@@@std@@@std@@@std@@@std@@_NX@?$pair@V?$_Tree_iterator@V?$_Tree_val@U?$_Tree_simple_types@U?$pair@$$CBHPAVfilters@@@std@@@std@@@std@@@std@@_N@std@@QAE@$$QAV?$_Tree_iterator@V?$_Tree_val@U?$_Tree_simple_types@U?$pair@$$CBHPAVfilters@@@std@@@std@@@std@@@1@$$QA_N@Z 00464e10 f i PROF.obj
 0002:0003eec0       ??$?HDU?$char_traits@D@std@@V?$allocator@D@1@@std@@YA?AV?$basic_string@DU?$char_traits@D@std@@V?$allocator@D@2@@0@$$QAV10@0@Z 00464ec0 f i PROF.obj
 0002:0003efb0       ??$?HDU?$char_traits@D@std@@V?$allocator@D@1@@std@@YA?AV?$basic_string@DU?$char_traits@D@std@@V?$allocator@D@2@@0@PBD$$QAV10@@Z 00464fb0 f i PROF.obj
 0002:0003f010       ??$_Allocate@U?$_List_node@PAVfilterBase@@PAX@std@@@std@@YAPAU?$_List_node@PAVfilterBase@@PAX@0@IPAU10@@Z 00465010 f i PROF.obj
 0002:0003f090       ??$_Buynode@ABQAVfilterBase@@@?$_List_buy@PAVfilterBase@@V?$allocator@PAVfilterBase@@@std@@@std@@QAEPAU?$_List_node@PAVfilterBase@@PAX@1@PAU21@0ABQAVfilterBase@@@Z 00465090 f i PROF.obj
 0002:0003f1e0       ??$_Buynode@U?$pair@HPAVfilters@@@std@@@?$_Tree_buy@U?$pair@$$CBHPAVfilters@@@std@@V?$allocator@U?$pair@$$CBHPAVfilters@@@std@@@2@@std@@QAEPAU?$_Tree_node@U?$pair@$$CBHPAVfilters@@@std@@PAX@1@$$QAU?$pair@HPAVfilters@@@1@@Z 004651e0 f i PROF.obj
 0002:0003f330       ??$_Buynode_if_nil@AAU?$pair@$$CBHPAVfilters@@@std@@@?$_Tree@V?$_Tmap_traits@HPAVfilters@@U?$less@H@std@@V?$allocator@U?$pair@$$CBHPAVfilters@@@std@@@3@$0A@@std@@@std@@IAEPAU?$_Tree_node@U?$pair@$$CBHPAVfilters@@@std@@PAX@1@PAU21@AAU?$pair@$$CBHPAVfilters@@@1@@Z 00465330 f i PROF.obj
 0002:0003f350       ??$_Insert@ABQAVfilterBase@@@?$list@PAVfilterBase@@V?$allocator@PAVfilterBase@@@std@@@std@@QAEXV?$_List_unchecked_const_iterator@V?$_List_val@U?$_List_simple_types@PAVfilterBase@@@std@@@std@@U_Iterator_base0@2@@1@ABQAVfilterBase@@@Z 00465350 f i PROF.obj
 0002:0003f420       ??$_Insert_at@AAU?$pair@$$CBHPAVfilters@@@std@@PAU?$_Tree_node@U?$pair@$$CBHPAVfilters@@@std@@PAX@2@@?$_Tree@V?$_Tmap_traits@HPAVfilters@@U?$less@H@std@@V?$allocator@U?$pair@$$CBHPAVfilters@@@std@@@3@$0A@@std@@@std@@IAE?AV?$_Tree_iterator@V?$_Tree_val@U?$_Tree_simple_types@U?$pair@$$CBHPAVfilters@@@std@@@std@@@std@@@1@_NPAU?$_Tree_node@U?$pair@$$CBHPAVfilters@@@std@@PAX@1@AAU?$pair@$$CBHPAVfilters@@@1@1@Z 00465420 f i PROF.obj
 0002:0003f990       ??$_Insert_nohint@AAU?$pair@$$CBHPAVfilters@@@std@@PAU?$_Tree_node@U?$pair@$$CBHPAVfilters@@@std@@PAX@2@@?$_Tree@V?$_Tmap_traits@HPAVfilters@@U?$less@H@std@@V?$allocator@U?$pair@$$CBHPAVfilters@@@std@@@3@$0A@@std@@@std@@IAE?AU?$pair@V?$_Tree_iterator@V?$_Tree_val@U?$_Tree_simple_types@U?$pair@$$CBHPAVfilters@@@std@@@std@@@std@@@std@@_N@1@_NAAU?$pair@$$CBHPAVfilters@@@1@PAU?$_Tree_node@U?$pair@$$CBHPAVfilters@@@std@@PAX@1@@Z 00465990 f i PROF.obj
 0002:00040050       ??$construct@PAU?$_List_node@PAVfilterBase@@PAX@std@@AAPAU12@@?$_Wrap_alloc@V?$allocator@U?$_List_node@PAVfilterBase@@PAX@std@@@std@@@std@@QAEXPAPAU?$_List_node@PAVfilterBase@@PAX@1@AAPAU21@@Z 00466050 f i PROF.obj
 0002:000400a0       ??$construct@PAU?$_List_node@PAVfilterBase@@PAX@std@@AAPAU12@@?$allocator@U?$_List_node@PAVfilterBase@@PAX@std@@@std@@QAEXPAPAU?$_List_node@PAVfilterBase@@PAX@1@AAPAU21@@Z 004660a0 f i PROF.obj
 0002:00040170       ??$construct@PAU?$_List_node@PAVfilterBase@@PAX@std@@AAPAU12@@?$allocator_traits@V?$allocator@U?$_List_node@PAVfilterBase@@PAX@std@@@std@@@std@@SAXAAV?$allocator@U?$_List_node@PAVfilterBase@@PAX@std@@@1@PAPAU?$_List_node@PAVfilterBase@@PAX@1@AAPAU31@@Z 00466170 f i PROF.obj
 0002:000401a0       ??$construct@PAVfilterBase@@ABQAV1@@?$_Wrap_alloc@V?$allocator@U?$_List_node@PAVfilterBase@@PAX@std@@@std@@@std@@QAEXPAPAVfilterBase@@ABQAV2@@Z 004661a0 f i PROF.obj
 0002:000401f0       ??$construct@PAVfilterBase@@ABQAV1@@?$allocator@U?$_List_node@PAVfilterBase@@PAX@std@@@std@@QAEXPAPAVfilterBase@@ABQAV2@@Z 004661f0 f i PROF.obj
 0002:000402c0       ??$construct@PAVfilterBase@@ABQAV1@@?$allocator_traits@V?$allocator@U?$_List_node@PAVfilterBase@@PAX@std@@@std@@@std@@SAXAAV?$allocator@U?$_List_node@PAVfilterBase@@PAX@std@@@1@PAPAVfilterBase@@ABQAV3@@Z 004662c0 f i PROF.obj
 0002:000402f0       ??$construct@U?$pair@$$CBHPAVfilters@@@std@@U?$pair@HPAVfilters@@@2@@?$_Wrap_alloc@V?$allocator@U?$_Tree_node@U?$pair@$$CBHPAVfilters@@@std@@PAX@std@@@std@@@std@@QAEXPAU?$pair@$$CBHPAVfilters@@@1@$$QAU?$pair@HPAVfilters@@@1@@Z 004662f0 f i PROF.obj
 0002:00040340       ??$construct@U?$pair@$$CBHPAVfilters@@@std@@U?$pair@HPAVfilters@@@2@@?$allocator@U?$_Tree_node@U?$pair@$$CBHPAVfilters@@@std@@PAX@std@@@std@@QAEXPAU?$pair@$$CBHPAVfilters@@@1@$$QAU?$pair@HPAVfilters@@@1@@Z 00466340 f i PROF.obj
 0002:00040410       ??$construct@U?$pair@$$CBHPAVfilters@@@std@@U?$pair@HPAVfilters@@@2@@?$allocator_traits@V?$allocator@U?$_Tree_node@U?$pair@$$CBHPAVfilters@@@std@@PAX@std@@@std@@@std@@SAXAAV?$allocator@U?$_Tree_node@U?$pair@$$CBHPAVfilters@@@std@@PAX@std@@@1@PAU?$pair@$$CBHPAVfilters@@@1@$$QAU?$pair@HPAVfilters@@@1@@Z 00466410 f i PROF.obj
 0002:00040440       ??$forward@AAPAU?$_List_node@PAVfilterBase@@PAX@std@@@std@@YAAAPAU?$_List_node@PAVfilterBase@@PAX@0@AAPAU10@@Z 00466440 f i PROF.obj
 0002:00040450       ??$forward@AAPAVfilters@@@std@@YAAAPAVfilters@@AAPAV1@@Z 00466450 f i PROF.obj
 0002:00040460       ??$forward@AAU?$pair@$$CBHPAVfilters@@@std@@@std@@YAAAU?$pair@$$CBHPAVfilters@@@0@AAU10@@Z 00466460 f i PROF.obj
 0002:00040470       ??$forward@AAV?$_Tree_iterator@V?$_Tree_val@U?$_Tree_simple_types@U?$pair@$$CBHPAVfilters@@@std@@@std@@@std@@@std@@@std@@YAAAV?$_Tree_iterator@V?$_Tree_val@U?$_Tree_simple_types@U?$pair@$$CBHPAVfilters@@@std@@@std@@@std@@@0@AAV10@@Z 00466470 f i PROF.obj
 0002:00040480       ??$forward@ABQAVfilterBase@@@std@@YAABQAVfilterBase@@ABQAV1@@Z 00466480 f i PROF.obj
 0002:00040490       ??$forward@PAVfilters@@@std@@YA$$QAPAVfilters@@AAPAV1@@Z 00466490 f i PROF.obj
 0002:000404a0       ??$forward@U?$pair@HPAVfilters@@@std@@@std@@YA$$QAU?$pair@HPAVfilters@@@0@AAU10@@Z 004664a0 f i PROF.obj
 0002:000404b0       ??$forward@V?$_Tree_iterator@V?$_Tree_val@U?$_Tree_simple_types@U?$pair@$$CBHPAVfilters@@@std@@@std@@@std@@@std@@@std@@YA$$QAV?$_Tree_iterator@V?$_Tree_val@U?$_Tree_simple_types@U?$pair@$$CBHPAVfilters@@@std@@@std@@@std@@@0@AAV10@@Z 004664b0 f i PROF.obj
 0002:000404c0       ??$insert@U?$pair@HPAVfilters@@@std@@@?$_Tree@V?$_Tmap_traits@HPAVfilters@@U?$less@H@std@@V?$allocator@U?$pair@$$CBHPAVfilters@@@std@@@3@$0A@@std@@@std@@QAE?AU?$pair@V?$_Tree_iterator@V?$_Tree_val@U?$_Tree_simple_types@U?$pair@$$CBHPAVfilters@@@std@@@std@@@std@@@std@@_N@1@$$QAU?$pair@HPAVfilters@@@1@@Z 004664c0 f i PROF.obj
 0002:00040560       ??$make_pair@AAHAAPAVfilters@@@std@@YA?AU?$pair@HPAVfilters@@@0@AAHAAPAVfilters@@@Z 00466560 f i PROF.obj
 0002:000405a0       ??$make_pair@HAAPAVfilters@@@std@@YA?AU?$pair@HPAVfilters@@@0@$$QAHAAPAVfilters@@@Z 004665a0 f i PROF.obj
 0002:000405e0       ??0?$_List_alloc@$0A@U?$_List_base_types@PAVfilterBase@@V?$allocator@PAVfilterBase@@@std@@@std@@@std@@QAE@ABV?$allocator@PAVfilterBase@@@1@@Z 004665e0 f i PROF.obj
 0002:000406d0       ??0?$_List_buy@PAVfilterBase@@V?$allocator@PAVfilterBase@@@std@@@std@@QAE@ABV?$allocator@PAVfilterBase@@@1@@Z 004666d0 f i PROF.obj
 0002:00040710       ??0?$_List_unchecked_const_iterator@V?$_List_val@U?$_List_simple_types@PAVfilterBase@@@std@@@std@@U_Iterator_base0@2@@std@@QAE@PAU?$_List_node@PAVfilterBase@@PAX@1@PBV?$_List_val@U?$_List_simple_types@PAVfilterBase@@@std@@@1@@Z 00466710 f i PROF.obj
 0002:00040760       ??0?$_List_unchecked_iterator@V?$_List_val@U?$_List_simple_types@PAVfilterBase@@@std@@@std@@@std@@QAE@PAU?$_List_node@PAVfilterBase@@PAX@1@PBV?$_List_val@U?$_List_simple_types@PAVfilterBase@@@std@@@1@@Z 00466760 f i PROF.obj
 0002:000407a0       ??0?$_List_val@U?$_List_simple_types@PAVfilterBase@@@std@@@std@@QAE@XZ 004667a0 f i PROF.obj
 0002:00040800       ??0?$allocator@PAVfilterBase@@@std@@QAE@XZ 00466800 f i PROF.obj
 0002:00040820       ??0?$filterAverage@H@@QAE@ABV?$basic_string@DU?$char_traits@D@std@@V?$allocator@D@2@@std@@H0@Z 00466820 f i PROF.obj
 0002:00040930       ??0?$filterAverage@I@@QAE@ABV?$basic_string@DU?$char_traits@D@std@@V?$allocator@D@2@@std@@H0@Z 00466930 f i PROF.obj
 0002:00040a40       ??0?$filterAverage@N@@QAE@ABV?$basic_string@DU?$char_traits@D@std@@V?$allocator@D@2@@std@@H0@Z 00466a40 f i PROF.obj
 0002:00040b50       ??0?$filterWindow@H@@QAE@ABV?$basic_string@DU?$char_traits@D@std@@V?$allocator@D@2@@std@@H@Z 00466b50 f i PROF.obj
 0002:00040e30       ??0?$filterWindow@I@@QAE@ABV?$basic_string@DU?$char_traits@D@std@@V?$allocator@D@2@@std@@I@Z 00466e30 f i PROF.obj
 0002:00041110       ??0?$filterWindow@N@@QAE@ABV?$basic_string@DU?$char_traits@D@std@@V?$allocator@D@2@@std@@N@Z 00467110 f i PROF.obj
 0002:00041410       ??0?$list@PAVfilterBase@@V?$allocator@PAVfilterBase@@@std@@@std@@QAE@XZ 00467410 f i PROF.obj
 0002:00041460       ??0filterBase@@QAE@ABV?$basic_string@DU?$char_traits@D@std@@V?$allocator@D@2@@std@@@Z 00467460 f i PROF.obj
 0002:00041500       ??0filterBlock@@QAE@ABV?$basic_string@DU?$char_traits@D@std@@V?$allocator@D@2@@std@@@Z 00467500 f i PROF.obj
 0002:00041550       ??0filterChange@@QAE@ABV?$basic_string@DU?$char_traits@D@std@@V?$allocator@D@2@@std@@@Z 00467550 f i PROF.obj
 0002:000415f0       ??0filters@@QAE@XZ         004675f0 f i PROF.obj
 0002:00041650       ??1?$_List_alloc@$0A@U?$_List_base_types@PAVfilterBase@@V?$allocator@PAVfilterBase@@@std@@@std@@@std@@QAE@XZ 00467650 f i PROF.obj
 0002:000416a0       ??1?$_List_buy@PAVfilterBase@@V?$allocator@PAVfilterBase@@@std@@@std@@QAE@XZ 004676a0 f i PROF.obj
 0002:000416d0       ??1?$_List_val@U?$_List_simple_types@PAVfilterBase@@@std@@@std@@QAE@XZ 004676d0 f i PROF.obj
 0002:00041710       ??1?$filterAverage@H@@UAE@XZ 00467710 f i PROF.obj
 0002:00041780       ??1?$filterAverage@I@@UAE@XZ 00467780 f i PROF.obj
 0002:000417f0       ??1?$filterAverage@N@@UAE@XZ 004677f0 f i PROF.obj
 0002:00041860       ??1?$filterWindow@H@@UAE@XZ 00467860 f i PROF.obj
 0002:000418a0       ??1?$filterWindow@I@@UAE@XZ 004678a0 f i PROF.obj
 0002:000418e0       ??1?$filterWindow@N@@UAE@XZ 004678e0 f i PROF.obj
 0002:00041920       ??1?$list@PAVfilterBase@@V?$allocator@PAVfilterBase@@@std@@@std@@QAE@XZ 00467920 f i PROF.obj
 0002:00041960       ??1?$pair@V?$_Tree_iterator@V?$_Tree_val@U?$_Tree_simple_types@U?$pair@$$CBHPAVfilters@@@std@@@std@@@std@@@std@@_N@std@@QAE@XZ 00467960 f i PROF.obj
 0002:00041990       ??1filterBase@@UAE@XZ      00467990 f i PROF.obj
 0002:000419d0       ??1filterBlock@@UAE@XZ     004679d0 f i PROF.obj
 0002:00041a00       ??1filterChange@@UAE@XZ    00467a00 f i PROF.obj
 0002:00041a40       ??1filters@@UAE@XZ         00467a40 f i PROF.obj
 0002:00041c30       ??F?$_Tree_const_iterator@V?$_Tree_val@U?$_Tree_simple_types@U?$pair@$$CBHPAVfilters@@@std@@@std@@@std@@@std@@QAEAAV01@XZ 00467c30 f i PROF.obj
 0002:00041e00       ??F?$_Tree_iterator@V?$_Tree_val@U?$_Tree_simple_types@U?$pair@$$CBHPAVfilters@@@std@@@std@@@std@@@std@@QAEAAV01@XZ 00467e00 f i PROF.obj
 0002:00041e30       ??F?$_Tree_unchecked_const_iterator@V?$_Tree_val@U?$_Tree_simple_types@U?$pair@$$CBHPAVfilters@@@std@@@std@@@std@@U_Iterator_base12@2@@std@@QAEAAV01@XZ 00467e30 f i PROF.obj
 0002:00041f80       ??_E?$filterAverage@H@@UAEPAXI@Z 00467f80 f i PROF.obj
 0002:00041f80       ??_G?$filterAverage@H@@UAEPAXI@Z 00467f80 f i PROF.obj
 0002:00041fd0       ??_E?$filterAverage@I@@UAEPAXI@Z 00467fd0 f i PROF.obj
 0002:00041fd0       ??_G?$filterAverage@I@@UAEPAXI@Z 00467fd0 f i PROF.obj
 0002:00042020       ??_G?$filterAverage@N@@UAEPAXI@Z 00468020 f i PROF.obj
 0002:00042020       ??_E?$filterAverage@N@@UAEPAXI@Z 00468020 f i PROF.obj
 0002:00042070       ??_G?$filterWindow@H@@UAEPAXI@Z 00468070 f i PROF.obj
 0002:00042070       ??_E?$filterWindow@H@@UAEPAXI@Z 00468070 f i PROF.obj
 0002:000420c0       ??_E?$filterWindow@I@@UAEPAXI@Z 004680c0 f i PROF.obj
 0002:000420c0       ??_G?$filterWindow@I@@UAEPAXI@Z 004680c0 f i PROF.obj
 0002:00042110       ??_E?$filterWindow@N@@UAEPAXI@Z 00468110 f i PROF.obj
 0002:00042110       ??_G?$filterWindow@N@@UAEPAXI@Z 00468110 f i PROF.obj
 0002:00042160       ??_EfilterBase@@UAEPAXI@Z  00468160 f i PROF.obj
 0002:00042160       ??_GfilterBase@@UAEPAXI@Z  00468160 f i PROF.obj
 0002:000421b0       ??_GfilterBlock@@UAEPAXI@Z 004681b0 f i PROF.obj
 0002:000421b0       ??_EfilterBlock@@UAEPAXI@Z 004681b0 f i PROF.obj
 0002:00042200       ??_GfilterChange@@UAEPAXI@Z 00468200 f i PROF.obj
 0002:00042200       ??_EfilterChange@@UAEPAXI@Z 00468200 f i PROF.obj
 0002:00042250       ??_Efilters@@UAEPAXI@Z     00468250 f i PROF.obj
 0002:00042250       ??_Gfilters@@UAEPAXI@Z     00468250 f i PROF.obj
 0002:000422a0       ?_Alloc_proxy@?$_List_alloc@$0A@U?$_List_base_types@PAVfilterBase@@V?$allocator@PAVfilterBase@@@std@@@std@@@std@@QAEXXZ 004682a0 f i PROF.obj
 0002:00042360       ?_Buyheadnode@?$_List_alloc@$0A@U?$_List_base_types@PAVfilterBase@@V?$allocator@PAVfilterBase@@@std@@@std@@@std@@QAEPAU?$_List_node@PAVfilterBase@@PAX@2@XZ 00468360 f i PROF.obj
 0002:000423a0       ?_Buynode0@?$_List_alloc@$0A@U?$_List_base_types@PAVfilterBase@@V?$allocator@PAVfilterBase@@@std@@@std@@@std@@QAEPAU?$_List_node@PAVfilterBase@@PAX@2@PAU32@0@Z 004683a0 f i PROF.obj
 0002:00042540       ?_Buynode0@?$_Tree_buy@U?$pair@$$CBHPAVfilters@@@std@@V?$allocator@U?$pair@$$CBHPAVfilters@@@std@@@2@@std@@QAEPAU?$_Tree_node@U?$pair@$$CBHPAVfilters@@@std@@PAX@2@XZ 00468540 f i PROF.obj
 0002:00042700       ?_Destroy_if_not_nil@?$_Tree@V?$_Tmap_traits@HPAVfilters@@U?$less@H@std@@V?$allocator@U?$pair@$$CBHPAVfilters@@@std@@@3@$0A@@std@@@std@@IAEXPAU?$_Tree_node@U?$pair@$$CBHPAVfilters@@@std@@PAX@2@@Z 00468700 f i PROF.obj
 0002:00042790       ?_Free_proxy@?$_List_alloc@$0A@U?$_List_base_types@PAVfilterBase@@V?$allocator@PAVfilterBase@@@std@@@std@@@std@@QAEXXZ 00468790 f i PROF.obj
 0002:00042850       ?_Freeheadnode@?$_List_alloc@$0A@U?$_List_base_types@PAVfilterBase@@V?$allocator@PAVfilterBase@@@std@@@std@@@std@@QAEXPAU?$_List_node@PAVfilterBase@@PAX@2@@Z 00468850 f i PROF.obj
 0002:00042910       ?_Freenode0@?$_Tree_buy@U?$pair@$$CBHPAVfilters@@@std@@V?$allocator@U?$pair@$$CBHPAVfilters@@@std@@@2@@std@@QAEXPAU?$_Tree_node@U?$pair@$$CBHPAVfilters@@@std@@PAX@2@@Z 00468910 f i PROF.obj
 0002:00042a00       ?_Incsize@?$list@PAVfilterBase@@V?$allocator@PAVfilterBase@@@std@@@std@@QAEXI@Z 00468a00 f i PROF.obj
 0002:00042a70       ?_Mynode@?$_List_unchecked_const_iterator@V?$_List_val@U?$_List_simple_types@PAVfilterBase@@@std@@@std@@U_Iterator_base0@2@@std@@QBEPAU?$_List_node@PAVfilterBase@@PAX@2@XZ 00468a70 f i PROF.obj
 0002:00042a90       ?_Tidy@?$list@PAVfilterBase@@V?$allocator@PAVfilterBase@@@std@@@std@@QAEXXZ 00468a90 f i PROF.obj
 0002:00042ac0       ?_Unchecked_begin@?$list@PAVfilterBase@@V?$allocator@PAVfilterBase@@@std@@@std@@QAE?AV?$_List_unchecked_iterator@V?$_List_val@U?$_List_simple_types@PAVfilterBase@@@std@@@std@@@2@XZ 00468ac0 f i PROF.obj
 0002:00042b10       ?_Unchecked_end@?$list@PAVfilterBase@@V?$allocator@PAVfilterBase@@@std@@@std@@QAE?AV?$_List_unchecked_iterator@V?$_List_val@U?$_List_simple_types@PAVfilterBase@@@std@@@std@@@2@XZ 00468b10 f i PROF.obj
 0002:00042b60       ?addFilter@filters@@AAEXPAVfilterBase@@@Z 00468b60 f i PROF.obj
 0002:00042c90       ?addFilter@filters@@QAE_NPBD@Z 00468c90 f i PROF.obj
 0002:00043a40       ?allocate@?$_Wrap_alloc@V?$allocator@U?$_List_node@PAVfilterBase@@PAX@std@@@std@@@std@@QAEPAU?$_List_node@PAVfilterBase@@PAX@2@I@Z 00469a40 f i PROF.obj
 0002:00043a80       ?allocate@?$allocator@U?$_List_node@PAVfilterBase@@PAX@std@@@std@@QAEPAU?$_List_node@PAVfilterBase@@PAX@2@I@Z 00469a80 f i PROF.obj
 0002:00043ac0       ?capacity@?$basic_string@DU?$char_traits@D@std@@V?$allocator@D@2@@std@@QBEIXZ 00469ac0 f i PROF.obj
 0002:00043ae0       ?clear@?$list@PAVfilterBase@@V?$allocator@PAVfilterBase@@@std@@@std@@QAEXXZ 00469ae0 f i PROF.obj
 0002:00043bd0       ?first@?$filterAverage@H@@UAE_NXZ 00469bd0 f i PROF.obj
 0002:00043bf0       ?first@?$filterAverage@I@@UAE_NXZ 00469bf0 f i PROF.obj
 0002:00043c10       ?first@?$filterAverage@N@@UAE_NXZ 00469c10 f i PROF.obj
 0002:00043c30       ?first@?$filterWindow@H@@UAE_NXZ 00469c30 f i PROF.obj
 0002:00043c50       ?first@?$filterWindow@I@@UAE_NXZ 00469c50 f i PROF.obj
 0002:00043c70       ?first@?$filterWindow@N@@UAE_NXZ 00469c70 f i PROF.obj
 0002:00043c90       ?first@filterBlock@@UAE_NXZ 00469c90 f i PROF.obj
 0002:00043cb0       ?first@filterChange@@UAE_NXZ 00469cb0 f i PROF.obj
 0002:00043cd0       ?insert@?$basic_string@DU?$char_traits@D@std@@V?$allocator@D@2@@std@@QAEAAV12@IABV12@@Z 00469cd0 f i PROF.obj
 0002:00043d10       ?insert@?$basic_string@DU?$char_traits@D@std@@V?$allocator@D@2@@std@@QAEAAV12@IABV12@II@Z 00469d10 f i PROF.obj
 0002:00043ec0       ?insert@?$basic_string@DU?$char_traits@D@std@@V?$allocator@D@2@@std@@QAEAAV12@IPBD@Z 00469ec0 f i PROF.obj
 0002:00043f30       ?insert@?$basic_string@DU?$char_traits@D@std@@V?$allocator@D@2@@std@@QAEAAV12@IPBDI@Z 00469f30 f i PROF.obj
 0002:000440a0       ?max_size@?$_Tree@V?$_Tmap_traits@HPAVfilters@@U?$less@H@std@@V?$allocator@U?$pair@$$CBHPAVfilters@@@std@@@3@$0A@@std@@@std@@QBEIXZ 0046a0a0 f i PROF.obj
 0002:000440f0       ?max_size@?$_Wrap_alloc@V?$allocator@U?$_List_node@PAVfilterBase@@PAX@std@@@std@@@std@@QBEIXZ 0046a0f0 f i PROF.obj
 0002:00044130       ?max_size@?$_Wrap_alloc@V?$allocator@U?$_Tree_node@U?$pair@$$CBHPAVfilters@@@std@@PAX@std@@@std@@@std@@QBEIXZ 0046a130 f i PROF.obj
 0002:00044170       ?max_size@?$allocator@U?$_List_node@PAVfilterBase@@PAX@std@@@std@@QBEIXZ 0046a170 f i PROF.obj
 0002:00044190       ?max_size@?$allocator@U?$_Tree_node@U?$pair@$$CBHPAVfilters@@@std@@PAX@std@@@std@@QBEIXZ 0046a190 f i PROF.obj
 0002:000441b0       ?max_size@?$allocator_traits@V?$allocator@U?$_List_node@PAVfilterBase@@PAX@std@@@std@@@std@@SAIABV?$allocator@U?$_List_node@PAVfilterBase@@PAX@std@@@2@@Z 0046a1b0 f i PROF.obj
 0002:000441d0       ?max_size@?$allocator_traits@V?$allocator@U?$_Tree_node@U?$pair@$$CBHPAVfilters@@@std@@PAX@std@@@std@@@std@@SAIABV?$allocator@U?$_Tree_node@U?$pair@$$CBHPAVfilters@@@std@@PAX@std@@@2@@Z 0046a1d0 f i PROF.obj
 0002:000441f0       ?max_size@?$list@PAVfilterBase@@V?$allocator@PAVfilterBase@@@std@@@std@@QBEIXZ 0046a1f0 f i PROF.obj
 0002:00044240       ?push_back@?$list@PAVfilterBase@@V?$allocator@PAVfilterBase@@@std@@@std@@QAEXABQAVfilterBase@@@Z 0046a240 f i PROF.obj
 0002:000442b0       ?push_front@?$list@PAVfilterBase@@V?$allocator@PAVfilterBase@@@std@@@std@@QAEXABQAVfilterBase@@@Z 0046a2b0 f i PROF.obj
 0002:00044320       ?setValue@?$filterAverage@H@@UAE_NAAV?$basic_string@DU?$char_traits@D@std@@V?$allocator@D@2@@std@@@Z 0046a320 f i PROF.obj
 0002:000444f0       ?setValue@?$filterAverage@I@@UAE_NAAV?$basic_string@DU?$char_traits@D@std@@V?$allocator@D@2@@std@@@Z 0046a4f0 f i PROF.obj
 0002:000446c0       ?setValue@?$filterAverage@N@@UAE_NAAV?$basic_string@DU?$char_traits@D@std@@V?$allocator@D@2@@std@@@Z 0046a6c0 f i PROF.obj
 0002:000448d0       ?setValue@?$filterWindow@H@@AAE_NH@Z 0046a8d0 f i PROF.obj
 0002:00044990       ?setValue@?$filterWindow@H@@UAE_NAAV?$basic_string@DU?$char_traits@D@std@@V?$allocator@D@2@@std@@@Z 0046a990 f i PROF.obj
 0002:00044a20       ?setValue@?$filterWindow@I@@AAE_NI@Z 0046aa20 f i PROF.obj
 0002:00044ae0       ?setValue@?$filterWindow@I@@UAE_NAAV?$basic_string@DU?$char_traits@D@std@@V?$allocator@D@2@@std@@@Z 0046aae0 f i PROF.obj
 0002:00044b70       ?setValue@?$filterWindow@N@@AAE_NN@Z 0046ab70 f i PROF.obj
 0002:00044c50       ?setValue@?$filterWindow@N@@UAE_NAAV?$basic_string@DU?$char_traits@D@std@@V?$allocator@D@2@@std@@@Z 0046ac50 f i PROF.obj
 0002:00044cf0       ?setValue@filterBlock@@UAE_NAAV?$basic_string@DU?$char_traits@D@std@@V?$allocator@D@2@@std@@@Z 0046acf0 f i PROF.obj
 0002:00044d10       ?setValue@filterChange@@UAE_NAAV?$basic_string@DU?$char_traits@D@std@@V?$allocator@D@2@@std@@@Z 0046ad10 f i PROF.obj
 0002:00044d70       ?toString@?$filterAverage@H@@UAE?AV?$basic_string@DU?$char_traits@D@std@@V?$allocator@D@2@@std@@XZ 0046ad70 f i PROF.obj
 0002:00044eb0       ?toString@?$filterAverage@I@@UAE?AV?$basic_string@DU?$char_traits@D@std@@V?$allocator@D@2@@std@@XZ 0046aeb0 f i PROF.obj
 0002:00044ff0       ?toString@?$filterAverage@N@@UAE?AV?$basic_string@DU?$char_traits@D@std@@V?$allocator@D@2@@std@@XZ 0046aff0 f i PROF.obj
 0002:00045130       ?toString@?$filterWindow@H@@UAE?AV?$basic_string@DU?$char_traits@D@std@@V?$allocator@D@2@@std@@XZ 0046b130 f i PROF.obj
 0002:00045190       ?toString@?$filterWindow@I@@UAE?AV?$basic_string@DU?$char_traits@D@std@@V?$allocator@D@2@@std@@XZ 0046b190 f i PROF.obj
 0002:000451f0       ?toString@?$filterWindow@N@@UAE?AV?$basic_string@DU?$char_traits@D@std@@V?$allocator@D@2@@std@@XZ 0046b1f0 f i PROF.obj
 0002:00045250       ?toString@filterBlock@@UAE?AV?$basic_string@DU?$char_traits@D@std@@V?$allocator@D@2@@std@@XZ 0046b250 f i PROF.obj
 0002:000452b0       ?toString@filterChange@@UAE?AV?$basic_string@DU?$char_traits@D@std@@V?$allocator@D@2@@std@@XZ 0046b2b0 f i PROF.obj
 0002:00045310       ?valueToType@?$filterWindow@H@@AAEXAAV?$basic_string@DU?$char_traits@D@std@@V?$allocator@D@2@@std@@AAH@Z 0046b310 f i PROF.obj
 0002:00045350       ?valueToType@?$filterWindow@I@@AAEXAAV?$basic_string@DU?$char_traits@D@std@@V?$allocator@D@2@@std@@AAI@Z 0046b350 f i PROF.obj
 0002:00045390       ?valueToType@?$filterWindow@N@@AAEXAAV?$basic_string@DU?$char_traits@D@std@@V?$allocator@D@2@@std@@AAN@Z 0046b390 f i PROF.obj
 0002:000453d0       ?BNCSSendMessage@@YAJPAUHWND__@@0IIJHHHE@Z 0046b3d0 f   SNDMSG.obj
 0002:000454b0       ?fnSplitString@@YAHPAD0IPAPAD@Z 0046b4b0 f   SplitString.obj
 0002:00045640       ?ODS@@YAXPAD@Z             0046b640 f   SUFU.obj
 0002:00045700       ?OSM@@YAXPAD@Z             0046b700 f   SUFU.obj
 0002:00045750       ?GetArguments@@YAXPADH@Z   0046b750 f   SUFU.obj
 0002:00045a50       _BNCS32SendMessage         0046ba50 f   bncsWM32db:BncsWM32.obj
 0002:00045b90       _BNCS32ReceiveMessage      0046bb90 f   bncsWM32db:BncsWM32.obj
 0002:00045dd6       _BNCS32RxMessage           0046bdd6 f   bncsif32:BNCSIF32.dll
 0002:00045ddc       _BNCS32TxMessage           0046bddc f   bncsif32:BNCSIF32.dll
 0002:00045de2       _setInfoHwnd               0046bde2 f   info32fix:info32fix.dll
 0002:00045df0       ??0cBncsVersion@@QAE@PBD@Z 0046bdf0 f   BncsVersionInfodb:cBncsVersion.obj
 0002:000466d0       ??1cBncsVersion@@UAE@XZ    0046c6d0 f   BncsVersionInfodb:cBncsVersion.obj
 0002:00046bb0       ??_GcBncsVersion@@UAEPAXI@Z 0046cbb0 f i BncsVersionInfodb:cBncsVersion.obj
 0002:00046bb0       ??_EcBncsVersion@@UAEPAXI@Z 0046cbb0 f i BncsVersionInfodb:cBncsVersion.obj
 0002:00046c20       ?strpbrk@@YAPADPADPBD@Z    0046cc20 f i BncsVersionInfodb:cBncsVersion.obj
 0002:00046c72       _GetFileVersionInfoSizeA@8 0046cc72 f   version:VERSION.dll
 0002:00046c78       _GetFileVersionInfoA@16    0046cc78 f   version:VERSION.dll
 0002:00046c7e       _VerQueryValueA@16         0046cc7e f   version:VERSION.dll
 0002:00046c84       _OutputDebugStringA@4      0046cc84 f   kernel32:KERNEL32.dll
 0002:00046c8a       _FreeLibrary@4             0046cc8a f   kernel32:KERNEL32.dll
 0002:00046c90       _GetProcAddress@8          0046cc90 f   kernel32:KERNEL32.dll
 0002:00046c96       _GetLastError@0            0046cc96 f   kernel32:KERNEL32.dll
 0002:00046c9c       _LoadLibraryA@4            0046cc9c f   kernel32:KERNEL32.dll
 0002:00046ca2       _GetPrivateProfileIntA@16  0046cca2 f   kernel32:KERNEL32.dll
 0002:00046ca8       _GetPrivateProfileStringA@24 0046cca8 f   kernel32:KERNEL32.dll
 0002:00046cae       _WritePrivateProfileStringA@16 0046ccae f   kernel32:KERNEL32.dll
 0002:00046cb4       _GetWindowsDirectoryA@8    0046ccb4 f   kernel32:KERNEL32.dll
 0002:00046cba       _GetTickCount@0            0046ccba f   kernel32:KERNEL32.dll
 0002:00046cc0       _lstrcpynA@12              0046ccc0 f   kernel32:KERNEL32.dll
 0002:00046cc6       _lstrcpyA@8                0046ccc6 f   kernel32:KERNEL32.dll
 0002:00046ccc       _GlobalAlloc@8             0046cccc f   kernel32:KERNEL32.dll
 0002:00046cd2       _GlobalLock@4              0046ccd2 f   kernel32:KERNEL32.dll
 0002:00046cd8       _GlobalUnlock@4            0046ccd8 f   kernel32:KERNEL32.dll
 0002:00046cde       _GlobalFree@4              0046ccde f   kernel32:KERNEL32.dll
 0002:00046ce4       _GetCurrentProcessId@0     0046cce4 f   kernel32:KERNEL32.dll
 0002:00046cea       _WinExec@8                 0046ccea f   kernel32:KERNEL32.dll
 0002:00046cf0       _GetModuleFileNameA@12     0046ccf0 f   kernel32:KERNEL32.dll
 0002:00046cf6       __lopen@8                  0046ccf6 f   kernel32:KERNEL32.dll
 0002:00046cfc       __lcreat@8                 0046ccfc f   kernel32:KERNEL32.dll
 0002:00046d02       __lread@12                 0046cd02 f   kernel32:KERNEL32.dll
 0002:00046d08       __lwrite@12                0046cd08 f   kernel32:KERNEL32.dll
 0002:00046d0e       __lclose@4                 0046cd0e f   kernel32:KERNEL32.dll
 0002:00046d14       __llseek@12                0046cd14 f   kernel32:KERNEL32.dll
 0002:00046d1a       _GetProfileStringA@20      0046cd1a f   kernel32:KERNEL32.dll
 0002:00046d20       _SendMessageA@16           0046cd20 f   user32:USER32.dll
 0002:00046d26       _PostMessageA@16           0046cd26 f   user32:USER32.dll
 0002:00046d2c       _DefWindowProcA@16         0046cd2c f   user32:USER32.dll
 0002:00046d32       _RegisterClassA@4          0046cd32 f   user32:USER32.dll
 0002:00046d38       _UnregisterClassA@8        0046cd38 f   user32:USER32.dll
 0002:00046d3e       _CreateWindowExA@48        0046cd3e f   user32:USER32.dll
 0002:00046d44       _IsWindow@4                0046cd44 f   user32:USER32.dll
 0002:00046d4a       _DestroyWindow@4           0046cd4a f   user32:USER32.dll
 0002:00046d50       _MessageBoxA@16            0046cd50 f   user32:USER32.dll
 0002:00046d56       _GetWindowLongA@8          0046cd56 f   user32:USER32.dll
 0002:00046d5c       _SetWindowLongA@12         0046cd5c f   user32:USER32.dll
 0002:00046d62       _GetClassNameA@12          0046cd62 f   user32:USER32.dll
 0002:00046d68       _DialogBoxParamA@20        0046cd68 f   user32:USER32.dll
 0002:00046d6e       _EndDialog@8               0046cd6e f   user32:USER32.dll
 0002:00046d74       _SetDlgItemTextA@12        0046cd74 f   user32:USER32.dll
 0002:00046d7a       _GetDlgItem@8              0046cd7a f   user32:USER32.dll
 0002:00046d80       _SetWindowTextA@8          0046cd80 f   user32:USER32.dll
 0002:00046d86       _ShowWindow@8              0046cd86 f   user32:USER32.dll
 0002:00046d8c       _MoveWindow@24             0046cd8c f   user32:USER32.dll
 0002:00046d92       _SetWindowPos@28           0046cd92 f   user32:USER32.dll
 0002:00046d98       _CreateDialogParamA@20     0046cd98 f   user32:USER32.dll
 0002:00046d9e       _GetDlgItemTextA@16        0046cd9e f   user32:USER32.dll
 0002:00046da4       _SendDlgItemMessageA@20    0046cda4 f   user32:USER32.dll
 0002:00046daa       _EnableWindow@8            0046cdaa f   user32:USER32.dll
 0002:00046db0       _LoadMenuA@8               0046cdb0 f   user32:USER32.dll
 0002:00046db6       _SetMenu@8                 0046cdb6 f   user32:USER32.dll
 0002:00046dbc       _InvalidateRect@12         0046cdbc f   user32:USER32.dll
 0002:00046dc2       _GetWindowRect@8           0046cdc2 f   user32:USER32.dll
 0002:00046dc8       _GetSysColor@4             0046cdc8 f   user32:USER32.dll
 0002:00046dce       _GetWindowTextA@12         0046cdce f   user32:USER32.dll
 0002:00046dd4       _SetTimer@16               0046cdd4 f   user32:USER32.dll
 0002:00046dda       _KillTimer@8               0046cdda f   user32:USER32.dll
 0002:00046de0       _GetMessageA@16            0046cde0 f   user32:USER32.dll
 0002:00046de6       _TranslateMessage@4        0046cde6 f   user32:USER32.dll
 0002:00046dec       _DispatchMessageA@4        0046cdec f   user32:USER32.dll
 0002:00046df2       _PostQuitMessage@4         0046cdf2 f   user32:USER32.dll
 0002:00046df8       _OpenClipboard@4           0046cdf8 f   user32:USER32.dll
 0002:00046dfe       _CloseClipboard@0          0046cdfe f   user32:USER32.dll
 0002:00046e04       _SetClipboardData@8        0046ce04 f   user32:USER32.dll
 0002:00046e0a       _GetClipboardData@4        0046ce0a f   user32:USER32.dll
 0002:00046e10       _EmptyClipboard@0          0046ce10 f   user32:USER32.dll
 0002:00046e16       _SetFocus@4                0046ce16 f   user32:USER32.dll
 0002:00046e1c       _GetSystemMetrics@4        0046ce1c f   user32:USER32.dll
 0002:00046e22       _GetMenu@4                 0046ce22 f   user32:USER32.dll
 0002:00046e28       _DrawMenuBar@4             0046ce28 f   user32:USER32.dll
 0002:00046e2e       _CheckMenuItem@12          0046ce2e f   user32:USER32.dll
 0002:00046e34       _EnableMenuItem@12         0046ce34 f   user32:USER32.dll
 0002:00046e3a       _LoadCursorA@8             0046ce3a f   user32:USER32.dll
 0002:00046e40       _LoadIconA@8               0046ce40 f   user32:USER32.dll
 0002:00046e46       _CharNextA@4               0046ce46 f   user32:USER32.dll
 0002:00046e4c       _wsprintfA                 0046ce4c f   user32:USER32.dll
 0002:00046e52       _CreateSolidBrush@4        0046ce52 f   gdi32:GDI32.dll
 0002:00046e58       _DeleteObject@4            0046ce58 f   gdi32:GDI32.dll
 0002:00046e5e       _SetBkColor@8              0046ce5e f   gdi32:GDI32.dll
 0002:00046e64       _SetTextColor@8            0046ce64 f   gdi32:GDI32.dll
 0002:00046e6a       _GetStockObject@4          0046ce6a f   gdi32:GDI32.dll
 0002:00046e70       _CreateDCA@16              0046ce70 f   gdi32:GDI32.dll
 0002:00046e76       _DeleteDC@4                0046ce76 f   gdi32:GDI32.dll
 0002:00046e7c       _GetDeviceCaps@8           0046ce7c f   gdi32:GDI32.dll
 0002:00046e82       _GetTextMetricsA@8         0046ce82 f   gdi32:GDI32.dll
 0002:00046e88       _StartDocA@8               0046ce88 f   gdi32:GDI32.dll
 0002:00046e8e       _EndDoc@4                  0046ce8e f   gdi32:GDI32.dll
 0002:00046e94       _StartPage@4               0046ce94 f   gdi32:GDI32.dll
 0002:00046e9a       _EndPage@4                 0046ce9a f   gdi32:GDI32.dll
 0002:00046ea0       _TextOutA@20               0046cea0 f   gdi32:GDI32.dll
 0002:00046ea6       _GetOpenFileNameA@4        0046cea6 f   comdlg32:COMDLG32.dll
 0002:00046eac       _GetSaveFileNameA@4        0046ceac f   comdlg32:COMDLG32.dll
 0002:00046eb2       _RegCloseKey@4             0046ceb2 f   advapi32:ADVAPI32.dll
 0002:00046eb8       _RegQueryValueExA@24       0046ceb8 f   advapi32:ADVAPI32.dll
 0002:00046ebe       _RegOpenKeyExA@20          0046cebe f   advapi32:ADVAPI32.dll
 0002:00046ec4       _ShellExecuteA@24          0046cec4 f   shell32:SHELL32.dll
 0002:00046eca       ?_Debug_message@std@@YAXPB_W0I@Z 0046ceca f   msvcprtd:MSVCP120D.dll
 0002:00046ed0       ??0_Container_base12@std@@QAE@XZ 0046ced0 f   msvcprtd:MSVCP120D.dll
 0002:00046ed6       ??1_Container_base12@std@@QAE@XZ 0046ced6 f   msvcprtd:MSVCP120D.dll
 0002:00046edc       ?_Orphan_all@_Container_base12@std@@QAEXXZ 0046cedc f   msvcprtd:MSVCP120D.dll
 0002:00046ee2       ?_Xbad_alloc@std@@YAXXZ    0046cee2 f   msvcprtd:MSVCP120D.dll
 0002:00046ee8       ?_Xlength_error@std@@YAXPBD@Z 0046cee8 f   msvcprtd:MSVCP120D.dll
 0002:00046eee       ?_Xout_of_range@std@@YAXPBD@Z 0046ceee f   msvcprtd:MSVCP120D.dll
 0002:00046ef4       ??0id@locale@std@@QAE@I@Z  0046cef4 f   msvcprtd:MSVCP120D.dll
 0002:00046efa       ?_Syserror_map@std@@YAPBDH@Z 0046cefa f   msvcprtd:MSVCP120D.dll
 0002:00046f00       ?_Winerror_map@std@@YAPBDH@Z 0046cf00 f   msvcprtd:MSVCP120D.dll
 0002:00046f06       ??0_Lockit@std@@QAE@H@Z    0046cf06 f   msvcprtd:MSVCP120D.dll
 0002:00046f0c       ??1_Lockit@std@@QAE@XZ     0046cf0c f   msvcprtd:MSVCP120D.dll
 0002:00046f20       ??_U@YAPAXI@Z              0046cf20 f   msvcprtd:newaop_s.obj
 0002:00046f36       ?_Getpfirst@_Container_base12@std@@QBEPAPAU_Iterator_base12@2@XZ 0046cf36 f   msvcprtd:MSVCP120D.dll
 0002:00046f3c       __purecall                 0046cf3c f   MSVCRTD:MSVCR120D.dll
 0002:00046f42       ??2@YAPAXI@Z               0046cf42 f   MSVCRTD:MSVCR120D.dll
 0002:00046f48       ??3@YAXPAX@Z               0046cf48 f   MSVCRTD:MSVCR120D.dll
 0002:00046f50       ___atonexitinit            0046cf50 f   MSVCRTD:atonexit.obj
 0002:00047030       __onexit                   0046d030 f   MSVCRTD:atonexit.obj
 0002:00047170       _atexit                    0046d170 f   MSVCRTD:atonexit.obj
 0002:000471a6       _memcpy                    0046d1a6 f   MSVCRTD:MSVCR120D.dll
 0002:000471ac       _strlen                    0046d1ac f   MSVCRTD:MSVCR120D.dll
 0002:000471b2       _memmove                   0046d1b2 f   MSVCRTD:MSVCR120D.dll
 0002:000471b8       __hypot                    0046d1b8 f   MSVCRTD:MSVCR120D.dll
 0002:000471be       _sprintf_s                 0046d1be f   MSVCRTD:MSVCR120D.dll
 0002:000471d0       @_RTC_AllocaHelper@12      0046d1d0 f   MSVCRTD:stack.obj
 0002:00047210       @_RTC_CheckStackVars2@12   0046d210 f   MSVCRTD:stack.obj
 0002:00047320       @_RTC_CheckStackVars@8     0046d320 f   MSVCRTD:stack.obj
 0002:00047390       __RTC_CheckEsp             0046d390 f   MSVCRTD:stack.obj
 0002:000473c0       @__security_check_cookie@4 0046d3c0 f   MSVCRTD:secchk.obj
 0002:000473d2       __CxxThrowException@8      0046d3d2 f   MSVCRTD:MSVCR120D.dll
 0002:000473e0       __RTC_InitBase             0046d3e0 f   MSVCRTD:init.obj
 0002:00047420       __RTC_Shutdown             0046d420 f   MSVCRTD:init.obj
 0002:00047438       ___CxxFrameHandler3        0046d438 f   MSVCRTD:MSVCR120D.dll
 0002:00047440       ??0type_info@@AAE@ABV0@@Z  0046d440 f   MSVCRTD:ti_inst.obj
 0002:00047460       ??4type_info@@AAEAAV0@ABV0@@Z 0046d460 f   MSVCRTD:ti_inst.obj
 0002:00047480       ??_Etype_info@@UAEPAXI@Z   0046d480 f i MSVCRTD:ti_inst.obj
 0002:00047510       __invalid_parameter        0046d510 f   MSVCRTD:MSVCR120D.dll
 0002:00047516       _memset                    0046d516 f   MSVCRTD:MSVCR120D.dll
 0002:0004751c       _strcpy                    0046d51c f   MSVCRTD:MSVCR120D.dll
 0002:00047522       _strcmp                    0046d522 f   MSVCRTD:MSVCR120D.dll
 0002:00047528       _strncpy                   0046d528 f   MSVCRTD:MSVCR120D.dll
 0002:0004752e       _atoi                      0046d52e f   MSVCRTD:MSVCR120D.dll
 0002:00047534       _sprintf                   0046d534 f   MSVCRTD:MSVCR120D.dll
 0002:0004753a       ??_V@YAXPAX@Z              0046d53a f   MSVCRTD:MSVCR120D.dll
 0002:00047540       __CrtDbgReportW            0046d540 f   MSVCRTD:MSVCR120D.dll
 0002:00047546       _getenv                    0046d546 f   MSVCRTD:MSVCR120D.dll
 0002:0004754c       _tolower                   0046d54c f   MSVCRTD:MSVCR120D.dll
 0002:00047552       _memchr                    0046d552 f   MSVCRTD:MSVCR120D.dll
 0002:00047558       _memcmp                    0046d558 f   MSVCRTD:MSVCR120D.dll
 0002:0004755e       _strcat                    0046d55e f   MSVCRTD:MSVCR120D.dll
 0002:00047564       _strchr                    0046d564 f   MSVCRTD:MSVCR120D.dll
 0002:0004756a       __stricmp                  0046d56a f   MSVCRTD:MSVCR120D.dll
 0002:00047570       __mkdir                    0046d570 f   MSVCRTD:MSVCR120D.dll
 0002:00047576       _fclose                    0046d576 f   MSVCRTD:MSVCR120D.dll
 0002:0004757c       _fgets                     0046d57c f   MSVCRTD:MSVCR120D.dll
 0002:00047582       _fopen                     0046d582 f   MSVCRTD:MSVCR120D.dll
 0002:00047588       _fprintf                   0046d588 f   MSVCRTD:MSVCR120D.dll
 0002:0004758e       _fputs                     0046d58e f   MSVCRTD:MSVCR120D.dll
 0002:00047594       _remove                    0046d594 f   MSVCRTD:MSVCR120D.dll
 0002:0004759a       _rename                    0046d59a f   MSVCRTD:MSVCR120D.dll
 0002:000475a0       _vsprintf_s                0046d5a0 f   MSVCRTD:MSVCR120D.dll
 0002:000475b0       ___raise_securityfailure   0046d5b0 f   MSVCRTD:gs_report.obj
 0002:00047610       ___report_gsfailure        0046d610 f   MSVCRTD:gs_report.obj
 0002:00047760       ___report_rangecheckfailure 0046d760 f   MSVCRTD:gs_report.obj
 0002:00047770       ___report_securityfailure  0046d770 f   MSVCRTD:gs_report.obj
 0002:00047880       ___report_securityfailureEx 0046d880 f   MSVCRTD:gs_report.obj
 0002:000479ee       _strcat_s                  0046d9ee f   MSVCRTD:MSVCR120D.dll
 0002:000479f4       _atof                      0046d9f4 f   MSVCRTD:MSVCR120D.dll
 0002:000479fa       _strtol                    0046d9fa f   MSVCRTD:MSVCR120D.dll
 0002:00047a00       _strtoul                   0046da00 f   MSVCRTD:MSVCR120D.dll
 0002:00047a06       _fgetc                     0046da06 f   MSVCRTD:MSVCR120D.dll
 0002:00047a0c       _fputc                     0046da0c f   MSVCRTD:MSVCR120D.dll
 0002:00047a20       __chkstk                   0046da20 f   MSVCRTD:chkstk.obj
 0002:00047a20       __alloca_probe             0046da20 f   MSVCRTD:chkstk.obj
 0002:00047a56       _strstr                    0046da56 f   MSVCRTD:MSVCR120D.dll
 0002:00047a5c       _sscanf                    0046da5c f   MSVCRTD:MSVCR120D.dll
 0002:00047a62       _strcpy_s                  0046da62 f   MSVCRTD:MSVCR120D.dll
 0002:00047a68       _strtok                    0046da68 f   MSVCRTD:MSVCR120D.dll
 0002:00047b90       _NtCurrentTeb              0046db90 f i MSVCRTD:crtexew.obj
 0002:00047ba0       _WinMainCRTStartup         0046dba0 f   MSVCRTD:crtexew.obj
 0002:00048002       _strpbrk                   0046e002 f   MSVCRTD:MSVCR120D.dll
 0002:00048008       _free                      0046e008 f   MSVCRTD:MSVCR120D.dll
 0002:0004800e       _malloc                    0046e00e f   MSVCRTD:MSVCR120D.dll
 0002:00048014       __lock                     0046e014 f   MSVCRTD:MSVCR120D.dll
 0002:0004801a       __unlock                   0046e01a f   MSVCRTD:MSVCR120D.dll
 0002:00048020       __calloc_dbg               0046e020 f   MSVCRTD:MSVCR120D.dll
 0002:00048026       ___dllonexit               0046e026 f   MSVCRTD:MSVCR120D.dll
 0002:00048030       __except_handler4          0046e030 f   MSVCRTD:chandler4gs.obj
 0002:00048200       ?_RTC_AllocaFailure@@YAXPAXPAU_RTC_ALLOCA_NODE@@H@Z 0046e200 f   MSVCRTD:error.obj
 0002:000483e0       ?_RTC_Failure@@YAXPAXH@Z   0046e3e0 f   MSVCRTD:error.obj
 0002:00048450       ?_RTC_StackFailure@@YAXPAXPBD@Z 0046e450 f   MSVCRTD:error.obj
 0002:000488b0       __RTC_UninitUse            0046e8b0 f   MSVCRTD:error.obj
 0002:000489e0       ?_RTC_GetErrorFunc@@YAP6AHHPBDH00ZZPBX@Z 0046e9e0 f   MSVCRTD:userapi.obj
 0002:000489f0       ?_RTC_GetErrorFuncW@@YAP6AHHPB_WH00ZZPBX@Z 0046e9f0 f   MSVCRTD:userapi.obj
 0002:00048a00       __RTC_GetErrDesc           0046ea00 f   MSVCRTD:userapi.obj
 0002:00048a20       __RTC_NumErrors            0046ea20 f   MSVCRTD:userapi.obj
 0002:00048a30       __RTC_SetErrorFunc         0046ea30 f   MSVCRTD:userapi.obj
 0002:00048a60       __RTC_SetErrorFuncW        0046ea60 f   MSVCRTD:userapi.obj
 0002:00048a90       __RTC_SetErrorType         0046ea90 f   MSVCRTD:userapi.obj
 0002:00048abc       __CRT_RTC_INITW            0046eabc f   MSVCRTD:MSVCR120D.dll
 0002:00048ad0       ??_M@YGXPAXIHP6EX0@Z@Z     0046ead0 f   MSVCRTD:ehvecdtr.obj
 0002:00048bf0       ?__ArrayUnwind@@YGXPAXIHP6EX0@Z@Z 0046ebf0 f   MSVCRTD:ehvecdtr.obj
 0002:00048c9c       ??1type_info@@UAE@XZ       0046ec9c f   MSVCRTD:MSVCR120D.dll
 0002:00048ca2       __crt_debugger_hook        0046eca2 f   MSVCRTD:MSVCR120D.dll
 0002:00048ca8       ___crtUnhandledException   0046eca8 f   MSVCRTD:MSVCR120D.dll
 0002:00048cae       ___crtTerminateProcess     0046ecae f   MSVCRTD:MSVCR120D.dll
 0002:00048cc0       ?__CxxUnhandledExceptionFilter@@YGJPAU_EXCEPTION_POINTERS@@@Z 0046ecc0 f   MSVCRTD:unhandld.obj
 0002:00048d40       ___CxxSetUnhandledExceptionFilter 0046ed40 f   MSVCRTD:unhandld.obj
 0002:00048d5a       __XcptFilter               0046ed5a f   MSVCRTD:MSVCR120D.dll
 0002:00048d60       ___crtGetShowWindowMode    0046ed60 f   MSVCRTD:MSVCR120D.dll
 0002:00048d66       __amsg_exit                0046ed66 f   MSVCRTD:MSVCR120D.dll
 0002:00048d70       __setargv                  0046ed70 f   MSVCRTD:dllargv.obj
 0002:00048d78       ___getmainargs             0046ed78 f   MSVCRTD:MSVCR120D.dll
 0002:00048d7e       ___set_app_type            0046ed7e f   MSVCRTD:MSVCR120D.dll
 0002:00048d84       __CrtSetCheckCount         0046ed84 f   MSVCRTD:MSVCR120D.dll
 0002:00048d90       __FindPESection            0046ed90 f   MSVCRTD:pesect.obj
 0002:00048e20       __IsNonwritableInCurrentImage 0046ee20 f   MSVCRTD:pesect.obj
 0002:00048fa0       __ValidateImageBase        0046efa0 f   MSVCRTD:pesect.obj
 0002:00049014       _exit                      0046f014 f   MSVCRTD:MSVCR120D.dll
 0002:0004901a       __exit                     0046f01a f   MSVCRTD:MSVCR120D.dll
 0002:00049020       __cexit                    0046f020 f   MSVCRTD:MSVCR120D.dll
 0002:00049030       ___security_init_cookie    0046f030 f   MSVCRTD:gs_support.obj
 0002:00049150       __matherr                  0046f150 f   MSVCRTD:merr.obj
 0002:00049158       __ismbblead                0046f158 f   MSVCRTD:MSVCR120D.dll
 0002:00049160       __RTC_Initialize           0046f160 f   MSVCRTD:initsect.obj
 0002:00049190       __RTC_Terminate            0046f190 f   MSVCRTD:initsect.obj
 0002:000491be       __configthreadlocale       0046f1be f   MSVCRTD:MSVCR120D.dll
 0002:000491d0       __invoke_watson_if_error   0046f1d0 f i MSVCRTD:fp8.obj
 0002:00049200       __setdefaultprecision      0046f200 f   MSVCRTD:fp8.obj
 0002:00049242       ___setusermatherr          0046f242 f   MSVCRTD:MSVCR120D.dll
 0002:00049248       __initterm_e               0046f248 f   MSVCRTD:MSVCR120D.dll
 0002:0004924e       __initterm                 0046f24e f   MSVCRTD:MSVCR120D.dll
 0002:00049254       __except_handler4_common   0046f254 f   MSVCRTD:MSVCR120D.dll
 0002:000497c0       ?_RTC_GetSrcLine@@YAHPAEPA_WKPAH1K@Z 0046f7c0 f   MSVCRTD:pdblkup.obj
 0002:00049b1a       ?terminate@@YAXXZ          0046fb1a f   MSVCRTD:MSVCR120D.dll
 0002:00049b20       ___crtSetUnhandledExceptionFilter 0046fb20 f   MSVCRTD:MSVCR120D.dll
 0002:00049b26       __invoke_watson            0046fb26 f   MSVCRTD:MSVCR120D.dll
 0002:00049b2c       __controlfp_s              0046fb2c f   MSVCRTD:MSVCR120D.dll
 0002:00049b32       _wcscpy_s                  0046fb32 f   MSVCRTD:MSVCR120D.dll
 0002:00049b38       __wmakepath_s              0046fb38 f   MSVCRTD:MSVCR120D.dll
 0002:00049b3e       __wsplitpath_s             0046fb3e f   MSVCRTD:MSVCR120D.dll
 0002:00049b44       _EncodePointer@4           0046fb44 f   kernel32:KERNEL32.dll
 0002:00049b4a       _DecodePointer@4           0046fb4a f   kernel32:KERNEL32.dll
 0002:00049b50       _IsDebuggerPresent@0       0046fb50 f   kernel32:KERNEL32.dll
 0002:00049b56       _IsProcessorFeaturePresent@4 0046fb56 f   kernel32:KERNEL32.dll
 0002:00049b5c       _RaiseException@16         0046fb5c f   kernel32:KERNEL32.dll
 0002:00049b62       _LoadLibraryExW@12         0046fb62 f   kernel32:KERNEL32.dll
 0002:00049b68       _MultiByteToWideChar@24    0046fb68 f   kernel32:KERNEL32.dll
 0002:00049b6e       _WideCharToMultiByte@32    0046fb6e f   kernel32:KERNEL32.dll
 0002:00049b74       _QueryPerformanceCounter@4 0046fb74 f   kernel32:KERNEL32.dll
 0002:00049b7a       _GetCurrentThreadId@0      0046fb7a f   kernel32:KERNEL32.dll
 0002:00049b80       _GetSystemTimeAsFileTime@4 0046fb80 f   kernel32:KERNEL32.dll
 0002:00049b86       _HeapAlloc@12              0046fb86 f   kernel32:KERNEL32.dll
 0002:00049b8c       _HeapFree@12               0046fb8c f   kernel32:KERNEL32.dll
 0002:00049b92       _GetProcessHeap@0          0046fb92 f   kernel32:KERNEL32.dll
 0002:00049b98       _VirtualQuery@12           0046fb98 f   kernel32:KERNEL32.dll
 0002:00049b9e       _GetModuleFileNameW@12     0046fb9e f   kernel32:KERNEL32.dll
 0002:00049ba4       _GetModuleHandleW@4        0046fba4 f   kernel32:KERNEL32.dll
 0002:00049baa       __strlwr                   0046fbaa f   MSVCRTD:MSVCR120D.dll
 0002:00049bb0       __strupr                   0046fbb0 f   MSVCRTD:MSVCR120D.dll
 0003:00000000       ___xc_a                    00478000     MSVCRTD:cinitexe.obj
 0003:00000500       ___xc_z                    00478500     MSVCRTD:cinitexe.obj
 0003:00000604       ___xi_a                    00478604     MSVCRTD:cinitexe.obj
 0003:00000a14       ___xi_z                    00478a14     MSVCRTD:cinitexe.obj
 0003:00000e8c       ?npos@?$basic_string@DU?$char_traits@D@std@@V?$allocator@D@2@@std@@2IB 00478e8c     ccCheck.obj
 0003:00000e94       ??_7error_category@std@@6B@ 00478e94     ccCheck.obj
 0003:00000eb8       ??_7_Generic_error_category@std@@6B@ 00478eb8     ccCheck.obj
 0003:00000ed8       ??_C@_07DCLBNMLN@generic?$AA@ 00478ed8     ccCheck.obj
 0003:00000ee4       ??_C@_0O@BFJCFAAK@unknown?5error?$AA@ 00478ee4     ccCheck.obj
 0003:00000ef8       ??_7_Iostream_error_category@std@@6B@ 00478ef8     ccCheck.obj
 0003:00000f18       ??_C@_08LLGCOLLL@iostream?$AA@ 00478f18     ccCheck.obj
 0003:00000f24       ??_C@_0BG@PADBLCHM@iostream?5stream?5error?$AA@ 00478f24     ccCheck.obj
 0003:00000f44       ??_7_System_error_category@std@@6B@ 00478f44     ccCheck.obj
 0003:00000f64       ??_C@_06FHFOAHML@system?$AA@ 00478f64     ccCheck.obj
 0003:00000f70       ??_7ccCheck@@6B@           00478f70     ccCheck.obj
 0003:00000f78       ??_C@_1IO@FEAPGJBD@?$AAC?$AA?3?$AA?2?$AAP?$AAr?$AAo?$AAg?$AAr?$AAa?$AAm?$AA?5?$AAF?$AAi?$AAl?$AAe?$AAs?$AA?5?$AA?$CI?$AAx?$AA8?$AA6?$AA?$CJ?$AA?2?$AAM?$AAi?$AAc?$AAr?$AAo?$AAs?$AAo?$AAf?$AAt@ 00478f78     ccCheck.obj
 0003:00001024       ??_C@_0BA@JFNIOLAK@string?5too?5long?$AA@ 00479024     ccCheck.obj
 0003:00001038       ??_C@_0BI@CFPLBAOH@invalid?5string?5position?$AA@ 00479038     ccCheck.obj
 0003:00001054       ??_C@_1CK@EOPGIILJ@?$AAi?$AAn?$AAv?$AAa?$AAl?$AAi?$AAd?$AA?5?$AAn?$AAu?$AAl?$AAl?$AA?5?$AAp?$AAo?$AAi?$AAn?$AAt?$AAe?$AAr?$AA?$AA@ 00479054     ccCheck.obj
 0003:00001488       ??_C@_1JA@EADLBAJ@?$AAC?$AA?3?$AA?2?$AAP?$AAr?$AAo?$AAg?$AAr?$AAa?$AAm?$AA?5?$AAF?$AAi?$AAl?$AAe?$AAs?$AA?5?$AA?$CI?$AAx?$AA8?$AA6?$AA?$CJ?$AA?2?$AAM?$AAi?$AAc?$AAr?$AAo?$AAs?$AAo?$AAf?$AAt@ 00479488     ccClient.obj
 0003:00001534       ??_C@_1DC@POOIKBAO@?$AAI?$AAT?$AAE?$AAR?$AAA?$AAT?$AAO?$AAR?$AA?5?$AAL?$AAI?$AAS?$AAT?$AA?5?$AAC?$AAO?$AAR?$AAR?$AAU?$AAP?$AAT?$AAE?$AAD?$AA?$CB?$AA?$AA@ 00479534     ccClient.obj
 0003:00001574       ??_7ccClient@@6B@          00479574     ccClient.obj
 0003:00001580       ??_C@_1IK@CIFBAAFK@?$AAC?$AA?3?$AA?2?$AAP?$AAr?$AAo?$AAg?$AAr?$AAa?$AAm?$AA?5?$AAF?$AAi?$AAl?$AAe?$AAs?$AA?5?$AA?$CI?$AAx?$AA8?$AA6?$AA?$CJ?$AA?2?$AAM?$AAi?$AAc?$AAr?$AAo?$AAs?$AAo?$AAf?$AAt@ 00479580     ccClient.obj
 0003:00001628       ??_C@_1CO@FNIDKHMC@?$AAd?$AAe?$AAq?$AAu?$AAe?$AA?5?$AAe?$AAm?$AAp?$AAt?$AAy?$AA?5?$AAb?$AAe?$AAf?$AAo?$AAr?$AAe?$AA?5?$AAp?$AAo?$AAp?$AA?$AA@ 00479628     ccClient.obj
 0003:00001660       ??_C@_0BC@KBDMBKEH@deque?$DMT?$DO?5too?5long?$AA@ 00479660     ccClient.obj
 0003:00001678       ??_C@_1EE@INPCGGNP@?$AAd?$AAe?$AAq?$AAu?$AAe?$AA?5?$AAi?$AAt?$AAe?$AAr?$AAa?$AAt?$AAo?$AAr?$AA?5?$AAn?$AAo?$AAt?$AA?5?$AAd?$AAe?$AAr?$AAe?$AAf?$AAe?$AAr?$AAe?$AAn?$AAc?$AAa?$AAb?$AAl@ 00479678     ccClient.obj
 0003:000016cc       ??_C@_0CE@OFMIGAMM@Standard?5C?$CL?$CL?5Libraries?5Out?5of?5Ra@ 004796cc     ccClient.obj
 0003:000016f8       ??_C@_1FG@IBPIFFN@?$AA?$CC?$AAS?$AAt?$AAa?$AAn?$AAd?$AAa?$AAr?$AAd?$AA?5?$AAC?$AA?$CL?$AA?$CL?$AA?5?$AAL?$AAi?$AAb?$AAr?$AAa?$AAr?$AAi?$AAe?$AAs?$AA?5?$AAO?$AAu?$AAt?$AA?5?$AAo?$AAf?$AA?5?$AAR@ 004796f8     ccClient.obj
 0003:00001760       ??_C@_15GANGMFKL@?$AA?$CF?$AAs?$AA?$AA@ 00479760     ccClient.obj
 0003:00001768       ??_C@_1BHG@DFCOEAOK@?$AAs?$AAt?$AAd?$AA?3?$AA?3?$AA_?$AAD?$AAe?$AAq?$AAu?$AAe?$AA_?$AAc?$AAo?$AAn?$AAs?$AAt?$AA_?$AAi?$AAt?$AAe?$AAr?$AAa?$AAt?$AAo?$AAr?$AA?$DM?$AAc?$AAl?$AAa?$AAs?$AAs@ 00479768     ccClient.obj
 0003:00001928       ??_C@_1BO@MEPPHOO@?$AA?$CC?$AAo?$AAu?$AAt?$AA?5?$AAo?$AAf?$AA?5?$AAr?$AAa?$AAn?$AAg?$AAe?$AA?$CC?$AA?$AA@ 00479928     ccClient.obj
 0003:0000194c       ??_C@_1CO@DGLIKNHI@?$AAi?$AAn?$AAv?$AAa?$AAl?$AAi?$AAd?$AA?5?$AAi?$AAt?$AAe?$AAr?$AAa?$AAt?$AAo?$AAr?$AA?5?$AAr?$AAa?$AAn?$AAg?$AAe?$AA?$AA@ 0047994c     ccClient.obj
 0003:00001988       ??_C@_1IO@LKIDJAMC@?$AAC?$AA?3?$AA?2?$AAP?$AAr?$AAo?$AAg?$AAr?$AAa?$AAm?$AA?5?$AAF?$AAi?$AAl?$AAe?$AAs?$AA?5?$AA?$CI?$AAx?$AA8?$AA6?$AA?$CJ?$AA?2?$AAM?$AAi?$AAc?$AAr?$AAo?$AAs?$AAo?$AAf?$AAt@ 00479988     ccClient.obj
 0003:00001e58       ??_7ccConfig@@6B@          00479e58     ccConfig.obj
 0003:00001e60       ??_C@_1IK@GEHGEPIJ@?$AAC?$AA?3?$AA?2?$AAP?$AAr?$AAo?$AAg?$AAr?$AAa?$AAm?$AA?5?$AAF?$AAi?$AAl?$AAe?$AAs?$AA?5?$AA?$CI?$AAx?$AA8?$AA6?$AA?$CJ?$AA?2?$AAM?$AAi?$AAc?$AAr?$AAo?$AAs?$AAo?$AAf?$AAt@ 00479e60     ccConfig.obj
 0003:00001f08       ??_C@_1EK@PPDBPCAN@?$AAm?$AAa?$AAp?$AA?1?$AAs?$AAe?$AAt?$AA?5?$AAe?$AAr?$AAa?$AAs?$AAe?$AA?5?$AAi?$AAt?$AAe?$AAr?$AAa?$AAt?$AAo?$AAr?$AA?5?$AAo?$AAu?$AAt?$AAs?$AAi?$AAd?$AAe?$AA?5?$AAr@ 00479f08     ccConfig.obj
 0003:00001f60       ??_C@_1EG@EHJFMBHJ@?$AAm?$AAa?$AAp?$AA?1?$AAs?$AAe?$AAt?$AA?5?$AAi?$AAt?$AAe?$AAr?$AAa?$AAt?$AAo?$AAr?$AA?5?$AAn?$AAo?$AAt?$AA?5?$AAi?$AAn?$AAc?$AAr?$AAe?$AAm?$AAe?$AAn?$AAt?$AAa?$AAb@ 00479f60     ccConfig.obj
 0003:00001fb8       ??_C@_1CFG@PGGKMBNC@?$AAs?$AAt?$AAd?$AA?3?$AA?3?$AA_?$AAT?$AAr?$AAe?$AAe?$AA_?$AAc?$AAo?$AAn?$AAs?$AAt?$AA_?$AAi?$AAt?$AAe?$AAr?$AAa?$AAt?$AAo?$AAr?$AA?$DM?$AAc?$AAl?$AAa?$AAs?$AAs?$AA?5@ 00479fb8     ccConfig.obj
 0003:00002288       ??_C@_1EI@FHEHNNNM@?$AAm?$AAa?$AAp?$AA?1?$AAs?$AAe?$AAt?$AA?5?$AAi?$AAt?$AAe?$AAr?$AAa?$AAt?$AAo?$AAr?$AA?5?$AAn?$AAo?$AAt?$AA?5?$AAd?$AAe?$AAr?$AAe?$AAf?$AAe?$AAr?$AAe?$AAn?$AAc?$AAa@ 0047a288     ccConfig.obj
 0003:000022e0       ??_C@_1CFE@PPLBLEGL@?$AAs?$AAt?$AAd?$AA?3?$AA?3?$AA_?$AAT?$AAr?$AAe?$AAe?$AA_?$AAc?$AAo?$AAn?$AAs?$AAt?$AA_?$AAi?$AAt?$AAe?$AAr?$AAa?$AAt?$AAo?$AAr?$AA?$DM?$AAc?$AAl?$AAa?$AAs?$AAs?$AA?5@ 0047a2e0     ccConfig.obj
 0003:000025ac       ??_C@_1DO@CFEEPGGJ@?$AAm?$AAa?$AAp?$AA?1?$AAs?$AAe?$AAt?$AA?5?$AAi?$AAt?$AAe?$AAr?$AAa?$AAt?$AAo?$AAr?$AAs?$AA?5?$AAi?$AAn?$AAc?$AAo?$AAm?$AAp?$AAa?$AAt?$AAi?$AAb?$AAl?$AAe?$AA?$AA@ 0047a5ac     ccConfig.obj
 0003:000025f8       ??_C@_0CI@FNPHFCCM@Standard?5C?$CL?$CL?5Libraries?5Invalid?5A@ 0047a5f8     ccConfig.obj
 0003:00002628       ??_C@_1FO@GJIHNDLM@?$AA?$CC?$AAS?$AAt?$AAa?$AAn?$AAd?$AAa?$AAr?$AAd?$AA?5?$AAC?$AA?$CL?$AA?$CL?$AA?5?$AAL?$AAi?$AAb?$AAr?$AAa?$AAr?$AAi?$AAe?$AAs?$AA?5?$AAI?$AAn?$AAv?$AAa?$AAl?$AAi?$AAd?$AA?5@ 0047a628     ccConfig.obj
 0003:00002698       ??_C@_1CFG@FGJHCIBH@?$AAs?$AAt?$AAd?$AA?3?$AA?3?$AA_?$AAT?$AAr?$AAe?$AAe?$AA_?$AAc?$AAo?$AAn?$AAs?$AAt?$AA_?$AAi?$AAt?$AAe?$AAr?$AAa?$AAt?$AAo?$AAr?$AA?$DM?$AAc?$AAl?$AAa?$AAs?$AAs?$AA?5@ 0047a698     ccConfig.obj
 0003:00002968       ??_C@_1CG@JNLFBNGN@?$AA?$CC?$AAi?$AAn?$AAv?$AAa?$AAl?$AAi?$AAd?$AA?5?$AAa?$AAr?$AAg?$AAu?$AAm?$AAe?$AAn?$AAt?$AA?$CC?$AA?$AA@ 0047a968     ccConfig.obj
 0003:00002998       ??_C@_1DM@KDEKGMPF@?$AAs?$AAt?$AAr?$AAi?$AAn?$AAg?$AA?5?$AAi?$AAt?$AAe?$AAr?$AAa?$AAt?$AAo?$AAr?$AAs?$AA?5?$AAi?$AAn?$AAc?$AAo?$AAm?$AAp?$AAa?$AAt?$AAi?$AAb?$AAl?$AAe?$AA?$AA@ 0047a998     ccConfig.obj
 0003:000029e0       ??_C@_1MA@BDELDFHB@?$AAs?$AAt?$AAd?$AA?3?$AA?3?$AA_?$AAS?$AAt?$AAr?$AAi?$AAn?$AAg?$AA_?$AAc?$AAo?$AAn?$AAs?$AAt?$AA_?$AAi?$AAt?$AAe?$AAr?$AAa?$AAt?$AAo?$AAr?$AA?$DM?$AAc?$AAl?$AAa?$AAs@ 0047a9e0     ccConfig.obj
 0003:00002ac8       ??_C@_0BB@MOGOBHAF@list?$DMT?$DO?5too?5long?$AA@ 0047aac8     ccConfig.obj
 0003:00002ae0       ??_C@_1EG@CNCHLAOB@?$AAs?$AAt?$AAr?$AAi?$AAn?$AAg?$AA?5?$AAi?$AAt?$AAe?$AAr?$AAa?$AAt?$AAo?$AAr?$AA?5?$AAn?$AAo?$AAt?$AA?5?$AAd?$AAe?$AAr?$AAe?$AAf?$AAe?$AAr?$AAe?$AAn?$AAc?$AAa?$AAb@ 0047aae0     ccConfig.obj
 0003:00002b38       ??_C@_1MG@GDGHDIKC@?$AAs?$AAt?$AAd?$AA?3?$AA?3?$AA_?$AAS?$AAt?$AAr?$AAi?$AAn?$AAg?$AA_?$AAc?$AAo?$AAn?$AAs?$AAt?$AA_?$AAi?$AAt?$AAe?$AAr?$AAa?$AAt?$AAo?$AAr?$AA?$DM?$AAc?$AAl?$AAa?$AAs@ 0047ab38     ccConfig.obj
 0003:00002c28       ??_C@_1EG@OKCGOALM@?$AAm?$AAa?$AAp?$AA?1?$AAs?$AAe?$AAt?$AA?5?$AAi?$AAt?$AAe?$AAr?$AAa?$AAt?$AAo?$AAr?$AA?5?$AAn?$AAo?$AAt?$AA?5?$AAd?$AAe?$AAc?$AAr?$AAe?$AAm?$AAe?$AAn?$AAt?$AAa?$AAb@ 0047ac28     ccConfig.obj
 0003:00002c80       ??_C@_1CFG@FFIHNBD@?$AAs?$AAt?$AAd?$AA?3?$AA?3?$AA_?$AAT?$AAr?$AAe?$AAe?$AA_?$AAc?$AAo?$AAn?$AAs?$AAt?$AA_?$AAi?$AAt?$AAe?$AAr?$AAa?$AAt?$AAo?$AAr?$AA?$DM?$AAc?$AAl?$AAa?$AAs?$AAs?$AA?5@ 0047ac80     ccConfig.obj
 0003:00002f50       ??_C@_1CE@IGJMOCCK@?$AAi?$AAn?$AAv?$AAa?$AAl?$AAi?$AAd?$AA?5?$AAo?$AAp?$AAe?$AAr?$AAa?$AAt?$AAo?$AAr?$AA?$DM?$AA?$AA@ 0047af50     ccConfig.obj
 0003:00002f7c       ??_C@_0BE@JONHPENG@map?1set?$DMT?$DO?5too?5long?$AA@ 0047af7c     ccConfig.obj
 0003:00002fac       ??_7decodeBNCSString@@6B@  0047afac     decodeBNCSString.obj
 0003:00002fb1       ??_C@_00CNPNBAHC@?$AA@     0047afb1     decodeBNCSString.obj
 0003:00002fb8       ??_7sizedBuffer@@6B@       0047afb8     sizedBuffer.obj
 0003:000034e8       ??_C@_1BBI@EFBPBNBF@?$AAs?$AAt?$AAd?$AA?3?$AA?3?$AA_?$AAT?$AAr?$AAe?$AAe?$AA_?$AAc?$AAo?$AAn?$AAs?$AAt?$AA_?$AAi?$AAt?$AAe?$AAr?$AAa?$AAt?$AAo?$AAr?$AA?$DM?$AAc?$AAl?$AAa?$AAs?$AAs?$AA?5@ 0047b4e8     CMD.obj
 0003:00003638       ??_C@_1BBI@BGNAEIBB@?$AAs?$AAt?$AAd?$AA?3?$AA?3?$AA_?$AAT?$AAr?$AAe?$AAe?$AA_?$AAc?$AAo?$AAn?$AAs?$AAt?$AA_?$AAi?$AAt?$AAe?$AAr?$AAa?$AAt?$AAo?$AAr?$AA?$DM?$AAc?$AAl?$AAa?$AAs?$AAs?$AA?5@ 0047b638     CMD.obj
 0003:00003b74       ??_C@_01EEMJAFIK@?6?$AA@   0047bb74     DIALOG.obj
 0003:00003b78       ??_C@_1II@KCNBAEMF@?$AAC?$AA?3?$AA?2?$AAP?$AAr?$AAo?$AAg?$AAr?$AAa?$AAm?$AA?5?$AAF?$AAi?$AAl?$AAe?$AAs?$AA?5?$AA?$CI?$AAx?$AA8?$AA6?$AA?$CJ?$AA?2?$AAM?$AAi?$AAc?$AAr?$AAo?$AAs?$AAo?$AAf?$AAt@ 0047bb78     DIALOG.obj
 0003:00003c20       ??_C@_1EC@HILJLMMC@?$AAl?$AAi?$AAs?$AAt?$AA?5?$AAi?$AAt?$AAe?$AAr?$AAa?$AAt?$AAo?$AAr?$AA?5?$AAn?$AAo?$AAt?$AA?5?$AAd?$AAe?$AAr?$AAe?$AAf?$AAe?$AAr?$AAe?$AAn?$AAc?$AAa?$AAb?$AAl?$AAe@ 0047bc20     DIALOG.obj
 0003:00003c70       ??_C@_1OE@HPDMDNGI@?$AAs?$AAt?$AAd?$AA?3?$AA?3?$AA_?$AAL?$AAi?$AAs?$AAt?$AA_?$AAc?$AAo?$AAn?$AAs?$AAt?$AA_?$AAi?$AAt?$AAe?$AAr?$AAa?$AAt?$AAo?$AAr?$AA?$DM?$AAc?$AAl?$AAa?$AAs?$AAs?$AA?5@ 0047bc70     DIALOG.obj
 0003:00003d88       ??_C@_1EA@DOGAGKDH@?$AAl?$AAi?$AAs?$AAt?$AA?5?$AAi?$AAt?$AAe?$AAr?$AAa?$AAt?$AAo?$AAr?$AA?5?$AAn?$AAo?$AAt?$AA?5?$AAi?$AAn?$AAc?$AAr?$AAe?$AAm?$AAe?$AAn?$AAt?$AAa?$AAb?$AAl?$AAe?$AA?$AA@ 0047bd88     DIALOG.obj
 0003:00003dd8       ??_C@_1OG@EJCDCJBI@?$AAs?$AAt?$AAd?$AA?3?$AA?3?$AA_?$AAL?$AAi?$AAs?$AAt?$AA_?$AAc?$AAo?$AAn?$AAs?$AAt?$AA_?$AAi?$AAt?$AAe?$AAr?$AAa?$AAt?$AAo?$AAr?$AA?$DM?$AAc?$AAl?$AAa?$AAs?$AAs?$AA?5@ 0047bdd8     DIALOG.obj
 0003:00003eec       ??_C@_1DI@MDELDGPI@?$AAl?$AAi?$AAs?$AAt?$AA?5?$AAi?$AAt?$AAe?$AAr?$AAa?$AAt?$AAo?$AAr?$AAs?$AA?5?$AAi?$AAn?$AAc?$AAo?$AAm?$AAp?$AAa?$AAt?$AAi?$AAb?$AAl?$AAe?$AA?$AA@ 0047beec     DIALOG.obj
 0003:00003f30       ??_C@_1OG@OJNOMANN@?$AAs?$AAt?$AAd?$AA?3?$AA?3?$AA_?$AAL?$AAi?$AAs?$AAt?$AA_?$AAc?$AAo?$AAn?$AAs?$AAt?$AA_?$AAi?$AAt?$AAe?$AAr?$AAa?$AAt?$AAo?$AAr?$AA?$DM?$AAc?$AAl?$AAa?$AAs?$AAs?$AA?5@ 0047bf30     DIALOG.obj
 0003:00004070       ??_C@_1BBM@HADNKPCB@?$AAs?$AAt?$AAd?$AA?3?$AA?3?$AA_?$AAT?$AAr?$AAe?$AAe?$AA_?$AAc?$AAo?$AAn?$AAs?$AAt?$AA_?$AAi?$AAt?$AAe?$AAr?$AAa?$AAt?$AAo?$AAr?$AA?$DM?$AAc?$AAl?$AAa?$AAs?$AAs?$AA?5@ 0047c070     filterDialog.obj
 0003:000041c8       ??_C@_1EE@BBMFLDOC@?$AAl?$AAi?$AAs?$AAt?$AA?5?$AAe?$AAr?$AAa?$AAs?$AAe?$AA?5?$AAi?$AAt?$AAe?$AAr?$AAa?$AAt?$AAo?$AAr?$AA?5?$AAo?$AAu?$AAt?$AAs?$AAi?$AAd?$AAe?$AA?5?$AAr?$AAa?$AAn?$AAg@ 0047c1c8     filterDialog.obj
 0003:00004220       ??_C@_1BHA@GCEHFIND@?$AAs?$AAt?$AAd?$AA?3?$AA?3?$AA_?$AAL?$AAi?$AAs?$AAt?$AA_?$AAc?$AAo?$AAn?$AAs?$AAt?$AA_?$AAi?$AAt?$AAe?$AAr?$AAa?$AAt?$AAo?$AAr?$AA?$DM?$AAc?$AAl?$AAa?$AAs?$AAs?$AA?5@ 0047c220     filterDialog.obj
 0003:000043e0       ??_C@_1BHC@HDMKNGMH@?$AAs?$AAt?$AAd?$AA?3?$AA?3?$AA_?$AAL?$AAi?$AAs?$AAt?$AA_?$AAc?$AAo?$AAn?$AAs?$AAt?$AA_?$AAi?$AAt?$AAe?$AAr?$AAa?$AAt?$AAo?$AAr?$AA?$DM?$AAc?$AAl?$AAa?$AAs?$AAs?$AA?5@ 0047c3e0     filterDialog.obj
 0003:000045a0       ??_C@_1BHC@NDDHDPAC@?$AAs?$AAt?$AAd?$AA?3?$AA?3?$AA_?$AAL?$AAi?$AAs?$AAt?$AA_?$AAc?$AAo?$AAn?$AAs?$AAt?$AA_?$AAi?$AAt?$AAe?$AAr?$AAa?$AAt?$AAo?$AAr?$AA?$DM?$AAc?$AAl?$AAa?$AAs?$AAs?$AA?5@ 0047c5a0     filterDialog.obj
 0003:00004760       ??_C@_1BBK@PNNHLKHI@?$AAs?$AAt?$AAd?$AA?3?$AA?3?$AA_?$AAT?$AAr?$AAe?$AAe?$AA_?$AAc?$AAo?$AAn?$AAs?$AAt?$AA_?$AAi?$AAt?$AAe?$AAr?$AAa?$AAt?$AAo?$AAr?$AA?$DM?$AAc?$AAl?$AAa?$AAs?$AAs?$AA?5@ 0047c760     filterDialog.obj
 0003:000048b8       ??_C@_1BBM@NAMAEGOE@?$AAs?$AAt?$AAd?$AA?3?$AA?3?$AA_?$AAT?$AAr?$AAe?$AAe?$AA_?$AAc?$AAo?$AAn?$AAs?$AAt?$AA_?$AAi?$AAt?$AAe?$AAr?$AAa?$AAt?$AAo?$AAr?$AA?$DM?$AAc?$AAl?$AAa?$AAs?$AAs?$AA?5@ 0047c8b8     filterDialog.obj
 0003:00004d70       __real@0000000000000000    0047cd70     filtering.obj
 0003:00005100       ??_7importPreview@@6B@     0047d100     importPreview.obj
 0003:00005108       ??_C@_1BCA@DMFBCGHL@?$AAs?$AAt?$AAd?$AA?3?$AA?3?$AA_?$AAT?$AAr?$AAe?$AAe?$AA_?$AAc?$AAo?$AAn?$AAs?$AAt?$AA_?$AAi?$AAt?$AAe?$AAr?$AAa?$AAt?$AAo?$AAr?$AA?$DM?$AAc?$AAl?$AAa?$AAs?$AAs?$AA?5@ 0047d108     importPreview.obj
 0003:00005268       ??_C@_1BCA@JMKMMPLO@?$AAs?$AAt?$AAd?$AA?3?$AA?3?$AA_?$AAT?$AAr?$AAe?$AAe?$AA_?$AAc?$AAo?$AAn?$AAs?$AAt?$AA_?$AAi?$AAt?$AAe?$AAr?$AAa?$AAt?$AAo?$AAr?$AA?$DM?$AAc?$AAl?$AAa?$AAs?$AAs?$AA?5@ 0047d268     importPreview.obj
 0003:000053c8       ??_C@_1BBO@GEIEIILP@?$AAs?$AAt?$AAd?$AA?3?$AA?3?$AA_?$AAT?$AAr?$AAe?$AAe?$AA_?$AAc?$AAo?$AAn?$AAs?$AAt?$AA_?$AAi?$AAt?$AAe?$AAr?$AAa?$AAt?$AAo?$AAr?$AA?$DM?$AAc?$AAl?$AAa?$AAs?$AAs?$AA?5@ 0047d3c8     importPreview.obj
 0003:00005520       ??_C@_1BCA@MPGDJKLK@?$AAs?$AAt?$AAd?$AA?3?$AA?3?$AA_?$AAT?$AAr?$AAe?$AAe?$AA_?$AAc?$AAo?$AAn?$AAs?$AAt?$AA_?$AAi?$AAt?$AAe?$AAr?$AAa?$AAt?$AAo?$AAr?$AA?$DM?$AAc?$AAl?$AAa?$AAs?$AAs?$AA?5@ 0047d520     importPreview.obj
 0003:00005ba4       ??_7IccClientCallback@@6B@ 0047dba4     MAIN.obj
 0003:00005be0       ??_7cciCallbackHelper@@6B@ 0047dbe0     MAIN.obj
 0003:00005c18       ??_C@_0BB@HPDMKDPM@IW?5?$CFd?5?8?$CFs?8?5?$CFd?5?$CFd?$AA@ 0047dc18     MAIN.obj
 0003:00005c30       ??_C@_1BBI@OFOCPENA@?$AAs?$AAt?$AAd?$AA?3?$AA?3?$AA_?$AAT?$AAr?$AAe?$AAe?$AA_?$AAc?$AAo?$AAn?$AAs?$AAt?$AA_?$AAi?$AAt?$AAe?$AAr?$AAa?$AAt?$AAo?$AAr?$AA?$DM?$AAc?$AAl?$AAa?$AAs?$AAs?$AA?5@ 0047dc30     MAIN.obj
 0003:00005d80       ??_C@_1BBG@FMCKKHOH@?$AAs?$AAt?$AAd?$AA?3?$AA?3?$AA_?$AAT?$AAr?$AAe?$AAe?$AA_?$AAc?$AAo?$AAn?$AAs?$AAt?$AA_?$AAi?$AAt?$AAe?$AAr?$AAa?$AAt?$AAo?$AAr?$AA?$DM?$AAc?$AAl?$AAa?$AAs?$AAs?$AA?5@ 0047dd80     MAIN.obj
 0003:00006520       ??_7filterBase@@6B@        0047e520     PROF.obj
 0003:00006538       ??_7filterBlock@@6B@       0047e538     PROF.obj
 0003:0000654c       ??_C@_0N@BLBDEBJF@Block?5always?$AA@ 0047e54c     PROF.obj
 0003:00006560       ??_7filterChange@@6B@      0047e560     PROF.obj
 0003:00006574       ??_C@_0P@CGJPHGNI@On?5change?5only?$AA@ 0047e574     PROF.obj
 0003:0000658c       ??_7filters@@6B@           0047e58c     PROF.obj
 0003:00006594       ??_C@_01IHBHIGKO@?0?$AA@   0047e594     PROF.obj
 0003:00006598       ??_C@_05PIBOEKAB@block?$AA@ 0047e598     PROF.obj
 0003:000065a0       ??_C@_06BGNDGHEE@change?$AA@ 0047e5a0     PROF.obj
 0003:000065a8       ??_C@_07EIHJKMF@average?$AA@ 0047e5a8     PROF.obj
 0003:000065b8       ??_7?$filterAverage@N@@6B@ 0047e5b8     PROF.obj
 0003:000065d0       ??_7?$filterAverage@I@@6B@ 0047e5d0     PROF.obj
 0003:000065e8       ??_7?$filterAverage@H@@6B@ 0047e5e8     PROF.obj
 0003:000065fc       ??_C@_06NFBEFKOC@window?$AA@ 0047e5fc     PROF.obj
 0003:00006608       ??_7?$filterWindow@N@@6B@  0047e608     PROF.obj
 0003:00006620       ??_7?$filterWindow@I@@6B@  0047e620     PROF.obj
 0003:00006638       ??_7?$filterWindow@H@@6B@  0047e638     PROF.obj
 0003:0000664c       ??_C@_0BJ@FDJGPHJA@Average?3?5?$CFd?5samples?5?$CI?$CFs?$CJ?$AA@ 0047e64c     PROF.obj
 0003:0000666c       ??_C@_03LPPJIELD@?$CJ?3?5?$AA@ 0047e66c     PROF.obj
 0003:00006670       ??_C@_08BHJGHJ@Window?5?$CI?$AA@ 0047e670     PROF.obj
 0003:00006680       ??_C@_1BBM@IDAPBDOA@?$AAs?$AAt?$AAd?$AA?3?$AA?3?$AA_?$AAT?$AAr?$AAe?$AAe?$AA_?$AAc?$AAo?$AAn?$AAs?$AAt?$AA_?$AAi?$AAt?$AAe?$AAr?$AAa?$AAt?$AAo?$AAr?$AA?$DM?$AAc?$AAl?$AAa?$AAs?$AAs?$AA?5@ 0047e680     PROF.obj
 0003:000067e4       ??_C@_05CLMJGDKL@?$CF08lx?$AA@ 0047e7e4     bncsWM32db:BncsWM32.obj
 0003:0000684c       ??_C@_00A@?$AA@            0047e84c     htmlhelp:init.obj
 0003:00006854       ??_7cBncsVersion@@6B@      0047e854     BncsVersionInfodb:cBncsVersion.obj
 0003:0000685c       ??_C@_0BJ@KPNNKBCP@?2VarFileInfo?2Translation?$AA@ 0047e85c     BncsVersionInfodb:cBncsVersion.obj
 0003:0000687c       ??_C@_08EAKGLGNO@?$CF04X?$CF04X?$AA@ 0047e87c     BncsVersionInfodb:cBncsVersion.obj
 0003:00006888       ??_C@_0BP@OKGDDKKJ@?2StringFileInfo?2?$CFs?2FileVersion?$AA@ 0047e888     BncsVersionInfodb:cBncsVersion.obj
 0003:000068b0       ??_C@_0CD@DNOFBAPJ@?2StringFileInfo?2?$CFs?2FileDescripti@ 0047e8b0     BncsVersionInfodb:cBncsVersion.obj
 0003:000068dc       ??_C@_0BM@HLKDAPDC@?2StringFileInfo?2?$CFs?2Comments?$AA@ 0047e8dc     BncsVersionInfodb:cBncsVersion.obj
 0003:00006900       ??_C@_0CA@EHAODNDK@?2StringFileInfo?2?$CFs?2InternalName?$AA@ 0047e900     BncsVersionInfodb:cBncsVersion.obj
 0003:00006928       ??_C@_0BP@MGNIHEJF@?2StringFileInfo?2?$CFs?2ProductName?$AA@ 0047e928     BncsVersionInfodb:cBncsVersion.obj
 0003:00006950       ??_C@_0BP@IFNEMNK@?2StringFileInfo?2?$CFs?2CompanyName?$AA@ 0047e950     BncsVersionInfodb:cBncsVersion.obj
 0003:00006978       ??_C@_0CC@BENIJKPI@?2StringFileInfo?2?$CFs?2LegalCopyrigh@ 0047e978     BncsVersionInfodb:cBncsVersion.obj
 0003:000069a0       ??_C@_0CC@IAGJDCJF@?2StringFileInfo?2?$CFs?2ProductVersio@ 0047e9a0     BncsVersionInfodb:cBncsVersion.obj
 0003:000069c8       ??_C@_0CD@CHCCGCCP@?2StringFileInfo?2?$CFs?2LegalTradeMar@ 0047e9c8     BncsVersionInfodb:cBncsVersion.obj
 0003:000069f4       ??_C@_0CA@GODGGLFO@?2StringFileInfo?2?$CFs?2PrivateBuild?$AA@ 0047e9f4     BncsVersionInfodb:cBncsVersion.obj
 0003:00006a1c       ??_C@_0CE@NLHFPOLE@?2StringFileInfo?2?$CFs?2OriginalFileN@ 0047ea1c     BncsVersionInfodb:cBncsVersion.obj
 0003:00006a48       ??_C@_0CA@OOEBJJOA@?2StringFileInfo?2?$CFs?2SpecialBuild?$AA@ 0047ea48     BncsVersionInfodb:cBncsVersion.obj
 0003:00006a6e       ?value@?$integral_constant@_N$0A@@std@@2_NB 0047ea6e     msvcprtd:newaop_s.obj
 0003:00006a6f       ?value@?$integral_constant@_N$00@std@@2_NB 0047ea6f     msvcprtd:newaop_s.obj
 0003:00006a70       ??_C@_1MC@KPMPFEII@?$AA?$CI?$AA_?$AA_?$AAo?$AAn?$AAe?$AAx?$AAi?$AAt?$AAb?$AAe?$AAg?$AAi?$AAn?$AA?5?$AA?$CB?$AA?$DN?$AA?5?$AAN?$AAU?$AAL?$AAL?$AA?5?$AA?$CG?$AA?$CG?$AA?5?$AA_?$AA_?$AAo?$AAn?$AAe?$AAx@ 0047ea70     MSVCRTD:atonexit.obj
 0003:00006b58       ??_C@_1FK@IGIDCAPD@?$AAf?$AA?3?$AA?2?$AAd?$AAd?$AA?2?$AAv?$AAc?$AAt?$AAo?$AAo?$AAl?$AAs?$AA?2?$AAc?$AAr?$AAt?$AA?2?$AAc?$AAr?$AAt?$AAw?$AA3?$AA2?$AA?2?$AAd?$AAl?$AAl?$AAs?$AAt?$AAu?$AAf@ 0047eb58     MSVCRTD:atonexit.obj
 0003:00006bc4       ??_C@_0CN@LMJJPMEG@f?3?2dd?2vctools?2crt?2crtw32?2dllstuf@ 0047ebc4     MSVCRTD:atonexit.obj
 0003:00006c00       ??_7type_info@@6B@         0047ec00     MSVCRTD:ti_inst.obj
 0003:00006c18       ??_C@_1FA@DALEHHGL@?$AA_?$AA_?$AAn?$AAa?$AAt?$AAi?$AAv?$AAe?$AA_?$AAs?$AAt?$AAa?$AAr?$AAt?$AAu?$AAp?$AA_?$AAs?$AAt?$AAa?$AAt?$AAe?$AA?5?$AA?$DN?$AA?$DN?$AA?5?$AA_?$AA_?$AAi?$AAn?$AAi?$AAt@ 0047ec18     MSVCRTD:crtexew.obj
 0003:00006c78       ??_C@_1FG@DKNDLLJO@?$AAf?$AA?3?$AA?2?$AAd?$AAd?$AA?2?$AAv?$AAc?$AAt?$AAo?$AAo?$AAl?$AAs?$AA?2?$AAc?$AAr?$AAt?$AA?2?$AAc?$AAr?$AAt?$AAw?$AA3?$AA2?$AA?2?$AAd?$AAl?$AAl?$AAs?$AAt?$AAu?$AAf@ 0047ec78     MSVCRTD:crtexew.obj
 0003:00006da0       ??_C@_0NN@NGPKDKPD@The?5value?5of?5ESP?5was?5not?5properl@ 0047eda0     MSVCRTD:error.obj
 0003:00006eb0       ??_C@_0BBN@GPMLNJCF@A?5cast?5to?5a?5smaller?5data?5type?5ha@ 0047eeb0     MSVCRTD:error.obj
 0003:00007008       ??_C@_0BN@FFOINMNJ@Stack?5memory?5was?5corrupted?6?$AN?$AA@ 0047f008     MSVCRTD:error.obj
 0003:0000702c       ??_C@_0DG@HKJMLLLP@A?5local?5variable?5was?5used?5before@ 0047f02c     MSVCRTD:error.obj
 0003:0000706c       ??_C@_0CM@NGINOKPC@Stack?5memory?5around?5_alloca?5was?5@ 0047f06c     MSVCRTD:error.obj
 0003:000070a0       ??_C@_0BO@GNIAFIKK@Unknown?5Runtime?5Check?5Error?6?$AN?$AA@ 0047f0a0     MSVCRTD:error.obj
 0003:000070c8       ??_C@_1GM@OLMCBDMB@?$AAR?$AAu?$AAn?$AAt?$AAi?$AAm?$AAe?$AA?5?$AAC?$AAh?$AAe?$AAc?$AAk?$AA?5?$AAE?$AAr?$AAr?$AAo?$AAr?$AA?4?$AA?6?$AA?$AN?$AA?5?$AAU?$AAn?$AAa?$AAb?$AAl?$AAe?$AA?5?$AAt?$AAo@ 0047f0c8     MSVCRTD:error.obj
 0003:00007150       ??_C@_1EA@NFKNIFJP@?$AAR?$AAu?$AAn?$AA?9?$AAT?$AAi?$AAm?$AAe?$AA?5?$AAC?$AAh?$AAe?$AAc?$AAk?$AA?5?$AAF?$AAa?$AAi?$AAl?$AAu?$AAr?$AAe?$AA?5?$AA?$CD?$AA?$CF?$AAd?$AA?5?$AA?9?$AA?5?$AA?$CF?$AAs?$AA?$AA@ 0047f150     MSVCRTD:error.obj
 0003:0000719c       ??_C@_0BB@PFFGGCJP@Unknown?5Filename?$AA@ 0047f19c     MSVCRTD:error.obj
 0003:000071b0       ??_C@_0BE@GNBOBNCK@Unknown?5Module?5Name?$AA@ 0047f1b0     MSVCRTD:error.obj
 0003:000071c8       ??_C@_0CA@IODNCDPG@Run?9Time?5Check?5Failure?5?$CD?$CFd?5?9?5?$CFs?$AA@ 0047f1c8     MSVCRTD:error.obj
 0003:000071f0       ??_C@_0CG@IAFNJNEE@Stack?5corrupted?5near?5unknown?5var@ 0047f1f0     MSVCRTD:error.obj
 0003:00007220       ??_C@_05MKKEDADM@?$CF?42X?5?$AA@ 0047f220     MSVCRTD:error.obj
 0003:00007228       ??_C@_1BG@OILDLIOJ@?$AAu?$AAs?$AAe?$AAr?$AA3?$AA2?$AA?4?$AAd?$AAl?$AAl?$AA?$AA@ 0047f228     MSVCRTD:error.obj
 0003:00007244       ??_C@_09FOPFMPEJ@wsprintfA?$AA@ 0047f244     MSVCRTD:error.obj
 0003:00007250       ??_C@_0EJ@LJKNEOLN@Stack?5area?5around?5_alloca?5memory@ 0047f250     MSVCRTD:error.obj
 0003:000072a8       ??_C@_08OMAHNMHJ@?6Data?3?5?$DM?$AA@ 0047f2a8     MSVCRTD:error.obj
 0003:000072b4       ??_C@_0CK@DKGBICFE@?6Allocation?5number?5within?5this?5f@ 0047f2b4     MSVCRTD:error.obj
 0003:000072e8       ??_C@_07DFDJCKFN@?6Size?3?5?$AA@ 0047f2e8     MSVCRTD:error.obj
 0003:000072f4       ??_C@_0N@MHFFIMFG@?6Address?3?50x?$AA@ 0047f2f4     MSVCRTD:error.obj
 0003:00007308       ??_C@_0EI@CLEPFNGI@Stack?5area?5around?5_alloca?5memory@ 0047f308     MSVCRTD:error.obj
 0003:00007360       ??_C@_0BC@KIBAILCI@?$CFs?$CFs?$CFp?$CFs?$CFld?$CFs?$CFd?$CFs?$AA@ 0047f360     MSVCRTD:error.obj
 0003:00007378       ??_C@_02LLMPMKNF@?$DO?5?$AA@ 0047f378     MSVCRTD:error.obj
 0003:0000737c       ??_C@_08KJEDNCKC@?$CFs?$CFs?$CFs?$CFs?$AA@ 0047f37c     MSVCRTD:error.obj
 0003:00007388       ??_C@_0DE@OHJBPMBP@A?5variable?5is?5being?5used?5without@ 0047f388     MSVCRTD:error.obj
 0003:000073e0       ??_C@_0BJ@HEGAHDFO@Stack?5pointer?5corruption?$AA@ 0047f3e0     MSVCRTD:userapi.obj
 0003:00007400       ??_C@_0CK@FEGOIOPB@Cast?5to?5smaller?5type?5causing?5los@ 0047f400     MSVCRTD:userapi.obj
 0003:00007434       ??_C@_0BI@CIGMDCBH@Stack?5memory?5corruption?$AA@ 0047f434     MSVCRTD:userapi.obj
 0003:00007450       ??_C@_0CK@CNLNOEPB@Local?5variable?5used?5before?5initi@ 0047f450     MSVCRTD:userapi.obj
 0003:00007484       ??_C@_0BP@OGBCLIBO@Stack?5around?5_alloca?5corrupted?$AA@ 0047f484     MSVCRTD:userapi.obj
 0003:000074ac       ?ProcessDetach@NativeDll@<CrtImplementationDetails>@@0IB 0047f4ac     MSVCRTD:unhandld.obj
 0003:000074b0       ?ProcessAttach@NativeDll@<CrtImplementationDetails>@@0IB 0047f4b0     MSVCRTD:unhandld.obj
 0003:000074b4       ?ThreadAttach@NativeDll@<CrtImplementationDetails>@@0IB 0047f4b4     MSVCRTD:unhandld.obj
 0003:000074b8       ?ThreadDetach@NativeDll@<CrtImplementationDetails>@@0IB 0047f4b8     MSVCRTD:unhandld.obj
 0003:000074bc       ?ProcessVerifier@NativeDll@<CrtImplementationDetails>@@0IB 0047f4bc     MSVCRTD:unhandld.obj
 0003:000074c0       ??_C@_1FI@JJOJLGLE@?$AAf?$AA?3?$AA?2?$AAd?$AAd?$AA?2?$AAv?$AAc?$AAt?$AAo?$AAo?$AAl?$AAs?$AA?2?$AAc?$AAr?$AAt?$AA?2?$AAc?$AAr?$AAt?$AAw?$AA3?$AA2?$AA?2?$AAs?$AAt?$AAa?$AAr?$AAt?$AAu?$AAp@ 0047f4c0     MSVCRTD:fp8.obj
 0003:0000752c       ??_C@_1CK@JMKHCBEI@?$AA_?$AAs?$AAe?$AAt?$AAd?$AAe?$AAf?$AAa?$AAu?$AAl?$AAt?$AAp?$AAr?$AAe?$AAc?$AAi?$AAs?$AAi?$AAo?$AAn?$AA?$AA@ 0047f52c     MSVCRTD:fp8.obj
 0003:00007560       ??_C@_1GE@KOCFNGPB@?$AA_?$AAc?$AAo?$AAn?$AAt?$AAr?$AAo?$AAl?$AAf?$AAp?$AA_?$AAs?$AA?$CI?$AA?$CI?$AA?$CI?$AAv?$AAo?$AAi?$AAd?$AA?5?$AA?$CK?$AA?$CJ?$AA0?$AA?$CJ?$AA?0?$AA?5?$AA0?$AAx?$AA0?$AA0?$AA0?$AA1@ 0047f560     MSVCRTD:fp8.obj
 0003:00007624       ?LocalIdBitWidth@CrossScopeId@CodeViewInfo@@2IB 0047f624     MSVCRTD:pdblkup.obj
 0003:00007628       ?IdScopeBitWidth@CrossScopeId@CodeViewInfo@@2IB 0047f628     MSVCRTD:pdblkup.obj
 0003:0000762c       ?StartCrossScopeId@CrossScopeId@CodeViewInfo@@2IB 0047f62c     MSVCRTD:pdblkup.obj
 0003:00007630       ?LocalIdMask@CrossScopeId@CodeViewInfo@@2IB 0047f630     MSVCRTD:pdblkup.obj
 0003:00007634       ?ScopeIdMask@CrossScopeId@CodeViewInfo@@2IB 0047f634     MSVCRTD:pdblkup.obj
 0003:00007638       ?MaxLocalId@CrossScopeId@CodeViewInfo@@2IB 0047f638     MSVCRTD:pdblkup.obj
 0003:0000763c       ?MaxScopeId@CrossScopeId@CodeViewInfo@@2IB 0047f63c     MSVCRTD:pdblkup.obj
 0003:00007640       ??_C@_1BK@GAEMIDIL@?$AAA?$AAD?$AAV?$AAA?$AAP?$AAI?$AA3?$AA2?$AA?4?$AAD?$AAL?$AAL?$AA?$AA@ 0047f640     MSVCRTD:pdblkup.obj
 0003:00007660       ??_C@_0O@COHOBMLB@RegOpenKeyExW?$AA@ 0047f660     MSVCRTD:pdblkup.obj
 0003:00007670       ??_C@_0BB@GLNAEDBD@RegQueryValueExW?$AA@ 0047f670     MSVCRTD:pdblkup.obj
 0003:00007684       ??_C@_0M@HLOHPNFA@RegCloseKey?$AA@ 0047f684     MSVCRTD:pdblkup.obj
 0003:00007698       ??_C@_1FM@EGIBBNPP@?$AAS?$AAO?$AAF?$AAT?$AAW?$AAA?$AAR?$AAE?$AA?2?$AAM?$AAi?$AAc?$AAr?$AAo?$AAs?$AAo?$AAf?$AAt?$AA?2?$AAV?$AAi?$AAs?$AAu?$AAa?$AAl?$AAS?$AAt?$AAu?$AAd?$AAi?$AAo?$AA?2@ 0047f698     MSVCRTD:pdblkup.obj
 0003:00007708       ??_C@_1BG@EABPBLLF@?$AAP?$AAr?$AAo?$AAd?$AAu?$AAc?$AAt?$AAD?$AAi?$AAr?$AA?$AA@ 0047f708     MSVCRTD:pdblkup.obj
 0003:00007748       ??_C@_1BC@EOIMGOME@?$AAM?$AAS?$AAP?$AAD?$AAB?$AA1?$AA2?$AA0?$AA?$AA@ 0047f748     MSVCRTD:pdblkup.obj
 0003:00007760       ??_C@_0BB@KCIACLNC@PDBOpenValidate5?$AA@ 0047f760     MSVCRTD:pdblkup.obj
 0003:00007774       ??_C@_01KDCPPGHE@r?$AA@    0047f774     MSVCRTD:pdblkup.obj
 0003:00007778       __load_config_used         0047f778     MSVCRTD:loadcfg.obj
 0003:00007af8       ??_R4error_category@std@@6B@ 0047faf8     ccCheck.obj
 0003:00007b10       ??_R3error_category@std@@8 0047fb10     ccCheck.obj
 0003:00007b24       ??_R2error_category@std@@8 0047fb24     ccCheck.obj
 0003:00007b2c       ??_R1A@?0A@EA@error_category@std@@8 0047fb2c     ccCheck.obj
 0003:00007b50       ??_R4_Generic_error_category@std@@6B@ 0047fb50     ccCheck.obj
 0003:00007b68       ??_R3_Generic_error_category@std@@8 0047fb68     ccCheck.obj
 0003:00007b7c       ??_R2_Generic_error_category@std@@8 0047fb7c     ccCheck.obj
 0003:00007b88       ??_R1A@?0A@EA@_Generic_error_category@std@@8 0047fb88     ccCheck.obj
 0003:00007bac       ??_R4_Iostream_error_category@std@@6B@ 0047fbac     ccCheck.obj
 0003:00007bc4       ??_R3_Iostream_error_category@std@@8 0047fbc4     ccCheck.obj
 0003:00007bd8       ??_R2_Iostream_error_category@std@@8 0047fbd8     ccCheck.obj
 0003:00007be8       ??_R1A@?0A@EA@_Iostream_error_category@std@@8 0047fbe8     ccCheck.obj
 0003:00007c0c       ??_R4_System_error_category@std@@6B@ 0047fc0c     ccCheck.obj
 0003:00007c24       ??_R3_System_error_category@std@@8 0047fc24     ccCheck.obj
 0003:00007c38       ??_R2_System_error_category@std@@8 0047fc38     ccCheck.obj
 0003:00007c48       ??_R1A@?0A@EA@_System_error_category@std@@8 0047fc48     ccCheck.obj
 0003:00007c6c       ??_R4ccCheck@@6B@          0047fc6c     ccCheck.obj
 0003:00007c84       ??_R3ccCheck@@8            0047fc84     ccCheck.obj
 0003:00007c98       ??_R2ccCheck@@8            0047fc98     ccCheck.obj
 0003:00007ca0       ??_R1A@?0A@EA@ccCheck@@8   0047fca0     ccCheck.obj
 0003:00007cc4       ??_R4ccClient@@6B@         0047fcc4     ccClient.obj
 0003:00007cdc       ??_R3ccClient@@8           0047fcdc     ccClient.obj
 0003:00007cf0       ??_R2ccClient@@8           0047fcf0     ccClient.obj
 0003:00007cfc       ??_R1A@?0A@EA@ccClient@@8  0047fcfc     ccClient.obj
 0003:00007d20       ??_R4ccConfig@@6B@         0047fd20     ccConfig.obj
 0003:00007d38       ??_R3ccConfig@@8           0047fd38     ccConfig.obj
 0003:00007d4c       ??_R2ccConfig@@8           0047fd4c     ccConfig.obj
 0003:00007d54       ??_R1A@?0A@EA@ccConfig@@8  0047fd54     ccConfig.obj
 0003:00007d78       ??_R4decodeBNCSString@@6B@ 0047fd78     decodeBNCSString.obj
 0003:00007d90       ??_R3decodeBNCSString@@8   0047fd90     decodeBNCSString.obj
 0003:00007da4       ??_R2decodeBNCSString@@8   0047fda4     decodeBNCSString.obj
 0003:00007dac       ??_R1A@?0A@EA@decodeBNCSString@@8 0047fdac     decodeBNCSString.obj
 0003:00007dd0       ??_R4sizedBuffer@@6B@      0047fdd0     sizedBuffer.obj
 0003:00007de8       ??_R3sizedBuffer@@8        0047fde8     sizedBuffer.obj
 0003:00007dfc       ??_R2sizedBuffer@@8        0047fdfc     sizedBuffer.obj
 0003:00007e04       ??_R1A@?0A@EA@sizedBuffer@@8 0047fe04     sizedBuffer.obj
 0003:00007e28       ??_R4importPreview@@6B@    0047fe28     importPreview.obj
 0003:00007e40       ??_R3importPreview@@8      0047fe40     importPreview.obj
 0003:00007e54       ??_R2importPreview@@8      0047fe54     importPreview.obj
 0003:00007e5c       ??_R1A@?0A@EA@importPreview@@8 0047fe5c     importPreview.obj
 0003:00007e80       ??_R4IccClientCallback@@6B@ 0047fe80     MAIN.obj
 0003:00007e98       ??_R3IccClientCallback@@8  0047fe98     MAIN.obj
 0003:00007eac       ??_R2IccClientCallback@@8  0047feac     MAIN.obj
 0003:00007eb4       ??_R1A@?0A@EA@IccClientCallback@@8 0047feb4     MAIN.obj
 0003:00007ed8       ??_R4cciCallbackHelper@@6B@ 0047fed8     MAIN.obj
 0003:00007ef0       ??_R3cciCallbackHelper@@8  0047fef0     MAIN.obj
 0003:00007f04       ??_R2cciCallbackHelper@@8  0047ff04     MAIN.obj
 0003:00007f10       ??_R1A@?0A@EA@cciCallbackHelper@@8 0047ff10     MAIN.obj
 0003:00007f34       ??_R4filterBase@@6B@       0047ff34     PROF.obj
 0003:00007f4c       ??_R3filterBase@@8         0047ff4c     PROF.obj
 0003:00007f60       ??_R2filterBase@@8         0047ff60     PROF.obj
 0003:00007f68       ??_R1A@?0A@EA@filterBase@@8 0047ff68     PROF.obj
 0003:00007f8c       ??_R4filters@@6B@          0047ff8c     PROF.obj
 0003:00007fa4       ??_R3filters@@8            0047ffa4     PROF.obj
 0003:00007fb8       ??_R2filters@@8            0047ffb8     PROF.obj
 0003:00007fc0       ??_R1A@?0A@EA@filters@@8   0047ffc0     PROF.obj
 0003:00007fe4       ??_R4filterBlock@@6B@      0047ffe4     PROF.obj
 0003:00007ffc       ??_R3filterBlock@@8        0047fffc     PROF.obj
 0003:00008010       ??_R2filterBlock@@8        00480010     PROF.obj
 0003:0000801c       ??_R1A@?0A@EA@filterBlock@@8 0048001c     PROF.obj
 0003:00008040       ??_R4filterChange@@6B@     00480040     PROF.obj
 0003:00008058       ??_R3filterChange@@8       00480058     PROF.obj
 0003:0000806c       ??_R2filterChange@@8       0048006c     PROF.obj
 0003:00008078       ??_R1A@?0A@EA@filterChange@@8 00480078     PROF.obj
 0003:0000809c       ??_R4?$filterAverage@N@@6B@ 0048009c     PROF.obj
 0003:000080b4       ??_R3?$filterAverage@N@@8  004800b4     PROF.obj
 0003:000080c8       ??_R2?$filterAverage@N@@8  004800c8     PROF.obj
 0003:000080d4       ??_R1A@?0A@EA@?$filterAverage@N@@8 004800d4     PROF.obj
 0003:000080f8       ??_R4?$filterAverage@I@@6B@ 004800f8     PROF.obj
 0003:00008110       ??_R3?$filterAverage@I@@8  00480110     PROF.obj
 0003:00008124       ??_R2?$filterAverage@I@@8  00480124     PROF.obj
 0003:00008130       ??_R1A@?0A@EA@?$filterAverage@I@@8 00480130     PROF.obj
 0003:00008154       ??_R4?$filterAverage@H@@6B@ 00480154     PROF.obj
 0003:0000816c       ??_R3?$filterAverage@H@@8  0048016c     PROF.obj
 0003:00008180       ??_R2?$filterAverage@H@@8  00480180     PROF.obj
 0003:0000818c       ??_R1A@?0A@EA@?$filterAverage@H@@8 0048018c     PROF.obj
 0003:000081b0       ??_R4?$filterWindow@N@@6B@ 004801b0     PROF.obj
 0003:000081c8       ??_R3?$filterWindow@N@@8   004801c8     PROF.obj
 0003:000081dc       ??_R2?$filterWindow@N@@8   004801dc     PROF.obj
 0003:000081e8       ??_R1A@?0A@EA@?$filterWindow@N@@8 004801e8     PROF.obj
 0003:0000820c       ??_R4?$filterWindow@I@@6B@ 0048020c     PROF.obj
 0003:00008224       ??_R3?$filterWindow@I@@8   00480224     PROF.obj
 0003:00008238       ??_R2?$filterWindow@I@@8   00480238     PROF.obj
 0003:00008244       ??_R1A@?0A@EA@?$filterWindow@I@@8 00480244     PROF.obj
 0003:00008268       ??_R4?$filterWindow@H@@6B@ 00480268     PROF.obj
 0003:00008280       ??_R3?$filterWindow@H@@8   00480280     PROF.obj
 0003:00008294       ??_R2?$filterWindow@H@@8   00480294     PROF.obj
 0003:000082a0       ??_R1A@?0A@EA@?$filterWindow@H@@8 004802a0     PROF.obj
 0003:000082c4       ??_R4cBncsVersion@@6B@     004802c4     BncsVersionInfodb:cBncsVersion.obj
 0003:000082dc       ??_R3cBncsVersion@@8       004802dc     BncsVersionInfodb:cBncsVersion.obj
 0003:000082f0       ??_R2cBncsVersion@@8       004802f0     BncsVersionInfodb:cBncsVersion.obj
 0003:000082f8       ??_R1A@?0A@EA@cBncsVersion@@8 004802f8     BncsVersionInfodb:cBncsVersion.obj
 0003:0000831c       ??_R4type_info@@6B@        0048031c     MSVCRTD:ti_inst.obj
 0003:00008334       ??_R3type_info@@8          00480334     MSVCRTD:ti_inst.obj
 0003:00008348       ??_R2type_info@@8          00480348     MSVCRTD:ti_inst.obj
 0003:00008350       ??_R1A@?0A@EA@type_info@@8 00480350     MSVCRTD:ti_inst.obj
 0003:000084ac       ___rtc_iaa                 004804ac     MSVCRTD:initsect.obj
 0003:00008740       ___rtc_izz                 00480740     MSVCRTD:initsect.obj
 0003:00008844       ___rtc_taa                 00480844     MSVCRTD:initsect.obj
 0003:00008ad8       ___rtc_tzz                 00480ad8     MSVCRTD:initsect.obj
 0004:000001ec       ___security_cookie         004851ec     MSVCRTD:gs_cookie.obj
 0004:000001f0       ___security_cookie_complement 004851f0     MSVCRTD:gs_cookie.obj
 0004:00000200       ?_RTC_ErrorLevels@@3PAHA   00485200     MSVCRTD:error.obj
 0004:00000218       ___defaultmatherr          00485218     MSVCRTD:merr.obj
 0004:0000021c       ___globallocalestatus      0048521c     MSVCRTD:xthdloc.obj
 0004:00000220       ___native_dllmain_reason   00485220     MSVCRTD:natstart.obj
 0004:00000334       ??_R0?AVerror_category@std@@@8 00485334     ccCheck.obj
 0004:0000035c       ??_R0?AV_Generic_error_category@std@@@8 0048535c     ccCheck.obj
 0004:00000390       ??_R0?AV_Iostream_error_category@std@@@8 00485390     ccCheck.obj
 0004:000003c4       ??_R0?AV_System_error_category@std@@@8 004853c4     ccCheck.obj
 0004:000003f8       ??_R0?AVccCheck@@@8        004853f8     ccCheck.obj
 0004:00000414       ??_R0?AVccClient@@@8       00485414     ccClient.obj
 0004:00000430       ??_R0?AVccConfig@@@8       00485430     ccConfig.obj
 0004:0000044c       ??_R0?AVdecodeBNCSString@@@8 0048544c     decodeBNCSString.obj
 0004:00000474       ??_R0?AVsizedBuffer@@@8    00485474     sizedBuffer.obj
 0004:00000494       ??_R0?AVimportPreview@@@8  00485494     importPreview.obj
 0004:000004b8       ??_R0?AVIccClientCallback@@@8 004854b8     MAIN.obj
 0004:000004e0       ??_R0?AVcciCallbackHelper@@@8 004854e0     MAIN.obj
 0004:00000508       ??_R0?AVfilterBase@@@8     00485508     PROF.obj
 0004:00000528       ??_R0?AVfilters@@@8        00485528     PROF.obj
 0004:00000544       ??_R0?AVfilterBlock@@@8    00485544     PROF.obj
 0004:00000564       ??_R0?AVfilterChange@@@8   00485564     PROF.obj
 0004:00000584       ??_R0?AV?$filterAverage@N@@@8 00485584     PROF.obj
 0004:000005ac       ??_R0?AV?$filterAverage@I@@@8 004855ac     PROF.obj
 0004:000005d4       ??_R0?AV?$filterAverage@H@@@8 004855d4     PROF.obj
 0004:000005fc       ??_R0?AV?$filterWindow@N@@@8 004855fc     PROF.obj
 0004:00000624       ??_R0?AV?$filterWindow@I@@@8 00485624     PROF.obj
 0004:0000064c       ??_R0?AV?$filterWindow@H@@@8 0048564c     PROF.obj
 0004:00000674       ??_R0?AVcBncsVersion@@@8   00485674     BncsVersionInfodb:cBncsVersion.obj
 0004:00000694       ??_R0?AVtype_info@@@8      00485694     MSVCRTD:ti_inst.obj
 0004:000007cc       ?_Generic_object@?$_Error_objects@H@std@@2V_Generic_error_category@2@A 004857cc     ccCheck.obj
 0004:000007d0       ?_Iostream_object@?$_Error_objects@H@std@@2V_Iostream_error_category@2@A 004857d0     ccCheck.obj
 0004:000007d4       ?_System_object@?$_Error_objects@H@std@@2V_System_error_category@2@A 004857d4     ccCheck.obj
 0004:000007d8       ?id@?$num_put@DV?$back_insert_iterator@V?$basic_string@DU?$char_traits@D@std@@V?$allocator@D@2@@std@@@std@@@std@@2V0locale@2@A 004857d8     ccCheck.obj
 0004:000007dc       ?id@?$num_put@_WV?$back_insert_iterator@V?$basic_string@_WU?$char_traits@_W@std@@V?$allocator@_W@2@@std@@@std@@@std@@2V0locale@2@A 004857dc     ccCheck.obj
 0004:000007ec       ?f1@@3PAU_iobuf@@A         004857ec     CMD.obj
 0004:00000830       ?thisDlg@importPreview@@0PAV1@A 00485830     importPreview.obj
 0004:00000840       ?szFilterEditOut@@3PADA    00485840     MAIN.obj
 0004:00000940       ?acIniFilename@@3PADA      00485940     MAIN.obj
 0004:00000a44       ?avVar@@3PADA              00485a44     MAIN.obj
 0004:00000a4e       ?bLastMsgType@@3EA         00485a4e     MAIN.obj
 0004:00000a4f       ?bExtDrvType@@3EA          00485a4f     MAIN.obj
 0004:00000a50       ?acVar@@3PAY0BAE@DA        00485a50     MAIN.obj
 0004:00001478       ?aiVar@@3PAHA              00486478     MAIN.obj
 0004:000014a0       ?hWndMain@@3PAUHWND__@@A   004864a0     MAIN.obj
 0004:000014a4       ?hWndDlg@@3PAUHWND__@@A    004864a4     MAIN.obj
 0004:000014a8       ?hWndExt@@3PAUHWND__@@A    004864a8     MAIN.obj
 0004:000014ac       ?hWndCtrl@@3PAUHWND__@@A   004864ac     MAIN.obj
 0004:000014b0       ?hInst@@3PAUHINSTANCE__@@A 004864b0     MAIN.obj
 0004:000014b4       ?hMenuMain@@3PAUHMENU__@@A 004864b4     MAIN.obj
 0004:000014b8       ?hMenu@@3PAUHMENU__@@A     004864b8     MAIN.obj
 0004:000014bc       ?lpMainDlgProc@@3P6GHXZA   004864bc     MAIN.obj
 0004:000014c0       ?lpDialog@@3P6GHXZA        004864c0     MAIN.obj
 0004:000014c4       ?bClosedown@@3HA           004864c4     MAIN.obj
 0004:000014c8       ?bExtCtlType@@3EA          004864c8     MAIN.obj
 0004:000014c9       ?bCSIMsgType@@3EA          004864c9     MAIN.obj
 0004:000014ca       ?bSlotLockedFlag@@3_NA     004864ca     MAIN.obj
 0004:000014cb       ?iUpdateRxOnlyFromRevertive@@3_NA 004864cb     MAIN.obj
 0004:000014cc       ?acApplName@@3PADA         004864cc     MAIN.obj
 0004:000014e0       ?acClientName@@3PADA       004864e0     MAIN.obj
 0004:000014f4       ?bDebugMode@@3HA           004864f4     MAIN.obj
 0004:000014f8       ?acDebug@@3PADA            004864f8     MAIN.obj
 0004:000016fc       ?lMemorySize@@3JA          004866fc     MAIN.obj
 0004:00001700       ?iSelectedSlot@@3HA        00486700     MAIN.obj
 0004:00001704       ?bLockEnabled@@3HA         00486704     MAIN.obj
 0004:00001708       ?bLockedSlot@@3PAHA        00486708     MAIN.obj
 0004:0000570c       ?lNetTx@@3JA               0048a70c     MAIN.obj
 0004:00005710       ?lNetRx@@3JA               0048a710     MAIN.obj
 0004:00005714       ?iInfoDrvNum@@3HA          0048a714     MAIN.obj
 0004:00005718       ?acDeviceName@@3PADA       0048a718     MAIN.obj
 0004:00005758       ?iWorkstation@@3HA         0048a758     MAIN.obj
 0004:0000575c       ?uSaveCount@@3IA           0048a75c     MAIN.obj
 0004:00005760       ?bStatusChanged@@3HA       0048a760     MAIN.obj
 0004:00005764       ?hMemFile@@3HA             0048a764     MAIN.obj
 0004:00005768       ?hAltMemFile@@3HA          0048a768     MAIN.obj
 0004:0000576c       ?iExtType@@3HA             0048a76c     MAIN.obj
 0004:00005770       ?acAltMemFilePath@@3PADA   0048a770     MAIN.obj
 0004:00005970       ?iCtrlType@@3HA            0048a970     MAIN.obj
 0004:00005974       ?iAppClosing@@3HA          0048a974     MAIN.obj
 0004:00005978       ?acFileVersion@@3PADA      0048a978     MAIN.obj
 0004:00005988       ?acLegalCopyright@@3PADA   0048a988     MAIN.obj
 0004:000059c8       ?hMemory@@3PAXA            0048a9c8     MAIN.obj
 0004:000059cc       ?iPrintPtr@@3HA            0048a9cc     MAIN.obj
 0004:000059d0       ?acPrintStore@@3PAY0ED@DA  0048a9d0     MAIN.obj
 0004:00006c24       ?iKbEnabled@@3HA           0048bc24     MAIN.obj
 0004:00006c28       ?bAccess@@3PAHA            0048bc28     MAIN.obj
 0004:00046c28       ?hWndCSI@@3PAUHWND__@@A    004cbc28     MAIN.obj
 0004:00046c2c       ?iInterfaceMode@@3HA       004cbc2c     MAIN.obj
 0004:00046c30       ?iDriverMode@@3HA          004cbc30     MAIN.obj
 0004:00046c34       ?iControlMode@@3HA         004cbc34     MAIN.obj
 0004:00046c38       ?iDefaultDriverMode@@3HA   004cbc38     MAIN.obj
 0004:00046c3c       ?iDefaultControlMode@@3HA  004cbc3c     MAIN.obj
 0004:00046c40       ?iStartupMode@@3HA         004cbc40     MAIN.obj
 0004:00046c44       ?iGoRXOnlyOnExternalFail@@3HA 004cbc44     MAIN.obj
 0004:00046c48       ?iFlushCount@@3HA          004cbc48     MAIN.obj
 0004:00046c4c       ?iSendDelay@@3HA           004cbc4c     MAIN.obj
 0004:00046c50       ?iImmediateRevertives@@3HA 004cbc50     MAIN.obj
 0004:00046c54       ?iSegmentationOffset@@3HA  004cbc54     MAIN.obj
 0004:00046c58       ?acDelayString@@3PADA      004cbc58     MAIN.obj
 0004:00046c98       ?className@@3PADA          004cbc98     MAIN.obj
 0004:00046d98       ?m_client@@3PAVccClient@@A 004cbd98     MAIN.obj
 0004:00046da0       ?cciCallback@@3VcciCallbackHelper@@A 004cbda0     MAIN.obj
 0004:00046da4       ?myFilterSet@@3V?$list@V?$basic_string@DU?$char_traits@D@std@@V?$allocator@D@2@@std@@V?$allocator@V?$basic_string@DU?$char_traits@D@std@@V?$allocator@D@2@@std@@@2@@std@@A 004cbda4     MAIN.obj
 0004:00046db0       ?myFilters@@3V?$map@HPAVfilters@@U?$less@H@std@@V?$allocator@U?$pair@$$CBHPAVfilters@@@std@@@3@@std@@A 004cbdb0     MAIN.obj
 0004:00046dbc       ?delaySendQueue@@3V?$map@HKU?$less@H@std@@V?$allocator@U?$pair@$$CBHK@std@@@2@@std@@A 004cbdbc     MAIN.obj
 0004:00055160       ?acMemFilePath@@3PADA      004da160     MEMORY.obj
 0004:00055370       ?acSecMemFilePath@@3PADA   004da370     MEMORY.obj
 0004:00055660       ?hPdc@@3PAUHDC__@@A        004da660     PRFU.obj
 0004:00055664       ?DocInfo@@3U_DOCINFOA@@A   004da664     PRFU.obj
 0004:00055678       ?TextMetric@@3UtagTEXTMETRICA@@A 004da678     PRFU.obj
 0004:000556b0       ?iLinesPerPage@@3HA        004da6b0     PRFU.obj
 0004:000556b4       ?iLineSpace@@3HA           004da6b4     PRFU.obj
 0004:0005599c       ?pHtmlHelpW@@3P6GPAUHWND__@@PAU1@PBGIK@ZA 004da99c     htmlhelp:init.obj
 0004:000559a0       ?pHtmlHelpA@@3P6GPAUHWND__@@PAU1@PBDIK@ZA 004da9a0     htmlhelp:init.obj
 0004:00055d98       ?wsprintffp@@3P6AHPADPBDZZA 004dad98     MSVCRTD:error.obj
 0004:00055da8       __commode                  004dada8     MSVCRTD:xncommod.obj
 0004:00055dac       __dowildcard               004dadac     MSVCRTD:wildcard.obj
 0004:00055db0       __newmode                  004dadb0     MSVCRTD:_newmode.obj
 0004:00055db4       __fmode                    004dadb4     MSVCRTD:xtxtmode.obj
 0004:00055dc0       ___native_startup_lock     004dadc0     <common>
 0004:00055dd0       ___native_startup_state    004dadd0     <common>
 0004:00055dd4       ___dyn_tls_init_callback   004dadd4     <common>
 0004:00055de4       ___onexitend               004dade4     <common>
 0004:00055df4       ___onexitbegin             004dadf4     <common>
 0005:00000000       __imp__RegCloseKey@4       004db000     advapi32:ADVAPI32.dll
 0005:00000004       __imp__RegQueryValueExA@24 004db004     advapi32:ADVAPI32.dll
 0005:00000008       __imp__RegOpenKeyExA@20    004db008     advapi32:ADVAPI32.dll
 0005:0000000c       \177ADVAPI32_NULL_THUNK_DATA 004db00c     advapi32:ADVAPI32.dll
 0005:00000038       __imp__BNCS32TxMessage     004db038     bncsif32:BNCSIF32.dll
 0005:0000003c       __imp__BNCS32RxMessage     004db03c     bncsif32:BNCSIF32.dll
 0005:00000040       \177BNCSIF32_NULL_THUNK_DATA 004db040     bncsif32:BNCSIF32.dll
 0005:0000006c       __imp__GetOpenFileNameA@4  004db06c     comdlg32:COMDLG32.dll
 0005:00000070       __imp__GetSaveFileNameA@4  004db070     comdlg32:COMDLG32.dll
 0005:00000074       \177COMDLG32_NULL_THUNK_DATA 004db074     comdlg32:COMDLG32.dll
 0005:000000a0       __imp__GetTextMetricsA@8   004db0a0     gdi32:GDI32.dll
 0005:000000a4       __imp__StartDocA@8         004db0a4     gdi32:GDI32.dll
 0005:000000a8       __imp__GetStockObject@4    004db0a8     gdi32:GDI32.dll
 0005:000000ac       __imp__GetDeviceCaps@8     004db0ac     gdi32:GDI32.dll
 0005:000000b0       __imp__EndPage@4           004db0b0     gdi32:GDI32.dll
 0005:000000b4       __imp__TextOutA@20         004db0b4     gdi32:GDI32.dll
 0005:000000b8       __imp__DeleteDC@4          004db0b8     gdi32:GDI32.dll
 0005:000000bc       __imp__StartPage@4         004db0bc     gdi32:GDI32.dll
 0005:000000c0       __imp__CreateDCA@16        004db0c0     gdi32:GDI32.dll
 0005:000000c4       __imp__SetTextColor@8      004db0c4     gdi32:GDI32.dll
 0005:000000c8       __imp__SetBkColor@8        004db0c8     gdi32:GDI32.dll
 0005:000000cc       __imp__DeleteObject@4      004db0cc     gdi32:GDI32.dll
 0005:000000d0       __imp__EndDoc@4            004db0d0     gdi32:GDI32.dll
 0005:000000d4       __imp__CreateSolidBrush@4  004db0d4     gdi32:GDI32.dll
 0005:000000d8       \177GDI32_NULL_THUNK_DATA  004db0d8     gdi32:GDI32.dll
 0005:0000010c       __imp__GetCurrentProcessId@0 004db10c     kernel32:KERNEL32.dll
 0005:00000110       __imp__WinExec@8           004db110     kernel32:KERNEL32.dll
 0005:00000114       __imp__GetModuleFileNameA@12 004db114     kernel32:KERNEL32.dll
 0005:00000118       __imp___lopen@8            004db118     kernel32:KERNEL32.dll
 0005:0000011c       __imp___lcreat@8           004db11c     kernel32:KERNEL32.dll
 0005:00000120       __imp___lread@12           004db120     kernel32:KERNEL32.dll
 0005:00000124       __imp___lwrite@12          004db124     kernel32:KERNEL32.dll
 0005:00000128       __imp___lclose@4           004db128     kernel32:KERNEL32.dll
 0005:0000012c       __imp___llseek@12          004db12c     kernel32:KERNEL32.dll
 0005:00000130       __imp__GetProfileStringA@20 004db130     kernel32:KERNEL32.dll
 0005:00000134       __imp__GetSystemTimeAsFileTime@4 004db134     kernel32:KERNEL32.dll
 0005:00000138       __imp__GetCurrentThreadId@0 004db138     kernel32:KERNEL32.dll
 0005:0000013c       __imp__QueryPerformanceCounter@4 004db13c     kernel32:KERNEL32.dll
 0005:00000140       __imp__WideCharToMultiByte@32 004db140     kernel32:KERNEL32.dll
 0005:00000144       __imp__MultiByteToWideChar@24 004db144     kernel32:KERNEL32.dll
 0005:00000148       __imp__GlobalFree@4        004db148     kernel32:KERNEL32.dll
 0005:0000014c       __imp__RaiseException@16   004db14c     kernel32:KERNEL32.dll
 0005:00000150       __imp__IsProcessorFeaturePresent@4 004db150     kernel32:KERNEL32.dll
 0005:00000154       __imp__IsDebuggerPresent@0 004db154     kernel32:KERNEL32.dll
 0005:00000158       __imp__DecodePointer@4     004db158     kernel32:KERNEL32.dll
 0005:0000015c       __imp__EncodePointer@4     004db15c     kernel32:KERNEL32.dll
 0005:00000160       __imp__GetModuleHandleW@4  004db160     kernel32:KERNEL32.dll
 0005:00000164       __imp__GetModuleFileNameW@12 004db164     kernel32:KERNEL32.dll
 0005:00000168       __imp__VirtualQuery@12     004db168     kernel32:KERNEL32.dll
 0005:0000016c       __imp__GetProcessHeap@0    004db16c     kernel32:KERNEL32.dll
 0005:00000170       __imp__HeapFree@12         004db170     kernel32:KERNEL32.dll
 0005:00000174       __imp__HeapAlloc@12        004db174     kernel32:KERNEL32.dll
 0005:00000178       __imp__OutputDebugStringA@4 004db178     kernel32:KERNEL32.dll
 0005:0000017c       __imp__LoadLibraryExW@12   004db17c     kernel32:KERNEL32.dll
 0005:00000180       __imp__FreeLibrary@4       004db180     kernel32:KERNEL32.dll
 0005:00000184       __imp__GetProcAddress@8    004db184     kernel32:KERNEL32.dll
 0005:00000188       __imp__GetLastError@0      004db188     kernel32:KERNEL32.dll
 0005:0000018c       __imp__LoadLibraryA@4      004db18c     kernel32:KERNEL32.dll
 0005:00000190       __imp__GetPrivateProfileIntA@16 004db190     kernel32:KERNEL32.dll
 0005:00000194       __imp__GetPrivateProfileStringA@24 004db194     kernel32:KERNEL32.dll
 0005:00000198       __imp__GlobalUnlock@4      004db198     kernel32:KERNEL32.dll
 0005:0000019c       __imp__GlobalLock@4        004db19c     kernel32:KERNEL32.dll
 0005:000001a0       __imp__GlobalAlloc@8       004db1a0     kernel32:KERNEL32.dll
 0005:000001a4       __imp__lstrcpyA@8          004db1a4     kernel32:KERNEL32.dll
 0005:000001a8       __imp__lstrcpynA@12        004db1a8     kernel32:KERNEL32.dll
 0005:000001ac       __imp__GetTickCount@0      004db1ac     kernel32:KERNEL32.dll
 0005:000001b0       __imp__GetWindowsDirectoryA@8 004db1b0     kernel32:KERNEL32.dll
 0005:000001b4       __imp__WritePrivateProfileStringA@16 004db1b4     kernel32:KERNEL32.dll
 0005:000001b8       \177KERNEL32_NULL_THUNK_DATA 004db1b8     kernel32:KERNEL32.dll
 0005:00000204       __imp_?_Debug_message@std@@YAXPB_W0I@Z 004db204     msvcprtd:MSVCP120D.dll
 0005:00000208       __imp_??0_Container_base12@std@@QAE@XZ 004db208     msvcprtd:MSVCP120D.dll
 0005:0000020c       __imp_??1_Container_base12@std@@QAE@XZ 004db20c     msvcprtd:MSVCP120D.dll
 0005:00000210       __imp_?_Orphan_all@_Container_base12@std@@QAEXXZ 004db210     msvcprtd:MSVCP120D.dll
 0005:00000214       __imp_?_Xbad_alloc@std@@YAXXZ 004db214     msvcprtd:MSVCP120D.dll
 0005:00000218       __imp_?_Xlength_error@std@@YAXPBD@Z 004db218     msvcprtd:MSVCP120D.dll
 0005:0000021c       __imp_??0id@locale@std@@QAE@I@Z 004db21c     msvcprtd:MSVCP120D.dll
 0005:00000220       __imp_?_Syserror_map@std@@YAPBDH@Z 004db220     msvcprtd:MSVCP120D.dll
 0005:00000224       __imp_?_Winerror_map@std@@YAPBDH@Z 004db224     msvcprtd:MSVCP120D.dll
 0005:00000228       __imp_??0_Lockit@std@@QAE@H@Z 004db228     msvcprtd:MSVCP120D.dll
 0005:0000022c       __imp_??1_Lockit@std@@QAE@XZ 004db22c     msvcprtd:MSVCP120D.dll
 0005:00000230       __imp_?_Getpfirst@_Container_base12@std@@QBEPAPAU_Iterator_base12@2@XZ 004db230     msvcprtd:MSVCP120D.dll
 0005:00000234       __imp_?_Xout_of_range@std@@YAXPBD@Z 004db234     msvcprtd:MSVCP120D.dll
 0005:00000238       \177MSVCP120D_NULL_THUNK_DATA 004db238     msvcprtd:MSVCP120D.dll
 0005:0000026c       __imp__fprintf             004db26c     MSVCRTD:MSVCR120D.dll
 0005:00000270       __imp___strlwr             004db270     MSVCRTD:MSVCR120D.dll
 0005:00000270       __imp__strlwr              004db270     MSVCRTD:MSVCR120D.dll
 0005:00000274       __imp___wsplitpath_s       004db274     MSVCRTD:MSVCR120D.dll
 0005:00000278       __imp___wmakepath_s        004db278     MSVCRTD:MSVCR120D.dll
 0005:0000027c       __imp__wcscpy_s            004db27c     MSVCRTD:MSVCR120D.dll
 0005:00000280       __imp___controlfp_s        004db280     MSVCRTD:MSVCR120D.dll
 0005:00000284       __imp___invoke_watson      004db284     MSVCRTD:MSVCR120D.dll
 0005:00000288       __imp____crtSetUnhandledExceptionFilter 004db288     MSVCRTD:MSVCR120D.dll
 0005:0000028c       __imp_?terminate@@YAXXZ    004db28c     MSVCRTD:MSVCR120D.dll
 0005:00000290       __imp___except_handler4_common 004db290     MSVCRTD:MSVCR120D.dll
 0005:00000294       __imp___commode            004db294     MSVCRTD:MSVCR120D.dll
 0005:00000298       __imp___fmode              004db298     MSVCRTD:MSVCR120D.dll
 0005:0000029c       __imp___acmdln             004db29c     MSVCRTD:MSVCR120D.dll
 0005:000002a0       __imp___initterm           004db2a0     MSVCRTD:MSVCR120D.dll
 0005:000002a4       __imp___initterm_e         004db2a4     MSVCRTD:MSVCR120D.dll
 0005:000002a8       __imp____setusermatherr    004db2a8     MSVCRTD:MSVCR120D.dll
 0005:000002ac       __imp___configthreadlocale 004db2ac     MSVCRTD:MSVCR120D.dll
 0005:000002b0       __imp___ismbblead          004db2b0     MSVCRTD:MSVCR120D.dll
 0005:000002b4       __imp___cexit              004db2b4     MSVCRTD:MSVCR120D.dll
 0005:000002b8       __imp___exit               004db2b8     MSVCRTD:MSVCR120D.dll
 0005:000002bc       __imp__exit                004db2bc     MSVCRTD:MSVCR120D.dll
 0005:000002c0       __imp___CrtSetCheckCount   004db2c0     MSVCRTD:MSVCR120D.dll
 0005:000002c4       __imp____set_app_type      004db2c4     MSVCRTD:MSVCR120D.dll
 0005:000002c8       __imp____getmainargs       004db2c8     MSVCRTD:MSVCR120D.dll
 0005:000002cc       __imp___amsg_exit          004db2cc     MSVCRTD:MSVCR120D.dll
 0005:000002d0       __imp____crtGetShowWindowMode 004db2d0     MSVCRTD:MSVCR120D.dll
 0005:000002d4       __imp___XcptFilter         004db2d4     MSVCRTD:MSVCR120D.dll
 0005:000002d8       __imp____crtTerminateProcess 004db2d8     MSVCRTD:MSVCR120D.dll
 0005:000002dc       __imp____crtUnhandledException 004db2dc     MSVCRTD:MSVCR120D.dll
 0005:000002e0       __imp___crt_debugger_hook  004db2e0     MSVCRTD:MSVCR120D.dll
 0005:000002e4       __imp_??1type_info@@UAE@XZ 004db2e4     MSVCRTD:MSVCR120D.dll
 0005:000002e8       __imp___CRT_RTC_INITW      004db2e8     MSVCRTD:MSVCR120D.dll
 0005:000002ec       __imp___onexit             004db2ec     MSVCRTD:MSVCR120D.dll
 0005:000002f0       __imp____dllonexit         004db2f0     MSVCRTD:MSVCR120D.dll
 0005:000002f4       __imp___calloc_dbg         004db2f4     MSVCRTD:MSVCR120D.dll
 0005:000002f8       __imp___unlock             004db2f8     MSVCRTD:MSVCR120D.dll
 0005:000002fc       __imp___lock               004db2fc     MSVCRTD:MSVCR120D.dll
 0005:00000300       __imp__malloc              004db300     MSVCRTD:MSVCR120D.dll
 0005:00000304       __imp__free                004db304     MSVCRTD:MSVCR120D.dll
 0005:00000308       __imp__strpbrk             004db308     MSVCRTD:MSVCR120D.dll
 0005:0000030c       __imp__strtok              004db30c     MSVCRTD:MSVCR120D.dll
 0005:00000310       __imp__strcpy_s            004db310     MSVCRTD:MSVCR120D.dll
 0005:00000314       __imp___purecall           004db314     MSVCRTD:MSVCR120D.dll
 0005:00000318       __imp_??2@YAPAXI@Z         004db318     MSVCRTD:MSVCR120D.dll
 0005:0000031c       __imp_??3@YAXPAX@Z         004db31c     MSVCRTD:MSVCR120D.dll
 0005:00000320       __imp__memcpy              004db320     MSVCRTD:MSVCR120D.dll
 0005:00000324       __imp__strlen              004db324     MSVCRTD:MSVCR120D.dll
 0005:00000328       __imp__memmove             004db328     MSVCRTD:MSVCR120D.dll
 0005:0000032c       __imp___hypot              004db32c     MSVCRTD:MSVCR120D.dll
 0005:00000330       __imp__sprintf_s           004db330     MSVCRTD:MSVCR120D.dll
 0005:00000334       __imp___CxxThrowException@8 004db334     MSVCRTD:MSVCR120D.dll
 0005:00000338       __imp____CxxFrameHandler3  004db338     MSVCRTD:MSVCR120D.dll
 0005:0000033c       __imp___invalid_parameter  004db33c     MSVCRTD:MSVCR120D.dll
 0005:00000340       __imp__memset              004db340     MSVCRTD:MSVCR120D.dll
 0005:00000344       __imp__strcpy              004db344     MSVCRTD:MSVCR120D.dll
 0005:00000348       __imp__strcmp              004db348     MSVCRTD:MSVCR120D.dll
 0005:0000034c       __imp__strncpy             004db34c     MSVCRTD:MSVCR120D.dll
 0005:00000350       __imp__atoi                004db350     MSVCRTD:MSVCR120D.dll
 0005:00000354       __imp__sprintf             004db354     MSVCRTD:MSVCR120D.dll
 0005:00000358       __imp_??_V@YAXPAX@Z        004db358     MSVCRTD:MSVCR120D.dll
 0005:0000035c       __imp___CrtDbgReportW      004db35c     MSVCRTD:MSVCR120D.dll
 0005:00000360       __imp__getenv              004db360     MSVCRTD:MSVCR120D.dll
 0005:00000364       __imp__tolower             004db364     MSVCRTD:MSVCR120D.dll
 0005:00000368       __imp__memchr              004db368     MSVCRTD:MSVCR120D.dll
 0005:0000036c       __imp__memcmp              004db36c     MSVCRTD:MSVCR120D.dll
 0005:00000370       __imp__strcat              004db370     MSVCRTD:MSVCR120D.dll
 0005:00000374       __imp__strchr              004db374     MSVCRTD:MSVCR120D.dll
 0005:00000378       __imp__stricmp             004db378     MSVCRTD:MSVCR120D.dll
 0005:00000378       __imp___stricmp            004db378     MSVCRTD:MSVCR120D.dll
 0005:0000037c       __imp___mkdir              004db37c     MSVCRTD:MSVCR120D.dll
 0005:00000380       __imp__fclose              004db380     MSVCRTD:MSVCR120D.dll
 0005:00000384       __imp__fgets               004db384     MSVCRTD:MSVCR120D.dll
 0005:00000388       __imp__fopen               004db388     MSVCRTD:MSVCR120D.dll
 0005:0000038c       __imp__strupr              004db38c     MSVCRTD:MSVCR120D.dll
 0005:0000038c       __imp___strupr             004db38c     MSVCRTD:MSVCR120D.dll
 0005:00000390       __imp__fputs               004db390     MSVCRTD:MSVCR120D.dll
 0005:00000394       __imp__remove              004db394     MSVCRTD:MSVCR120D.dll
 0005:00000398       __imp__rename              004db398     MSVCRTD:MSVCR120D.dll
 0005:0000039c       __imp__vsprintf_s          004db39c     MSVCRTD:MSVCR120D.dll
 0005:000003a0       __imp__strcat_s            004db3a0     MSVCRTD:MSVCR120D.dll
 0005:000003a4       __imp__atof                004db3a4     MSVCRTD:MSVCR120D.dll
 0005:000003a8       __imp__strtol              004db3a8     MSVCRTD:MSVCR120D.dll
 0005:000003ac       __imp__strtoul             004db3ac     MSVCRTD:MSVCR120D.dll
 0005:000003b0       __imp__fgetc               004db3b0     MSVCRTD:MSVCR120D.dll
 0005:000003b4       __imp__fputc               004db3b4     MSVCRTD:MSVCR120D.dll
 0005:000003b8       __imp__strstr              004db3b8     MSVCRTD:MSVCR120D.dll
 0005:000003bc       __imp__sscanf              004db3bc     MSVCRTD:MSVCR120D.dll
 0005:000003c0       \177MSVCR120D_NULL_THUNK_DATA 004db3c0     MSVCRTD:MSVCR120D.dll
 0005:00000430       __imp__ShellExecuteA@24    004db430     shell32:SHELL32.dll
 0005:00000434       \177SHELL32_NULL_THUNK_DATA 004db434     shell32:SHELL32.dll
 0005:00000460       __imp__EndDialog@8         004db460     user32:USER32.dll
 0005:00000464       __imp__SetDlgItemTextA@12  004db464     user32:USER32.dll
 0005:00000468       __imp__GetDlgItem@8        004db468     user32:USER32.dll
 0005:0000046c       __imp__SetWindowTextA@8    004db46c     user32:USER32.dll
 0005:00000470       __imp__ShowWindow@8        004db470     user32:USER32.dll
 0005:00000474       __imp__DialogBoxParamA@20  004db474     user32:USER32.dll
 0005:00000478       __imp__SetWindowPos@28     004db478     user32:USER32.dll
 0005:0000047c       __imp__CreateDialogParamA@20 004db47c     user32:USER32.dll
 0005:00000480       __imp__GetDlgItemTextA@16  004db480     user32:USER32.dll
 0005:00000484       __imp__SendDlgItemMessageA@20 004db484     user32:USER32.dll
 0005:00000488       __imp__EnableWindow@8      004db488     user32:USER32.dll
 0005:0000048c       __imp__LoadMenuA@8         004db48c     user32:USER32.dll
 0005:00000490       __imp__MoveWindow@24       004db490     user32:USER32.dll
 0005:00000494       __imp__GetClassNameA@12    004db494     user32:USER32.dll
 0005:00000498       __imp__SetMenu@8           004db498     user32:USER32.dll
 0005:0000049c       __imp__InvalidateRect@12   004db49c     user32:USER32.dll
 0005:000004a0       __imp__GetWindowRect@8     004db4a0     user32:USER32.dll
 0005:000004a4       __imp__GetSysColor@4       004db4a4     user32:USER32.dll
 0005:000004a8       __imp__GetWindowTextA@12   004db4a8     user32:USER32.dll
 0005:000004ac       __imp__SetTimer@16         004db4ac     user32:USER32.dll
 0005:000004b0       __imp__KillTimer@8         004db4b0     user32:USER32.dll
 0005:000004b4       __imp__GetMessageA@16      004db4b4     user32:USER32.dll
 0005:000004b8       __imp__TranslateMessage@4  004db4b8     user32:USER32.dll
 0005:000004bc       __imp__DispatchMessageA@4  004db4bc     user32:USER32.dll
 0005:000004c0       __imp__PostQuitMessage@4   004db4c0     user32:USER32.dll
 0005:000004c4       __imp__OpenClipboard@4     004db4c4     user32:USER32.dll
 0005:000004c8       __imp__CloseClipboard@0    004db4c8     user32:USER32.dll
 0005:000004cc       __imp__SetClipboardData@8  004db4cc     user32:USER32.dll
 0005:000004d0       __imp__GetClipboardData@4  004db4d0     user32:USER32.dll
 0005:000004d4       __imp__EmptyClipboard@0    004db4d4     user32:USER32.dll
 0005:000004d8       __imp__SetFocus@4          004db4d8     user32:USER32.dll
 0005:000004dc       __imp__GetSystemMetrics@4  004db4dc     user32:USER32.dll
 0005:000004e0       __imp__GetMenu@4           004db4e0     user32:USER32.dll
 0005:000004e4       __imp__DrawMenuBar@4       004db4e4     user32:USER32.dll
 0005:000004e8       __imp__CheckMenuItem@12    004db4e8     user32:USER32.dll
 0005:000004ec       __imp__EnableMenuItem@12   004db4ec     user32:USER32.dll
 0005:000004f0       __imp__wsprintfA           004db4f0     user32:USER32.dll
 0005:000004f4       __imp__CharNextA@4         004db4f4     user32:USER32.dll
 0005:000004f8       __imp__SetWindowLongA@12   004db4f8     user32:USER32.dll
 0005:000004fc       __imp__GetWindowLongA@8    004db4fc     user32:USER32.dll
 0005:00000500       __imp__MessageBoxA@16      004db500     user32:USER32.dll
 0005:00000504       __imp__DestroyWindow@4     004db504     user32:USER32.dll
 0005:00000508       __imp__IsWindow@4          004db508     user32:USER32.dll
 0005:0000050c       __imp__CreateWindowExA@48  004db50c     user32:USER32.dll
 0005:00000510       __imp__UnregisterClassA@8  004db510     user32:USER32.dll
 0005:00000514       __imp__RegisterClassA@4    004db514     user32:USER32.dll
 0005:00000518       __imp__DefWindowProcA@16   004db518     user32:USER32.dll
 0005:0000051c       __imp__PostMessageA@16     004db51c     user32:USER32.dll
 0005:00000520       __imp__SendMessageA@16     004db520     user32:USER32.dll
 0005:00000524       __imp__LoadIconA@8         004db524     user32:USER32.dll
 0005:00000528       __imp__LoadCursorA@8       004db528     user32:USER32.dll
 0005:0000052c       \177USER32_NULL_THUNK_DATA 004db52c     user32:USER32.dll
 0005:00000580       __imp__GetFileVersionInfoSizeA@8 004db580     version:VERSION.dll
 0005:00000584       __imp__GetFileVersionInfoA@16 004db584     version:VERSION.dll
 0005:00000588       __imp__VerQueryValueA@16   004db588     version:VERSION.dll
 0005:0000058c       \177VERSION_NULL_THUNK_DATA 004db58c     version:VERSION.dll
 0005:000005b8       __imp__setInfoHwnd         004db5b8     info32fix:info32fix.dll
 0005:000005bc       \177info32fix_NULL_THUNK_DATA 004db5bc     info32fix:info32fix.dll
 0005:000005e8       __IMPORT_DESCRIPTOR_BNCSIF32 004db5e8     bncsif32:BNCSIF32.dll
 0005:000005fc       __IMPORT_DESCRIPTOR_info32fix 004db5fc     info32fix:info32fix.dll
 0005:00000610       __IMPORT_DESCRIPTOR_VERSION 004db610     version:VERSION.dll
 0005:00000624       __IMPORT_DESCRIPTOR_KERNEL32 004db624     kernel32:KERNEL32.dll
 0005:00000638       __IMPORT_DESCRIPTOR_USER32 004db638     user32:USER32.dll
 0005:0000064c       __IMPORT_DESCRIPTOR_GDI32  004db64c     gdi32:GDI32.dll
 0005:00000660       __IMPORT_DESCRIPTOR_COMDLG32 004db660     comdlg32:COMDLG32.dll
 0005:00000674       __IMPORT_DESCRIPTOR_ADVAPI32 004db674     advapi32:ADVAPI32.dll
 0005:00000688       __IMPORT_DESCRIPTOR_SHELL32 004db688     shell32:SHELL32.dll
 0005:0000069c       __IMPORT_DESCRIPTOR_MSVCP120D 004db69c     msvcprtd:MSVCP120D.dll
 0005:000006b0       __IMPORT_DESCRIPTOR_MSVCR120D 004db6b0     MSVCRTD:MSVCR120D.dll
 0005:000006c4       __NULL_IMPORT_DESCRIPTOR   004db6c4     bncsif32:BNCSIF32.dll
