 PanelMan

 Timestamp is 5e9dbbb7 (Mon Apr 20 16:11:51 2020)

 Preferred load address is 00400000

 Start         Length     Name                   Class
 0001:00000000 0000202fH .text                   CODE
 0001:0000202f 00000299H .text$di                CODE
 0001:000022d0 000185e8H .text$mn                CODE
 0001:0001a8b8 00003cfdH .text$x                 CODE
 0001:0001e5b5 0000012cH .text$yd                CODE
 0002:00000000 00002024H .idata$5                DATA
 0002:00002024 00000004H .CRT$XCA                DATA
 0002:00002028 00000004H .CRT$XCAA               DATA
 0002:0000202c 00000058H .CRT$XCU                DATA
 0002:00002084 00000004H .CRT$XCZ                DATA
 0002:00002088 00000004H .CRT$XIA                DATA
 0002:0000208c 00000004H .CRT$XIAA               DATA
 0002:00002090 00000004H .CRT$XIC                DATA
 0002:00002094 00000004H .CRT$XIY                DATA
 0002:00002098 00000004H .CRT$XIZ                DATA
 0002:000020a0 0000b798H .rdata                  DATA
 0002:0000d838 000019a0H .rdata$r                DATA
 0002:0000f1d8 00000004H .rtc$IAA                DATA
 0002:0000f1dc 00000004H .rtc$IZZ                DATA
 0002:0000f1e0 00000004H .rtc$TAA                DATA
 0002:0000f1e4 00000004H .rtc$TZZ                DATA
 0002:0000f1e8 00003b54H .xdata$x                DATA
 0002:00012d40 000057fdH .edata                  DATA
 0002:00018540 00000104H .idata$2                DATA
 0002:00018644 00000014H .idata$3                DATA
 0002:00018658 00002024H .idata$4                DATA
 0002:0001a67c 00014598H .idata$6                DATA
 0003:00000000 0000061cH .data                   DATA
 0003:0000061c 000009c4H .data$r                 DATA
 0003:00000fe0 000004ccH .bss                    DATA
 0004:00000000 00000160H .rsrc$01                DATA
 0004:00000160 00002ed8H .rsrc$02                DATA

  Address         Publics by Value              Rva+Base       Lib:Object

 0000:00000000       ___guard_fids_count        00000000     <absolute>
 0000:00000000       ___guard_fids_table        00000000     <absolute>
 0000:00000000       ___guard_flags             00000000     <absolute>
 0000:00000000       ___safe_se_handler_table   00000000     <absolute>
 0000:00000000       ___safe_se_handler_count   00000000     <absolute>
 0000:00000000       __except_list              00000000     <absolute>
 0000:00009876       __fltused                  00009876     <absolute>
 0000:00009876       __ldused                   00009876     <absolute>
 0000:00000000       ___ImageBase               00400000     <linker-defined>
 0001:00000080       ??0QWidgetFactory@@QAE@XZ  00401080 f   qui:qwidgetfactory.obj
 0001:00000122       ??0QWidgetFactoryPrivate@@QAE@XZ 00401122 f i qui:qwidgetfactory.obj
 0001:00000158       ??_GQWidgetFactory@@UAEPAXI@Z 00401158 f i qui:qwidgetfactory.obj
 0001:00000158       ??_EQWidgetFactory@@UAEPAXI@Z 00401158 f i qui:qwidgetfactory.obj
 0001:00000174       ??1QWidgetFactory@@UAE@XZ  00401174 f   qui:qwidgetfactory.obj
 0001:0000022b       ??_GQSqlCursor@@UAEPAXI@Z  0040122b f i qui:qwidgetfactory.obj
 0001:0000022b       ??_EQSqlCursor@@UAEPAXI@Z  0040122b f i qui:qwidgetfactory.obj
 0001:00000248       ?createWidget@QWidgetFactory@@UBEPAVQWidget@@ABVQString@@PAV2@PBD@Z 00401248 f   qui:qwidgetfactory.obj
 0001:00000ffd       ??_EQToolButton@@UAEPAXI@Z 00401ffd f i qui:qwidgetfactory.obj
 0001:00000ffd       ??_GQToolButton@@UAEPAXI@Z 00401ffd f i qui:qwidgetfactory.obj
 0001:0000101a       ??_EQRadioButton@@UAEPAXI@Z 0040201a f i qui:qwidgetfactory.obj
 0001:0000101a       ??_GQCheckBox@@UAEPAXI@Z   0040201a f i qui:qwidgetfactory.obj
 0001:0000101a       ??_GQRadioButton@@UAEPAXI@Z 0040201a f i qui:qwidgetfactory.obj
 0001:0000101a       ??_EQCheckBox@@UAEPAXI@Z   0040201a f i qui:qwidgetfactory.obj
 0001:00001037       ??_GQGroupBox@@UAEPAXI@Z   00402037 f i qui:qwidgetfactory.obj
 0001:00001037       ??_EQGroupBox@@UAEPAXI@Z   00402037 f i qui:qwidgetfactory.obj
 0001:00001054       ??_EQIconView@@UAEPAXI@Z   00402054 f i qui:qwidgetfactory.obj
 0001:00001054       ??_GQIconView@@UAEPAXI@Z   00402054 f i qui:qwidgetfactory.obj
 0001:00001071       ??_GQTable@@UAEPAXI@Z      00402071 f i qui:qwidgetfactory.obj
 0001:00001071       ??_EQTable@@UAEPAXI@Z      00402071 f i qui:qwidgetfactory.obj
 0001:0000108e       ??_GQListView@@UAEPAXI@Z   0040208e f i qui:qwidgetfactory.obj
 0001:0000108e       ??_EQListView@@UAEPAXI@Z   0040208e f i qui:qwidgetfactory.obj
 0001:000010ab       ??_EQLineEdit@@UAEPAXI@Z   004020ab f i qui:qwidgetfactory.obj
 0001:000010ab       ??_GQLineEdit@@UAEPAXI@Z   004020ab f i qui:qwidgetfactory.obj
 0001:000010c8       ??_EQSpinBox@@UAEPAXI@Z    004020c8 f i qui:qwidgetfactory.obj
 0001:000010c8       ??_GQSpinBox@@UAEPAXI@Z    004020c8 f i qui:qwidgetfactory.obj
 0001:000010e5       ??_EQMultiLineEdit@@UAEPAXI@Z 004020e5 f i qui:qwidgetfactory.obj
 0001:000010e5       ??_GQMultiLineEdit@@UAEPAXI@Z 004020e5 f i qui:qwidgetfactory.obj
 0001:00001102       ??_GQTabWidget@@UAEPAXI@Z  00402102 f i qui:qwidgetfactory.obj
 0001:00001102       ??_EQTabWidget@@UAEPAXI@Z  00402102 f i qui:qwidgetfactory.obj
 0001:0000111f       ??_EQComboBox@@UAEPAXI@Z   0040211f f i qui:qwidgetfactory.obj
 0001:0000111f       ??_GQComboBox@@UAEPAXI@Z   0040211f f i qui:qwidgetfactory.obj
 0001:0000113c       ??_EQDialog@@UAEPAXI@Z     0040213c f i qui:qwidgetfactory.obj
 0001:0000113c       ??_GQDialog@@UAEPAXI@Z     0040213c f i qui:qwidgetfactory.obj
 0001:00001159       ??_GQWizard@@UAEPAXI@Z     00402159 f i qui:qwidgetfactory.obj
 0001:00001159       ??_EQWizard@@UAEPAXI@Z     00402159 f i qui:qwidgetfactory.obj
 0001:00001176       ??_EQLCDNumber@@UAEPAXI@Z  00402176 f i qui:qwidgetfactory.obj
 0001:00001176       ??_GQLCDNumber@@UAEPAXI@Z  00402176 f i qui:qwidgetfactory.obj
 0001:00001193       ??_GQProgressBar@@UAEPAXI@Z 00402193 f i qui:qwidgetfactory.obj
 0001:00001193       ??_EQProgressBar@@UAEPAXI@Z 00402193 f i qui:qwidgetfactory.obj
 0001:000011be       ??_EQTextView@@UAEPAXI@Z   004021be f i qui:qwidgetfactory.obj
 0001:000011be       ??_GQTextView@@UAEPAXI@Z   004021be f i qui:qwidgetfactory.obj
 0001:000011db       ??_GQTextBrowser@@UAEPAXI@Z 004021db f i qui:qwidgetfactory.obj
 0001:000011db       ??_EQTextBrowser@@UAEPAXI@Z 004021db f i qui:qwidgetfactory.obj
 0001:000011f8       ??_GQDial@@UAEPAXI@Z       004021f8 f i qui:qwidgetfactory.obj
 0001:000011f8       ??_EQDial@@UAEPAXI@Z       004021f8 f i qui:qwidgetfactory.obj
 0001:00001215       ??_EQSlider@@UAEPAXI@Z     00402215 f i qui:qwidgetfactory.obj
 0001:00001215       ??_GQSlider@@UAEPAXI@Z     00402215 f i qui:qwidgetfactory.obj
 0001:00001232       ??_GQSplitter@@UAEPAXI@Z   00402232 f i qui:qwidgetfactory.obj
 0001:00001232       ??_EQSplitter@@UAEPAXI@Z   00402232 f i qui:qwidgetfactory.obj
 0001:0000124f       ??_GQTextEdit@@UAEPAXI@Z   0040224f f i qui:qwidgetfactory.obj
 0001:0000124f       ??_EQTextEdit@@UAEPAXI@Z   0040224f f i qui:qwidgetfactory.obj
 0001:0000126c       ??_EQDateEdit@@UAEPAXI@Z   0040226c f i qui:qwidgetfactory.obj
 0001:0000126c       ??_GQDateEdit@@UAEPAXI@Z   0040226c f i qui:qwidgetfactory.obj
 0001:00001289       ??_GQTimeEdit@@UAEPAXI@Z   00402289 f i qui:qwidgetfactory.obj
 0001:00001289       ??_EQTimeEdit@@UAEPAXI@Z   00402289 f i qui:qwidgetfactory.obj
 0001:000012a6       ??_EQDateTimeEdit@@UAEPAXI@Z 004022a6 f i qui:qwidgetfactory.obj
 0001:000012a6       ??_GQDateTimeEdit@@UAEPAXI@Z 004022a6 f i qui:qwidgetfactory.obj
 0001:000012c3       ??_GQScrollBar@@UAEPAXI@Z  004022c3 f i qui:qwidgetfactory.obj
 0001:000012c3       ??_EQScrollBar@@UAEPAXI@Z  004022c3 f i qui:qwidgetfactory.obj
 0001:000012e0       ??_EQWidgetStack@@UAEPAXI@Z 004022e0 f i qui:qwidgetfactory.obj
 0001:000012e0       ??_GQWidgetStack@@UAEPAXI@Z 004022e0 f i qui:qwidgetfactory.obj
 0001:000012fd       ??_EQToolBox@@UAEPAXI@Z    004022fd f i qui:qwidgetfactory.obj
 0001:000012fd       ??_GQToolBox@@UAEPAXI@Z    004022fd f i qui:qwidgetfactory.obj
 0001:0000131a       ??_EQVBox@@UAEPAXI@Z       0040231a f i qui:qwidgetfactory.obj
 0001:0000131a       ??_GQVBox@@UAEPAXI@Z       0040231a f i qui:qwidgetfactory.obj
 0001:0000131a       ??_EQHBox@@UAEPAXI@Z       0040231a f i qui:qwidgetfactory.obj
 0001:0000131a       ??_GQHBox@@UAEPAXI@Z       0040231a f i qui:qwidgetfactory.obj
 0001:0000131a       ??_GQFrame@@UAEPAXI@Z      0040231a f i qui:qwidgetfactory.obj
 0001:0000131a       ??_EQFrame@@UAEPAXI@Z      0040231a f i qui:qwidgetfactory.obj
 0001:00001337       ??_EQMainWindow@@UAEPAXI@Z 00402337 f i qui:qwidgetfactory.obj
 0001:00001337       ??_GQMainWindow@@UAEPAXI@Z 00402337 f i qui:qwidgetfactory.obj
 0001:00001354       ??_EQDataTable@@UAEPAXI@Z  00402354 f i qui:qwidgetfactory.obj
 0001:00001354       ??_GQDataTable@@UAEPAXI@Z  00402354 f i qui:qwidgetfactory.obj
 0001:00001371       ??1Field@QWidgetFactory@@QAE@XZ 00402371 f i qui:qwidgetfactory.obj
 0001:00001390       ??0?$QValueList@UImage@QWidgetFactory@@@@QAE@XZ 00402390 f i qui:qwidgetfactory.obj
 0001:000013b0       ??0?$QMap@VQString@@VQStringList@@@@QAE@XZ 004023b0 f i qui:qwidgetfactory.obj
 0001:000013d0       ??1?$QMap@VQString@@VQStringList@@@@QAE@XZ 004023d0 f i qui:qwidgetfactory.obj
 0001:000013ed       ??0?$QMap@PAVQWidget@@USqlWidgetConnection@QWidgetFactory@@@@QAE@XZ 004023ed f i qui:qwidgetfactory.obj
 0001:0000140d       ??1?$QMap@PAVQWidget@@USqlWidgetConnection@QWidgetFactory@@@@QAE@XZ 0040240d f i qui:qwidgetfactory.obj
 0001:0000142a       ??0?$QMap@PAVQTable@@V?$QValueList@UField@QWidgetFactory@@@@@@QAE@XZ 0040242a f i qui:qwidgetfactory.obj
 0001:0000144a       ??1?$QMap@PAVQTable@@V?$QValueList@UField@QWidgetFactory@@@@@@QAE@XZ 0040244a f i qui:qwidgetfactory.obj
 0001:00001467       ??1?$QDict@_N@@UAE@XZ      00402467 f i qui:qwidgetfactory.obj
 0001:00001480       ?count@?$QDict@_N@@UBEIXZ  00402480 f i qui:qwidgetfactory.obj
 0001:00001480       ?currentNode@?$QPtrList@VsignalConnection@@@@QBEPAVQLNode@@XZ 00402480 f i AdjustMon.obj
 0001:00001480       ?count@?$QDict@VCExtProcess@@@@UBEIXZ 00402480 f i AppSwitch.obj
 0001:00001480       ?count@?$QDict@VCAppItem@@@@UBEIXZ 00402480 f i AppBar.obj
 0001:00001480       ?count@?$QDict@VQWidget@@@@UBEIXZ 00402480 f i AppView.obj
 0001:00001484       ?clear@?$QDict@_N@@UAEXXZ  00402484 f i qui:qwidgetfactory.obj
 0001:0000148a       ?count@?$QPtrList@VQWidgetFactory@@@@UBEIXZ 0040248a f i qui:qwidgetfactory.obj
 0001:0000148a       ?count@?$QPtrList@VsignalConnection@@@@UBEIXZ 0040248a f i AdjustMon.obj
 0001:0000148a       ?count@?$QPtrList@VQString@@@@UBEIXZ 0040248a f i AdjustMon.obj
 0001:0000148a       ?count@?$QPtrList@VQAction@@@@UBEIXZ 0040248a f i qui:qwidgetfactory.obj
 0001:0000148e       ?clear@?$QPtrList@VQAction@@@@UAEXXZ 0040248e f i qui:qwidgetfactory.obj
 0001:0000148e       ?clear@?$QPtrList@VQWidgetFactory@@@@UAEXXZ 0040248e f i qui:qwidgetfactory.obj
 0001:00001494       ??0?$QValueList@UField@QWidgetFactory@@@@QAE@XZ 00402494 f i qui:qwidgetfactory.obj
 0001:000014b4       ??_G?$QPtrList@VQAction@@@@UAEPAXI@Z 004024b4 f i qui:qwidgetfactory.obj
 0001:000014b4       ??_E?$QPtrList@VQAction@@@@UAEPAXI@Z 004024b4 f i qui:qwidgetfactory.obj
 0001:000014df       ??_E?$QDict@_N@@UAEPAXI@Z  004024df f i qui:qwidgetfactory.obj
 0001:000014df       ??_G?$QDict@_N@@UAEPAXI@Z  004024df f i qui:qwidgetfactory.obj
 0001:0000150a       ??_G?$QPtrList@VQWidgetFactory@@@@UAEPAXI@Z 0040250a f i qui:qwidgetfactory.obj
 0001:0000150a       ??_E?$QPtrList@VQWidgetFactory@@@@UAEPAXI@Z 0040250a f i qui:qwidgetfactory.obj
 0001:00001535       ?derefAndDelete@?$QValueListPrivate@UField@QWidgetFactory@@@@QAEXXZ 00402535 f i qui:qwidgetfactory.obj
 0001:00001535       ?derefAndDelete@?$QValueListPrivate@VQString@@@@QAEXXZ 00402535 f i qui:qwidgetfactory.obj
 0001:00001535       ?derefAndDelete@?$QValueListPrivate@UImage@QWidgetFactory@@@@QAEXXZ 00402535 f i qui:qwidgetfactory.obj
 0001:00001545       ??1?$QMapPrivate@VQString@@VQStringList@@@@QAE@XZ 00402545 f i qui:qwidgetfactory.obj
 0001:0000155d       ??1?$QMapPrivate@PAVQWidget@@USqlWidgetConnection@QWidgetFactory@@@@QAE@XZ 0040255d f i qui:qwidgetfactory.obj
 0001:00001575       ??1?$QMapPrivate@PAVQTable@@V?$QValueList@UField@QWidgetFactory@@@@@@QAE@XZ 00402575 f i qui:qwidgetfactory.obj
 0001:00001595       ??_G?$QMapNode@VQString@@VQStringList@@@@QAEPAXI@Z 00402595 f i qui:qwidgetfactory.obj
 0001:000015bd       ??_G?$QMapNode@PAVQWidget@@USqlWidgetConnection@QWidgetFactory@@@@QAEPAXI@Z 004025bd f i qui:qwidgetfactory.obj
 0001:000015ea       ?deleteItem@?$QPtrList@VQAction@@@@EAEXPAX@Z 004025ea f i qui:qwidgetfactory.obj
 0001:00001602       ?deleteItem@?$QDict@_N@@EAEXPAX@Z 00402602 f i qui:qwidgetfactory.obj
 0001:00001615       ?deleteItem@?$QPtrList@VQWidgetFactory@@@@EAEXPAX@Z 00402615 f i qui:qwidgetfactory.obj
 0001:0000162c       ??0?$QValueListPrivate@UImage@QWidgetFactory@@@@QAE@XZ 0040262c f i qui:qwidgetfactory.obj
 0001:0000166a       ??0?$QMapPrivate@VQString@@VQStringList@@@@QAE@XZ 0040266a f i qui:qwidgetfactory.obj
 0001:000016be       ?clear@?$QMapPrivate@VQString@@VQStringList@@@@QAEXXZ 004026be f i qui:qwidgetfactory.obj
 0001:000016ed       ??0?$QMapPrivate@PAVQWidget@@USqlWidgetConnection@QWidgetFactory@@@@QAE@XZ 004026ed f i qui:qwidgetfactory.obj
 0001:00001745       ?clear@?$QMapPrivate@PAVQWidget@@USqlWidgetConnection@QWidgetFactory@@@@QAEXXZ 00402745 f i qui:qwidgetfactory.obj
 0001:00001774       ??0?$QMapPrivate@PAVQTable@@V?$QValueList@UField@QWidgetFactory@@@@@@QAE@XZ 00402774 f i qui:qwidgetfactory.obj
 0001:000017be       ?clear@?$QMapPrivate@PAVQTable@@V?$QValueList@UField@QWidgetFactory@@@@@@QAEXXZ 004027be f i qui:qwidgetfactory.obj
 0001:000017ed       ??0?$QValueListPrivate@UField@QWidgetFactory@@@@QAE@XZ 004027ed f i qui:qwidgetfactory.obj
 0001:00001838       ??0Field@QWidgetFactory@@QAE@XZ 00402838 f i qui:qwidgetfactory.obj
 0001:00001857       ??_G?$QValueListPrivate@UField@QWidgetFactory@@@@UAEPAXI@Z 00402857 f i qui:qwidgetfactory.obj
 0001:00001857       ??_E?$QValueListPrivate@UField@QWidgetFactory@@@@UAEPAXI@Z 00402857 f i qui:qwidgetfactory.obj
 0001:00001857       ??_G?$QValueListPrivate@UImage@QWidgetFactory@@@@UAEPAXI@Z 00402857 f i qui:qwidgetfactory.obj
 0001:00001857       ??_E?$QValueListPrivate@UImage@QWidgetFactory@@@@UAEPAXI@Z 00402857 f i qui:qwidgetfactory.obj
 0001:00001873       ??1?$QValueListPrivate@UImage@QWidgetFactory@@@@UAE@XZ 00402873 f i qui:qwidgetfactory.obj
 0001:00001873       ??1?$QValueListPrivate@UField@QWidgetFactory@@@@UAE@XZ 00402873 f i qui:qwidgetfactory.obj
 0001:000018ab       ??_E?$QValueListNode@UImage@QWidgetFactory@@@@UAEPAXI@Z 004028ab f i qui:qwidgetfactory.obj
 0001:000018ab       ??_G?$QValueListNode@UImage@QWidgetFactory@@@@UAEPAXI@Z 004028ab f i qui:qwidgetfactory.obj
 0001:000018c7       ??1?$QValueListNode@UImage@QWidgetFactory@@@@UAE@XZ 004028c7 f i qui:qwidgetfactory.obj
 0001:000018e4       ??0?$QValueListNode@UImage@QWidgetFactory@@@@QAE@XZ 004028e4 f i qui:qwidgetfactory.obj
 0001:00001907       ??_G?$QValueListNode@UField@QWidgetFactory@@@@UAEPAXI@Z 00402907 f i qui:qwidgetfactory.obj
 0001:00001907       ??_E?$QValueListNode@UField@QWidgetFactory@@@@UAEPAXI@Z 00402907 f i qui:qwidgetfactory.obj
 0001:0000192c       ?clear@?$QMapPrivate@VQString@@VQStringList@@@@QAEXPAU?$QMapNode@VQString@@VQStringList@@@@@Z 0040292c f i qui:qwidgetfactory.obj
 0001:0000195e       ?clear@?$QMapPrivate@PAVQWidget@@USqlWidgetConnection@QWidgetFactory@@@@QAEXPAU?$QMapNode@PAVQWidget@@USqlWidgetConnection@QWidgetFactory@@@@@Z 0040295e f i qui:qwidgetfactory.obj
 0001:00001990       ?clear@?$QMapPrivate@PAVQTable@@V?$QValueList@UField@QWidgetFactory@@@@@@QAEXPAU?$QMapNode@PAVQTable@@V?$QValueList@UField@QWidgetFactory@@@@@@@Z 00402990 f i qui:qwidgetfactory.obj
 0001:000019c8       ??_EQDateTimeEdit@@WCI@AEPAXI@Z 004029c8 f i qui:qwidgetfactory.obj
 0001:000019d0       ??_EQLCDNumber@@WCI@AEPAXI@Z 004029d0 f i qui:qwidgetfactory.obj
 0001:000019d8       ??_EQSplitter@@WCI@AEPAXI@Z 004029d8 f i qui:qwidgetfactory.obj
 0001:000019e0       ??_EQTimeEdit@@WCI@AEPAXI@Z 004029e0 f i qui:qwidgetfactory.obj
 0001:000019e8       ??_EQTextView@@WCI@AEPAXI@Z 004029e8 f i qui:qwidgetfactory.obj
 0001:000019f0       ??_EQSpinBox@@WCI@AEPAXI@Z 004029f0 f i qui:qwidgetfactory.obj
 0001:000019f8       ??_EQSpinBox@@WGM@AEPAXI@Z 004029f8 f i qui:qwidgetfactory.obj
 0001:00001a00       ??_EQToolBox@@WCI@AEPAXI@Z 00402a00 f i qui:qwidgetfactory.obj
 0001:00001a08       ??_EQDial@@WCI@AEPAXI@Z    00402a08 f i qui:qwidgetfactory.obj
 0001:00001a10       ??_EQDial@@WGM@AEPAXI@Z    00402a10 f i qui:qwidgetfactory.obj
 0001:00001a18       ??_EQGroupBox@@WCI@AEPAXI@Z 00402a18 f i qui:qwidgetfactory.obj
 0001:00001a20       ??_EQDataTable@@WCI@AEPAXI@Z 00402a20 f i qui:qwidgetfactory.obj
 0001:00001a28       ??_EQTextEdit@@WCI@AEPAXI@Z 00402a28 f i qui:qwidgetfactory.obj
 0001:00001a30       ??_EQTextBrowser@@WCI@AEPAXI@Z 00402a30 f i qui:qwidgetfactory.obj
 0001:00001a38       ??_EQLineEdit@@WCI@AEPAXI@Z 00402a38 f i qui:qwidgetfactory.obj
 0001:00001a40       ??_EQWidgetStack@@WCI@AEPAXI@Z 00402a40 f i qui:qwidgetfactory.obj
 0001:00001a48       ??_EQTabWidget@@WCI@AEPAXI@Z 00402a48 f i qui:qwidgetfactory.obj
 0001:00001a50       ??_EQDateEdit@@WCI@AEPAXI@Z 00402a50 f i qui:qwidgetfactory.obj
 0001:00001a58       ??_EQProgressBar@@WCI@AEPAXI@Z 00402a58 f i qui:qwidgetfactory.obj
 0001:00001a60       ??_EQFrame@@WCI@AEPAXI@Z   00402a60 f i qui:qwidgetfactory.obj
 0001:00001a60       ??_EQHBox@@WCI@AEPAXI@Z    00402a60 f i qui:qwidgetfactory.obj
 0001:00001a60       ??_EQVBox@@WCI@AEPAXI@Z    00402a60 f i qui:qwidgetfactory.obj
 0001:00001a68       ??_EQDialog@@WCI@AEPAXI@Z  00402a68 f i qui:qwidgetfactory.obj
 0001:00001a70       ??_EQMainWindow@@WCI@AEPAXI@Z 00402a70 f i qui:qwidgetfactory.obj
 0001:00001a78       ??_EQToolButton@@WCI@AEPAXI@Z 00402a78 f i qui:qwidgetfactory.obj
 0001:00001a80       ??_EQListView@@WCI@AEPAXI@Z 00402a80 f i qui:qwidgetfactory.obj
 0001:00001a88       ??_EQIconView@@WCI@AEPAXI@Z 00402a88 f i qui:qwidgetfactory.obj
 0001:00001a90       ??_EQTable@@WCI@AEPAXI@Z   00402a90 f i qui:qwidgetfactory.obj
 0001:00001a98       ??_EQScrollBar@@WCI@AEPAXI@Z 00402a98 f i qui:qwidgetfactory.obj
 0001:00001aa0       ??_EQScrollBar@@WGM@AEPAXI@Z 00402aa0 f i qui:qwidgetfactory.obj
 0001:00001aa8       ??_EQSlider@@WCI@AEPAXI@Z  00402aa8 f i qui:qwidgetfactory.obj
 0001:00001ab0       ??_EQSlider@@WGM@AEPAXI@Z  00402ab0 f i qui:qwidgetfactory.obj
 0001:00001ab8       ??_EQWizard@@WCI@AEPAXI@Z  00402ab8 f i qui:qwidgetfactory.obj
 0001:00001ac0       ??_EQMultiLineEdit@@WCI@AEPAXI@Z 00402ac0 f i qui:qwidgetfactory.obj
 0001:00001ac8       ??_EQSqlCursor@@W7AEPAXI@Z 00402ac8 f i qui:qwidgetfactory.obj
 0001:00001ad0       ?value@QSqlCursor@@W7BE?AVQVariant@@H@Z 00402ad0 f i qui:qwidgetfactory.obj
 0001:00001ad9       ??_EQComboBox@@WCI@AEPAXI@Z 00402ad9 f i qui:qwidgetfactory.obj
 0001:00001ae1       ??_EQRadioButton@@WCI@AEPAXI@Z 00402ae1 f i qui:qwidgetfactory.obj
 0001:00001ae1       ??_EQCheckBox@@WCI@AEPAXI@Z 00402ae1 f i qui:qwidgetfactory.obj
 0001:00001ae9       ??0DatabaseSupport2@@QAE@XZ 00402ae9 f   qui:database.obj
 0001:00001b13       ??_GDatabaseSupport2@@UAEPAXI@Z 00402b13 f i qui:database.obj
 0001:00001b13       ??_EDatabaseSupport2@@UAEPAXI@Z 00402b13 f i qui:database.obj
 0001:00001b42       ??0QDesignerDataBrowser2@@QAE@PAVQWidget@@PBD@Z 00402b42 f   qui:database.obj
 0001:00001b7a       ?metaObject@QDesignerDataBrowser2@@UBEPAVQMetaObject@@XZ 00402b7a f i qui:database.obj
 0001:00001b7f       ??_GQDesignerDataBrowser2@@UAEPAXI@Z 00402b7f f i qui:database.obj
 0001:00001b7f       ??_EQDesignerDataBrowser2@@UAEPAXI@Z 00402b7f f i qui:database.obj
 0001:00001b9b       ??1QDesignerDataBrowser2@@UAE@XZ 00402b9b f i qui:database.obj
 0001:00001bcd       ?event@QDesignerDataBrowser2@@MAE_NPAVQEvent@@@Z 00402bcd f   qui:database.obj
 0001:00001c4d       ??0QDesignerDataView2@@QAE@PAVQWidget@@PBD@Z 00402c4d f   qui:database.obj
 0001:00001c85       ?metaObject@QDesignerDataView2@@UBEPAVQMetaObject@@XZ 00402c85 f i qui:database.obj
 0001:00001c8a       ??_GQDesignerDataView2@@UAEPAXI@Z 00402c8a f i qui:database.obj
 0001:00001c8a       ??_EQDesignerDataView2@@UAEPAXI@Z 00402c8a f i qui:database.obj
 0001:00001ca6       ??1QDesignerDataView2@@UAE@XZ 00402ca6 f i qui:database.obj
 0001:00001cd8       ?event@QDesignerDataView2@@MAE_NPAVQEvent@@@Z 00402cd8 f   qui:database.obj
 0001:00001d0b       ??_EQDesignerDataView2@@WCI@AEPAXI@Z 00402d0b f i qui:database.obj
 0001:00001d13       ??_EQDesignerDataView2@@WHA@AEPAXI@Z 00402d13 f i qui:database.obj
 0001:00001d1b       ??_EQDesignerDataBrowser2@@WCI@AEPAXI@Z 00402d1b f i qui:database.obj
 0001:00001d23       ??_EQDesignerDataBrowser2@@WHA@AEPAXI@Z 00402d23 f i qui:database.obj
 0001:00001d2b       ?className@QDesignerDataBrowser2@@UBEPBDXZ 00402d2b f   qui:moc_database2.obj
 0001:00001d68       ?staticMetaObject@QDesignerDataBrowser2@@SAPAVQMetaObject@@XZ 00402d68 f   qui:moc_database2.obj
 0001:00001daf       ?qt_cast@QDesignerDataBrowser2@@UAEPAXPBD@Z 00402daf f   qui:moc_database2.obj
 0001:00001e1a       ?qt_invoke@QDesignerDataBrowser2@@UAE_NHPAUQUObject@@@Z 00402e1a f   qui:moc_database2.obj
 0001:00001e2b       ?qt_emit@QDesignerDataBrowser2@@UAE_NHPAUQUObject@@@Z 00402e2b f   qui:moc_database2.obj
 0001:00001e3c       ?qt_property@QDesignerDataBrowser2@@UAE_NHHPAVQVariant@@@Z 00402e3c f   qui:moc_database2.obj
 0001:00001e51       ?className@QDesignerDataView2@@UBEPBDXZ 00402e51 f   qui:moc_database2.obj
 0001:00001e8e       ?staticMetaObject@QDesignerDataView2@@SAPAVQMetaObject@@XZ 00402e8e f   qui:moc_database2.obj
 0001:00001ed5       ?qt_cast@QDesignerDataView2@@UAEPAXPBD@Z 00402ed5 f   qui:moc_database2.obj
 0001:00001f40       ?qt_invoke@QDesignerDataView2@@UAE_NHPAUQUObject@@@Z 00402f40 f   qui:moc_database2.obj
 0001:00001f51       ?qt_emit@QDesignerDataView2@@UAE_NHPAUQUObject@@@Z 00402f51 f   qui:moc_database2.obj
 0001:00001f62       ?qt_property@QDesignerDataView2@@UAE_NHHPAVQVariant@@@Z 00402f62 f   qui:moc_database2.obj
 0001:00001f77       _WinMain@16                00402f77 f   qtmain:qtmain_win.obj
 0001:00002004       ?detach@?$QMemArray@PAD@@UAEXXZ 00403004 f i qtmain:qtmain_win.obj
 0001:0000200c       ??_G?$QMemArray@PAD@@UAEPAXI@Z 0040300c f i qtmain:qtmain_win.obj
 0001:0000200c       ??_E?$QMemArray@PAD@@UAEPAXI@Z 0040300c f i qtmain:qtmain_win.obj
 0001:000022d0       ??$_Allocate@D@std@@YAPADIPAD@Z 004032d0 f i AdjustMon.obj
 0001:000022f8       ??0?$QMap@VQString@@VcomplexInstance@@@@QAE@XZ 004032f8 f i AdjustMon.obj
 0001:0000232f       ??0?$QMap@VQString@@VcomplexParam@@@@QAE@XZ 0040332f f i AdjustMon.obj
 0001:00002366       ??0?$QMap@VQString@@VcomplexType@@@@QAE@XZ 00403366 f i AdjustMon.obj
 0001:0000239d       ??0?$QMap@VQString@@VdeviceTypeInfo@@@@QAE@XZ 0040339d f i AdjustMon.obj
 0001:000023d4       ??0?$QMap@VQString@@VinstanceInfo@@@@QAE@ABV0@@Z 004033d4 f i AdjustMon.obj
 0001:000023d4       ??0?$QMap@VQString@@VcomplexParam@@@@QAE@ABV0@@Z 004033d4 f i AdjustMon.obj
 0001:000023d4       ??0?$QMap@VQString@@VparamInfo@@@@QAE@ABV0@@Z 004033d4 f i AdjustMon.obj
 0001:000023d4       ??0?$QMap@VQString@@VcomplexType@@@@QAE@ABV0@@Z 004033d4 f i AdjustMon.obj
 0001:000023d4       ??0?$QMap@VQString@@VcomplexInstance@@@@QAE@ABV0@@Z 004033d4 f i AdjustMon.obj
 0001:000023d4       ??0?$QMap@VQString@@VdeviceTypeInfo@@@@QAE@ABV0@@Z 004033d4 f i AdjustMon.obj
 0001:000023e6       ??0?$QMap@VQString@@VinstanceInfo@@@@QAE@XZ 004033e6 f i AdjustMon.obj
 0001:0000241d       ??0?$QMap@VQString@@VparamInfo@@@@QAE@XZ 0040341d f i AdjustMon.obj
 0001:00002454       ??0?$QMapNode@VQString@@VcomplexInstance@@@@QAE@ABU0@@Z 00403454 f i AdjustMon.obj
 0001:000024ad       ??0?$QMapNode@VQString@@VcomplexInstance@@@@QAE@ABVQString@@@Z 004034ad f i AdjustMon.obj
 0001:000024f2       ??0?$QMapNode@VQString@@VcomplexInstance@@@@QAE@XZ 004034f2 f i AdjustMon.obj
 0001:00002525       ??0?$QMapNode@VQString@@VcomplexParam@@@@QAE@ABU0@@Z 00403525 f i AdjustMon.obj
 0001:00002585       ??0?$QMapNode@VQString@@VcomplexParam@@@@QAE@ABVQString@@@Z 00403585 f i AdjustMon.obj
 0001:000025ca       ??0?$QMapNode@VQString@@VcomplexParam@@@@QAE@XZ 004035ca f i AdjustMon.obj
 0001:000025fd       ??0?$QMapNode@VQString@@VcomplexType@@@@QAE@ABU0@@Z 004035fd f i AdjustMon.obj
 0001:00002656       ??0?$QMapNode@VQString@@VcomplexType@@@@QAE@ABVQString@@@Z 00403656 f i AdjustMon.obj
 0001:0000269b       ??0?$QMapNode@VQString@@VcomplexType@@@@QAE@XZ 0040369b f i AdjustMon.obj
 0001:000026ce       ??0?$QMapNode@VQString@@VdeviceTypeInfo@@@@QAE@ABU0@@Z 004036ce f i AdjustMon.obj
 0001:00002727       ??0?$QMapNode@VQString@@VdeviceTypeInfo@@@@QAE@ABVQString@@@Z 00403727 f i AdjustMon.obj
 0001:0000276c       ??0?$QMapNode@VQString@@VdeviceTypeInfo@@@@QAE@XZ 0040376c f i AdjustMon.obj
 0001:0000279f       ??0?$QMapNode@VQString@@VinstanceInfo@@@@QAE@ABU0@@Z 0040379f f i AdjustMon.obj
 0001:000027f8       ??0?$QMapNode@VQString@@VinstanceInfo@@@@QAE@ABVQString@@@Z 004037f8 f i AdjustMon.obj
 0001:0000283d       ??0?$QMapNode@VQString@@VinstanceInfo@@@@QAE@XZ 0040383d f i AdjustMon.obj
 0001:00002870       ??0?$QMapNode@VQString@@VparamInfo@@@@QAE@ABU0@@Z 00403870 f i AdjustMon.obj
 0001:000028c3       ??0?$QMapNode@VQString@@VparamInfo@@@@QAE@ABVQString@@@Z 004038c3 f i AdjustMon.obj
 0001:00002908       ??0?$QMapNode@VQString@@VparamInfo@@@@QAE@XZ 00403908 f i AdjustMon.obj
 0001:0000293b       ??0?$QMapPrivate@VQString@@VcomplexInstance@@@@QAE@PBV0@@Z 0040393b f i AdjustMon.obj
 0001:000029e9       ??0?$QMapPrivate@VQString@@VcomplexInstance@@@@QAE@XZ 004039e9 f i AdjustMon.obj
 0001:00002a45       ??0?$QMapPrivate@VQString@@VcomplexParam@@@@QAE@PBV0@@Z 00403a45 f i AdjustMon.obj
 0001:00002af3       ??0?$QMapPrivate@VQString@@VcomplexParam@@@@QAE@XZ 00403af3 f i AdjustMon.obj
 0001:00002b4f       ??0?$QMapPrivate@VQString@@VcomplexType@@@@QAE@PBV0@@Z 00403b4f f i AdjustMon.obj
 0001:00002bfd       ??0?$QMapPrivate@VQString@@VcomplexType@@@@QAE@XZ 00403bfd f i AdjustMon.obj
 0001:00002c59       ??0?$QMapPrivate@VQString@@VdeviceTypeInfo@@@@QAE@PBV0@@Z 00403c59 f i AdjustMon.obj
 0001:00002d07       ??0?$QMapPrivate@VQString@@VdeviceTypeInfo@@@@QAE@XZ 00403d07 f i AdjustMon.obj
 0001:00002d63       ??0?$QMapPrivate@VQString@@VinstanceInfo@@@@QAE@PBV0@@Z 00403d63 f i AdjustMon.obj
 0001:00002e11       ??0?$QMapPrivate@VQString@@VinstanceInfo@@@@QAE@XZ 00403e11 f i AdjustMon.obj
 0001:00002e6d       ??0?$QMapPrivate@VQString@@VparamInfo@@@@QAE@PBV0@@Z 00403e6d f i AdjustMon.obj
 0001:00002f1b       ??0?$QMapPrivate@VQString@@VparamInfo@@@@QAE@XZ 00403f1b f i AdjustMon.obj
 0001:00002f77       ??0?$QPtrList@VQString@@@@QAE@XZ 00403f77 f i AdjustMon.obj
 0001:00002fa4       ??0?$QPtrList@VsignalConnection@@@@QAE@ABV0@@Z 00403fa4 f i AdjustMon.obj
 0001:00002fd6       ??0?$QPtrList@VsignalConnection@@@@QAE@XZ 00403fd6 f i AdjustMon.obj
 0001:00003003       ??0?$QPtrListIterator@VsignalConnection@@@@QAE@ABV0@@Z 00404003 f i AdjustMon.obj
 0001:0000302b       ??0?$QPtrListIterator@VsignalConnection@@@@QAE@ABV?$QPtrList@VsignalConnection@@@@@Z 0040402b f i AdjustMon.obj
 0001:00003053       ??0?$QValueList@VcomplexInstance@@@@QAE@XZ 00404053 f i AdjustMon.obj
 0001:0000308a       ??0?$QValueList@VcomplexParam@@@@QAE@XZ 0040408a f i AdjustMon.obj
 0001:000030c1       ??0?$QValueList@VcomplexType@@@@QAE@XZ 004040c1 f i AdjustMon.obj
 0001:000030f8       ??0?$QValueList@VdeviceTypeInfo@@@@QAE@XZ 004040f8 f i AdjustMon.obj
 0001:0000312f       ??0?$QValueList@VinstanceInfo@@@@QAE@XZ 0040412f f i AdjustMon.obj
 0001:00003166       ??0?$QValueList@VparamInfo@@@@QAE@XZ 00404166 f i AdjustMon.obj
 0001:0000319d       ??0?$QValueListNode@VcomplexInstance@@@@QAE@ABVcomplexInstance@@@Z 0040419d f i AdjustMon.obj
 0001:000031ce       ??0?$QValueListNode@VcomplexInstance@@@@QAE@XZ 004041ce f i AdjustMon.obj
 0001:000031fa       ??0?$QValueListNode@VcomplexParam@@@@QAE@ABVcomplexParam@@@Z 004041fa f i AdjustMon.obj
 0001:0000322b       ??0?$QValueListNode@VcomplexParam@@@@QAE@XZ 0040422b f i AdjustMon.obj
 0001:00003257       ??0?$QValueListNode@VcomplexType@@@@QAE@ABVcomplexType@@@Z 00404257 f i AdjustMon.obj
 0001:00003288       ??0?$QValueListNode@VcomplexType@@@@QAE@XZ 00404288 f i AdjustMon.obj
 0001:000032b4       ??0?$QValueListNode@VdeviceTypeInfo@@@@QAE@ABVdeviceTypeInfo@@@Z 004042b4 f i AdjustMon.obj
 0001:000032e5       ??0?$QValueListNode@VdeviceTypeInfo@@@@QAE@XZ 004042e5 f i AdjustMon.obj
 0001:00003311       ??0?$QValueListNode@VinstanceInfo@@@@QAE@ABVinstanceInfo@@@Z 00404311 f i AdjustMon.obj
 0001:00003342       ??0?$QValueListNode@VinstanceInfo@@@@QAE@XZ 00404342 f i AdjustMon.obj
 0001:0000336e       ??0?$QValueListNode@VparamInfo@@@@QAE@XZ 0040436e f i AdjustMon.obj
 0001:0000339a       ??0?$QValueListPrivate@VcomplexInstance@@@@QAE@ABV0@@Z 0040439a f i AdjustMon.obj
 0001:00003424       ??0?$QValueListPrivate@VcomplexInstance@@@@QAE@XZ 00404424 f i AdjustMon.obj
 0001:0000347c       ??0?$QValueListPrivate@VcomplexParam@@@@QAE@ABV0@@Z 0040447c f i AdjustMon.obj
 0001:00003506       ??0?$QValueListPrivate@VcomplexParam@@@@QAE@XZ 00404506 f i AdjustMon.obj
 0001:0000355e       ??0?$QValueListPrivate@VcomplexType@@@@QAE@ABV0@@Z 0040455e f i AdjustMon.obj
 0001:000035e8       ??0?$QValueListPrivate@VcomplexType@@@@QAE@XZ 004045e8 f i AdjustMon.obj
 0001:00003640       ??0?$QValueListPrivate@VdeviceTypeInfo@@@@QAE@ABV0@@Z 00404640 f i AdjustMon.obj
 0001:000036ca       ??0?$QValueListPrivate@VdeviceTypeInfo@@@@QAE@XZ 004046ca f i AdjustMon.obj
 0001:00003722       ??0?$QValueListPrivate@VinstanceInfo@@@@QAE@ABV0@@Z 00404722 f i AdjustMon.obj
 0001:000037ac       ??0?$QValueListPrivate@VinstanceInfo@@@@QAE@XZ 004047ac f i AdjustMon.obj
 0001:00003804       ??0?$QValueListPrivate@VparamInfo@@@@QAE@ABV0@@Z 00404804 f i AdjustMon.obj
 0001:0000388e       ??0?$QValueListPrivate@VparamInfo@@@@QAE@XZ 0040488e f i AdjustMon.obj
 0001:000038e6       ??0?$basic_string@DU?$char_traits@D@std@@V?$allocator@D@2@@std@@QAE@PBD@Z 004048e6 f i AdjustMon.obj
 0001:00003915       ??0CAdjustMon@@QAE@PAVQWidget@@@Z 00404915 f   AdjustMon.obj
 0001:00003a46       ??0signalConnection@@QAE@ABV0@@Z 00404a46 f i AdjustMon.obj
 0001:00003aa5       ??0signalConnection@@QAE@ABVQString@@0000@Z 00404aa5 f i AdjustMon.obj
 0001:00003b38       ??0signalConnectionRefList@@QAE@ABV0@@Z 00404b38 f i AdjustMon.obj
 0001:00003b69       ??0signalConnectionRefList@@QAE@XZ 00404b69 f i AdjustMon.obj
 0001:00003b95       ??0signalConnectionRefListIt@@QAE@ABV0@@Z 00404b95 f i AdjustMon.obj
 0001:00003bbd       ??0signalConnectionRefListIt@@QAE@ABVsignalConnectionRefList@@@Z 00404bbd f i AdjustMon.obj
 0001:00003be5       ??1?$QMap@VQString@@VcomplexInstance@@@@QAE@XZ 00404be5 f i AdjustMon.obj
 0001:00003c02       ??1?$QMap@VQString@@VcomplexParam@@@@QAE@XZ 00404c02 f i AdjustMon.obj
 0001:00003c1f       ??1?$QMap@VQString@@VcomplexType@@@@QAE@XZ 00404c1f f i AdjustMon.obj
 0001:00003c3c       ??1?$QMap@VQString@@VdeviceTypeInfo@@@@QAE@XZ 00404c3c f i AdjustMon.obj
 0001:00003c59       ??1?$QMap@VQString@@VinstanceInfo@@@@QAE@XZ 00404c59 f i AdjustMon.obj
 0001:00003c76       ??1?$QMap@VQString@@VparamInfo@@@@QAE@XZ 00404c76 f i AdjustMon.obj
 0001:00003c93       ??1?$QMapNode@VQString@@VcomplexInstance@@@@QAE@XZ 00404c93 f i AdjustMon.obj
 0001:00003cc4       ??1?$QMapNode@VQString@@VcomplexParam@@@@QAE@XZ 00404cc4 f i AdjustMon.obj
 0001:00003cf5       ??1?$QMapNode@VQString@@VcomplexType@@@@QAE@XZ 00404cf5 f i AdjustMon.obj
 0001:00003d26       ??1?$QMapNode@VQString@@VdeviceTypeInfo@@@@QAE@XZ 00404d26 f i AdjustMon.obj
 0001:00003d57       ??1?$QMapNode@VQString@@VinstanceInfo@@@@QAE@XZ 00404d57 f i AdjustMon.obj
 0001:00003d88       ??1?$QMapNode@VQString@@VparamInfo@@@@QAE@XZ 00404d88 f i AdjustMon.obj
 0001:00003db9       ??1?$QMapPrivate@VQString@@VcomplexInstance@@@@QAE@XZ 00404db9 f i AdjustMon.obj
 0001:00003dd8       ??1?$QMapPrivate@VQString@@VcomplexParam@@@@QAE@XZ 00404dd8 f i AdjustMon.obj
 0001:00003df7       ??1?$QMapPrivate@VQString@@VcomplexType@@@@QAE@XZ 00404df7 f i AdjustMon.obj
 0001:00003e16       ??1?$QMapPrivate@VQString@@VdeviceTypeInfo@@@@QAE@XZ 00404e16 f i AdjustMon.obj
 0001:00003e35       ??1?$QMapPrivate@VQString@@VinstanceInfo@@@@QAE@XZ 00404e35 f i AdjustMon.obj
 0001:00003e54       ??1?$QMapPrivate@VQString@@VparamInfo@@@@QAE@XZ 00404e54 f i AdjustMon.obj
 0001:00003e73       ??1?$QPtrList@VQString@@@@UAE@XZ 00404e73 f i AdjustMon.obj
 0001:00003ea6       ??1?$QPtrList@VsignalConnection@@@@UAE@XZ 00404ea6 f i AdjustMon.obj
 0001:00003ed9       ??1?$QPtrListIterator@VsignalConnection@@@@QAE@XZ 00404ed9 f i AdjustMon.obj
 0001:00003ef8       ??1?$QValueList@VcomplexType@@@@QAE@XZ 00404ef8 f i AdjustMon.obj
 0001:00003ef8       ??1?$QValueList@VparamInfo@@@@QAE@XZ 00404ef8 f i AdjustMon.obj
 0001:00003ef8       ??1?$QValueList@VcomplexInstance@@@@QAE@XZ 00404ef8 f i AdjustMon.obj
 0001:00003ef8       ??1?$QValueList@VcomplexParam@@@@QAE@XZ 00404ef8 f i AdjustMon.obj
 0001:00003ef8       ??1?$QValueList@VdeviceTypeInfo@@@@QAE@XZ 00404ef8 f i AdjustMon.obj
 0001:00003ef8       ??1?$QValueList@VinstanceInfo@@@@QAE@XZ 00404ef8 f i AdjustMon.obj
 0001:00003f0a       ??1?$QValueListNode@VcomplexInstance@@@@UAE@XZ 00404f0a f i AdjustMon.obj
 0001:00003f32       ??1?$QValueListNode@VcomplexParam@@@@UAE@XZ 00404f32 f i AdjustMon.obj
 0001:00003f5a       ??1?$QValueListNode@VcomplexType@@@@UAE@XZ 00404f5a f i AdjustMon.obj
 0001:00003f82       ??1?$QValueListNode@VdeviceTypeInfo@@@@UAE@XZ 00404f82 f i AdjustMon.obj
 0001:00003faa       ??1?$QValueListNode@VinstanceInfo@@@@UAE@XZ 00404faa f i AdjustMon.obj
 0001:00003fd2       ??1?$QValueListNode@VparamInfo@@@@UAE@XZ 00404fd2 f i AdjustMon.obj
 0001:00003ffa       ??1?$QValueListPrivate@VcomplexInstance@@@@UAE@XZ 00404ffa f i AdjustMon.obj
 0001:0000402e       ??1?$QValueListPrivate@VcomplexParam@@@@UAE@XZ 0040502e f i AdjustMon.obj
 0001:00004062       ??1?$QValueListPrivate@VcomplexType@@@@UAE@XZ 00405062 f i AdjustMon.obj
 0001:00004096       ??1?$QValueListPrivate@VdeviceTypeInfo@@@@UAE@XZ 00405096 f i AdjustMon.obj
 0001:000040ca       ??1?$QValueListPrivate@VinstanceInfo@@@@UAE@XZ 004050ca f i AdjustMon.obj
 0001:000040fe       ??1?$QValueListPrivate@VparamInfo@@@@UAE@XZ 004050fe f i AdjustMon.obj
 0001:00004132       ??1?$basic_string@DU?$char_traits@D@std@@V?$allocator@D@2@@std@@QAE@XZ 00405132 f i AdjustMon.obj
 0001:0000413c       ??1CAdjustMon@@UAE@XZ      0040513c f   AdjustMon.obj
 0001:00004170       ??1_Generic_error_category@std@@UAE@XZ 00405170 f i AdjustMon.obj
 0001:0000418f       ??1error_category@std@@UAE@XZ 0040518f f i AdjustMon.obj
 0001:00004196       ??1signalConnection@@QAE@XZ 00405196 f i AdjustMon.obj
 0001:000041f0       ??1signalConnectionRefList@@UAE@XZ 004051f0 f i AdjustMon.obj
 0001:00004222       ??1signalConnectionRefListIt@@QAE@XZ 00405222 f i AdjustMon.obj
 0001:00004241       ??4?$QMap@VQString@@VcomplexInstance@@@@QAEAAV0@ABV0@@Z 00405241 f i AdjustMon.obj
 0001:00004277       ??4?$QMap@VQString@@VcomplexParam@@@@QAEAAV0@ABV0@@Z 00405277 f i AdjustMon.obj
 0001:000042ad       ??4?$QMap@VQString@@VcomplexType@@@@QAEAAV0@ABV0@@Z 004052ad f i AdjustMon.obj
 0001:000042e3       ??4?$QMap@VQString@@VdeviceTypeInfo@@@@QAEAAV0@ABV0@@Z 004052e3 f i AdjustMon.obj
 0001:00004319       ??4?$QMap@VQString@@VinstanceInfo@@@@QAEAAV0@ABV0@@Z 00405319 f i AdjustMon.obj
 0001:0000434f       ??4?$QMap@VQString@@VparamInfo@@@@QAEAAV0@ABV0@@Z 0040534f f i AdjustMon.obj
 0001:00004385       ??4signalConnectionRefList@@QAEAAV0@ABV0@@Z 00405385 f i AdjustMon.obj
 0001:00004385       ??4?$QPtrList@VsignalConnection@@@@QAEAAV0@ABV0@@Z 00405385 f i AdjustMon.obj
 0001:0000438f       ??4signalConnectionRefListIt@@QAEAAV0@ABV0@@Z 0040538f f i AdjustMon.obj
 0001:0000438f       ??4?$QPtrListIterator@VsignalConnection@@@@QAEAAV0@ABV0@@Z 0040538f f i AdjustMon.obj
 0001:000043a5       ??4signalConnection@@QAEAAV0@ABV0@@Z 004053a5 f i AdjustMon.obj
 0001:000043e6       ??8?$QPtrList@VsignalConnection@@@@QBE_NABV0@@Z 004053e6 f i AdjustMon.obj
 0001:000043f0       ??8error_condition@std@@QBE_NABV01@@Z 004053f0 f i AdjustMon.obj
 0001:0000440f       ??9?$QPtrList@VsignalConnection@@@@QBE_NABV0@@Z 0040540f f i AdjustMon.obj
 0001:00004428       ??A?$QMap@VQString@@VcomplexInstance@@@@QAEAAVcomplexInstance@@ABVQString@@@Z 00405428 f i AdjustMon.obj
 0001:00004496       ??A?$QMap@VQString@@VcomplexParam@@@@QAEAAVcomplexParam@@ABVQString@@@Z 00405496 f i AdjustMon.obj
 0001:00004504       ??A?$QMap@VQString@@VcomplexParam@@@@QBEABVcomplexParam@@ABVQString@@@Z 00405504 f i AdjustMon.obj
 0001:0000451e       ??A?$QMap@VQString@@VcomplexType@@@@QAEAAVcomplexType@@ABVQString@@@Z 0040551e f i AdjustMon.obj
 0001:0000458c       ??A?$QMap@VQString@@VparamInfo@@@@QBEABVparamInfo@@ABVQString@@@Z 0040558c f i AdjustMon.obj
 0001:0000458c       ??A?$QMap@VQString@@VcomplexType@@@@QBEABVcomplexType@@ABVQString@@@Z 0040558c f i AdjustMon.obj
 0001:0000458c       ??A?$QMap@VQString@@VcomplexInstance@@@@QBEABVcomplexInstance@@ABVQString@@@Z 0040558c f i AdjustMon.obj
 0001:000045a6       ??A?$QMap@VQString@@VdeviceTypeInfo@@@@QAEAAVdeviceTypeInfo@@ABVQString@@@Z 004055a6 f i AdjustMon.obj
 0001:00004614       ??A?$QMap@VQString@@VdeviceTypeInfo@@@@QBEABVdeviceTypeInfo@@ABVQString@@@Z 00405614 f i AdjustMon.obj
 0001:0000462e       ??A?$QMap@VQString@@VinstanceInfo@@@@QAEAAVinstanceInfo@@ABVQString@@@Z 0040562e f i AdjustMon.obj
 0001:0000469c       ??A?$QMap@VQString@@VinstanceInfo@@@@QBEABVinstanceInfo@@ABVQString@@@Z 0040569c f i AdjustMon.obj
 0001:000046b6       ??A?$QMap@VQString@@VparamInfo@@@@QAEAAVparamInfo@@ABVQString@@@Z 004056b6 f i AdjustMon.obj
 0001:00004724       ??B?$QPtrListIterator@VsignalConnection@@@@QBEPAVsignalConnection@@XZ 00405724 f i AdjustMon.obj
 0001:00004724       ?current@?$QPtrListIterator@VsignalConnection@@@@QBEPAVsignalConnection@@XZ 00405724 f i AdjustMon.obj
 0001:00004724       ??D?$QPtrListIterator@VsignalConnection@@@@QAEPAVsignalConnection@@XZ 00405724 f i AdjustMon.obj
 0001:00004731       ??E?$QPtrListIterator@VsignalConnection@@@@QAEPAVsignalConnection@@XZ 00405731 f i AdjustMon.obj
 0001:00004737       ??F?$QPtrListIterator@VsignalConnection@@@@QAEPAVsignalConnection@@XZ 00405737 f i AdjustMon.obj
 0001:0000473d       ??R?$QPtrListIterator@VsignalConnection@@@@QAEPAVsignalConnection@@XZ 0040573d f i AdjustMon.obj
 0001:00004743       ??Y?$QPtrListIterator@VsignalConnection@@@@QAEPAVsignalConnection@@I@Z 00405743 f i AdjustMon.obj
 0001:0000474d       ??Z?$QPtrListIterator@VsignalConnection@@@@QAEPAVsignalConnection@@I@Z 0040574d f i AdjustMon.obj
 0001:00004757       ??_E?$QPtrList@VsignalConnection@@@@UAEPAXI@Z 00405757 f i AdjustMon.obj
 0001:000047a1       ??_EsignalConnectionRefList@@UAEPAXI@Z 004057a1 f i AdjustMon.obj
 0001:000047eb       ??_E?$QPtrList@VQString@@@@UAEPAXI@Z 004057eb f i AdjustMon.obj
 0001:000047eb       ??_G?$QPtrList@VQString@@@@UAEPAXI@Z 004057eb f i AdjustMon.obj
 0001:0000480a       ??_G?$QValueListNode@VcomplexInstance@@@@UAEPAXI@Z 0040580a f i AdjustMon.obj
 0001:0000480a       ??_E?$QValueListNode@VcomplexInstance@@@@UAEPAXI@Z 0040580a f i AdjustMon.obj
 0001:00004829       ??_E?$QValueListNode@VcomplexParam@@@@UAEPAXI@Z 00405829 f i AdjustMon.obj
 0001:00004829       ??_G?$QValueListNode@VcomplexParam@@@@UAEPAXI@Z 00405829 f i AdjustMon.obj
 0001:00004848       ??_G?$QValueListNode@VcomplexType@@@@UAEPAXI@Z 00405848 f i AdjustMon.obj
 0001:00004848       ??_E?$QValueListNode@VcomplexType@@@@UAEPAXI@Z 00405848 f i AdjustMon.obj
 0001:00004867       ??_E?$QValueListNode@VdeviceTypeInfo@@@@UAEPAXI@Z 00405867 f i AdjustMon.obj
 0001:00004867       ??_G?$QValueListNode@VdeviceTypeInfo@@@@UAEPAXI@Z 00405867 f i AdjustMon.obj
 0001:00004886       ??_G?$QValueListNode@VinstanceInfo@@@@UAEPAXI@Z 00405886 f i AdjustMon.obj
 0001:00004886       ??_E?$QValueListNode@VinstanceInfo@@@@UAEPAXI@Z 00405886 f i AdjustMon.obj
 0001:000048a5       ??_G?$QValueListNode@VparamInfo@@@@UAEPAXI@Z 004058a5 f i AdjustMon.obj
 0001:000048a5       ??_E?$QValueListNode@VparamInfo@@@@UAEPAXI@Z 004058a5 f i AdjustMon.obj
 0001:000048c4       ??_G?$QValueListPrivate@VcomplexInstance@@@@UAEPAXI@Z 004058c4 f i AdjustMon.obj
 0001:000048c4       ??_E?$QValueListPrivate@VcomplexInstance@@@@UAEPAXI@Z 004058c4 f i AdjustMon.obj
 0001:000048e3       ??_E?$QValueListPrivate@VcomplexParam@@@@UAEPAXI@Z 004058e3 f i AdjustMon.obj
 0001:000048e3       ??_G?$QValueListPrivate@VcomplexParam@@@@UAEPAXI@Z 004058e3 f i AdjustMon.obj
 0001:00004902       ??_E?$QValueListPrivate@VcomplexType@@@@UAEPAXI@Z 00405902 f i AdjustMon.obj
 0001:00004902       ??_G?$QValueListPrivate@VcomplexType@@@@UAEPAXI@Z 00405902 f i AdjustMon.obj
 0001:00004921       ??_G?$QValueListPrivate@VdeviceTypeInfo@@@@UAEPAXI@Z 00405921 f i AdjustMon.obj
 0001:00004921       ??_E?$QValueListPrivate@VdeviceTypeInfo@@@@UAEPAXI@Z 00405921 f i AdjustMon.obj
 0001:00004940       ??_E?$QValueListPrivate@VinstanceInfo@@@@UAEPAXI@Z 00405940 f i AdjustMon.obj
 0001:00004940       ??_G?$QValueListPrivate@VinstanceInfo@@@@UAEPAXI@Z 00405940 f i AdjustMon.obj
 0001:0000495f       ??_E?$QValueListPrivate@VparamInfo@@@@UAEPAXI@Z 0040595f f i AdjustMon.obj
 0001:0000495f       ??_G?$QValueListPrivate@VparamInfo@@@@UAEPAXI@Z 0040595f f i AdjustMon.obj
 0001:0000497e       ??_GCAdjustMon@@UAEPAXI@Z  0040597e f i AdjustMon.obj
 0001:0000497e       ??_ECAdjustMon@@UAEPAXI@Z  0040597e f i AdjustMon.obj
 0001:0000499d       ??_E_Generic_error_category@std@@UAEPAXI@Z 0040599d f i AdjustMon.obj
 0001:0000499d       ??_G_Generic_error_category@std@@UAEPAXI@Z 0040599d f i AdjustMon.obj
 0001:000049cf       ??_G_Iostream_error_category@std@@UAEPAXI@Z 004059cf f i AdjustMon.obj
 0001:000049cf       ??_E_System_error_category@std@@UAEPAXI@Z 004059cf f i AdjustMon.obj
 0001:000049cf       ??_G_System_error_category@std@@UAEPAXI@Z 004059cf f i AdjustMon.obj
 0001:000049cf       ??_E_Iostream_error_category@std@@UAEPAXI@Z 004059cf f i AdjustMon.obj
 0001:00004a01       ??_Gerror_category@std@@UAEPAXI@Z 00405a01 f i AdjustMon.obj
 0001:00004a01       ??_Eerror_category@std@@UAEPAXI@Z 00405a01 f i AdjustMon.obj
 0001:00004a21       ?_Copy@?$basic_string@DU?$char_traits@D@std@@V?$allocator@D@2@@std@@QAEXII@Z 00405a21 f i AdjustMon.obj
 0001:00004b35       ?_Grow@?$basic_string@DU?$char_traits@D@std@@V?$allocator@D@2@@std@@QAE_NI_N@Z 00405b35 f i AdjustMon.obj
 0001:00004b98       ?_Inside@?$basic_string@DU?$char_traits@D@std@@V?$allocator@D@2@@std@@QAE_NPBD@Z 00405b98 f i AdjustMon.obj
 0001:00004bd3       ?_Tidy@?$basic_string@DU?$char_traits@D@std@@V?$allocator@D@2@@std@@QAEX_NI@Z 00405bd3 f i AdjustMon.obj
 0001:00004c17       ?addToNavigationStack@CAdjustMon@@QAEXABVQString@@@Z 00405c17 f   AdjustMon.obj
 0001:00004c7f       ?adjust@CAdjustMon@@AAEXVQString@@@Z 00405c7f f   AdjustMon.obj
 0001:000052b2       ?adjustRev@CAdjustMon@@QAEXPBD@Z 004062b2 f   AdjustMon.obj
 0001:00005ade       ?append@?$QPtrList@VsignalConnection@@@@QAEXPBVsignalConnection@@@Z 00406ade f i AdjustMon.obj
 0001:00005ae8       ?append@?$QValueList@VcomplexInstance@@@@QAE?AV?$QValueListIterator@VcomplexInstance@@@@ABVcomplexInstance@@@Z 00406ae8 f i AdjustMon.obj
 0001:00005b19       ?append@?$QValueList@VcomplexParam@@@@QAE?AV?$QValueListIterator@VcomplexParam@@@@ABVcomplexParam@@@Z 00406b19 f i AdjustMon.obj
 0001:00005b4a       ?append@?$QValueList@VcomplexType@@@@QAE?AV?$QValueListIterator@VcomplexType@@@@ABVcomplexType@@@Z 00406b4a f i AdjustMon.obj
 0001:00005b7b       ?append@?$QValueList@VdeviceTypeInfo@@@@QAE?AV?$QValueListIterator@VdeviceTypeInfo@@@@ABVdeviceTypeInfo@@@Z 00406b7b f i AdjustMon.obj
 0001:00005bac       ?append@?$QValueList@VinstanceInfo@@@@QAE?AV?$QValueListIterator@VinstanceInfo@@@@ABVinstanceInfo@@@Z 00406bac f i AdjustMon.obj
 0001:00005bdd       ?append@?$QValueList@VparamInfo@@@@QAE?AV?$QValueListIterator@VparamInfo@@@@ABVparamInfo@@@Z 00406bdd f i AdjustMon.obj
 0001:00005c0e       ?assign@?$basic_string@DU?$char_traits@D@std@@V?$allocator@D@2@@std@@QAEAAV12@ABV12@II@Z 00406c0e f i AdjustMon.obj
 0001:00005ca2       ?assign@?$basic_string@DU?$char_traits@D@std@@V?$allocator@D@2@@std@@QAEAAV12@PBDI@Z 00406ca2 f i AdjustMon.obj
 0001:00005d1b       ?at@?$QPtrList@VsignalConnection@@@@QAEPAVsignalConnection@@I@Z 00406d1b f i AdjustMon.obj
 0001:00005d35       ?at@?$QPtrList@VsignalConnection@@@@QBEHXZ 00406d35 f i AdjustMon.obj
 0001:00005d39       ?atFirst@?$QPtrListIterator@VsignalConnection@@@@QBE_NXZ 00406d39 f i AdjustMon.obj
 0001:00005d47       ?atLast@?$QPtrListIterator@VsignalConnection@@@@QBE_NXZ 00406d47 f i AdjustMon.obj
 0001:00005d55       ?begin@?$QMap@VQString@@VcomplexInstance@@@@QAE?AV?$QMapIterator@VQString@@VcomplexInstance@@@@XZ 00406d55 f i AdjustMon.obj
 0001:00005d78       ?begin@?$QMap@VQString@@VcomplexParam@@@@QAE?AV?$QMapIterator@VQString@@VcomplexParam@@@@XZ 00406d78 f i AdjustMon.obj
 0001:00005d9b       ?begin@?$QMap@VQString@@VcomplexType@@@@QAE?AV?$QMapIterator@VQString@@VcomplexType@@@@XZ 00406d9b f i AdjustMon.obj
 0001:00005dbe       ?begin@?$QMap@VQString@@VdeviceTypeInfo@@@@QAE?AV?$QMapIterator@VQString@@VdeviceTypeInfo@@@@XZ 00406dbe f i AdjustMon.obj
 0001:00005de1       ?begin@?$QMap@VQString@@VinstanceInfo@@@@QAE?AV?$QMapIterator@VQString@@VinstanceInfo@@@@XZ 00406de1 f i AdjustMon.obj
 0001:00005e04       ?begin@?$QMap@VQString@@VparamInfo@@@@QAE?AV?$QMapIterator@VQString@@VparamInfo@@@@XZ 00406e04 f i AdjustMon.obj
 0001:00005e27       ?constBegin@?$QPtrList@VsignalConnection@@@@QBE?AV?$QPtrListStdIterator@VsignalConnection@@@@XZ 00406e27 f i AdjustMon.obj
 0001:00005e27       ?begin@?$QPtrList@VsignalConnection@@@@QBE?AV?$QPtrListStdIterator@VsignalConnection@@@@XZ 00406e27 f i AdjustMon.obj
 0001:00005e27       ?begin@?$QPtrList@VsignalConnection@@@@QAE?AV?$QPtrListStdIterator@VsignalConnection@@@@XZ 00406e27 f i AdjustMon.obj
 0001:00005e36       ?checkAdjust@CAdjustMon@@AAE?AVQString@@V2@@Z 00406e36 f   AdjustMon.obj
 0001:00005f7a       ?clear@?$QMap@VQString@@VcomplexInstance@@@@QAEXXZ 00406f7a f i AdjustMon.obj
 0001:00005fc1       ?clear@?$QMap@VQString@@VcomplexParam@@@@QAEXXZ 00406fc1 f i AdjustMon.obj
 0001:00006008       ?clear@?$QMap@VQString@@VcomplexType@@@@QAEXXZ 00407008 f i AdjustMon.obj
 0001:0000604f       ?clear@?$QMap@VQString@@VdeviceTypeInfo@@@@QAEXXZ 0040704f f i AdjustMon.obj
 0001:00006096       ?clear@?$QMap@VQString@@VinstanceInfo@@@@QAEXXZ 00407096 f i AdjustMon.obj
 0001:000060dd       ?clear@?$QMap@VQString@@VparamInfo@@@@QAEXXZ 004070dd f i AdjustMon.obj
 0001:00006124       ?clear@?$QMapPrivate@VQString@@VcomplexInstance@@@@QAEXPAU?$QMapNode@VQString@@VcomplexInstance@@@@@Z 00407124 f i AdjustMon.obj
 0001:0000615a       ?clear@?$QMapPrivate@VQString@@VcomplexInstance@@@@QAEXXZ 0040715a f i AdjustMon.obj
 0001:00006189       ?clear@?$QMapPrivate@VQString@@VcomplexParam@@@@QAEXPAU?$QMapNode@VQString@@VcomplexParam@@@@@Z 00407189 f i AdjustMon.obj
 0001:000061bf       ?clear@?$QMapPrivate@VQString@@VcomplexParam@@@@QAEXXZ 004071bf f i AdjustMon.obj
 0001:000061ee       ?clear@?$QMapPrivate@VQString@@VcomplexType@@@@QAEXPAU?$QMapNode@VQString@@VcomplexType@@@@@Z 004071ee f i AdjustMon.obj
 0001:00006224       ?clear@?$QMapPrivate@VQString@@VcomplexType@@@@QAEXXZ 00407224 f i AdjustMon.obj
 0001:00006253       ?clear@?$QMapPrivate@VQString@@VdeviceTypeInfo@@@@QAEXPAU?$QMapNode@VQString@@VdeviceTypeInfo@@@@@Z 00407253 f i AdjustMon.obj
 0001:00006289       ?clear@?$QMapPrivate@VQString@@VdeviceTypeInfo@@@@QAEXXZ 00407289 f i AdjustMon.obj
 0001:000062b8       ?clear@?$QMapPrivate@VQString@@VinstanceInfo@@@@QAEXPAU?$QMapNode@VQString@@VinstanceInfo@@@@@Z 004072b8 f i AdjustMon.obj
 0001:000062ee       ?clear@?$QMapPrivate@VQString@@VinstanceInfo@@@@QAEXXZ 004072ee f i AdjustMon.obj
 0001:0000631d       ?clear@?$QMapPrivate@VQString@@VparamInfo@@@@QAEXPAU?$QMapNode@VQString@@VparamInfo@@@@@Z 0040731d f i AdjustMon.obj
 0001:00006353       ?clear@?$QMapPrivate@VQString@@VparamInfo@@@@QAEXXZ 00407353 f i AdjustMon.obj
 0001:00006382       ?clear@?$QPtrList@VQString@@@@UAEXXZ 00407382 f i AdjustMon.obj
 0001:00006382       ?clear@?$QPtrList@VsignalConnection@@@@UAEXXZ 00407382 f i AdjustMon.obj
 0001:00006388       ?clearAdjustStringStack@CAdjustMon@@QAEXXZ 00407388 f   AdjustMon.obj
 0001:00006390       ?constBegin@?$QMap@VQString@@VcomplexType@@@@QBE?AV?$QMapConstIterator@VQString@@VcomplexType@@@@XZ 00407390 f i AdjustMon.obj
 0001:00006390       ?constBegin@?$QMap@VQString@@VcomplexParam@@@@QBE?AV?$QMapConstIterator@VQString@@VcomplexParam@@@@XZ 00407390 f i AdjustMon.obj
 0001:00006390       ?begin@?$QMap@VQString@@VcomplexInstance@@@@QBE?AV?$QMapConstIterator@VQString@@VcomplexInstance@@@@XZ 00407390 f i AdjustMon.obj
 0001:00006390       ?constBegin@?$QMap@VQString@@VdeviceTypeInfo@@@@QBE?AV?$QMapConstIterator@VQString@@VdeviceTypeInfo@@@@XZ 00407390 f i AdjustMon.obj
 0001:00006390       ?begin@?$QMap@VQString@@VcomplexType@@@@QBE?AV?$QMapConstIterator@VQString@@VcomplexType@@@@XZ 00407390 f i AdjustMon.obj
 0001:00006390       ?constBegin@?$QMap@VQString@@VinstanceInfo@@@@QBE?AV?$QMapConstIterator@VQString@@VinstanceInfo@@@@XZ 00407390 f i AdjustMon.obj
 0001:00006390       ?begin@?$QMap@VQString@@VcomplexParam@@@@QBE?AV?$QMapConstIterator@VQString@@VcomplexParam@@@@XZ 00407390 f i AdjustMon.obj
 0001:00006390       ?constBegin@?$QMap@VQString@@VcomplexInstance@@@@QBE?AV?$QMapConstIterator@VQString@@VcomplexInstance@@@@XZ 00407390 f i AdjustMon.obj
 0001:00006390       ?begin@?$QMap@VQString@@VparamInfo@@@@QBE?AV?$QMapConstIterator@VQString@@VparamInfo@@@@XZ 00407390 f i AdjustMon.obj
 0001:00006390       ?begin@?$QMap@VQString@@VdeviceTypeInfo@@@@QBE?AV?$QMapConstIterator@VQString@@VdeviceTypeInfo@@@@XZ 00407390 f i AdjustMon.obj
 0001:00006390       ?constBegin@?$QMap@VQString@@VparamInfo@@@@QBE?AV?$QMapConstIterator@VQString@@VparamInfo@@@@XZ 00407390 f i AdjustMon.obj
 0001:00006390       ?begin@?$QMap@VQString@@VinstanceInfo@@@@QBE?AV?$QMapConstIterator@VQString@@VinstanceInfo@@@@XZ 00407390 f i AdjustMon.obj
 0001:000063a3       ?contains@?$QMap@VQString@@VcomplexParam@@@@QBE_NABVQString@@@Z 004073a3 f i AdjustMon.obj
 0001:000063c5       ?contains@?$QMap@VQString@@VparamInfo@@@@QBE_NABVQString@@@Z 004073c5 f i AdjustMon.obj
 0001:000063c5       ?contains@?$QMap@VQString@@VcomplexInstance@@@@QBE_NABVQString@@@Z 004073c5 f i AdjustMon.obj
 0001:000063c5       ?contains@?$QMap@VQString@@VcomplexType@@@@QBE_NABVQString@@@Z 004073c5 f i AdjustMon.obj
 0001:000063e7       ?contains@?$QMap@VQString@@VdeviceTypeInfo@@@@QBE_NABVQString@@@Z 004073e7 f i AdjustMon.obj
 0001:00006409       ?contains@?$QMap@VQString@@VinstanceInfo@@@@QBE_NABVQString@@@Z 00407409 f i AdjustMon.obj
 0001:0000642b       ?contains@?$QPtrList@VsignalConnection@@@@QBEIPBVsignalConnection@@@Z 0040742b f i AdjustMon.obj
 0001:00006435       ?containsRef@?$QPtrList@VsignalConnection@@@@QBEIPBVsignalConnection@@@Z 00407435 f i AdjustMon.obj
 0001:0000643f       ?copy@?$QMapPrivate@VQString@@VcomplexInstance@@@@QAEPAU?$QMapNode@VQString@@VcomplexInstance@@@@PAU2@@Z 0040743f f i AdjustMon.obj
 0001:000064c1       ?copy@?$QMapPrivate@VQString@@VcomplexParam@@@@QAEPAU?$QMapNode@VQString@@VcomplexParam@@@@PAU2@@Z 004074c1 f i AdjustMon.obj
 0001:00006543       ?copy@?$QMapPrivate@VQString@@VcomplexType@@@@QAEPAU?$QMapNode@VQString@@VcomplexType@@@@PAU2@@Z 00407543 f i AdjustMon.obj
 0001:000065c5       ?copy@?$QMapPrivate@VQString@@VdeviceTypeInfo@@@@QAEPAU?$QMapNode@VQString@@VdeviceTypeInfo@@@@PAU2@@Z 004075c5 f i AdjustMon.obj
 0001:00006647       ?copy@?$QMapPrivate@VQString@@VinstanceInfo@@@@QAEPAU?$QMapNode@VQString@@VinstanceInfo@@@@PAU2@@Z 00407647 f i AdjustMon.obj
 0001:000066c9       ?copy@?$QMapPrivate@VQString@@VparamInfo@@@@QAEPAU?$QMapNode@VQString@@VparamInfo@@@@PAU2@@Z 004076c9 f i AdjustMon.obj
 0001:0000674b       ?count@?$QMap@VQString@@VcomplexInstance@@@@QBEIABVQString@@@Z 0040774b f i AdjustMon.obj
 0001:0000674b       ?count@?$QMap@VQString@@VparamInfo@@@@QBEIABVQString@@@Z 0040774b f i AdjustMon.obj
 0001:0000674b       ?count@?$QMap@VQString@@VcomplexType@@@@QBEIABVQString@@@Z 0040774b f i AdjustMon.obj
 0001:0000678a       ?count@?$QMap@VQString@@VcomplexParam@@@@QBEIABVQString@@@Z 0040778a f i AdjustMon.obj
 0001:000067c9       ?count@?$QMap@VQString@@VdeviceTypeInfo@@@@QBEIABVQString@@@Z 004077c9 f i AdjustMon.obj
 0001:00006808       ?count@?$QMap@VQString@@VinstanceInfo@@@@QBEIABVQString@@@Z 00407808 f i AdjustMon.obj
 0001:00006847       ?count@?$QPtrListIterator@VsignalConnection@@@@QBEIXZ 00407847 f i AdjustMon.obj
 0001:0000684d       ?current@?$QPtrList@VsignalConnection@@@@QBEPAVsignalConnection@@XZ 0040784d f i AdjustMon.obj
 0001:0000685a       ?dec@?$QMapIterator@VQString@@VdeviceTypeInfo@@@@AAEHXZ 0040785a f i AdjustMon.obj
 0001:0000685a       ?dec@?$QMapIterator@VQString@@VparamInfo@@@@AAEHXZ 0040785a f i AdjustMon.obj
 0001:0000685a       ?dec@?$QMapIterator@VQString@@VcomplexParam@@@@AAEHXZ 0040785a f i AdjustMon.obj
 0001:0000685a       ?dec@?$QMapIterator@VQString@@VcomplexInstance@@@@AAEHXZ 0040785a f i AdjustMon.obj
 0001:0000685a       ?dec@?$QMapIterator@VQString@@VinstanceInfo@@@@AAEHXZ 0040785a f i AdjustMon.obj
 0001:0000685a       ?dec@?$QMapIterator@VQString@@VcomplexType@@@@AAEHXZ 0040785a f i AdjustMon.obj
 0001:00006899       ?default_error_condition@_System_error_category@std@@UBE?AVerror_condition@2@H@Z 00407899 f i AdjustMon.obj
 0001:000068c6       ?default_error_condition@error_category@std@@UBE?AVerror_condition@2@H@Z 004078c6 f i AdjustMon.obj
 0001:000068d8       ?deleteItem@?$QPtrList@VQString@@@@EAEXPAX@Z 004078d8 f i AdjustMon.obj
 0001:000068fd       ?deleteItem@?$QPtrList@VsignalConnection@@@@EAEXPAX@Z 004078fd f i AdjustMon.obj
 0001:00006921       ?detach@?$QMap@VQString@@VcomplexInstance@@@@IAEXXZ 00407921 f i AdjustMon.obj
 0001:0000692d       ?detach@?$QMap@VQString@@VcomplexParam@@@@IAEXXZ 0040792d f i AdjustMon.obj
 0001:00006939       ?detach@?$QMap@VQString@@VcomplexType@@@@IAEXXZ 00407939 f i AdjustMon.obj
 0001:00006945       ?detach@?$QMap@VQString@@VdeviceTypeInfo@@@@IAEXXZ 00407945 f i AdjustMon.obj
 0001:00006951       ?detach@?$QMap@VQString@@VinstanceInfo@@@@IAEXXZ 00407951 f i AdjustMon.obj
 0001:0000695d       ?detach@?$QMap@VQString@@VparamInfo@@@@IAEXXZ 0040795d f i AdjustMon.obj
 0001:00006969       ?detachInternal@?$QMap@VQString@@VcomplexInstance@@@@AAEXXZ 00407969 f i AdjustMon.obj
 0001:000069a4       ?detachInternal@?$QMap@VQString@@VcomplexParam@@@@AAEXXZ 004079a4 f i AdjustMon.obj
 0001:000069df       ?detachInternal@?$QMap@VQString@@VcomplexType@@@@AAEXXZ 004079df f i AdjustMon.obj
 0001:00006a1a       ?detachInternal@?$QMap@VQString@@VdeviceTypeInfo@@@@AAEXXZ 00407a1a f i AdjustMon.obj
 0001:00006a55       ?detachInternal@?$QMap@VQString@@VinstanceInfo@@@@AAEXXZ 00407a55 f i AdjustMon.obj
 0001:00006a90       ?detachInternal@?$QMap@VQString@@VparamInfo@@@@AAEXXZ 00407a90 f i AdjustMon.obj
 0001:00006acb       ?detachInternal@?$QValueList@VcomplexInstance@@@@AAEXXZ 00407acb f i AdjustMon.obj
 0001:00006b07       ?detachInternal@?$QValueList@VcomplexParam@@@@AAEXXZ 00407b07 f i AdjustMon.obj
 0001:00006b43       ?detachInternal@?$QValueList@VcomplexType@@@@AAEXXZ 00407b43 f i AdjustMon.obj
 0001:00006b7f       ?detachInternal@?$QValueList@VdeviceTypeInfo@@@@AAEXXZ 00407b7f f i AdjustMon.obj
 0001:00006bbb       ?detachInternal@?$QValueList@VinstanceInfo@@@@AAEXXZ 00407bbb f i AdjustMon.obj
 0001:00006bf7       ?detachInternal@?$QValueList@VparamInfo@@@@AAEXXZ 00407bf7 f i AdjustMon.obj
 0001:00006c33       ?isEmpty@?$QMap@VQString@@VcomplexType@@@@QBE_NXZ 00407c33 f i AdjustMon.obj
 0001:00006c33       ?empty@?$QMap@VQString@@VparamInfo@@@@QBE_NXZ 00407c33 f i AdjustMon.obj
 0001:00006c33       ?empty@?$QMap@VQString@@VcomplexType@@@@QBE_NXZ 00407c33 f i AdjustMon.obj
 0001:00006c33       ?isEmpty@?$QMap@VQString@@VcomplexParam@@@@QBE_NXZ 00407c33 f i AdjustMon.obj
 0001:00006c33       ?empty@?$QMap@VQString@@VcomplexParam@@@@QBE_NXZ 00407c33 f i AdjustMon.obj
 0001:00006c33       ?isEmpty@?$QMap@VQString@@VparamInfo@@@@QBE_NXZ 00407c33 f i AdjustMon.obj
 0001:00006c33       ?isEmpty@?$QMap@VQString@@VcomplexInstance@@@@QBE_NXZ 00407c33 f i AdjustMon.obj
 0001:00006c33       ?empty@?$QMap@VQString@@VcomplexInstance@@@@QBE_NXZ 00407c33 f i AdjustMon.obj
 0001:00006c33       ?empty@?$QMap@VQString@@VinstanceInfo@@@@QBE_NXZ 00407c33 f i AdjustMon.obj
 0001:00006c33       ?isEmpty@?$QMap@VQString@@VinstanceInfo@@@@QBE_NXZ 00407c33 f i AdjustMon.obj
 0001:00006c33       ?isEmpty@?$QMap@VQString@@VdeviceTypeInfo@@@@QBE_NXZ 00407c33 f i AdjustMon.obj
 0001:00006c33       ?empty@?$QMap@VQString@@VdeviceTypeInfo@@@@QBE_NXZ 00407c33 f i AdjustMon.obj
 0001:00006c3e       ?end@?$QMap@VQString@@VcomplexInstance@@@@QAE?AV?$QMapIterator@VQString@@VcomplexInstance@@@@XZ 00407c3e f i AdjustMon.obj
 0001:00006c5f       ?end@?$QMap@VQString@@VcomplexParam@@@@QAE?AV?$QMapIterator@VQString@@VcomplexParam@@@@XZ 00407c5f f i AdjustMon.obj
 0001:00006c80       ?constEnd@?$QMap@VQString@@VdeviceTypeInfo@@@@QBE?AV?$QMapConstIterator@VQString@@VdeviceTypeInfo@@@@XZ 00407c80 f i AdjustMon.obj
 0001:00006c80       ?end@?$QMap@VQString@@VcomplexType@@@@QBE?AV?$QMapConstIterator@VQString@@VcomplexType@@@@XZ 00407c80 f i AdjustMon.obj
 0001:00006c80       ?constEnd@?$QMap@VQString@@VinstanceInfo@@@@QBE?AV?$QMapConstIterator@VQString@@VinstanceInfo@@@@XZ 00407c80 f i AdjustMon.obj
 0001:00006c80       ?end@?$QMap@VQString@@VinstanceInfo@@@@QBE?AV?$QMapConstIterator@VQString@@VinstanceInfo@@@@XZ 00407c80 f i AdjustMon.obj
 0001:00006c80       ?constEnd@?$QMap@VQString@@VcomplexParam@@@@QBE?AV?$QMapConstIterator@VQString@@VcomplexParam@@@@XZ 00407c80 f i AdjustMon.obj
 0001:00006c80       ?end@?$QMap@VQString@@VdeviceTypeInfo@@@@QBE?AV?$QMapConstIterator@VQString@@VdeviceTypeInfo@@@@XZ 00407c80 f i AdjustMon.obj
 0001:00006c80       ?constEnd@?$QMap@VQString@@VparamInfo@@@@QBE?AV?$QMapConstIterator@VQString@@VparamInfo@@@@XZ 00407c80 f i AdjustMon.obj
 0001:00006c80       ?end@?$QMap@VQString@@VcomplexInstance@@@@QBE?AV?$QMapConstIterator@VQString@@VcomplexInstance@@@@XZ 00407c80 f i AdjustMon.obj
 0001:00006c80       ?end@?$QMap@VQString@@VcomplexParam@@@@QBE?AV?$QMapConstIterator@VQString@@VcomplexParam@@@@XZ 00407c80 f i AdjustMon.obj
 0001:00006c80       ?end@?$QMap@VQString@@VparamInfo@@@@QBE?AV?$QMapConstIterator@VQString@@VparamInfo@@@@XZ 00407c80 f i AdjustMon.obj
 0001:00006c80       ?constEnd@?$QMap@VQString@@VcomplexInstance@@@@QBE?AV?$QMapConstIterator@VQString@@VcomplexInstance@@@@XZ 00407c80 f i AdjustMon.obj
 0001:00006c80       ?constEnd@?$QMap@VQString@@VcomplexType@@@@QBE?AV?$QMapConstIterator@VQString@@VcomplexType@@@@XZ 00407c80 f i AdjustMon.obj
 0001:00006c91       ?end@?$QMap@VQString@@VcomplexType@@@@QAE?AV?$QMapIterator@VQString@@VcomplexType@@@@XZ 00407c91 f i AdjustMon.obj
 0001:00006cb2       ?end@?$QMap@VQString@@VdeviceTypeInfo@@@@QAE?AV?$QMapIterator@VQString@@VdeviceTypeInfo@@@@XZ 00407cb2 f i AdjustMon.obj
 0001:00006cd3       ?end@?$QMap@VQString@@VinstanceInfo@@@@QAE?AV?$QMapIterator@VQString@@VinstanceInfo@@@@XZ 00407cd3 f i AdjustMon.obj
 0001:00006cf4       ?end@?$QMap@VQString@@VparamInfo@@@@QAE?AV?$QMapIterator@VQString@@VparamInfo@@@@XZ 00407cf4 f i AdjustMon.obj
 0001:00006d15       ?constEnd@?$QPtrList@VsignalConnection@@@@QBE?AV?$QPtrListStdIterator@VsignalConnection@@@@XZ 00407d15 f i AdjustMon.obj
 0001:00006d15       ?end@?$QPtrList@VsignalConnection@@@@QAE?AV?$QPtrListStdIterator@VsignalConnection@@@@XZ 00407d15 f i AdjustMon.obj
 0001:00006d15       ?end@?$QPtrList@VsignalConnection@@@@QBE?AV?$QPtrListStdIterator@VsignalConnection@@@@XZ 00407d15 f i AdjustMon.obj
 0001:00006d22       ?end@?$QValueList@VcomplexInstance@@@@QAE?AV?$QValueListIterator@VcomplexInstance@@@@XZ 00407d22 f i AdjustMon.obj
 0001:00006d44       ?end@?$QValueList@VcomplexParam@@@@QAE?AV?$QValueListIterator@VcomplexParam@@@@XZ 00407d44 f i AdjustMon.obj
 0001:00006d66       ?end@?$QValueList@VcomplexType@@@@QAE?AV?$QValueListIterator@VcomplexType@@@@XZ 00407d66 f i AdjustMon.obj
 0001:00006d88       ?end@?$QValueList@VdeviceTypeInfo@@@@QAE?AV?$QValueListIterator@VdeviceTypeInfo@@@@XZ 00407d88 f i AdjustMon.obj
 0001:00006daa       ?end@?$QValueList@VinstanceInfo@@@@QAE?AV?$QValueListIterator@VinstanceInfo@@@@XZ 00407daa f i AdjustMon.obj
 0001:00006dcc       ?end@?$QValueList@VparamInfo@@@@QAE?AV?$QValueListIterator@VparamInfo@@@@XZ 00407dcc f i AdjustMon.obj
 0001:00006dee       ?equivalent@error_category@std@@UBE_NABVerror_code@2@H@Z 00407dee f i AdjustMon.obj
 0001:00006e0b       ?equivalent@error_category@std@@UBE_NHABVerror_condition@2@@Z 00407e0b f i AdjustMon.obj
 0001:00006e2c       ?remove@?$QMap@VQString@@VcomplexParam@@@@QAEXV?$QMapIterator@VQString@@VcomplexParam@@@@@Z 00407e2c f i AdjustMon.obj
 0001:00006e2c       ?erase@?$QMap@VQString@@VcomplexParam@@@@QAEXV?$QMapIterator@VQString@@VcomplexParam@@@@@Z 00407e2c f i AdjustMon.obj
 0001:00006e52       ?remove@?$QMap@VQString@@VcomplexType@@@@QAEXABVQString@@@Z 00407e52 f i AdjustMon.obj
 0001:00006e52       ?erase@?$QMap@VQString@@VcomplexType@@@@QAEXABVQString@@@Z 00407e52 f i AdjustMon.obj
 0001:00006e9c       ?erase@?$QMap@VQString@@VcomplexType@@@@QAEXV?$QMapIterator@VQString@@VcomplexType@@@@@Z 00407e9c f i AdjustMon.obj
 0001:00006e9c       ?remove@?$QMap@VQString@@VcomplexType@@@@QAEXV?$QMapIterator@VQString@@VcomplexType@@@@@Z 00407e9c f i AdjustMon.obj
 0001:00006ec2       ?erase@?$QMap@VQString@@VinstanceInfo@@@@QAEXABVQString@@@Z 00407ec2 f i AdjustMon.obj
 0001:00006ec2       ?remove@?$QMap@VQString@@VinstanceInfo@@@@QAEXABVQString@@@Z 00407ec2 f i AdjustMon.obj
 0001:00006f0c       ?remove@?$QMap@VQString@@VparamInfo@@@@QAEXABVQString@@@Z 00407f0c f i AdjustMon.obj
 0001:00006f0c       ?erase@?$QMap@VQString@@VparamInfo@@@@QAEXABVQString@@@Z 00407f0c f i AdjustMon.obj
 0001:00006f56       ?remove@?$QMap@VQString@@VparamInfo@@@@QAEXV?$QMapIterator@VQString@@VparamInfo@@@@@Z 00407f56 f i AdjustMon.obj
 0001:00006f56       ?erase@?$QMap@VQString@@VparamInfo@@@@QAEXV?$QMapIterator@VQString@@VparamInfo@@@@@Z 00407f56 f i AdjustMon.obj
 0001:00006f7c       ?erase@?$QPtrList@VsignalConnection@@@@QAE?AV?$QPtrListStdIterator@VsignalConnection@@@@V2@@Z 00407f7c f i AdjustMon.obj
 0001:00006f93       ?erase@?$basic_string@DU?$char_traits@D@std@@V?$allocator@D@2@@std@@QAEAAV12@I@Z 00407f93 f i AdjustMon.obj
 0001:00006fc2       ?erase@?$basic_string@DU?$char_traits@D@std@@V?$allocator@D@2@@std@@QAEAAV12@II@Z 00407fc2 f i AdjustMon.obj
 0001:00007045       ?find@?$QMap@VQString@@VcomplexInstance@@@@QAE?AV?$QMapIterator@VQString@@VcomplexInstance@@@@ABVQString@@@Z 00408045 f i AdjustMon.obj
 0001:00007071       ?find@?$QMap@VQString@@VcomplexParam@@@@QAE?AV?$QMapIterator@VQString@@VcomplexParam@@@@ABVQString@@@Z 00408071 f i AdjustMon.obj
 0001:0000709d       ?find@?$QMap@VQString@@VcomplexParam@@@@QBE?AV?$QMapConstIterator@VQString@@VcomplexParam@@@@ABVQString@@@Z 0040809d f i AdjustMon.obj
 0001:000070b4       ?find@?$QMap@VQString@@VcomplexType@@@@QAE?AV?$QMapIterator@VQString@@VcomplexType@@@@ABVQString@@@Z 004080b4 f i AdjustMon.obj
 0001:000070e0       ?find@?$QMap@VQString@@VdeviceTypeInfo@@@@QAE?AV?$QMapIterator@VQString@@VdeviceTypeInfo@@@@ABVQString@@@Z 004080e0 f i AdjustMon.obj
 0001:0000710c       ?find@?$QMap@VQString@@VdeviceTypeInfo@@@@QBE?AV?$QMapConstIterator@VQString@@VdeviceTypeInfo@@@@ABVQString@@@Z 0040810c f i AdjustMon.obj
 0001:00007123       ?find@?$QMap@VQString@@VinstanceInfo@@@@QAE?AV?$QMapIterator@VQString@@VinstanceInfo@@@@ABVQString@@@Z 00408123 f i AdjustMon.obj
 0001:0000714f       ?find@?$QMap@VQString@@VinstanceInfo@@@@QBE?AV?$QMapConstIterator@VQString@@VinstanceInfo@@@@ABVQString@@@Z 0040814f f i AdjustMon.obj
 0001:00007166       ?find@?$QMap@VQString@@VparamInfo@@@@QAE?AV?$QMapIterator@VQString@@VparamInfo@@@@ABVQString@@@Z 00408166 f i AdjustMon.obj
 0001:00007192       ?find@?$QMap@VQString@@VcomplexInstance@@@@QBE?AV?$QMapConstIterator@VQString@@VcomplexInstance@@@@ABVQString@@@Z 00408192 f i AdjustMon.obj
 0001:00007192       ?find@?$QMap@VQString@@VparamInfo@@@@QBE?AV?$QMapConstIterator@VQString@@VparamInfo@@@@ABVQString@@@Z 00408192 f i AdjustMon.obj
 0001:00007192       ?find@?$QMap@VQString@@VcomplexType@@@@QBE?AV?$QMapConstIterator@VQString@@VcomplexType@@@@ABVQString@@@Z 00408192 f i AdjustMon.obj
 0001:000071a9       ?find@?$QMapPrivate@VQString@@VcomplexParam@@@@QBE?AV?$QMapConstIterator@VQString@@VcomplexParam@@@@ABVQString@@@Z 004081a9 f i AdjustMon.obj
 0001:00007207       ?find@?$QMapPrivate@VQString@@VdeviceTypeInfo@@@@QBE?AV?$QMapConstIterator@VQString@@VdeviceTypeInfo@@@@ABVQString@@@Z 00408207 f i AdjustMon.obj
 0001:00007265       ?find@?$QMapPrivate@VQString@@VinstanceInfo@@@@QBE?AV?$QMapConstIterator@VQString@@VinstanceInfo@@@@ABVQString@@@Z 00408265 f i AdjustMon.obj
 0001:000072c3       ?find@?$QMapPrivate@VQString@@VcomplexType@@@@QBE?AV?$QMapConstIterator@VQString@@VcomplexType@@@@ABVQString@@@Z 004082c3 f i AdjustMon.obj
 0001:000072c3       ?find@?$QMapPrivate@VQString@@VparamInfo@@@@QBE?AV?$QMapConstIterator@VQString@@VparamInfo@@@@ABVQString@@@Z 004082c3 f i AdjustMon.obj
 0001:000072c3       ?find@?$QMapPrivate@VQString@@VcomplexInstance@@@@QBE?AV?$QMapConstIterator@VQString@@VcomplexInstance@@@@ABVQString@@@Z 004082c3 f i AdjustMon.obj
 0001:00007321       ?find@?$QPtrList@VsignalConnection@@@@QAEHPBVsignalConnection@@@Z 00408321 f i AdjustMon.obj
 0001:00007333       ?findNext@?$QPtrList@VsignalConnection@@@@QAEHPBVsignalConnection@@@Z 00408333 f i AdjustMon.obj
 0001:00007345       ?findNextRef@?$QPtrList@VsignalConnection@@@@QAEHPBVsignalConnection@@@Z 00408345 f i AdjustMon.obj
 0001:00007357       ?findRef@?$QPtrList@VsignalConnection@@@@QAEHPBVsignalConnection@@@Z 00408357 f i AdjustMon.obj
 0001:00007369       ?first@?$QPtrList@VsignalConnection@@@@QAEPAVsignalConnection@@XZ 00408369 f i AdjustMon.obj
 0001:0000736f       ?getFirst@?$QPtrList@VsignalConnection@@@@QBEPAVsignalConnection@@XZ 0040836f f i AdjustMon.obj
 0001:0000737c       ?getLast@?$QPtrList@VsignalConnection@@@@QBEPAVsignalConnection@@XZ 0040837c f i AdjustMon.obj
 0001:00007389       ?inSort@?$QPtrList@VsignalConnection@@@@QAEXPBVsignalConnection@@@Z 00408389 f i AdjustMon.obj
 0001:00007393       ?inc@?$QMapConstIterator@VQString@@VdeviceTypeInfo@@@@AAEHXZ 00408393 f i AdjustMon.obj
 0001:00007393       ?inc@?$QMapConstIterator@VQString@@VparamInfo@@@@AAEHXZ 00408393 f i AdjustMon.obj
 0001:00007393       ?inc@?$QMapConstIterator@VQString@@VcomplexType@@@@AAEHXZ 00408393 f i AdjustMon.obj
 0001:00007393       ?inc@?$QMapConstIterator@VQString@@VcomplexInstance@@@@AAEHXZ 00408393 f i AdjustMon.obj
 0001:00007393       ?inc@?$QMapConstIterator@VQString@@VinstanceInfo@@@@AAEHXZ 00408393 f i AdjustMon.obj
 0001:00007393       ?inc@?$QMapConstIterator@VQString@@VcomplexParam@@@@AAEHXZ 00408393 f i AdjustMon.obj
 0001:000073c4       ?insert@?$QMap@VQString@@VcomplexInstance@@@@QAE?AU?$QPair@V?$QMapIterator@VQString@@VcomplexInstance@@@@_N@@ABU?$QPair@$$CBVQString@@VcomplexInstance@@@@@Z 004083c4 f i AdjustMon.obj
 0001:00007419       ?insert@?$QMap@VQString@@VcomplexInstance@@@@QAE?AV?$QMapIterator@VQString@@VcomplexInstance@@@@ABVQString@@ABVcomplexInstance@@_N@Z 00408419 f i AdjustMon.obj
 0001:00007462       ?insert@?$QMap@VQString@@VcomplexParam@@@@QAE?AU?$QPair@V?$QMapIterator@VQString@@VcomplexParam@@@@_N@@ABU?$QPair@$$CBVQString@@VcomplexParam@@@@@Z 00408462 f i AdjustMon.obj
 0001:000074c6       ?insert@?$QMap@VQString@@VcomplexParam@@@@QAE?AV?$QMapIterator@VQString@@VcomplexParam@@@@ABVQString@@ABVcomplexParam@@_N@Z 004084c6 f i AdjustMon.obj
 0001:00007521       ?insert@?$QMap@VQString@@VcomplexType@@@@QAE?AU?$QPair@V?$QMapIterator@VQString@@VcomplexType@@@@_N@@ABU?$QPair@$$CBVQString@@VcomplexType@@@@@Z 00408521 f i AdjustMon.obj
 0001:00007576       ?insert@?$QMap@VQString@@VcomplexType@@@@QAE?AV?$QMapIterator@VQString@@VcomplexType@@@@ABVQString@@ABVcomplexType@@_N@Z 00408576 f i AdjustMon.obj
 0001:000075bf       ?insert@?$QMap@VQString@@VdeviceTypeInfo@@@@QAE?AU?$QPair@V?$QMapIterator@VQString@@VdeviceTypeInfo@@@@_N@@ABU?$QPair@$$CBVQString@@VdeviceTypeInfo@@@@@Z 004085bf f i AdjustMon.obj
 0001:00007614       ?insert@?$QMap@VQString@@VdeviceTypeInfo@@@@QAE?AV?$QMapIterator@VQString@@VdeviceTypeInfo@@@@ABVQString@@ABVdeviceTypeInfo@@_N@Z 00408614 f i AdjustMon.obj
 0001:0000765d       ?insert@?$QMap@VQString@@VinstanceInfo@@@@QAE?AU?$QPair@V?$QMapIterator@VQString@@VinstanceInfo@@@@_N@@ABU?$QPair@$$CBVQString@@VinstanceInfo@@@@@Z 0040865d f i AdjustMon.obj
 0001:000076b2       ?insert@?$QMap@VQString@@VinstanceInfo@@@@QAE?AV?$QMapIterator@VQString@@VinstanceInfo@@@@ABVQString@@ABVinstanceInfo@@_N@Z 004086b2 f i AdjustMon.obj
 0001:000076fb       ?insert@?$QMap@VQString@@VparamInfo@@@@QAE?AU?$QPair@V?$QMapIterator@VQString@@VparamInfo@@@@_N@@ABU?$QPair@$$CBVQString@@VparamInfo@@@@@Z 004086fb f i AdjustMon.obj
 0001:00007744       ?insert@?$QMap@VQString@@VparamInfo@@@@QAE?AV?$QMapIterator@VQString@@VparamInfo@@@@ABVQString@@ABVparamInfo@@_N@Z 00408744 f i AdjustMon.obj
 0001:0000778a       ?insert@?$QMapPrivate@VQString@@VcomplexInstance@@@@QAE?AV?$QMapIterator@VQString@@VcomplexInstance@@@@PAUQMapNodeBase@@0ABVQString@@@Z 0040878a f i AdjustMon.obj
 0001:00007831       ?insert@?$QMapPrivate@VQString@@VcomplexParam@@@@QAE?AV?$QMapIterator@VQString@@VcomplexParam@@@@PAUQMapNodeBase@@0ABVQString@@@Z 00408831 f i AdjustMon.obj
 0001:000078d8       ?insert@?$QMapPrivate@VQString@@VcomplexType@@@@QAE?AV?$QMapIterator@VQString@@VcomplexType@@@@PAUQMapNodeBase@@0ABVQString@@@Z 004088d8 f i AdjustMon.obj
 0001:0000797f       ?insert@?$QMapPrivate@VQString@@VdeviceTypeInfo@@@@QAE?AV?$QMapIterator@VQString@@VdeviceTypeInfo@@@@PAUQMapNodeBase@@0ABVQString@@@Z 0040897f f i AdjustMon.obj
 0001:00007a26       ?insert@?$QMapPrivate@VQString@@VinstanceInfo@@@@QAE?AV?$QMapIterator@VQString@@VinstanceInfo@@@@PAUQMapNodeBase@@0ABVQString@@@Z 00408a26 f i AdjustMon.obj
 0001:00007acd       ?insert@?$QMapPrivate@VQString@@VparamInfo@@@@QAE?AV?$QMapIterator@VQString@@VparamInfo@@@@PAUQMapNodeBase@@0ABVQString@@@Z 00408acd f i AdjustMon.obj
 0001:00007b74       ?insert@?$QPtrList@VsignalConnection@@@@QAE_NIPBVsignalConnection@@@Z 00408b74 f i AdjustMon.obj
 0001:00007b7e       ?insert@?$QValueListPrivate@VcomplexInstance@@@@QAE?AV?$QValueListIterator@VcomplexInstance@@@@V2@ABVcomplexInstance@@@Z 00408b7e f i AdjustMon.obj
 0001:00007bde       ?insert@?$QValueListPrivate@VcomplexParam@@@@QAE?AV?$QValueListIterator@VcomplexParam@@@@V2@ABVcomplexParam@@@Z 00408bde f i AdjustMon.obj
 0001:00007c3e       ?insert@?$QValueListPrivate@VcomplexType@@@@QAE?AV?$QValueListIterator@VcomplexType@@@@V2@ABVcomplexType@@@Z 00408c3e f i AdjustMon.obj
 0001:00007c9e       ?insert@?$QValueListPrivate@VdeviceTypeInfo@@@@QAE?AV?$QValueListIterator@VdeviceTypeInfo@@@@V2@ABVdeviceTypeInfo@@@Z 00408c9e f i AdjustMon.obj
 0001:00007cfe       ?insert@?$QValueListPrivate@VinstanceInfo@@@@QAE?AV?$QValueListIterator@VinstanceInfo@@@@V2@ABVinstanceInfo@@@Z 00408cfe f i AdjustMon.obj
 0001:00007d5e       ?insert@?$QValueListPrivate@VparamInfo@@@@QAE?AV?$QValueListIterator@VparamInfo@@@@V2@ABVparamInfo@@@Z 00408d5e f i AdjustMon.obj
 0001:00007dd2       ?insertSingle@?$QMapPrivate@VQString@@VcomplexInstance@@@@QAE?AV?$QMapIterator@VQString@@VcomplexInstance@@@@ABVQString@@@Z 00408dd2 f i AdjustMon.obj
 0001:00007e5f       ?insertSingle@?$QMapPrivate@VQString@@VcomplexParam@@@@QAE?AV?$QMapIterator@VQString@@VcomplexParam@@@@ABVQString@@@Z 00408e5f f i AdjustMon.obj
 0001:00007eec       ?insertSingle@?$QMapPrivate@VQString@@VcomplexType@@@@QAE?AV?$QMapIterator@VQString@@VcomplexType@@@@ABVQString@@@Z 00408eec f i AdjustMon.obj
 0001:00007f79       ?insertSingle@?$QMapPrivate@VQString@@VdeviceTypeInfo@@@@QAE?AV?$QMapIterator@VQString@@VdeviceTypeInfo@@@@ABVQString@@@Z 00408f79 f i AdjustMon.obj
 0001:00008006       ?insertSingle@?$QMapPrivate@VQString@@VinstanceInfo@@@@QAE?AV?$QMapIterator@VQString@@VinstanceInfo@@@@ABVQString@@@Z 00409006 f i AdjustMon.obj
 0001:00008093       ?insertSingle@?$QMapPrivate@VQString@@VparamInfo@@@@QAE?AV?$QMapIterator@VQString@@VparamInfo@@@@ABVQString@@@Z 00409093 f i AdjustMon.obj
 0001:00008120       ?isEmpty@?$QPtrList@VsignalConnection@@@@QBE_NXZ 00409120 f i AdjustMon.obj
 0001:00008129       ?isEmpty@?$QPtrListIterator@VsignalConnection@@@@QBE_NXZ 00409129 f i AdjustMon.obj
 0001:00008135       ?keys@?$QMap@VQString@@VcomplexInstance@@@@QBE?AV?$QValueList@VQString@@@@XZ 00409135 f i AdjustMon.obj
 0001:00008135       ?keys@?$QMap@VQString@@VparamInfo@@@@QBE?AV?$QValueList@VQString@@@@XZ 00409135 f i AdjustMon.obj
 0001:00008135       ?keys@?$QMap@VQString@@VcomplexType@@@@QBE?AV?$QValueList@VQString@@@@XZ 00409135 f i AdjustMon.obj
 0001:0000819b       ?keys@?$QMap@VQString@@VcomplexParam@@@@QBE?AV?$QValueList@VQString@@@@XZ 0040919b f i AdjustMon.obj
 0001:00008201       ?keys@?$QMap@VQString@@VdeviceTypeInfo@@@@QBE?AV?$QValueList@VQString@@@@XZ 00409201 f i AdjustMon.obj
 0001:00008267       ?keys@?$QMap@VQString@@VinstanceInfo@@@@QBE?AV?$QValueList@VQString@@@@XZ 00409267 f i AdjustMon.obj
 0001:000082cd       ?last@?$QPtrList@VsignalConnection@@@@QAEPAVsignalConnection@@XZ 004092cd f i AdjustMon.obj
 0001:000082d3       ?length@?$char_traits@D@std@@SAIPBD@Z 004092d3 f i AdjustMon.obj
 0001:000082eb       ?message@_Generic_error_category@std@@UBE?AV?$basic_string@DU?$char_traits@D@std@@V?$allocator@D@2@@2@H@Z 004092eb f i AdjustMon.obj
 0001:0000832e       ?message@_Iostream_error_category@std@@UBE?AV?$basic_string@DU?$char_traits@D@std@@V?$allocator@D@2@@2@H@Z 0040932e f i AdjustMon.obj
 0001:00008372       ?message@_System_error_category@std@@UBE?AV?$basic_string@DU?$char_traits@D@std@@V?$allocator@D@2@@2@H@Z 00409372 f i AdjustMon.obj
 0001:000083b5       ?name@_Generic_error_category@std@@UBEPBDXZ 004093b5 f i AdjustMon.obj
 0001:000083bb       ?name@_Iostream_error_category@std@@UBEPBDXZ 004093bb f i AdjustMon.obj
 0001:000083c1       ?name@_System_error_category@std@@UBEPBDXZ 004093c1 f i AdjustMon.obj
 0001:000083c7       ?navigateBack@CAdjustMon@@QAEXXZ 004093c7 f   AdjustMon.obj
 0001:00008435       ?next@?$QPtrList@VsignalConnection@@@@QAEPAVsignalConnection@@XZ 00409435 f i AdjustMon.obj
 0001:0000843b       ?path@global@@SA?AVQString@@XZ 0040943b f i AdjustMon.obj
 0001:000084bb       ?prepend@?$QPtrList@VsignalConnection@@@@QAEXPBVsignalConnection@@@Z 004094bb f i AdjustMon.obj
 0001:000084cd       ?prev@?$QPtrList@VsignalConnection@@@@QAEPAVsignalConnection@@XZ 004094cd f i AdjustMon.obj
 0001:000084d3       ?remove@?$QMap@VQString@@VcomplexInstance@@@@QAEXABVQString@@@Z 004094d3 f i AdjustMon.obj
 0001:000084d3       ?erase@?$QMap@VQString@@VcomplexInstance@@@@QAEXABVQString@@@Z 004094d3 f i AdjustMon.obj
 0001:0000851d       ?erase@?$QMap@VQString@@VcomplexInstance@@@@QAEXV?$QMapIterator@VQString@@VcomplexInstance@@@@@Z 0040951d f i AdjustMon.obj
 0001:0000851d       ?remove@?$QMap@VQString@@VcomplexInstance@@@@QAEXV?$QMapIterator@VQString@@VcomplexInstance@@@@@Z 0040951d f i AdjustMon.obj
 0001:00008543       ?remove@?$QMap@VQString@@VcomplexParam@@@@QAEXABVQString@@@Z 00409543 f i AdjustMon.obj
 0001:00008543       ?erase@?$QMap@VQString@@VcomplexParam@@@@QAEXABVQString@@@Z 00409543 f i AdjustMon.obj
 0001:0000858d       ?remove@?$QMap@VQString@@VdeviceTypeInfo@@@@QAEXABVQString@@@Z 0040958d f i AdjustMon.obj
 0001:0000858d       ?erase@?$QMap@VQString@@VdeviceTypeInfo@@@@QAEXABVQString@@@Z 0040958d f i AdjustMon.obj
 0001:000085d7       ?remove@?$QMap@VQString@@VdeviceTypeInfo@@@@QAEXV?$QMapIterator@VQString@@VdeviceTypeInfo@@@@@Z 004095d7 f i AdjustMon.obj
 0001:000085d7       ?erase@?$QMap@VQString@@VdeviceTypeInfo@@@@QAEXV?$QMapIterator@VQString@@VdeviceTypeInfo@@@@@Z 004095d7 f i AdjustMon.obj
 0001:000085fd       ?erase@?$QMap@VQString@@VinstanceInfo@@@@QAEXV?$QMapIterator@VQString@@VinstanceInfo@@@@@Z 004095fd f i AdjustMon.obj
 0001:000085fd       ?remove@?$QMap@VQString@@VinstanceInfo@@@@QAEXV?$QMapIterator@VQString@@VinstanceInfo@@@@@Z 004095fd f i AdjustMon.obj
 0001:00008623       ?remove@?$QMapPrivate@VQString@@VcomplexInstance@@@@QAEXV?$QMapIterator@VQString@@VcomplexInstance@@@@@Z 00409623 f i AdjustMon.obj
 0001:0000865c       ?remove@?$QMapPrivate@VQString@@VcomplexParam@@@@QAEXV?$QMapIterator@VQString@@VcomplexParam@@@@@Z 0040965c f i AdjustMon.obj
 0001:00008695       ?remove@?$QMapPrivate@VQString@@VcomplexType@@@@QAEXV?$QMapIterator@VQString@@VcomplexType@@@@@Z 00409695 f i AdjustMon.obj
 0001:000086ce       ?remove@?$QMapPrivate@VQString@@VdeviceTypeInfo@@@@QAEXV?$QMapIterator@VQString@@VdeviceTypeInfo@@@@@Z 004096ce f i AdjustMon.obj
 0001:00008707       ?remove@?$QMapPrivate@VQString@@VinstanceInfo@@@@QAEXV?$QMapIterator@VQString@@VinstanceInfo@@@@@Z 00409707 f i AdjustMon.obj
 0001:00008740       ?remove@?$QMapPrivate@VQString@@VparamInfo@@@@QAEXV?$QMapIterator@VQString@@VparamInfo@@@@@Z 00409740 f i AdjustMon.obj
 0001:00008779       ?remove@?$QPtrList@VsignalConnection@@@@QAE_NI@Z 00409779 f i AdjustMon.obj
 0001:00008783       ?remove@?$QPtrList@VsignalConnection@@@@QAE_NPBVsignalConnection@@@Z 00409783 f i AdjustMon.obj
 0001:0000878d       ?remove@?$QPtrList@VsignalConnection@@@@QAE_NXZ 0040978d f i AdjustMon.obj
 0001:00008796       ?removeFirst@?$QPtrList@VsignalConnection@@@@QAE_NXZ 00409796 f i AdjustMon.obj
 0001:000087ab       ?removeLast@?$QPtrList@VsignalConnection@@@@QAE_NXZ 004097ab f i AdjustMon.obj
 0001:000087c0       ?removeNode@?$QPtrList@VsignalConnection@@@@QAEXPAVQLNode@@@Z 004097c0 f i AdjustMon.obj
 0001:000087ca       ?removeRef@?$QPtrList@VsignalConnection@@@@QAE_NPBVsignalConnection@@@Z 004097ca f i AdjustMon.obj
 0001:000087d4       ?replace@?$QMap@VQString@@VcomplexInstance@@@@QAE?AV?$QMapIterator@VQString@@VcomplexInstance@@@@ABVQString@@ABVcomplexInstance@@@Z 004097d4 f i AdjustMon.obj
 0001:000087fc       ?replace@?$QMap@VQString@@VcomplexParam@@@@QAE?AV?$QMapIterator@VQString@@VcomplexParam@@@@ABVQString@@ABVcomplexParam@@@Z 004097fc f i AdjustMon.obj
 0001:00008824       ?replace@?$QMap@VQString@@VcomplexType@@@@QAE?AV?$QMapIterator@VQString@@VcomplexType@@@@ABVQString@@ABVcomplexType@@@Z 00409824 f i AdjustMon.obj
 0001:0000884c       ?replace@?$QMap@VQString@@VdeviceTypeInfo@@@@QAE?AV?$QMapIterator@VQString@@VdeviceTypeInfo@@@@ABVQString@@ABVdeviceTypeInfo@@@Z 0040984c f i AdjustMon.obj
 0001:00008874       ?replace@?$QMap@VQString@@VinstanceInfo@@@@QAE?AV?$QMapIterator@VQString@@VinstanceInfo@@@@ABVQString@@ABVinstanceInfo@@@Z 00409874 f i AdjustMon.obj
 0001:0000889c       ?replace@?$QMap@VQString@@VparamInfo@@@@QAE?AV?$QMapIterator@VQString@@VparamInfo@@@@ABVQString@@ABVparamInfo@@@Z 0040989c f i AdjustMon.obj
 0001:000088c4       ?replace@?$QPtrList@VsignalConnection@@@@QAE_NIPBVsignalConnection@@@Z 004098c4 f i AdjustMon.obj
 0001:000088ce       ?setToolTip@CAdjustMon@@AAEXVQString@@@Z 004098ce f   AdjustMon.obj
 0001:0000890b       ?count@?$QMap@VQString@@VdeviceTypeInfo@@@@QBEIXZ 0040990b f i AdjustMon.obj
 0001:0000890b       ?count@?$QMap@VQString@@VinstanceInfo@@@@QBEIXZ 0040990b f i AdjustMon.obj
 0001:0000890b       ?size@?$QMap@VQString@@VdeviceTypeInfo@@@@QBEIXZ 0040990b f i AdjustMon.obj
 0001:0000890b       ?count@?$QMap@VQString@@VcomplexInstance@@@@QBEIXZ 0040990b f i AdjustMon.obj
 0001:0000890b       ?count@?$QMap@VQString@@VparamInfo@@@@QBEIXZ 0040990b f i AdjustMon.obj
 0001:0000890b       ?size@?$QMap@VQString@@VcomplexInstance@@@@QBEIXZ 0040990b f i AdjustMon.obj
 0001:0000890b       ?count@?$QMap@VQString@@VcomplexParam@@@@QBEIXZ 0040990b f i AdjustMon.obj
 0001:0000890b       ?size@?$QMap@VQString@@VinstanceInfo@@@@QBEIXZ 0040990b f i AdjustMon.obj
 0001:0000890b       ?size@?$QMap@VQString@@VcomplexParam@@@@QBEIXZ 0040990b f i AdjustMon.obj
 0001:0000890b       ?size@?$QMap@VQString@@VparamInfo@@@@QBEIXZ 0040990b f i AdjustMon.obj
 0001:0000890b       ?size@?$QMap@VQString@@VcomplexType@@@@QBEIXZ 0040990b f i AdjustMon.obj
 0001:0000890b       ?count@?$QMap@VQString@@VcomplexType@@@@QBEIXZ 0040990b f i AdjustMon.obj
 0001:00008911       ?sort@?$QPtrList@VsignalConnection@@@@QAEXXZ 00409911 f i AdjustMon.obj
 0001:00008917       ?take@?$QPtrList@VsignalConnection@@@@QAEPAVsignalConnection@@I@Z 00409917 f i AdjustMon.obj
 0001:00008921       ?take@?$QPtrList@VsignalConnection@@@@QAEPAVsignalConnection@@XZ 00409921 f i AdjustMon.obj
 0001:00008927       ?takeNode@?$QPtrList@VsignalConnection@@@@QAEPAVsignalConnection@@PAVQLNode@@@Z 00409927 f i AdjustMon.obj
 0001:00008931       ?textCallback@CAdjustMon@@EAEXPBDH@Z 00409931 f   AdjustMon.obj
 0001:000090cd       ?toFirst@?$QPtrListIterator@VsignalConnection@@@@QAEPAVsignalConnection@@XZ 0040a0cd f i AdjustMon.obj
 0001:000090d3       ?toLast@?$QPtrListIterator@VsignalConnection@@@@QAEPAVsignalConnection@@XZ 0040a0d3 f i AdjustMon.obj
 0001:000090d9       ?toVector@?$QPtrList@VsignalConnection@@@@QBEXPAVQGVector@@@Z 0040a0d9 f i AdjustMon.obj
 0001:000090e3       ?values@?$QMap@VQString@@VcomplexInstance@@@@QBE?AV?$QValueList@VcomplexInstance@@@@XZ 0040a0e3 f i AdjustMon.obj
 0001:00009147       ?values@?$QMap@VQString@@VcomplexParam@@@@QBE?AV?$QValueList@VcomplexParam@@@@XZ 0040a147 f i AdjustMon.obj
 0001:000091ab       ?values@?$QMap@VQString@@VcomplexType@@@@QBE?AV?$QValueList@VcomplexType@@@@XZ 0040a1ab f i AdjustMon.obj
 0001:0000920f       ?values@?$QMap@VQString@@VdeviceTypeInfo@@@@QBE?AV?$QValueList@VdeviceTypeInfo@@@@XZ 0040a20f f i AdjustMon.obj
 0001:00009273       ?values@?$QMap@VQString@@VinstanceInfo@@@@QBE?AV?$QValueList@VinstanceInfo@@@@XZ 0040a273 f i AdjustMon.obj
 0001:000092d7       ?values@?$QMap@VQString@@VparamInfo@@@@QBE?AV?$QValueList@VparamInfo@@@@XZ 0040a2d7 f i AdjustMon.obj
 0001:0000933b       ??0?$QDict@VCAppItem@@@@QAE@H_N@Z 0040a33b f i AppBar.obj
 0001:00009374       ??0CAppBar@@QAE@PAVQWidget@@ABVQString@@_N@Z 0040a374 f   AppBar.obj
 0001:00009475       ??1?$QDict@VCAppItem@@@@UAE@XZ 0040a475 f i AppBar.obj
 0001:000094a8       ??1CAppBar@@UAE@XZ         0040a4a8 f   AppBar.obj
 0001:00009560       ??_ECAppBar@@WCI@AEPAXI@Z  0040a560 f i AppBar.obj
 0001:00009568       ??_EQGrid@@WCI@AEPAXI@Z    0040a568 f i AppBar.obj
 0001:00009570       ??_G?$QDict@VCAppItem@@@@UAEPAXI@Z 0040a570 f i AppBar.obj
 0001:00009570       ??_E?$QDict@VCAppItem@@@@UAEPAXI@Z 0040a570 f i AppBar.obj
 0001:0000958f       ??_GCAppBar@@UAEPAXI@Z     0040a58f f i AppBar.obj
 0001:0000958f       ??_ECAppBar@@UAEPAXI@Z     0040a58f f i AppBar.obj
 0001:000095ae       ??_GQGrid@@UAEPAXI@Z       0040a5ae f i AppBar.obj
 0001:000095ae       ??_EQGrid@@UAEPAXI@Z       0040a5ae f i AppBar.obj
 0001:000095e0       ??_GQKeyEvent@@UAEPAXI@Z   0040a5e0 f i AppBar.obj
 0001:000095e0       ??_EQKeyEvent@@UAEPAXI@Z   0040a5e0 f i AppBar.obj
 0001:00009621       ?appItem@CAppBar@@AAEXHPAVQPoint@@@Z 0040a621 f   AppBar.obj
 0001:00009d7a       ?clearHighlight@CAppBar@@QAEXXZ 0040ad7a f   AppBar.obj
 0001:00009dde       ?deleteItem@?$QDict@VCAppItem@@@@EAEXPAX@Z 0040adde f i AppBar.obj
 0001:00009df8       ??3@YAXPAX0@Z              0040adf8 f   AdjustMon.obj
 0001:00009df8       ?cccConnected@IccClientCallback@@MAEXXZ 0040adf8 f   Client.obj
 0001:00009df8       ?dummy@CStartPop@@QAEXXZ   0040adf8 f   StartPop.obj
 0001:00009df8       ?dummy@CAppSwitch@@QAEXXZ  0040adf8 f   AppSwitch.obj
 0001:00009df8       ?childDestroyed@bncs_popup@@QAEXXZ 0040adf8 f   bncs_popup.obj
 0001:00009df8       ?dummy@CAppBar@@QAEXXZ     0040adf8 f   AppBar.obj
 0001:00009df8       ?cccDisconnected@IccClientCallback@@MAEXXZ 0040adf8 f   Client.obj
 0001:00009df8       ?dummy@CPanelMan@@QAEXXZ   0040adf8 f   PanelMan.obj
 0001:00009df9       ?getAppItemCount@CAppBar@@AAEHXZ 0040adf9 f   AppBar.obj
 0001:00009e82       ?getCurrentMenu@CAppBar@@QAEHXZ 0040ae82 f   AppBar.obj
 0001:00009e89       ?getPanelSetSize@CAppBar@@AAEHVQString@@@Z 0040ae89 f   AppBar.obj
 0001:00009f30       ?initButtons@CAppBar@@QAEXXZ 0040af30 f   AppBar.obj
 0001:0000a041       ?metaObject@CAppBar@@UBEPAVQMetaObject@@XZ 0040b041 f i AppBar.obj
 0001:0000a046       ?nextPage@CAppBar@@AAEXXZ  0040b046 f   AppBar.obj
 0001:0000a105       ?notify@CAppBar@@UAEXAAVQString@@@Z 0040b105 f   AppBar.obj
 0001:0000a2db       ?popupAppExtension@CAppBar@@AAEXXZ 0040b2db f   AppBar.obj
 0001:0000a928       ?popupDestroyed@CAppBar@@QAEXXZ 0040b928 f   AppBar.obj
 0001:0000a960       ?resetPanelSet@CAppBar@@QAEXXZ 0040b960 f   AppBar.obj
 0001:0000a993       ?setPanelSet@CAppBar@@QAEXVQString@@@Z 0040b993 f   AppBar.obj
 0001:0000bc29       ?setUser@CAppBar@@QAE?AVQString@@V2@@Z 0040cc29 f   AppBar.obj
 0001:0000bfc0       ?showInstancesGrid@CAppBar@@AAEXPAVQPoint@@VQString@@1@Z 0040cfc0 f   AppBar.obj
 0001:0000c37e       ?showPanelSet@CAppBar@@AAEXXZ 0040d37e f   AppBar.obj
 0001:0000c6f8       ?slotPressed@CAppBar@@QAEXXZ 0040d6f8 f   AppBar.obj
 0001:0000c763       ?switchMenu@CAppBar@@QAEHXZ 0040d763 f   AppBar.obj
 0001:0000c7df       ?ws@global@@SAHXZ          0040d7df f i AppBar.obj
 0001:0000c828       ??0CAppItem@@QAE@VQString@@0000@Z 0040d828 f   AppItem.obj
 0001:0000c909       ??1CAppItem@@UAE@XZ        0040d909 f   AppItem.obj
 0001:0000c96a       ??_GCAppItem@@UAEPAXI@Z    0040d96a f i AppItem.obj
 0001:0000c96a       ??_ECAppItem@@UAEPAXI@Z    0040d96a f i AppItem.obj
 0001:0000c989       ??0?$QDict@VCExtProcess@@@@QAE@H_N@Z 0040d989 f i AppSwitch.obj
 0001:0000c9c2       ??0CAppSwitch@@QAE@PAVQWidget@@@Z 0040d9c2 f   AppSwitch.obj
 0001:0000caae       ??1?$QDict@VCExtProcess@@@@UAE@XZ 0040daae f i AppSwitch.obj
 0001:0000cae1       ??1?$QDictIterator@VCExtProcess@@@@QAE@XZ 0040dae1 f i AppSwitch.obj
 0001:0000cae1       ??1?$QDictIterator@VQWidget@@@@QAE@XZ 0040dae1 f i AppView.obj
 0001:0000cb00       ??1CAppSwitch@@UAE@XZ      0040db00 f   AppSwitch.obj
 0001:0000cb79       ??_E?$QDict@VCExtProcess@@@@UAEPAXI@Z 0040db79 f i AppSwitch.obj
 0001:0000cb79       ??_G?$QDict@VCExtProcess@@@@UAEPAXI@Z 0040db79 f i AppSwitch.obj
 0001:0000cb98       ??_GCAppSwitch@@UAEPAXI@Z  0040db98 f i AppSwitch.obj
 0001:0000cb98       ??_ECAppSwitch@@UAEPAXI@Z  0040db98 f i AppSwitch.obj
 0001:0000cbb7       ?appExitNotify@CAppSwitch@@QAEXXZ 0040dbb7 f   AppSwitch.obj
 0001:0000ccc1       ?clear@?$QDict@VCAppItem@@@@UAEXXZ 0040dcc1 f i AppBar.obj
 0001:0000ccc1       ?clear@?$QDict@VCExtProcess@@@@UAEXXZ 0040dcc1 f i AppSwitch.obj
 0001:0000ccc1       ?clear@?$QDict@VQWidget@@@@UAEXXZ 0040dcc1 f i AppView.obj
 0001:0000ccc7       ?currentKey@?$QDictIterator@VQWidget@@@@QBE?AVQString@@XZ 0040dcc7 f i AppView.obj
 0001:0000ccc7       ?currentKey@?$QDictIterator@VCExtProcess@@@@QBE?AVQString@@XZ 0040dcc7 f i AppSwitch.obj
 0001:0000ccf6       ?execApp@CAppSwitch@@QAE_NVQString@@00_N@Z 0040dcf6 f   AppSwitch.obj
 0001:0000e264       ?knobsOff@CAppSwitch@@QAEXXZ 0040f264 f   AppSwitch.obj
 0001:0000e2bb       ?knobsOn@CAppSwitch@@QAEXXZ 0040f2bb f   AppSwitch.obj
 0001:0000e3aa       ?metaObject@CAppSwitch@@UBEPAVQMetaObject@@XZ 0040f3aa f i AppSwitch.obj
 0001:0000e3af       ?terminateApps@CAppSwitch@@QAEXXZ 0040f3af f   AppSwitch.obj
 0001:0000e40b       ??0?$QDict@VQWidget@@@@QAE@H_N@Z 0040f40b f i AppView.obj
 0001:0000e444       ??0CAppView@@QAE@PAVQWidget@@ABVQString@@@Z 0040f444 f   AppView.obj
 0001:0000e5da       ??1?$QDict@VQWidget@@@@UAE@XZ 0040f5da f i AppView.obj
 0001:0000e60d       ??1CAppView@@UAE@XZ        0040f60d f   AppView.obj
 0001:0000e6a5       ??_ECAppView@@WCI@AEPAXI@Z 0040f6a5 f i AppView.obj
 0001:0000e6ad       ??_G?$QDict@VQWidget@@@@UAEPAXI@Z 0040f6ad f i AppView.obj
 0001:0000e6ad       ??_E?$QDict@VQWidget@@@@UAEPAXI@Z 0040f6ad f i AppView.obj
 0001:0000e6cc       ??_ECAppView@@UAEPAXI@Z    0040f6cc f i AppView.obj
 0001:0000e6cc       ??_GCAppView@@UAEPAXI@Z    0040f6cc f i AppView.obj
 0001:0000e6eb       ?clearPanels@CAppView@@QAEXXZ 0040f6eb f   AppView.obj
 0001:0000ea6b       ?deleteItem@?$QDict@VCExtProcess@@@@EAEXPAX@Z 0040fa6b f i AppSwitch.obj
 0001:0000ea6b       ?deleteItem@?$QDict@VQWidget@@@@EAEXPAX@Z 0040fa6b f i AppView.obj
 0001:0000ea86       ?deleteOldestPanel@CAppView@@AAEXXZ 0040fa86 f   AppView.obj
 0001:0000eba3       ?getObjectCounts@CAppView@@AAEXPAVQWidget@@QBDAAKAAH@Z 0040fba3 f   AppView.obj
 0001:0000ec43       ?hideLast@CAppView@@QAEXXZ 0040fc43 f   AppView.obj
 0001:0000ecfa       ?showView@CAppView@@QAE_NVQString@@0_N@Z 0040fcfa f   AppView.obj
 0001:0000fb02       ?userObjects@CAppView@@EAEXI@Z 00410b02 f   AppView.obj
 0001:0000fb7e       ??0bncs_mcComms@@QAE@W4mcCommsType@0@@Z 00410b7e f   bncs_mcComms.obj
 0001:0000fc75       ??1bncs_mcComms@@UAE@XZ    00410c75 f   bncs_mcComms.obj
 0001:0000fc8a       ??_Ebncs_mcComms@@UAEPAXI@Z 00410c8a f i bncs_mcComms.obj
 0001:0000fc8a       ??_Gbncs_mcComms@@UAEPAXI@Z 00410c8a f i bncs_mcComms.obj
 0001:0000fca9       ?textCallback@bncs_mcComms@@UAEXPBDH@Z 00410ca9 f   bncs_mcComms.obj
 0001:0000fca9       ?cccSerialNumberError@IccClientCallback@@MAEXHH@Z 00410ca9 f   Client.obj
 0001:0000fca9       ?cccPollError@IccClientCallback@@MAEXHH@Z 00410ca9 f   Client.obj
 0001:0000fcac       ??0bncs_multicast@@QAE@XZ  00410cac f   bncs_multicast.obj
 0001:0000fcff       ??1bncs_multicast@@UAE@XZ  00410cff f   bncs_multicast.obj
 0001:0000fd5d       ??_EQSocketDevice@@UAEPAXI@Z 00410d5d f i bncs_multicast.obj
 0001:0000fd5d       ??_GQSocketDevice@@UAEPAXI@Z 00410d5d f i bncs_multicast.obj
 0001:0000fd7d       ??_EQSocketNotifier@@UAEPAXI@Z 00410d7d f i bncs_multicast.obj
 0001:0000fd7d       ??_GQSocketNotifier@@UAEPAXI@Z 00410d7d f i bncs_multicast.obj
 0001:0000fd9d       ??_Gbncs_multicast@@UAEPAXI@Z 00410d9d f i bncs_multicast.obj
 0001:0000fd9d       ??_Ebncs_multicast@@UAEPAXI@Z 00410d9d f i bncs_multicast.obj
 0001:0000fdbc       ?enableRx@bncs_multicast@@QAE_N_N@Z 00410dbc f   bncs_multicast.obj
 0001:0000ffe0       ?metaObject@bncs_multicast@@UBEPAVQMetaObject@@XZ 00410fe0 f i bncs_multicast.obj
 0001:0000ffe5       ?rx@bncs_multicast@@UAEXPBDH@Z 00410fe5 f   bncs_multicast.obj
 0001:0001005d       ?rxdata@bncs_multicast@@QAEXH@Z 0041105d f   bncs_multicast.obj
 0001:000100b0       ?setCallback@bncs_multicast@@QAEXPAVbncs_textCallback@@@Z 004110b0 f   bncs_multicast.obj
 0001:000100bd       ?setMulticastParams@bncs_multicast@@QAEXABVQString@@H0@Z 004110bd f   bncs_multicast.obj
 0001:00010175       ??0bncs_popup@@QAE@PAVQWidget@@0@Z 00411175 f   bncs_popup.obj
 0001:0001023c       ??1bncs_popup@@UAE@XZ      0041123c f   bncs_popup.obj
 0001:00010272       ??_Ebncs_popup@@WCI@AEPAXI@Z 00411272 f i bncs_popup.obj
 0001:0001027a       ??_Ebncs_popup@@WIM@AEPAXI@Z 0041127a f i bncs_popup.obj
 0001:00010285       ??_Ebncs_popup@@UAEPAXI@Z  00411285 f i bncs_popup.obj
 0001:00010285       ??_Gbncs_popup@@UAEPAXI@Z  00411285 f i bncs_popup.obj
 0001:000102a4       ?aboutToHide@bncs_popup@@QAEXXZ 004112a4 f   bncs_popup.obj
 0001:000102ce       ?add@bncs_popup@@QAEXPAVQWidget@@@Z 004112ce f   bncs_popup.obj
 0001:00010376       ?drawContents@bncs_popup@@UAEXPAVQPainter@@@Z 00411376 f   bncs_popup.obj
 0001:00010376       ?drawFrame@bncs_popup@@UAEXPAVQPainter@@@Z 00411376 f   bncs_popup.obj
 0001:00010376       ?resizeEvent@bncs_popup@@UAEXPAVQResizeEvent@@@Z 00411376 f   bncs_popup.obj
 0001:00010376       ?cccConfigChangeMessage@IccClientCallback@@MAEXABV?$basic_string@DU?$char_traits@D@std@@V?$allocator@D@2@@std@@@Z 00411376 f   Client.obj
 0001:00010379       ?metaObject@bncs_popup@@UBEPAVQMetaObject@@XZ 00411379 f i bncs_popup.obj
 0001:0001037e       ?paintEvent@bncs_popup@@UAEXPAVQPaintEvent@@@Z 0041137e f   bncs_popup.obj
 0001:0001037e       ?paintEvent@wait@@UAEXPAVQPaintEvent@@@Z 0041137e f   waitimpl.obj
 0001:00010421       ??0CClient@@QAE@PAVQWidget@@@Z 00411421 f   Client.obj
 0001:00010492       ??1CClient@@UAE@XZ         00411492 f   Client.obj
 0001:000104f6       ??_ECClient@@WCI@AEPAXI@Z  004114f6 f i Client.obj
 0001:000104fe       ??_ECClient@@UAEPAXI@Z     004114fe f i Client.obj
 0001:000104fe       ??_GCClient@@UAEPAXI@Z     004114fe f i Client.obj
 0001:0001051d       ?CClearCache@CClient@@QAEXXZ 0041151d f   Client.obj
 0001:00010542       ?cccDeviceMessage@IccClientCallback@@MAEXHHABV?$basic_string@DU?$char_traits@D@std@@V?$allocator@D@2@@std@@H@Z 00411542 f i Client.obj
 0001:00010545       ?cccDisconnected@CClient@@EAEXXZ 00411545 f   Client.obj
 0001:00010553       ?cccInfoRevertive@IccClientCallback@@MAEXHHABV?$basic_string@DU?$char_traits@D@std@@V?$allocator@D@2@@std@@@Z 00411553 f i Client.obj
 0001:00010553       ?cccRtrRevertive@IccClientCallback@@MAEXHHH@Z 00411553 f i Client.obj
 0001:00010553       ?cccDatabaseChange@IccClientCallback@@MAEXHHH@Z 00411553 f i Client.obj
 0001:00010553       ?cccGpiRevertive@IccClientCallback@@MAEXHH_N@Z 00411553 f i Client.obj
 0001:00010553       ?cccDeviceMode@IccClientCallback@@MAEXHHW4redundancyState@cc@@@Z 00411553 f i Client.obj
 0001:00010556       ?cccInfoRevertive@CClient@@EAEXHHABV?$basic_string@DU?$char_traits@D@std@@V?$allocator@D@2@@std@@@Z 00411556 f   Client.obj
 0001:000105be       ?registerClient@CClient@@QAE_NXZ 004115be f   Client.obj
 0001:00010621       ?sendMsg@CClient@@QAEXHPBDH@Z 00411621 f   Client.obj
 0001:000106b9       ??0CConfirm_Exit@@QAE@XZ   004116b9 f   Confirm_Exit.obj
 0001:000107b6       ??1CConfirm_Exit@@UAE@XZ   004117b6 f   Confirm_Exit.obj
 0001:000107e2       ??_ECConfirm_Exit@@WCI@AEPAXI@Z 004117e2 f i Confirm_Exit.obj
 0001:000107ea       ??_GCConfirm_Exit@@UAEPAXI@Z 004117ea f i Confirm_Exit.obj
 0001:000107ea       ??_ECConfirm_Exit@@UAEPAXI@Z 004117ea f i Confirm_Exit.obj
 0001:00010809       ?cancel@CConfirm_Exit@@IAEXAAVQString@@@Z 00411809 f   Confirm_Exit.obj
 0001:00010814       ?confirm@CConfirm_Exit@@IAEXAAVQString@@@Z 00411814 f   Confirm_Exit.obj
 0001:0001081f       ?exec@CConfirm_Exit@@QAEHXZ 0041181f f   Confirm_Exit.obj
 0001:0001082f       ?metaObject@CConfirm_Exit@@UBEPAVQMetaObject@@XZ 0041182f f i Confirm_Exit.obj
 0001:00010834       ??0structured_exception@@QAE@ABU_EXCEPTION_POINTERS@@@Z 00411834 f   except.obj
 0001:0001085f       ?install@structured_exception@@SAXXZ 0041185f f   except.obj
 0001:0001086c       ?more@structured_exception@@QBEKXZ 0041186c f   except.obj
 0001:0001089a       ?what@structured_exception@@QBEIXZ 0041189a f   except.obj
 0001:0001089e       ?where@structured_exception@@QBEPBXXZ 0041189e f   except.obj
 0001:000108a1       ??0CExtProcess@@QAE@PAVQObject@@PBD@Z 004118a1 f   ExtProcess.obj
 0001:000108e7       ??1CExtProcess@@UAE@XZ     004118e7 f   ExtProcess.obj
 0001:0001092a       ??_GCExtProcess@@UAEPAXI@Z 0041192a f i ExtProcess.obj
 0001:0001092a       ??_ECExtProcess@@UAEPAXI@Z 0041192a f i ExtProcess.obj
 0001:00010949       ?timerEvent@CExtProcess@@UAEXPAVQTimerEvent@@@Z 00411949 f   ExtProcess.obj
 0001:00010a4b       ?toBack@CExtProcess@@QAEXXZ 00411a4b f   ExtProcess.obj
 0001:00010a77       ?toFront@CExtProcess@@QAEXXZ 00411a77 f   ExtProcess.obj
 0001:00010a8f       ??0CLookUp@@QAE@XZ         00411a8f f   LookUp.obj
 0001:00010a98       ??_ECLookUp@@UAEPAXI@Z     00411a98 f i LookUp.obj
 0001:00010a98       ??_GCLookUp@@UAEPAXI@Z     00411a98 f i LookUp.obj
 0001:00010ab8       ?getInstancesOfType@CLookUp@@QAE?AVQStringList@@VQString@@@Z 00411ab8 f   LookUp.obj
 0001:00010c44       _main                      00411c44 f   main.obj
 0001:00011496       _md5_append                00412496 f   md5.obj
 0001:00011553       _md5_finish                00412553 f   md5.obj
 0001:000115e2       _md5_init                  004125e2 f   md5.obj
 0001:00011d79       ?className@bncs_popup@@UBEPBDXZ 00412d79 f   moc_bncs_popup.obj
 0001:00011d7f       ?hiding@bncs_popup@@IAEXXZ 00412d7f f   moc_bncs_popup.obj
 0001:00011d94       ?notify@bncs_popup@@IAEXAAVQString@@@Z 00412d94 f   moc_bncs_popup.obj
 0001:00011e2c       ?qt_cast@bncs_popup@@UAEPAXPBD@Z 00412e2c f   moc_bncs_popup.obj
 0001:00011e5a       ?qt_emit@bncs_popup@@UAE_NHPAUQUObject@@@Z 00412e5a f   moc_bncs_popup.obj
 0001:00011e9c       ?qt_invoke@bncs_popup@@UAE_NHPAUQUObject@@@Z 00412e9c f   moc_bncs_popup.obj
 0001:00011ed8       ?qt_property@bncs_popup@@UAE_NHHPAVQVariant@@@Z 00412ed8 f   moc_bncs_popup.obj
 0001:00011ee2       ?staticMetaObject@bncs_popup@@SAPAVQMetaObject@@XZ 00412ee2 f   moc_bncs_popup.obj
 0001:00011f79       ??0CPanelMan@@QAE@ABVQString@@00@Z 00412f79 f   PanelMan.obj
 0001:0001262c       ??1CPanelMan@@UAE@XZ       0041362c f   PanelMan.obj
 0001:000127a5       ??_ECPanelMan@@WCI@AEPAXI@Z 004137a5 f i PanelMan.obj
 0001:000127ad       ??_EQListBox@@WCI@AEPAXI@Z 004137ad f i PanelMan.obj
 0001:000127b5       ??_EQVBoxLayout@@WCI@AEPAXI@Z 004137b5 f i PanelMan.obj
 0001:000127bd       ??_ECPanelMan@@UAEPAXI@Z   004137bd f i PanelMan.obj
 0001:000127bd       ??_GCPanelMan@@UAEPAXI@Z   004137bd f i PanelMan.obj
 0001:000127dc       ??_EQListBox@@UAEPAXI@Z    004137dc f i PanelMan.obj
 0001:000127dc       ??_GQListBox@@UAEPAXI@Z    004137dc f i PanelMan.obj
 0001:000127fc       ??_EQVBoxLayout@@UAEPAXI@Z 004137fc f i PanelMan.obj
 0001:000127fc       ??_GQVBoxLayout@@UAEPAXI@Z 004137fc f i PanelMan.obj
 0001:0001281c       ?debug@CPanelMan@@QAEXVQString@@@Z 0041381c f   PanelMan.obj
 0001:00012853       ?defaultTitle@CPanelMan@@SA?AVQString@@XZ 00413853 f   PanelMan.obj
 0001:00012885       ?getAttribute@CPanelMan@@QAE?AVQString@@V2@00@Z 00413885 f   PanelMan.obj
 0001:00012c25       ?getSettings@CPanelMan@@AAEXXZ 00413c25 f   PanelMan.obj
 0001:00013241       ?metaObject@CPanelMan@@UBEPAVQMetaObject@@XZ 00414241 f i PanelMan.obj
 0001:00013246       ?pmQuit@CPanelMan@@QAEXXZ  00414246 f   PanelMan.obj
 0001:0001324e       ?shutDown@CPanelMan@@QAEXXZ 0041424e f   PanelMan.obj
 0001:000132ad       ??0CSimpleBar@@QAE@PAVQWidget@@@Z 004142ad f   SimpleBar.obj
 0001:000132ee       ??1CSimpleBar@@UAE@XZ      004142ee f   SimpleBar.obj
 0001:0001331a       ??_ECSimpleBar@@WCI@AEPAXI@Z 0041431a f i SimpleBar.obj
 0001:00013322       ??_ECSimpleBar@@UAEPAXI@Z  00414322 f i SimpleBar.obj
 0001:00013322       ??_GCSimpleBar@@UAEPAXI@Z  00414322 f i SimpleBar.obj
 0001:00013341       ?getProperty@CSimpleBar@@IAE?AVQString@@V2@0@Z 00414341 f   SimpleBar.obj
 0001:0001347f       ?init@CSimpleBar@@QAE_NVQString@@ABV2@_N@Z 0041447f f   SimpleBar.obj
 0001:0001368a       ?metaObject@CSimpleBar@@UBEPAVQMetaObject@@XZ 0041468a f i SimpleBar.obj
 0001:0001368f       ?notify@CSimpleBar@@UAEXAAVQString@@@Z 0041468f f   SimpleBar.obj
 0001:00013700       ?setProperty@CSimpleBar@@IAEXHVQString@@0@Z 00414700 f   SimpleBar.obj
 0001:000137e7       ?setProperty@CSimpleBar@@IAEXVQString@@00@Z 004147e7 f   SimpleBar.obj
 0001:00013899       ?widgetList@dCW@@QAE?AVQWidgetList@@XZ 00414899 f i SimpleBar.obj
 0001:000138e6       ??0CStartPop@@QAE@PAVQWidget@@@Z 004148e6 f   StartPop.obj
 0001:0001393c       ??1CStartPop@@UAE@XZ       0041493c f   StartPop.obj
 0001:00013979       ??_ECStartPop@@WCI@AEPAXI@Z 00414979 f i StartPop.obj
 0001:00013981       ??_EQLabel@@WCI@AEPAXI@Z   00414981 f i StartPop.obj
 0001:00013989       ??_EQPopupMenu@@WCI@AEPAXI@Z 00414989 f i StartPop.obj
 0001:00013991       ??_EQPopupMenu@@WIM@AEPAXI@Z 00414991 f i StartPop.obj
 0001:0001399c       ??_EQWidget@@WCI@AEPAXI@Z  0041499c f i StartPop.obj
 0001:000139a4       ??_GCStartPop@@UAEPAXI@Z   004149a4 f i StartPop.obj
 0001:000139a4       ??_ECStartPop@@UAEPAXI@Z   004149a4 f i StartPop.obj
 0001:000139c3       ??_EQLabel@@UAEPAXI@Z      004149c3 f i StartPop.obj
 0001:000139c3       ??_GQLabel@@UAEPAXI@Z      004149c3 f i StartPop.obj
 0001:000139e3       ??_EQPopupMenu@@UAEPAXI@Z  004149e3 f i StartPop.obj
 0001:000139e3       ??_GQPopupMenu@@UAEPAXI@Z  004149e3 f i StartPop.obj
 0001:00013a03       ??_GQTimer@@UAEPAXI@Z      00414a03 f i StartPop.obj
 0001:00013a03       ??_EQTimer@@UAEPAXI@Z      00414a03 f i StartPop.obj
 0001:00013a23       ??_GQWidget@@UAEPAXI@Z     00414a23 f i StartPop.obj
 0001:00013a23       ??_EQWidget@@UAEPAXI@Z     00414a23 f i StartPop.obj
 0001:00013a43       ?getAddress@CStartPop@@AAE?AVQString@@XZ 00414a43 f   StartPop.obj
 0001:00013bae       ?metaObject@CStartPop@@UBEPAVQMetaObject@@XZ 00414bae f i StartPop.obj
 0001:00013bb5       ?notify@CStartPop@@QAEXAAVQString@@@Z 00414bb5 f   StartPop.obj
 0001:000143b5       ?showCleanScreen@CStartPop@@AAEXXZ 004153b5 f   StartPop.obj
 0001:00014674       ?showPopupPin@CStartPop@@AAEXABVQPoint@@@Z 00415674 f   StartPop.obj
 0001:000148e3       ?showStart@CStartPop@@QAEXPAVQPoint@@@Z 004158e3 f   StartPop.obj
 0001:00015103       ?slotCleanCount@CStartPop@@QAEXXZ 00416103 f   StartPop.obj
 0001:0001520a       ?startCalibrate@CStartPop@@AAEXXZ 0041620a f   StartPop.obj
 0001:0001565f       ?timerEvent@CStartPop@@EAEXPAVQTimerEvent@@@Z 0041665f f   StartPop.obj
 0001:000156bd       ??0CStatusBar@@QAE@PAVQWidget@@@Z 004166bd f   StatusBar.obj
 0001:000156f5       ??1CStatusBar@@UAE@XZ      004166f5 f   StatusBar.obj
 0001:00015720       ??_ECStatusBar@@WCI@AEPAXI@Z 00416720 f i StatusBar.obj
 0001:00015728       ??_GCStatusBar@@UAEPAXI@Z  00416728 f i StatusBar.obj
 0001:00015728       ??_ECStatusBar@@UAEPAXI@Z  00416728 f i StatusBar.obj
 0001:00015747       ?metaObject@CStatusBar@@UBEPAVQMetaObject@@XZ 00416747 f i StatusBar.obj
 0001:0001574c       ?notify@CStatusBar@@UAEXAAVQString@@@Z 0041674c f   StatusBar.obj
 0001:000157bd       ??0CTitleBar@@QAE@PAVQWidget@@@Z 004167bd f   TitleBar.obj
 0001:0001586b       ??1CTitleBar@@UAE@XZ       0041686b f   TitleBar.obj
 0001:00015917       ??_ECTitleBar@@WCI@AEPAXI@Z 00416917 f i TitleBar.obj
 0001:0001591f       ??_GCTitleBar@@UAEPAXI@Z   0041691f f i TitleBar.obj
 0001:0001591f       ??_ECTitleBar@@UAEPAXI@Z   0041691f f i TitleBar.obj
 0001:0001593e       ?metaObject@CTitleBar@@UBEPAVQMetaObject@@XZ 0041693e f i TitleBar.obj
 0001:00015943       ?notify@CTitleBar@@UAEXAAVQString@@@Z 00416943 f   TitleBar.obj
 0001:000159ee       ?setTitle@CTitleBar@@QAEXABVQString@@0@Z 004169ee f   TitleBar.obj
 0001:00015a4a       ?setTitle@CTitleBar@@QAEXABVQString@@@Z 00416a4a f   TitleBar.obj
 0001:00015aa8       ?startClock@CTitleBar@@QAEXXZ 00416aa8 f   TitleBar.obj
 0001:00015c5f       ?updateClock@CTitleBar@@QAEXXZ 00416c5f f   TitleBar.obj
 0001:00015ed1       ??0wait@@QAE@PAVQWidget@@PBDI@Z 00416ed1 f   waitimpl.obj
 0001:0001604d       ??1wait@@UAE@XZ            0041704d f   waitimpl.obj
 0001:00016079       ??_Ewait@@WCI@AEPAXI@Z     00417079 f i waitimpl.obj
 0001:00016081       ??_Ewait@@UAEPAXI@Z        00417081 f i waitimpl.obj
 0001:00016081       ??_Gwait@@UAEPAXI@Z        00417081 f i waitimpl.obj
 0001:000160a0       ?metaObject@wait@@UBEPAVQMetaObject@@XZ 004170a0 f i waitimpl.obj
 0001:000160a5       ?resizeEvent@wait@@UAEXPAVQResizeEvent@@@Z 004170a5 f   waitimpl.obj
 0001:0001616b       ?className@CAppBar@@UBEPBDXZ 0041716b f   moc_AppBar.obj
 0001:00016171       ?qt_cast@CAppBar@@UAEPAXPBD@Z 00417171 f   moc_AppBar.obj
 0001:0001619e       ?qt_emit@CTitleBar@@UAE_NHPAUQUObject@@@Z 0041719e f   moc_TitleBar.obj
 0001:0001619e       ?qt_emit@CAppBar@@UAE_NHPAUQUObject@@@Z 0041719e f   moc_AppBar.obj
 0001:0001619e       ?qt_emit@CStatusBar@@UAE_NHPAUQUObject@@@Z 0041719e f   moc_StatusBar.obj
 0001:000161a7       ?qt_invoke@CAppBar@@UAE_NHPAUQUObject@@@Z 004171a7 f   moc_AppBar.obj
 0001:00016219       ?staticMetaObject@CAppBar@@SAPAVQMetaObject@@XZ 00417219 f   moc_AppBar.obj
 0001:000162e1       ?className@CAppSwitch@@UBEPBDXZ 004172e1 f   moc_AppSwitch.obj
 0001:000162e7       ?qt_cast@CAppSwitch@@UAEPAXPBD@Z 004172e7 f   moc_AppSwitch.obj
 0001:00016315       ?qt_emit@bncs_multicast@@UAE_NHPAUQUObject@@@Z 00417315 f   moc_bncs_multicast.obj
 0001:00016315       ?qt_emit@CAppSwitch@@UAE_NHPAUQUObject@@@Z 00417315 f   moc_AppSwitch.obj
 0001:0001631f       ?qt_invoke@CAppSwitch@@UAE_NHPAUQUObject@@@Z 0041731f f   moc_AppSwitch.obj
 0001:0001635b       ?qt_property@bncs_multicast@@UAE_NHHPAVQVariant@@@Z 0041735b f   moc_bncs_multicast.obj
 0001:0001635b       ?qt_property@CAppSwitch@@UAE_NHHPAVQVariant@@@Z 0041735b f   moc_AppSwitch.obj
 0001:00016365       ?staticMetaObject@CAppSwitch@@SAPAVQMetaObject@@XZ 00417365 f   moc_AppSwitch.obj
 0001:000163af       ?className@bncs_multicast@@UBEPBDXZ 004173af f   moc_bncs_multicast.obj
 0001:000163b5       ?qt_cast@bncs_multicast@@UAEPAXPBD@Z 004173b5 f   moc_bncs_multicast.obj
 0001:000163e3       ?qt_invoke@bncs_multicast@@UAE_NHPAUQUObject@@@Z 004173e3 f   moc_bncs_multicast.obj
 0001:00016418       ?staticMetaObject@bncs_multicast@@SAPAVQMetaObject@@XZ 00417418 f   moc_bncs_multicast.obj
 0001:000164a7       ?className@CConfirm_Exit@@UBEPBDXZ 004174a7 f   moc_Confirm_Exit.obj
 0001:000164ad       ?qt_cast@CConfirm_Exit@@UAEPAXPBD@Z 004174ad f   moc_Confirm_Exit.obj
 0001:000164db       ?qt_emit@CConfirm_Exit@@UAE_NHPAUQUObject@@@Z 004174db f   moc_Confirm_Exit.obj
 0001:000164e5       ?qt_invoke@CConfirm_Exit@@UAE_NHPAUQUObject@@@Z 004174e5 f   moc_Confirm_Exit.obj
 0001:0001652d       ?qt_property@CConfirm_Exit@@UAE_NHHPAVQVariant@@@Z 0041752d f   moc_Confirm_Exit.obj
 0001:00016537       ?staticMetaObject@CConfirm_Exit@@SAPAVQMetaObject@@XZ 00417537 f   moc_Confirm_Exit.obj
 0001:000165fb       ?className@CPanelMan@@UBEPBDXZ 004175fb f   moc_PanelMan.obj
 0001:00016601       ?qt_cast@CPanelMan@@UAEPAXPBD@Z 00417601 f   moc_PanelMan.obj
 0001:0001662f       ?qt_invoke@CPanelMan@@UAE_NHPAUQUObject@@@Z 0041762f f   moc_PanelMan.obj
 0001:0001666b       ?staticMetaObject@CPanelMan@@SAPAVQMetaObject@@XZ 0041766b f   moc_PanelMan.obj
 0001:000166b5       ?className@CSimpleBar@@UBEPBDXZ 004176b5 f   moc_SimpleBar.obj
 0001:000166bb       ?qt_cast@CSimpleBar@@UAEPAXPBD@Z 004176bb f   moc_SimpleBar.obj
 0001:000166e9       ?qt_invoke@CSimpleBar@@UAE_NHPAUQUObject@@@Z 004176e9 f   moc_SimpleBar.obj
 0001:00016721       ?staticMetaObject@CSimpleBar@@SAPAVQMetaObject@@XZ 00417721 f   moc_SimpleBar.obj
 0001:000167b3       ?className@CStartPop@@UBEPBDXZ 004177b3 f   moc_StartPop.obj
 0001:000167b9       ?qt_cast@CStartPop@@UAEPAXPBD@Z 004177b9 f   moc_StartPop.obj
 0001:000167e7       ?qt_emit@CPanelMan@@UAE_NHPAUQUObject@@@Z 004177e7 f   moc_PanelMan.obj
 0001:000167e7       ?qt_emit@wait@@UAE_NHPAUQUObject@@@Z 004177e7 f   moc_waitimpl.obj
 0001:000167e7       ?qt_emit@CStartPop@@UAE_NHPAUQUObject@@@Z 004177e7 f   moc_StartPop.obj
 0001:000167e7       ?qt_emit@CSimpleBar@@UAE_NHPAUQUObject@@@Z 004177e7 f   moc_SimpleBar.obj
 0001:000167f1       ?qt_invoke@CStartPop@@UAE_NHPAUQUObject@@@Z 004177f1 f   moc_StartPop.obj
 0001:0001683d       ?qt_property@CPanelMan@@UAE_NHHPAVQVariant@@@Z 0041783d f   moc_PanelMan.obj
 0001:0001683d       ?qt_property@wait@@UAE_NHHPAVQVariant@@@Z 0041783d f   moc_waitimpl.obj
 0001:0001683d       ?qt_property@CStartPop@@UAE_NHHPAVQVariant@@@Z 0041783d f   moc_StartPop.obj
 0001:0001683d       ?qt_property@CSimpleBar@@UAE_NHHPAVQVariant@@@Z 0041783d f   moc_SimpleBar.obj
 0001:00016847       ?staticMetaObject@CStartPop@@SAPAVQMetaObject@@XZ 00417847 f   moc_StartPop.obj
 0001:000168d9       ?className@CStatusBar@@UBEPBDXZ 004178d9 f   moc_StatusBar.obj
 0001:000168df       ?qt_cast@CStatusBar@@UAEPAXPBD@Z 004178df f   moc_StatusBar.obj
 0001:0001690c       ?qt_invoke@CStatusBar@@UAE_NHPAUQUObject@@@Z 0041790c f   moc_StatusBar.obj
 0001:00016943       ?staticMetaObject@CStatusBar@@SAPAVQMetaObject@@XZ 00417943 f   moc_StatusBar.obj
 0001:000169d4       ?className@CTitleBar@@UBEPBDXZ 004179d4 f   moc_TitleBar.obj
 0001:000169da       ?qt_cast@CTitleBar@@UAEPAXPBD@Z 004179da f   moc_TitleBar.obj
 0001:00016a07       ?qt_invoke@CTitleBar@@UAE_NHPAUQUObject@@@Z 00417a07 f   moc_TitleBar.obj
 0001:00016a4b       ?qt_property@CAppBar@@UAE_NHHPAVQVariant@@@Z 00417a4b f   moc_AppBar.obj
 0001:00016a4b       ?qt_property@CTitleBar@@UAE_NHHPAVQVariant@@@Z 00417a4b f   moc_TitleBar.obj
 0001:00016a4b       ?qt_property@CStatusBar@@UAE_NHHPAVQVariant@@@Z 00417a4b f   moc_StatusBar.obj
 0001:00016a54       ?staticMetaObject@CTitleBar@@SAPAVQMetaObject@@XZ 00417a54 f   moc_TitleBar.obj
 0001:00016ae5       ?className@wait@@UBEPBDXZ  00417ae5 f   moc_waitimpl.obj
 0001:00016aeb       ?qt_cast@wait@@UAEPAXPBD@Z 00417aeb f   moc_waitimpl.obj
 0001:00016b19       ?qt_invoke@wait@@UAE_NHPAUQUObject@@@Z 00417b19 f   moc_waitimpl.obj
 0001:00016b23       ?staticMetaObject@wait@@SAPAVQMetaObject@@XZ 00417b23 f   moc_waitimpl.obj
 0001:00016b68       ??_EQButtonGroup@@WCI@AEPAXI@Z 00417b68 f i cfg_widgets001:config_mb4impl.obj
 0001:00016b70       ??_EQPushButton@@WCI@AEPAXI@Z 00417b70 f i cfg_widgets001:config_mb4impl.obj
 0001:00016b78       ??_EQButtonGroup@@UAEPAXI@Z 00417b78 f i cfg_widgets001:config_mb4impl.obj
 0001:00016b78       ??_GQButtonGroup@@UAEPAXI@Z 00417b78 f i cfg_widgets001:config_mb4impl.obj
 0001:00016b98       ??_GQPushButton@@UAEPAXI@Z 00417b98 f i cfg_widgets001:config_mb4impl.obj
 0001:00016b98       ??_EQPushButton@@UAEPAXI@Z 00417b98 f i cfg_widgets001:config_mb4impl.obj
 0001:00016bb8       ?staticMetaObject@config_mb4@@SAPAVQMetaObject@@XZ 00417bb8 f   cfg_widgets001:moc_config_mb4impl.obj
 0001:00016c32       _htonl@4                   00417c32 f   wsock32:WSOCK32.dll
 0001:00016c38       _inet_addr@4               00417c38 f   wsock32:WSOCK32.dll
 0001:00016c3e       _setsockopt@20             00417c3e f   wsock32:WSOCK32.dll
 0001:00016c44       _WSAGetLastError@0         00417c44 f   wsock32:WSOCK32.dll
 0001:00016c4a       _gethostbyname@4           00417c4a f   wsock32:WSOCK32.dll
 0001:00016c50       _gethostname@8             00417c50 f   wsock32:WSOCK32.dll
 0001:00016c56       ?compareItems@QGList@@MAEHPAX0@Z 00417c56 f   qt-mt323:qt-mt323.dll
 0001:00016c5c       ?newItem@QPtrCollection@@MAEPAXPAX@Z 00417c5c f   qt-mt323:qt-mt323.dll
 0001:00016c62       ?read@QGList@@MAEAAVQDataStream@@AAV2@AAPAX@Z 00417c62 f   qt-mt323:qt-mt323.dll
 0001:00016c68       ?write@QGList@@MBEAAVQDataStream@@AAV2@PAX@Z 00417c68 f   qt-mt323:qt-mt323.dll
 0001:00016c6e       ?setFrameStyle@QFrame@@UAEXH@Z 00417c6e f   qt-mt323:qt-mt323.dll
 0001:00016c74       ?adjustSize@QWidget@@UAEXXZ 00417c74 f   qt-mt323:qt-mt323.dll
 0001:00016c7a       ?checkConnectArgs@QObject@@MAE_NPBDPBV1@0@Z 00417c7a f   qt-mt323:qt-mt323.dll
 0001:00016c80       ?childEvent@QObject@@MAEXPAVQChildEvent@@@Z 00417c80 f   qt-mt323:qt-mt323.dll
 0001:00016c86       ?className@QGrid@@UBEPBDXZ 00417c86 f   qt-mt323:qt-mt323.dll
 0001:00016c8c       ?close@QWidget@@UAE_N_N@Z  00417c8c f   qt-mt323:qt-mt323.dll
 0001:00016c92       ?closeEvent@QWidget@@MAEXPAVQCloseEvent@@@Z 00417c92 f   qt-mt323:qt-mt323.dll
 0001:00016c98       ?cmd@QPaintDevice@@MAE_NHPAVQPainter@@PATQPDevCmdParam@@@Z 00417c98 f   qt-mt323:qt-mt323.dll
 0001:00016c9e       ?connectNotify@QObject@@MAEXPBD@Z 00417c9e f   qt-mt323:qt-mt323.dll
 0001:00016ca4       ?contextMenuEvent@QWidget@@MAEXPAVQContextMenuEvent@@@Z 00417ca4 f   qt-mt323:qt-mt323.dll
 0001:00016caa       ?create@QWidget@@MAEXPAUHWND__@@_N1@Z 00417caa f   qt-mt323:qt-mt323.dll
 0001:00016cb0       ?customEvent@QObject@@MAEXPAVQCustomEvent@@@Z 00417cb0 f   qt-mt323:qt-mt323.dll
 0001:00016cb6       ?customWhatsThis@QWidget@@UBE_NXZ 00417cb6 f   qt-mt323:qt-mt323.dll
 0001:00016cbc       ?destroy@QWidget@@MAEX_N0@Z 00417cbc f   qt-mt323:qt-mt323.dll
 0001:00016cc2       ?disconnectNotify@QObject@@MAEXPBD@Z 00417cc2 f   qt-mt323:qt-mt323.dll
 0001:00016cc8       ?dragEnterEvent@QWidget@@MAEXPAVQDragEnterEvent@@@Z 00417cc8 f   qt-mt323:qt-mt323.dll
 0001:00016cce       ?dragLeaveEvent@QWidget@@MAEXPAVQDragLeaveEvent@@@Z 00417cce f   qt-mt323:qt-mt323.dll
 0001:00016cd4       ?dragMoveEvent@QWidget@@MAEXPAVQDragMoveEvent@@@Z 00417cd4 f   qt-mt323:qt-mt323.dll
 0001:00016cda       ?drawContents@QFrame@@MAEXPAVQPainter@@@Z 00417cda f   qt-mt323:qt-mt323.dll
 0001:00016ce0       ?drawFrame@QFrame@@MAEXPAVQPainter@@@Z 00417ce0 f   qt-mt323:qt-mt323.dll
 0001:00016ce6       ?dropEvent@QWidget@@MAEXPAVQDropEvent@@@Z 00417ce6 f   qt-mt323:qt-mt323.dll
 0001:00016cec       ?enabledChange@QWidget@@MAEX_N@Z 00417cec f   qt-mt323:qt-mt323.dll
 0001:00016cf2       ?enterEvent@QWidget@@MAEXPAVQEvent@@@Z 00417cf2 f   qt-mt323:qt-mt323.dll
 0001:00016cf8       ?event@QWidget@@MAE_NPAVQEvent@@@Z 00417cf8 f   qt-mt323:qt-mt323.dll
 0001:00016cfe       ?eventFilter@QObject@@UAE_NPAV1@PAVQEvent@@@Z 00417cfe f   qt-mt323:qt-mt323.dll
 0001:00016d04       ?focusInEvent@QWidget@@MAEXPAVQFocusEvent@@@Z 00417d04 f   qt-mt323:qt-mt323.dll
 0001:00016d0a       ?focusNextPrevChild@QWidget@@MAE_N_N@Z 00417d0a f   qt-mt323:qt-mt323.dll
 0001:00016d10       ?focusOutEvent@QWidget@@MAEXPAVQFocusEvent@@@Z 00417d10 f   qt-mt323:qt-mt323.dll
 0001:00016d16       ?fontChange@QWidget@@MAEXABVQFont@@@Z 00417d16 f   qt-mt323:qt-mt323.dll
 0001:00016d1c       ?fontInf@QPaintDevice@@MBEHPAVQFont@@H@Z 00417d1c f   qt-mt323:qt-mt323.dll
 0001:00016d22       ?fontMet@QPaintDevice@@MBEHPAVQFont@@HPBDH@Z 00417d22 f   qt-mt323:qt-mt323.dll
 0001:00016d28       ?frameChanged@QGrid@@MAEXXZ 00417d28 f   qt-mt323:qt-mt323.dll
 0001:00016d2e       ?handle@QPaintDevice@@UBEPAUHDC__@@XZ 00417d2e f   qt-mt323:qt-mt323.dll
 0001:00016d34       ?heightForWidth@QWidget@@UBEHH@Z 00417d34 f   qt-mt323:qt-mt323.dll
 0001:00016d3a       ?hide@QWidget@@UAEXXZ      00417d3a f   qt-mt323:qt-mt323.dll
 0001:00016d40       ?hideEvent@QWidget@@MAEXPAVQHideEvent@@@Z 00417d40 f   qt-mt323:qt-mt323.dll
 0001:00016d46       ?imComposeEvent@QWidget@@MAEXPAVQIMEvent@@@Z 00417d46 f   qt-mt323:qt-mt323.dll
 0001:00016d4c       ?imEndEvent@QWidget@@MAEXPAVQIMEvent@@@Z 00417d4c f   qt-mt323:qt-mt323.dll
 0001:00016d52       ?imStartEvent@QWidget@@MAEXPAVQIMEvent@@@Z 00417d52 f   qt-mt323:qt-mt323.dll
 0001:00016d58       ?insertChild@QObject@@UAEXPAV1@@Z 00417d58 f   qt-mt323:qt-mt323.dll
 0001:00016d5e       ?keyPressEvent@QWidget@@MAEXPAVQKeyEvent@@@Z 00417d5e f   qt-mt323:qt-mt323.dll
 0001:00016d64       ?keyReleaseEvent@QWidget@@MAEXPAVQKeyEvent@@@Z 00417d64 f   qt-mt323:qt-mt323.dll
 0001:00016d6a       ?leaveEvent@QWidget@@MAEXPAVQEvent@@@Z 00417d6a f   qt-mt323:qt-mt323.dll
 0001:00016d70       ?metaObject@QGrid@@UBEPAVQMetaObject@@XZ 00417d70 f   qt-mt323:qt-mt323.dll
 0001:00016d76       ?metric@QWidget@@MBEHH@Z   00417d76 f   qt-mt323:qt-mt323.dll
 0001:00016d7c       ?minimumSizeHint@QWidget@@UBE?AVQSize@@XZ 00417d7c f   qt-mt323:qt-mt323.dll
 0001:00016d82       ?mouseDoubleClickEvent@QWidget@@MAEXPAVQMouseEvent@@@Z 00417d82 f   qt-mt323:qt-mt323.dll
 0001:00016d88       ?mouseMoveEvent@QWidget@@MAEXPAVQMouseEvent@@@Z 00417d88 f   qt-mt323:qt-mt323.dll
 0001:00016d8e       ?mousePressEvent@QWidget@@MAEXPAVQMouseEvent@@@Z 00417d8e f   qt-mt323:qt-mt323.dll
 0001:00016d94       ?mouseReleaseEvent@QWidget@@MAEXPAVQMouseEvent@@@Z 00417d94 f   qt-mt323:qt-mt323.dll
 0001:00016d9a       ?move@QWidget@@UAEXHH@Z    00417d9a f   qt-mt323:qt-mt323.dll
 0001:00016da0       ?moveEvent@QWidget@@MAEXPAVQMoveEvent@@@Z 00417da0 f   qt-mt323:qt-mt323.dll
 0001:00016da6       ?paintEvent@QFrame@@MAEXPAVQPaintEvent@@@Z 00417da6 f   qt-mt323:qt-mt323.dll
 0001:00016dac       ?paintEvent@QWidget@@MAEXPAVQPaintEvent@@@Z 00417dac f   qt-mt323:qt-mt323.dll
 0001:00016db2       ?paletteChange@QWidget@@MAEXABVQPalette@@@Z 00417db2 f   qt-mt323:qt-mt323.dll
 0001:00016db8       ?polish@QWidget@@UAEXXZ    00417db8 f   qt-mt323:qt-mt323.dll
 0001:00016dbe       ?property@QObject@@UBE?AVQVariant@@PBD@Z 00417dbe f   qt-mt323:qt-mt323.dll
 0001:00016dc4       ?qt_cast@QGrid@@UAEPAXPBD@Z 00417dc4 f   qt-mt323:qt-mt323.dll
 0001:00016dca       ?qt_emit@QGrid@@UAE_NHPAUQUObject@@@Z 00417dca f   qt-mt323:qt-mt323.dll
 0001:00016dd0       ?qt_invoke@QGrid@@UAE_NHPAUQUObject@@@Z 00417dd0 f   qt-mt323:qt-mt323.dll
 0001:00016dd6       ?qt_property@QGrid@@UAE_NHHPAVQVariant@@@Z 00417dd6 f   qt-mt323:qt-mt323.dll
 0001:00016ddc       ?read@QGDict@@MAEAAVQDataStream@@AAV2@AAPAX@Z 00417ddc f   qt-mt323:qt-mt323.dll
 0001:00016de2       ?removeChild@QObject@@UAEXPAV1@@Z 00417de2 f   qt-mt323:qt-mt323.dll
 0001:00016de8       ?reparent@QWidget@@UAEXPAV1@IABVQPoint@@_N@Z 00417de8 f   qt-mt323:qt-mt323.dll
 0001:00016dee       ?resize@QWidget@@UAEXHH@Z  00417dee f   qt-mt323:qt-mt323.dll
 0001:00016df4       ?resizeEvent@QFrame@@MAEXPAVQResizeEvent@@@Z 00417df4 f   qt-mt323:qt-mt323.dll
 0001:00016dfa       ?resizeEvent@QWidget@@MAEXPAVQResizeEvent@@@Z 00417dfa f   qt-mt323:qt-mt323.dll
 0001:00016e00       ?resolution@QPaintDevice@@UBEHXZ 00417e00 f   qt-mt323:qt-mt323.dll
 0001:00016e06       ?setAcceptDrops@QWidget@@UAEX_N@Z 00417e06 f   qt-mt323:qt-mt323.dll
 0001:00016e0c       ?setActiveWindow@QWidget@@UAEXXZ 00417e0c f   qt-mt323:qt-mt323.dll
 0001:00016e12       ?setAutoMask@QWidget@@UAEX_N@Z 00417e12 f   qt-mt323:qt-mt323.dll
 0001:00016e18       ?setBackgroundColor@QWidget@@UAEXABVQColor@@@Z 00417e18 f   qt-mt323:qt-mt323.dll
 0001:00016e1e       ?setBackgroundMode@QWidget@@UAEXW4BackgroundMode@Qt@@@Z 00417e1e f   qt-mt323:qt-mt323.dll
 0001:00016e24       ?setBackgroundOrigin@QWidget@@UAEXW4BackgroundOrigin@1@@Z 00417e24 f   qt-mt323:qt-mt323.dll
 0001:00016e2a       ?setBackgroundPixmap@QWidget@@UAEXABVQPixmap@@@Z 00417e2a f   qt-mt323:qt-mt323.dll
 0001:00016e30       ?setCaption@QWidget@@UAEXABVQString@@@Z 00417e30 f   qt-mt323:qt-mt323.dll
 0001:00016e36       ?setCursor@QWidget@@UAEXABVQCursor@@@Z 00417e36 f   qt-mt323:qt-mt323.dll
 0001:00016e3c       ?setEnabled@QWidget@@UAEX_N@Z 00417e3c f   qt-mt323:qt-mt323.dll
 0001:00016e42       ?setEraseColor@QWidget@@UAEXABVQColor@@@Z 00417e42 f   qt-mt323:qt-mt323.dll
 0001:00016e48       ?setErasePixmap@QWidget@@UAEXABVQPixmap@@@Z 00417e48 f   qt-mt323:qt-mt323.dll
 0001:00016e4e       ?setFocus@QWidget@@UAEXXZ  00417e4e f   qt-mt323:qt-mt323.dll
 0001:00016e54       ?setFocusPolicy@QWidget@@UAEXW4FocusPolicy@1@@Z 00417e54 f   qt-mt323:qt-mt323.dll
 0001:00016e5a       ?setFocusProxy@QWidget@@UAEXPAV1@@Z 00417e5a f   qt-mt323:qt-mt323.dll
 0001:00016e60       ?setFont@QWidget@@UAEXABVQFont@@@Z 00417e60 f   qt-mt323:qt-mt323.dll
 0001:00016e66       ?setFrameRect@QFrame@@UAEXABVQRect@@@Z 00417e66 f   qt-mt323:qt-mt323.dll
 0001:00016e6c       ?setGeometry@QWidget@@UAEXABVQRect@@@Z 00417e6c f   qt-mt323:qt-mt323.dll
 0001:00016e72       ?setGeometry@QWidget@@UAEXHHHH@Z 00417e72 f   qt-mt323:qt-mt323.dll
 0001:00016e78       ?setIcon@QWidget@@UAEXABVQPixmap@@@Z 00417e78 f   qt-mt323:qt-mt323.dll
 0001:00016e7e       ?setIconText@QWidget@@UAEXABVQString@@@Z 00417e7e f   qt-mt323:qt-mt323.dll
 0001:00016e84       ?setKeyCompression@QWidget@@MAEX_N@Z 00417e84 f   qt-mt323:qt-mt323.dll
 0001:00016e8a       ?setLineWidth@QFrame@@UAEXH@Z 00417e8a f   qt-mt323:qt-mt323.dll
 0001:00016e90       ?setMargin@QFrame@@UAEXH@Z 00417e90 f   qt-mt323:qt-mt323.dll
 0001:00016e96       ?setMask@QWidget@@UAEXABVQBitmap@@@Z 00417e96 f   qt-mt323:qt-mt323.dll
 0001:00016e9c       ?setMask@QWidget@@UAEXABVQRegion@@@Z 00417e9c f   qt-mt323:qt-mt323.dll
 0001:00016ea2       ?setMaximumSize@QWidget@@UAEXHH@Z 00417ea2 f   qt-mt323:qt-mt323.dll
 0001:00016ea8       ?setMicroFocusHint@QWidget@@MAEXHHHH_NPAVQFont@@@Z 00417ea8 f   qt-mt323:qt-mt323.dll
 0001:00016eae       ?setMidLineWidth@QFrame@@UAEXH@Z 00417eae f   qt-mt323:qt-mt323.dll
 0001:00016eb4       ?setMinimumSize@QWidget@@UAEXHH@Z 00417eb4 f   qt-mt323:qt-mt323.dll
 0001:00016eba       ?setMouseTracking@QWidget@@UAEX_N@Z 00417eba f   qt-mt323:qt-mt323.dll
 0001:00016ec0       ?setName@QWidget@@UAEXPBD@Z 00417ec0 f   qt-mt323:qt-mt323.dll
 0001:00016ec6       ?setPalette@QWidget@@UAEXABVQPalette@@@Z 00417ec6 f   qt-mt323:qt-mt323.dll
 0001:00016ecc       ?setPaletteBackgroundColor@QWidget@@UAEXABVQColor@@@Z 00417ecc f   qt-mt323:qt-mt323.dll
 0001:00016ed2       ?setPaletteBackgroundPixmap@QWidget@@UAEXABVQPixmap@@@Z 00417ed2 f   qt-mt323:qt-mt323.dll
 0001:00016ed8       ?setProperty@QObject@@UAE_NPBDABVQVariant@@@Z 00417ed8 f   qt-mt323:qt-mt323.dll
 0001:00016ede       ?setResolution@QPaintDevice@@UAEXH@Z 00417ede f   qt-mt323:qt-mt323.dll
 0001:00016ee4       ?setSizeIncrement@QWidget@@UAEXHH@Z 00417ee4 f   qt-mt323:qt-mt323.dll
 0001:00016eea       ?setSizePolicy@QWidget@@UAEXVQSizePolicy@@@Z 00417eea f   qt-mt323:qt-mt323.dll
 0001:00016ef0       ?setUpdatesEnabled@QWidget@@UAEX_N@Z 00417ef0 f   qt-mt323:qt-mt323.dll
 0001:00016ef6       ?setWFlags@QWidget@@MAEXI@Z 00417ef6 f   qt-mt323:qt-mt323.dll
 0001:00016efc       ?setWState@QWidget@@MAEXI@Z 00417efc f   qt-mt323:qt-mt323.dll
 0001:00016f02       ?show@QWidget@@UAEXXZ      00417f02 f   qt-mt323:qt-mt323.dll
 0001:00016f08       ?showEvent@QWidget@@MAEXPAVQShowEvent@@@Z 00417f08 f   qt-mt323:qt-mt323.dll
 0001:00016f0e       ?showMaximized@QWidget@@UAEXXZ 00417f0e f   qt-mt323:qt-mt323.dll
 0001:00016f14       ?showMinimized@QWidget@@UAEXXZ 00417f14 f   qt-mt323:qt-mt323.dll
 0001:00016f1a       ?showNormal@QWidget@@UAEXXZ 00417f1a f   qt-mt323:qt-mt323.dll
 0001:00016f20       ?sizeHint@QGrid@@UBE?AVQSize@@XZ 00417f20 f   qt-mt323:qt-mt323.dll
 0001:00016f26       ?sizeHint@QWidget@@UBE?AVQSize@@XZ 00417f26 f   qt-mt323:qt-mt323.dll
 0001:00016f2c       ?sizePolicy@QWidget@@UBE?AVQSizePolicy@@XZ 00417f2c f   qt-mt323:qt-mt323.dll
 0001:00016f32       ?styleChange@QFrame@@MAEXAAVQStyle@@@Z 00417f32 f   qt-mt323:qt-mt323.dll
 0001:00016f38       ?styleChange@QWidget@@MAEXAAVQStyle@@@Z 00417f38 f   qt-mt323:qt-mt323.dll
 0001:00016f3e       ?tabletEvent@QWidget@@MAEXPAVQTabletEvent@@@Z 00417f3e f   qt-mt323:qt-mt323.dll
 0001:00016f44       ?timerEvent@QObject@@MAEXPAVQTimerEvent@@@Z 00417f44 f   qt-mt323:qt-mt323.dll
 0001:00016f4a       ?unsetCursor@QWidget@@UAEXXZ 00417f4a f   qt-mt323:qt-mt323.dll
 0001:00016f50       ?updateMask@QWidget@@MAEXXZ 00417f50 f   qt-mt323:qt-mt323.dll
 0001:00016f56       ?wheelEvent@QWidget@@MAEXPAVQWheelEvent@@@Z 00417f56 f   qt-mt323:qt-mt323.dll
 0001:00016f5c       ?winEvent@QWidget@@MAE_NPAUtagMSG@@@Z 00417f5c f   qt-mt323:qt-mt323.dll
 0001:00016f62       ?windowActivationChange@QWidget@@MAEX_N@Z 00417f62 f   qt-mt323:qt-mt323.dll
 0001:00016f68       ?write@QGDict@@MBEAAVQDataStream@@AAV2@PAX@Z 00417f68 f   qt-mt323:qt-mt323.dll
 0001:00016f6e       ?event@QObject@@UAE_NPAVQEvent@@@Z 00417f6e f   qt-mt323:qt-mt323.dll
 0001:00016f74       ?setName@QObject@@UAEXPBD@Z 00417f74 f   qt-mt323:qt-mt323.dll
 0001:00016f7a       ?childEvent@QWidgetStack@@MAEXPAVQChildEvent@@@Z 00417f7a f   qt-mt323:qt-mt323.dll
 0001:00016f80       ?className@QWidgetStack@@UBEPBDXZ 00417f80 f   qt-mt323:qt-mt323.dll
 0001:00016f86       ?frameChanged@QWidgetStack@@MAEXXZ 00417f86 f   qt-mt323:qt-mt323.dll
 0001:00016f8c       ?metaObject@QWidgetStack@@UBEPAVQMetaObject@@XZ 00417f8c f   qt-mt323:qt-mt323.dll
 0001:00016f92       ?minimumSizeHint@QWidgetStack@@UBE?AVQSize@@XZ 00417f92 f   qt-mt323:qt-mt323.dll
 0001:00016f98       ?qt_cast@QWidgetStack@@UAEPAXPBD@Z 00417f98 f   qt-mt323:qt-mt323.dll
 0001:00016f9e       ?qt_emit@QWidgetStack@@UAE_NHPAUQUObject@@@Z 00417f9e f   qt-mt323:qt-mt323.dll
 0001:00016fa4       ?qt_invoke@QWidgetStack@@UAE_NHPAUQUObject@@@Z 00417fa4 f   qt-mt323:qt-mt323.dll
 0001:00016faa       ?qt_property@QWidgetStack@@UAE_NHHPAVQVariant@@@Z 00417faa f   qt-mt323:qt-mt323.dll
 0001:00016fb0       ?resizeEvent@QWidgetStack@@MAEXPAVQResizeEvent@@@Z 00417fb0 f   qt-mt323:qt-mt323.dll
 0001:00016fb6       ?setChildGeometries@QWidgetStack@@MAEXXZ 00417fb6 f   qt-mt323:qt-mt323.dll
 0001:00016fbc       ?setFrameRect@QWidgetStack@@UAEXABVQRect@@@Z 00417fbc f   qt-mt323:qt-mt323.dll
 0001:00016fc2       ?show@QWidgetStack@@UAEXXZ 00417fc2 f   qt-mt323:qt-mt323.dll
 0001:00016fc8       ?sizeHint@QWidgetStack@@UBE?AVQSize@@XZ 00417fc8 f   qt-mt323:qt-mt323.dll
 0001:00016fce       ?className@QWidget@@UBEPBDXZ 00417fce f   qt-mt323:qt-mt323.dll
 0001:00016fd4       ?metaObject@QWidget@@UBEPAVQMetaObject@@XZ 00417fd4 f   qt-mt323:qt-mt323.dll
 0001:00016fda       ?qt_cast@QWidget@@UAEPAXPBD@Z 00417fda f   qt-mt323:qt-mt323.dll
 0001:00016fe0       ?qt_emit@QWidget@@UAE_NHPAUQUObject@@@Z 00417fe0 f   qt-mt323:qt-mt323.dll
 0001:00016fe6       ?qt_invoke@QWidget@@UAE_NHPAUQUObject@@@Z 00417fe6 f   qt-mt323:qt-mt323.dll
 0001:00016fec       ?qt_property@QWidget@@UAE_NHHPAVQVariant@@@Z 00417fec f   qt-mt323:qt-mt323.dll
 0001:00016ff2       ?accept@QSocketDevice@@UAEHXZ 00417ff2 f   qt-mt323:qt-mt323.dll
 0001:00016ff8       ?at@QSocketDevice@@UAE_NK@Z 00417ff8 f   qt-mt323:qt-mt323.dll
 0001:00016ffe       ?at@QSocketDevice@@UBEKXZ  00417ffe f   qt-mt323:qt-mt323.dll
 0001:00017004       ?atEnd@QSocketDevice@@UBE_NXZ 00418004 f   qt-mt323:qt-mt323.dll
 0001:0001700a       ?bind@QSocketDevice@@UAE_NABVQHostAddress@@G@Z 0041800a f   qt-mt323:qt-mt323.dll
 0001:00017010       ?className@QSocketNotifier@@UBEPBDXZ 00418010 f   qt-mt323:qt-mt323.dll
 0001:00017016       ?close@QSocketDevice@@UAEXXZ 00418016 f   qt-mt323:qt-mt323.dll
 0001:0001701c       ?connect@QSocketDevice@@UAE_NABVQHostAddress@@G@Z 0041801c f   qt-mt323:qt-mt323.dll
 0001:00017022       ?event@QSocketNotifier@@MAE_NPAVQEvent@@@Z 00418022 f   qt-mt323:qt-mt323.dll
 0001:00017028       ?flush@QSocketDevice@@UAEXXZ 00418028 f   qt-mt323:qt-mt323.dll
 0001:0001702e       ?getch@QSocketDevice@@UAEHXZ 0041802e f   qt-mt323:qt-mt323.dll
 0001:00017034       ?listen@QSocketDevice@@UAE_NH@Z 00418034 f   qt-mt323:qt-mt323.dll
 0001:0001703a       ?metaObject@QSocketNotifier@@UBEPAVQMetaObject@@XZ 0041803a f   qt-mt323:qt-mt323.dll
 0001:00017040       ?open@QSocketDevice@@UAE_NH@Z 00418040 f   qt-mt323:qt-mt323.dll
 0001:00017046       ?putch@QSocketDevice@@UAEHH@Z 00418046 f   qt-mt323:qt-mt323.dll
 0001:0001704c       ?qt_cast@QSocketNotifier@@UAEPAXPBD@Z 0041804c f   qt-mt323:qt-mt323.dll
 0001:00017052       ?qt_emit@QSocketNotifier@@UAE_NHPAUQUObject@@@Z 00418052 f   qt-mt323:qt-mt323.dll
 0001:00017058       ?qt_invoke@QSocketNotifier@@UAE_NHPAUQUObject@@@Z 00418058 f   qt-mt323:qt-mt323.dll
 0001:0001705e       ?qt_property@QSocketNotifier@@UAE_NHHPAVQVariant@@@Z 0041805e f   qt-mt323:qt-mt323.dll
 0001:00017064       ?readAll@QIODevice@@UAE?AV?$QMemArray@D@@XZ 00418064 f   qt-mt323:qt-mt323.dll
 0001:0001706a       ?readBlock@QSocketDevice@@UAEJPADK@Z 0041806a f   qt-mt323:qt-mt323.dll
 0001:00017070       ?readLine@QIODevice@@UAEJPADK@Z 00418070 f   qt-mt323:qt-mt323.dll
 0001:00017076       ?setAddressReusable@QSocketDevice@@UAEX_N@Z 00418076 f   qt-mt323:qt-mt323.dll
 0001:0001707c       ?setBlocking@QSocketDevice@@UAEX_N@Z 0041807c f   qt-mt323:qt-mt323.dll
 0001:00017082       ?setEnabled@QSocketNotifier@@UAEX_N@Z 00418082 f   qt-mt323:qt-mt323.dll
 0001:00017088       ?setOption@QSocketDevice@@EAEXW4Option@1@H@Z 00418088 f   qt-mt323:qt-mt323.dll
 0001:0001708e       ?setReceiveBufferSize@QSocketDevice@@UAEXI@Z 0041808e f   qt-mt323:qt-mt323.dll
 0001:00017094       ?setSendBufferSize@QSocketDevice@@UAEXI@Z 00418094 f   qt-mt323:qt-mt323.dll
 0001:0001709a       ?setSocket@QSocketDevice@@UAEXHW4Type@1@@Z 0041809a f   qt-mt323:qt-mt323.dll
 0001:000170a0       ?size@QSocketDevice@@UBEKXZ 004180a0 f   qt-mt323:qt-mt323.dll
 0001:000170a6       ?ungetch@QSocketDevice@@UAEHH@Z 004180a6 f   qt-mt323:qt-mt323.dll
 0001:000170ac       ?writeBlock@QSocketDevice@@UAEJPBDK@Z 004180ac f   qt-mt323:qt-mt323.dll
 0001:000170b2       ?writeBlock@QSocketDevice@@UAEJPBDKABVQHostAddress@@G@Z 004180b2 f   qt-mt323:qt-mt323.dll
 0001:000170b8       ?activateItemAt@QPopupMenu@@UAEXH@Z 004180b8 f   qt-mt323:qt-mt323.dll
 0001:000170be       ?closeEvent@QPopupMenu@@MAEXPAVQCloseEvent@@@Z 004180be f   qt-mt323:qt-mt323.dll
 0001:000170c4       ?customWhatsThis@QPopupMenu@@UBE_NXZ 004180c4 f   qt-mt323:qt-mt323.dll
 0001:000170ca       ?enabledChange@QPopupMenu@@MAEX_N@Z 004180ca f   qt-mt323:qt-mt323.dll
 0001:000170d0       ?focusInEvent@QPopupMenu@@MAEXPAVQFocusEvent@@@Z 004180d0 f   qt-mt323:qt-mt323.dll
 0001:000170d6       ?focusNextPrevChild@QPopupMenu@@MAE_N_N@Z 004180d6 f   qt-mt323:qt-mt323.dll
 0001:000170dc       ?focusOutEvent@QPopupMenu@@MAEXPAVQFocusEvent@@@Z 004180dc f   qt-mt323:qt-mt323.dll
 0001:000170e2       ?frameChanged@QPopupMenu@@EAEXXZ 004180e2 f   qt-mt323:qt-mt323.dll
 0001:000170e8       ?hide@QPopupMenu@@UAEXXZ   004180e8 f   qt-mt323:qt-mt323.dll
 0001:000170ee       ?keyPressEvent@QPopupMenu@@MAEXPAVQKeyEvent@@@Z 004180ee f   qt-mt323:qt-mt323.dll
 0001:000170f4       ?leaveEvent@QPopupMenu@@MAEXPAVQEvent@@@Z 004180f4 f   qt-mt323:qt-mt323.dll
 0001:000170fa       ?menuContentsChanged@QPopupMenu@@EAEXXZ 004180fa f   qt-mt323:qt-mt323.dll
 0001:00017100       ?menuDelPopup@QPopupMenu@@EAEXPAV1@@Z 00418100 f   qt-mt323:qt-mt323.dll
 0001:00017106       ?menuInsPopup@QPopupMenu@@EAEXPAV1@@Z 00418106 f   qt-mt323:qt-mt323.dll
 0001:0001710c       ?menuStateChanged@QPopupMenu@@EAEXXZ 0041810c f   qt-mt323:qt-mt323.dll
 0001:00017112       ?mouseMoveEvent@QPopupMenu@@MAEXPAVQMouseEvent@@@Z 00418112 f   qt-mt323:qt-mt323.dll
 0001:00017118       ?mousePressEvent@QPopupMenu@@MAEXPAVQMouseEvent@@@Z 00418118 f   qt-mt323:qt-mt323.dll
 0001:0001711e       ?mouseReleaseEvent@QPopupMenu@@MAEXPAVQMouseEvent@@@Z 0041811e f   qt-mt323:qt-mt323.dll
 0001:00017124       ?setActiveItem@QPopupMenu@@UAEXH@Z 00418124 f   qt-mt323:qt-mt323.dll
 0001:0001712a       ?setCheckable@QPopupMenu@@UAEX_N@Z 0041812a f   qt-mt323:qt-mt323.dll
 0001:00017130       ?setFirstItemActive@QPopupMenu@@EAEXXZ 00418130 f   qt-mt323:qt-mt323.dll
 0001:00017136       ?setFont@QPopupMenu@@UAEXABVQFont@@@Z 00418136 f   qt-mt323:qt-mt323.dll
 0001:0001713c       ?setId@QMenuData@@UAEXHH@Z 0041813c f   qt-mt323:qt-mt323.dll
 0001:00017142       ?show@QPopupMenu@@UAEXXZ   00418142 f   qt-mt323:qt-mt323.dll
 0001:00017148       ?sizeHint@QPopupMenu@@UBE?AVQSize@@XZ 00418148 f   qt-mt323:qt-mt323.dll
 0001:0001714e       ?styleChange@QPopupMenu@@MAEXAAVQStyle@@@Z 0041814e f   qt-mt323:qt-mt323.dll
 0001:00017154       ?timerEvent@QPopupMenu@@MAEXPAVQTimerEvent@@@Z 00418154 f   qt-mt323:qt-mt323.dll
 0001:0001715a       ?updateItem@QPopupMenu@@UAEXH@Z 0041815a f   qt-mt323:qt-mt323.dll
 0001:00017160       ?accept@QDialog@@MAEXXZ    00418160 f   qt-mt323:qt-mt323.dll
 0001:00017166       ?closeEvent@QDialog@@MAEXPAVQCloseEvent@@@Z 00418166 f   qt-mt323:qt-mt323.dll
 0001:0001716c       ?contextMenuEvent@QDialog@@MAEXPAVQContextMenuEvent@@@Z 0041816c f   qt-mt323:qt-mt323.dll
 0001:00017172       ?done@QDialog@@MAEXH@Z     00418172 f   qt-mt323:qt-mt323.dll
 0001:00017178       ?eventFilter@QDialog@@MAE_NPAVQObject@@PAVQEvent@@@Z 00418178 f   qt-mt323:qt-mt323.dll
 0001:0001717e       ?hide@QDialog@@UAEXXZ      0041817e f   qt-mt323:qt-mt323.dll
 0001:00017184       ?keyPressEvent@QDialog@@MAEXPAVQKeyEvent@@@Z 00418184 f   qt-mt323:qt-mt323.dll
 0001:0001718a       ?minimumSizeHint@QDialog@@UBE?AVQSize@@XZ 0041818a f   qt-mt323:qt-mt323.dll
 0001:00017190       ?move@QDialog@@UAEXHH@Z    00418190 f   qt-mt323:qt-mt323.dll
 0001:00017196       ?reject@QDialog@@MAEXXZ    00418196 f   qt-mt323:qt-mt323.dll
 0001:0001719c       ?resize@QDialog@@UAEXHH@Z  0041819c f   qt-mt323:qt-mt323.dll
 0001:000171a2       ?resizeEvent@QDialog@@MAEXPAVQResizeEvent@@@Z 004181a2 f   qt-mt323:qt-mt323.dll
 0001:000171a8       ?setGeometry@QDialog@@UAEXABVQRect@@@Z 004181a8 f   qt-mt323:qt-mt323.dll
 0001:000171ae       ?setGeometry@QDialog@@UAEXHHHH@Z 004181ae f   qt-mt323:qt-mt323.dll
 0001:000171b4       ?show@QDialog@@UAEXXZ      004181b4 f   qt-mt323:qt-mt323.dll
 0001:000171ba       ?sizeHint@QDialog@@UBE?AVQSize@@XZ 004181ba f   qt-mt323:qt-mt323.dll
 0001:000171c0       ?addArgument@QProcess@@UAEXABVQString@@@Z 004181c0 f   qt-mt323:qt-mt323.dll
 0001:000171c6       ?className@QProcess@@UBEPBDXZ 004181c6 f   qt-mt323:qt-mt323.dll
 0001:000171cc       ?closeStdin@QProcess@@UAEXXZ 004181cc f   qt-mt323:qt-mt323.dll
 0001:000171d2       ?connectNotify@QProcess@@MAEXPBD@Z 004181d2 f   qt-mt323:qt-mt323.dll
 0001:000171d8       ?disconnectNotify@QProcess@@MAEXPBD@Z 004181d8 f   qt-mt323:qt-mt323.dll
 0001:000171de       ?launch@QProcess@@UAE_NABV?$QMemArray@D@@PAVQStringList@@@Z 004181de f   qt-mt323:qt-mt323.dll
 0001:000171e4       ?launch@QProcess@@UAE_NABVQString@@PAVQStringList@@@Z 004181e4 f   qt-mt323:qt-mt323.dll
 0001:000171ea       ?metaObject@QProcess@@UBEPAVQMetaObject@@XZ 004181ea f   qt-mt323:qt-mt323.dll
 0001:000171f0       ?qt_cast@QProcess@@UAEPAXPBD@Z 004181f0 f   qt-mt323:qt-mt323.dll
 0001:000171f6       ?qt_emit@QProcess@@UAE_NHPAUQUObject@@@Z 004181f6 f   qt-mt323:qt-mt323.dll
 0001:000171fc       ?qt_invoke@QProcess@@UAE_NHPAUQUObject@@@Z 004181fc f   qt-mt323:qt-mt323.dll
 0001:00017202       ?qt_property@QProcess@@UAE_NHHPAVQVariant@@@Z 00418202 f   qt-mt323:qt-mt323.dll
 0001:00017208       ?readLineStderr@QProcess@@UAE?AVQString@@XZ 00418208 f   qt-mt323:qt-mt323.dll
 0001:0001720e       ?readLineStdout@QProcess@@UAE?AVQString@@XZ 0041820e f   qt-mt323:qt-mt323.dll
 0001:00017214       ?readStderr@QProcess@@UAE?AV?$QMemArray@D@@XZ 00418214 f   qt-mt323:qt-mt323.dll
 0001:0001721a       ?readStdout@QProcess@@UAE?AV?$QMemArray@D@@XZ 0041821a f   qt-mt323:qt-mt323.dll
 0001:00017220       ?setArguments@QProcess@@UAEXABVQStringList@@@Z 00418220 f   qt-mt323:qt-mt323.dll
 0001:00017226       ?setWorkingDirectory@QProcess@@UAEXABVQDir@@@Z 00418226 f   qt-mt323:qt-mt323.dll
 0001:0001722c       ?start@QProcess@@UAE_NPAVQStringList@@@Z 0041822c f   qt-mt323:qt-mt323.dll
 0001:00017232       ?writeToStdin@QProcess@@UAEXABV?$QMemArray@D@@@Z 00418232 f   qt-mt323:qt-mt323.dll
 0001:00017238       ?writeToStdin@QProcess@@UAEXABVQString@@@Z 00418238 f   qt-mt323:qt-mt323.dll
 0001:0001723e       ?qt_cast@QPopupMenu@@UAEPAXPBD@Z 0041823e f   qt-mt323:qt-mt323.dll
 0001:00017244       ?qt_invoke@QPopupMenu@@UAE_NHPAUQUObject@@@Z 00418244 f   qt-mt323:qt-mt323.dll
 0001:0001724a       ?qt_emit@QPopupMenu@@UAE_NHPAUQUObject@@@Z 0041824a f   qt-mt323:qt-mt323.dll
 0001:00017250       ?qt_property@QPopupMenu@@UAE_NHHPAVQVariant@@@Z 00418250 f   qt-mt323:qt-mt323.dll
 0001:00017256       ?addChild@QScrollView@@UAEXPAVQWidget@@HH@Z 00418256 f   qt-mt323:qt-mt323.dll
 0001:0001725c       ?addItem@QBoxLayout@@UAEXPAVQLayoutItem@@@Z 0041825c f   qt-mt323:qt-mt323.dll
 0001:00017262       ?childEvent@QLayout@@MAEXPAVQChildEvent@@@Z 00418262 f   qt-mt323:qt-mt323.dll
 0001:00017268       ?className@QListBox@@UBEPBDXZ 00418268 f   qt-mt323:qt-mt323.dll
 0001:0001726e       ?className@QVBoxLayout@@UBEPBDXZ 0041826e f   qt-mt323:qt-mt323.dll
 0001:00017274       ?clearSelection@QListBox@@UAEXXZ 00418274 f   qt-mt323:qt-mt323.dll
 0001:0001727a       ?contentsContextMenuEvent@QListBox@@MAEXPAVQContextMenuEvent@@@Z 0041827a f   qt-mt323:qt-mt323.dll
 0001:00017280       ?contentsDragEnterEvent@QScrollView@@MAEXPAVQDragEnterEvent@@@Z 00418280 f   qt-mt323:qt-mt323.dll
 0001:00017286       ?contentsDragLeaveEvent@QScrollView@@MAEXPAVQDragLeaveEvent@@@Z 00418286 f   qt-mt323:qt-mt323.dll
 0001:0001728c       ?contentsDragMoveEvent@QScrollView@@MAEXPAVQDragMoveEvent@@@Z 0041828c f   qt-mt323:qt-mt323.dll
 0001:00017292       ?contentsDropEvent@QScrollView@@MAEXPAVQDropEvent@@@Z 00418292 f   qt-mt323:qt-mt323.dll
 0001:00017298       ?contentsMouseDoubleClickEvent@QScrollView@@MAEXPAVQMouseEvent@@@Z 00418298 f   qt-mt323:qt-mt323.dll
 0001:0001729e       ?contentsMouseMoveEvent@QScrollView@@MAEXPAVQMouseEvent@@@Z 0041829e f   qt-mt323:qt-mt323.dll
 0001:000172a4       ?contentsMousePressEvent@QScrollView@@MAEXPAVQMouseEvent@@@Z 004182a4 f   qt-mt323:qt-mt323.dll
 0001:000172aa       ?contentsMouseReleaseEvent@QScrollView@@MAEXPAVQMouseEvent@@@Z 004182aa f   qt-mt323:qt-mt323.dll
 0001:000172b0       ?contentsWheelEvent@QScrollView@@MAEXPAVQWheelEvent@@@Z 004182b0 f   qt-mt323:qt-mt323.dll
 0001:000172b6       ?contextMenuEvent@QScrollView@@MAEXPAVQContextMenuEvent@@@Z 004182b6 f   qt-mt323:qt-mt323.dll
 0001:000172bc       ?drawContents@QScrollView@@EAEXPAVQPainter@@@Z 004182bc f   qt-mt323:qt-mt323.dll
 0001:000172c2       ?drawContents@QScrollView@@MAEXPAVQPainter@@HHHH@Z 004182c2 f   qt-mt323:qt-mt323.dll
 0001:000172c8       ?drawContentsOffset@QScrollView@@MAEXPAVQPainter@@HHHHHH@Z 004182c8 f   qt-mt323:qt-mt323.dll
 0001:000172ce       ?ensureCurrentVisible@QListBox@@UAEXXZ 004182ce f   qt-mt323:qt-mt323.dll
 0001:000172d4       ?eventFilter@QLayout@@MAE_NPAVQObject@@PAVQEvent@@@Z 004182d4 f   qt-mt323:qt-mt323.dll
 0001:000172da       ?eventFilter@QListBox@@MAE_NPAVQObject@@PAVQEvent@@@Z 004182da f   qt-mt323:qt-mt323.dll
 0001:000172e0       ?expanding@QBoxLayout@@UBE?AW4ExpandData@QSizePolicy@@XZ 004182e0 f   qt-mt323:qt-mt323.dll
 0001:000172e6       ?focusInEvent@QListBox@@MAEXPAVQFocusEvent@@@Z 004182e6 f   qt-mt323:qt-mt323.dll
 0001:000172ec       ?focusNextPrevChild@QScrollView@@MAE_N_N@Z 004182ec f   qt-mt323:qt-mt323.dll
 0001:000172f2       ?focusOutEvent@QListBox@@MAEXPAVQFocusEvent@@@Z 004182f2 f   qt-mt323:qt-mt323.dll
 0001:000172f8       ?fontChange@QScrollView@@MAEXABVQFont@@@Z 004182f8 f   qt-mt323:qt-mt323.dll
 0001:000172fe       ?frameChanged@QScrollView@@MAEXXZ 004182fe f   qt-mt323:qt-mt323.dll
 0001:00017304       ?geometry@QLayout@@UBE?AVQRect@@XZ 00418304 f   qt-mt323:qt-mt323.dll
 0001:0001730a       ?hasHeightForWidth@QBoxLayout@@UBE_NXZ 0041830a f   qt-mt323:qt-mt323.dll
 0001:00017310       ?heightForWidth@QBoxLayout@@UBEHH@Z 00418310 f   qt-mt323:qt-mt323.dll
 0001:00017316       ?invalidate@QBoxLayout@@UAEXXZ 00418316 f   qt-mt323:qt-mt323.dll
 0001:0001731c       ?invertSelection@QListBox@@UAEXXZ 0041831c f   qt-mt323:qt-mt323.dll
 0001:00017322       ?isEmpty@QLayout@@UBE_NXZ  00418322 f   qt-mt323:qt-mt323.dll
 0001:00017328       ?iterator@QBoxLayout@@UAE?AVQLayoutIterator@@XZ 00418328 f   qt-mt323:qt-mt323.dll
 0001:0001732e       ?keyPressEvent@QListBox@@MAEXPAVQKeyEvent@@@Z 0041832e f   qt-mt323:qt-mt323.dll
 0001:00017334       ?layout@QLayout@@UAEPAV1@XZ 00418334 f   qt-mt323:qt-mt323.dll
 0001:0001733a       ?maximumSize@QBoxLayout@@UBE?AVQSize@@XZ 0041833a f   qt-mt323:qt-mt323.dll
 0001:00017340       ?metaObject@QListBox@@UBEPAVQMetaObject@@XZ 00418340 f   qt-mt323:qt-mt323.dll
 0001:00017346       ?metaObject@QVBoxLayout@@UBEPAVQMetaObject@@XZ 00418346 f   qt-mt323:qt-mt323.dll
 0001:0001734c       ?minimumSize@QBoxLayout@@UBE?AVQSize@@XZ 0041834c f   qt-mt323:qt-mt323.dll
 0001:00017352       ?minimumSizeHint@QListBox@@UBE?AVQSize@@XZ 00418352 f   qt-mt323:qt-mt323.dll
 0001:00017358       ?mouseDoubleClickEvent@QListBox@@MAEXPAVQMouseEvent@@@Z 00418358 f   qt-mt323:qt-mt323.dll
 0001:0001735e       ?mouseMoveEvent@QListBox@@MAEXPAVQMouseEvent@@@Z 0041835e f   qt-mt323:qt-mt323.dll
 0001:00017364       ?mousePressEvent@QListBox@@MAEXPAVQMouseEvent@@@Z 00418364 f   qt-mt323:qt-mt323.dll
 0001:0001736a       ?mouseReleaseEvent@QListBox@@MAEXPAVQMouseEvent@@@Z 0041836a f   qt-mt323:qt-mt323.dll
 0001:00017370       ?moveChild@QScrollView@@UAEXPAVQWidget@@HH@Z 00418370 f   qt-mt323:qt-mt323.dll
 0001:00017376       ?paintCell@QListBox@@MAEXPAVQPainter@@HH@Z 00418376 f   qt-mt323:qt-mt323.dll
 0001:0001737c       ?qt_cast@QListBox@@UAEPAXPBD@Z 0041837c f   qt-mt323:qt-mt323.dll
 0001:00017382       ?qt_cast@QVBoxLayout@@UAEPAXPBD@Z 00418382 f   qt-mt323:qt-mt323.dll
 0001:00017388       ?qt_emit@QListBox@@UAE_NHPAUQUObject@@@Z 00418388 f   qt-mt323:qt-mt323.dll
 0001:0001738e       ?qt_emit@QVBoxLayout@@UAE_NHPAUQUObject@@@Z 0041838e f   qt-mt323:qt-mt323.dll
 0001:00017394       ?qt_invoke@QListBox@@UAE_NHPAUQUObject@@@Z 00418394 f   qt-mt323:qt-mt323.dll
 0001:0001739a       ?qt_invoke@QVBoxLayout@@UAE_NHPAUQUObject@@@Z 0041839a f   qt-mt323:qt-mt323.dll
 0001:000173a0       ?qt_property@QListBox@@UAE_NHHPAVQVariant@@@Z 004183a0 f   qt-mt323:qt-mt323.dll
 0001:000173a6       ?qt_property@QVBoxLayout@@UAE_NHHPAVQVariant@@@Z 004183a6 f   qt-mt323:qt-mt323.dll
 0001:000173ac       ?removeChild@QScrollView@@UAEXPAVQObject@@@Z 004183ac f   qt-mt323:qt-mt323.dll
 0001:000173b2       ?resize@QScrollView@@UAEXHH@Z 004183b2 f   qt-mt323:qt-mt323.dll
 0001:000173b8       ?resizeContents@QScrollView@@UAEXHH@Z 004183b8 f   qt-mt323:qt-mt323.dll
 0001:000173be       ?resizeEvent@QListBox@@MAEXPAVQResizeEvent@@@Z 004183be f   qt-mt323:qt-mt323.dll
 0001:000173c4       ?selectAll@QListBox@@UAEX_N@Z 004183c4 f   qt-mt323:qt-mt323.dll
 0001:000173ca       ?setAlignment@QLayoutItem@@UAEXH@Z 004183ca f   qt-mt323:qt-mt323.dll
 0001:000173d0       ?setAutoAdd@QLayout@@UAEX_N@Z 004183d0 f   qt-mt323:qt-mt323.dll
 0001:000173d6       ?setBottomItem@QListBox@@UAEXH@Z 004183d6 f   qt-mt323:qt-mt323.dll
 0001:000173dc       ?setColumnMode@QListBox@@UAEXH@Z 004183dc f   qt-mt323:qt-mt323.dll
 0001:000173e2       ?setColumnMode@QListBox@@UAEXW4LayoutMode@1@@Z 004183e2 f   qt-mt323:qt-mt323.dll
 0001:000173e8       ?setContentsPos@QScrollView@@UAEXHH@Z 004183e8 f   qt-mt323:qt-mt323.dll
 0001:000173ee       ?setCornerWidget@QScrollView@@UAEXPAVQWidget@@@Z 004183ee f   qt-mt323:qt-mt323.dll
 0001:000173f4       ?setCurrentItem@QListBox@@UAEXH@Z 004183f4 f   qt-mt323:qt-mt323.dll
 0001:000173fa       ?setCurrentItem@QListBox@@UAEXPAVQListBoxItem@@@Z 004183fa f   qt-mt323:qt-mt323.dll
 0001:00017400       ?setDragAutoScroll@QScrollView@@UAEX_N@Z 00418400 f   qt-mt323:qt-mt323.dll
 0001:00017406       ?setEnabled@QScrollView@@UAEX_N@Z 00418406 f   qt-mt323:qt-mt323.dll
 0001:0001740c       ?setFont@QListBox@@UAEXABVQFont@@@Z 0041840c f   qt-mt323:qt-mt323.dll
 0001:00017412       ?setGeometry@QBoxLayout@@UAEXABVQRect@@@Z 00418412 f   qt-mt323:qt-mt323.dll
 0001:00017418       ?setHBarGeometry@QScrollView@@MAEXAAVQScrollBar@@HHHH@Z 00418418 f   qt-mt323:qt-mt323.dll
 0001:0001741e       ?setHScrollBarMode@QScrollView@@UAEXW4ScrollBarMode@1@@Z 0041841e f   qt-mt323:qt-mt323.dll
 0001:00017424       ?setMargin@QLayout@@UAEXH@Z 00418424 f   qt-mt323:qt-mt323.dll
 0001:0001742a       ?setMargins@QScrollView@@MAEXHHHH@Z 0041842a f   qt-mt323:qt-mt323.dll
 0001:00017430       ?setMenuBar@QLayout@@UAEXPAVQMenuBar@@@Z 00418430 f   qt-mt323:qt-mt323.dll
 0001:00017436       ?setResizePolicy@QScrollView@@UAEXW4ResizePolicy@1@@Z 00418436 f   qt-mt323:qt-mt323.dll
 0001:0001743c       ?setRowMode@QListBox@@UAEXH@Z 0041843c f   qt-mt323:qt-mt323.dll
 0001:00017442       ?setRowMode@QListBox@@UAEXW4LayoutMode@1@@Z 00418442 f   qt-mt323:qt-mt323.dll
 0001:00017448       ?setSelected@QListBox@@UAEXPAVQListBoxItem@@_N@Z 00418448 f   qt-mt323:qt-mt323.dll
 0001:0001744e       ?setSelectionMode@QListBox@@UAEXW4SelectionMode@1@@Z 0041844e f   qt-mt323:qt-mt323.dll
 0001:00017454       ?setSpacing@QLayout@@UAEXH@Z 00418454 f   qt-mt323:qt-mt323.dll
 0001:0001745a       ?setTopItem@QListBox@@UAEXH@Z 0041845a f   qt-mt323:qt-mt323.dll
 0001:00017460       ?setVBarGeometry@QScrollView@@MAEXAAVQScrollBar@@HHHH@Z 00418460 f   qt-mt323:qt-mt323.dll
 0001:00017466       ?setVScrollBarMode@QScrollView@@UAEXW4ScrollBarMode@1@@Z 00418466 f   qt-mt323:qt-mt323.dll
 0001:0001746c       ?setVariableHeight@QListBox@@UAEX_N@Z 0041846c f   qt-mt323:qt-mt323.dll
 0001:00017472       ?setVariableWidth@QListBox@@UAEX_N@Z 00418472 f   qt-mt323:qt-mt323.dll
 0001:00017478       ?show@QScrollView@@UAEXXZ  00418478 f   qt-mt323:qt-mt323.dll
 0001:0001747e       ?showEvent@QListBox@@MAEXPAVQShowEvent@@@Z 0041847e f   qt-mt323:qt-mt323.dll
 0001:00017484       ?sizeHint@QBoxLayout@@UBE?AVQSize@@XZ 00418484 f   qt-mt323:qt-mt323.dll
 0001:0001748a       ?sizeHint@QListBox@@UBE?AVQSize@@XZ 0041848a f   qt-mt323:qt-mt323.dll
 0001:00017490       ?spacerItem@QLayoutItem@@UAEPAVQSpacerItem@@XZ 00418490 f   qt-mt323:qt-mt323.dll
 0001:00017496       ?styleChange@QScrollView@@UAEXAAVQStyle@@@Z 00418496 f   qt-mt323:qt-mt323.dll
 0001:0001749c       ?viewportContextMenuEvent@QScrollView@@MAEXPAVQContextMenuEvent@@@Z 0041849c f   qt-mt323:qt-mt323.dll
 0001:000174a2       ?viewportDragEnterEvent@QScrollView@@MAEXPAVQDragEnterEvent@@@Z 004184a2 f   qt-mt323:qt-mt323.dll
 0001:000174a8       ?viewportDragLeaveEvent@QScrollView@@MAEXPAVQDragLeaveEvent@@@Z 004184a8 f   qt-mt323:qt-mt323.dll
 0001:000174ae       ?viewportDragMoveEvent@QScrollView@@MAEXPAVQDragMoveEvent@@@Z 004184ae f   qt-mt323:qt-mt323.dll
 0001:000174b4       ?viewportDropEvent@QScrollView@@MAEXPAVQDropEvent@@@Z 004184b4 f   qt-mt323:qt-mt323.dll
 0001:000174ba       ?viewportMouseDoubleClickEvent@QScrollView@@MAEXPAVQMouseEvent@@@Z 004184ba f   qt-mt323:qt-mt323.dll
 0001:000174c0       ?viewportMouseMoveEvent@QScrollView@@MAEXPAVQMouseEvent@@@Z 004184c0 f   qt-mt323:qt-mt323.dll
 0001:000174c6       ?viewportMousePressEvent@QScrollView@@MAEXPAVQMouseEvent@@@Z 004184c6 f   qt-mt323:qt-mt323.dll
 0001:000174cc       ?viewportMouseReleaseEvent@QScrollView@@MAEXPAVQMouseEvent@@@Z 004184cc f   qt-mt323:qt-mt323.dll
 0001:000174d2       ?viewportPaintEvent@QListBox@@UAEXPAVQPaintEvent@@@Z 004184d2 f   qt-mt323:qt-mt323.dll
 0001:000174d8       ?viewportResizeEvent@QScrollView@@MAEXPAVQResizeEvent@@@Z 004184d8 f   qt-mt323:qt-mt323.dll
 0001:000174de       ?viewportWheelEvent@QScrollView@@MAEXPAVQWheelEvent@@@Z 004184de f   qt-mt323:qt-mt323.dll
 0001:000174e4       ?wheelEvent@QScrollView@@MAEXPAVQWheelEvent@@@Z 004184e4 f   qt-mt323:qt-mt323.dll
 0001:000174ea       ?widget@QLayoutItem@@UAEPAVQWidget@@XZ 004184ea f   qt-mt323:qt-mt323.dll
 0001:000174f0       ?windowActivationChange@QListBox@@MAEX_N@Z 004184f0 f   qt-mt323:qt-mt323.dll
 0001:000174f6       ?className@QLabel@@UBEPBDXZ 004184f6 f   qt-mt323:qt-mt323.dll
 0001:000174fc       ?className@QPopupMenu@@UBEPBDXZ 004184fc f   qt-mt323:qt-mt323.dll
 0001:00017502       ?className@QTimer@@UBEPBDXZ 00418502 f   qt-mt323:qt-mt323.dll
 0001:00017508       ?drawContents@QLabel@@MAEXPAVQPainter@@@Z 00418508 f   qt-mt323:qt-mt323.dll
 0001:0001750e       ?drawContents@QPopupMenu@@MAEXPAVQPainter@@@Z 0041850e f   qt-mt323:qt-mt323.dll
 0001:00017514       ?event@QTimer@@MAE_NPAVQEvent@@@Z 00418514 f   qt-mt323:qt-mt323.dll
 0001:0001751a       ?fontChange@QLabel@@MAEXABVQFont@@@Z 0041851a f   qt-mt323:qt-mt323.dll
 0001:00017520       ?frameChanged@QFrame@@MAEXXZ 00418520 f   qt-mt323:qt-mt323.dll
 0001:00017526       ?heightForWidth@QLabel@@UBEHH@Z 00418526 f   qt-mt323:qt-mt323.dll
 0001:0001752c       ?metaObject@QLabel@@UBEPAVQMetaObject@@XZ 0041852c f   qt-mt323:qt-mt323.dll
 0001:00017532       ?metaObject@QPopupMenu@@UBEPAVQMetaObject@@XZ 00418532 f   qt-mt323:qt-mt323.dll
 0001:00017538       ?metaObject@QTimer@@UBEPAVQMetaObject@@XZ 00418538 f   qt-mt323:qt-mt323.dll
 0001:0001753e       ?minimumSizeHint@QLabel@@UBE?AVQSize@@XZ 0041853e f   qt-mt323:qt-mt323.dll
 0001:00017544       ?paintEvent@QPopupMenu@@MAEXPAVQPaintEvent@@@Z 00418544 f   qt-mt323:qt-mt323.dll
 0001:0001754a       ?qt_cast@QLabel@@UAEPAXPBD@Z 0041854a f   qt-mt323:qt-mt323.dll
 0001:00017550       ?qt_cast@QTimer@@UAEPAXPBD@Z 00418550 f   qt-mt323:qt-mt323.dll
 0001:00017556       ?qt_emit@QLabel@@UAE_NHPAUQUObject@@@Z 00418556 f   qt-mt323:qt-mt323.dll
 0001:0001755c       ?qt_emit@QTimer@@UAE_NHPAUQUObject@@@Z 0041855c f   qt-mt323:qt-mt323.dll
 0001:00017562       ?qt_invoke@QLabel@@UAE_NHPAUQUObject@@@Z 00418562 f   qt-mt323:qt-mt323.dll
 0001:00017568       ?qt_invoke@QTimer@@UAE_NHPAUQUObject@@@Z 00418568 f   qt-mt323:qt-mt323.dll
 0001:0001756e       ?qt_property@QLabel@@UAE_NHHPAVQVariant@@@Z 0041856e f   qt-mt323:qt-mt323.dll
 0001:00017574       ?qt_property@QTimer@@UAE_NHHPAVQVariant@@@Z 00418574 f   qt-mt323:qt-mt323.dll
 0001:0001757a       ?resizeEvent@QLabel@@MAEXPAVQResizeEvent@@@Z 0041857a f   qt-mt323:qt-mt323.dll
 0001:00017580       ?setAlignment@QLabel@@UAEXH@Z 00418580 f   qt-mt323:qt-mt323.dll
 0001:00017586       ?setAutoResize@QLabel@@UAEX_N@Z 00418586 f   qt-mt323:qt-mt323.dll
 0001:0001758c       ?setBuddy@QLabel@@UAEXPAVQWidget@@@Z 0041858c f   qt-mt323:qt-mt323.dll
 0001:00017592       ?setFont@QLabel@@UAEXABVQFont@@@Z 00418592 f   qt-mt323:qt-mt323.dll
 0001:00017598       ?setMovie@QLabel@@UAEXABVQMovie@@@Z 00418598 f   qt-mt323:qt-mt323.dll
 0001:0001759e       ?setNum@QLabel@@UAEXH@Z    0041859e f   qt-mt323:qt-mt323.dll
 0001:000175a4       ?setNum@QLabel@@UAEXN@Z    004185a4 f   qt-mt323:qt-mt323.dll
 0001:000175aa       ?setPicture@QLabel@@UAEXABVQPicture@@@Z 004185aa f   qt-mt323:qt-mt323.dll
 0001:000175b0       ?setPixmap@QLabel@@UAEXABVQPixmap@@@Z 004185b0 f   qt-mt323:qt-mt323.dll
 0001:000175b6       ?setText@QLabel@@UAEXABVQString@@@Z 004185b6 f   qt-mt323:qt-mt323.dll
 0001:000175bc       ?sizeHint@QLabel@@UBE?AVQSize@@XZ 004185bc f   qt-mt323:qt-mt323.dll
 0001:000175c2       ?qt_cast@QDialog@@UAEPAXPBD@Z 004185c2 f   qt-mt323:qt-mt323.dll
 0001:000175c8       ?qt_invoke@QDialog@@UAE_NHPAUQUObject@@@Z 004185c8 f   qt-mt323:qt-mt323.dll
 0001:000175ce       ?qt_emit@QDialog@@UAE_NHPAUQUObject@@@Z 004185ce f   qt-mt323:qt-mt323.dll
 0001:000175d4       ?qt_property@QDialog@@UAE_NHHPAVQVariant@@@Z 004185d4 f   qt-mt323:qt-mt323.dll
 0001:000175da       ?childEvent@QGroupBox@@MAEXPAVQChildEvent@@@Z 004185da f   qt-mt323:qt-mt323.dll
 0001:000175e0       ?className@QButtonGroup@@UBEPBDXZ 004185e0 f   qt-mt323:qt-mt323.dll
 0001:000175e6       ?className@QPushButton@@UBEPBDXZ 004185e6 f   qt-mt323:qt-mt323.dll
 0001:000175ec       ?drawButton@QPushButton@@MAEXPAVQPainter@@@Z 004185ec f   qt-mt323:qt-mt323.dll
 0001:000175f2       ?drawButtonLabel@QPushButton@@MAEXPAVQPainter@@@Z 004185f2 f   qt-mt323:qt-mt323.dll
 0001:000175f8       ?enabledChange@QButton@@MAEX_N@Z 004185f8 f   qt-mt323:qt-mt323.dll
 0001:000175fe       ?event@QButtonGroup@@MAE_NPAVQEvent@@@Z 004185fe f   qt-mt323:qt-mt323.dll
 0001:00017604       ?focusInEvent@QGroupBox@@MAEXPAVQFocusEvent@@@Z 00418604 f   qt-mt323:qt-mt323.dll
 0001:0001760a       ?focusInEvent@QPushButton@@MAEXPAVQFocusEvent@@@Z 0041860a f   qt-mt323:qt-mt323.dll
 0001:00017610       ?focusOutEvent@QPushButton@@MAEXPAVQFocusEvent@@@Z 00418610 f   qt-mt323:qt-mt323.dll
 0001:00017616       ?fontChange@QGroupBox@@MAEXABVQFont@@@Z 00418616 f   qt-mt323:qt-mt323.dll
 0001:0001761c       ?hitButton@QButton@@MBE_NABVQPoint@@@Z 0041861c f   qt-mt323:qt-mt323.dll
 0001:00017622       ?keyPressEvent@QButton@@MAEXPAVQKeyEvent@@@Z 00418622 f   qt-mt323:qt-mt323.dll
 0001:00017628       ?keyReleaseEvent@QButton@@MAEXPAVQKeyEvent@@@Z 00418628 f   qt-mt323:qt-mt323.dll
 0001:0001762e       ?metaObject@QButtonGroup@@UBEPAVQMetaObject@@XZ 0041862e f   qt-mt323:qt-mt323.dll
 0001:00017634       ?metaObject@QPushButton@@UBEPAVQMetaObject@@XZ 00418634 f   qt-mt323:qt-mt323.dll
 0001:0001763a       ?mouseMoveEvent@QButton@@MAEXPAVQMouseEvent@@@Z 0041863a f   qt-mt323:qt-mt323.dll
 0001:00017640       ?mousePressEvent@QButton@@MAEXPAVQMouseEvent@@@Z 00418640 f   qt-mt323:qt-mt323.dll
 0001:00017646       ?mouseReleaseEvent@QButton@@MAEXPAVQMouseEvent@@@Z 00418646 f   qt-mt323:qt-mt323.dll
 0001:0001764c       ?move@QPushButton@@UAEXHH@Z 0041864c f   qt-mt323:qt-mt323.dll
 0001:00017652       ?moveFocus@QButtonGroup@@UAEXH@Z 00418652 f   qt-mt323:qt-mt323.dll
 0001:00017658       ?paintEvent@QButton@@MAEXPAVQPaintEvent@@@Z 00418658 f   qt-mt323:qt-mt323.dll
 0001:0001765e       ?paintEvent@QGroupBox@@MAEXPAVQPaintEvent@@@Z 0041865e f   qt-mt323:qt-mt323.dll
 0001:00017664       ?qt_cast@QButtonGroup@@UAEPAXPBD@Z 00418664 f   qt-mt323:qt-mt323.dll
 0001:0001766a       ?qt_cast@QPushButton@@UAEPAXPBD@Z 0041866a f   qt-mt323:qt-mt323.dll
 0001:00017670       ?qt_emit@QButtonGroup@@UAE_NHPAUQUObject@@@Z 00418670 f   qt-mt323:qt-mt323.dll
 0001:00017676       ?qt_emit@QPushButton@@UAE_NHPAUQUObject@@@Z 00418676 f   qt-mt323:qt-mt323.dll
 0001:0001767c       ?qt_invoke@QButtonGroup@@UAE_NHPAUQUObject@@@Z 0041867c f   qt-mt323:qt-mt323.dll
 0001:00017682       ?qt_invoke@QPushButton@@UAE_NHPAUQUObject@@@Z 00418682 f   qt-mt323:qt-mt323.dll
 0001:00017688       ?qt_property@QButtonGroup@@UAE_NHHPAVQVariant@@@Z 00418688 f   qt-mt323:qt-mt323.dll
 0001:0001768e       ?qt_property@QPushButton@@UAE_NHHPAVQVariant@@@Z 0041868e f   qt-mt323:qt-mt323.dll
 0001:00017694       ?resize@QPushButton@@UAEXHH@Z 00418694 f   qt-mt323:qt-mt323.dll
 0001:0001769a       ?resizeEvent@QGroupBox@@MAEXPAVQResizeEvent@@@Z 0041869a f   qt-mt323:qt-mt323.dll
 0001:000176a0       ?resizeEvent@QPushButton@@MAEXPAVQResizeEvent@@@Z 004186a0 f   qt-mt323:qt-mt323.dll
 0001:000176a6       ?setAccel@QButton@@UAEXABVQKeySequence@@@Z 004186a6 f   qt-mt323:qt-mt323.dll
 0001:000176ac       ?setAlignment@QGroupBox@@UAEXH@Z 004186ac f   qt-mt323:qt-mt323.dll
 0001:000176b2       ?setAutoDefault@QPushButton@@UAEX_N@Z 004186b2 f   qt-mt323:qt-mt323.dll
 0001:000176b8       ?setAutoRepeat@QButton@@UAEX_N@Z 004186b8 f   qt-mt323:qt-mt323.dll
 0001:000176be       ?setButton@QButtonGroup@@UAEXH@Z 004186be f   qt-mt323:qt-mt323.dll
 0001:000176c4       ?setColumnLayout@QGroupBox@@UAEXHW4Orientation@Qt@@@Z 004186c4 f   qt-mt323:qt-mt323.dll
 0001:000176ca       ?setDefault@QPushButton@@UAEX_N@Z 004186ca f   qt-mt323:qt-mt323.dll
 0001:000176d0       ?setDown@QButton@@UAEX_N@Z 004186d0 f   qt-mt323:qt-mt323.dll
 0001:000176d6       ?setEnabled@QGroupBox@@UAEX_N@Z 004186d6 f   qt-mt323:qt-mt323.dll
 0001:000176dc       ?setExclusive@QButtonGroup@@UAEX_N@Z 004186dc f   qt-mt323:qt-mt323.dll
 0001:000176e2       ?setGeometry@QPushButton@@UAEXABVQRect@@@Z 004186e2 f   qt-mt323:qt-mt323.dll
 0001:000176e8       ?setGeometry@QPushButton@@UAEXHHHH@Z 004186e8 f   qt-mt323:qt-mt323.dll
 0001:000176ee       ?setGroup@QButton@@EAEXPAVQButtonGroup@@@Z 004186ee f   qt-mt323:qt-mt323.dll
 0001:000176f4       ?setIsMenuButton@QPushButton@@UAEX_N@Z 004186f4 f   qt-mt323:qt-mt323.dll
 0001:000176fa       ?setOn@QPushButton@@UAEX_N@Z 004186fa f   qt-mt323:qt-mt323.dll
 0001:00017700       ?setPixmap@QButton@@UAEXABVQPixmap@@@Z 00418700 f   qt-mt323:qt-mt323.dll
 0001:00017706       ?setRadioButtonExclusive@QButtonGroup@@UAEX_N@Z 00418706 f   qt-mt323:qt-mt323.dll
 0001:0001770c       ?setState@QButton@@MAEXW4ToggleState@1@@Z 0041870c f   qt-mt323:qt-mt323.dll
 0001:00017712       ?setText@QButton@@UAEXABVQString@@@Z 00418712 f   qt-mt323:qt-mt323.dll
 0001:00017718       ?setTitle@QGroupBox@@UAEXABVQString@@@Z 00418718 f   qt-mt323:qt-mt323.dll
 0001:0001771e       ?setToggleType@QButton@@MAEXW4ToggleType@1@@Z 0041871e f   qt-mt323:qt-mt323.dll
 0001:00017724       ?sizeHint@QGroupBox@@UBE?AVQSize@@XZ 00418724 f   qt-mt323:qt-mt323.dll
 0001:0001772a       ?sizeHint@QPushButton@@UBE?AVQSize@@XZ 0041872a f   qt-mt323:qt-mt323.dll
 0001:00017730       ?updateMask@QPushButton@@MAEXXZ 00418730 f   qt-mt323:qt-mt323.dll
 0001:00017736       ??0dCW@@QAE@XZ             00418736 f   dcw:dcw.dll
 0001:0001773c       ?create@dCW@@QAEPAVQWidget@@ABVQString@@PAVQObject@@PAV2@PBD_N4NN44@Z 0041873c f   dcw:dcw.dll
 0001:00017742       ??1dCW@@UAE@XZ             00418742 f   dcw:dcw.dll
 0001:00017748       ?clearCache@dCW@@SAXXZ     00418748 f   dcw:dcw.dll
 0001:0001774e       ?setUserLimitsCallback@dCW@@SAXPAVIdCWlimits@@I@Z 0041874e f   dcw:dcw.dll
 0001:00017754       ??0resourceCounts@@QAE@XZ  00418754 f   dcw:dcw.dll
 0001:0001775a       ??1resourceCounts@@UAE@XZ  0041875a f   dcw:dcw.dll
 0001:00017760       ?userObjects@resourceCounts@@QAEKXZ 00418760 f   dcw:dcw.dll
 0001:00017766       ?userObjectsPeak@resourceCounts@@QAEKXZ 00418766 f   dcw:dcw.dll
 0001:0001776c       ?gdiObjects@resourceCounts@@QAEKXZ 0041876c f   dcw:dcw.dll
 0001:00017772       ?gdiObjectsPeak@resourceCounts@@QAEKXZ 00418772 f   dcw:dcw.dll
 0001:00017778       ?infoWrite@ccClient@@QAEXHHABV?$basic_string@DU?$char_traits@D@std@@V?$allocator@D@2@@std@@_NH@Z 00418778 f   bncs_shim_loader:bncs_shim_loader.dll
 0001:0001777e       ?cacheEnable@ccClient@@QAEX_N@Z 0041877e f   bncs_shim_loader:bncs_shim_loader.dll
 0001:00017784       ?isCacheEnabled@ccClient@@QAE_NXZ 00418784 f   bncs_shim_loader:bncs_shim_loader.dll
 0001:00017790       ??0bncs_disklog@@QAE@PBDW4filetype@0@000000@Z 00418790 f   bncs_disklog:bncs_disklog.obj
 0001:000177d0       ??1bncs_disklog@@UAE@XZ    004187d0 f   bncs_disklog:bncs_disklog.obj
 0001:000177e0       ??_Ebncs_disklog@@UAEPAXI@Z 004187e0 f i bncs_disklog:bncs_disklog.obj
 0001:000177e0       ??_Gbncs_disklog@@UAEPAXI@Z 004187e0 f i bncs_disklog:bncs_disklog.obj
 0001:00017810       ?cleanup@bncs_disklog@@AAEXXZ 00418810 f   bncs_disklog:bncs_disklog.obj
 0001:00017830       ?createDirectory@bncs_disklog@@AAEXPBD@Z 00418830 f   bncs_disklog:bncs_disklog.obj
 0001:00017930       ?initVars@bncs_disklog@@AAEXXZ 00418930 f   bncs_disklog:bncs_disklog.obj
 0001:00017950       ?openLogFile@bncs_disklog@@AAEXPBDW4filetype@1@@Z 00418950 f   bncs_disklog:bncs_disklog.obj
 0001:00017b80       ?write@bncs_disklog@@QAEXPBD00000@Z 00418b80 f   bncs_disklog:bncs_disklog.obj
 0001:00017db0       ??0cBncsVersion@@QAE@PBD@Z 00418db0 f   bncsversioninfo:cBncsVersion.obj
 0001:000183d0       ??1cBncsVersion@@UAE@XZ    004193d0 f   bncsversioninfo:cBncsVersion.obj
 0001:000184b0       ??_EcBncsVersion@@UAEPAXI@Z 004194b0 f i bncsversioninfo:cBncsVersion.obj
 0001:000184b0       ??_GcBncsVersion@@UAEPAXI@Z 004194b0 f i bncsversioninfo:cBncsVersion.obj
 0001:000184d1       ??_M@YGXPAXIHP6EX0@Z@Z     004194d1 f   MSVCRT:ehvecdtr.obj
 0001:00018540       ?__ArrayUnwind@@YGXPAXIHP6EX0@Z@Z 00419540 f   MSVCRT:ehvecdtr.obj
 0001:0001859e       __purecall                 0041959e f   MSVCRT:MSVCR120.dll
 0001:000185a4       ??2@YAPAXI@Z               004195a4 f   MSVCRT:MSVCR120.dll
 0001:000185aa       ??3@YAXPAX@Z               004195aa f   MSVCRT:MSVCR120.dll
 0001:000185b0       ___atonexitinit            004195b0 f   MSVCRT:atonexit.obj
 0001:000185ec       __onexit                   004195ec f   MSVCRT:atonexit.obj
 0001:00018695       _atexit                    00419695 f   MSVCRT:atonexit.obj
 0001:000186aa       _memcpy                    004196aa f   MSVCRT:MSVCR120.dll
 0001:000186b0       _strcpy                    004196b0 f   MSVCRT:MSVCR120.dll
 0001:000186b6       _strlen                    004196b6 f   MSVCRT:MSVCR120.dll
 0001:000186bc       _getenv                    004196bc f   MSVCRT:MSVCR120.dll
 0001:000186c2       ??_V@YAXPAX@Z              004196c2 f   MSVCRT:MSVCR120.dll
 0001:000186c8       @__security_check_cookie@4 004196c8 f   MSVCRT:secchk.obj
 0001:000186d8       __CxxThrowException@8      004196d8 f   MSVCRT:MSVCR120.dll
 0001:000186de       __EH_epilog3               004196de f   MSVCRT:ehprolg3.obj
 0001:000186f2       __EH_epilog3_GS            004196f2 f   MSVCRT:ehprolg3.obj
 0001:00018701       __EH_epilog3_catch_GS      00419701 f   MSVCRT:ehprolg3.obj
 0001:00018710       __EH_prolog3               00419710 f   MSVCRT:ehprolg3.obj
 0001:00018743       __EH_prolog3_GS            00419743 f   MSVCRT:ehprolg3.obj
 0001:00018779       __EH_prolog3_catch         00419779 f   MSVCRT:ehprolg3.obj
 0001:000187af       __EH_prolog3_catch_GS      004197af f   MSVCRT:ehprolg3.obj
 0001:000187e8       ___CxxFrameHandler3        004197e8 f   MSVCRT:MSVCR120.dll
 0001:000187ee       _memset                    004197ee f   MSVCRT:MSVCR120.dll
 0001:000187f4       ??_Etype_info@@UAEPAXI@Z   004197f4 f i MSVCRT:ti_inst.obj
 0001:00018840       _sprintf                   00419840 f   MSVCRT:MSVCR120.dll
 0001:00018846       ??_L@YGXPAXIHP6EX0@Z1@Z    00419846 f   MSVCRT:ehvecctr.obj
 0001:000188a8       _strcmp                    004198a8 f   MSVCRT:MSVCR120.dll
 0001:000189b2       _WinMainCRTStartup         004199b2 f   MSVCRT:crtexew.obj
 0001:00018b70       _strncpy                   00419b70 f   MSVCRT:MSVCR120.dll
 0001:00018b76       _strtok                    00419b76 f   MSVCRT:MSVCR120.dll
 0001:00018b7c       __localtime64              00419b7c f   MSVCRT:MSVCR120.dll
 0001:00018b82       __time64                   00419b82 f   MSVCRT:MSVCR120.dll
 0001:00018b88       __mkdir                    00419b88 f   MSVCRT:MSVCR120.dll
 0001:00018b8e       _strpbrk                   00419b8e f   MSVCRT:MSVCR120.dll
 0001:00018b94       _free                      00419b94 f   MSVCRT:MSVCR120.dll
 0001:00018b9a       _malloc                    00419b9a f   MSVCRT:MSVCR120.dll
 0001:00018ba0       ?terminate@@YAXXZ          00419ba0 f   MSVCRT:MSVCR120.dll
 0001:00018bb0       __SEH_prolog4              00419bb0 f   MSVCRT:sehprolg4.obj
 0001:00018bf5       __SEH_epilog4              00419bf5 f   MSVCRT:sehprolg4.obj
 0001:00018c09       __except_handler4          00419c09 f   MSVCRT:chandler4gs.obj
 0001:00018c2c       __lock                     00419c2c f   MSVCRT:MSVCR120.dll
 0001:00018c32       __unlock                   00419c32 f   MSVCRT:MSVCR120.dll
 0001:00018c38       ___dllonexit               00419c38 f   MSVCRT:MSVCR120.dll
 0001:00018c3e       ___raise_securityfailure   00419c3e f   MSVCRT:gs_report.obj
 0001:00018c7b       ___report_gsfailure        00419c7b f   MSVCRT:gs_report.obj
 0001:00018d76       ??1type_info@@UAE@XZ       00419d76 f   MSVCRT:MSVCR120.dll
 0001:00018d7c       ?__CxxUnhandledExceptionFilter@@YGJPAU_EXCEPTION_POINTERS@@@Z 00419d7c f   MSVCRT:unhandld.obj
 0001:00018dbd       ___CxxSetUnhandledExceptionFilter 00419dbd f   MSVCRT:unhandld.obj
 0001:00018dcc       __XcptFilter               00419dcc f   MSVCRT:MSVCR120.dll
 0001:00018dd2       __amsg_exit                00419dd2 f   MSVCRT:MSVCR120.dll
 0001:00018de0       __FindPESection            00419de0 f   MSVCRT:pesect.obj
 0001:00018e30       __IsNonwritableInCurrentImage 00419e30 f   MSVCRT:pesect.obj
 0001:00018ef0       __ValidateImageBase        00419ef0 f   MSVCRT:pesect.obj
 0001:00018f21       ___security_init_cookie    00419f21 f   MSVCRT:gs_support.obj
 0001:00018fbd       __matherr                  00419fbd f   MSVCRT:merr.obj
 0001:00018fbd       __setargv                  00419fbd f   MSVCRT:dllargv.obj
 0001:00018fc0       __RTC_Initialize           00419fc0 f   MSVCRT:initsect.obj
 0001:00018fe0       __RTC_Terminate            00419fe0 f   MSVCRT:initsect.obj
 0001:00019000       __setdefaultprecision      0041a000 f   MSVCRT:fp8.obj
 0001:00019028       __initterm_e               0041a028 f   MSVCRT:MSVCR120.dll
 0001:0001902e       __initterm                 0041a02e f   MSVCRT:MSVCR120.dll
 0001:00019034       __except_handler4_common   0041a034 f   MSVCRT:MSVCR120.dll
 0001:0001903a       __crt_debugger_hook        0041a03a f   MSVCRT:MSVCR120.dll
 0001:00019040       ___crtUnhandledException   0041a040 f   MSVCRT:MSVCR120.dll
 0001:00019046       ___crtTerminateProcess     0041a046 f   MSVCRT:MSVCR120.dll
 0001:0001904c       ___crtSetUnhandledExceptionFilter 0041a04c f   MSVCRT:MSVCR120.dll
 0001:00019052       __invoke_watson            0041a052 f   MSVCRT:MSVCR120.dll
 0001:00019058       __controlfp_s              0041a058 f   MSVCRT:MSVCR120.dll
 0001:0001905e       _GetFileVersionInfoSizeA@8 0041a05e f   version:VERSION.dll
 0001:00019064       _GetFileVersionInfoA@16    0041a064 f   version:VERSION.dll
 0001:0001906a       _VerQueryValueA@16         0041a06a f   version:VERSION.dll
 0001:00019070       ?afterSeek@QSqlCursor@@MAEXXZ 0041a070 f   qt-mt323:qt-mt323.dll
 0001:00019076       ?beforeSeek@QSqlQuery@@MAEXXZ 0041a076 f   qt-mt323:qt-mt323.dll
 0001:0001907c       ?last@QSqlQuery@@UAE_NXZ   0041a07c f   qt-mt323:qt-mt323.dll
 0001:00019082       ?first@QSqlQuery@@UAE_NXZ  0041a082 f   qt-mt323:qt-mt323.dll
 0001:00019088       ?prev@QSqlQuery@@UAE_NXZ   0041a088 f   qt-mt323:qt-mt323.dll
 0001:0001908e       ?next@QSqlQuery@@UAE_NXZ   0041a08e f   qt-mt323:qt-mt323.dll
 0001:00019094       ?seek@QSqlQuery@@UAE_NH_N@Z 0041a094 f   qt-mt323:qt-mt323.dll
 0001:0001909a       ?exec@QSqlCursor@@MAE_NABVQString@@@Z 0041a09a f   qt-mt323:qt-mt323.dll
 0001:000190a0       ?calculateField@QSqlCursor@@MAE?AVQVariant@@ABVQString@@@Z 0041a0a0 f   qt-mt323:qt-mt323.dll
 0001:000190a6       ?toString@QSqlCursor@@MBE?AVQString@@ABV2@PAVQSqlField@@0@Z 0041a0a6 f   qt-mt323:qt-mt323.dll
 0001:000190ac       ?toString@QSqlCursor@@MBE?AVQString@@PAVQSqlRecord@@ABV2@11@Z 0041a0ac f   qt-mt323:qt-mt323.dll
 0001:000190b2       ?toString@QSqlCursor@@MBE?AVQString@@ABVQSqlIndex@@PAVQSqlRecord@@ABV2@22@Z 0041a0b2 f   qt-mt323:qt-mt323.dll
 0001:000190b8       ?setName@QSqlCursor@@UAEXABVQString@@_N@Z 0041a0b8 f   qt-mt323:qt-mt323.dll
 0001:000190be       ?setFilter@QSqlCursor@@UAEXABVQString@@@Z 0041a0be f   qt-mt323:qt-mt323.dll
 0001:000190c4       ?setSort@QSqlCursor@@UAEXABVQSqlIndex@@@Z 0041a0c4 f   qt-mt323:qt-mt323.dll
 0001:000190ca       ?select@QSqlCursor@@UAE_NABVQString@@ABVQSqlIndex@@@Z 0041a0ca f   qt-mt323:qt-mt323.dll
 0001:000190d0       ?setTrimmed@QSqlCursor@@UAEXABVQString@@_N@Z 0041a0d0 f   qt-mt323:qt-mt323.dll
 0001:000190d6       ?setCalculated@QSqlCursor@@UAEXABVQString@@_N@Z 0041a0d6 f   qt-mt323:qt-mt323.dll
 0001:000190dc       ?setMode@QSqlCursor@@UAEXH@Z 0041a0dc f   qt-mt323:qt-mt323.dll
 0001:000190e2       ?del@QSqlCursor@@UAEH_N@Z  0041a0e2 f   qt-mt323:qt-mt323.dll
 0001:000190e8       ?del@QSqlCursor@@MAEHABVQString@@_N@Z 0041a0e8 f   qt-mt323:qt-mt323.dll
 0001:000190ee       ?update@QSqlCursor@@UAEH_N@Z 0041a0ee f   qt-mt323:qt-mt323.dll
 0001:000190f4       ?update@QSqlCursor@@MAEHABVQString@@_N@Z 0041a0f4 f   qt-mt323:qt-mt323.dll
 0001:000190fa       ?primeDelete@QSqlCursor@@UAEPAVQSqlRecord@@XZ 0041a0fa f   qt-mt323:qt-mt323.dll
 0001:00019100       ?primeUpdate@QSqlCursor@@UAEPAVQSqlRecord@@XZ 0041a100 f   qt-mt323:qt-mt323.dll
 0001:00019106       ?primeInsert@QSqlCursor@@UAEPAVQSqlRecord@@XZ 0041a106 f   qt-mt323:qt-mt323.dll
 0001:0001910c       ?editBuffer@QSqlCursor@@UAEPAVQSqlRecord@@_N@Z 0041a10c f   qt-mt323:qt-mt323.dll
 0001:00019112       ?insert@QSqlCursor@@UAEXHABVQSqlFieldInfo@@@Z 0041a112 f   qt-mt323:qt-mt323.dll
 0001:00019118       ?insert@QSqlCursor@@UAEH_N@Z 0041a118 f   qt-mt323:qt-mt323.dll
 0001:0001911e       ?append@QSqlCursor@@UAEXABVQSqlFieldInfo@@@Z 0041a11e f   qt-mt323:qt-mt323.dll
 0001:00019124       ?setPrimaryIndex@QSqlCursor@@UAEXABVQSqlIndex@@@Z 0041a124 f   qt-mt323:qt-mt323.dll
 0001:0001912a       ?index@QSqlCursor@@UBE?AVQSqlIndex@@ABVQStringList@@@Z 0041a12a f   qt-mt323:qt-mt323.dll
 0001:00019130       ?primaryIndex@QSqlCursor@@UBE?AVQSqlIndex@@_N@Z 0041a130 f   qt-mt323:qt-mt323.dll
 0001:00019136       ?toStringList@QSqlRecord@@UBE?AVQStringList@@ABVQString@@@Z 0041a136 f   qt-mt323:qt-mt323.dll
 0001:0001913c       ?toString@QSqlCursor@@UBE?AVQString@@ABV2@0@Z 0041a13c f   qt-mt323:qt-mt323.dll
 0001:00019142       ?clearValues@QSqlRecord@@UAEX_N@Z 0041a142 f   qt-mt323:qt-mt323.dll
 0001:00019148       ?clear@QSqlCursor@@UAEXXZ  0041a148 f   qt-mt323:qt-mt323.dll
 0001:0001914e       ?remove@QSqlCursor@@UAEXH@Z 0041a14e f   qt-mt323:qt-mt323.dll
 0001:00019154       ?insert@QSqlCursor@@EAEXHABVQSqlField@@@Z 0041a154 f   qt-mt323:qt-mt323.dll
 0001:0001915a       ?append@QSqlCursor@@EAEXABVQSqlField@@@Z 0041a15a f   qt-mt323:qt-mt323.dll
 0001:00019160       ?setNull@QSqlRecord@@UAEXH@Z 0041a160 f   qt-mt323:qt-mt323.dll
 0001:00019166       ?setNull@QSqlRecord@@UAEXABVQString@@@Z 0041a166 f   qt-mt323:qt-mt323.dll
 0001:0001916c       ?setGenerated@QSqlCursor@@UAEXABVQString@@_N@Z 0041a16c f   qt-mt323:qt-mt323.dll
 0001:00019172       ?setGenerated@QSqlCursor@@UAEXH_N@Z 0041a172 f   qt-mt323:qt-mt323.dll
 0001:00019178       ?setValue@QSqlCursor@@UAEXHABVQVariant@@@Z 0041a178 f   qt-mt323:qt-mt323.dll
 0001:0001917e       ?setValue@QSqlCursor@@UAEXABVQString@@ABVQVariant@@@Z 0041a17e f   qt-mt323:qt-mt323.dll
 0001:00019184       ?value@QSqlCursor@@UBE?AVQVariant@@H@Z 0041a184 f   qt-mt323:qt-mt323.dll
 0001:0001918a       ?value@QSqlCursor@@UBE?AVQVariant@@ABVQString@@@Z 0041a18a f   qt-mt323:qt-mt323.dll
 0001:00019190       ?drawButtonLabel@QCheckBox@@MAEXPAVQPainter@@@Z 0041a190 f   qt-mt323:qt-mt323.dll
 0001:00019196       ?drawButton@QCheckBox@@MAEXPAVQPainter@@@Z 0041a196 f   qt-mt323:qt-mt323.dll
 0001:0001919c       ?hitButton@QCheckBox@@MBE_NABVQPoint@@@Z 0041a19c f   qt-mt323:qt-mt323.dll
 0001:000191a2       ?updateMask@QCheckBox@@MAEXXZ 0041a1a2 f   qt-mt323:qt-mt323.dll
 0001:000191a8       ?resizeEvent@QCheckBox@@MAEXPAVQResizeEvent@@@Z 0041a1a8 f   qt-mt323:qt-mt323.dll
 0001:000191ae       ?sizeHint@QCheckBox@@UBE?AVQSize@@XZ 0041a1ae f   qt-mt323:qt-mt323.dll
 0001:000191b4       ?qt_property@QCheckBox@@UAE_NHHPAVQVariant@@@Z 0041a1b4 f   qt-mt323:qt-mt323.dll
 0001:000191ba       ?qt_emit@QCheckBox@@UAE_NHPAUQUObject@@@Z 0041a1ba f   qt-mt323:qt-mt323.dll
 0001:000191c0       ?qt_invoke@QCheckBox@@UAE_NHPAUQUObject@@@Z 0041a1c0 f   qt-mt323:qt-mt323.dll
 0001:000191c6       ?qt_cast@QCheckBox@@UAEPAXPBD@Z 0041a1c6 f   qt-mt323:qt-mt323.dll
 0001:000191cc       ?className@QCheckBox@@UBEPBDXZ 0041a1cc f   qt-mt323:qt-mt323.dll
 0001:000191d2       ?metaObject@QCheckBox@@UBEPAVQMetaObject@@XZ 0041a1d2 f   qt-mt323:qt-mt323.dll
 0001:000191d8       ?setEditText@QComboBox@@UAEXABVQString@@@Z 0041a1d8 f   qt-mt323:qt-mt323.dll
 0001:000191de       ?popup@QComboBox@@UAEXXZ   0041a1de f   qt-mt323:qt-mt323.dll
 0001:000191e4       ?setAutoCompletion@QComboBox@@UAEX_N@Z 0041a1e4 f   qt-mt323:qt-mt323.dll
 0001:000191ea       ?setLineEdit@QComboBox@@UAEXPAVQLineEdit@@@Z 0041a1ea f   qt-mt323:qt-mt323.dll
 0001:000191f0       ?setListBox@QComboBox@@UAEXPAVQListBox@@@Z 0041a1f0 f   qt-mt323:qt-mt323.dll
 0001:000191f6       ?setValidator@QComboBox@@UAEXPBVQValidator@@@Z 0041a1f6 f   qt-mt323:qt-mt323.dll
 0001:000191fc       ?setInsertionPolicy@QComboBox@@UAEXW4Policy@1@@Z 0041a1fc f   qt-mt323:qt-mt323.dll
 0001:00019202       ?setMaxCount@QComboBox@@UAEXH@Z 0041a202 f   qt-mt323:qt-mt323.dll
 0001:00019208       ?setSizeLimit@QComboBox@@UAEXH@Z 0041a208 f   qt-mt323:qt-mt323.dll
 0001:0001920e       ?setAutoResize@QComboBox@@UAEX_N@Z 0041a20e f   qt-mt323:qt-mt323.dll
 0001:00019214       ?setCurrentText@QComboBox@@UAEXABVQString@@@Z 0041a214 f   qt-mt323:qt-mt323.dll
 0001:0001921a       ?setCurrentItem@QComboBox@@UAEXH@Z 0041a21a f   qt-mt323:qt-mt323.dll
 0001:00019220       ?styleChange@QComboBox@@MAEXAAVQStyle@@@Z 0041a220 f   qt-mt323:qt-mt323.dll
 0001:00019226       ?updateMask@QComboBox@@MAEXXZ 0041a226 f   qt-mt323:qt-mt323.dll
 0001:0001922c       ?resizeEvent@QComboBox@@MAEXPAVQResizeEvent@@@Z 0041a22c f   qt-mt323:qt-mt323.dll
 0001:00019232       ?paintEvent@QComboBox@@MAEXPAVQPaintEvent@@@Z 0041a232 f   qt-mt323:qt-mt323.dll
 0001:00019238       ?focusOutEvent@QComboBox@@MAEXPAVQFocusEvent@@@Z 0041a238 f   qt-mt323:qt-mt323.dll
 0001:0001923e       ?focusInEvent@QComboBox@@MAEXPAVQFocusEvent@@@Z 0041a23e f   qt-mt323:qt-mt323.dll
 0001:00019244       ?keyPressEvent@QComboBox@@MAEXPAVQKeyEvent@@@Z 0041a244 f   qt-mt323:qt-mt323.dll
 0001:0001924a       ?wheelEvent@QComboBox@@MAEXPAVQWheelEvent@@@Z 0041a24a f   qt-mt323:qt-mt323.dll
 0001:00019250       ?mouseMoveEvent@QComboBox@@MAEXPAVQMouseEvent@@@Z 0041a250 f   qt-mt323:qt-mt323.dll
 0001:00019256       ?mouseDoubleClickEvent@QComboBox@@MAEXPAVQMouseEvent@@@Z 0041a256 f   qt-mt323:qt-mt323.dll
 0001:0001925c       ?mouseReleaseEvent@QComboBox@@MAEXPAVQMouseEvent@@@Z 0041a25c f   qt-mt323:qt-mt323.dll
 0001:00019262       ?mousePressEvent@QComboBox@@MAEXPAVQMouseEvent@@@Z 0041a262 f   qt-mt323:qt-mt323.dll
 0001:00019268       ?sizeHint@QComboBox@@UBE?AVQSize@@XZ 0041a268 f   qt-mt323:qt-mt323.dll
 0001:0001926e       ?setFont@QComboBox@@UAEXABVQFont@@@Z 0041a26e f   qt-mt323:qt-mt323.dll
 0001:00019274       ?setPalette@QComboBox@@UAEXABVQPalette@@@Z 0041a274 f   qt-mt323:qt-mt323.dll
 0001:0001927a       ?setEnabled@QComboBox@@UAEX_N@Z 0041a27a f   qt-mt323:qt-mt323.dll
 0001:00019280       ?eventFilter@QComboBox@@UAE_NPAVQObject@@PAVQEvent@@@Z 0041a280 f   qt-mt323:qt-mt323.dll
 0001:00019286       ?qt_property@QComboBox@@UAE_NHHPAVQVariant@@@Z 0041a286 f   qt-mt323:qt-mt323.dll
 0001:0001928c       ?qt_emit@QComboBox@@UAE_NHPAUQUObject@@@Z 0041a28c f   qt-mt323:qt-mt323.dll
 0001:00019292       ?qt_invoke@QComboBox@@UAE_NHPAUQUObject@@@Z 0041a292 f   qt-mt323:qt-mt323.dll
 0001:00019298       ?qt_cast@QComboBox@@UAEPAXPBD@Z 0041a298 f   qt-mt323:qt-mt323.dll
 0001:0001929e       ?className@QComboBox@@UBEPBDXZ 0041a29e f   qt-mt323:qt-mt323.dll
 0001:000192a4       ?metaObject@QComboBox@@UBEPAVQMetaObject@@XZ 0041a2a4 f   qt-mt323:qt-mt323.dll
 0001:000192aa       ?end@QMultiLineEdit@@MAEX_N@Z 0041a2aa f   qt-mt323:qt-mt323.dll
 0001:000192b0       ?home@QMultiLineEdit@@MAEX_N@Z 0041a2b0 f   qt-mt323:qt-mt323.dll
 0001:000192b6       ?backspace@QMultiLineEdit@@MAEXXZ 0041a2b6 f   qt-mt323:qt-mt323.dll
 0001:000192bc       ?cursorDown@QMultiLineEdit@@MAEX_N@Z 0041a2bc f   qt-mt323:qt-mt323.dll
 0001:000192c2       ?cursorUp@QMultiLineEdit@@MAEX_N@Z 0041a2c2 f   qt-mt323:qt-mt323.dll
 0001:000192c8       ?cursorRight@QMultiLineEdit@@MAEX_N0@Z 0041a2c8 f   qt-mt323:qt-mt323.dll
 0001:000192ce       ?cursorLeft@QMultiLineEdit@@MAEX_N0@Z 0041a2ce f   qt-mt323:qt-mt323.dll
 0001:000192d4       ?pageDown@QMultiLineEdit@@MAEX_N@Z 0041a2d4 f   qt-mt323:qt-mt323.dll
 0001:000192da       ?pageUp@QMultiLineEdit@@MAEX_N@Z 0041a2da f   qt-mt323:qt-mt323.dll
 0001:000192e0       ?killLine@QMultiLineEdit@@MAEXXZ 0041a2e0 f   qt-mt323:qt-mt323.dll
 0001:000192e6       ?newLine@QMultiLineEdit@@MAEXXZ 0041a2e6 f   qt-mt323:qt-mt323.dll
 0001:000192ec       ?insertAndMark@QMultiLineEdit@@MAEXABVQString@@_N@Z 0041a2ec f   qt-mt323:qt-mt323.dll
 0001:000192f2       ?setAutoUpdate@QMultiLineEdit@@UAEX_N@Z 0041a2f2 f   qt-mt323:qt-mt323.dll
 0001:000192f8       ?setCursorPosition@QMultiLineEdit@@UAEXHH_N@Z 0041a2f8 f   qt-mt323:qt-mt323.dll
 0001:000192fe       ?removeLine@QMultiLineEdit@@UAEXH@Z 0041a2fe f   qt-mt323:qt-mt323.dll
 0001:00019304       ?insertAt@QMultiLineEdit@@UAEXABVQString@@HH_N@Z 0041a304 f   qt-mt323:qt-mt323.dll
 0001:0001930a       ?insertLine@QMultiLineEdit@@UAEXABVQString@@H@Z 0041a30a f   qt-mt323:qt-mt323.dll
 0001:00019310       ?insertAt@QMultiLineEdit@@UAEXABVQString@@HH@Z 0041a310 f   qt-mt323:qt-mt323.dll
 0001:00019316       ?setCursorPosition@QMultiLineEdit@@UAEXHH@Z 0041a316 f   qt-mt323:qt-mt323.dll
 0001:0001931c       ?setAlignment@QMultiLineEdit@@UAEXH@Z 0041a31c f   qt-mt323:qt-mt323.dll
 0001:00019322       ?qt_property@QMultiLineEdit@@UAE_NHHPAVQVariant@@@Z 0041a322 f   qt-mt323:qt-mt323.dll
 0001:00019328       ?qt_emit@QMultiLineEdit@@UAE_NHPAUQUObject@@@Z 0041a328 f   qt-mt323:qt-mt323.dll
 0001:0001932e       ?qt_invoke@QMultiLineEdit@@UAE_NHPAUQUObject@@@Z 0041a32e f   qt-mt323:qt-mt323.dll
 0001:00019334       ?qt_cast@QMultiLineEdit@@UAEPAXPBD@Z 0041a334 f   qt-mt323:qt-mt323.dll
 0001:0001933a       ?className@QMultiLineEdit@@UBEPBDXZ 0041a33a f   qt-mt323:qt-mt323.dll
 0001:00019340       ?metaObject@QMultiLineEdit@@UBEPAVQMetaObject@@XZ 0041a340 f   qt-mt323:qt-mt323.dll
 0001:00019346       ?layOutTitleRow@QWizard@@MAEXPAVQHBoxLayout@@ABVQString@@@Z 0041a346 f   qt-mt323:qt-mt323.dll
 0001:0001934c       ?layOutButtonRow@QWizard@@MAEXPAVQHBoxLayout@@@Z 0041a34c f   qt-mt323:qt-mt323.dll
 0001:00019352       ?help@QWizard@@MAEXXZ      0041a352 f   qt-mt323:qt-mt323.dll
 0001:00019358       ?next@QWizard@@MAEXXZ      0041a358 f   qt-mt323:qt-mt323.dll
 0001:0001935e       ?back@QWizard@@MAEXXZ      0041a35e f   qt-mt323:qt-mt323.dll
 0001:00019364       ?setFinish@QWizard@@UAEXPAVQWidget@@_N@Z 0041a364 f   qt-mt323:qt-mt323.dll
 0001:0001936a       ?setHelpEnabled@QWizard@@UAEXPAVQWidget@@_N@Z 0041a36a f   qt-mt323:qt-mt323.dll
 0001:00019370       ?setFinishEnabled@QWizard@@UAEXPAVQWidget@@_N@Z 0041a370 f   qt-mt323:qt-mt323.dll
 0001:00019376       ?setNextEnabled@QWizard@@UAEXPAVQWidget@@_N@Z 0041a376 f   qt-mt323:qt-mt323.dll
 0001:0001937c       ?setBackEnabled@QWizard@@UAEXPAVQWidget@@_N@Z 0041a37c f   qt-mt323:qt-mt323.dll
 0001:00019382       ?setAppropriate@QWizard@@UAEXPAVQWidget@@_N@Z 0041a382 f   qt-mt323:qt-mt323.dll
 0001:00019388       ?appropriate@QWizard@@UBE_NPAVQWidget@@@Z 0041a388 f   qt-mt323:qt-mt323.dll
 0001:0001938e       ?showPage@QWizard@@UAEXPAVQWidget@@@Z 0041a38e f   qt-mt323:qt-mt323.dll
 0001:00019394       ?removePage@QWizard@@UAEXPAVQWidget@@@Z 0041a394 f   qt-mt323:qt-mt323.dll
 0001:0001939a       ?insertPage@QWizard@@UAEXPAVQWidget@@ABVQString@@H@Z 0041a39a f   qt-mt323:qt-mt323.dll
 0001:000193a0       ?addPage@QWizard@@UAEXPAVQWidget@@ABVQString@@@Z 0041a3a0 f   qt-mt323:qt-mt323.dll
 0001:000193a6       ?show@QWizard@@UAEXXZ      0041a3a6 f   qt-mt323:qt-mt323.dll
 0001:000193ac       ?setFont@QWizard@@UAEXABVQFont@@@Z 0041a3ac f   qt-mt323:qt-mt323.dll
 0001:000193b2       ?eventFilter@QWizard@@UAE_NPAVQObject@@PAVQEvent@@@Z 0041a3b2 f   qt-mt323:qt-mt323.dll
 0001:000193b8       ?qt_property@QWizard@@UAE_NHHPAVQVariant@@@Z 0041a3b8 f   qt-mt323:qt-mt323.dll
 0001:000193be       ?qt_emit@QWizard@@UAE_NHPAUQUObject@@@Z 0041a3be f   qt-mt323:qt-mt323.dll
 0001:000193c4       ?qt_invoke@QWizard@@UAE_NHPAUQUObject@@@Z 0041a3c4 f   qt-mt323:qt-mt323.dll
 0001:000193ca       ?qt_cast@QWizard@@UAEPAXPBD@Z 0041a3ca f   qt-mt323:qt-mt323.dll
 0001:000193d0       ?className@QWizard@@UBEPBDXZ 0041a3d0 f   qt-mt323:qt-mt323.dll
 0001:000193d6       ?metaObject@QWizard@@UBEPAVQMetaObject@@XZ 0041a3d6 f   qt-mt323:qt-mt323.dll
 0001:000193dc       ?rangeChange@QSlider@@MAEXXZ 0041a3dc f   qt-mt323:qt-mt323.dll
 0001:000193e2       ?valueChange@QSlider@@MAEXXZ 0041a3e2 f   qt-mt323:qt-mt323.dll
 0001:000193e8       ?setValue@QSlider@@UAEXH@Z 0041a3e8 f   qt-mt323:qt-mt323.dll
 0001:000193ee       ?setTickInterval@QSlider@@UAEXH@Z 0041a3ee f   qt-mt323:qt-mt323.dll
 0001:000193f4       ?setTickmarks@QSlider@@UAEXW4TickSetting@1@@Z 0041a3f4 f   qt-mt323:qt-mt323.dll
 0001:000193fa       ?setTracking@QSlider@@UAEX_N@Z 0041a3fa f   qt-mt323:qt-mt323.dll
 0001:00019400       ?setOrientation@QSlider@@UAEXW4Orientation@Qt@@@Z 0041a400 f   qt-mt323:qt-mt323.dll
 0001:00019406       ?styleChange@QSlider@@MAEXAAVQStyle@@@Z 0041a406 f   qt-mt323:qt-mt323.dll
 0001:0001940c       ?resizeEvent@QSlider@@MAEXPAVQResizeEvent@@@Z 0041a40c f   qt-mt323:qt-mt323.dll
 0001:00019412       ?paintEvent@QSlider@@MAEXPAVQPaintEvent@@@Z 0041a412 f   qt-mt323:qt-mt323.dll
 0001:00019418       ?focusOutEvent@QSlider@@MAEXPAVQFocusEvent@@@Z 0041a418 f   qt-mt323:qt-mt323.dll
 0001:0001941e       ?focusInEvent@QSlider@@MAEXPAVQFocusEvent@@@Z 0041a41e f   qt-mt323:qt-mt323.dll
 0001:00019424       ?keyPressEvent@QSlider@@MAEXPAVQKeyEvent@@@Z 0041a424 f   qt-mt323:qt-mt323.dll
 0001:0001942a       ?wheelEvent@QSlider@@MAEXPAVQWheelEvent@@@Z 0041a42a f   qt-mt323:qt-mt323.dll
 0001:00019430       ?mouseMoveEvent@QSlider@@MAEXPAVQMouseEvent@@@Z 0041a430 f   qt-mt323:qt-mt323.dll
 0001:00019436       ?mouseReleaseEvent@QSlider@@MAEXPAVQMouseEvent@@@Z 0041a436 f   qt-mt323:qt-mt323.dll
 0001:0001943c       ?mousePressEvent@QSlider@@MAEXPAVQMouseEvent@@@Z 0041a43c f   qt-mt323:qt-mt323.dll
 0001:00019442       ?setSizePolicy@QSlider@@UAEXVQSizePolicy@@@Z 0041a442 f   qt-mt323:qt-mt323.dll
 0001:00019448       ?sizePolicy@QSlider@@UBE?AVQSizePolicy@@XZ 0041a448 f   qt-mt323:qt-mt323.dll
 0001:0001944e       ?minimumSizeHint@QSlider@@UBE?AVQSize@@XZ 0041a44e f   qt-mt323:qt-mt323.dll
 0001:00019454       ?sizeHint@QSlider@@UBE?AVQSize@@XZ 0041a454 f   qt-mt323:qt-mt323.dll
 0001:0001945a       ?setPalette@QSlider@@UAEXABVQPalette@@@Z 0041a45a f   qt-mt323:qt-mt323.dll
 0001:00019460       ?qt_property@QSlider@@UAE_NHHPAVQVariant@@@Z 0041a460 f   qt-mt323:qt-mt323.dll
 0001:00019466       ?qt_emit@QSlider@@UAE_NHPAUQUObject@@@Z 0041a466 f   qt-mt323:qt-mt323.dll
 0001:0001946c       ?qt_invoke@QSlider@@UAE_NHPAUQUObject@@@Z 0041a46c f   qt-mt323:qt-mt323.dll
 0001:00019472       ?qt_cast@QSlider@@UAEPAXPBD@Z 0041a472 f   qt-mt323:qt-mt323.dll
 0001:00019478       ?className@QSlider@@UBEPBDXZ 0041a478 f   qt-mt323:qt-mt323.dll
 0001:0001947e       ?metaObject@QSlider@@UBEPAVQMetaObject@@XZ 0041a47e f   qt-mt323:qt-mt323.dll
 0001:00019484       ?stepChange@QScrollBar@@MAEXXZ 0041a484 f   qt-mt323:qt-mt323.dll
 0001:0001948a       ?rangeChange@QScrollBar@@MAEXXZ 0041a48a f   qt-mt323:qt-mt323.dll
 0001:00019490       ?valueChange@QScrollBar@@MAEXXZ 0041a490 f   qt-mt323:qt-mt323.dll
 0001:00019496       ?setTracking@QScrollBar@@UAEX_N@Z 0041a496 f   qt-mt323:qt-mt323.dll
 0001:0001949c       ?setOrientation@QScrollBar@@UAEXW4Orientation@Qt@@@Z 0041a49c f   qt-mt323:qt-mt323.dll
 0001:000194a2       ?styleChange@QScrollBar@@MAEXAAVQStyle@@@Z 0041a4a2 f   qt-mt323:qt-mt323.dll
 0001:000194a8       ?hideEvent@QScrollBar@@MAEXPAVQHideEvent@@@Z 0041a4a8 f   qt-mt323:qt-mt323.dll
 0001:000194ae       ?contextMenuEvent@QScrollBar@@MAEXPAVQContextMenuEvent@@@Z 0041a4ae f   qt-mt323:qt-mt323.dll
 0001:000194b4       ?resizeEvent@QScrollBar@@MAEXPAVQResizeEvent@@@Z 0041a4b4 f   qt-mt323:qt-mt323.dll
 0001:000194ba       ?paintEvent@QScrollBar@@MAEXPAVQPaintEvent@@@Z 0041a4ba f   qt-mt323:qt-mt323.dll
 0001:000194c0       ?keyPressEvent@QScrollBar@@MAEXPAVQKeyEvent@@@Z 0041a4c0 f   qt-mt323:qt-mt323.dll
 0001:000194c6       ?wheelEvent@QScrollBar@@MAEXPAVQWheelEvent@@@Z 0041a4c6 f   qt-mt323:qt-mt323.dll
 0001:000194cc       ?mouseMoveEvent@QScrollBar@@MAEXPAVQMouseEvent@@@Z 0041a4cc f   qt-mt323:qt-mt323.dll
 0001:000194d2       ?mouseReleaseEvent@QScrollBar@@MAEXPAVQMouseEvent@@@Z 0041a4d2 f   qt-mt323:qt-mt323.dll
 0001:000194d8       ?mousePressEvent@QScrollBar@@MAEXPAVQMouseEvent@@@Z 0041a4d8 f   qt-mt323:qt-mt323.dll
 0001:000194de       ?setSizePolicy@QScrollBar@@UAEXVQSizePolicy@@@Z 0041a4de f   qt-mt323:qt-mt323.dll
 0001:000194e4       ?sizeHint@QScrollBar@@UBE?AVQSize@@XZ 0041a4e4 f   qt-mt323:qt-mt323.dll
 0001:000194ea       ?setPalette@QScrollBar@@UAEXABVQPalette@@@Z 0041a4ea f   qt-mt323:qt-mt323.dll
 0001:000194f0       ?qt_property@QScrollBar@@UAE_NHHPAVQVariant@@@Z 0041a4f0 f   qt-mt323:qt-mt323.dll
 0001:000194f6       ?qt_emit@QScrollBar@@UAE_NHPAUQUObject@@@Z 0041a4f6 f   qt-mt323:qt-mt323.dll
 0001:000194fc       ?qt_invoke@QScrollBar@@UAE_NHPAUQUObject@@@Z 0041a4fc f   qt-mt323:qt-mt323.dll
 0001:00019502       ?qt_cast@QScrollBar@@UAEPAXPBD@Z 0041a502 f   qt-mt323:qt-mt323.dll
 0001:00019508       ?className@QScrollBar@@UBEPBDXZ 0041a508 f   qt-mt323:qt-mt323.dll
 0001:0001950e       ?metaObject@QScrollBar@@UBEPAVQMetaObject@@XZ 0041a50e f   qt-mt323:qt-mt323.dll
 0001:00019514       ?columnClicked@QTable@@MAEXH@Z 0041a514 f   qt-mt323:qt-mt323.dll
 0001:0001951a       ?resizeData@QTable@@MAEXH@Z 0041a51a f   qt-mt323:qt-mt323.dll
 0001:00019520       ?endEdit@QTable@@MAEXHH_N0@Z 0041a520 f   qt-mt323:qt-mt323.dll
 0001:00019526       ?beginEdit@QTable@@MAEPAVQWidget@@HH_N@Z 0041a526 f   qt-mt323:qt-mt323.dll
 0001:0001952c       ?createEditor@QTable@@MBEPAVQWidget@@HH_N@Z 0041a52c f   qt-mt323:qt-mt323.dll
 0001:00019532       ?activateNextCell@QTable@@MAEXXZ 0041a532 f   qt-mt323:qt-mt323.dll
 0001:00019538       ?swapColumns@QTable@@UAEXHH_N@Z 0041a538 f   qt-mt323:qt-mt323.dll
 0001:0001953e       ?setColumnStretchable@QTable@@UAEXH_N@Z 0041a53e f   qt-mt323:qt-mt323.dll
 0001:00019544       ?adjustColumn@QTable@@UAEXH@Z 0041a544 f   qt-mt323:qt-mt323.dll
 0001:0001954a       ?setColumnWidth@QTable@@UAEXHH@Z 0041a54a f   qt-mt323:qt-mt323.dll
 0001:00019550       ?showColumn@QTable@@UAEXH@Z 0041a550 f   qt-mt323:qt-mt323.dll
 0001:00019556       ?hideColumn@QTable@@UAEXH@Z 0041a556 f   qt-mt323:qt-mt323.dll
 0001:0001955c       ?setNumCols@QTable@@UAEXH@Z 0041a55c f   qt-mt323:qt-mt323.dll
 0001:00019562       ?setNumRows@QTable@@UAEXH@Z 0041a562 f   qt-mt323:qt-mt323.dll
 0001:00019568       ?paintCell@QTable@@UAEXPAVQPainter@@HHABVQRect@@_NABVQColorGroup@@@Z 0041a568 f   qt-mt323:qt-mt323.dll
 0001:0001956e       ?takeItem@QTable@@UAEXPAVQTableItem@@@Z 0041a56e f   qt-mt323:qt-mt323.dll
 0001:00019574       ?sortColumn@QTable@@UAEXH_N0@Z 0041a574 f   qt-mt323:qt-mt323.dll
 0001:0001957a       ?numCols@QTable@@UBEHXZ    0041a57a f   qt-mt323:qt-mt323.dll
 0001:00019580       ?numRows@QTable@@UBEHXZ    0041a580 f   qt-mt323:qt-mt323.dll
 0001:00019586       ?clearCell@QTable@@UAEXHH@Z 0041a586 f   qt-mt323:qt-mt323.dll
 0001:0001958c       ?text@QTable@@UBE?AVQString@@HH@Z 0041a58c f   qt-mt323:qt-mt323.dll
 0001:00019592       ?item@QTable@@UBEPAVQTableItem@@HH@Z 0041a592 f   qt-mt323:qt-mt323.dll
 0001:00019598       ?setPixmap@QTable@@UAEXHHABVQPixmap@@@Z 0041a598 f   qt-mt323:qt-mt323.dll
 0001:0001959e       ?setItem@QTable@@UAEXHHPAVQTableItem@@@Z 0041a59e f   qt-mt323:qt-mt323.dll
 0001:000195a4       ?contentsContextMenuEvent@QTable@@MAEXPAVQContextMenuEvent@@@Z 0041a5a4 f   qt-mt323:qt-mt323.dll
 0001:000195aa       ?contentsMousePressEvent@QTable@@MAEXPAVQMouseEvent@@@Z 0041a5aa f   qt-mt323:qt-mt323.dll
 0001:000195b0       ?drawContents@QTable@@MAEXPAVQPainter@@HHHH@Z 0041a5b0 f   qt-mt323:qt-mt323.dll
 0001:000195b6       ?resizeEvent@QScrollView@@MAEXPAVQResizeEvent@@@Z 0041a5b6 f   qt-mt323:qt-mt323.dll
 0001:000195bc       ?keyPressEvent@QTable@@MAEXPAVQKeyEvent@@@Z 0041a5bc f   qt-mt323:qt-mt323.dll
 0001:000195c2       ?eventFilter@QTable@@UAE_NPAVQObject@@PAVQEvent@@@Z 0041a5c2 f   qt-mt323:qt-mt323.dll
 0001:000195c8       ?qt_property@QTable@@UAE_NHHPAVQVariant@@@Z 0041a5c8 f   qt-mt323:qt-mt323.dll
 0001:000195ce       ?qt_emit@QTable@@UAE_NHPAUQUObject@@@Z 0041a5ce f   qt-mt323:qt-mt323.dll
 0001:000195d4       ?qt_invoke@QTable@@UAE_NHPAUQUObject@@@Z 0041a5d4 f   qt-mt323:qt-mt323.dll
 0001:000195da       ?qt_cast@QTable@@UAEPAXPBD@Z 0041a5da f   qt-mt323:qt-mt323.dll
 0001:000195e0       ?className@QTable@@UBEPBDXZ 0041a5e0 f   qt-mt323:qt-mt323.dll
 0001:000195e6       ?metaObject@QTable@@UBEPAVQMetaObject@@XZ 0041a5e6 f   qt-mt323:qt-mt323.dll
 0001:000195ec       ?initDragEnter@QIconView@@EAEXPAVQDropEvent@@@Z 0041a5ec f   qt-mt323:qt-mt323.dll
 0001:000195f2       ?drawDragShapes@QIconView@@EAEXABVQPoint@@@Z 0041a5f2 f   qt-mt323:qt-mt323.dll
 0001:000195f8       ?drawBackground@QIconView@@MAEXPAVQPainter@@ABVQRect@@@Z 0041a5f8 f   qt-mt323:qt-mt323.dll
 0001:000195fe       ?insertInGrid@QIconView@@MAEXPAVQIconViewItem@@@Z 0041a5fe f   qt-mt323:qt-mt323.dll
 0001:00019604       ?startDrag@QIconView@@MAEXXZ 0041a604 f   qt-mt323:qt-mt323.dll
 0001:0001960a       ?dragObject@QIconView@@MAEPAVQDragObject@@XZ 0041a60a f   qt-mt323:qt-mt323.dll
 0001:00019610       ?drawRubber@QIconView@@MAEXPAVQPainter@@@Z 0041a610 f   qt-mt323:qt-mt323.dll
 0001:00019616       ?slotUpdate@QIconView@@MAEXXZ 0041a616 f   qt-mt323:qt-mt323.dll
 0001:0001961c       ?adjustItems@QIconView@@MAEXXZ 0041a61c f   qt-mt323:qt-mt323.dll
 0001:00019622       ?doAutoScroll@QIconView@@MAEXXZ 0041a622 f   qt-mt323:qt-mt323.dll
 0001:00019628       ?updateContents@QIconView@@UAEXXZ 0041a628 f   qt-mt323:qt-mt323.dll
 0001:0001962e       ?arrangeItemsInGrid@QIconView@@UAEXABVQSize@@_N@Z 0041a62e f   qt-mt323:qt-mt323.dll
 0001:00019634       ?arrangeItemsInGrid@QIconView@@UAEX_N@Z 0041a634 f   qt-mt323:qt-mt323.dll
 0001:0001963a       ?sort@QIconView@@UAEX_N@Z  0041a63a f   qt-mt323:qt-mt323.dll
 0001:00019640       ?setWordWrapIconText@QIconView@@UAEX_N@Z 0041a640 f   qt-mt323:qt-mt323.dll
 0001:00019646       ?setItemsMovable@QIconView@@UAEX_N@Z 0041a646 f   qt-mt323:qt-mt323.dll
 0001:0001964c       ?setShowToolTips@QIconView@@UAEX_N@Z 0041a64c f   qt-mt323:qt-mt323.dll
 0001:00019652       ?setAutoArrange@QIconView@@UAEX_N@Z 0041a652 f   qt-mt323:qt-mt323.dll
 0001:00019658       ?setMaxItemTextLength@QIconView@@UAEXH@Z 0041a658 f   qt-mt323:qt-mt323.dll
 0001:0001965e       ?setMaxItemWidth@QIconView@@UAEXH@Z 0041a65e f   qt-mt323:qt-mt323.dll
 0001:00019664       ?setResizeMode@QIconView@@UAEXW4ResizeMode@1@@Z 0041a664 f   qt-mt323:qt-mt323.dll
 0001:0001966a       ?setArrangement@QIconView@@UAEXW4Arrangement@1@@Z 0041a66a f   qt-mt323:qt-mt323.dll
 0001:00019670       ?setItemTextBackground@QIconView@@UAEXABVQBrush@@@Z 0041a670 f   qt-mt323:qt-mt323.dll
 0001:00019676       ?setItemTextPos@QIconView@@UAEXW4ItemTextPos@1@@Z 0041a676 f   qt-mt323:qt-mt323.dll
 0001:0001967c       ?setSpacing@QIconView@@UAEXH@Z 0041a67c f   qt-mt323:qt-mt323.dll
 0001:00019682       ?setGridY@QIconView@@UAEXH@Z 0041a682 f   qt-mt323:qt-mt323.dll
 0001:00019688       ?setGridX@QIconView@@UAEXH@Z 0041a688 f   qt-mt323:qt-mt323.dll
 0001:0001968e       ?clear@QIconView@@UAEXXZ   0041a68e f   qt-mt323:qt-mt323.dll
 0001:00019694       ?repaintItem@QIconView@@UAEXPAVQIconViewItem@@@Z 0041a694 f   qt-mt323:qt-mt323.dll
 0001:0001969a       ?invertSelection@QIconView@@UAEXXZ 0041a69a f   qt-mt323:qt-mt323.dll
 0001:000196a0       ?clearSelection@QIconView@@UAEXXZ 0041a6a0 f   qt-mt323:qt-mt323.dll
 0001:000196a6       ?selectAll@QIconView@@UAEX_N@Z 0041a6a6 f   qt-mt323:qt-mt323.dll
 0001:000196ac       ?setSelectionMode@QIconView@@UAEXW4SelectionMode@1@@Z 0041a6ac f   qt-mt323:qt-mt323.dll
 0001:000196b2       ?setSelected@QIconView@@UAEXPAVQIconViewItem@@_N1@Z 0041a6b2 f   qt-mt323:qt-mt323.dll
 0001:000196b8       ?setCurrentItem@QIconView@@UAEXPAVQIconViewItem@@@Z 0041a6b8 f   qt-mt323:qt-mt323.dll
 0001:000196be       ?takeItem@QIconView@@UAEXPAVQIconViewItem@@@Z 0041a6be f   qt-mt323:qt-mt323.dll
 0001:000196c4       ?insertItem@QIconView@@UAEXPAVQIconViewItem@@0@Z 0041a6c4 f   qt-mt323:qt-mt323.dll
 0001:000196ca       ?contentsContextMenuEvent@QIconView@@MAEXPAVQContextMenuEvent@@@Z 0041a6ca f   qt-mt323:qt-mt323.dll
 0001:000196d0       ?contentsDropEvent@QIconView@@MAEXPAVQDropEvent@@@Z 0041a6d0 f   qt-mt323:qt-mt323.dll
 0001:000196d6       ?contentsDragLeaveEvent@QIconView@@MAEXPAVQDragLeaveEvent@@@Z 0041a6d6 f   qt-mt323:qt-mt323.dll
 0001:000196dc       ?contentsDragMoveEvent@QIconView@@MAEXPAVQDragMoveEvent@@@Z 0041a6dc f   qt-mt323:qt-mt323.dll
 0001:000196e2       ?contentsDragEnterEvent@QIconView@@MAEXPAVQDragEnterEvent@@@Z 0041a6e2 f   qt-mt323:qt-mt323.dll
 0001:000196e8       ?contentsMouseMoveEvent@QIconView@@MAEXPAVQMouseEvent@@@Z 0041a6e8 f   qt-mt323:qt-mt323.dll
 0001:000196ee       ?contentsMouseDoubleClickEvent@QIconView@@MAEXPAVQMouseEvent@@@Z 0041a6ee f   qt-mt323:qt-mt323.dll
 0001:000196f4       ?contentsMouseReleaseEvent@QIconView@@MAEXPAVQMouseEvent@@@Z 0041a6f4 f   qt-mt323:qt-mt323.dll
 0001:000196fa       ?contentsMousePressEvent@QIconView@@MAEXPAVQMouseEvent@@@Z 0041a6fa f   qt-mt323:qt-mt323.dll
 0001:00019700       ?drawContents@QIconView@@MAEXPAVQPainter@@HHHH@Z 0041a700 f   qt-mt323:qt-mt323.dll
 0001:00019706       ?setContentsPos@QIconView@@UAEXHH@Z 0041a706 f   qt-mt323:qt-mt323.dll
 0001:0001970c       ?drawContents@QIconView@@EAEXPAVQPainter@@@Z 0041a70c f   qt-mt323:qt-mt323.dll
 0001:00019712       ?windowActivationChange@QIconView@@MAEX_N@Z 0041a712 f   qt-mt323:qt-mt323.dll
 0001:00019718       ?styleChange@QIconView@@MAEXAAVQStyle@@@Z 0041a718 f   qt-mt323:qt-mt323.dll
 0001:0001971e       ?showEvent@QIconView@@UAEXPAVQShowEvent@@@Z 0041a71e f   qt-mt323:qt-mt323.dll
 0001:00019724       ?resizeEvent@QIconView@@MAEXPAVQResizeEvent@@@Z 0041a724 f   qt-mt323:qt-mt323.dll
 0001:0001972a       ?enterEvent@QIconView@@MAEXPAVQEvent@@@Z 0041a72a f   qt-mt323:qt-mt323.dll
 0001:00019730       ?focusOutEvent@QIconView@@MAEXPAVQFocusEvent@@@Z 0041a730 f   qt-mt323:qt-mt323.dll
 0001:00019736       ?focusInEvent@QIconView@@MAEXPAVQFocusEvent@@@Z 0041a736 f   qt-mt323:qt-mt323.dll
 0001:0001973c       ?keyPressEvent@QIconView@@MAEXPAVQKeyEvent@@@Z 0041a73c f   qt-mt323:qt-mt323.dll
 0001:00019742       ?minimumSizeHint@QIconView@@UBE?AVQSize@@XZ 0041a742 f   qt-mt323:qt-mt323.dll
 0001:00019748       ?sizeHint@QIconView@@UBE?AVQSize@@XZ 0041a748 f   qt-mt323:qt-mt323.dll
 0001:0001974e       ?setFont@QIconView@@UAEXABVQFont@@@Z 0041a74e f   qt-mt323:qt-mt323.dll
 0001:00019754       ?setPalette@QIconView@@UAEXABVQPalette@@@Z 0041a754 f   qt-mt323:qt-mt323.dll
 0001:0001975a       ?eventFilter@QIconView@@UAE_NPAVQObject@@PAVQEvent@@@Z 0041a75a f   qt-mt323:qt-mt323.dll
 0001:00019760       ?qt_property@QIconView@@UAE_NHHPAVQVariant@@@Z 0041a760 f   qt-mt323:qt-mt323.dll
 0001:00019766       ?qt_emit@QIconView@@UAE_NHPAUQUObject@@@Z 0041a766 f   qt-mt323:qt-mt323.dll
 0001:0001976c       ?qt_invoke@QIconView@@UAE_NHPAUQUObject@@@Z 0041a76c f   qt-mt323:qt-mt323.dll
 0001:00019772       ?qt_cast@QIconView@@UAEPAXPBD@Z 0041a772 f   qt-mt323:qt-mt323.dll
 0001:00019778       ?className@QIconView@@UBEPBDXZ 0041a778 f   qt-mt323:qt-mt323.dll
 0001:0001977e       ?metaObject@QIconView@@UBEPAVQMetaObject@@XZ 0041a77e f   qt-mt323:qt-mt323.dll
 0001:00019784       ?paintEmptyArea@QListView@@MAEXPAVQPainter@@ABVQRect@@@Z 0041a784 f   qt-mt323:qt-mt323.dll
 0001:0001978a       ?startDrag@QListView@@MAEXXZ 0041a78a f   qt-mt323:qt-mt323.dll
 0001:00019790       ?dragObject@QListView@@MAEPAVQDragObject@@XZ 0041a790 f   qt-mt323:qt-mt323.dll
 0001:00019796       ?selectAll@QListView@@UAEX_N@Z 0041a796 f   qt-mt323:qt-mt323.dll
 0001:0001979c       ?invertSelection@QListView@@UAEXXZ 0041a79c f   qt-mt323:qt-mt323.dll
 0001:000197a2       ?clear@QListView@@UAEXXZ   0041a7a2 f   qt-mt323:qt-mt323.dll
 0001:000197a8       ?setDefaultRenameAction@QListView@@UAEXW4RenameAction@1@@Z 0041a7a8 f   qt-mt323:qt-mt323.dll
 0001:000197ae       ?setResizeMode@QListView@@UAEXW4ResizeMode@1@@Z 0041a7ae f   qt-mt323:qt-mt323.dll
 0001:000197b4       ?setShowToolTips@QListView@@UAEX_N@Z 0041a7b4 f   qt-mt323:qt-mt323.dll
 0001:000197ba       ?setShowSortIndicator@QListView@@UAEX_N@Z 0041a7ba f   qt-mt323:qt-mt323.dll
 0001:000197c0       ?sort@QListView@@UAEXXZ    0041a7c0 f   qt-mt323:qt-mt323.dll
 0001:000197c6       ?setSorting@QListView@@UAEXH_N@Z 0041a7c6 f   qt-mt323:qt-mt323.dll
 0001:000197cc       ?setRootIsDecorated@QListView@@UAEX_N@Z 0041a7cc f   qt-mt323:qt-mt323.dll
 0001:000197d2       ?setItemMargin@QListView@@UAEXH@Z 0041a7d2 f   qt-mt323:qt-mt323.dll
 0001:000197d8       ?setAllColumnsShowFocus@QListView@@UAEX_N@Z 0041a7d8 f   qt-mt323:qt-mt323.dll
 0001:000197de       ?setCurrentItem@QListView@@UAEXPAVQListViewItem@@@Z 0041a7de f   qt-mt323:qt-mt323.dll
 0001:000197e4       ?setOpen@QListView@@UAEXPAVQListViewItem@@_N@Z 0041a7e4 f   qt-mt323:qt-mt323.dll
 0001:000197ea       ?setSelected@QListView@@UAEXPAVQListViewItem@@_N@Z 0041a7ea f   qt-mt323:qt-mt323.dll
 0001:000197f0       ?clearSelection@QListView@@UAEXXZ 0041a7f0 f   qt-mt323:qt-mt323.dll
 0001:000197f6       ?setMultiSelection@QListView@@UAEX_N@Z 0041a7f6 f   qt-mt323:qt-mt323.dll
 0001:000197fc       ?setColumnAlignment@QListView@@UAEXHH@Z 0041a7fc f   qt-mt323:qt-mt323.dll
 0001:00019802       ?setColumnWidthMode@QListView@@UAEXHW4WidthMode@1@@Z 0041a802 f   qt-mt323:qt-mt323.dll
 0001:00019808       ?setColumnWidth@QListView@@UAEXHH@Z 0041a808 f   qt-mt323:qt-mt323.dll
 0001:0001980e       ?setColumnText@QListView@@UAEXHABVQString@@@Z 0041a80e f   qt-mt323:qt-mt323.dll
 0001:00019814       ?setColumnText@QListView@@UAEXHABVQIconSet@@ABVQString@@@Z 0041a814 f   qt-mt323:qt-mt323.dll
 0001:0001981a       ?removeColumn@QListView@@UAEXH@Z 0041a81a f   qt-mt323:qt-mt323.dll
 0001:00019820       ?addColumn@QListView@@UAEHABVQString@@H@Z 0041a820 f   qt-mt323:qt-mt323.dll
 0001:00019826       ?addColumn@QListView@@UAEHABVQIconSet@@ABVQString@@H@Z 0041a826 f   qt-mt323:qt-mt323.dll
 0001:0001982c       ?removeItem@QListView@@UAEXPAVQListViewItem@@@Z 0041a82c f   qt-mt323:qt-mt323.dll
 0001:00019832       ?takeItem@QListView@@UAEXPAVQListViewItem@@@Z 0041a832 f   qt-mt323:qt-mt323.dll
 0001:00019838       ?insertItem@QListView@@UAEXPAVQListViewItem@@@Z 0041a838 f   qt-mt323:qt-mt323.dll
 0001:0001983e       ?setTreeStepSize@QListView@@UAEXH@Z 0041a83e f   qt-mt323:qt-mt323.dll
 0001:00019844       ?viewportResizeEvent@QListView@@MAEXPAVQResizeEvent@@@Z 0041a844 f   qt-mt323:qt-mt323.dll
 0001:0001984a       ?contentsContextMenuEvent@QListView@@MAEXPAVQContextMenuEvent@@@Z 0041a84a f   qt-mt323:qt-mt323.dll
 0001:00019850       ?contentsDropEvent@QListView@@MAEXPAVQDropEvent@@@Z 0041a850 f   qt-mt323:qt-mt323.dll
 0001:00019856       ?contentsDragLeaveEvent@QListView@@MAEXPAVQDragLeaveEvent@@@Z 0041a856 f   qt-mt323:qt-mt323.dll
 0001:0001985c       ?contentsDragMoveEvent@QListView@@MAEXPAVQDragMoveEvent@@@Z 0041a85c f   qt-mt323:qt-mt323.dll
 0001:00019862       ?contentsDragEnterEvent@QListView@@MAEXPAVQDragEnterEvent@@@Z 0041a862 f   qt-mt323:qt-mt323.dll
 0001:00019868       ?contentsMouseMoveEvent@QListView@@MAEXPAVQMouseEvent@@@Z 0041a868 f   qt-mt323:qt-mt323.dll
 0001:0001986e       ?contentsMouseDoubleClickEvent@QListView@@MAEXPAVQMouseEvent@@@Z 0041a86e f   qt-mt323:qt-mt323.dll
 0001:00019874       ?contentsMouseReleaseEvent@QListView@@MAEXPAVQMouseEvent@@@Z 0041a874 f   qt-mt323:qt-mt323.dll
 0001:0001987a       ?contentsMousePressEvent@QListView@@MAEXPAVQMouseEvent@@@Z 0041a87a f   qt-mt323:qt-mt323.dll
 0001:00019880       ?drawContentsOffset@QListView@@MAEXPAVQPainter@@HHHHHH@Z 0041a880 f   qt-mt323:qt-mt323.dll
 0001:00019886       ?setContentsPos@QListView@@UAEXHH@Z 0041a886 f   qt-mt323:qt-mt323.dll
 0001:0001988c       ?windowActivationChange@QListView@@MAEX_N@Z 0041a88c f   qt-mt323:qt-mt323.dll
 0001:00019892       ?styleChange@QListView@@MAEXAAVQStyle@@@Z 0041a892 f   qt-mt323:qt-mt323.dll
 0001:00019898       ?showEvent@QListView@@MAEXPAVQShowEvent@@@Z 0041a898 f   qt-mt323:qt-mt323.dll
 0001:0001989e       ?resizeEvent@QListView@@MAEXPAVQResizeEvent@@@Z 0041a89e f   qt-mt323:qt-mt323.dll
 0001:000198a4       ?focusOutEvent@QListView@@MAEXPAVQFocusEvent@@@Z 0041a8a4 f   qt-mt323:qt-mt323.dll
 0001:000198aa       ?focusInEvent@QListView@@MAEXPAVQFocusEvent@@@Z 0041a8aa f   qt-mt323:qt-mt323.dll
 0001:000198b0       ?keyPressEvent@QListView@@MAEXPAVQKeyEvent@@@Z 0041a8b0 f   qt-mt323:qt-mt323.dll
 0001:000198b6       ?minimumSizeHint@QListView@@UBE?AVQSize@@XZ 0041a8b6 f   qt-mt323:qt-mt323.dll
 0001:000198bc       ?sizeHint@QListView@@UBE?AVQSize@@XZ 0041a8bc f   qt-mt323:qt-mt323.dll
 0001:000198c2       ?show@QListView@@UAEXXZ    0041a8c2 f   qt-mt323:qt-mt323.dll
 0001:000198c8       ?setFont@QListView@@UAEXABVQFont@@@Z 0041a8c8 f   qt-mt323:qt-mt323.dll
 0001:000198ce       ?setPalette@QListView@@UAEXABVQPalette@@@Z 0041a8ce f   qt-mt323:qt-mt323.dll
 0001:000198d4       ?eventFilter@QListView@@UAE_NPAVQObject@@PAVQEvent@@@Z 0041a8d4 f   qt-mt323:qt-mt323.dll
 0001:000198da       ?qt_property@QListView@@UAE_NHHPAVQVariant@@@Z 0041a8da f   qt-mt323:qt-mt323.dll
 0001:000198e0       ?qt_emit@QListView@@UAE_NHPAUQUObject@@@Z 0041a8e0 f   qt-mt323:qt-mt323.dll
 0001:000198e6       ?qt_invoke@QListView@@UAE_NHPAUQUObject@@@Z 0041a8e6 f   qt-mt323:qt-mt323.dll
 0001:000198ec       ?qt_cast@QListView@@UAEPAXPBD@Z 0041a8ec f   qt-mt323:qt-mt323.dll
 0001:000198f2       ?className@QListView@@UBEPBDXZ 0041a8f2 f   qt-mt323:qt-mt323.dll
 0001:000198f8       ?metaObject@QListView@@UBEPAVQMetaObject@@XZ 0041a8f8 f   qt-mt323:qt-mt323.dll
 0001:000198fe       ?setOn@QToolButton@@UAEX_N@Z 0041a8fe f   qt-mt323:qt-mt323.dll
 0001:00019904       ?setToggleButton@QToolButton@@UAEX_N@Z 0041a904 f   qt-mt323:qt-mt323.dll
 0001:0001990a       ?setTextLabel@QToolButton@@UAEXABVQString@@_N@Z 0041a90a f   qt-mt323:qt-mt323.dll
 0001:00019910       ?setUsesTextLabel@QToolButton@@UAEX_N@Z 0041a910 f   qt-mt323:qt-mt323.dll
 0001:00019916       ?setUsesBigPixmap@QToolButton@@UAEX_N@Z 0041a916 f   qt-mt323:qt-mt323.dll
 0001:0001991c       ?setIconSet@QToolButton@@UAEXABVQIconSet@@@Z 0041a91c f   qt-mt323:qt-mt323.dll
 0001:00019922       ?drawButtonLabel@QToolButton@@MAEXPAVQPainter@@@Z 0041a922 f   qt-mt323:qt-mt323.dll
 0001:00019928       ?drawButton@QToolButton@@MAEXPAVQPainter@@@Z 0041a928 f   qt-mt323:qt-mt323.dll
 0001:0001992e       ?setText@QToolButton@@UAEXABVQString@@@Z 0041a92e f   qt-mt323:qt-mt323.dll
 0001:00019934       ?paletteChange@QToolButton@@MAEXABVQPalette@@@Z 0041a934 f   qt-mt323:qt-mt323.dll
 0001:0001993a       ?moveEvent@QToolButton@@MAEXPAVQMoveEvent@@@Z 0041a93a f   qt-mt323:qt-mt323.dll
 0001:00019940       ?leaveEvent@QToolButton@@MAEXPAVQEvent@@@Z 0041a940 f   qt-mt323:qt-mt323.dll
 0001:00019946       ?enterEvent@QToolButton@@MAEXPAVQEvent@@@Z 0041a946 f   qt-mt323:qt-mt323.dll
 0001:0001994c       ?mousePressEvent@QToolButton@@MAEXPAVQMouseEvent@@@Z 0041a94c f   qt-mt323:qt-mt323.dll
 0001:00019952       ?minimumSizeHint@QToolButton@@UBE?AVQSize@@XZ 0041a952 f   qt-mt323:qt-mt323.dll
 0001:00019958       ?sizeHint@QToolButton@@UBE?AVQSize@@XZ 0041a958 f   qt-mt323:qt-mt323.dll
 0001:0001995e       ?eventFilter@QToolButton@@MAE_NPAVQObject@@PAVQEvent@@@Z 0041a95e f   qt-mt323:qt-mt323.dll
 0001:00019964       ?qt_property@QToolButton@@UAE_NHHPAVQVariant@@@Z 0041a964 f   qt-mt323:qt-mt323.dll
 0001:0001996a       ?qt_emit@QToolButton@@UAE_NHPAUQUObject@@@Z 0041a96a f   qt-mt323:qt-mt323.dll
 0001:00019970       ?qt_invoke@QToolButton@@UAE_NHPAUQUObject@@@Z 0041a970 f   qt-mt323:qt-mt323.dll
 0001:00019976       ?qt_cast@QToolButton@@UAEPAXPBD@Z 0041a976 f   qt-mt323:qt-mt323.dll
 0001:0001997c       ?className@QToolButton@@UBEPBDXZ 0041a97c f   qt-mt323:qt-mt323.dll
 0001:00019982       ?metaObject@QToolButton@@UBEPAVQMetaObject@@XZ 0041a982 f   qt-mt323:qt-mt323.dll
 0001:00019988       ?setToolTipGroup@QMainWindow@@EAEXPAVQToolTipGroup@@@Z 0041a988 f   qt-mt323:qt-mt323.dll
 0001:0001998e       ?setStatusBar@QMainWindow@@EAEXPAVQStatusBar@@@Z 0041a98e f   qt-mt323:qt-mt323.dll
 0001:00019994       ?setMenuBar@QMainWindow@@EAEXPAVQMenuBar@@@Z 0041a994 f   qt-mt323:qt-mt323.dll
 0001:0001999a       ?showDockMenu@QMainWindow@@MAE_NABVQPoint@@@Z 0041a99a f   qt-mt323:qt-mt323.dll
 0001:000199a0       ?setUpLayout@QMainWindow@@MAEXXZ 0041a9a0 f   qt-mt323:qt-mt323.dll
 0001:000199a6       ?customize@QMainWindow@@UAEXXZ 0041a9a6 f   qt-mt323:qt-mt323.dll
 0001:000199ac       ?setAppropriate@QMainWindow@@UAEXPAVQDockWindow@@_N@Z 0041a9ac f   qt-mt323:qt-mt323.dll
 0001:000199b2       ?whatsThis@QMainWindow@@UAEXXZ 0041a9b2 f   qt-mt323:qt-mt323.dll
 0001:000199b8       ?setDockMenuEnabled@QMainWindow@@UAEX_N@Z 0041a9b8 f   qt-mt323:qt-mt323.dll
 0001:000199be       ?setOpaqueMoving@QMainWindow@@UAEX_N@Z 0041a9be f   qt-mt323:qt-mt323.dll
 0001:000199c4       ?setDockWindowsMovable@QMainWindow@@UAEX_N@Z 0041a9c4 f   qt-mt323:qt-mt323.dll
 0001:000199ca       ?setUsesTextLabel@QMainWindow@@UAEX_N@Z 0041a9ca f   qt-mt323:qt-mt323.dll
 0001:000199d0       ?setUsesBigPixmaps@QMainWindow@@UAEX_N@Z 0041a9d0 f   qt-mt323:qt-mt323.dll
 0001:000199d6       ?setRightJustification@QMainWindow@@UAEX_N@Z 0041a9d6 f   qt-mt323:qt-mt323.dll
 0001:000199dc       ?isCustomizable@QMainWindow@@UBE_NXZ 0041a9dc f   qt-mt323:qt-mt323.dll
 0001:000199e2       ?dockingArea@QMainWindow@@UAEPAVQDockArea@@ABVQPoint@@@Z 0041a9e2 f   qt-mt323:qt-mt323.dll
 0001:000199e8       ?removeDockWindow@QMainWindow@@UAEXPAVQDockWindow@@@Z 0041a9e8 f   qt-mt323:qt-mt323.dll
 0001:000199ee       ?moveDockWindow@QMainWindow@@UAEXPAVQDockWindow@@W4Dock@Qt@@@Z 0041a9ee f   qt-mt323:qt-mt323.dll
 0001:000199f4       ?moveDockWindow@QMainWindow@@UAEXPAVQDockWindow@@W4Dock@Qt@@_NHH@Z 0041a9f4 f   qt-mt323:qt-mt323.dll
 0001:000199fa       ?addDockWindow@QMainWindow@@UAEXPAVQDockWindow@@W4Dock@Qt@@_N@Z 0041a9fa f   qt-mt323:qt-mt323.dll
 0001:00019a00       ?addDockWindow@QMainWindow@@UAEXPAVQDockWindow@@ABVQString@@W4Dock@Qt@@_N@Z 0041aa00 f   qt-mt323:qt-mt323.dll
 0001:00019a06       ?setDockEnabled@QMainWindow@@UAEXW4Dock@Qt@@_N@Z 0041aa06 f   qt-mt323:qt-mt323.dll
 0001:00019a0c       ?setDockEnabled@QMainWindow@@UAEXPAVQDockWindow@@W4Dock@Qt@@_N@Z 0041aa0c f   qt-mt323:qt-mt323.dll
 0001:00019a12       ?setCentralWidget@QMainWindow@@UAEXPAVQWidget@@@Z 0041aa12 f   qt-mt323:qt-mt323.dll
 0001:00019a18       ?styleChange@QMainWindow@@MAEXAAVQStyle@@@Z 0041aa18 f   qt-mt323:qt-mt323.dll
 0001:00019a1e       ?paintEvent@QMainWindow@@MAEXPAVQPaintEvent@@@Z 0041aa1e f   qt-mt323:qt-mt323.dll
 0001:00019a24       ?minimumSizeHint@QMainWindow@@UBE?AVQSize@@XZ 0041aa24 f   qt-mt323:qt-mt323.dll
 0001:00019a2a       ?sizeHint@QMainWindow@@UBE?AVQSize@@XZ 0041aa2a f   qt-mt323:qt-mt323.dll
 0001:00019a30       ?hide@QMainWindow@@UAEXXZ  0041aa30 f   qt-mt323:qt-mt323.dll
 0001:00019a36       ?show@QMainWindow@@UAEXXZ  0041aa36 f   qt-mt323:qt-mt323.dll
 0001:00019a3c       ?childEvent@QMainWindow@@MAEXPAVQChildEvent@@@Z 0041aa3c f   qt-mt323:qt-mt323.dll
 0001:00019a42       ?eventFilter@QMainWindow@@UAE_NPAVQObject@@PAVQEvent@@@Z 0041aa42 f   qt-mt323:qt-mt323.dll
 0001:00019a48       ?event@QMainWindow@@MAE_NPAVQEvent@@@Z 0041aa48 f   qt-mt323:qt-mt323.dll
 0001:00019a4e       ?qt_property@QMainWindow@@UAE_NHHPAVQVariant@@@Z 0041aa4e f   qt-mt323:qt-mt323.dll
 0001:00019a54       ?qt_emit@QMainWindow@@UAE_NHPAUQUObject@@@Z 0041aa54 f   qt-mt323:qt-mt323.dll
 0001:00019a5a       ?qt_invoke@QMainWindow@@UAE_NHPAUQUObject@@@Z 0041aa5a f   qt-mt323:qt-mt323.dll
 0001:00019a60       ?qt_cast@QMainWindow@@UAEPAXPBD@Z 0041aa60 f   qt-mt323:qt-mt323.dll
 0001:00019a66       ?className@QMainWindow@@UBEPBDXZ 0041aa66 f   qt-mt323:qt-mt323.dll
 0001:00019a6c       ?metaObject@QMainWindow@@UBEPAVQMetaObject@@XZ 0041aa6c f   qt-mt323:qt-mt323.dll
 0001:00019a72       ?className@QDialog@@UBEPBDXZ 0041aa72 f   qt-mt323:qt-mt323.dll
 0001:00019a78       ?metaObject@QDialog@@UBEPAVQMetaObject@@XZ 0041aa78 f   qt-mt323:qt-mt323.dll
 0001:00019a7e       ?qt_property@QVBox@@UAE_NHHPAVQVariant@@@Z 0041aa7e f   qt-mt323:qt-mt323.dll
 0001:00019a84       ?qt_emit@QVBox@@UAE_NHPAUQUObject@@@Z 0041aa84 f   qt-mt323:qt-mt323.dll
 0001:00019a8a       ?qt_invoke@QVBox@@UAE_NHPAUQUObject@@@Z 0041aa8a f   qt-mt323:qt-mt323.dll
 0001:00019a90       ?qt_cast@QVBox@@UAEPAXPBD@Z 0041aa90 f   qt-mt323:qt-mt323.dll
 0001:00019a96       ?className@QVBox@@UBEPBDXZ 0041aa96 f   qt-mt323:qt-mt323.dll
 0001:00019a9c       ?metaObject@QVBox@@UBEPAVQMetaObject@@XZ 0041aa9c f   qt-mt323:qt-mt323.dll
 0001:00019aa2       ?setIndicator@QProgressBar@@MAE_NAAVQString@@HH@Z 0041aaa2 f   qt-mt323:qt-mt323.dll
 0001:00019aa8       ?setProgress@QProgressBar@@UAEXH@Z 0041aaa8 f   qt-mt323:qt-mt323.dll
 0001:00019aae       ?setTotalSteps@QProgressBar@@UAEXH@Z 0041aaae f   qt-mt323:qt-mt323.dll
 0001:00019ab4       ?drawContents@QProgressBar@@MAEXPAVQPainter@@@Z 0041aab4 f   qt-mt323:qt-mt323.dll
 0001:00019aba       ?styleChange@QProgressBar@@MAEXAAVQStyle@@@Z 0041aaba f   qt-mt323:qt-mt323.dll
 0001:00019ac0       ?minimumSizeHint@QProgressBar@@UBE?AVQSize@@XZ 0041aac0 f   qt-mt323:qt-mt323.dll
 0001:00019ac6       ?sizeHint@QProgressBar@@UBE?AVQSize@@XZ 0041aac6 f   qt-mt323:qt-mt323.dll
 0001:00019acc       ?show@QProgressBar@@UAEXXZ 0041aacc f   qt-mt323:qt-mt323.dll
 0001:00019ad2       ?qt_property@QProgressBar@@UAE_NHHPAVQVariant@@@Z 0041aad2 f   qt-mt323:qt-mt323.dll
 0001:00019ad8       ?qt_emit@QProgressBar@@UAE_NHPAUQUObject@@@Z 0041aad8 f   qt-mt323:qt-mt323.dll
 0001:00019ade       ?qt_invoke@QProgressBar@@UAE_NHPAUQUObject@@@Z 0041aade f   qt-mt323:qt-mt323.dll
 0001:00019ae4       ?qt_cast@QProgressBar@@UAEPAXPBD@Z 0041aae4 f   qt-mt323:qt-mt323.dll
 0001:00019aea       ?className@QProgressBar@@UBEPBDXZ 0041aaea f   qt-mt323:qt-mt323.dll
 0001:00019af0       ?metaObject@QProgressBar@@UBEPAVQMetaObject@@XZ 0041aaf0 f   qt-mt323:qt-mt323.dll
 0001:00019af6       ?outOfRange@QDateEdit@@MBE_NHHH@Z 0041aaf6 f   qt-mt323:qt-mt323.dll
 0001:00019afc       ?fix@QDateEdit@@MAEXXZ     0041aafc f   qt-mt323:qt-mt323.dll
 0001:00019b02       ?setDay@QDateEdit@@MAEXH@Z 0041ab02 f   qt-mt323:qt-mt323.dll
 0001:00019b08       ?setMonth@QDateEdit@@MAEXH@Z 0041ab08 f   qt-mt323:qt-mt323.dll
 0001:00019b0e       ?setYear@QDateEdit@@MAEXH@Z 0041ab0e f   qt-mt323:qt-mt323.dll
 0001:00019b14       ?setSeparator@QDateEdit@@UAEXABVQString@@@Z 0041ab14 f   qt-mt323:qt-mt323.dll
 0001:00019b1a       ?setRange@QDateEdit@@UAEXABVQDate@@0@Z 0041ab1a f   qt-mt323:qt-mt323.dll
 0001:00019b20       ?setMaxValue@QDateEdit@@UAEXABVQDate@@@Z 0041ab20 f   qt-mt323:qt-mt323.dll
 0001:00019b26       ?setMinValue@QDateEdit@@UAEXABVQDate@@@Z 0041ab26 f   qt-mt323:qt-mt323.dll
 0001:00019b2c       ?setAutoAdvance@QDateEdit@@UAEX_N@Z 0041ab2c f   qt-mt323:qt-mt323.dll
 0001:00019b32       ?setOrder@QDateEdit@@UAEXW4Order@1@@Z 0041ab32 f   qt-mt323:qt-mt323.dll
 0001:00019b38       ?setDate@QDateEdit@@UAEXABVQDate@@@Z 0041ab38 f   qt-mt323:qt-mt323.dll
 0001:00019b3e       ?stepDown@QDateEdit@@MAEXXZ 0041ab3e f   qt-mt323:qt-mt323.dll
 0001:00019b44       ?stepUp@QDateEdit@@MAEXXZ  0041ab44 f   qt-mt323:qt-mt323.dll
 0001:00019b4a       ?removeLastNumber@QDateEdit@@MAEXH@Z 0041ab4a f   qt-mt323:qt-mt323.dll
 0001:00019b50       ?addNumber@QDateEdit@@MAEXHH@Z 0041ab50 f   qt-mt323:qt-mt323.dll
 0001:00019b56       ?sectionFormattedText@QDateEdit@@MAE?AVQString@@H@Z 0041ab56 f   qt-mt323:qt-mt323.dll
 0001:00019b5c       ?setFocusSection@QDateEdit@@MAE_NH@Z 0041ab5c f   qt-mt323:qt-mt323.dll
 0001:00019b62       ?resizeEvent@QDateEdit@@MAEXPAVQResizeEvent@@@Z 0041ab62 f   qt-mt323:qt-mt323.dll
 0001:00019b68       ?minimumSizeHint@QDateEdit@@UBE?AVQSize@@XZ 0041ab68 f   qt-mt323:qt-mt323.dll
 0001:00019b6e       ?sizeHint@QDateEdit@@UBE?AVQSize@@XZ 0041ab6e f   qt-mt323:qt-mt323.dll
 0001:00019b74       ?timerEvent@QDateEdit@@MAEXPAVQTimerEvent@@@Z 0041ab74 f   qt-mt323:qt-mt323.dll
 0001:00019b7a       ?event@QDateEdit@@MAE_NPAVQEvent@@@Z 0041ab7a f   qt-mt323:qt-mt323.dll
 0001:00019b80       ?qt_property@QDateEdit@@UAE_NHHPAVQVariant@@@Z 0041ab80 f   qt-mt323:qt-mt323.dll
 0001:00019b86       ?qt_emit@QDateEdit@@UAE_NHPAUQUObject@@@Z 0041ab86 f   qt-mt323:qt-mt323.dll
 0001:00019b8c       ?qt_invoke@QDateEdit@@UAE_NHPAUQUObject@@@Z 0041ab8c f   qt-mt323:qt-mt323.dll
 0001:00019b92       ?qt_cast@QDateEdit@@UAEPAXPBD@Z 0041ab92 f   qt-mt323:qt-mt323.dll
 0001:00019b98       ?className@QDateEdit@@UBEPBDXZ 0041ab98 f   qt-mt323:qt-mt323.dll
 0001:00019b9e       ?metaObject@QDateEdit@@UBEPAVQMetaObject@@XZ 0041ab9e f   qt-mt323:qt-mt323.dll
 0001:00019ba4       ?qt_property@QFrame@@UAE_NHHPAVQVariant@@@Z 0041aba4 f   qt-mt323:qt-mt323.dll
 0001:00019baa       ?qt_emit@QFrame@@UAE_NHPAUQUObject@@@Z 0041abaa f   qt-mt323:qt-mt323.dll
 0001:00019bb0       ?qt_invoke@QFrame@@UAE_NHPAUQUObject@@@Z 0041abb0 f   qt-mt323:qt-mt323.dll
 0001:00019bb6       ?qt_cast@QFrame@@UAEPAXPBD@Z 0041abb6 f   qt-mt323:qt-mt323.dll
 0001:00019bbc       ?className@QFrame@@UBEPBDXZ 0041abbc f   qt-mt323:qt-mt323.dll
 0001:00019bc2       ?metaObject@QFrame@@UBEPAVQMetaObject@@XZ 0041abc2 f   qt-mt323:qt-mt323.dll
 0001:00019bc8       ?removePage@QTabWidget@@UAEXPAVQWidget@@@Z 0041abc8 f   qt-mt323:qt-mt323.dll
 0001:00019bce       ?showPage@QTabWidget@@UAEXPAVQWidget@@@Z 0041abce f   qt-mt323:qt-mt323.dll
 0001:00019bd4       ?insertTab@QTabWidget@@UAEXPAVQWidget@@ABVQString@@H@Z 0041abd4 f   qt-mt323:qt-mt323.dll
 0001:00019bda       ?insertTab@QTabWidget@@UAEXPAVQWidget@@ABVQIconSet@@ABVQString@@H@Z 0041abda f   qt-mt323:qt-mt323.dll
 0001:00019be0       ?insertTab@QTabWidget@@UAEXPAVQWidget@@PAVQTab@@H@Z 0041abe0 f   qt-mt323:qt-mt323.dll
 0001:00019be6       ?addTab@QTabWidget@@UAEXPAVQWidget@@ABVQString@@@Z 0041abe6 f   qt-mt323:qt-mt323.dll
 0001:00019bec       ?addTab@QTabWidget@@UAEXPAVQWidget@@ABVQIconSet@@ABVQString@@@Z 0041abec f   qt-mt323:qt-mt323.dll
 0001:00019bf2       ?addTab@QTabWidget@@UAEXPAVQWidget@@PAVQTab@@@Z 0041abf2 f   qt-mt323:qt-mt323.dll
 0001:00019bf8       ?styleChange@QTabWidget@@MAEXAAVQStyle@@@Z 0041abf8 f   qt-mt323:qt-mt323.dll
 0001:00019bfe       ?updateMask@QTabWidget@@MAEXXZ 0041abfe f   qt-mt323:qt-mt323.dll
 0001:00019c04       ?showEvent@QTabWidget@@MAEXPAVQShowEvent@@@Z 0041ac04 f   qt-mt323:qt-mt323.dll
 0001:00019c0a       ?resizeEvent@QTabWidget@@MAEXPAVQResizeEvent@@@Z 0041ac0a f   qt-mt323:qt-mt323.dll
 0001:00019c10       ?minimumSizeHint@QTabWidget@@UBE?AVQSize@@XZ 0041ac10 f   qt-mt323:qt-mt323.dll
 0001:00019c16       ?sizeHint@QTabWidget@@UBE?AVQSize@@XZ 0041ac16 f   qt-mt323:qt-mt323.dll
 0001:00019c1c       ?eventFilter@QTabWidget@@MAE_NPAVQObject@@PAVQEvent@@@Z 0041ac1c f   qt-mt323:qt-mt323.dll
 0001:00019c22       ?qt_property@QTabWidget@@UAE_NHHPAVQVariant@@@Z 0041ac22 f   qt-mt323:qt-mt323.dll
 0001:00019c28       ?qt_emit@QTabWidget@@UAE_NHPAUQUObject@@@Z 0041ac28 f   qt-mt323:qt-mt323.dll
 0001:00019c2e       ?qt_invoke@QTabWidget@@UAE_NHPAUQUObject@@@Z 0041ac2e f   qt-mt323:qt-mt323.dll
 0001:00019c34       ?qt_cast@QTabWidget@@UAEPAXPBD@Z 0041ac34 f   qt-mt323:qt-mt323.dll
 0001:00019c3a       ?className@QTabWidget@@UBEPBDXZ 0041ac3a f   qt-mt323:qt-mt323.dll
 0001:00019c40       ?metaObject@QTabWidget@@UBEPAVQMetaObject@@XZ 0041ac40 f   qt-mt323:qt-mt323.dll
 0001:00019c46       ?createPopupMenu@QLineEdit@@MAEPAVQPopupMenu@@XZ 0041ac46 f   qt-mt323:qt-mt323.dll
 0001:00019c4c       ?setDragEnabled@QLineEdit@@UAEX_N@Z 0041ac4c f   qt-mt323:qt-mt323.dll
 0001:00019c52       ?paste@QLineEdit@@UAEXXZ   0041ac52 f   qt-mt323:qt-mt323.dll
 0001:00019c58       ?copy@QLineEdit@@UBEXXZ    0041ac58 f   qt-mt323:qt-mt323.dll
 0001:00019c5e       ?cut@QLineEdit@@UAEXXZ     0041ac5e f   qt-mt323:qt-mt323.dll
 0001:00019c64       ?setAlignment@QLineEdit@@UAEXH@Z 0041ac64 f   qt-mt323:qt-mt323.dll
 0001:00019c6a       ?setCursorPosition@QLineEdit@@UAEXH@Z 0041ac6a f   qt-mt323:qt-mt323.dll
 0001:00019c70       ?setSelection@QLineEdit@@UAEXHH@Z 0041ac70 f   qt-mt323:qt-mt323.dll
 0001:00019c76       ?setValidator@QLineEdit@@UAEXPBVQValidator@@@Z 0041ac76 f   qt-mt323:qt-mt323.dll
 0001:00019c7c       ?setReadOnly@QLineEdit@@UAEX_N@Z 0041ac7c f   qt-mt323:qt-mt323.dll
 0001:00019c82       ?setEchoMode@QLineEdit@@UAEXW4EchoMode@1@@Z 0041ac82 f   qt-mt323:qt-mt323.dll
 0001:00019c88       ?setFrame@QLineEdit@@UAEX_N@Z 0041ac88 f   qt-mt323:qt-mt323.dll
 0001:00019c8e       ?setMaxLength@QLineEdit@@UAEXH@Z 0041ac8e f   qt-mt323:qt-mt323.dll
 0001:00019c94       ?redo@QLineEdit@@UAEXXZ    0041ac94 f   qt-mt323:qt-mt323.dll
 0001:00019c9a       ?undo@QLineEdit@@UAEXXZ    0041ac9a f   qt-mt323:qt-mt323.dll
 0001:00019ca0       ?clear@QLineEdit@@UAEXXZ   0041aca0 f   qt-mt323:qt-mt323.dll
 0001:00019ca6       ?insert@QLineEdit@@UAEXABVQString@@@Z 0041aca6 f   qt-mt323:qt-mt323.dll
 0001:00019cac       ?clearValidator@QLineEdit@@UAEXXZ 0041acac f   qt-mt323:qt-mt323.dll
 0001:00019cb2       ?deselect@QLineEdit@@UAEXXZ 0041acb2 f   qt-mt323:qt-mt323.dll
 0001:00019cb8       ?selectAll@QLineEdit@@UAEXXZ 0041acb8 f   qt-mt323:qt-mt323.dll
 0001:00019cbe       ?setText@QLineEdit@@UAEXABVQString@@@Z 0041acbe f   qt-mt323:qt-mt323.dll
 0001:00019cc4       ?drawContents@QLineEdit@@MAEXPAVQPainter@@@Z 0041acc4 f   qt-mt323:qt-mt323.dll
 0001:00019cca       ?windowActivationChange@QLineEdit@@MAEX_N@Z 0041acca f   qt-mt323:qt-mt323.dll
 0001:00019cd0       ?dropEvent@QLineEdit@@MAEXPAVQDropEvent@@@Z 0041acd0 f   qt-mt323:qt-mt323.dll
 0001:00019cd6       ?dragLeaveEvent@QLineEdit@@MAEXPAVQDragLeaveEvent@@@Z 0041acd6 f   qt-mt323:qt-mt323.dll
 0001:00019cdc       ?dragMoveEvent@QLineEdit@@MAEXPAVQDragMoveEvent@@@Z 0041acdc f   qt-mt323:qt-mt323.dll
 0001:00019ce2       ?dragEnterEvent@QLineEdit@@MAEXPAVQDragEnterEvent@@@Z 0041ace2 f   qt-mt323:qt-mt323.dll
 0001:00019ce8       ?imEndEvent@QLineEdit@@MAEXPAVQIMEvent@@@Z 0041ace8 f   qt-mt323:qt-mt323.dll
 0001:00019cee       ?imComposeEvent@QLineEdit@@MAEXPAVQIMEvent@@@Z 0041acee f   qt-mt323:qt-mt323.dll
 0001:00019cf4       ?imStartEvent@QLineEdit@@MAEXPAVQIMEvent@@@Z 0041acf4 f   qt-mt323:qt-mt323.dll
 0001:00019cfa       ?contextMenuEvent@QLineEdit@@MAEXPAVQContextMenuEvent@@@Z 0041acfa f   qt-mt323:qt-mt323.dll
 0001:00019d00       ?resizeEvent@QLineEdit@@MAEXPAVQResizeEvent@@@Z 0041ad00 f   qt-mt323:qt-mt323.dll
 0001:00019d06       ?focusOutEvent@QLineEdit@@MAEXPAVQFocusEvent@@@Z 0041ad06 f   qt-mt323:qt-mt323.dll
 0001:00019d0c       ?focusInEvent@QLineEdit@@MAEXPAVQFocusEvent@@@Z 0041ad0c f   qt-mt323:qt-mt323.dll
 0001:00019d12       ?keyPressEvent@QLineEdit@@MAEXPAVQKeyEvent@@@Z 0041ad12 f   qt-mt323:qt-mt323.dll
 0001:00019d18       ?mouseMoveEvent@QLineEdit@@MAEXPAVQMouseEvent@@@Z 0041ad18 f   qt-mt323:qt-mt323.dll
 0001:00019d1e       ?mouseDoubleClickEvent@QLineEdit@@MAEXPAVQMouseEvent@@@Z 0041ad1e f   qt-mt323:qt-mt323.dll
 0001:00019d24       ?mouseReleaseEvent@QLineEdit@@MAEXPAVQMouseEvent@@@Z 0041ad24 f   qt-mt323:qt-mt323.dll
 0001:00019d2a       ?mousePressEvent@QLineEdit@@MAEXPAVQMouseEvent@@@Z 0041ad2a f   qt-mt323:qt-mt323.dll
 0001:00019d30       ?minimumSizeHint@QLineEdit@@UBE?AVQSize@@XZ 0041ad30 f   qt-mt323:qt-mt323.dll
 0001:00019d36       ?sizeHint@QLineEdit@@UBE?AVQSize@@XZ 0041ad36 f   qt-mt323:qt-mt323.dll
 0001:00019d3c       ?setFont@QLineEdit@@UAEXABVQFont@@@Z 0041ad3c f   qt-mt323:qt-mt323.dll
 0001:00019d42       ?setPalette@QLineEdit@@UAEXABVQPalette@@@Z 0041ad42 f   qt-mt323:qt-mt323.dll
 0001:00019d48       ?event@QLineEdit@@MAE_NPAVQEvent@@@Z 0041ad48 f   qt-mt323:qt-mt323.dll
 0001:00019d4e       ?qt_property@QLineEdit@@UAE_NHHPAVQVariant@@@Z 0041ad4e f   qt-mt323:qt-mt323.dll
 0001:00019d54       ?qt_emit@QLineEdit@@UAE_NHPAUQUObject@@@Z 0041ad54 f   qt-mt323:qt-mt323.dll
 0001:00019d5a       ?qt_invoke@QLineEdit@@UAE_NHPAUQUObject@@@Z 0041ad5a f   qt-mt323:qt-mt323.dll
 0001:00019d60       ?qt_cast@QLineEdit@@UAEPAXPBD@Z 0041ad60 f   qt-mt323:qt-mt323.dll
 0001:00019d66       ?className@QLineEdit@@UBEPBDXZ 0041ad66 f   qt-mt323:qt-mt323.dll
 0001:00019d6c       ?metaObject@QLineEdit@@UBEPAVQMetaObject@@XZ 0041ad6c f   qt-mt323:qt-mt323.dll
 0001:00019d72       ?reload@QTextBrowser@@UAEXXZ 0041ad72 f   qt-mt323:qt-mt323.dll
 0001:00019d78       ?home@QTextBrowser@@UAEXXZ 0041ad78 f   qt-mt323:qt-mt323.dll
 0001:00019d7e       ?forward@QTextBrowser@@UAEXXZ 0041ad7e f   qt-mt323:qt-mt323.dll
 0001:00019d84       ?backward@QTextBrowser@@UAEXXZ 0041ad84 f   qt-mt323:qt-mt323.dll
 0001:00019d8a       ?setSource@QTextBrowser@@UAEXABVQString@@@Z 0041ad8a f   qt-mt323:qt-mt323.dll
 0001:00019d90       ?emitLinkClicked@QTextBrowser@@EAEXABVQString@@@Z 0041ad90 f   qt-mt323:qt-mt323.dll
 0001:00019d96       ?emitHighlighted@QTextBrowser@@EAEXABVQString@@@Z 0041ad96 f   qt-mt323:qt-mt323.dll
 0001:00019d9c       ?linksEnabled@QTextBrowser@@EBE_NXZ 0041ad9c f   qt-mt323:qt-mt323.dll
 0001:00019da2       ?setText@QTextBrowser@@UAEXABVQString@@0@Z 0041ada2 f   qt-mt323:qt-mt323.dll
 0001:00019da8       ?keyPressEvent@QTextBrowser@@MAEXPAVQKeyEvent@@@Z 0041ada8 f   qt-mt323:qt-mt323.dll
 0001:00019dae       ?qt_property@QTextBrowser@@UAE_NHHPAVQVariant@@@Z 0041adae f   qt-mt323:qt-mt323.dll
 0001:00019db4       ?qt_emit@QTextBrowser@@UAE_NHPAUQUObject@@@Z 0041adb4 f   qt-mt323:qt-mt323.dll
 0001:00019dba       ?qt_invoke@QTextBrowser@@UAE_NHPAUQUObject@@@Z 0041adba f   qt-mt323:qt-mt323.dll
 0001:00019dc0       ?qt_cast@QTextBrowser@@UAEPAXPBD@Z 0041adc0 f   qt-mt323:qt-mt323.dll
 0001:00019dc6       ?className@QTextBrowser@@UBEPBDXZ 0041adc6 f   qt-mt323:qt-mt323.dll
 0001:00019dcc       ?metaObject@QTextBrowser@@UBEPAVQMetaObject@@XZ 0041adcc f   qt-mt323:qt-mt323.dll
 0001:00019dd2       ?qt_property@QTextEdit@@UAE_NHHPAVQVariant@@@Z 0041add2 f   qt-mt323:qt-mt323.dll
 0001:00019dd8       ?qt_emit@QTextEdit@@UAE_NHPAUQUObject@@@Z 0041add8 f   qt-mt323:qt-mt323.dll
 0001:00019dde       ?qt_invoke@QTextEdit@@UAE_NHPAUQUObject@@@Z 0041adde f   qt-mt323:qt-mt323.dll
 0001:00019de4       ?qt_cast@QTextEdit@@UAEPAXPBD@Z 0041ade4 f   qt-mt323:qt-mt323.dll
 0001:00019dea       ?className@QTextEdit@@UBEPBDXZ 0041adea f   qt-mt323:qt-mt323.dll
 0001:00019df0       ?metaObject@QTextEdit@@UBEPAVQMetaObject@@XZ 0041adf0 f   qt-mt323:qt-mt323.dll
 0001:00019df6       ?fieldAlignment@QDataTable@@MAEHPBVQSqlField@@@Z 0041adf6 f   qt-mt323:qt-mt323.dll
 0001:00019dfc       ?paintField@QDataTable@@MAEXPAVQPainter@@PBVQSqlField@@ABVQRect@@_N@Z 0041adfc f   qt-mt323:qt-mt323.dll
 0001:00019e02       ?beginUpdate@QDataTable@@MAEPAVQWidget@@HH_N@Z 0041ae02 f   qt-mt323:qt-mt323.dll
 0001:00019e08       ?beginInsert@QDataTable@@MAE_NXZ 0041ae08 f   qt-mt323:qt-mt323.dll
 0001:00019e0e       ?handleError@QDataTable@@MAEXABVQSqlError@@@Z 0041ae0e f   qt-mt323:qt-mt323.dll
 0001:00019e14       ?confirmCancel@QDataTable@@MAE?AW4Confirm@QSql@@W4Op@3@@Z 0041ae14 f   qt-mt323:qt-mt323.dll
 0001:00019e1a       ?confirmEdit@QDataTable@@MAE?AW4Confirm@QSql@@W4Op@3@@Z 0041ae1a f   qt-mt323:qt-mt323.dll
 0001:00019e20       ?deleteCurrent@QDataTable@@MAE_NXZ 0041ae20 f   qt-mt323:qt-mt323.dll
 0001:00019e26       ?updateCurrent@QDataTable@@MAE_NXZ 0041ae26 f   qt-mt323:qt-mt323.dll
 0001:00019e2c       ?insertCurrent@QDataTable@@MAE_NXZ 0041ae2c f   qt-mt323:qt-mt323.dll
 0001:00019e32       ?sortDescending@QDataTable@@UAEXH@Z 0041ae32 f   qt-mt323:qt-mt323.dll
 0001:00019e38       ?sortAscending@QDataTable@@UAEXH@Z 0041ae38 f   qt-mt323:qt-mt323.dll
 0001:00019e3e       ?find@QDataTable@@UAEXABVQString@@_N1@Z 0041ae3e f   qt-mt323:qt-mt323.dll
 0001:00019e44       ?refresh@QDataTable@@UAEXXZ 0041ae44 f   qt-mt323:qt-mt323.dll
 0001:00019e4a       ?setSort@QDataTable@@UAEXABVQStringList@@@Z 0041ae4a f   qt-mt323:qt-mt323.dll
 0001:00019e50       ?setSort@QDataTable@@UAEXABVQSqlIndex@@@Z 0041ae50 f   qt-mt323:qt-mt323.dll
 0001:00019e56       ?setFilter@QDataTable@@UAEXABVQString@@@Z 0041ae56 f   qt-mt323:qt-mt323.dll
 0001:00019e5c       ?setAutoEdit@QDataTable@@UAEX_N@Z 0041ae5c f   qt-mt323:qt-mt323.dll
 0001:00019e62       ?setAutoDelete@QDataTable@@UAEX_N@Z 0041ae62 f   qt-mt323:qt-mt323.dll
 0001:00019e68       ?setConfirmCancels@QDataTable@@UAEX_N@Z 0041ae68 f   qt-mt323:qt-mt323.dll
 0001:00019e6e       ?setConfirmDelete@QDataTable@@UAEX_N@Z 0041ae6e f   qt-mt323:qt-mt323.dll
 0001:00019e74       ?setConfirmUpdate@QDataTable@@UAEX_N@Z 0041ae74 f   qt-mt323:qt-mt323.dll
 0001:00019e7a       ?setConfirmInsert@QDataTable@@UAEX_N@Z 0041ae7a f   qt-mt323:qt-mt323.dll
 0001:00019e80       ?setConfirmEdits@QDataTable@@UAEX_N@Z 0041ae80 f   qt-mt323:qt-mt323.dll
 0001:00019e86       ?setDateFormat@QDataTable@@UAEXW4DateFormat@Qt@@@Z 0041ae86 f   qt-mt323:qt-mt323.dll
 0001:00019e8c       ?setFalseText@QDataTable@@UAEXABVQString@@@Z 0041ae8c f   qt-mt323:qt-mt323.dll
 0001:00019e92       ?setTrueText@QDataTable@@UAEXABVQString@@@Z 0041ae92 f   qt-mt323:qt-mt323.dll
 0001:00019e98       ?setNullText@QDataTable@@UAEXABVQString@@@Z 0041ae98 f   qt-mt323:qt-mt323.dll
 0001:00019e9e       ?setSqlCursor@QDataTable@@UAEXPAVQSqlCursor@@_N1@Z 0041ae9e f   qt-mt323:qt-mt323.dll
 0001:00019ea4       ?setColumn@QDataTable@@UAEXIABVQString@@0HABVQIconSet@@@Z 0041aea4 f   qt-mt323:qt-mt323.dll
 0001:00019eaa       ?removeColumn@QDataTable@@UAEXI@Z 0041aeaa f   qt-mt323:qt-mt323.dll
 0001:00019eb0       ?addColumn@QDataTable@@UAEXABVQString@@0HABVQIconSet@@@Z 0041aeb0 f   qt-mt323:qt-mt323.dll
 0001:00019eb6       ?columnClicked@QDataTable@@MAEXH@Z 0041aeb6 f   qt-mt323:qt-mt323.dll
 0001:00019ebc       ?rowIndexChanged@QTable@@MAEXHHH@Z 0041aebc f   qt-mt323:qt-mt323.dll
 0001:00019ec2       ?columnIndexChanged@QTable@@MAEXHHH@Z 0041aec2 f   qt-mt323:qt-mt323.dll
 0001:00019ec8       ?rowHeightChanged@QTable@@MAEXH@Z 0041aec8 f   qt-mt323:qt-mt323.dll
 0001:00019ece       ?columnWidthChanged@QTable@@MAEXH@Z 0041aece f   qt-mt323:qt-mt323.dll
 0001:00019ed4       ?insertWidget@QTable@@MAEXHHPAVQWidget@@@Z 0041aed4 f   qt-mt323:qt-mt323.dll
 0001:00019eda       ?resizeData@QDataTable@@MAEXH@Z 0041aeda f   qt-mt323:qt-mt323.dll
 0001:00019ee0       ?endEdit@QDataTable@@MAEXHH_N0@Z 0041aee0 f   qt-mt323:qt-mt323.dll
 0001:00019ee6       ?beginEdit@QDataTable@@EAEPAVQWidget@@HH_N@Z 0041aee6 f   qt-mt323:qt-mt323.dll
 0001:00019eec       ?setCellContentFromEditor@QTable@@MAEXHH@Z 0041aeec f   qt-mt323:qt-mt323.dll
 0001:00019ef2       ?createEditor@QDataTable@@MBEPAVQWidget@@HH_N@Z 0041aef2 f   qt-mt323:qt-mt323.dll
 0001:00019ef8       ?activateNextCell@QDataTable@@MAEXXZ 0041aef8 f   qt-mt323:qt-mt323.dll
 0001:00019efe       ?paintEmptyArea@QTable@@MAEXPAVQPainter@@HHHH@Z 0041aefe f   qt-mt323:qt-mt323.dll
 0001:00019f04       ?startDrag@QTable@@MAEXXZ  0041af04 f   qt-mt323:qt-mt323.dll
 0001:00019f0a       ?dragObject@QTable@@MAEPAVQDragObject@@XZ 0041af0a f   qt-mt323:qt-mt323.dll
 0001:00019f10       ?editCell@QTable@@UAEXHH_N@Z 0041af10 f   qt-mt323:qt-mt323.dll
 0001:00019f16       ?removeColumns@QTable@@UAEXABV?$QMemArray@H@@@Z 0041af16 f   qt-mt323:qt-mt323.dll
 0001:00019f1c       ?removeColumn@QTable@@UAEXH@Z 0041af1c f   qt-mt323:qt-mt323.dll
 0001:00019f22       ?removeRows@QTable@@UAEXABV?$QMemArray@H@@@Z 0041af22 f   qt-mt323:qt-mt323.dll
 0001:00019f28       ?removeRow@QTable@@UAEXH@Z 0041af28 f   qt-mt323:qt-mt323.dll
 0001:00019f2e       ?insertColumns@QTable@@UAEXHH@Z 0041af2e f   qt-mt323:qt-mt323.dll
 0001:00019f34       ?insertRows@QTable@@UAEXHH@Z 0041af34 f   qt-mt323:qt-mt323.dll
 0001:00019f3a       ?setDragEnabled@QTable@@UAEX_N@Z 0041af3a f   qt-mt323:qt-mt323.dll
 0001:00019f40       ?setColumnReadOnly@QTable@@UAEXH_N@Z 0041af40 f   qt-mt323:qt-mt323.dll
 0001:00019f46       ?setRowReadOnly@QTable@@UAEXH_N@Z 0041af46 f   qt-mt323:qt-mt323.dll
 0001:00019f4c       ?setReadOnly@QTable@@UAEX_N@Z 0041af4c f   qt-mt323:qt-mt323.dll
 0001:00019f52       ?setRowMovingEnabled@QTable@@UAEX_N@Z 0041af52 f   qt-mt323:qt-mt323.dll
 0001:00019f58       ?setColumnMovingEnabled@QTable@@UAEX_N@Z 0041af58 f   qt-mt323:qt-mt323.dll
 0001:00019f5e       ?setCurrentCell@QTable@@UAEXHH@Z 0041af5e f   qt-mt323:qt-mt323.dll
 0001:00019f64       ?setTopMargin@QTable@@UAEXH@Z 0041af64 f   qt-mt323:qt-mt323.dll
 0001:00019f6a       ?setLeftMargin@QTable@@UAEXH@Z 0041af6a f   qt-mt323:qt-mt323.dll
 0001:00019f70       ?swapCells@QTable@@UAEXHHHH@Z 0041af70 f   qt-mt323:qt-mt323.dll
 0001:00019f76       ?swapColumns@QDataTable@@UAEXHH_N@Z 0041af76 f   qt-mt323:qt-mt323.dll
 0001:00019f7c       ?swapRows@QTable@@UAEXHH_N@Z 0041af7c f   qt-mt323:qt-mt323.dll
 0001:00019f82       ?setSorting@QTable@@UAEX_N@Z 0041af82 f   qt-mt323:qt-mt323.dll
 0001:00019f88       ?setRowStretchable@QTable@@UAEXH_N@Z 0041af88 f   qt-mt323:qt-mt323.dll
 0001:00019f8e       ?setColumnStretchable@QDataTable@@UAEXH_N@Z 0041af8e f   qt-mt323:qt-mt323.dll
 0001:00019f94       ?adjustRow@QTable@@UAEXH@Z 0041af94 f   qt-mt323:qt-mt323.dll
 0001:00019f9a       ?adjustColumn@QDataTable@@UAEXH@Z 0041af9a f   qt-mt323:qt-mt323.dll
 0001:00019fa0       ?setRowHeight@QTable@@UAEXHH@Z 0041afa0 f   qt-mt323:qt-mt323.dll
 0001:00019fa6       ?setColumnWidth@QDataTable@@UAEXHH@Z 0041afa6 f   qt-mt323:qt-mt323.dll
 0001:00019fac       ?showColumn@QDataTable@@UAEXH@Z 0041afac f   qt-mt323:qt-mt323.dll
 0001:00019fb2       ?showRow@QTable@@UAEXH@Z   0041afb2 f   qt-mt323:qt-mt323.dll
 0001:00019fb8       ?hideColumn@QDataTable@@UAEXH@Z 0041afb8 f   qt-mt323:qt-mt323.dll
 0001:00019fbe       ?hideRow@QTable@@UAEXH@Z   0041afbe f   qt-mt323:qt-mt323.dll
 0001:00019fc4       ?setShowGrid@QTable@@UAEX_N@Z 0041afc4 f   qt-mt323:qt-mt323.dll
 0001:00019fca       ?setNumCols@QDataTable@@UAEXH@Z 0041afca f   qt-mt323:qt-mt323.dll
 0001:00019fd0       ?setNumRows@QDataTable@@UAEXH@Z 0041afd0 f   qt-mt323:qt-mt323.dll
 0001:00019fd6       ?setFocusStyle@QTable@@UAEXW4FocusStyle@1@@Z 0041afd6 f   qt-mt323:qt-mt323.dll
 0001:00019fdc       ?paintFocus@QTable@@UAEXPAVQPainter@@ABVQRect@@@Z 0041afdc f   qt-mt323:qt-mt323.dll
 0001:00019fe2       ?paintCell@QTable@@UAEXPAVQPainter@@HHABVQRect@@_N@Z 0041afe2 f   qt-mt323:qt-mt323.dll
 0001:00019fe8       ?paintCell@QDataTable@@MAEXPAVQPainter@@HHABVQRect@@_NABVQColorGroup@@@Z 0041afe8 f   qt-mt323:qt-mt323.dll
 0001:00019fee       ?cellRect@QTable@@UBE?AVQRect@@HH@Z 0041afee f   qt-mt323:qt-mt323.dll
 0001:00019ff4       ?clearCellWidget@QTable@@UAEXHH@Z 0041aff4 f   qt-mt323:qt-mt323.dll
 0001:00019ffa       ?cellWidget@QTable@@UBEPAVQWidget@@HH@Z 0041affa f   qt-mt323:qt-mt323.dll
 0001:0001a000       ?setCellWidget@QTable@@UAEXHHPAVQWidget@@@Z 0041b000 f   qt-mt323:qt-mt323.dll
 0001:0001a006       ?takeItem@QDataTable@@MAEXPAVQTableItem@@@Z 0041b006 f   qt-mt323:qt-mt323.dll
 0001:0001a00c       ?sortColumn@QDataTable@@UAEXH_N0@Z 0041b00c f   qt-mt323:qt-mt323.dll
 0001:0001a012       ?currentSelection@QTable@@UBEHXZ 0041b012 f   qt-mt323:qt-mt323.dll
 0001:0001a018       ?removeSelection@QTable@@UAEXABVQTableSelection@@@Z 0041b018 f   qt-mt323:qt-mt323.dll
 0001:0001a01e       ?removeSelection@QTable@@UAEXH@Z 0041b01e f   qt-mt323:qt-mt323.dll
 0001:0001a024       ?addSelection@QTable@@UAEHABVQTableSelection@@@Z 0041b024 f   qt-mt323:qt-mt323.dll
 0001:0001a02a       ?numCols@QDataTable@@UBEHXZ 0041b02a f   qt-mt323:qt-mt323.dll
 0001:0001a030       ?numRows@QDataTable@@UBEHXZ 0041b030 f   qt-mt323:qt-mt323.dll
 0001:0001a036       ?rowAt@QTable@@UBEHH@Z     0041b036 f   qt-mt323:qt-mt323.dll
 0001:0001a03c       ?columnAt@QTable@@UBEHH@Z  0041b03c f   qt-mt323:qt-mt323.dll
 0001:0001a042       ?rowPos@QTable@@UBEHH@Z    0041b042 f   qt-mt323:qt-mt323.dll
 0001:0001a048       ?columnPos@QTable@@UBEHH@Z 0041b048 f   qt-mt323:qt-mt323.dll
 0001:0001a04e       ?rowHeight@QTable@@UBEHH@Z 0041b04e f   qt-mt323:qt-mt323.dll
 0001:0001a054       ?columnWidth@QTable@@UBEHH@Z 0041b054 f   qt-mt323:qt-mt323.dll
 0001:0001a05a       ?cellGeometry@QTable@@UBE?AVQRect@@HH@Z 0041b05a f   qt-mt323:qt-mt323.dll
 0001:0001a060       ?clearCell@QDataTable@@MAEXHH@Z 0041b060 f   qt-mt323:qt-mt323.dll
 0001:0001a066       ?pixmap@QTable@@UBE?AVQPixmap@@HH@Z 0041b066 f   qt-mt323:qt-mt323.dll
 0001:0001a06c       ?text@QDataTable@@UBE?AVQString@@HH@Z 0041b06c f   qt-mt323:qt-mt323.dll
 0001:0001a072       ?item@QDataTable@@MBEPAVQTableItem@@HH@Z 0041b072 f   qt-mt323:qt-mt323.dll
 0001:0001a078       ?setPixmap@QDataTable@@MAEXHHABVQPixmap@@@Z 0041b078 f   qt-mt323:qt-mt323.dll
 0001:0001a07e       ?setText@QTable@@UAEXHHABVQString@@@Z 0041b07e f   qt-mt323:qt-mt323.dll
 0001:0001a084       ?setItem@QDataTable@@MAEXHHPAVQTableItem@@@Z 0041b084 f   qt-mt323:qt-mt323.dll
 0001:0001a08a       ?setSelectionMode@QTable@@UAEXW4SelectionMode@1@@Z 0041b08a f   qt-mt323:qt-mt323.dll
 0001:0001a090       ?viewportResizeEvent@QTable@@MAEXPAVQResizeEvent@@@Z 0041b090 f   qt-mt323:qt-mt323.dll
 0001:0001a096       ?contentsContextMenuEvent@QDataTable@@MAEXPAVQContextMenuEvent@@@Z 0041b096 f   qt-mt323:qt-mt323.dll
 0001:0001a09c       ?contentsDropEvent@QTable@@MAEXPAVQDropEvent@@@Z 0041b09c f   qt-mt323:qt-mt323.dll
 0001:0001a0a2       ?contentsDragLeaveEvent@QTable@@MAEXPAVQDragLeaveEvent@@@Z 0041b0a2 f   qt-mt323:qt-mt323.dll
 0001:0001a0a8       ?contentsDragMoveEvent@QTable@@MAEXPAVQDragMoveEvent@@@Z 0041b0a8 f   qt-mt323:qt-mt323.dll
 0001:0001a0ae       ?contentsDragEnterEvent@QTable@@MAEXPAVQDragEnterEvent@@@Z 0041b0ae f   qt-mt323:qt-mt323.dll
 0001:0001a0b4       ?contentsMouseMoveEvent@QTable@@MAEXPAVQMouseEvent@@@Z 0041b0b4 f   qt-mt323:qt-mt323.dll
 0001:0001a0ba       ?contentsMouseDoubleClickEvent@QTable@@MAEXPAVQMouseEvent@@@Z 0041b0ba f   qt-mt323:qt-mt323.dll
 0001:0001a0c0       ?contentsMouseReleaseEvent@QTable@@MAEXPAVQMouseEvent@@@Z 0041b0c0 f   qt-mt323:qt-mt323.dll
 0001:0001a0c6       ?contentsMousePressEvent@QDataTable@@MAEXPAVQMouseEvent@@@Z 0041b0c6 f   qt-mt323:qt-mt323.dll
 0001:0001a0cc       ?drawContents@QDataTable@@MAEXPAVQPainter@@HHHH@Z 0041b0cc f   qt-mt323:qt-mt323.dll
 0001:0001a0d2       ?drawContents@QTable@@EAEXPAVQPainter@@@Z 0041b0d2 f   qt-mt323:qt-mt323.dll
 0001:0001a0d8       ?windowActivationChange@QTable@@MAEX_N@Z 0041b0d8 f   qt-mt323:qt-mt323.dll
 0001:0001a0de       ?showEvent@QTable@@MAEXPAVQShowEvent@@@Z 0041b0de f   qt-mt323:qt-mt323.dll
 0001:0001a0e4       ?resizeEvent@QDataTable@@MAEXPAVQResizeEvent@@@Z 0041b0e4 f   qt-mt323:qt-mt323.dll
 0001:0001a0ea       ?paintEvent@QTable@@MAEXPAVQPaintEvent@@@Z 0041b0ea f   qt-mt323:qt-mt323.dll
 0001:0001a0f0       ?focusOutEvent@QTable@@MAEXPAVQFocusEvent@@@Z 0041b0f0 f   qt-mt323:qt-mt323.dll
 0001:0001a0f6       ?focusInEvent@QTable@@MAEXPAVQFocusEvent@@@Z 0041b0f6 f   qt-mt323:qt-mt323.dll
 0001:0001a0fc       ?keyPressEvent@QDataTable@@MAEXPAVQKeyEvent@@@Z 0041b0fc f   qt-mt323:qt-mt323.dll
 0001:0001a102       ?sizeHint@QTable@@UBE?AVQSize@@XZ 0041b102 f   qt-mt323:qt-mt323.dll
 0001:0001a108       ?setEnabled@QTable@@UAEX_N@Z 0041b108 f   qt-mt323:qt-mt323.dll
 0001:0001a10e       ?eventFilter@QDataTable@@MAE_NPAVQObject@@PAVQEvent@@@Z 0041b10e f   qt-mt323:qt-mt323.dll
 0001:0001a114       ?qt_property@QDataTable@@UAE_NHHPAVQVariant@@@Z 0041b114 f   qt-mt323:qt-mt323.dll
 0001:0001a11a       ?qt_emit@QDataTable@@UAE_NHPAUQUObject@@@Z 0041b11a f   qt-mt323:qt-mt323.dll
 0001:0001a120       ?qt_invoke@QDataTable@@UAE_NHPAUQUObject@@@Z 0041b120 f   qt-mt323:qt-mt323.dll
 0001:0001a126       ?qt_cast@QDataTable@@UAEPAXPBD@Z 0041b126 f   qt-mt323:qt-mt323.dll
 0001:0001a12c       ?className@QDataTable@@UBEPBDXZ 0041b12c f   qt-mt323:qt-mt323.dll
 0001:0001a132       ?metaObject@QDataTable@@UBEPAVQMetaObject@@XZ 0041b132 f   qt-mt323:qt-mt323.dll
 0001:0001a138       ?frameChanged@QHBox@@MAEXXZ 0041b138 f   qt-mt323:qt-mt323.dll
 0001:0001a13e       ?sizeHint@QHBox@@UBE?AVQSize@@XZ 0041b13e f   qt-mt323:qt-mt323.dll
 0001:0001a144       ?qt_property@QHBox@@UAE_NHHPAVQVariant@@@Z 0041b144 f   qt-mt323:qt-mt323.dll
 0001:0001a14a       ?qt_emit@QHBox@@UAE_NHPAUQUObject@@@Z 0041b14a f   qt-mt323:qt-mt323.dll
 0001:0001a150       ?qt_invoke@QHBox@@UAE_NHPAUQUObject@@@Z 0041b150 f   qt-mt323:qt-mt323.dll
 0001:0001a156       ?qt_cast@QHBox@@UAEPAXPBD@Z 0041b156 f   qt-mt323:qt-mt323.dll
 0001:0001a15c       ?className@QHBox@@UBEPBDXZ 0041b15c f   qt-mt323:qt-mt323.dll
 0001:0001a162       ?metaObject@QHBox@@UBEPAVQMetaObject@@XZ 0041b162 f   qt-mt323:qt-mt323.dll
 0001:0001a168       ?event@QGroupBox@@MAE_NPAVQEvent@@@Z 0041b168 f   qt-mt323:qt-mt323.dll
 0001:0001a16e       ?qt_property@QGroupBox@@UAE_NHHPAVQVariant@@@Z 0041b16e f   qt-mt323:qt-mt323.dll
 0001:0001a174       ?qt_emit@QGroupBox@@UAE_NHPAUQUObject@@@Z 0041b174 f   qt-mt323:qt-mt323.dll
 0001:0001a17a       ?qt_invoke@QGroupBox@@UAE_NHPAUQUObject@@@Z 0041b17a f   qt-mt323:qt-mt323.dll
 0001:0001a180       ?qt_cast@QGroupBox@@UAEPAXPBD@Z 0041b180 f   qt-mt323:qt-mt323.dll
 0001:0001a186       ?className@QGroupBox@@UBEPBDXZ 0041b186 f   qt-mt323:qt-mt323.dll
 0001:0001a18c       ?metaObject@QGroupBox@@UBEPAVQMetaObject@@XZ 0041b18c f   qt-mt323:qt-mt323.dll
 0001:0001a192       ?rangeChange@QDial@@MAEXXZ 0041b192 f   qt-mt323:qt-mt323.dll
 0001:0001a198       ?valueChange@QDial@@MAEXXZ 0041b198 f   qt-mt323:qt-mt323.dll
 0001:0001a19e       ?repaintScreen@QDial@@MAEXPBVQRect@@@Z 0041b19e f   qt-mt323:qt-mt323.dll
 0001:0001a1a4       ?setTracking@QDial@@UAEX_N@Z 0041b1a4 f   qt-mt323:qt-mt323.dll
 0001:0001a1aa       ?setWrapping@QDial@@UAEX_N@Z 0041b1aa f   qt-mt323:qt-mt323.dll
 0001:0001a1b0       ?setNotchesVisible@QDial@@UAEX_N@Z 0041b1b0 f   qt-mt323:qt-mt323.dll
 0001:0001a1b6       ?setValue@QDial@@UAEXH@Z   0041b1b6 f   qt-mt323:qt-mt323.dll
 0001:0001a1bc       ?setNotchTarget@QDial@@UAEXN@Z 0041b1bc f   qt-mt323:qt-mt323.dll
 0001:0001a1c2       ?resizeEvent@QDial@@MAEXPAVQResizeEvent@@@Z 0041b1c2 f   qt-mt323:qt-mt323.dll
 0001:0001a1c8       ?paintEvent@QDial@@MAEXPAVQPaintEvent@@@Z 0041b1c8 f   qt-mt323:qt-mt323.dll
 0001:0001a1ce       ?focusOutEvent@QDial@@MAEXPAVQFocusEvent@@@Z 0041b1ce f   qt-mt323:qt-mt323.dll
 0001:0001a1d4       ?focusInEvent@QDial@@MAEXPAVQFocusEvent@@@Z 0041b1d4 f   qt-mt323:qt-mt323.dll
 0001:0001a1da       ?keyPressEvent@QDial@@MAEXPAVQKeyEvent@@@Z 0041b1da f   qt-mt323:qt-mt323.dll
 0001:0001a1e0       ?wheelEvent@QDial@@MAEXPAVQWheelEvent@@@Z 0041b1e0 f   qt-mt323:qt-mt323.dll
 0001:0001a1e6       ?mouseMoveEvent@QDial@@MAEXPAVQMouseEvent@@@Z 0041b1e6 f   qt-mt323:qt-mt323.dll
 0001:0001a1ec       ?mouseReleaseEvent@QDial@@MAEXPAVQMouseEvent@@@Z 0041b1ec f   qt-mt323:qt-mt323.dll
 0001:0001a1f2       ?mousePressEvent@QDial@@MAEXPAVQMouseEvent@@@Z 0041b1f2 f   qt-mt323:qt-mt323.dll
 0001:0001a1f8       ?minimumSizeHint@QDial@@UBE?AVQSize@@XZ 0041b1f8 f   qt-mt323:qt-mt323.dll
 0001:0001a1fe       ?sizeHint@QDial@@UBE?AVQSize@@XZ 0041b1fe f   qt-mt323:qt-mt323.dll
 0001:0001a204       ?qt_property@QDial@@UAE_NHHPAVQVariant@@@Z 0041b204 f   qt-mt323:qt-mt323.dll
 0001:0001a20a       ?qt_emit@QDial@@UAE_NHPAUQUObject@@@Z 0041b20a f   qt-mt323:qt-mt323.dll
 0001:0001a210       ?qt_invoke@QDial@@UAE_NHPAUQUObject@@@Z 0041b210 f   qt-mt323:qt-mt323.dll
 0001:0001a216       ?qt_cast@QDial@@UAEPAXPBD@Z 0041b216 f   qt-mt323:qt-mt323.dll
 0001:0001a21c       ?className@QDial@@UBEPBDXZ 0041b21c f   qt-mt323:qt-mt323.dll
 0001:0001a222       ?metaObject@QDial@@UBEPAVQMetaObject@@XZ 0041b222 f   qt-mt323:qt-mt323.dll
 0001:0001a228       ?itemRemoved@QToolBox@@MAEXH@Z 0041b228 f   qt-mt323:qt-mt323.dll
 0001:0001a22e       ?itemInserted@QToolBox@@MAEXH@Z 0041b22e f   qt-mt323:qt-mt323.dll
 0001:0001a234       ?frameChanged@QToolBox@@MAEXXZ 0041b234 f   qt-mt323:qt-mt323.dll
 0001:0001a23a       ?styleChange@QToolBox@@MAEXAAVQStyle@@@Z 0041b23a f   qt-mt323:qt-mt323.dll
 0001:0001a240       ?showEvent@QToolBox@@MAEXPAVQShowEvent@@@Z 0041b240 f   qt-mt323:qt-mt323.dll
 0001:0001a246       ?sizeHint@QFrame@@UBE?AVQSize@@XZ 0041b246 f   qt-mt323:qt-mt323.dll
 0001:0001a24c       ?qt_property@QToolBox@@UAE_NHHPAVQVariant@@@Z 0041b24c f   qt-mt323:qt-mt323.dll
 0001:0001a252       ?qt_emit@QToolBox@@UAE_NHPAUQUObject@@@Z 0041b252 f   qt-mt323:qt-mt323.dll
 0001:0001a258       ?qt_invoke@QToolBox@@UAE_NHPAUQUObject@@@Z 0041b258 f   qt-mt323:qt-mt323.dll
 0001:0001a25e       ?qt_cast@QToolBox@@UAEPAXPBD@Z 0041b25e f   qt-mt323:qt-mt323.dll
 0001:0001a264       ?className@QToolBox@@UBEPBDXZ 0041b264 f   qt-mt323:qt-mt323.dll
 0001:0001a26a       ?metaObject@QToolBox@@UBEPAVQMetaObject@@XZ 0041b26a f   qt-mt323:qt-mt323.dll
 0001:0001a270       ?stepChange@QRangeControl@@MAEXXZ 0041b270 f   qt-mt323:qt-mt323.dll
 0001:0001a276       ?rangeChange@QSpinBox@@MAEXXZ 0041b276 f   qt-mt323:qt-mt323.dll
 0001:0001a27c       ?valueChange@QSpinBox@@MAEXXZ 0041b27c f   qt-mt323:qt-mt323.dll
 0001:0001a282       ?interpretText@QSpinBox@@MAEXXZ 0041b282 f   qt-mt323:qt-mt323.dll
 0001:0001a288       ?updateDisplay@QSpinBox@@MAEXXZ 0041b288 f   qt-mt323:qt-mt323.dll
 0001:0001a28e       ?mapTextToValue@QSpinBox@@MAEHPA_N@Z 0041b28e f   qt-mt323:qt-mt323.dll
 0001:0001a294       ?mapValueToText@QSpinBox@@MAE?AVQString@@H@Z 0041b294 f   qt-mt323:qt-mt323.dll
 0001:0001a29a       ?selectAll@QSpinBox@@UAEXXZ 0041b29a f   qt-mt323:qt-mt323.dll
 0001:0001a2a0       ?stepDown@QSpinBox@@UAEXXZ 0041b2a0 f   qt-mt323:qt-mt323.dll
 0001:0001a2a6       ?stepUp@QSpinBox@@UAEXXZ   0041b2a6 f   qt-mt323:qt-mt323.dll
 0001:0001a2ac       ?setSuffix@QSpinBox@@UAEXABVQString@@@Z 0041b2ac f   qt-mt323:qt-mt323.dll
 0001:0001a2b2       ?setPrefix@QSpinBox@@UAEXABVQString@@@Z 0041b2b2 f   qt-mt323:qt-mt323.dll
 0001:0001a2b8       ?setValue@QSpinBox@@UAEXH@Z 0041b2b8 f   qt-mt323:qt-mt323.dll
 0001:0001a2be       ?setValidator@QSpinBox@@UAEXPBVQValidator@@@Z 0041b2be f   qt-mt323:qt-mt323.dll
 0001:0001a2c4       ?setButtonSymbols@QSpinBox@@UAEXW4ButtonSymbols@1@@Z 0041b2c4 f   qt-mt323:qt-mt323.dll
 0001:0001a2ca       ?setWrapping@QSpinBox@@UAEX_N@Z 0041b2ca f   qt-mt323:qt-mt323.dll
 0001:0001a2d0       ?setSpecialValueText@QSpinBox@@UAEXABVQString@@@Z 0041b2d0 f   qt-mt323:qt-mt323.dll
 0001:0001a2d6       ?cleanText@QSpinBox@@UBE?AVQString@@XZ 0041b2d6 f   qt-mt323:qt-mt323.dll
 0001:0001a2dc       ?suffix@QSpinBox@@UBE?AVQString@@XZ 0041b2dc f   qt-mt323:qt-mt323.dll
 0001:0001a2e2       ?prefix@QSpinBox@@UBE?AVQString@@XZ 0041b2e2 f   qt-mt323:qt-mt323.dll
 0001:0001a2e8       ?styleChange@QSpinBox@@MAEXAAVQStyle@@@Z 0041b2e8 f   qt-mt323:qt-mt323.dll
 0001:0001a2ee       ?resizeEvent@QSpinBox@@MAEXPAVQResizeEvent@@@Z 0041b2ee f   qt-mt323:qt-mt323.dll
 0001:0001a2f4       ?leaveEvent@QSpinBox@@MAEXPAVQEvent@@@Z 0041b2f4 f   qt-mt323:qt-mt323.dll
 0001:0001a2fa       ?wheelEvent@QSpinBox@@MAEXPAVQWheelEvent@@@Z 0041b2fa f   qt-mt323:qt-mt323.dll
 0001:0001a300       ?minimumSizeHint@QSpinBox@@UBE?AVQSize@@XZ 0041b300 f   qt-mt323:qt-mt323.dll
 0001:0001a306       ?sizeHint@QSpinBox@@UBE?AVQSize@@XZ 0041b306 f   qt-mt323:qt-mt323.dll
 0001:0001a30c       ?setEnabled@QSpinBox@@UAEX_N@Z 0041b30c f   qt-mt323:qt-mt323.dll
 0001:0001a312       ?eventFilter@QSpinBox@@MAE_NPAVQObject@@PAVQEvent@@@Z 0041b312 f   qt-mt323:qt-mt323.dll
 0001:0001a318       ?qt_property@QSpinBox@@UAE_NHHPAVQVariant@@@Z 0041b318 f   qt-mt323:qt-mt323.dll
 0001:0001a31e       ?qt_emit@QSpinBox@@UAE_NHPAUQUObject@@@Z 0041b31e f   qt-mt323:qt-mt323.dll
 0001:0001a324       ?qt_invoke@QSpinBox@@UAE_NHPAUQUObject@@@Z 0041b324 f   qt-mt323:qt-mt323.dll
 0001:0001a32a       ?qt_cast@QSpinBox@@UAEPAXPBD@Z 0041b32a f   qt-mt323:qt-mt323.dll
 0001:0001a330       ?className@QSpinBox@@UBEPBDXZ 0041b330 f   qt-mt323:qt-mt323.dll
 0001:0001a336       ?metaObject@QSpinBox@@UBEPAVQMetaObject@@XZ 0041b336 f   qt-mt323:qt-mt323.dll
 0001:0001a33c       ?emitLinkClicked@QTextEdit@@EAEXABVQString@@@Z 0041b33c f   qt-mt323:qt-mt323.dll
 0001:0001a342       ?emitHighlighted@QTextEdit@@EAEXABVQString@@@Z 0041b342 f   qt-mt323:qt-mt323.dll
 0001:0001a348       ?linksEnabled@QTextEdit@@EBE_NXZ 0041b348 f   qt-mt323:qt-mt323.dll
 0001:0001a34e       ?doChangeInterval@QTextEdit@@MAEXXZ 0041b34e f   qt-mt323:qt-mt323.dll
 0001:0001a354       ?createPopupMenu@QTextEdit@@MAEPAVQPopupMenu@@ABVQPoint@@@Z 0041b354 f   qt-mt323:qt-mt323.dll
 0001:0001a35a       ?createPopupMenu@QTextEdit@@MAEPAVQPopupMenu@@XZ 0041b35a f   qt-mt323:qt-mt323.dll
 0001:0001a360       ?setUndoRedoEnabled@QTextEdit@@UAEX_N@Z 0041b360 f   qt-mt323:qt-mt323.dll
 0001:0001a366       ?clearParagraphBackground@QTextEdit@@UAEXH@Z 0041b366 f   qt-mt323:qt-mt323.dll
 0001:0001a36c       ?setParagraphBackgroundColor@QTextEdit@@UAEXHABVQColor@@@Z 0041b36c f   qt-mt323:qt-mt323.dll
 0001:0001a372       ?insertParagraph@QTextEdit@@UAEXABVQString@@H@Z 0041b372 f   qt-mt323:qt-mt323.dll
 0001:0001a378       ?removeParagraph@QTextEdit@@UAEXH@Z 0041b378 f   qt-mt323:qt-mt323.dll
 0001:0001a37e       ?insertAt@QTextEdit@@UAEXABVQString@@HH@Z 0041b37e f   qt-mt323:qt-mt323.dll
 0001:0001a384       ?insert@QTextEdit@@UAEXABVQString@@_N11@Z 0041b384 f   qt-mt323:qt-mt323.dll
 0001:0001a38a       ?scrollToBottom@QTextEdit@@UAEXXZ 0041b38a f   qt-mt323:qt-mt323.dll
 0001:0001a390       ?setOverwriteMode@QTextEdit@@UAEX_N@Z 0041b390 f   qt-mt323:qt-mt323.dll
 0001:0001a396       ?setCurrentFont@QTextEdit@@UAEXABVQFont@@@Z 0041b396 f   qt-mt323:qt-mt323.dll
 0001:0001a39c       ?removeSelection@QTextEdit@@UAEXH@Z 0041b39c f   qt-mt323:qt-mt323.dll
 0001:0001a3a2       ?removeSelectedText@QTextEdit@@UAEXH@Z 0041b3a2 f   qt-mt323:qt-mt323.dll
 0001:0001a3a8       ?doKeyboardAction@QTextEdit@@UAEXW4KeyboardAction@1@@Z 0041b3a8 f   qt-mt323:qt-mt323.dll
 0001:0001a3ae       ?moveCursor@QTextEdit@@UAEXW4CursorAction@1@_N@Z 0041b3ae f   qt-mt323:qt-mt323.dll
 0001:0001a3b4       ?placeCursor@QTextEdit@@UAEXABVQPoint@@PAVQTextCursor@@@Z 0041b3b4 f   qt-mt323:qt-mt323.dll
 0001:0001a3ba       ?ensureCursorVisible@QTextEdit@@UAEXXZ 0041b3ba f   qt-mt323:qt-mt323.dll
 0001:0001a3c0       ?setFormat@QTextEdit@@UAEXPAVQTextFormat@@H@Z 0041b3c0 f   qt-mt323:qt-mt323.dll
 0001:0001a3c6       ?setUndoDepth@QTextEdit@@UAEXH@Z 0041b3c6 f   qt-mt323:qt-mt323.dll
 0001:0001a3cc       ?resetFormat@QTextEdit@@UAEXXZ 0041b3cc f   qt-mt323:qt-mt323.dll
 0001:0001a3d2       ?setModified@QTextEdit@@UAEX_N@Z 0041b3d2 f   qt-mt323:qt-mt323.dll
 0001:0001a3d8       ?setSelectionAttributes@QTextEdit@@UAEXHABVQColor@@_N@Z 0041b3d8 f   qt-mt323:qt-mt323.dll
 0001:0001a3de       ?setSelection@QTextEdit@@UAEXHHHHH@Z 0041b3de f   qt-mt323:qt-mt323.dll
 0001:0001a3e4       ?setCursorPosition@QTextEdit@@UAEXHH@Z 0041b3e4 f   qt-mt323:qt-mt323.dll
 0001:0001a3ea       ?setParagType@QTextEdit@@UAEXW4DisplayMode@QStyleSheetItem@@W4ListStyle@3@@Z 0041b3ea f   qt-mt323:qt-mt323.dll
 0001:0001a3f0       ?setAlignment@QTextEdit@@UAEXH@Z 0041b3f0 f   qt-mt323:qt-mt323.dll
 0001:0001a3f6       ?setVerticalAlignment@QTextEdit@@UAEXW4VerticalAlignment@1@@Z 0041b3f6 f   qt-mt323:qt-mt323.dll
 0001:0001a3fc       ?setColor@QTextEdit@@UAEXABVQColor@@@Z 0041b3fc f   qt-mt323:qt-mt323.dll
 0001:0001a402       ?setPointSize@QTextEdit@@UAEXH@Z 0041b402 f   qt-mt323:qt-mt323.dll
 0001:0001a408       ?setFamily@QTextEdit@@UAEXABVQString@@@Z 0041b408 f   qt-mt323:qt-mt323.dll
 0001:0001a40e       ?setUnderline@QTextEdit@@UAEX_N@Z 0041b40e f   qt-mt323:qt-mt323.dll
 0001:0001a414       ?setBold@QTextEdit@@UAEX_N@Z 0041b414 f   qt-mt323:qt-mt323.dll
 0001:0001a41a       ?setItalic@QTextEdit@@UAEX_N@Z 0041b41a f   qt-mt323:qt-mt323.dll
 0001:0001a420       ?indent@QTextEdit@@UAEXXZ  0041b420 f   qt-mt323:qt-mt323.dll
 0001:0001a426       ?del@QTextEdit@@UAEXXZ     0041b426 f   qt-mt323:qt-mt323.dll
 0001:0001a42c       ?clear@QTextEdit@@UAEXXZ   0041b42c f   qt-mt323:qt-mt323.dll
 0001:0001a432       ?pasteSubType@QTextEdit@@UAEXABVQCString@@@Z 0041b432 f   qt-mt323:qt-mt323.dll
 0001:0001a438       ?paste@QTextEdit@@UAEXXZ   0041b438 f   qt-mt323:qt-mt323.dll
 0001:0001a43e       ?cut@QTextEdit@@UAEXXZ     0041b43e f   qt-mt323:qt-mt323.dll
 0001:0001a444       ?redo@QTextEdit@@UAEXXZ    0041b444 f   qt-mt323:qt-mt323.dll
 0001:0001a44a       ?undo@QTextEdit@@UAEXXZ    0041b44a f   qt-mt323:qt-mt323.dll
 0001:0001a450       ?setReadOnly@QTextEdit@@UAEX_N@Z 0041b450 f   qt-mt323:qt-mt323.dll
 0001:0001a456       ?sync@QTextEdit@@UAEXXZ    0041b456 f   qt-mt323:qt-mt323.dll
 0001:0001a45c       ?zoomTo@QTextEdit@@UAEXH@Z 0041b45c f   qt-mt323:qt-mt323.dll
 0001:0001a462       ?zoomOut@QTextEdit@@UAEXH@Z 0041b462 f   qt-mt323:qt-mt323.dll
 0001:0001a468       ?zoomOut@QTextEdit@@UAEXXZ 0041b468 f   qt-mt323:qt-mt323.dll
 0001:0001a46e       ?zoomIn@QTextEdit@@UAEXH@Z 0041b46e f   qt-mt323:qt-mt323.dll
 0001:0001a474       ?zoomIn@QTextEdit@@UAEXXZ  0041b474 f   qt-mt323:qt-mt323.dll
 0001:0001a47a       ?setTabStopWidth@QTextEdit@@UAEXH@Z 0041b47a f   qt-mt323:qt-mt323.dll
 0001:0001a480       ?selectAll@QTextEdit@@UAEX_N@Z 0041b480 f   qt-mt323:qt-mt323.dll
 0001:0001a486       ?setTextFormat@QTextEdit@@UAEXW4TextFormat@Qt@@@Z 0041b486 f   qt-mt323:qt-mt323.dll
 0001:0001a48c       ?setText@QTextEdit@@UAEXABVQString@@0@Z 0041b48c f   qt-mt323:qt-mt323.dll
 0001:0001a492       ?append@QTextEdit@@UAEXABVQString@@@Z 0041b492 f   qt-mt323:qt-mt323.dll
 0001:0001a498       ?copy@QTextEdit@@UAEXXZ    0041b498 f   qt-mt323:qt-mt323.dll
 0001:0001a49e       ?setWrapPolicy@QTextEdit@@UAEXW4WrapPolicy@1@@Z 0041b49e f   qt-mt323:qt-mt323.dll
 0001:0001a4a4       ?setWrapColumnOrWidth@QTextEdit@@UAEXH@Z 0041b4a4 f   qt-mt323:qt-mt323.dll
 0001:0001a4aa       ?setWordWrap@QTextEdit@@UAEXW4WordWrap@1@@Z 0041b4aa f   qt-mt323:qt-mt323.dll
 0001:0001a4b0       ?setLinkUnderline@QTextEdit@@UAEX_N@Z 0041b4b0 f   qt-mt323:qt-mt323.dll
 0001:0001a4b6       ?setPaper@QTextEdit@@UAEXABVQBrush@@@Z 0041b4b6 f   qt-mt323:qt-mt323.dll
 0001:0001a4bc       ?scrollToAnchor@QTextEdit@@UAEXABVQString@@@Z 0041b4bc f   qt-mt323:qt-mt323.dll
 0001:0001a4c2       ?setStyleSheet@QTextEdit@@UAEXPAVQStyleSheet@@@Z 0041b4c2 f   qt-mt323:qt-mt323.dll
 0001:0001a4c8       ?setMimeSourceFactory@QTextEdit@@UAEXPAVQMimeSourceFactory@@@Z 0041b4c8 f   qt-mt323:qt-mt323.dll
 0001:0001a4ce       ?getParagraphFormat@QTextEdit@@UAE_NHPAVQFont@@PAVQColor@@PAW4VerticalAlignment@1@PAHPAW4DisplayMode@QStyleSheetItem@@PAW4ListStyle@6@3@Z 0041b4ce f   qt-mt323:qt-mt323.dll
 0001:0001a4d4       ?getFormat@QTextEdit@@UAE_NHHPAVQFont@@PAVQColor@@PAW4VerticalAlignment@1@@Z 0041b4d4 f   qt-mt323:qt-mt323.dll
 0001:0001a4da       ?find@QTextEdit@@UAE_NABVQString@@_N11PAH2@Z 0041b4da f   qt-mt323:qt-mt323.dll
 0001:0001a4e0       ?viewportResizeEvent@QTextEdit@@MAEXPAVQResizeEvent@@@Z 0041b4e0 f   qt-mt323:qt-mt323.dll
 0001:0001a4e6       ?viewportPaintEvent@QScrollView@@MAEXPAVQPaintEvent@@@Z 0041b4e6 f   qt-mt323:qt-mt323.dll
 0001:0001a4ec       ?contentsContextMenuEvent@QTextEdit@@MAEXPAVQContextMenuEvent@@@Z 0041b4ec f   qt-mt323:qt-mt323.dll
 0001:0001a4f2       ?contentsWheelEvent@QTextEdit@@MAEXPAVQWheelEvent@@@Z 0041b4f2 f   qt-mt323:qt-mt323.dll
 0001:0001a4f8       ?contentsDropEvent@QTextEdit@@MAEXPAVQDropEvent@@@Z 0041b4f8 f   qt-mt323:qt-mt323.dll
 0001:0001a4fe       ?contentsDragLeaveEvent@QTextEdit@@MAEXPAVQDragLeaveEvent@@@Z 0041b4fe f   qt-mt323:qt-mt323.dll
 0001:0001a504       ?contentsDragMoveEvent@QTextEdit@@MAEXPAVQDragMoveEvent@@@Z 0041b504 f   qt-mt323:qt-mt323.dll
 0001:0001a50a       ?contentsDragEnterEvent@QTextEdit@@MAEXPAVQDragEnterEvent@@@Z 0041b50a f   qt-mt323:qt-mt323.dll
 0001:0001a510       ?contentsMouseMoveEvent@QTextEdit@@MAEXPAVQMouseEvent@@@Z 0041b510 f   qt-mt323:qt-mt323.dll
 0001:0001a516       ?contentsMouseDoubleClickEvent@QTextEdit@@MAEXPAVQMouseEvent@@@Z 0041b516 f   qt-mt323:qt-mt323.dll
 0001:0001a51c       ?contentsMouseReleaseEvent@QTextEdit@@MAEXPAVQMouseEvent@@@Z 0041b51c f   qt-mt323:qt-mt323.dll
 0001:0001a522       ?contentsMousePressEvent@QTextEdit@@MAEXPAVQMouseEvent@@@Z 0041b522 f   qt-mt323:qt-mt323.dll
 0001:0001a528       ?drawContents@QTextEdit@@MAEXPAVQPainter@@HHHH@Z 0041b528 f   qt-mt323:qt-mt323.dll
 0001:0001a52e       ?drawContents@QTextEdit@@EAEXPAVQPainter@@@Z 0041b52e f   qt-mt323:qt-mt323.dll
 0001:0001a534       ?focusNextPrevChild@QTextEdit@@MAE_N_N@Z 0041b534 f   qt-mt323:qt-mt323.dll
 0001:0001a53a       ?windowActivationChange@QTextEdit@@MAEX_N@Z 0041b53a f   qt-mt323:qt-mt323.dll
 0001:0001a540       ?imEndEvent@QTextEdit@@MAEXPAVQIMEvent@@@Z 0041b540 f   qt-mt323:qt-mt323.dll
 0001:0001a546       ?imComposeEvent@QTextEdit@@MAEXPAVQIMEvent@@@Z 0041b546 f   qt-mt323:qt-mt323.dll
 0001:0001a54c       ?imStartEvent@QTextEdit@@MAEXPAVQIMEvent@@@Z 0041b54c f   qt-mt323:qt-mt323.dll
 0001:0001a552       ?resizeEvent@QTextEdit@@MAEXPAVQResizeEvent@@@Z 0041b552 f   qt-mt323:qt-mt323.dll
 0001:0001a558       ?keyPressEvent@QTextEdit@@MAEXPAVQKeyEvent@@@Z 0041b558 f   qt-mt323:qt-mt323.dll
 0001:0001a55e       ?mouseMoveEvent@QScrollView@@MAEXPAVQMouseEvent@@@Z 0041b55e f   qt-mt323:qt-mt323.dll
 0001:0001a564       ?mouseDoubleClickEvent@QScrollView@@MAEXPAVQMouseEvent@@@Z 0041b564 f   qt-mt323:qt-mt323.dll
 0001:0001a56a       ?mouseReleaseEvent@QScrollView@@MAEXPAVQMouseEvent@@@Z 0041b56a f   qt-mt323:qt-mt323.dll
 0001:0001a570       ?mousePressEvent@QScrollView@@MAEXPAVQMouseEvent@@@Z 0041b570 f   qt-mt323:qt-mt323.dll
 0001:0001a576       ?heightForWidth@QTextEdit@@UBEHH@Z 0041b576 f   qt-mt323:qt-mt323.dll
 0001:0001a57c       ?minimumSizeHint@QScrollView@@UBE?AVQSize@@XZ 0041b57c f   qt-mt323:qt-mt323.dll
 0001:0001a582       ?sizeHint@QTextEdit@@UBE?AVQSize@@XZ 0041b582 f   qt-mt323:qt-mt323.dll
 0001:0001a588       ?polish@QTextEdit@@UAEXXZ  0041b588 f   qt-mt323:qt-mt323.dll
 0001:0001a58e       ?setFont@QTextEdit@@UAEXABVQFont@@@Z 0041b58e f   qt-mt323:qt-mt323.dll
 0001:0001a594       ?setPalette@QTextEdit@@UAEXABVQPalette@@@Z 0041b594 f   qt-mt323:qt-mt323.dll
 0001:0001a59a       ?setEnabled@QTextEdit@@UAEX_N@Z 0041b59a f   qt-mt323:qt-mt323.dll
 0001:0001a5a0       ?eventFilter@QTextEdit@@UAE_NPAVQObject@@PAVQEvent@@@Z 0041b5a0 f   qt-mt323:qt-mt323.dll
 0001:0001a5a6       ?event@QTextEdit@@MAE_NPAVQEvent@@@Z 0041b5a6 f   qt-mt323:qt-mt323.dll
 0001:0001a5ac       ?qt_property@QTextView@@UAE_NHHPAVQVariant@@@Z 0041b5ac f   qt-mt323:qt-mt323.dll
 0001:0001a5b2       ?qt_emit@QTextView@@UAE_NHPAUQUObject@@@Z 0041b5b2 f   qt-mt323:qt-mt323.dll
 0001:0001a5b8       ?qt_invoke@QTextView@@UAE_NHPAUQUObject@@@Z 0041b5b8 f   qt-mt323:qt-mt323.dll
 0001:0001a5be       ?qt_cast@QTextView@@UAEPAXPBD@Z 0041b5be f   qt-mt323:qt-mt323.dll
 0001:0001a5c4       ?className@QTextView@@UBEPBDXZ 0041b5c4 f   qt-mt323:qt-mt323.dll
 0001:0001a5ca       ?metaObject@QTextView@@UBEPAVQMetaObject@@XZ 0041b5ca f   qt-mt323:qt-mt323.dll
 0001:0001a5d0       ?setSecond@QTimeEdit@@MAEXH@Z 0041b5d0 f   qt-mt323:qt-mt323.dll
 0001:0001a5d6       ?setMinute@QTimeEdit@@MAEXH@Z 0041b5d6 f   qt-mt323:qt-mt323.dll
 0001:0001a5dc       ?setHour@QTimeEdit@@MAEXH@Z 0041b5dc f   qt-mt323:qt-mt323.dll
 0001:0001a5e2       ?outOfRange@QTimeEdit@@MBE_NHHH@Z 0041b5e2 f   qt-mt323:qt-mt323.dll
 0001:0001a5e8       ?setSeparator@QTimeEdit@@UAEXABVQString@@@Z 0041b5e8 f   qt-mt323:qt-mt323.dll
 0001:0001a5ee       ?setRange@QTimeEdit@@UAEXABVQTime@@0@Z 0041b5ee f   qt-mt323:qt-mt323.dll
 0001:0001a5f4       ?setMaxValue@QTimeEdit@@UAEXABVQTime@@@Z 0041b5f4 f   qt-mt323:qt-mt323.dll
 0001:0001a5fa       ?setMinValue@QTimeEdit@@UAEXABVQTime@@@Z 0041b5fa f   qt-mt323:qt-mt323.dll
 0001:0001a600       ?setAutoAdvance@QTimeEdit@@UAEX_N@Z 0041b600 f   qt-mt323:qt-mt323.dll
 0001:0001a606       ?setTime@QTimeEdit@@UAEXABVQTime@@@Z 0041b606 f   qt-mt323:qt-mt323.dll
 0001:0001a60c       ?stepDown@QTimeEdit@@MAEXXZ 0041b60c f   qt-mt323:qt-mt323.dll
 0001:0001a612       ?stepUp@QTimeEdit@@MAEXXZ  0041b612 f   qt-mt323:qt-mt323.dll
 0001:0001a618       ?removeLastNumber@QTimeEdit@@MAEXH@Z 0041b618 f   qt-mt323:qt-mt323.dll
 0001:0001a61e       ?addNumber@QTimeEdit@@MAEXHH@Z 0041b61e f   qt-mt323:qt-mt323.dll
 0001:0001a624       ?sectionFormattedText@QTimeEdit@@MAE?AVQString@@H@Z 0041b624 f   qt-mt323:qt-mt323.dll
 0001:0001a62a       ?setFocusSection@QTimeEdit@@MAE_NH@Z 0041b62a f   qt-mt323:qt-mt323.dll
 0001:0001a630       ?resizeEvent@QTimeEdit@@MAEXPAVQResizeEvent@@@Z 0041b630 f   qt-mt323:qt-mt323.dll
 0001:0001a636       ?minimumSizeHint@QTimeEdit@@UBE?AVQSize@@XZ 0041b636 f   qt-mt323:qt-mt323.dll
 0001:0001a63c       ?sizeHint@QTimeEdit@@UBE?AVQSize@@XZ 0041b63c f   qt-mt323:qt-mt323.dll
 0001:0001a642       ?timerEvent@QTimeEdit@@MAEXPAVQTimerEvent@@@Z 0041b642 f   qt-mt323:qt-mt323.dll
 0001:0001a648       ?event@QTimeEdit@@MAE_NPAVQEvent@@@Z 0041b648 f   qt-mt323:qt-mt323.dll
 0001:0001a64e       ?qt_property@QTimeEdit@@UAE_NHHPAVQVariant@@@Z 0041b64e f   qt-mt323:qt-mt323.dll
 0001:0001a654       ?qt_emit@QTimeEdit@@UAE_NHPAUQUObject@@@Z 0041b654 f   qt-mt323:qt-mt323.dll
 0001:0001a65a       ?qt_invoke@QTimeEdit@@UAE_NHPAUQUObject@@@Z 0041b65a f   qt-mt323:qt-mt323.dll
 0001:0001a660       ?qt_cast@QTimeEdit@@UAEPAXPBD@Z 0041b660 f   qt-mt323:qt-mt323.dll
 0001:0001a666       ?className@QTimeEdit@@UBEPBDXZ 0041b666 f   qt-mt323:qt-mt323.dll
 0001:0001a66c       ?metaObject@QTimeEdit@@UBEPAVQMetaObject@@XZ 0041b66c f   qt-mt323:qt-mt323.dll
 0001:0001a672       ?setRubberband@QSplitter@@MAEXH@Z 0041b672 f   qt-mt323:qt-mt323.dll
 0001:0001a678       ?drawSplitter@QSplitter@@MAEXPAVQPainter@@HHHH@Z 0041b678 f   qt-mt323:qt-mt323.dll
 0001:0001a67e       ?setOpaqueResize@QSplitter@@UAEX_N@Z 0041b67e f   qt-mt323:qt-mt323.dll
 0001:0001a684       ?setResizeMode@QSplitter@@UAEXPAVQWidget@@W4ResizeMode@1@@Z 0041b684 f   qt-mt323:qt-mt323.dll
 0001:0001a68a       ?setOrientation@QSplitter@@UAEXW4Orientation@Qt@@@Z 0041b68a f   qt-mt323:qt-mt323.dll
 0001:0001a690       ?styleChange@QSplitter@@MAEXAAVQStyle@@@Z 0041b690 f   qt-mt323:qt-mt323.dll
 0001:0001a696       ?resizeEvent@QSplitter@@MAEXPAVQResizeEvent@@@Z 0041b696 f   qt-mt323:qt-mt323.dll
 0001:0001a69c       ?minimumSizeHint@QSplitter@@UBE?AVQSize@@XZ 0041b69c f   qt-mt323:qt-mt323.dll
 0001:0001a6a2       ?sizeHint@QSplitter@@UBE?AVQSize@@XZ 0041b6a2 f   qt-mt323:qt-mt323.dll
 0001:0001a6a8       ?childEvent@QSplitter@@MAEXPAVQChildEvent@@@Z 0041b6a8 f   qt-mt323:qt-mt323.dll
 0001:0001a6ae       ?event@QSplitter@@MAE_NPAVQEvent@@@Z 0041b6ae f   qt-mt323:qt-mt323.dll
 0001:0001a6b4       ?qt_property@QSplitter@@UAE_NHHPAVQVariant@@@Z 0041b6b4 f   qt-mt323:qt-mt323.dll
 0001:0001a6ba       ?qt_emit@QSplitter@@UAE_NHPAUQUObject@@@Z 0041b6ba f   qt-mt323:qt-mt323.dll
 0001:0001a6c0       ?qt_invoke@QSplitter@@UAE_NHPAUQUObject@@@Z 0041b6c0 f   qt-mt323:qt-mt323.dll
 0001:0001a6c6       ?qt_cast@QSplitter@@UAEPAXPBD@Z 0041b6c6 f   qt-mt323:qt-mt323.dll
 0001:0001a6cc       ?className@QSplitter@@UBEPBDXZ 0041b6cc f   qt-mt323:qt-mt323.dll
 0001:0001a6d2       ?metaObject@QSplitter@@UBEPAVQMetaObject@@XZ 0041b6d2 f   qt-mt323:qt-mt323.dll
 0001:0001a6d8       ?setSmallDecimalPoint@QLCDNumber@@UAEX_N@Z 0041b6d8 f   qt-mt323:qt-mt323.dll
 0001:0001a6de       ?setBinMode@QLCDNumber@@UAEXXZ 0041b6de f   qt-mt323:qt-mt323.dll
 0001:0001a6e4       ?setOctMode@QLCDNumber@@UAEXXZ 0041b6e4 f   qt-mt323:qt-mt323.dll
 0001:0001a6ea       ?setDecMode@QLCDNumber@@UAEXXZ 0041b6ea f   qt-mt323:qt-mt323.dll
 0001:0001a6f0       ?setHexMode@QLCDNumber@@UAEXXZ 0041b6f0 f   qt-mt323:qt-mt323.dll
 0001:0001a6f6       ?setSegmentStyle@QLCDNumber@@UAEXW4SegmentStyle@1@@Z 0041b6f6 f   qt-mt323:qt-mt323.dll
 0001:0001a6fc       ?setMode@QLCDNumber@@UAEXW4Mode@1@@Z 0041b6fc f   qt-mt323:qt-mt323.dll
 0001:0001a702       ?setNumDigits@QLCDNumber@@UAEXH@Z 0041b702 f   qt-mt323:qt-mt323.dll
 0001:0001a708       ?drawContents@QLCDNumber@@MAEXPAVQPainter@@@Z 0041b708 f   qt-mt323:qt-mt323.dll
 0001:0001a70e       ?sizeHint@QLCDNumber@@UBE?AVQSize@@XZ 0041b70e f   qt-mt323:qt-mt323.dll
 0001:0001a714       ?qt_property@QLCDNumber@@UAE_NHHPAVQVariant@@@Z 0041b714 f   qt-mt323:qt-mt323.dll
 0001:0001a71a       ?qt_emit@QLCDNumber@@UAE_NHPAUQUObject@@@Z 0041b71a f   qt-mt323:qt-mt323.dll
 0001:0001a720       ?qt_invoke@QLCDNumber@@UAE_NHPAUQUObject@@@Z 0041b720 f   qt-mt323:qt-mt323.dll
 0001:0001a726       ?qt_cast@QLCDNumber@@UAEPAXPBD@Z 0041b726 f   qt-mt323:qt-mt323.dll
 0001:0001a72c       ?className@QLCDNumber@@UBEPBDXZ 0041b72c f   qt-mt323:qt-mt323.dll
 0001:0001a732       ?metaObject@QLCDNumber@@UBEPAVQMetaObject@@XZ 0041b732 f   qt-mt323:qt-mt323.dll
 0001:0001a738       ?setChecked@QRadioButton@@UAEX_N@Z 0041b738 f   qt-mt323:qt-mt323.dll
 0001:0001a73e       ?drawButtonLabel@QRadioButton@@MAEXPAVQPainter@@@Z 0041b73e f   qt-mt323:qt-mt323.dll
 0001:0001a744       ?drawButton@QRadioButton@@MAEXPAVQPainter@@@Z 0041b744 f   qt-mt323:qt-mt323.dll
 0001:0001a74a       ?hitButton@QRadioButton@@MBE_NABVQPoint@@@Z 0041b74a f   qt-mt323:qt-mt323.dll
 0001:0001a750       ?updateMask@QRadioButton@@MAEXXZ 0041b750 f   qt-mt323:qt-mt323.dll
 0001:0001a756       ?resizeEvent@QRadioButton@@MAEXPAVQResizeEvent@@@Z 0041b756 f   qt-mt323:qt-mt323.dll
 0001:0001a75c       ?focusOutEvent@QButton@@MAEXPAVQFocusEvent@@@Z 0041b75c f   qt-mt323:qt-mt323.dll
 0001:0001a762       ?focusInEvent@QButton@@MAEXPAVQFocusEvent@@@Z 0041b762 f   qt-mt323:qt-mt323.dll
 0001:0001a768       ?sizeHint@QRadioButton@@UBE?AVQSize@@XZ 0041b768 f   qt-mt323:qt-mt323.dll
 0001:0001a76e       ?qt_property@QRadioButton@@UAE_NHHPAVQVariant@@@Z 0041b76e f   qt-mt323:qt-mt323.dll
 0001:0001a774       ?qt_emit@QRadioButton@@UAE_NHPAUQUObject@@@Z 0041b774 f   qt-mt323:qt-mt323.dll
 0001:0001a77a       ?qt_invoke@QRadioButton@@UAE_NHPAUQUObject@@@Z 0041b77a f   qt-mt323:qt-mt323.dll
 0001:0001a780       ?qt_cast@QRadioButton@@UAEPAXPBD@Z 0041b780 f   qt-mt323:qt-mt323.dll
 0001:0001a786       ?className@QRadioButton@@UBEPBDXZ 0041b786 f   qt-mt323:qt-mt323.dll
 0001:0001a78c       ?metaObject@QRadioButton@@UBEPAVQMetaObject@@XZ 0041b78c f   qt-mt323:qt-mt323.dll
 0001:0001a792       ?setAutoAdvance@QDateTimeEdit@@UAEX_N@Z 0041b792 f   qt-mt323:qt-mt323.dll
 0001:0001a798       ?setDateTime@QDateTimeEdit@@UAEXABVQDateTime@@@Z 0041b798 f   qt-mt323:qt-mt323.dll
 0001:0001a79e       ?resizeEvent@QDateTimeEdit@@MAEXPAVQResizeEvent@@@Z 0041b79e f   qt-mt323:qt-mt323.dll
 0001:0001a7a4       ?minimumSizeHint@QDateTimeEdit@@UBE?AVQSize@@XZ 0041b7a4 f   qt-mt323:qt-mt323.dll
 0001:0001a7aa       ?sizeHint@QDateTimeEdit@@UBE?AVQSize@@XZ 0041b7aa f   qt-mt323:qt-mt323.dll
 0001:0001a7b0       ?qt_property@QDateTimeEdit@@UAE_NHHPAVQVariant@@@Z 0041b7b0 f   qt-mt323:qt-mt323.dll
 0001:0001a7b6       ?qt_emit@QDateTimeEdit@@UAE_NHPAUQUObject@@@Z 0041b7b6 f   qt-mt323:qt-mt323.dll
 0001:0001a7bc       ?qt_invoke@QDateTimeEdit@@UAE_NHPAUQUObject@@@Z 0041b7bc f   qt-mt323:qt-mt323.dll
 0001:0001a7c2       ?qt_cast@QDateTimeEdit@@UAEPAXPBD@Z 0041b7c2 f   qt-mt323:qt-mt323.dll
 0001:0001a7c8       ?className@QDateTimeEdit@@UBEPBDXZ 0041b7c8 f   qt-mt323:qt-mt323.dll
 0001:0001a7ce       ?metaObject@QDateTimeEdit@@UBEPAVQMetaObject@@XZ 0041b7ce f   qt-mt323:qt-mt323.dll
 0001:0001a7d4       ?handleError@QDataBrowser@@MAEXABVQSqlError@@@Z 0041b7d4 f   qt-mt323:qt-mt323.dll
 0001:0001a7da       ?confirmCancel@QDataBrowser@@MAE?AW4Confirm@QSql@@W4Op@3@@Z 0041b7da f   qt-mt323:qt-mt323.dll
 0001:0001a7e0       ?confirmEdit@QDataBrowser@@MAE?AW4Confirm@QSql@@W4Op@3@@Z 0041b7e0 f   qt-mt323:qt-mt323.dll
 0001:0001a7e6       ?currentEdited@QDataBrowser@@MAE_NXZ 0041b7e6 f   qt-mt323:qt-mt323.dll
 0001:0001a7ec       ?deleteCurrent@QDataBrowser@@MAE_NXZ 0041b7ec f   qt-mt323:qt-mt323.dll
 0001:0001a7f2       ?updateCurrent@QDataBrowser@@MAE_NXZ 0041b7f2 f   qt-mt323:qt-mt323.dll
 0001:0001a7f8       ?insertCurrent@QDataBrowser@@MAE_NXZ 0041b7f8 f   qt-mt323:qt-mt323.dll
 0001:0001a7fe       ?clearValues@QDataBrowser@@UAEXXZ 0041b7fe f   qt-mt323:qt-mt323.dll
 0001:0001a804       ?writeFields@QDataBrowser@@UAEXXZ 0041b804 f   qt-mt323:qt-mt323.dll
 0001:0001a80a       ?readFields@QDataBrowser@@UAEXXZ 0041b80a f   qt-mt323:qt-mt323.dll
 0001:0001a810       ?prev@QDataBrowser@@UAEXXZ 0041b810 f   qt-mt323:qt-mt323.dll
 0001:0001a816       ?next@QDataBrowser@@UAEXXZ 0041b816 f   qt-mt323:qt-mt323.dll
 0001:0001a81c       ?last@QDataBrowser@@UAEXXZ 0041b81c f   qt-mt323:qt-mt323.dll
 0001:0001a822       ?first@QDataBrowser@@UAEXXZ 0041b822 f   qt-mt323:qt-mt323.dll
 0001:0001a828       ?del@QDataBrowser@@UAEXXZ  0041b828 f   qt-mt323:qt-mt323.dll
 0001:0001a82e       ?update@QDataBrowser@@UAEXXZ 0041b82e f   qt-mt323:qt-mt323.dll
 0001:0001a834       ?insert@QDataBrowser@@UAEXXZ 0041b834 f   qt-mt323:qt-mt323.dll
 0001:0001a83a       ?refresh@QDataBrowser@@UAEXXZ 0041b83a f   qt-mt323:qt-mt323.dll
 0001:0001a840       ?seek@QDataBrowser@@UAE_NH_N@Z 0041b840 f   qt-mt323:qt-mt323.dll
 0001:0001a846       ?setAutoEdit@QDataBrowser@@UAEX_N@Z 0041b846 f   qt-mt323:qt-mt323.dll
 0001:0001a84c       ?setReadOnly@QDataBrowser@@UAEX_N@Z 0041b84c f   qt-mt323:qt-mt323.dll
 0001:0001a852       ?setConfirmCancels@QDataBrowser@@UAEX_N@Z 0041b852 f   qt-mt323:qt-mt323.dll
 0001:0001a858       ?setConfirmDelete@QDataBrowser@@UAEX_N@Z 0041b858 f   qt-mt323:qt-mt323.dll
 0001:0001a85e       ?setConfirmUpdate@QDataBrowser@@UAEX_N@Z 0041b85e f   qt-mt323:qt-mt323.dll
 0001:0001a864       ?setConfirmInsert@QDataBrowser@@UAEX_N@Z 0041b864 f   qt-mt323:qt-mt323.dll
 0001:0001a86a       ?setConfirmEdits@QDataBrowser@@UAEX_N@Z 0041b86a f   qt-mt323:qt-mt323.dll
 0001:0001a870       ?setForm@QDataBrowser@@UAEXPAVQSqlForm@@@Z 0041b870 f   qt-mt323:qt-mt323.dll
 0001:0001a876       ?setSqlCursor@QDataBrowser@@UAEXPAVQSqlCursor@@_N@Z 0041b876 f   qt-mt323:qt-mt323.dll
 0001:0001a87c       ?clearValues@QDataView@@UAEXXZ 0041b87c f   qt-mt323:qt-mt323.dll
 0001:0001a882       ?writeFields@QDataView@@UAEXXZ 0041b882 f   qt-mt323:qt-mt323.dll
 0001:0001a888       ?readFields@QDataView@@UAEXXZ 0041b888 f   qt-mt323:qt-mt323.dll
 0001:0001a88e       ?refresh@QDataView@@UAEXPAVQSqlRecord@@@Z 0041b88e f   qt-mt323:qt-mt323.dll
 0001:0001a894       ?setRecord@QDataView@@UAEXPAVQSqlRecord@@@Z 0041b894 f   qt-mt323:qt-mt323.dll
 0001:0001a89a       ?setForm@QDataView@@UAEXPAVQSqlForm@@@Z 0041b89a f   qt-mt323:qt-mt323.dll
 0001:0001a8a0       _IsProcessorFeaturePresent@4 0041b8a0 f   kernel32:KERNEL32.dll
 0001:0001a8a6       ?deleteData@QGArray@@MAEXPAUarray_data@1@@Z 0041b8a6 f   qt-mt323:qt-mt323.dll
 0001:0001a8ac       ?newData@QGArray@@MAEPAUarray_data@1@XZ 0041b8ac f   qt-mt323:qt-mt323.dll
 0001:0001a8b2       ?qWinMain@@YAXPAUHINSTANCE__@@0PADHAAHAAV?$QMemArray@PAD@@@Z 0041b8b2 f   qt-mt323:qt-mt323.dll
 0002:00000000       __imp__GetSystemTimeAsFileTime@4 00420000     kernel32:KERNEL32.dll
 0002:00000004       __imp__OutputDebugStringA@4 00420004     kernel32:KERNEL32.dll
 0002:00000008       __imp__GetModuleFileNameA@12 00420008     kernel32:KERNEL32.dll
 0002:0000000c       __imp__WritePrivateProfileStringA@16 0042000c     kernel32:KERNEL32.dll
 0002:00000010       __imp__GetLastError@0      00420010     kernel32:KERNEL32.dll
 0002:00000014       __imp__WriteFile@20        00420014     kernel32:KERNEL32.dll
 0002:00000018       __imp__SetFilePointer@16   00420018     kernel32:KERNEL32.dll
 0002:0000001c       __imp__CloseHandle@4       0042001c     kernel32:KERNEL32.dll
 0002:00000020       __imp__GetSystemTime@4     00420020     kernel32:KERNEL32.dll
 0002:00000024       __imp__GetLocalTime@4      00420024     kernel32:KERNEL32.dll
 0002:00000028       __imp__CreateFileA@28      00420028     kernel32:KERNEL32.dll
 0002:0000002c       __imp__lstrcpynA@12        0042002c     kernel32:KERNEL32.dll
 0002:00000030       __imp__GetPrivateProfileStringA@24 00420030     kernel32:KERNEL32.dll
 0002:00000034       __imp__EncodePointer@4     00420034     kernel32:KERNEL32.dll
 0002:00000038       __imp__DecodePointer@4     00420038     kernel32:KERNEL32.dll
 0002:0000003c       __imp__IsDebuggerPresent@0 0042003c     kernel32:KERNEL32.dll
 0002:00000040       __imp__IsProcessorFeaturePresent@4 00420040     kernel32:KERNEL32.dll
 0002:00000044       __imp__QueryPerformanceCounter@4 00420044     kernel32:KERNEL32.dll
 0002:00000048       __imp__GetCurrentProcessId@0 00420048     kernel32:KERNEL32.dll
 0002:0000004c       __imp__GetCurrentThreadId@0 0042004c     kernel32:KERNEL32.dll
 0002:00000050       \177KERNEL32_NULL_THUNK_DATA 00420050     kernel32:KERNEL32.dll
 0002:00000054       __imp_?_Xbad_alloc@std@@YAXXZ 00420054     msvcprt:MSVCP120.dll
 0002:00000058       __imp_?_Xlength_error@std@@YAXPBD@Z 00420058     msvcprt:MSVCP120.dll
 0002:0000005c       __imp_?_Xout_of_range@std@@YAXPBD@Z 0042005c     msvcprt:MSVCP120.dll
 0002:00000060       __imp_?_Syserror_map@std@@YAPBDH@Z 00420060     msvcprt:MSVCP120.dll
 0002:00000064       __imp_?_Winerror_map@std@@YAPBDH@Z 00420064     msvcprt:MSVCP120.dll
 0002:00000068       \177MSVCP120_NULL_THUNK_DATA 00420068     msvcprt:MSVCP120.dll
 0002:0000006c       __imp__free                0042006c     MSVCRT:MSVCR120.dll
 0002:00000070       __imp___purecall           00420070     MSVCRT:MSVCR120.dll
 0002:00000074       __imp_??2@YAPAXI@Z         00420074     MSVCRT:MSVCR120.dll
 0002:00000078       __imp_??3@YAXPAX@Z         00420078     MSVCRT:MSVCR120.dll
 0002:0000007c       __imp__memcpy              0042007c     MSVCRT:MSVCR120.dll
 0002:00000080       __imp__strcpy              00420080     MSVCRT:MSVCR120.dll
 0002:00000084       __imp__strlen              00420084     MSVCRT:MSVCR120.dll
 0002:00000088       __imp__memmove             00420088     MSVCRT:MSVCR120.dll
 0002:0000008c       __imp__getenv              0042008c     MSVCRT:MSVCR120.dll
 0002:00000090       __imp_??_V@YAXPAX@Z        00420090     MSVCRT:MSVCR120.dll
 0002:00000094       __imp___CxxThrowException@8 00420094     MSVCRT:MSVCR120.dll
 0002:00000098       __imp____CxxFrameHandler3  00420098     MSVCRT:MSVCR120.dll
 0002:0000009c       __imp__memset              0042009c     MSVCRT:MSVCR120.dll
 0002:000000a0       __imp__sprintf             004200a0     MSVCRT:MSVCR120.dll
 0002:000000a4       __imp_?_set_se_translator@@YAP6AXIPAU_EXCEPTION_POINTERS@@@ZP6AXI0@Z@Z 004200a4     MSVCRT:MSVCR120.dll
 0002:000000a8       __imp___chdir              004200a8     MSVCRT:MSVCR120.dll
 0002:000000ac       __imp___controlfp_s        004200ac     MSVCRT:MSVCR120.dll
 0002:000000b0       __imp___invoke_watson      004200b0     MSVCRT:MSVCR120.dll
 0002:000000b4       __imp____crtSetUnhandledExceptionFilter 004200b4     MSVCRT:MSVCR120.dll
 0002:000000b8       __imp____crtTerminateProcess 004200b8     MSVCRT:MSVCR120.dll
 0002:000000bc       __imp____crtUnhandledException 004200bc     MSVCRT:MSVCR120.dll
 0002:000000c0       __imp___crt_debugger_hook  004200c0     MSVCRT:MSVCR120.dll
 0002:000000c4       __imp___except_handler4_common 004200c4     MSVCRT:MSVCR120.dll
 0002:000000c8       __imp___commode            004200c8     MSVCRT:MSVCR120.dll
 0002:000000cc       __imp___fmode              004200cc     MSVCRT:MSVCR120.dll
 0002:000000d0       __imp___acmdln             004200d0     MSVCRT:MSVCR120.dll
 0002:000000d4       __imp___initterm           004200d4     MSVCRT:MSVCR120.dll
 0002:000000d8       __imp___initterm_e         004200d8     MSVCRT:MSVCR120.dll
 0002:000000dc       __imp____setusermatherr    004200dc     MSVCRT:MSVCR120.dll
 0002:000000e0       __imp___configthreadlocale 004200e0     MSVCRT:MSVCR120.dll
 0002:000000e4       __imp___ismbblead          004200e4     MSVCRT:MSVCR120.dll
 0002:000000e8       __imp___cexit              004200e8     MSVCRT:MSVCR120.dll
 0002:000000ec       __imp___exit               004200ec     MSVCRT:MSVCR120.dll
 0002:000000f0       __imp__exit                004200f0     MSVCRT:MSVCR120.dll
 0002:000000f4       __imp____set_app_type      004200f4     MSVCRT:MSVCR120.dll
 0002:000000f8       __imp____getmainargs       004200f8     MSVCRT:MSVCR120.dll
 0002:000000fc       __imp__strcmp              004200fc     MSVCRT:MSVCR120.dll
 0002:00000100       __imp____crtGetShowWindowMode 00420100     MSVCRT:MSVCR120.dll
 0002:00000104       __imp___XcptFilter         00420104     MSVCRT:MSVCR120.dll
 0002:00000108       __imp_??1type_info@@UAE@XZ 00420108     MSVCRT:MSVCR120.dll
 0002:0000010c       __imp___onexit             0042010c     MSVCRT:MSVCR120.dll
 0002:00000110       __imp____dllonexit         00420110     MSVCRT:MSVCR120.dll
 0002:00000114       __imp___calloc_crt         00420114     MSVCRT:MSVCR120.dll
 0002:00000118       __imp___unlock             00420118     MSVCRT:MSVCR120.dll
 0002:0000011c       __imp___lock               0042011c     MSVCRT:MSVCR120.dll
 0002:00000120       __imp_?terminate@@YAXXZ    00420120     MSVCRT:MSVCR120.dll
 0002:00000124       __imp__malloc              00420124     MSVCRT:MSVCR120.dll
 0002:00000128       __imp___amsg_exit          00420128     MSVCRT:MSVCR120.dll
 0002:0000012c       __imp__strpbrk             0042012c     MSVCRT:MSVCR120.dll
 0002:00000130       __imp___mkdir              00420130     MSVCRT:MSVCR120.dll
 0002:00000134       __imp___time64             00420134     MSVCRT:MSVCR120.dll
 0002:00000138       __imp___localtime64        00420138     MSVCRT:MSVCR120.dll
 0002:0000013c       __imp__strtok              0042013c     MSVCRT:MSVCR120.dll
 0002:00000140       __imp__strncpy             00420140     MSVCRT:MSVCR120.dll
 0002:00000144       \177MSVCR120_NULL_THUNK_DATA 00420144     MSVCRT:MSVCR120.dll
 0002:00000148       __imp__wsprintfA           00420148     user32:USER32.dll
 0002:0000014c       __imp__ShowWindow@8        0042014c     user32:USER32.dll
 0002:00000150       __imp__IsIconic@4          00420150     user32:USER32.dll
 0002:00000154       __imp__SetForegroundWindow@4 00420154     user32:USER32.dll
 0002:00000158       __imp__FindWindowA@8       00420158     user32:USER32.dll
 0002:0000015c       __imp__GetWindowThreadProcessId@8 0042015c     user32:USER32.dll
 0002:00000160       __imp__SystemParametersInfoA@16 00420160     user32:USER32.dll
 0002:00000164       __imp__GetForegroundWindow@0 00420164     user32:USER32.dll
 0002:00000168       __imp__MessageBoxA@16      00420168     user32:USER32.dll
 0002:0000016c       __imp__AttachThreadInput@12 0042016c     user32:USER32.dll
 0002:00000170       \177USER32_NULL_THUNK_DATA 00420170     user32:USER32.dll
 0002:00000174       __imp__GetFileVersionInfoSizeA@8 00420174     version:VERSION.dll
 0002:00000178       __imp__GetFileVersionInfoA@16 00420178     version:VERSION.dll
 0002:0000017c       __imp__VerQueryValueA@16   0042017c     version:VERSION.dll
 0002:00000180       \177VERSION_NULL_THUNK_DATA 00420180     version:VERSION.dll
 0002:00000184       __imp__PlaySoundA@12       00420184     winmm:WINMM.dll
 0002:00000188       \177WINMM_NULL_THUNK_DATA  00420188     winmm:WINMM.dll
 0002:0000018c       __imp__WSAGetLastError@0   0042018c     wsock32:WSOCK32.dll
 0002:00000190       __imp__inet_addr@4         00420190     wsock32:WSOCK32.dll
 0002:00000194       __imp__htonl@4             00420194     wsock32:WSOCK32.dll
 0002:00000198       __imp__gethostbyname@4     00420198     wsock32:WSOCK32.dll
 0002:0000019c       __imp__setsockopt@20       0042019c     wsock32:WSOCK32.dll
 0002:000001a0       __imp__gethostname@8       004201a0     wsock32:WSOCK32.dll
 0002:000001a4       \177WSOCK32_NULL_THUNK_DATA 004201a4     wsock32:WSOCK32.dll
 0002:000001a8       __imp_??0complexType@@QAE@ABV0@@Z 004201a8     bncs_cachedData:bncs_cachedData.dll
 0002:000001ac       __imp_??0complexInstance@@QAE@ABV0@@Z 004201ac     bncs_cachedData:bncs_cachedData.dll
 0002:000001b0       __imp_??1complexType@@UAE@XZ 004201b0     bncs_cachedData:bncs_cachedData.dll
 0002:000001b4       __imp_??0complexType@@QAE@XZ 004201b4     bncs_cachedData:bncs_cachedData.dll
 0002:000001b8       __imp_??4complexInstance@@QAEAAV0@ABV0@@Z 004201b8     bncs_cachedData:bncs_cachedData.dll
 0002:000001bc       __imp_??0instanceInfo@@QAE@XZ 004201bc     bncs_cachedData:bncs_cachedData.dll
 0002:000001c0       __imp_?lookup@bncs_instance_lookup@@SA_NABVQString@@AAV2@PAH2PAD@Z 004201c0     bncs_cachedData:bncs_cachedData.dll
 0002:000001c4       __imp_??4complexType@@QAEAAV0@ABV0@@Z 004201c4     bncs_cachedData:bncs_cachedData.dll
 0002:000001c8       __imp_??_7paramInfo@@6B@   004201c8     bncs_cachedData:bncs_cachedData.dll
 0002:000001cc       __imp_?lookupType@bncs_instance_lookup@@SA_NABVQString@@AAV2@@Z 004201cc     bncs_cachedData:bncs_cachedData.dll
 0002:000001d0       __imp_??1complexInstance@@UAE@XZ 004201d0     bncs_cachedData:bncs_cachedData.dll
 0002:000001d4       __imp_??0complexInstance@@QAE@XZ 004201d4     bncs_cachedData:bncs_cachedData.dll
 0002:000001d8       __imp_??0complexParam@@QAE@ABV0@@Z 004201d8     bncs_cachedData:bncs_cachedData.dll
 0002:000001dc       __imp_??1complexParam@@UAE@XZ 004201dc     bncs_cachedData:bncs_cachedData.dll
 0002:000001e0       __imp_??0complexParam@@QAE@XZ 004201e0     bncs_cachedData:bncs_cachedData.dll
 0002:000001e4       __imp_??4deviceTypeInfo@@QAEAAV0@ABV0@@Z 004201e4     bncs_cachedData:bncs_cachedData.dll
 0002:000001e8       __imp_??0deviceTypeInfo@@QAE@ABV0@@Z 004201e8     bncs_cachedData:bncs_cachedData.dll
 0002:000001ec       __imp_??1deviceTypeInfo@@UAE@XZ 004201ec     bncs_cachedData:bncs_cachedData.dll
 0002:000001f0       __imp_??0deviceTypeInfo@@QAE@XZ 004201f0     bncs_cachedData:bncs_cachedData.dll
 0002:000001f4       __imp_??1paramInfo@@UAE@XZ 004201f4     bncs_cachedData:bncs_cachedData.dll
 0002:000001f8       __imp_??0paramInfo@@QAE@XZ 004201f8     bncs_cachedData:bncs_cachedData.dll
 0002:000001fc       __imp_??4instanceInfo@@QAEAAV0@ABV0@@Z 004201fc     bncs_cachedData:bncs_cachedData.dll
 0002:00000200       __imp_??0instanceInfo@@QAE@ABV0@@Z 00420200     bncs_cachedData:bncs_cachedData.dll
 0002:00000204       __imp_??1instanceInfo@@UAE@XZ 00420204     bncs_cachedData:bncs_cachedData.dll
 0002:00000208       __imp_?lookup@bncs_instance_lookup@@SA_NABVQString@@AAV2@111AA_N@Z 00420208     bncs_cachedData:bncs_cachedData.dll
 0002:0000020c       \177bncs_cachedData_NULL_THUNK_DATA 0042020c     bncs_cachedData:bncs_cachedData.dll
 0002:00000210       __imp_?clearCache@bncs_config@@SAXXZ 00420210     bncs_config:bncs_config.dll
 0002:00000214       __imp_??1bncs_config@@UAE@XZ 00420214     bncs_config:bncs_config.dll
 0002:00000218       __imp_?isValid@bncs_config@@QAE_NXZ 00420218     bncs_config:bncs_config.dll
 0002:0000021c       __imp_?attr@bncs_config@@QAE?AVbncs_string@@ABV2@@Z 0042021c     bncs_config:bncs_config.dll
 0002:00000220       __imp_?isChildValid@bncs_config@@QAE_NXZ 00420220     bncs_config:bncs_config.dll
 0002:00000224       __imp_?nextChild@bncs_config@@QAE_NXZ 00420224     bncs_config:bncs_config.dll
 0002:00000228       __imp_?childAttr@bncs_config@@QAE?AVbncs_string@@ABV2@@Z 00420228     bncs_config:bncs_config.dll
 0002:0000022c       __imp_??0bncs_config@@QAE@ABVbncs_string@@@Z 0042022c     bncs_config:bncs_config.dll
 0002:00000230       \177bncs_config_NULL_THUNK_DATA 00420230     bncs_config:bncs_config.dll
 0002:00000234       __imp_?cacheEnable@ccClient@@QAEX_N@Z 00420234     bncs_shim_loader:bncs_shim_loader.dll
 0002:00000238       __imp_?isCacheEnabled@ccClient@@QAE_NXZ 00420238     bncs_shim_loader:bncs_shim_loader.dll
 0002:0000023c       __imp_?csiShim@bncs_shim_loader@@SAPAVbncs_dll_client_shim@@XZ 0042023c     bncs_shim_loader:bncs_shim_loader.dll
 0002:00000240       __imp_?reg@bncs_dll_client_shim@@QAE_NPAVIccClientCallback@@HHHH@Z 00420240     bncs_shim_loader:bncs_shim_loader.dll
 0002:00000244       __imp_?unreg@bncs_dll_client_shim@@QAEXPAVIccClientCallback@@H@Z 00420244     bncs_shim_loader:bncs_shim_loader.dll
 0002:00000248       __imp_?infoWrite@ccClient@@QAEXHHABV?$basic_string@DU?$char_traits@D@std@@V?$allocator@D@2@@std@@_NH@Z 00420248     bncs_shim_loader:bncs_shim_loader.dll
 0002:0000024c       __imp_?cleanupIfRequired@bncs_dll_client_shim@@QAEXXZ 0042024c     bncs_shim_loader:bncs_shim_loader.dll
 0002:00000250       \177bncs_shim_loader_NULL_THUNK_DATA 00420250     bncs_shim_loader:bncs_shim_loader.dll
 0002:00000254       __imp_??H@YA?BVbncs_string@@PBDABV0@@Z 00420254     bncs_string:bncs_string.dll
 0002:00000258       __imp_??1bncs_string@@UAE@XZ 00420258     bncs_string:bncs_string.dll
 0002:0000025c       __imp_??Bbncs_string@@QBEPBDXZ 0042025c     bncs_string:bncs_string.dll
 0002:00000260       __imp_?arg@bncs_string@@QBE?AV1@ABV1@@Z 00420260     bncs_string:bncs_string.dll
 0002:00000264       __imp_?arg@bncs_string@@QBE?AV1@PBD@Z 00420264     bncs_string:bncs_string.dll
 0002:00000268       __imp_??0bncs_string@@QAE@HDIH@Z 00420268     bncs_string:bncs_string.dll
 0002:0000026c       __imp_??8@YA_NABVbncs_string@@PBD@Z 0042026c     bncs_string:bncs_string.dll
 0002:00000270       __imp_?lower@bncs_string@@QBE?AV1@XZ 00420270     bncs_string:bncs_string.dll
 0002:00000274       __imp_?toInt@bncs_string@@QBEHXZ 00420274     bncs_string:bncs_string.dll
 0002:00000278       __imp_??0bncs_string@@QAE@XZ 00420278     bncs_string:bncs_string.dll
 0002:0000027c       __imp_??Bbncs_string@@QBEHXZ 0042027c     bncs_string:bncs_string.dll
 0002:00000280       __imp_??0bncs_string@@QAE@PBD@Z 00420280     bncs_string:bncs_string.dll
 0002:00000284       \177bncs_string_NULL_THUNK_DATA 00420284     bncs_string:bncs_string.dll
 0002:00000288       __imp_??0dCW@@QAE@XZ       00420288     dcw:dcw.dll
 0002:0000028c       __imp_?create@dCW@@QAEPAVQWidget@@ABVQString@@PAVQObject@@PAV2@PBD_N4NN44@Z 0042028c     dcw:dcw.dll
 0002:00000290       __imp_??1dCW@@UAE@XZ       00420290     dcw:dcw.dll
 0002:00000294       __imp_?clearCache@dCW@@SAXXZ 00420294     dcw:dcw.dll
 0002:00000298       __imp_?setUserLimitsCallback@dCW@@SAXPAVIdCWlimits@@I@Z 00420298     dcw:dcw.dll
 0002:0000029c       __imp_??0resourceCounts@@QAE@XZ 0042029c     dcw:dcw.dll
 0002:000002a0       __imp_??1resourceCounts@@UAE@XZ 004202a0     dcw:dcw.dll
 0002:000002a4       __imp_?userObjects@resourceCounts@@QAEKXZ 004202a4     dcw:dcw.dll
 0002:000002a8       __imp_?userObjectsPeak@resourceCounts@@QAEKXZ 004202a8     dcw:dcw.dll
 0002:000002ac       __imp_?gdiObjects@resourceCounts@@QAEKXZ 004202ac     dcw:dcw.dll
 0002:000002b0       __imp_?gdiObjectsPeak@resourceCounts@@QAEKXZ 004202b0     dcw:dcw.dll
 0002:000002b4       \177dcw_NULL_THUNK_DATA    004202b4     dcw:dcw.dll
 0002:000002b8       __imp_?closeEvent@QWidget@@MAEXPAVQCloseEvent@@@Z 004202b8     qt-mt323:qt-mt323.dll
 0002:000002bc       __imp_?cmd@QPaintDevice@@MAE_NHPAVQPainter@@PATQPDevCmdParam@@@Z 004202bc     qt-mt323:qt-mt323.dll
 0002:000002c0       __imp_?connectNotify@QObject@@MAEXPBD@Z 004202c0     qt-mt323:qt-mt323.dll
 0002:000002c4       __imp_?contextMenuEvent@QWidget@@MAEXPAVQContextMenuEvent@@@Z 004202c4     qt-mt323:qt-mt323.dll
 0002:000002c8       __imp_?create@QWidget@@MAEXPAUHWND__@@_N1@Z 004202c8     qt-mt323:qt-mt323.dll
 0002:000002cc       __imp_?customEvent@QObject@@MAEXPAVQCustomEvent@@@Z 004202cc     qt-mt323:qt-mt323.dll
 0002:000002d0       __imp_?customWhatsThis@QWidget@@UBE_NXZ 004202d0     qt-mt323:qt-mt323.dll
 0002:000002d4       __imp_?destroy@QWidget@@MAEX_N0@Z 004202d4     qt-mt323:qt-mt323.dll
 0002:000002d8       __imp_?disconnectNotify@QObject@@MAEXPBD@Z 004202d8     qt-mt323:qt-mt323.dll
 0002:000002dc       __imp_?dragEnterEvent@QWidget@@MAEXPAVQDragEnterEvent@@@Z 004202dc     qt-mt323:qt-mt323.dll
 0002:000002e0       __imp_?dragLeaveEvent@QWidget@@MAEXPAVQDragLeaveEvent@@@Z 004202e0     qt-mt323:qt-mt323.dll
 0002:000002e4       __imp_?dragMoveEvent@QWidget@@MAEXPAVQDragMoveEvent@@@Z 004202e4     qt-mt323:qt-mt323.dll
 0002:000002e8       __imp_?drawContents@QFrame@@MAEXPAVQPainter@@@Z 004202e8     qt-mt323:qt-mt323.dll
 0002:000002ec       __imp_?drawFrame@QFrame@@MAEXPAVQPainter@@@Z 004202ec     qt-mt323:qt-mt323.dll
 0002:000002f0       __imp_?dropEvent@QWidget@@MAEXPAVQDropEvent@@@Z 004202f0     qt-mt323:qt-mt323.dll
 0002:000002f4       __imp_?enabledChange@QWidget@@MAEX_N@Z 004202f4     qt-mt323:qt-mt323.dll
 0002:000002f8       __imp_?enterEvent@QWidget@@MAEXPAVQEvent@@@Z 004202f8     qt-mt323:qt-mt323.dll
 0002:000002fc       __imp_?event@QWidget@@MAE_NPAVQEvent@@@Z 004202fc     qt-mt323:qt-mt323.dll
 0002:00000300       __imp_?eventFilter@QObject@@UAE_NPAV1@PAVQEvent@@@Z 00420300     qt-mt323:qt-mt323.dll
 0002:00000304       __imp_?focusInEvent@QWidget@@MAEXPAVQFocusEvent@@@Z 00420304     qt-mt323:qt-mt323.dll
 0002:00000308       __imp_?focusNextPrevChild@QWidget@@MAE_N_N@Z 00420308     qt-mt323:qt-mt323.dll
 0002:0000030c       __imp_?focusOutEvent@QWidget@@MAEXPAVQFocusEvent@@@Z 0042030c     qt-mt323:qt-mt323.dll
 0002:00000310       __imp_?fontChange@QWidget@@MAEXABVQFont@@@Z 00420310     qt-mt323:qt-mt323.dll
 0002:00000314       __imp_?fontInf@QPaintDevice@@MBEHPAVQFont@@H@Z 00420314     qt-mt323:qt-mt323.dll
 0002:00000318       __imp_?fontMet@QPaintDevice@@MBEHPAVQFont@@HPBDH@Z 00420318     qt-mt323:qt-mt323.dll
 0002:0000031c       __imp_?frameChanged@QGrid@@MAEXXZ 0042031c     qt-mt323:qt-mt323.dll
 0002:00000320       __imp_?handle@QPaintDevice@@UBEPAUHDC__@@XZ 00420320     qt-mt323:qt-mt323.dll
 0002:00000324       __imp_?heightForWidth@QWidget@@UBEHH@Z 00420324     qt-mt323:qt-mt323.dll
 0002:00000328       __imp_?hide@QWidget@@UAEXXZ 00420328     qt-mt323:qt-mt323.dll
 0002:0000032c       __imp_?hideEvent@QWidget@@MAEXPAVQHideEvent@@@Z 0042032c     qt-mt323:qt-mt323.dll
 0002:00000330       __imp_?imComposeEvent@QWidget@@MAEXPAVQIMEvent@@@Z 00420330     qt-mt323:qt-mt323.dll
 0002:00000334       __imp_?imEndEvent@QWidget@@MAEXPAVQIMEvent@@@Z 00420334     qt-mt323:qt-mt323.dll
 0002:00000338       __imp_?imStartEvent@QWidget@@MAEXPAVQIMEvent@@@Z 00420338     qt-mt323:qt-mt323.dll
 0002:0000033c       __imp_?insertChild@QObject@@UAEXPAV1@@Z 0042033c     qt-mt323:qt-mt323.dll
 0002:00000340       __imp_?keyPressEvent@QWidget@@MAEXPAVQKeyEvent@@@Z 00420340     qt-mt323:qt-mt323.dll
 0002:00000344       __imp_?keyReleaseEvent@QWidget@@MAEXPAVQKeyEvent@@@Z 00420344     qt-mt323:qt-mt323.dll
 0002:00000348       __imp_?leaveEvent@QWidget@@MAEXPAVQEvent@@@Z 00420348     qt-mt323:qt-mt323.dll
 0002:0000034c       __imp_?metaObject@QGrid@@UBEPAVQMetaObject@@XZ 0042034c     qt-mt323:qt-mt323.dll
 0002:00000350       __imp_?metric@QWidget@@MBEHH@Z 00420350     qt-mt323:qt-mt323.dll
 0002:00000354       __imp_?minimumSizeHint@QWidget@@UBE?AVQSize@@XZ 00420354     qt-mt323:qt-mt323.dll
 0002:00000358       __imp_?mouseDoubleClickEvent@QWidget@@MAEXPAVQMouseEvent@@@Z 00420358     qt-mt323:qt-mt323.dll
 0002:0000035c       __imp_?mouseMoveEvent@QWidget@@MAEXPAVQMouseEvent@@@Z 0042035c     qt-mt323:qt-mt323.dll
 0002:00000360       __imp_?mousePressEvent@QWidget@@MAEXPAVQMouseEvent@@@Z 00420360     qt-mt323:qt-mt323.dll
 0002:00000364       __imp_?mouseReleaseEvent@QWidget@@MAEXPAVQMouseEvent@@@Z 00420364     qt-mt323:qt-mt323.dll
 0002:00000368       __imp_?move@QWidget@@UAEXHH@Z 00420368     qt-mt323:qt-mt323.dll
 0002:0000036c       __imp_?moveEvent@QWidget@@MAEXPAVQMoveEvent@@@Z 0042036c     qt-mt323:qt-mt323.dll
 0002:00000370       __imp_?paintEvent@QFrame@@MAEXPAVQPaintEvent@@@Z 00420370     qt-mt323:qt-mt323.dll
 0002:00000374       __imp_?paintEvent@QWidget@@MAEXPAVQPaintEvent@@@Z 00420374     qt-mt323:qt-mt323.dll
 0002:00000378       __imp_?paletteChange@QWidget@@MAEXABVQPalette@@@Z 00420378     qt-mt323:qt-mt323.dll
 0002:0000037c       __imp_?polish@QWidget@@UAEXXZ 0042037c     qt-mt323:qt-mt323.dll
 0002:00000380       __imp_?property@QObject@@UBE?AVQVariant@@PBD@Z 00420380     qt-mt323:qt-mt323.dll
 0002:00000384       __imp_?qt_cast@QGrid@@UAEPAXPBD@Z 00420384     qt-mt323:qt-mt323.dll
 0002:00000388       __imp_?qt_emit@QGrid@@UAE_NHPAUQUObject@@@Z 00420388     qt-mt323:qt-mt323.dll
 0002:0000038c       __imp_?qt_invoke@QGrid@@UAE_NHPAUQUObject@@@Z 0042038c     qt-mt323:qt-mt323.dll
 0002:00000390       __imp_?qt_property@QGrid@@UAE_NHHPAVQVariant@@@Z 00420390     qt-mt323:qt-mt323.dll
 0002:00000394       __imp_?read@QGDict@@MAEAAVQDataStream@@AAV2@AAPAX@Z 00420394     qt-mt323:qt-mt323.dll
 0002:00000398       __imp_?removeChild@QObject@@UAEXPAV1@@Z 00420398     qt-mt323:qt-mt323.dll
 0002:0000039c       __imp_?reparent@QWidget@@UAEXPAV1@IABVQPoint@@_N@Z 0042039c     qt-mt323:qt-mt323.dll
 0002:000003a0       __imp_?resize@QWidget@@UAEXHH@Z 004203a0     qt-mt323:qt-mt323.dll
 0002:000003a4       __imp_?resizeEvent@QFrame@@MAEXPAVQResizeEvent@@@Z 004203a4     qt-mt323:qt-mt323.dll
 0002:000003a8       __imp_?resizeEvent@QWidget@@MAEXPAVQResizeEvent@@@Z 004203a8     qt-mt323:qt-mt323.dll
 0002:000003ac       __imp_?resolution@QPaintDevice@@UBEHXZ 004203ac     qt-mt323:qt-mt323.dll
 0002:000003b0       __imp_?setAcceptDrops@QWidget@@UAEX_N@Z 004203b0     qt-mt323:qt-mt323.dll
 0002:000003b4       __imp_?setActiveWindow@QWidget@@UAEXXZ 004203b4     qt-mt323:qt-mt323.dll
 0002:000003b8       __imp_?setAutoMask@QWidget@@UAEX_N@Z 004203b8     qt-mt323:qt-mt323.dll
 0002:000003bc       __imp_?setBackgroundColor@QWidget@@UAEXABVQColor@@@Z 004203bc     qt-mt323:qt-mt323.dll
 0002:000003c0       __imp_?setBackgroundMode@QWidget@@UAEXW4BackgroundMode@Qt@@@Z 004203c0     qt-mt323:qt-mt323.dll
 0002:000003c4       __imp_?setBackgroundOrigin@QWidget@@UAEXW4BackgroundOrigin@1@@Z 004203c4     qt-mt323:qt-mt323.dll
 0002:000003c8       __imp_?setBackgroundPixmap@QWidget@@UAEXABVQPixmap@@@Z 004203c8     qt-mt323:qt-mt323.dll
 0002:000003cc       __imp_?setCaption@QWidget@@UAEXABVQString@@@Z 004203cc     qt-mt323:qt-mt323.dll
 0002:000003d0       __imp_?setCursor@QWidget@@UAEXABVQCursor@@@Z 004203d0     qt-mt323:qt-mt323.dll
 0002:000003d4       __imp_?setEnabled@QWidget@@UAEX_N@Z 004203d4     qt-mt323:qt-mt323.dll
 0002:000003d8       __imp_?setEraseColor@QWidget@@UAEXABVQColor@@@Z 004203d8     qt-mt323:qt-mt323.dll
 0002:000003dc       __imp_?setErasePixmap@QWidget@@UAEXABVQPixmap@@@Z 004203dc     qt-mt323:qt-mt323.dll
 0002:000003e0       __imp_?setFocus@QWidget@@UAEXXZ 004203e0     qt-mt323:qt-mt323.dll
 0002:000003e4       __imp_?setFocusPolicy@QWidget@@UAEXW4FocusPolicy@1@@Z 004203e4     qt-mt323:qt-mt323.dll
 0002:000003e8       __imp_?setFocusProxy@QWidget@@UAEXPAV1@@Z 004203e8     qt-mt323:qt-mt323.dll
 0002:000003ec       __imp_?setFont@QWidget@@UAEXABVQFont@@@Z 004203ec     qt-mt323:qt-mt323.dll
 0002:000003f0       __imp_?setFrameRect@QFrame@@UAEXABVQRect@@@Z 004203f0     qt-mt323:qt-mt323.dll
 0002:000003f4       __imp_?setGeometry@QWidget@@UAEXABVQRect@@@Z 004203f4     qt-mt323:qt-mt323.dll
 0002:000003f8       __imp_?setGeometry@QWidget@@UAEXHHHH@Z 004203f8     qt-mt323:qt-mt323.dll
 0002:000003fc       __imp_?setIcon@QWidget@@UAEXABVQPixmap@@@Z 004203fc     qt-mt323:qt-mt323.dll
 0002:00000400       __imp_?setIconText@QWidget@@UAEXABVQString@@@Z 00420400     qt-mt323:qt-mt323.dll
 0002:00000404       __imp_?setKeyCompression@QWidget@@MAEX_N@Z 00420404     qt-mt323:qt-mt323.dll
 0002:00000408       __imp_?setLineWidth@QFrame@@UAEXH@Z 00420408     qt-mt323:qt-mt323.dll
 0002:0000040c       __imp_?setMargin@QFrame@@UAEXH@Z 0042040c     qt-mt323:qt-mt323.dll
 0002:00000410       __imp_?setMask@QWidget@@UAEXABVQBitmap@@@Z 00420410     qt-mt323:qt-mt323.dll
 0002:00000414       __imp_?setMask@QWidget@@UAEXABVQRegion@@@Z 00420414     qt-mt323:qt-mt323.dll
 0002:00000418       __imp_?setMaximumSize@QWidget@@UAEXHH@Z 00420418     qt-mt323:qt-mt323.dll
 0002:0000041c       __imp_?setMicroFocusHint@QWidget@@MAEXHHHH_NPAVQFont@@@Z 0042041c     qt-mt323:qt-mt323.dll
 0002:00000420       __imp_?setMidLineWidth@QFrame@@UAEXH@Z 00420420     qt-mt323:qt-mt323.dll
 0002:00000424       __imp_?setMinimumSize@QWidget@@UAEXHH@Z 00420424     qt-mt323:qt-mt323.dll
 0002:00000428       __imp_?setMouseTracking@QWidget@@UAEX_N@Z 00420428     qt-mt323:qt-mt323.dll
 0002:0000042c       __imp_?setName@QWidget@@UAEXPBD@Z 0042042c     qt-mt323:qt-mt323.dll
 0002:00000430       __imp_?setPalette@QWidget@@UAEXABVQPalette@@@Z 00420430     qt-mt323:qt-mt323.dll
 0002:00000434       __imp_?setPaletteBackgroundColor@QWidget@@UAEXABVQColor@@@Z 00420434     qt-mt323:qt-mt323.dll
 0002:00000438       __imp_?setPaletteBackgroundPixmap@QWidget@@UAEXABVQPixmap@@@Z 00420438     qt-mt323:qt-mt323.dll
 0002:0000043c       __imp_?setProperty@QObject@@UAE_NPBDABVQVariant@@@Z 0042043c     qt-mt323:qt-mt323.dll
 0002:00000440       __imp_?setResolution@QPaintDevice@@UAEXH@Z 00420440     qt-mt323:qt-mt323.dll
 0002:00000444       __imp_?setSizeIncrement@QWidget@@UAEXHH@Z 00420444     qt-mt323:qt-mt323.dll
 0002:00000448       __imp_?setSizePolicy@QWidget@@UAEXVQSizePolicy@@@Z 00420448     qt-mt323:qt-mt323.dll
 0002:0000044c       __imp_?setUpdatesEnabled@QWidget@@UAEX_N@Z 0042044c     qt-mt323:qt-mt323.dll
 0002:00000450       __imp_?setWFlags@QWidget@@MAEXI@Z 00420450     qt-mt323:qt-mt323.dll
 0002:00000454       __imp_?setWState@QWidget@@MAEXI@Z 00420454     qt-mt323:qt-mt323.dll
 0002:00000458       __imp_?show@QWidget@@UAEXXZ 00420458     qt-mt323:qt-mt323.dll
 0002:0000045c       __imp_?showEvent@QWidget@@MAEXPAVQShowEvent@@@Z 0042045c     qt-mt323:qt-mt323.dll
 0002:00000460       __imp_?showMaximized@QWidget@@UAEXXZ 00420460     qt-mt323:qt-mt323.dll
 0002:00000464       __imp_?showMinimized@QWidget@@UAEXXZ 00420464     qt-mt323:qt-mt323.dll
 0002:00000468       __imp_?showNormal@QWidget@@UAEXXZ 00420468     qt-mt323:qt-mt323.dll
 0002:0000046c       __imp_?sizeHint@QGrid@@UBE?AVQSize@@XZ 0042046c     qt-mt323:qt-mt323.dll
 0002:00000470       __imp_?sizeHint@QWidget@@UBE?AVQSize@@XZ 00420470     qt-mt323:qt-mt323.dll
 0002:00000474       __imp_?sizePolicy@QWidget@@UBE?AVQSizePolicy@@XZ 00420474     qt-mt323:qt-mt323.dll
 0002:00000478       __imp_?styleChange@QFrame@@MAEXAAVQStyle@@@Z 00420478     qt-mt323:qt-mt323.dll
 0002:0000047c       __imp_?styleChange@QWidget@@MAEXAAVQStyle@@@Z 0042047c     qt-mt323:qt-mt323.dll
 0002:00000480       __imp_?tabletEvent@QWidget@@MAEXPAVQTabletEvent@@@Z 00420480     qt-mt323:qt-mt323.dll
 0002:00000484       __imp_?timerEvent@QObject@@MAEXPAVQTimerEvent@@@Z 00420484     qt-mt323:qt-mt323.dll
 0002:00000488       __imp_?unsetCursor@QWidget@@UAEXXZ 00420488     qt-mt323:qt-mt323.dll
 0002:0000048c       __imp_?updateMask@QWidget@@MAEXXZ 0042048c     qt-mt323:qt-mt323.dll
 0002:00000490       __imp_?wheelEvent@QWidget@@MAEXPAVQWheelEvent@@@Z 00420490     qt-mt323:qt-mt323.dll
 0002:00000494       __imp_?winEvent@QWidget@@MAE_NPAUtagMSG@@@Z 00420494     qt-mt323:qt-mt323.dll
 0002:00000498       __imp_?windowActivationChange@QWidget@@MAEX_N@Z 00420498     qt-mt323:qt-mt323.dll
 0002:0000049c       __imp_?write@QGDict@@MBEAAVQDataStream@@AAV2@PAX@Z 0042049c     qt-mt323:qt-mt323.dll
 0002:000004a0       __imp_?contains@QString@@QBEHVQChar@@_N@Z 004204a0     qt-mt323:qt-mt323.dll
 0002:000004a4       __imp_?section@QString@@QBE?AV1@DHHH@Z 004204a4     qt-mt323:qt-mt323.dll
 0002:000004a8       __imp_?leftJustify@QString@@QBE?AV1@IVQChar@@_N@Z 004204a8     qt-mt323:qt-mt323.dll
 0002:000004ac       __imp_?rightJustify@QString@@QBE?AV1@IVQChar@@_N@Z 004204ac     qt-mt323:qt-mt323.dll
 0002:000004b0       __imp_?remove@QString@@QAEAAV1@II@Z 004204b0     qt-mt323:qt-mt323.dll
 0002:000004b4       __imp_?latin1@QString@@QBEPBDXZ 004204b4     qt-mt323:qt-mt323.dll
 0002:000004b8       __imp_??9@YA_NABVQString@@PBD@Z 004204b8     qt-mt323:qt-mt323.dll
 0002:000004bc       __imp_??0QObject@@QAE@PAV0@PBD@Z 004204bc     qt-mt323:qt-mt323.dll
 0002:000004c0       __imp_??1QObject@@UAE@XZ   004204c0     qt-mt323:qt-mt323.dll
 0002:000004c4       __imp_?split@QStringList@@SA?AV1@ABVQString@@0_N@Z 004204c4     qt-mt323:qt-mt323.dll
 0002:000004c8       __imp_?remove_string@QGDict@@IAE_NABVQString@@PAX@Z 004204c8     qt-mt323:qt-mt323.dll
 0002:000004cc       __imp_?take_string@QGDict@@IAEPAXABVQString@@@Z 004204cc     qt-mt323:qt-mt323.dll
 0002:000004d0       __imp_??0QGDictIterator@@QAE@ABVQGDict@@@Z 004204d0     qt-mt323:qt-mt323.dll
 0002:000004d4       __imp_??1QGDictIterator@@QAE@XZ 004204d4     qt-mt323:qt-mt323.dll
 0002:000004d8       __imp_?get@QGDictIterator@@QBEPAXXZ 004204d8     qt-mt323:qt-mt323.dll
 0002:000004dc       __imp_?getKeyString@QGDictIterator@@QBE?AVQString@@XZ 004204dc     qt-mt323:qt-mt323.dll
 0002:000004e0       __imp_??EQGDictIterator@@QAEPAXXZ 004204e0     qt-mt323:qt-mt323.dll
 0002:000004e4       __imp_??0QFile@@QAE@XZ     004204e4     qt-mt323:qt-mt323.dll
 0002:000004e8       __imp_?exists@QFile@@SA_NABVQString@@@Z 004204e8     qt-mt323:qt-mt323.dll
 0002:000004ec       __imp_??0QFileInfo@@QAE@ABVQString@@@Z 004204ec     qt-mt323:qt-mt323.dll
 0002:000004f0       __imp_??1QFileInfo@@QAE@XZ 004204f0     qt-mt323:qt-mt323.dll
 0002:000004f4       __imp_?baseName@QFileInfo@@QBE?AVQString@@_N@Z 004204f4     qt-mt323:qt-mt323.dll
 0002:000004f8       __imp_?isRunning@QProcess@@QBE_NXZ 004204f8     qt-mt323:qt-mt323.dll
 0002:000004fc       __imp_?tryTerminate@QProcess@@QBEXXZ 004204fc     qt-mt323:qt-mt323.dll
 0002:00000500       __imp_?event@QObject@@UAE_NPAVQEvent@@@Z 00420500     qt-mt323:qt-mt323.dll
 0002:00000504       __imp_?setName@QObject@@UAEXPBD@Z 00420504     qt-mt323:qt-mt323.dll
 0002:00000508       __imp_?queryList@QObject@@QBEPAVQObjectList@@PBD0_N1@Z 00420508     qt-mt323:qt-mt323.dll
 0002:0000050c       __imp_??0?$QPtrListIterator@VQObject@@@@QAE@ABV?$QPtrList@VQObject@@@@@Z 0042050c     qt-mt323:qt-mt323.dll
 0002:00000510       __imp_??1?$QPtrListIterator@VQObject@@@@QAE@XZ 00420510     qt-mt323:qt-mt323.dll
 0002:00000514       __imp_??1?$QPtrList@VQWidget@@@@UAE@XZ 00420514     qt-mt323:qt-mt323.dll
 0002:00000518       __imp_?msecsTo@QTime@@QBEHABV1@@Z 00420518     qt-mt323:qt-mt323.dll
 0002:0000051c       __imp_?currentTime@QTime@@SA?AV1@XZ 0042051c     qt-mt323:qt-mt323.dll
 0002:00000520       __imp_?critical@QMessageBox@@SAHPAVQWidget@@ABVQString@@1111HH@Z 00420520     qt-mt323:qt-mt323.dll
 0002:00000524       __imp_??1QObjectListIt@@QAE@XZ 00420524     qt-mt323:qt-mt323.dll
 0002:00000528       __imp_??0QWidgetStack@@QAE@PAVQWidget@@PBDI@Z 00420528     qt-mt323:qt-mt323.dll
 0002:0000052c       __imp_??1QWidgetStack@@UAE@XZ 0042052c     qt-mt323:qt-mt323.dll
 0002:00000530       __imp_?addWidget@QWidgetStack@@QAEHPAVQWidget@@H@Z 00420530     qt-mt323:qt-mt323.dll
 0002:00000534       __imp_?removeWidget@QWidgetStack@@QAEXPAVQWidget@@@Z 00420534     qt-mt323:qt-mt323.dll
 0002:00000538       __imp_?visibleWidget@QWidgetStack@@QBEPAVQWidget@@XZ 00420538     qt-mt323:qt-mt323.dll
 0002:0000053c       __imp_?raiseWidget@QWidgetStack@@QAEXPAVQWidget@@@Z 0042053c     qt-mt323:qt-mt323.dll
 0002:00000540       __imp_??0QSettings@@QAE@XZ 00420540     qt-mt323:qt-mt323.dll
 0002:00000544       __imp_??1QSettings@@QAE@XZ 00420544     qt-mt323:qt-mt323.dll
 0002:00000548       __imp_?readNumEntry@QSettings@@QAEHABVQString@@HPA_N@Z 00420548     qt-mt323:qt-mt323.dll
 0002:0000054c       __imp_?childEvent@QWidgetStack@@MAEXPAVQChildEvent@@@Z 0042054c     qt-mt323:qt-mt323.dll
 0002:00000550       __imp_?className@QWidgetStack@@UBEPBDXZ 00420550     qt-mt323:qt-mt323.dll
 0002:00000554       __imp_?frameChanged@QWidgetStack@@MAEXXZ 00420554     qt-mt323:qt-mt323.dll
 0002:00000558       __imp_?metaObject@QWidgetStack@@UBEPAVQMetaObject@@XZ 00420558     qt-mt323:qt-mt323.dll
 0002:0000055c       __imp_?minimumSizeHint@QWidgetStack@@UBE?AVQSize@@XZ 0042055c     qt-mt323:qt-mt323.dll
 0002:00000560       __imp_?qt_cast@QWidgetStack@@UAEPAXPBD@Z 00420560     qt-mt323:qt-mt323.dll
 0002:00000564       __imp_?qt_emit@QWidgetStack@@UAE_NHPAUQUObject@@@Z 00420564     qt-mt323:qt-mt323.dll
 0002:00000568       __imp_?qt_invoke@QWidgetStack@@UAE_NHPAUQUObject@@@Z 00420568     qt-mt323:qt-mt323.dll
 0002:0000056c       __imp_?qt_property@QWidgetStack@@UAE_NHHPAVQVariant@@@Z 0042056c     qt-mt323:qt-mt323.dll
 0002:00000570       __imp_?resizeEvent@QWidgetStack@@MAEXPAVQResizeEvent@@@Z 00420570     qt-mt323:qt-mt323.dll
 0002:00000574       __imp_?setChildGeometries@QWidgetStack@@MAEXXZ 00420574     qt-mt323:qt-mt323.dll
 0002:00000578       __imp_?setFrameRect@QWidgetStack@@UAEXABVQRect@@@Z 00420578     qt-mt323:qt-mt323.dll
 0002:0000057c       __imp_?show@QWidgetStack@@UAEXXZ 0042057c     qt-mt323:qt-mt323.dll
 0002:00000580       __imp_?sizeHint@QWidgetStack@@UBE?AVQSize@@XZ 00420580     qt-mt323:qt-mt323.dll
 0002:00000584       __imp_??_7?$QPtrList@VQWidget@@@@6B@ 00420584     qt-mt323:qt-mt323.dll
 0002:00000588       __imp_?main_widget@QApplication@@0PAVQWidget@@A 00420588     qt-mt323:qt-mt323.dll
 0002:0000058c       __imp_??0QWidget@@QAE@PAV0@PBDI@Z 0042058c     qt-mt323:qt-mt323.dll
 0002:00000590       __imp_?pos@QCursor@@SA?AVQPoint@@XZ 00420590     qt-mt323:qt-mt323.dll
 0002:00000594       __imp_?className@QWidget@@UBEPBDXZ 00420594     qt-mt323:qt-mt323.dll
 0002:00000598       __imp_?metaObject@QWidget@@UBEPAVQMetaObject@@XZ 00420598     qt-mt323:qt-mt323.dll
 0002:0000059c       __imp_?qt_cast@QWidget@@UAEPAXPBD@Z 0042059c     qt-mt323:qt-mt323.dll
 0002:000005a0       __imp_?qt_emit@QWidget@@UAE_NHPAUQUObject@@@Z 004205a0     qt-mt323:qt-mt323.dll
 0002:000005a4       __imp_?qt_invoke@QWidget@@UAE_NHPAUQUObject@@@Z 004205a4     qt-mt323:qt-mt323.dll
 0002:000005a8       __imp_?qt_property@QWidget@@UAE_NHHPAVQVariant@@@Z 004205a8     qt-mt323:qt-mt323.dll
 0002:000005ac       __imp_??0QHostAddress@@QAE@XZ 004205ac     qt-mt323:qt-mt323.dll
 0002:000005b0       __imp_??1QHostAddress@@UAE@XZ 004205b0     qt-mt323:qt-mt323.dll
 0002:000005b4       __imp_??4QHostAddress@@QAEAAV0@ABV0@@Z 004205b4     qt-mt323:qt-mt323.dll
 0002:000005b8       __imp_?setAddress@QHostAddress@@QAEXI@Z 004205b8     qt-mt323:qt-mt323.dll
 0002:000005bc       __imp_?setAddress@QHostAddress@@QAE_NABVQString@@@Z 004205bc     qt-mt323:qt-mt323.dll
 0002:000005c0       __imp_?ip4Addr@QHostAddress@@QBEIXZ 004205c0     qt-mt323:qt-mt323.dll
 0002:000005c4       __imp_?toString@QHostAddress@@QBE?AVQString@@XZ 004205c4     qt-mt323:qt-mt323.dll
 0002:000005c8       __imp_??0QSocketDevice@@QAE@W4Type@0@@Z 004205c8     qt-mt323:qt-mt323.dll
 0002:000005cc       __imp_??1QSocketDevice@@UAE@XZ 004205cc     qt-mt323:qt-mt323.dll
 0002:000005d0       __imp_?isValid@QSocketDevice@@QBE_NXZ 004205d0     qt-mt323:qt-mt323.dll
 0002:000005d4       __imp_?socket@QSocketDevice@@QBEHXZ 004205d4     qt-mt323:qt-mt323.dll
 0002:000005d8       __imp_?bytesAvailable@QSocketDevice@@QBEJXZ 004205d8     qt-mt323:qt-mt323.dll
 0002:000005dc       __imp_?deleteLater@QObject@@QAEXXZ 004205dc     qt-mt323:qt-mt323.dll
 0002:000005e0       __imp_??0QSocketNotifier@@QAE@HW4Type@0@PAVQObject@@PBD@Z 004205e0     qt-mt323:qt-mt323.dll
 0002:000005e4       __imp_??1QSocketNotifier@@UAE@XZ 004205e4     qt-mt323:qt-mt323.dll
 0002:000005e8       __imp_?accept@QSocketDevice@@UAEHXZ 004205e8     qt-mt323:qt-mt323.dll
 0002:000005ec       __imp_?at@QSocketDevice@@UAE_NK@Z 004205ec     qt-mt323:qt-mt323.dll
 0002:000005f0       __imp_?at@QSocketDevice@@UBEKXZ 004205f0     qt-mt323:qt-mt323.dll
 0002:000005f4       __imp_?atEnd@QSocketDevice@@UBE_NXZ 004205f4     qt-mt323:qt-mt323.dll
 0002:000005f8       __imp_?bind@QSocketDevice@@UAE_NABVQHostAddress@@G@Z 004205f8     qt-mt323:qt-mt323.dll
 0002:000005fc       __imp_?className@QSocketNotifier@@UBEPBDXZ 004205fc     qt-mt323:qt-mt323.dll
 0002:00000600       __imp_?close@QSocketDevice@@UAEXXZ 00420600     qt-mt323:qt-mt323.dll
 0002:00000604       __imp_?connect@QSocketDevice@@UAE_NABVQHostAddress@@G@Z 00420604     qt-mt323:qt-mt323.dll
 0002:00000608       __imp_?event@QSocketNotifier@@MAE_NPAVQEvent@@@Z 00420608     qt-mt323:qt-mt323.dll
 0002:0000060c       __imp_?flush@QSocketDevice@@UAEXXZ 0042060c     qt-mt323:qt-mt323.dll
 0002:00000610       __imp_?getch@QSocketDevice@@UAEHXZ 00420610     qt-mt323:qt-mt323.dll
 0002:00000614       __imp_?listen@QSocketDevice@@UAE_NH@Z 00420614     qt-mt323:qt-mt323.dll
 0002:00000618       __imp_?metaObject@QSocketNotifier@@UBEPAVQMetaObject@@XZ 00420618     qt-mt323:qt-mt323.dll
 0002:0000061c       __imp_?open@QSocketDevice@@UAE_NH@Z 0042061c     qt-mt323:qt-mt323.dll
 0002:00000620       __imp_?putch@QSocketDevice@@UAEHH@Z 00420620     qt-mt323:qt-mt323.dll
 0002:00000624       __imp_?qt_cast@QSocketNotifier@@UAEPAXPBD@Z 00420624     qt-mt323:qt-mt323.dll
 0002:00000628       __imp_?qt_emit@QSocketNotifier@@UAE_NHPAUQUObject@@@Z 00420628     qt-mt323:qt-mt323.dll
 0002:0000062c       __imp_?qt_invoke@QSocketNotifier@@UAE_NHPAUQUObject@@@Z 0042062c     qt-mt323:qt-mt323.dll
 0002:00000630       __imp_?qt_property@QSocketNotifier@@UAE_NHHPAVQVariant@@@Z 00420630     qt-mt323:qt-mt323.dll
 0002:00000634       __imp_?readAll@QIODevice@@UAE?AV?$QMemArray@D@@XZ 00420634     qt-mt323:qt-mt323.dll
 0002:00000638       __imp_?readBlock@QSocketDevice@@UAEJPADK@Z 00420638     qt-mt323:qt-mt323.dll
 0002:0000063c       __imp_?readLine@QIODevice@@UAEJPADK@Z 0042063c     qt-mt323:qt-mt323.dll
 0002:00000640       __imp_?setAddressReusable@QSocketDevice@@UAEX_N@Z 00420640     qt-mt323:qt-mt323.dll
 0002:00000644       __imp_?setBlocking@QSocketDevice@@UAEX_N@Z 00420644     qt-mt323:qt-mt323.dll
 0002:00000648       __imp_?setEnabled@QSocketNotifier@@UAEX_N@Z 00420648     qt-mt323:qt-mt323.dll
 0002:0000064c       __imp_?setOption@QSocketDevice@@EAEXW4Option@1@H@Z 0042064c     qt-mt323:qt-mt323.dll
 0002:00000650       __imp_?setReceiveBufferSize@QSocketDevice@@UAEXI@Z 00420650     qt-mt323:qt-mt323.dll
 0002:00000654       __imp_?setSendBufferSize@QSocketDevice@@UAEXI@Z 00420654     qt-mt323:qt-mt323.dll
 0002:00000658       __imp_?setSocket@QSocketDevice@@UAEXHW4Type@1@@Z 00420658     qt-mt323:qt-mt323.dll
 0002:0000065c       __imp_?size@QSocketDevice@@UBEKXZ 0042065c     qt-mt323:qt-mt323.dll
 0002:00000660       __imp_?ungetch@QSocketDevice@@UAEHH@Z 00420660     qt-mt323:qt-mt323.dll
 0002:00000664       __imp_?writeBlock@QSocketDevice@@UAEJPBDK@Z 00420664     qt-mt323:qt-mt323.dll
 0002:00000668       __imp_?writeBlock@QSocketDevice@@UAEJPBDKABVQHostAddress@@G@Z 00420668     qt-mt323:qt-mt323.dll
 0002:0000066c       __imp_??0QColorGroup@@QAE@ABV0@@Z 0042066c     qt-mt323:qt-mt323.dll
 0002:00000670       __imp_??1QColorGroup@@QAE@XZ 00420670     qt-mt323:qt-mt323.dll
 0002:00000674       __imp_?style@QWidget@@QBEAAVQStyle@@XZ 00420674     qt-mt323:qt-mt323.dll
 0002:00000678       __imp_?rect@QWidget@@QBE?AVQRect@@XZ 00420678     qt-mt323:qt-mt323.dll
 0002:0000067c       __imp_?colorGroup@QWidget@@QBEABVQColorGroup@@XZ 0042067c     qt-mt323:qt-mt323.dll
 0002:00000680       __imp_??0QPainter@@QAE@PBVQPaintDevice@@_N@Z 00420680     qt-mt323:qt-mt323.dll
 0002:00000684       __imp_??0QPainter@@QAE@PBVQPaintDevice@@PBVQWidget@@_N@Z 00420684     qt-mt323:qt-mt323.dll
 0002:00000688       __imp_??1QPainter@@QAE@XZ  00420688     qt-mt323:qt-mt323.dll
 0002:0000068c       __imp_??1QPixmap@@UAE@XZ   0042068c     qt-mt323:qt-mt323.dll
 0002:00000690       __imp_?fill@QPixmap@@QAEXABVQColor@@@Z 00420690     qt-mt323:qt-mt323.dll
 0002:00000694       __imp_??0QBitmap@@QAE@ABVQSize@@_NW4Optimization@QPixmap@@@Z 00420694     qt-mt323:qt-mt323.dll
 0002:00000698       __imp_??1QBitmap@@UAE@XZ   00420698     qt-mt323:qt-mt323.dll
 0002:0000069c       __imp_?setFrameShape@QFrame@@QAEXW4Shape@1@@Z 0042069c     qt-mt323:qt-mt323.dll
 0002:000006a0       __imp_?clear@QMenuData@@QAEXXZ 004206a0     qt-mt323:qt-mt323.dll
 0002:000006a4       __imp_?popup@QPopupMenu@@QAEXABVQPoint@@H@Z 004206a4     qt-mt323:qt-mt323.dll
 0002:000006a8       __imp_?activateItemAt@QPopupMenu@@UAEXH@Z 004206a8     qt-mt323:qt-mt323.dll
 0002:000006ac       __imp_?closeEvent@QPopupMenu@@MAEXPAVQCloseEvent@@@Z 004206ac     qt-mt323:qt-mt323.dll
 0002:000006b0       __imp_?customWhatsThis@QPopupMenu@@UBE_NXZ 004206b0     qt-mt323:qt-mt323.dll
 0002:000006b4       __imp_?enabledChange@QPopupMenu@@MAEX_N@Z 004206b4     qt-mt323:qt-mt323.dll
 0002:000006b8       __imp_?focusInEvent@QPopupMenu@@MAEXPAVQFocusEvent@@@Z 004206b8     qt-mt323:qt-mt323.dll
 0002:000006bc       __imp_?focusNextPrevChild@QPopupMenu@@MAE_N_N@Z 004206bc     qt-mt323:qt-mt323.dll
 0002:000006c0       __imp_?focusOutEvent@QPopupMenu@@MAEXPAVQFocusEvent@@@Z 004206c0     qt-mt323:qt-mt323.dll
 0002:000006c4       __imp_?frameChanged@QPopupMenu@@EAEXXZ 004206c4     qt-mt323:qt-mt323.dll
 0002:000006c8       __imp_?hide@QPopupMenu@@UAEXXZ 004206c8     qt-mt323:qt-mt323.dll
 0002:000006cc       __imp_?keyPressEvent@QPopupMenu@@MAEXPAVQKeyEvent@@@Z 004206cc     qt-mt323:qt-mt323.dll
 0002:000006d0       __imp_?leaveEvent@QPopupMenu@@MAEXPAVQEvent@@@Z 004206d0     qt-mt323:qt-mt323.dll
 0002:000006d4       __imp_?menuContentsChanged@QPopupMenu@@EAEXXZ 004206d4     qt-mt323:qt-mt323.dll
 0002:000006d8       __imp_?menuDelPopup@QPopupMenu@@EAEXPAV1@@Z 004206d8     qt-mt323:qt-mt323.dll
 0002:000006dc       __imp_?menuInsPopup@QPopupMenu@@EAEXPAV1@@Z 004206dc     qt-mt323:qt-mt323.dll
 0002:000006e0       __imp_?menuStateChanged@QPopupMenu@@EAEXXZ 004206e0     qt-mt323:qt-mt323.dll
 0002:000006e4       __imp_?mouseMoveEvent@QPopupMenu@@MAEXPAVQMouseEvent@@@Z 004206e4     qt-mt323:qt-mt323.dll
 0002:000006e8       __imp_?mousePressEvent@QPopupMenu@@MAEXPAVQMouseEvent@@@Z 004206e8     qt-mt323:qt-mt323.dll
 0002:000006ec       __imp_?mouseReleaseEvent@QPopupMenu@@MAEXPAVQMouseEvent@@@Z 004206ec     qt-mt323:qt-mt323.dll
 0002:000006f0       __imp_?setActiveItem@QPopupMenu@@UAEXH@Z 004206f0     qt-mt323:qt-mt323.dll
 0002:000006f4       __imp_?setCheckable@QPopupMenu@@UAEX_N@Z 004206f4     qt-mt323:qt-mt323.dll
 0002:000006f8       __imp_?setFirstItemActive@QPopupMenu@@EAEXXZ 004206f8     qt-mt323:qt-mt323.dll
 0002:000006fc       __imp_?setFont@QPopupMenu@@UAEXABVQFont@@@Z 004206fc     qt-mt323:qt-mt323.dll
 0002:00000700       __imp_?setId@QMenuData@@UAEXHH@Z 00420700     qt-mt323:qt-mt323.dll
 0002:00000704       __imp_?show@QPopupMenu@@UAEXXZ 00420704     qt-mt323:qt-mt323.dll
 0002:00000708       __imp_?sizeHint@QPopupMenu@@UBE?AVQSize@@XZ 00420708     qt-mt323:qt-mt323.dll
 0002:0000070c       __imp_?styleChange@QPopupMenu@@MAEXAAVQStyle@@@Z 0042070c     qt-mt323:qt-mt323.dll
 0002:00000710       __imp_?timerEvent@QPopupMenu@@MAEXPAVQTimerEvent@@@Z 00420710     qt-mt323:qt-mt323.dll
 0002:00000714       __imp_?updateItem@QPopupMenu@@UAEXH@Z 00420714     qt-mt323:qt-mt323.dll
 0002:00000718       __imp_?white@Qt@@2AAVQColor@@A 00420718     qt-mt323:qt-mt323.dll
 0002:0000071c       __imp_?close@QWidget@@QAE_NXZ 0042071c     qt-mt323:qt-mt323.dll
 0002:00000720       __imp_??0QDialog@@QAE@PAVQWidget@@PBD_NI@Z 00420720     qt-mt323:qt-mt323.dll
 0002:00000724       __imp_??1QDialog@@UAE@XZ   00420724     qt-mt323:qt-mt323.dll
 0002:00000728       __imp_?exec@QDialog@@QAEHXZ 00420728     qt-mt323:qt-mt323.dll
 0002:0000072c       __imp_?accept@QDialog@@MAEXXZ 0042072c     qt-mt323:qt-mt323.dll
 0002:00000730       __imp_?closeEvent@QDialog@@MAEXPAVQCloseEvent@@@Z 00420730     qt-mt323:qt-mt323.dll
 0002:00000734       __imp_?contextMenuEvent@QDialog@@MAEXPAVQContextMenuEvent@@@Z 00420734     qt-mt323:qt-mt323.dll
 0002:00000738       __imp_?done@QDialog@@MAEXH@Z 00420738     qt-mt323:qt-mt323.dll
 0002:0000073c       __imp_?eventFilter@QDialog@@MAE_NPAVQObject@@PAVQEvent@@@Z 0042073c     qt-mt323:qt-mt323.dll
 0002:00000740       __imp_?hide@QDialog@@UAEXXZ 00420740     qt-mt323:qt-mt323.dll
 0002:00000744       __imp_?keyPressEvent@QDialog@@MAEXPAVQKeyEvent@@@Z 00420744     qt-mt323:qt-mt323.dll
 0002:00000748       __imp_?minimumSizeHint@QDialog@@UBE?AVQSize@@XZ 00420748     qt-mt323:qt-mt323.dll
 0002:0000074c       __imp_?move@QDialog@@UAEXHH@Z 0042074c     qt-mt323:qt-mt323.dll
 0002:00000750       __imp_?reject@QDialog@@MAEXXZ 00420750     qt-mt323:qt-mt323.dll
 0002:00000754       __imp_?resize@QDialog@@UAEXHH@Z 00420754     qt-mt323:qt-mt323.dll
 0002:00000758       __imp_?resizeEvent@QDialog@@MAEXPAVQResizeEvent@@@Z 00420758     qt-mt323:qt-mt323.dll
 0002:0000075c       __imp_?setGeometry@QDialog@@UAEXABVQRect@@@Z 0042075c     qt-mt323:qt-mt323.dll
 0002:00000760       __imp_?setGeometry@QDialog@@UAEXHHHH@Z 00420760     qt-mt323:qt-mt323.dll
 0002:00000764       __imp_?show@QDialog@@UAEXXZ 00420764     qt-mt323:qt-mt323.dll
 0002:00000768       __imp_?sizeHint@QDialog@@UBE?AVQSize@@XZ 00420768     qt-mt323:qt-mt323.dll
 0002:0000076c       __imp_??A?$QValueList@VQString@@@@QAEAAVQString@@I@Z 0042076c     qt-mt323:qt-mt323.dll
 0002:00000770       __imp_?startTimer@QObject@@QAEHH@Z 00420770     qt-mt323:qt-mt323.dll
 0002:00000774       __imp_?killTimer@QObject@@QAEXH@Z 00420774     qt-mt323:qt-mt323.dll
 0002:00000778       __imp_??0QProcess@@QAE@PAVQObject@@PBD@Z 00420778     qt-mt323:qt-mt323.dll
 0002:0000077c       __imp_??1QProcess@@UAE@XZ  0042077c     qt-mt323:qt-mt323.dll
 0002:00000780       __imp_?arguments@QProcess@@QBE?AVQStringList@@XZ 00420780     qt-mt323:qt-mt323.dll
 0002:00000784       __imp_?addArgument@QProcess@@UAEXABVQString@@@Z 00420784     qt-mt323:qt-mt323.dll
 0002:00000788       __imp_?className@QProcess@@UBEPBDXZ 00420788     qt-mt323:qt-mt323.dll
 0002:0000078c       __imp_?closeStdin@QProcess@@UAEXXZ 0042078c     qt-mt323:qt-mt323.dll
 0002:00000790       __imp_?connectNotify@QProcess@@MAEXPBD@Z 00420790     qt-mt323:qt-mt323.dll
 0002:00000794       __imp_?disconnectNotify@QProcess@@MAEXPBD@Z 00420794     qt-mt323:qt-mt323.dll
 0002:00000798       __imp_?launch@QProcess@@UAE_NABV?$QMemArray@D@@PAVQStringList@@@Z 00420798     qt-mt323:qt-mt323.dll
 0002:0000079c       __imp_?x@QWidget@@QBEHXZ   0042079c     qt-mt323:qt-mt323.dll
 0002:000007a0       __imp_?metaObject@QProcess@@UBEPAVQMetaObject@@XZ 004207a0     qt-mt323:qt-mt323.dll
 0002:000007a4       __imp_?qt_cast@QProcess@@UAEPAXPBD@Z 004207a4     qt-mt323:qt-mt323.dll
 0002:000007a8       __imp_?qt_emit@QProcess@@UAE_NHPAUQUObject@@@Z 004207a8     qt-mt323:qt-mt323.dll
 0002:000007ac       __imp_?qt_invoke@QProcess@@UAE_NHPAUQUObject@@@Z 004207ac     qt-mt323:qt-mt323.dll
 0002:000007b0       __imp_?close@QWidget@@UAE_N_N@Z 004207b0     qt-mt323:qt-mt323.dll
 0002:000007b4       __imp_?readLineStderr@QProcess@@UAE?AVQString@@XZ 004207b4     qt-mt323:qt-mt323.dll
 0002:000007b8       __imp_?readLineStdout@QProcess@@UAE?AVQString@@XZ 004207b8     qt-mt323:qt-mt323.dll
 0002:000007bc       __imp_?readStderr@QProcess@@UAE?AV?$QMemArray@D@@XZ 004207bc     qt-mt323:qt-mt323.dll
 0002:000007c0       __imp_?readStdout@QProcess@@UAE?AV?$QMemArray@D@@XZ 004207c0     qt-mt323:qt-mt323.dll
 0002:000007c4       __imp_?setArguments@QProcess@@UAEXABVQStringList@@@Z 004207c4     qt-mt323:qt-mt323.dll
 0002:000007c8       __imp_?setWorkingDirectory@QProcess@@UAEXABVQDir@@@Z 004207c8     qt-mt323:qt-mt323.dll
 0002:000007cc       __imp_?start@QProcess@@UAE_NPAVQStringList@@@Z 004207cc     qt-mt323:qt-mt323.dll
 0002:000007d0       __imp_?writeToStdin@QProcess@@UAEXABV?$QMemArray@D@@@Z 004207d0     qt-mt323:qt-mt323.dll
 0002:000007d4       __imp_?writeToStdin@QProcess@@UAEXABVQString@@@Z 004207d4     qt-mt323:qt-mt323.dll
 0002:000007d8       __imp_?sort@QStringList@@QAEXXZ 004207d8     qt-mt323:qt-mt323.dll
 0002:000007dc       __imp_?deleteSelf@QStringData@@QAEXXZ 004207dc     qt-mt323:qt-mt323.dll
 0002:000007e0       __imp_?arg@QString@@QBE?AV1@IHH@Z 004207e0     qt-mt323:qt-mt323.dll
 0002:000007e4       __imp_?startsWith@QString@@QBE_NABV1@_N@Z 004207e4     qt-mt323:qt-mt323.dll
 0002:000007e8       __imp_?makeSharedNull@QString@@CAPAUQStringData@@XZ 004207e8     qt-mt323:qt-mt323.dll
 0002:000007ec       __imp_??0QApplication@@QAE@AAHPAPAD@Z 004207ec     qt-mt323:qt-mt323.dll
 0002:000007f0       __imp_??1QApplication@@UAE@XZ 004207f0     qt-mt323:qt-mt323.dll
 0002:000007f4       __imp_?setMainWidget@QApplication@@UAEXPAVQWidget@@@Z 004207f4     qt-mt323:qt-mt323.dll
 0002:000007f8       __imp_?exec@QApplication@@QAEHXZ 004207f8     qt-mt323:qt-mt323.dll
 0002:000007fc       __imp_?addLibraryPath@QApplication@@SAXABVQString@@@Z 004207fc     qt-mt323:qt-mt323.dll
 0002:00000800       __imp_?shared_null@QString@@0PAUQStringData@@A 00420800     qt-mt323:qt-mt323.dll
 0002:00000804       __imp_?qstrcmp@@YAHPBD0@Z  00420804     qt-mt323:qt-mt323.dll
 0002:00000808       __imp_?receivers@QObject@@IBEPAVQConnectionList@@H@Z 00420808     qt-mt323:qt-mt323.dll
 0002:0000080c       __imp_?activate_signal@QObject@@IAEXH@Z 0042080c     qt-mt323:qt-mt323.dll
 0002:00000810       __imp_?activate_signal@QObject@@IAEXPAVQConnectionList@@PAUQUObject@@@Z 00420810     qt-mt323:qt-mt323.dll
 0002:00000814       __imp_?qt_cast@QPopupMenu@@UAEPAXPBD@Z 00420814     qt-mt323:qt-mt323.dll
 0002:00000818       __imp_?qt_invoke@QPopupMenu@@UAE_NHPAUQUObject@@@Z 00420818     qt-mt323:qt-mt323.dll
 0002:0000081c       __imp_?qt_emit@QPopupMenu@@UAE_NHPAUQUObject@@@Z 0042081c     qt-mt323:qt-mt323.dll
 0002:00000820       __imp_?qt_property@QPopupMenu@@UAE_NHHPAVQVariant@@@Z 00420820     qt-mt323:qt-mt323.dll
 0002:00000824       __imp_?staticMetaObject@QPopupMenu@@SAPAVQMetaObject@@XZ 00420824     qt-mt323:qt-mt323.dll
 0002:00000828       __imp_?new_metaobject@QMetaObject@@SAPAV1@PBDPAV1@QBUQMetaData@@H2HQBVQMetaProperty@@HQBUQMetaEnum@@HQBUQClassInfo@@H@Z 00420828     qt-mt323:qt-mt323.dll
 0002:0000082c       __imp_??0QMetaObjectCleanUp@@QAE@PBDP6APAVQMetaObject@@XZ@Z 0042082c     qt-mt323:qt-mt323.dll
 0002:00000830       __imp_??1QMetaObjectCleanUp@@QAE@XZ 00420830     qt-mt323:qt-mt323.dll
 0002:00000834       __imp_?setMetaObject@QMetaObjectCleanUp@@QAEXAAPAVQMetaObject@@@Z 00420834     qt-mt323:qt-mt323.dll
 0002:00000838       __imp_??0QUObject@@QAE@XZ  00420838     qt-mt323:qt-mt323.dll
 0002:0000083c       __imp_??1QUObject@@QAE@XZ  0042083c     qt-mt323:qt-mt323.dll
 0002:00000840       __imp_?set@QUType_QString@@QAEXPAUQUObject@@ABVQString@@@Z 00420840     qt-mt323:qt-mt323.dll
 0002:00000844       __imp_?static_QUType_QString@@3UQUType_QString@@A 00420844     qt-mt323:qt-mt323.dll
 0002:00000848       __imp_?pos@QWidget@@QBE?AVQPoint@@XZ 00420848     qt-mt323:qt-mt323.dll
 0002:0000084c       __imp_?setStyle@QApplication@@SAPAVQStyle@@ABVQString@@@Z 0042084c     qt-mt323:qt-mt323.dll
 0002:00000850       __imp_?addWidget@QBoxLayout@@QAEXPAVQWidget@@HH@Z 00420850     qt-mt323:qt-mt323.dll
 0002:00000854       __imp_??0QVBoxLayout@@QAE@PAVQWidget@@HHPBD@Z 00420854     qt-mt323:qt-mt323.dll
 0002:00000858       __imp_??1QVBoxLayout@@UAE@XZ 00420858     qt-mt323:qt-mt323.dll
 0002:0000085c       __imp_??0QPixmap@@QAE@QAPBD@Z 0042085c     qt-mt323:qt-mt323.dll
 0002:00000860       __imp_??0QListBox@@QAE@PAVQWidget@@PBDI@Z 00420860     qt-mt323:qt-mt323.dll
 0002:00000864       __imp_??1QListBox@@UAE@XZ  00420864     qt-mt323:qt-mt323.dll
 0002:00000868       __imp_?insertItem@QListBox@@QAEXABVQString@@H@Z 00420868     qt-mt323:qt-mt323.dll
 0002:0000086c       __imp_?addChild@QScrollView@@UAEXPAVQWidget@@HH@Z 0042086c     qt-mt323:qt-mt323.dll
 0002:00000870       __imp_?addItem@QBoxLayout@@UAEXPAVQLayoutItem@@@Z 00420870     qt-mt323:qt-mt323.dll
 0002:00000874       __imp_?childEvent@QLayout@@MAEXPAVQChildEvent@@@Z 00420874     qt-mt323:qt-mt323.dll
 0002:00000878       __imp_?className@QListBox@@UBEPBDXZ 00420878     qt-mt323:qt-mt323.dll
 0002:0000087c       __imp_?className@QVBoxLayout@@UBEPBDXZ 0042087c     qt-mt323:qt-mt323.dll
 0002:00000880       __imp_?clearSelection@QListBox@@UAEXXZ 00420880     qt-mt323:qt-mt323.dll
 0002:00000884       __imp_?contentsContextMenuEvent@QListBox@@MAEXPAVQContextMenuEvent@@@Z 00420884     qt-mt323:qt-mt323.dll
 0002:00000888       __imp_?contentsDragEnterEvent@QScrollView@@MAEXPAVQDragEnterEvent@@@Z 00420888     qt-mt323:qt-mt323.dll
 0002:0000088c       __imp_?contentsDragLeaveEvent@QScrollView@@MAEXPAVQDragLeaveEvent@@@Z 0042088c     qt-mt323:qt-mt323.dll
 0002:00000890       __imp_?contentsDragMoveEvent@QScrollView@@MAEXPAVQDragMoveEvent@@@Z 00420890     qt-mt323:qt-mt323.dll
 0002:00000894       __imp_?contentsDropEvent@QScrollView@@MAEXPAVQDropEvent@@@Z 00420894     qt-mt323:qt-mt323.dll
 0002:00000898       __imp_?contentsMouseDoubleClickEvent@QScrollView@@MAEXPAVQMouseEvent@@@Z 00420898     qt-mt323:qt-mt323.dll
 0002:0000089c       __imp_?contentsMouseMoveEvent@QScrollView@@MAEXPAVQMouseEvent@@@Z 0042089c     qt-mt323:qt-mt323.dll
 0002:000008a0       __imp_?contentsMousePressEvent@QScrollView@@MAEXPAVQMouseEvent@@@Z 004208a0     qt-mt323:qt-mt323.dll
 0002:000008a4       __imp_?contentsMouseReleaseEvent@QScrollView@@MAEXPAVQMouseEvent@@@Z 004208a4     qt-mt323:qt-mt323.dll
 0002:000008a8       __imp_?contentsWheelEvent@QScrollView@@MAEXPAVQWheelEvent@@@Z 004208a8     qt-mt323:qt-mt323.dll
 0002:000008ac       __imp_?contextMenuEvent@QScrollView@@MAEXPAVQContextMenuEvent@@@Z 004208ac     qt-mt323:qt-mt323.dll
 0002:000008b0       __imp_?drawContents@QScrollView@@EAEXPAVQPainter@@@Z 004208b0     qt-mt323:qt-mt323.dll
 0002:000008b4       __imp_?drawContents@QScrollView@@MAEXPAVQPainter@@HHHH@Z 004208b4     qt-mt323:qt-mt323.dll
 0002:000008b8       __imp_?drawContentsOffset@QScrollView@@MAEXPAVQPainter@@HHHHHH@Z 004208b8     qt-mt323:qt-mt323.dll
 0002:000008bc       __imp_?ensureCurrentVisible@QListBox@@UAEXXZ 004208bc     qt-mt323:qt-mt323.dll
 0002:000008c0       __imp_?eventFilter@QLayout@@MAE_NPAVQObject@@PAVQEvent@@@Z 004208c0     qt-mt323:qt-mt323.dll
 0002:000008c4       __imp_?eventFilter@QListBox@@MAE_NPAVQObject@@PAVQEvent@@@Z 004208c4     qt-mt323:qt-mt323.dll
 0002:000008c8       __imp_?expanding@QBoxLayout@@UBE?AW4ExpandData@QSizePolicy@@XZ 004208c8     qt-mt323:qt-mt323.dll
 0002:000008cc       __imp_?focusInEvent@QListBox@@MAEXPAVQFocusEvent@@@Z 004208cc     qt-mt323:qt-mt323.dll
 0002:000008d0       __imp_?focusNextPrevChild@QScrollView@@MAE_N_N@Z 004208d0     qt-mt323:qt-mt323.dll
 0002:000008d4       __imp_?focusOutEvent@QListBox@@MAEXPAVQFocusEvent@@@Z 004208d4     qt-mt323:qt-mt323.dll
 0002:000008d8       __imp_?fontChange@QScrollView@@MAEXABVQFont@@@Z 004208d8     qt-mt323:qt-mt323.dll
 0002:000008dc       __imp_?frameChanged@QScrollView@@MAEXXZ 004208dc     qt-mt323:qt-mt323.dll
 0002:000008e0       __imp_?geometry@QLayout@@UBE?AVQRect@@XZ 004208e0     qt-mt323:qt-mt323.dll
 0002:000008e4       __imp_?hasHeightForWidth@QBoxLayout@@UBE_NXZ 004208e4     qt-mt323:qt-mt323.dll
 0002:000008e8       __imp_?heightForWidth@QBoxLayout@@UBEHH@Z 004208e8     qt-mt323:qt-mt323.dll
 0002:000008ec       __imp_?invalidate@QBoxLayout@@UAEXXZ 004208ec     qt-mt323:qt-mt323.dll
 0002:000008f0       __imp_?invertSelection@QListBox@@UAEXXZ 004208f0     qt-mt323:qt-mt323.dll
 0002:000008f4       __imp_?isEmpty@QLayout@@UBE_NXZ 004208f4     qt-mt323:qt-mt323.dll
 0002:000008f8       __imp_?iterator@QBoxLayout@@UAE?AVQLayoutIterator@@XZ 004208f8     qt-mt323:qt-mt323.dll
 0002:000008fc       __imp_?keyPressEvent@QListBox@@MAEXPAVQKeyEvent@@@Z 004208fc     qt-mt323:qt-mt323.dll
 0002:00000900       __imp_?layout@QLayout@@UAEPAV1@XZ 00420900     qt-mt323:qt-mt323.dll
 0002:00000904       __imp_?maximumSize@QBoxLayout@@UBE?AVQSize@@XZ 00420904     qt-mt323:qt-mt323.dll
 0002:00000908       __imp_?metaObject@QListBox@@UBEPAVQMetaObject@@XZ 00420908     qt-mt323:qt-mt323.dll
 0002:0000090c       __imp_?metaObject@QVBoxLayout@@UBEPAVQMetaObject@@XZ 0042090c     qt-mt323:qt-mt323.dll
 0002:00000910       __imp_?minimumSize@QBoxLayout@@UBE?AVQSize@@XZ 00420910     qt-mt323:qt-mt323.dll
 0002:00000914       __imp_?minimumSizeHint@QListBox@@UBE?AVQSize@@XZ 00420914     qt-mt323:qt-mt323.dll
 0002:00000918       __imp_?mouseDoubleClickEvent@QListBox@@MAEXPAVQMouseEvent@@@Z 00420918     qt-mt323:qt-mt323.dll
 0002:0000091c       __imp_?mouseMoveEvent@QListBox@@MAEXPAVQMouseEvent@@@Z 0042091c     qt-mt323:qt-mt323.dll
 0002:00000920       __imp_?mousePressEvent@QListBox@@MAEXPAVQMouseEvent@@@Z 00420920     qt-mt323:qt-mt323.dll
 0002:00000924       __imp_?mouseReleaseEvent@QListBox@@MAEXPAVQMouseEvent@@@Z 00420924     qt-mt323:qt-mt323.dll
 0002:00000928       __imp_?moveChild@QScrollView@@UAEXPAVQWidget@@HH@Z 00420928     qt-mt323:qt-mt323.dll
 0002:0000092c       __imp_?paintCell@QListBox@@MAEXPAVQPainter@@HH@Z 0042092c     qt-mt323:qt-mt323.dll
 0002:00000930       __imp_?qt_cast@QListBox@@UAEPAXPBD@Z 00420930     qt-mt323:qt-mt323.dll
 0002:00000934       __imp_?qt_cast@QVBoxLayout@@UAEPAXPBD@Z 00420934     qt-mt323:qt-mt323.dll
 0002:00000938       __imp_?qt_emit@QListBox@@UAE_NHPAUQUObject@@@Z 00420938     qt-mt323:qt-mt323.dll
 0002:0000093c       __imp_?qt_emit@QVBoxLayout@@UAE_NHPAUQUObject@@@Z 0042093c     qt-mt323:qt-mt323.dll
 0002:00000940       __imp_?qt_invoke@QListBox@@UAE_NHPAUQUObject@@@Z 00420940     qt-mt323:qt-mt323.dll
 0002:00000944       __imp_?qt_invoke@QVBoxLayout@@UAE_NHPAUQUObject@@@Z 00420944     qt-mt323:qt-mt323.dll
 0002:00000948       __imp_?qt_property@QListBox@@UAE_NHHPAVQVariant@@@Z 00420948     qt-mt323:qt-mt323.dll
 0002:0000094c       __imp_?qt_property@QVBoxLayout@@UAE_NHHPAVQVariant@@@Z 0042094c     qt-mt323:qt-mt323.dll
 0002:00000950       __imp_?removeChild@QScrollView@@UAEXPAVQObject@@@Z 00420950     qt-mt323:qt-mt323.dll
 0002:00000954       __imp_?resize@QScrollView@@UAEXHH@Z 00420954     qt-mt323:qt-mt323.dll
 0002:00000958       __imp_?resizeContents@QScrollView@@UAEXHH@Z 00420958     qt-mt323:qt-mt323.dll
 0002:0000095c       __imp_?resizeEvent@QListBox@@MAEXPAVQResizeEvent@@@Z 0042095c     qt-mt323:qt-mt323.dll
 0002:00000960       __imp_?selectAll@QListBox@@UAEX_N@Z 00420960     qt-mt323:qt-mt323.dll
 0002:00000964       __imp_?setAlignment@QLayoutItem@@UAEXH@Z 00420964     qt-mt323:qt-mt323.dll
 0002:00000968       __imp_?setAutoAdd@QLayout@@UAEX_N@Z 00420968     qt-mt323:qt-mt323.dll
 0002:0000096c       __imp_?setBottomItem@QListBox@@UAEXH@Z 0042096c     qt-mt323:qt-mt323.dll
 0002:00000970       __imp_?setColumnMode@QListBox@@UAEXH@Z 00420970     qt-mt323:qt-mt323.dll
 0002:00000974       __imp_?setColumnMode@QListBox@@UAEXW4LayoutMode@1@@Z 00420974     qt-mt323:qt-mt323.dll
 0002:00000978       __imp_?setContentsPos@QScrollView@@UAEXHH@Z 00420978     qt-mt323:qt-mt323.dll
 0002:0000097c       __imp_?setCornerWidget@QScrollView@@UAEXPAVQWidget@@@Z 0042097c     qt-mt323:qt-mt323.dll
 0002:00000980       __imp_?setCurrentItem@QListBox@@UAEXH@Z 00420980     qt-mt323:qt-mt323.dll
 0002:00000984       __imp_?setCurrentItem@QListBox@@UAEXPAVQListBoxItem@@@Z 00420984     qt-mt323:qt-mt323.dll
 0002:00000988       __imp_?setDragAutoScroll@QScrollView@@UAEX_N@Z 00420988     qt-mt323:qt-mt323.dll
 0002:0000098c       __imp_?setEnabled@QScrollView@@UAEX_N@Z 0042098c     qt-mt323:qt-mt323.dll
 0002:00000990       __imp_?setFont@QListBox@@UAEXABVQFont@@@Z 00420990     qt-mt323:qt-mt323.dll
 0002:00000994       __imp_?setGeometry@QBoxLayout@@UAEXABVQRect@@@Z 00420994     qt-mt323:qt-mt323.dll
 0002:00000998       __imp_?setHBarGeometry@QScrollView@@MAEXAAVQScrollBar@@HHHH@Z 00420998     qt-mt323:qt-mt323.dll
 0002:0000099c       __imp_?setHScrollBarMode@QScrollView@@UAEXW4ScrollBarMode@1@@Z 0042099c     qt-mt323:qt-mt323.dll
 0002:000009a0       __imp_?setMargin@QLayout@@UAEXH@Z 004209a0     qt-mt323:qt-mt323.dll
 0002:000009a4       __imp_?setMargins@QScrollView@@MAEXHHHH@Z 004209a4     qt-mt323:qt-mt323.dll
 0002:000009a8       __imp_?setMenuBar@QLayout@@UAEXPAVQMenuBar@@@Z 004209a8     qt-mt323:qt-mt323.dll
 0002:000009ac       __imp_?setResizePolicy@QScrollView@@UAEXW4ResizePolicy@1@@Z 004209ac     qt-mt323:qt-mt323.dll
 0002:000009b0       __imp_?setRowMode@QListBox@@UAEXH@Z 004209b0     qt-mt323:qt-mt323.dll
 0002:000009b4       __imp_?setRowMode@QListBox@@UAEXW4LayoutMode@1@@Z 004209b4     qt-mt323:qt-mt323.dll
 0002:000009b8       __imp_?setSelected@QListBox@@UAEXPAVQListBoxItem@@_N@Z 004209b8     qt-mt323:qt-mt323.dll
 0002:000009bc       __imp_?setSelectionMode@QListBox@@UAEXW4SelectionMode@1@@Z 004209bc     qt-mt323:qt-mt323.dll
 0002:000009c0       __imp_?setSpacing@QLayout@@UAEXH@Z 004209c0     qt-mt323:qt-mt323.dll
 0002:000009c4       __imp_?setTopItem@QListBox@@UAEXH@Z 004209c4     qt-mt323:qt-mt323.dll
 0002:000009c8       __imp_?setVBarGeometry@QScrollView@@MAEXAAVQScrollBar@@HHHH@Z 004209c8     qt-mt323:qt-mt323.dll
 0002:000009cc       __imp_?setVScrollBarMode@QScrollView@@UAEXW4ScrollBarMode@1@@Z 004209cc     qt-mt323:qt-mt323.dll
 0002:000009d0       __imp_?setVariableHeight@QListBox@@UAEX_N@Z 004209d0     qt-mt323:qt-mt323.dll
 0002:000009d4       __imp_?setVariableWidth@QListBox@@UAEX_N@Z 004209d4     qt-mt323:qt-mt323.dll
 0002:000009d8       __imp_?show@QScrollView@@UAEXXZ 004209d8     qt-mt323:qt-mt323.dll
 0002:000009dc       __imp_?showEvent@QListBox@@MAEXPAVQShowEvent@@@Z 004209dc     qt-mt323:qt-mt323.dll
 0002:000009e0       __imp_?sizeHint@QBoxLayout@@UBE?AVQSize@@XZ 004209e0     qt-mt323:qt-mt323.dll
 0002:000009e4       __imp_?sizeHint@QListBox@@UBE?AVQSize@@XZ 004209e4     qt-mt323:qt-mt323.dll
 0002:000009e8       __imp_?spacerItem@QLayoutItem@@UAEPAVQSpacerItem@@XZ 004209e8     qt-mt323:qt-mt323.dll
 0002:000009ec       __imp_?styleChange@QScrollView@@UAEXAAVQStyle@@@Z 004209ec     qt-mt323:qt-mt323.dll
 0002:000009f0       __imp_?viewportContextMenuEvent@QScrollView@@MAEXPAVQContextMenuEvent@@@Z 004209f0     qt-mt323:qt-mt323.dll
 0002:000009f4       __imp_?viewportDragEnterEvent@QScrollView@@MAEXPAVQDragEnterEvent@@@Z 004209f4     qt-mt323:qt-mt323.dll
 0002:000009f8       __imp_?viewportDragLeaveEvent@QScrollView@@MAEXPAVQDragLeaveEvent@@@Z 004209f8     qt-mt323:qt-mt323.dll
 0002:000009fc       __imp_?viewportDragMoveEvent@QScrollView@@MAEXPAVQDragMoveEvent@@@Z 004209fc     qt-mt323:qt-mt323.dll
 0002:00000a00       __imp_?viewportDropEvent@QScrollView@@MAEXPAVQDropEvent@@@Z 00420a00     qt-mt323:qt-mt323.dll
 0002:00000a04       __imp_?viewportMouseDoubleClickEvent@QScrollView@@MAEXPAVQMouseEvent@@@Z 00420a04     qt-mt323:qt-mt323.dll
 0002:00000a08       __imp_?viewportMouseMoveEvent@QScrollView@@MAEXPAVQMouseEvent@@@Z 00420a08     qt-mt323:qt-mt323.dll
 0002:00000a0c       __imp_?viewportMousePressEvent@QScrollView@@MAEXPAVQMouseEvent@@@Z 00420a0c     qt-mt323:qt-mt323.dll
 0002:00000a10       __imp_?viewportMouseReleaseEvent@QScrollView@@MAEXPAVQMouseEvent@@@Z 00420a10     qt-mt323:qt-mt323.dll
 0002:00000a14       __imp_?viewportPaintEvent@QListBox@@UAEXPAVQPaintEvent@@@Z 00420a14     qt-mt323:qt-mt323.dll
 0002:00000a18       __imp_?viewportResizeEvent@QScrollView@@MAEXPAVQResizeEvent@@@Z 00420a18     qt-mt323:qt-mt323.dll
 0002:00000a1c       __imp_?viewportWheelEvent@QScrollView@@MAEXPAVQWheelEvent@@@Z 00420a1c     qt-mt323:qt-mt323.dll
 0002:00000a20       __imp_?wheelEvent@QScrollView@@MAEXPAVQWheelEvent@@@Z 00420a20     qt-mt323:qt-mt323.dll
 0002:00000a24       __imp_?widget@QLayoutItem@@UAEPAVQWidget@@XZ 00420a24     qt-mt323:qt-mt323.dll
 0002:00000a28       __imp_?windowActivationChange@QListBox@@MAEX_N@Z 00420a28     qt-mt323:qt-mt323.dll
 0002:00000a2c       __imp_??1QWidgetList@@UAE@XZ 00420a2c     qt-mt323:qt-mt323.dll
 0002:00000a30       __imp_??_7QWidgetList@@6B@ 00420a30     qt-mt323:qt-mt323.dll
 0002:00000a34       __imp_?size@QRect@@QBE?AVQSize@@XZ 00420a34     qt-mt323:qt-mt323.dll
 0002:00000a38       __imp_?setFixedSize@QWidget@@QAEXABVQSize@@@Z 00420a38     qt-mt323:qt-mt323.dll
 0002:00000a3c       __imp_?setFixedSize@QWidget@@QAEXHH@Z 00420a3c     qt-mt323:qt-mt323.dll
 0002:00000a40       __imp_??0QDesktopWidget@@QAE@XZ 00420a40     qt-mt323:qt-mt323.dll
 0002:00000a44       __imp_??1QDesktopWidget@@UAE@XZ 00420a44     qt-mt323:qt-mt323.dll
 0002:00000a48       __imp_?screenGeometry@QDesktopWidget@@QBEABVQRect@@H@Z 00420a48     qt-mt323:qt-mt323.dll
 0002:00000a4c       __imp_??0QPixmap@@QAE@ABVQString@@PBDW4ColorMode@0@@Z 00420a4c     qt-mt323:qt-mt323.dll
 0002:00000a50       __imp_?hasAlpha@QPixmap@@QBE_NXZ 00420a50     qt-mt323:qt-mt323.dll
 0002:00000a54       __imp_?dirPath@QFileInfo@@QBE?AVQString@@_N@Z 00420a54     qt-mt323:qt-mt323.dll
 0002:00000a58       __imp_??0QDir@@QAE@ABVQString@@0HH@Z 00420a58     qt-mt323:qt-mt323.dll
 0002:00000a5c       __imp_??1QDir@@UAE@XZ      00420a5c     qt-mt323:qt-mt323.dll
 0002:00000a60       __imp_??0QTimer@@QAE@PAVQObject@@PBD@Z 00420a60     qt-mt323:qt-mt323.dll
 0002:00000a64       __imp_??1QTimer@@UAE@XZ    00420a64     qt-mt323:qt-mt323.dll
 0002:00000a68       __imp_?start@QTimer@@QAEHH_N@Z 00420a68     qt-mt323:qt-mt323.dll
 0002:00000a6c       __imp_?stop@QTimer@@QAEXXZ 00420a6c     qt-mt323:qt-mt323.dll
 0002:00000a70       __imp_??0QSocket@@QAE@PAVQObject@@PBD@Z 00420a70     qt-mt323:qt-mt323.dll
 0002:00000a74       __imp_??1QSocket@@UAE@XZ   00420a74     qt-mt323:qt-mt323.dll
 0002:00000a78       __imp_??0QLabel@@QAE@PAVQWidget@@PBDI@Z 00420a78     qt-mt323:qt-mt323.dll
 0002:00000a7c       __imp_??1QLabel@@UAE@XZ    00420a7c     qt-mt323:qt-mt323.dll
 0002:00000a80       __imp_?className@QLabel@@UBEPBDXZ 00420a80     qt-mt323:qt-mt323.dll
 0002:00000a84       __imp_?className@QPopupMenu@@UBEPBDXZ 00420a84     qt-mt323:qt-mt323.dll
 0002:00000a88       __imp_?className@QTimer@@UBEPBDXZ 00420a88     qt-mt323:qt-mt323.dll
 0002:00000a8c       __imp_?drawContents@QLabel@@MAEXPAVQPainter@@@Z 00420a8c     qt-mt323:qt-mt323.dll
 0002:00000a90       __imp_?drawContents@QPopupMenu@@MAEXPAVQPainter@@@Z 00420a90     qt-mt323:qt-mt323.dll
 0002:00000a94       __imp_?event@QTimer@@MAE_NPAVQEvent@@@Z 00420a94     qt-mt323:qt-mt323.dll
 0002:00000a98       __imp_?fontChange@QLabel@@MAEXABVQFont@@@Z 00420a98     qt-mt323:qt-mt323.dll
 0002:00000a9c       __imp_?frameChanged@QFrame@@MAEXXZ 00420a9c     qt-mt323:qt-mt323.dll
 0002:00000aa0       __imp_?heightForWidth@QLabel@@UBEHH@Z 00420aa0     qt-mt323:qt-mt323.dll
 0002:00000aa4       __imp_?metaObject@QLabel@@UBEPAVQMetaObject@@XZ 00420aa4     qt-mt323:qt-mt323.dll
 0002:00000aa8       __imp_?metaObject@QPopupMenu@@UBEPAVQMetaObject@@XZ 00420aa8     qt-mt323:qt-mt323.dll
 0002:00000aac       __imp_?metaObject@QTimer@@UBEPAVQMetaObject@@XZ 00420aac     qt-mt323:qt-mt323.dll
 0002:00000ab0       __imp_?minimumSizeHint@QLabel@@UBE?AVQSize@@XZ 00420ab0     qt-mt323:qt-mt323.dll
 0002:00000ab4       __imp_?paintEvent@QPopupMenu@@MAEXPAVQPaintEvent@@@Z 00420ab4     qt-mt323:qt-mt323.dll
 0002:00000ab8       __imp_?qt_cast@QLabel@@UAEPAXPBD@Z 00420ab8     qt-mt323:qt-mt323.dll
 0002:00000abc       __imp_?qt_cast@QTimer@@UAEPAXPBD@Z 00420abc     qt-mt323:qt-mt323.dll
 0002:00000ac0       __imp_?qt_emit@QLabel@@UAE_NHPAUQUObject@@@Z 00420ac0     qt-mt323:qt-mt323.dll
 0002:00000ac4       __imp_?qt_emit@QTimer@@UAE_NHPAUQUObject@@@Z 00420ac4     qt-mt323:qt-mt323.dll
 0002:00000ac8       __imp_?qt_invoke@QLabel@@UAE_NHPAUQUObject@@@Z 00420ac8     qt-mt323:qt-mt323.dll
 0002:00000acc       __imp_?qt_invoke@QTimer@@UAE_NHPAUQUObject@@@Z 00420acc     qt-mt323:qt-mt323.dll
 0002:00000ad0       __imp_?qt_property@QLabel@@UAE_NHHPAVQVariant@@@Z 00420ad0     qt-mt323:qt-mt323.dll
 0002:00000ad4       __imp_?qt_property@QTimer@@UAE_NHHPAVQVariant@@@Z 00420ad4     qt-mt323:qt-mt323.dll
 0002:00000ad8       __imp_?resizeEvent@QLabel@@MAEXPAVQResizeEvent@@@Z 00420ad8     qt-mt323:qt-mt323.dll
 0002:00000adc       __imp_?setAlignment@QLabel@@UAEXH@Z 00420adc     qt-mt323:qt-mt323.dll
 0002:00000ae0       __imp_?setAutoResize@QLabel@@UAEX_N@Z 00420ae0     qt-mt323:qt-mt323.dll
 0002:00000ae4       __imp_?setBuddy@QLabel@@UAEXPAVQWidget@@@Z 00420ae4     qt-mt323:qt-mt323.dll
 0002:00000ae8       __imp_?setFont@QLabel@@UAEXABVQFont@@@Z 00420ae8     qt-mt323:qt-mt323.dll
 0002:00000aec       __imp_?setMovie@QLabel@@UAEXABVQMovie@@@Z 00420aec     qt-mt323:qt-mt323.dll
 0002:00000af0       __imp_?setNum@QLabel@@UAEXH@Z 00420af0     qt-mt323:qt-mt323.dll
 0002:00000af4       __imp_?setNum@QLabel@@UAEXN@Z 00420af4     qt-mt323:qt-mt323.dll
 0002:00000af8       __imp_?setPicture@QLabel@@UAEXABVQPicture@@@Z 00420af8     qt-mt323:qt-mt323.dll
 0002:00000afc       __imp_?setPixmap@QLabel@@UAEXABVQPixmap@@@Z 00420afc     qt-mt323:qt-mt323.dll
 0002:00000b00       __imp_?setText@QLabel@@UAEXABVQString@@@Z 00420b00     qt-mt323:qt-mt323.dll
 0002:00000b04       __imp_?sizeHint@QLabel@@UBE?AVQSize@@XZ 00420b04     qt-mt323:qt-mt323.dll
 0002:00000b08       __imp_??9@YA_NABVQString@@0@Z 00420b08     qt-mt323:qt-mt323.dll
 0002:00000b0c       __imp_?toString@QDate@@QBE?AVQString@@ABV2@@Z 00420b0c     qt-mt323:qt-mt323.dll
 0002:00000b10       __imp_?currentDate@QDate@@SA?AV1@W4TimeSpec@Qt@@@Z 00420b10     qt-mt323:qt-mt323.dll
 0002:00000b14       __imp_?toString@QTime@@QBE?AVQString@@ABV2@@Z 00420b14     qt-mt323:qt-mt323.dll
 0002:00000b18       __imp_?currentTime@QTime@@SA?AV1@W4TimeSpec@Qt@@@Z 00420b18     qt-mt323:qt-mt323.dll
 0002:00000b1c       __imp_?set@QUType_int@@QAEXPAUQUObject@@H@Z 00420b1c     qt-mt323:qt-mt323.dll
 0002:00000b20       __imp_?static_QUType_int@@3UQUType_int@@A 00420b20     qt-mt323:qt-mt323.dll
 0002:00000b24       __imp_?qt_cast@QObject@@UAEPAXPBD@Z 00420b24     qt-mt323:qt-mt323.dll
 0002:00000b28       __imp_?qt_invoke@QObject@@UAE_NHPAUQUObject@@@Z 00420b28     qt-mt323:qt-mt323.dll
 0002:00000b2c       __imp_?qt_emit@QObject@@UAE_NHPAUQUObject@@@Z 00420b2c     qt-mt323:qt-mt323.dll
 0002:00000b30       __imp_?qt_property@QObject@@UAE_NHHPAVQVariant@@@Z 00420b30     qt-mt323:qt-mt323.dll
 0002:00000b34       __imp_?staticMetaObject@QObject@@SAPAVQMetaObject@@XZ 00420b34     qt-mt323:qt-mt323.dll
 0002:00000b38       __imp_?qt_cast@QDialog@@UAEPAXPBD@Z 00420b38     qt-mt323:qt-mt323.dll
 0002:00000b3c       __imp_?qt_invoke@QDialog@@UAE_NHPAUQUObject@@@Z 00420b3c     qt-mt323:qt-mt323.dll
 0002:00000b40       __imp_?qt_emit@QDialog@@UAE_NHPAUQUObject@@@Z 00420b40     qt-mt323:qt-mt323.dll
 0002:00000b44       __imp_?qt_property@QDialog@@UAE_NHHPAVQVariant@@@Z 00420b44     qt-mt323:qt-mt323.dll
 0002:00000b48       __imp_?staticMetaObject@QDialog@@SAPAVQMetaObject@@XZ 00420b48     qt-mt323:qt-mt323.dll
 0002:00000b4c       __imp_?staticMetaObject@QWidget@@SAPAVQMetaObject@@XZ 00420b4c     qt-mt323:qt-mt323.dll
 0002:00000b50       __imp_??0QPushButton@@QAE@PAVQWidget@@PBD@Z 00420b50     qt-mt323:qt-mt323.dll
 0002:00000b54       __imp_??1QPushButton@@UAE@XZ 00420b54     qt-mt323:qt-mt323.dll
 0002:00000b58       __imp_??0QButtonGroup@@QAE@PAVQWidget@@PBD@Z 00420b58     qt-mt323:qt-mt323.dll
 0002:00000b5c       __imp_??1QButtonGroup@@UAE@XZ 00420b5c     qt-mt323:qt-mt323.dll
 0002:00000b60       __imp_?childEvent@QGroupBox@@MAEXPAVQChildEvent@@@Z 00420b60     qt-mt323:qt-mt323.dll
 0002:00000b64       __imp_?className@QButtonGroup@@UBEPBDXZ 00420b64     qt-mt323:qt-mt323.dll
 0002:00000b68       __imp_?className@QPushButton@@UBEPBDXZ 00420b68     qt-mt323:qt-mt323.dll
 0002:00000b6c       __imp_?drawButton@QPushButton@@MAEXPAVQPainter@@@Z 00420b6c     qt-mt323:qt-mt323.dll
 0002:00000b70       __imp_?drawButtonLabel@QPushButton@@MAEXPAVQPainter@@@Z 00420b70     qt-mt323:qt-mt323.dll
 0002:00000b74       __imp_?enabledChange@QButton@@MAEX_N@Z 00420b74     qt-mt323:qt-mt323.dll
 0002:00000b78       __imp_?event@QButtonGroup@@MAE_NPAVQEvent@@@Z 00420b78     qt-mt323:qt-mt323.dll
 0002:00000b7c       __imp_?focusInEvent@QGroupBox@@MAEXPAVQFocusEvent@@@Z 00420b7c     qt-mt323:qt-mt323.dll
 0002:00000b80       __imp_?focusInEvent@QPushButton@@MAEXPAVQFocusEvent@@@Z 00420b80     qt-mt323:qt-mt323.dll
 0002:00000b84       __imp_?focusOutEvent@QPushButton@@MAEXPAVQFocusEvent@@@Z 00420b84     qt-mt323:qt-mt323.dll
 0002:00000b88       __imp_?fontChange@QGroupBox@@MAEXABVQFont@@@Z 00420b88     qt-mt323:qt-mt323.dll
 0002:00000b8c       __imp_?hitButton@QButton@@MBE_NABVQPoint@@@Z 00420b8c     qt-mt323:qt-mt323.dll
 0002:00000b90       __imp_?keyPressEvent@QButton@@MAEXPAVQKeyEvent@@@Z 00420b90     qt-mt323:qt-mt323.dll
 0002:00000b94       __imp_?keyReleaseEvent@QButton@@MAEXPAVQKeyEvent@@@Z 00420b94     qt-mt323:qt-mt323.dll
 0002:00000b98       __imp_?metaObject@QButtonGroup@@UBEPAVQMetaObject@@XZ 00420b98     qt-mt323:qt-mt323.dll
 0002:00000b9c       __imp_?metaObject@QPushButton@@UBEPAVQMetaObject@@XZ 00420b9c     qt-mt323:qt-mt323.dll
 0002:00000ba0       __imp_?mouseMoveEvent@QButton@@MAEXPAVQMouseEvent@@@Z 00420ba0     qt-mt323:qt-mt323.dll
 0002:00000ba4       __imp_?mousePressEvent@QButton@@MAEXPAVQMouseEvent@@@Z 00420ba4     qt-mt323:qt-mt323.dll
 0002:00000ba8       __imp_?mouseReleaseEvent@QButton@@MAEXPAVQMouseEvent@@@Z 00420ba8     qt-mt323:qt-mt323.dll
 0002:00000bac       __imp_?move@QPushButton@@UAEXHH@Z 00420bac     qt-mt323:qt-mt323.dll
 0002:00000bb0       __imp_?moveFocus@QButtonGroup@@UAEXH@Z 00420bb0     qt-mt323:qt-mt323.dll
 0002:00000bb4       __imp_?paintEvent@QButton@@MAEXPAVQPaintEvent@@@Z 00420bb4     qt-mt323:qt-mt323.dll
 0002:00000bb8       __imp_?paintEvent@QGroupBox@@MAEXPAVQPaintEvent@@@Z 00420bb8     qt-mt323:qt-mt323.dll
 0002:00000bbc       __imp_?qt_cast@QButtonGroup@@UAEPAXPBD@Z 00420bbc     qt-mt323:qt-mt323.dll
 0002:00000bc0       __imp_?qt_cast@QPushButton@@UAEPAXPBD@Z 00420bc0     qt-mt323:qt-mt323.dll
 0002:00000bc4       __imp_?qt_emit@QButtonGroup@@UAE_NHPAUQUObject@@@Z 00420bc4     qt-mt323:qt-mt323.dll
 0002:00000bc8       __imp_?qt_emit@QPushButton@@UAE_NHPAUQUObject@@@Z 00420bc8     qt-mt323:qt-mt323.dll
 0002:00000bcc       __imp_?qt_invoke@QButtonGroup@@UAE_NHPAUQUObject@@@Z 00420bcc     qt-mt323:qt-mt323.dll
 0002:00000bd0       __imp_?qt_invoke@QPushButton@@UAE_NHPAUQUObject@@@Z 00420bd0     qt-mt323:qt-mt323.dll
 0002:00000bd4       __imp_?qt_property@QButtonGroup@@UAE_NHHPAVQVariant@@@Z 00420bd4     qt-mt323:qt-mt323.dll
 0002:00000bd8       __imp_?qt_property@QPushButton@@UAE_NHHPAVQVariant@@@Z 00420bd8     qt-mt323:qt-mt323.dll
 0002:00000bdc       __imp_?resize@QPushButton@@UAEXHH@Z 00420bdc     qt-mt323:qt-mt323.dll
 0002:00000be0       __imp_?resizeEvent@QGroupBox@@MAEXPAVQResizeEvent@@@Z 00420be0     qt-mt323:qt-mt323.dll
 0002:00000be4       __imp_?resizeEvent@QPushButton@@MAEXPAVQResizeEvent@@@Z 00420be4     qt-mt323:qt-mt323.dll
 0002:00000be8       __imp_?setAccel@QButton@@UAEXABVQKeySequence@@@Z 00420be8     qt-mt323:qt-mt323.dll
 0002:00000bec       __imp_?setAlignment@QGroupBox@@UAEXH@Z 00420bec     qt-mt323:qt-mt323.dll
 0002:00000bf0       __imp_?setAutoDefault@QPushButton@@UAEX_N@Z 00420bf0     qt-mt323:qt-mt323.dll
 0002:00000bf4       __imp_?setAutoRepeat@QButton@@UAEX_N@Z 00420bf4     qt-mt323:qt-mt323.dll
 0002:00000bf8       __imp_?setButton@QButtonGroup@@UAEXH@Z 00420bf8     qt-mt323:qt-mt323.dll
 0002:00000bfc       __imp_?setColumnLayout@QGroupBox@@UAEXHW4Orientation@Qt@@@Z 00420bfc     qt-mt323:qt-mt323.dll
 0002:00000c00       __imp_?setDefault@QPushButton@@UAEX_N@Z 00420c00     qt-mt323:qt-mt323.dll
 0002:00000c04       __imp_?setDown@QButton@@UAEX_N@Z 00420c04     qt-mt323:qt-mt323.dll
 0002:00000c08       __imp_?setEnabled@QGroupBox@@UAEX_N@Z 00420c08     qt-mt323:qt-mt323.dll
 0002:00000c0c       __imp_?setExclusive@QButtonGroup@@UAEX_N@Z 00420c0c     qt-mt323:qt-mt323.dll
 0002:00000c10       __imp_?setGeometry@QPushButton@@UAEXABVQRect@@@Z 00420c10     qt-mt323:qt-mt323.dll
 0002:00000c14       __imp_?setGeometry@QPushButton@@UAEXHHHH@Z 00420c14     qt-mt323:qt-mt323.dll
 0002:00000c18       __imp_?setGroup@QButton@@EAEXPAVQButtonGroup@@@Z 00420c18     qt-mt323:qt-mt323.dll
 0002:00000c1c       __imp_?setIsMenuButton@QPushButton@@UAEX_N@Z 00420c1c     qt-mt323:qt-mt323.dll
 0002:00000c20       __imp_?setOn@QPushButton@@UAEX_N@Z 00420c20     qt-mt323:qt-mt323.dll
 0002:00000c24       __imp_?setPixmap@QButton@@UAEXABVQPixmap@@@Z 00420c24     qt-mt323:qt-mt323.dll
 0002:00000c28       __imp_?setRadioButtonExclusive@QButtonGroup@@UAEX_N@Z 00420c28     qt-mt323:qt-mt323.dll
 0002:00000c2c       __imp_?setState@QButton@@MAEXW4ToggleState@1@@Z 00420c2c     qt-mt323:qt-mt323.dll
 0002:00000c30       __imp_?setText@QButton@@UAEXABVQString@@@Z 00420c30     qt-mt323:qt-mt323.dll
 0002:00000c34       __imp_?setTitle@QGroupBox@@UAEXABVQString@@@Z 00420c34     qt-mt323:qt-mt323.dll
 0002:00000c38       __imp_?setToggleType@QButton@@MAEXW4ToggleType@1@@Z 00420c38     qt-mt323:qt-mt323.dll
 0002:00000c3c       __imp_?sizeHint@QGroupBox@@UBE?AVQSize@@XZ 00420c3c     qt-mt323:qt-mt323.dll
 0002:00000c40       __imp_?sizeHint@QPushButton@@UBE?AVQSize@@XZ 00420c40     qt-mt323:qt-mt323.dll
 0002:00000c44       __imp_?updateMask@QPushButton@@MAEXXZ 00420c44     qt-mt323:qt-mt323.dll
 0002:00000c48       __imp_??1QWidget@@UAE@XZ   00420c48     qt-mt323:qt-mt323.dll
 0002:00000c4c       __imp_?sender@QObject@@IAEPBV1@XZ 00420c4c     qt-mt323:qt-mt323.dll
 0002:00000c50       __imp_?connect@QObject@@SA_NPBV1@PBD01@Z 00420c50     qt-mt323:qt-mt323.dll
 0002:00000c54       __imp_?child@QObject@@QAEPAV1@PBD0_N@Z 00420c54     qt-mt323:qt-mt323.dll
 0002:00000c58       __imp_?name@QObject@@QBEPBDXZ 00420c58     qt-mt323:qt-mt323.dll
 0002:00000c5c       __imp_??0QKeyEvent@@QAE@W4Type@QEvent@@HHHABVQString@@_NG@Z 00420c5c     qt-mt323:qt-mt323.dll
 0002:00000c60       __imp_??1QEvent@@UAE@XZ    00420c60     qt-mt323:qt-mt323.dll
 0002:00000c64       __imp_??4QStringList@@QAEAAV0@ABV0@@Z 00420c64     qt-mt323:qt-mt323.dll
 0002:00000c68       __imp_?detachInternal@?$QValueList@VQString@@@@AAEXXZ 00420c68     qt-mt323:qt-mt323.dll
 0002:00000c6c       __imp_?className@QGrid@@UBEPBDXZ 00420c6c     qt-mt323:qt-mt323.dll
 0002:00000c70       __imp_?childEvent@QObject@@MAEXPAVQChildEvent@@@Z 00420c70     qt-mt323:qt-mt323.dll
 0002:00000c74       __imp_?checkConnectArgs@QObject@@MAE_NPBDPBV1@0@Z 00420c74     qt-mt323:qt-mt323.dll
 0002:00000c78       __imp_?adjustSize@QWidget@@UAEXXZ 00420c78     qt-mt323:qt-mt323.dll
 0002:00000c7c       __imp_?exec@QPopupMenu@@QAEHABVQPoint@@H@Z 00420c7c     qt-mt323:qt-mt323.dll
 0002:00000c80       __imp_??1QPopupMenu@@UAE@XZ 00420c80     qt-mt323:qt-mt323.dll
 0002:00000c84       __imp_??0QPopupMenu@@QAE@PAVQWidget@@PBD@Z 00420c84     qt-mt323:qt-mt323.dll
 0002:00000c88       __imp_?insertItem@QMenuData@@QAEHPAVQWidget@@HH@Z 00420c88     qt-mt323:qt-mt323.dll
 0002:00000c8c       __imp_?information@QMessageBox@@SAHPAVQWidget@@ABVQString@@1111HH@Z 00420c8c     qt-mt323:qt-mt323.dll
 0002:00000c90       __imp_?setSpacing@QGrid@@QAEXH@Z 00420c90     qt-mt323:qt-mt323.dll
 0002:00000c94       __imp_??0QGrid@@QAE@HPAVQWidget@@PBDI@Z 00420c94     qt-mt323:qt-mt323.dll
 0002:00000c98       __imp_??1QFrame@@UAE@XZ    00420c98     qt-mt323:qt-mt323.dll
 0002:00000c9c       __imp_?setFrameStyle@QFrame@@UAEXH@Z 00420c9c     qt-mt323:qt-mt323.dll
 0002:00000ca0       __imp_?exists@QFile@@QBE_NXZ 00420ca0     qt-mt323:qt-mt323.dll
 0002:00000ca4       __imp_?postEvent@QApplication@@SAXPAVQObject@@PAVQEvent@@@Z 00420ca4     qt-mt323:qt-mt323.dll
 0002:00000ca8       __imp_?activePopupWidget@QApplication@@SAPAVQWidget@@XZ 00420ca8     qt-mt323:qt-mt323.dll
 0002:00000cac       __imp_?clear@QGDict@@MAEXXZ 00420cac     qt-mt323:qt-mt323.dll
 0002:00000cb0       __imp_??1QGDict@@MAE@XZ    00420cb0     qt-mt323:qt-mt323.dll
 0002:00000cb4       __imp_??0QGDict@@IAE@IW4KeyType@0@_N1@Z 00420cb4     qt-mt323:qt-mt323.dll
 0002:00000cb8       __imp_?look_string@QGDict@@QAEPAXABVQString@@PAXH@Z 00420cb8     qt-mt323:qt-mt323.dll
 0002:00000cbc       __imp_?mapToGlobal@QWidget@@QBE?AVQPoint@@ABV2@@Z 00420cbc     qt-mt323:qt-mt323.dll
 0002:00000cc0       __imp_?setMinimumHeight@QWidget@@QAEXH@Z 00420cc0     qt-mt323:qt-mt323.dll
 0002:00000cc4       __imp_?setMinimumWidth@QWidget@@QAEXH@Z 00420cc4     qt-mt323:qt-mt323.dll
 0002:00000cc8       __imp_?qt_property@QProcess@@UAE_NHHPAVQVariant@@@Z 00420cc8     qt-mt323:qt-mt323.dll
 0002:00000ccc       __imp_?y@QWidget@@QBEHXZ   00420ccc     qt-mt323:qt-mt323.dll
 0002:00000cd0       __imp_??6?$QValueList@VQString@@@@QAEAAV0@ABVQString@@@Z 00420cd0     qt-mt323:qt-mt323.dll
 0002:00000cd4       __imp_?begin@?$QValueList@VQString@@@@QAE?AV?$QValueListIterator@VQString@@@@XZ 00420cd4     qt-mt323:qt-mt323.dll
 0002:00000cd8       __imp_??H@YA?BVQString@@ABV0@0@Z 00420cd8     qt-mt323:qt-mt323.dll
 0002:00000cdc       __imp_?startsWith@QString@@QBE_NABV1@@Z 00420cdc     qt-mt323:qt-mt323.dll
 0002:00000ce0       __imp_??YQString@@QAEAAV0@PBD@Z 00420ce0     qt-mt323:qt-mt323.dll
 0002:00000ce4       __imp_?toInt@QString@@QBEHPA_NH@Z 00420ce4     qt-mt323:qt-mt323.dll
 0002:00000ce8       __imp_?launch@QProcess@@UAE_NABVQString@@PAVQStringList@@@Z 00420ce8     qt-mt323:qt-mt323.dll
 0002:00000cec       __imp_?replace@QString@@QAEAAV1@VQChar@@0@Z 00420cec     qt-mt323:qt-mt323.dll
 0002:00000cf0       __imp_?right@QString@@QBE?AV1@I@Z 00420cf0     qt-mt323:qt-mt323.dll
 0002:00000cf4       __imp_?arg@QString@@QBE?AV1@HHH@Z 00420cf4     qt-mt323:qt-mt323.dll
 0002:00000cf8       __imp_?null@QString@@2V1@A 00420cf8     qt-mt323:qt-mt323.dll
 0002:00000cfc       __imp_?write@QGList@@MBEAAVQDataStream@@AAV2@PAX@Z 00420cfc     qt-mt323:qt-mt323.dll
 0002:00000d00       __imp_?read@QGList@@MAEAAVQDataStream@@AAV2@AAPAX@Z 00420d00     qt-mt323:qt-mt323.dll
 0002:00000d04       __imp_?newItem@QPtrCollection@@MAEPAXPAX@Z 00420d04     qt-mt323:qt-mt323.dll
 0002:00000d08       __imp_?compareItems@QGList@@MAEHPAX0@Z 00420d08     qt-mt323:qt-mt323.dll
 0002:00000d0c       __imp_?add@QToolTip@@SAXPAVQWidget@@ABVQString@@@Z 00420d0c     qt-mt323:qt-mt323.dll
 0002:00000d10       __imp_?close@QFile@@UAEXXZ 00420d10     qt-mt323:qt-mt323.dll
 0002:00000d14       __imp_?open@QFile@@UAE_NH@Z 00420d14     qt-mt323:qt-mt323.dll
 0002:00000d18       __imp_??1QFile@@UAE@XZ     00420d18     qt-mt323:qt-mt323.dll
 0002:00000d1c       __imp_??0QFile@@QAE@ABVQString@@@Z 00420d1c     qt-mt323:qt-mt323.dll
 0002:00000d20       __imp_?tagName@QDomElement@@QBE?AVQString@@XZ 00420d20     qt-mt323:qt-mt323.dll
 0002:00000d24       __imp_?attributeNode@QDomElement@@QAE?AVQDomAttr@@ABVQString@@@Z 00420d24     qt-mt323:qt-mt323.dll
 0002:00000d28       __imp_?attribute@QDomElement@@QBE?AVQString@@ABV2@0@Z 00420d28     qt-mt323:qt-mt323.dll
 0002:00000d2c       __imp_??1QDomElement@@UAE@XZ 00420d2c     qt-mt323:qt-mt323.dll
 0002:00000d30       __imp_??1QDomAttr@@UAE@XZ  00420d30     qt-mt323:qt-mt323.dll
 0002:00000d34       __imp_?setContent@QDomDocument@@QAE_NABVQString@@PAV2@PAH2@Z 00420d34     qt-mt323:qt-mt323.dll
 0002:00000d38       __imp_?documentElement@QDomDocument@@QBE?AVQDomElement@@XZ 00420d38     qt-mt323:qt-mt323.dll
 0002:00000d3c       __imp_??1QDomDocument@@UAE@XZ 00420d3c     qt-mt323:qt-mt323.dll
 0002:00000d40       __imp_??0QDomDocument@@QAE@ABVQString@@@Z 00420d40     qt-mt323:qt-mt323.dll
 0002:00000d44       __imp_??0QDomDocument@@QAE@XZ 00420d44     qt-mt323:qt-mt323.dll
 0002:00000d48       __imp_?toElement@QDomNode@@QAE?AVQDomElement@@XZ 00420d48     qt-mt323:qt-mt323.dll
 0002:00000d4c       __imp_?isNull@QDomNode@@QBE_NXZ 00420d4c     qt-mt323:qt-mt323.dll
 0002:00000d50       __imp_?nextSibling@QDomNode@@UBE?AV1@XZ 00420d50     qt-mt323:qt-mt323.dll
 0002:00000d54       __imp_?firstChild@QDomNode@@UBE?AV1@XZ 00420d54     qt-mt323:qt-mt323.dll
 0002:00000d58       __imp_??1QDomNode@@UAE@XZ  00420d58     qt-mt323:qt-mt323.dll
 0002:00000d5c       __imp_??4QDomNode@@QAEAAV0@ABV0@@Z 00420d5c     qt-mt323:qt-mt323.dll
 0002:00000d60       __imp_??1QStringList@@QAE@XZ 00420d60     qt-mt323:qt-mt323.dll
 0002:00000d64       __imp_??0QStringList@@QAE@XZ 00420d64     qt-mt323:qt-mt323.dll
 0002:00000d68       __imp_??ZQGListIterator@@IAEPAXI@Z 00420d68     qt-mt323:qt-mt323.dll
 0002:00000d6c       __imp_??FQGListIterator@@IAEPAXXZ 00420d6c     qt-mt323:qt-mt323.dll
 0002:00000d70       __imp_??YQGListIterator@@IAEPAXI@Z 00420d70     qt-mt323:qt-mt323.dll
 0002:00000d74       __imp_??EQGListIterator@@IAEPAXXZ 00420d74     qt-mt323:qt-mt323.dll
 0002:00000d78       __imp_??RQGListIterator@@IAEPAXXZ 00420d78     qt-mt323:qt-mt323.dll
 0002:00000d7c       __imp_?toLast@QGListIterator@@IAEPAXXZ 00420d7c     qt-mt323:qt-mt323.dll
 0002:00000d80       __imp_?toFirst@QGListIterator@@IAEPAXXZ 00420d80     qt-mt323:qt-mt323.dll
 0002:00000d84       __imp_??1QGListIterator@@IAE@XZ 00420d84     qt-mt323:qt-mt323.dll
 0002:00000d88       __imp_??4QGListIterator@@IAEAAV0@ABV0@@Z 00420d88     qt-mt323:qt-mt323.dll
 0002:00000d8c       __imp_??0QGListIterator@@IAE@ABV0@@Z 00420d8c     qt-mt323:qt-mt323.dll
 0002:00000d90       __imp_??0QGListIterator@@IAE@ABVQGList@@@Z 00420d90     qt-mt323:qt-mt323.dll
 0002:00000d94       __imp_?locate@QGList@@AAEPAVQLNode@@I@Z 00420d94     qt-mt323:qt-mt323.dll
 0002:00000d98       __imp_?erase@QGList@@IAEPAVQLNode@@PAV2@@Z 00420d98     qt-mt323:qt-mt323.dll
 0002:00000d9c       __imp_?toVector@QGList@@IBEXPAVQGVector@@@Z 00420d9c     qt-mt323:qt-mt323.dll
 0002:00000da0       __imp_?prev@QGList@@IAEPAXXZ 00420da0     qt-mt323:qt-mt323.dll
 0002:00000da4       __imp_?next@QGList@@IAEPAXXZ 00420da4     qt-mt323:qt-mt323.dll
 0002:00000da8       __imp_?last@QGList@@IAEPAXXZ 00420da8     qt-mt323:qt-mt323.dll
 0002:00000dac       __imp_?first@QGList@@IAEPAXXZ 00420dac     qt-mt323:qt-mt323.dll
 0002:00000db0       __imp_?contains@QGList@@IBEIPAX@Z 00420db0     qt-mt323:qt-mt323.dll
 0002:00000db4       __imp_?containsRef@QGList@@IBEIPAX@Z 00420db4     qt-mt323:qt-mt323.dll
 0002:00000db8       __imp_?find@QGList@@IAEHPAX_N@Z 00420db8     qt-mt323:qt-mt323.dll
 0002:00000dbc       __imp_?findRef@QGList@@IAEHPAX_N@Z 00420dbc     qt-mt323:qt-mt323.dll
 0002:00000dc0       __imp_?clear@QGList@@MAEXXZ 00420dc0     qt-mt323:qt-mt323.dll
 0002:00000dc4       __imp_?sort@QGList@@IAEXXZ 00420dc4     qt-mt323:qt-mt323.dll
 0002:00000dc8       __imp_?takeAt@QGList@@IAEPAXI@Z 00420dc8     qt-mt323:qt-mt323.dll
 0002:00000dcc       __imp_?take@QGList@@IAEPAXXZ 00420dcc     qt-mt323:qt-mt323.dll
 0002:00000dd0       __imp_?takeNode@QGList@@IAEPAXPAVQLNode@@@Z 00420dd0     qt-mt323:qt-mt323.dll
 0002:00000dd4       __imp_?replaceAt@QGList@@IAE_NIPAX@Z 00420dd4     qt-mt323:qt-mt323.dll
 0002:00000dd8       __imp_?removeAt@QGList@@IAE_NI@Z 00420dd8     qt-mt323:qt-mt323.dll
 0002:00000ddc       __imp_?removeRef@QGList@@IAE_NPAX@Z 00420ddc     qt-mt323:qt-mt323.dll
 0002:00000de0       __imp_?remove@QGList@@IAE_NPAX@Z 00420de0     qt-mt323:qt-mt323.dll
 0002:00000de4       __imp_?removeNode@QGList@@IAE_NPAVQLNode@@@Z 00420de4     qt-mt323:qt-mt323.dll
 0002:00000de8       __imp_?insertAt@QGList@@IAE_NIPAX@Z 00420de8     qt-mt323:qt-mt323.dll
 0002:00000dec       __imp_?append@QGList@@IAEXPAX@Z 00420dec     qt-mt323:qt-mt323.dll
 0002:00000df0       __imp_?inSort@QGList@@IAEXPAX@Z 00420df0     qt-mt323:qt-mt323.dll
 0002:00000df4       __imp_??8QGList@@IBE_NABV0@@Z 00420df4     qt-mt323:qt-mt323.dll
 0002:00000df8       __imp_??4QGList@@IAEAAV0@ABV0@@Z 00420df8     qt-mt323:qt-mt323.dll
 0002:00000dfc       __imp_??1QGList@@MAE@XZ    00420dfc     qt-mt323:qt-mt323.dll
 0002:00000e00       __imp_??0QGList@@IAE@ABV0@@Z 00420e00     qt-mt323:qt-mt323.dll
 0002:00000e04       __imp_??0QGList@@IAE@XZ    00420e04     qt-mt323:qt-mt323.dll
 0002:00000e08       __imp_?removeAndRebalance@QMapPrivateBase@@QAEPAUQMapNodeBase@@PAU2@AAPAU2@11@Z 00420e08     qt-mt323:qt-mt323.dll
 0002:00000e0c       __imp_?rebalance@QMapPrivateBase@@QAEXPAUQMapNodeBase@@AAPAU2@@Z 00420e0c     qt-mt323:qt-mt323.dll
 0002:00000e10       __imp_?append@?$QValueList@VQString@@@@QAE?AV?$QValueListIterator@VQString@@@@ABVQString@@@Z 00420e10     qt-mt323:qt-mt323.dll
 0002:00000e14       __imp_??1?$QValueList@VQString@@@@QAE@XZ 00420e14     qt-mt323:qt-mt323.dll
 0002:00000e18       __imp_??0?$QValueList@VQString@@@@QAE@XZ 00420e18     qt-mt323:qt-mt323.dll
 0002:00000e1c       __imp_?readLine@QTextStream@@QAE?AVQString@@XZ 00420e1c     qt-mt323:qt-mt323.dll
 0002:00000e20       __imp_?atEnd@QTextStream@@QBE_NXZ 00420e20     qt-mt323:qt-mt323.dll
 0002:00000e24       __imp_??1QTextStream@@UAE@XZ 00420e24     qt-mt323:qt-mt323.dll
 0002:00000e28       __imp_??0QTextStream@@QAE@PAVQIODevice@@@Z 00420e28     qt-mt323:qt-mt323.dll
 0002:00000e2c       __imp_??H@YA?BVQString@@PBDABV0@@Z 00420e2c     qt-mt323:qt-mt323.dll
 0002:00000e30       __imp_??H@YA?BVQString@@ABV0@PBD@Z 00420e30     qt-mt323:qt-mt323.dll
 0002:00000e34       __imp_??8@YA_NABVQString@@PBD@Z 00420e34     qt-mt323:qt-mt323.dll
 0002:00000e38       __imp_??8@YA_NABVQString@@0@Z 00420e38     qt-mt323:qt-mt323.dll
 0002:00000e3c       __imp_??M@YA_NABVQString@@0@Z 00420e3c     qt-mt323:qt-mt323.dll
 0002:00000e40       __imp_?ascii@QString@@QBEPBDXZ 00420e40     qt-mt323:qt-mt323.dll
 0002:00000e44       __imp_??YQString@@QAEAAV0@ABV0@@Z 00420e44     qt-mt323:qt-mt323.dll
 0002:00000e48       __imp_?upper@QString@@QBE?AV1@XZ 00420e48     qt-mt323:qt-mt323.dll
 0002:00000e4c       __imp_?lower@QString@@QBE?AV1@XZ 00420e4c     qt-mt323:qt-mt323.dll
 0002:00000e50       __imp_?mid@QString@@QBE?AV1@II@Z 00420e50     qt-mt323:qt-mt323.dll
 0002:00000e54       __imp_?left@QString@@QBE?AV1@I@Z 00420e54     qt-mt323:qt-mt323.dll
 0002:00000e58       __imp_?section@QString@@QBE?AV1@PBDHHH@Z 00420e58     qt-mt323:qt-mt323.dll
 0002:00000e5c       __imp_?contains@QString@@QBEHPBD_N@Z 00420e5c     qt-mt323:qt-mt323.dll
 0002:00000e60       __imp_?arg@QString@@QBE?AV1@ABV1@H@Z 00420e60     qt-mt323:qt-mt323.dll
 0002:00000e64       __imp_??0?$QMap@VQString@@V1@@@QAE@XZ 00420e64     qt-mt323:qt-mt323.dll
 0002:00000e68       __imp_??_7QCString@@6B@    00420e68     qt-mt323:qt-mt323.dll
 0002:00000e6c       __imp_??_7?$QMemArray@D@@6B@ 00420e6c     qt-mt323:qt-mt323.dll
 0002:00000e70       __imp_??0QGArray@@QAE@XZ   00420e70     qt-mt323:qt-mt323.dll
 0002:00000e74       __imp_??1?$QMap@VQString@@V1@@@QAE@XZ 00420e74     qt-mt323:qt-mt323.dll
 0002:00000e78       __imp_??1QCString@@UAE@XZ  00420e78     qt-mt323:qt-mt323.dll
 0002:00000e7c       __imp_?afterSeek@QSqlCursor@@MAEXXZ 00420e7c     qt-mt323:qt-mt323.dll
 0002:00000e80       __imp_?beforeSeek@QSqlQuery@@MAEXXZ 00420e80     qt-mt323:qt-mt323.dll
 0002:00000e84       __imp_?last@QSqlQuery@@UAE_NXZ 00420e84     qt-mt323:qt-mt323.dll
 0002:00000e88       __imp_?first@QSqlQuery@@UAE_NXZ 00420e88     qt-mt323:qt-mt323.dll
 0002:00000e8c       __imp_?prev@QSqlQuery@@UAE_NXZ 00420e8c     qt-mt323:qt-mt323.dll
 0002:00000e90       __imp_?next@QSqlQuery@@UAE_NXZ 00420e90     qt-mt323:qt-mt323.dll
 0002:00000e94       __imp_?seek@QSqlQuery@@UAE_NH_N@Z 00420e94     qt-mt323:qt-mt323.dll
 0002:00000e98       __imp_?exec@QSqlCursor@@MAE_NABVQString@@@Z 00420e98     qt-mt323:qt-mt323.dll
 0002:00000e9c       __imp_?calculateField@QSqlCursor@@MAE?AVQVariant@@ABVQString@@@Z 00420e9c     qt-mt323:qt-mt323.dll
 0002:00000ea0       __imp_?toString@QSqlCursor@@MBE?AVQString@@ABV2@PAVQSqlField@@0@Z 00420ea0     qt-mt323:qt-mt323.dll
 0002:00000ea4       __imp_?toString@QSqlCursor@@MBE?AVQString@@PAVQSqlRecord@@ABV2@11@Z 00420ea4     qt-mt323:qt-mt323.dll
 0002:00000ea8       __imp_?toString@QSqlCursor@@MBE?AVQString@@ABVQSqlIndex@@PAVQSqlRecord@@ABV2@22@Z 00420ea8     qt-mt323:qt-mt323.dll
 0002:00000eac       __imp_?setName@QSqlCursor@@UAEXABVQString@@_N@Z 00420eac     qt-mt323:qt-mt323.dll
 0002:00000eb0       __imp_?setFilter@QSqlCursor@@UAEXABVQString@@@Z 00420eb0     qt-mt323:qt-mt323.dll
 0002:00000eb4       __imp_?setSort@QSqlCursor@@UAEXABVQSqlIndex@@@Z 00420eb4     qt-mt323:qt-mt323.dll
 0002:00000eb8       __imp_?select@QSqlCursor@@UAE_NABVQString@@ABVQSqlIndex@@@Z 00420eb8     qt-mt323:qt-mt323.dll
 0002:00000ebc       __imp_?setTrimmed@QSqlCursor@@UAEXABVQString@@_N@Z 00420ebc     qt-mt323:qt-mt323.dll
 0002:00000ec0       __imp_?setCalculated@QSqlCursor@@UAEXABVQString@@_N@Z 00420ec0     qt-mt323:qt-mt323.dll
 0002:00000ec4       __imp_?setMode@QSqlCursor@@UAEXH@Z 00420ec4     qt-mt323:qt-mt323.dll
 0002:00000ec8       __imp_?del@QSqlCursor@@UAEH_N@Z 00420ec8     qt-mt323:qt-mt323.dll
 0002:00000ecc       __imp_?del@QSqlCursor@@MAEHABVQString@@_N@Z 00420ecc     qt-mt323:qt-mt323.dll
 0002:00000ed0       __imp_?update@QSqlCursor@@UAEH_N@Z 00420ed0     qt-mt323:qt-mt323.dll
 0002:00000ed4       __imp_?update@QSqlCursor@@MAEHABVQString@@_N@Z 00420ed4     qt-mt323:qt-mt323.dll
 0002:00000ed8       __imp_?primeDelete@QSqlCursor@@UAEPAVQSqlRecord@@XZ 00420ed8     qt-mt323:qt-mt323.dll
 0002:00000edc       __imp_?primeUpdate@QSqlCursor@@UAEPAVQSqlRecord@@XZ 00420edc     qt-mt323:qt-mt323.dll
 0002:00000ee0       __imp_?primeInsert@QSqlCursor@@UAEPAVQSqlRecord@@XZ 00420ee0     qt-mt323:qt-mt323.dll
 0002:00000ee4       __imp_?editBuffer@QSqlCursor@@UAEPAVQSqlRecord@@_N@Z 00420ee4     qt-mt323:qt-mt323.dll
 0002:00000ee8       __imp_?insert@QSqlCursor@@UAEXHABVQSqlFieldInfo@@@Z 00420ee8     qt-mt323:qt-mt323.dll
 0002:00000eec       __imp_?insert@QSqlCursor@@UAEH_N@Z 00420eec     qt-mt323:qt-mt323.dll
 0002:00000ef0       __imp_?append@QSqlCursor@@UAEXABVQSqlFieldInfo@@@Z 00420ef0     qt-mt323:qt-mt323.dll
 0002:00000ef4       __imp_?setPrimaryIndex@QSqlCursor@@UAEXABVQSqlIndex@@@Z 00420ef4     qt-mt323:qt-mt323.dll
 0002:00000ef8       __imp_?index@QSqlCursor@@UBE?AVQSqlIndex@@ABVQStringList@@@Z 00420ef8     qt-mt323:qt-mt323.dll
 0002:00000efc       __imp_?primaryIndex@QSqlCursor@@UBE?AVQSqlIndex@@_N@Z 00420efc     qt-mt323:qt-mt323.dll
 0002:00000f00       __imp_?toStringList@QSqlRecord@@UBE?AVQStringList@@ABVQString@@@Z 00420f00     qt-mt323:qt-mt323.dll
 0002:00000f04       __imp_?toString@QSqlCursor@@UBE?AVQString@@ABV2@0@Z 00420f04     qt-mt323:qt-mt323.dll
 0002:00000f08       __imp_?clearValues@QSqlRecord@@UAEX_N@Z 00420f08     qt-mt323:qt-mt323.dll
 0002:00000f0c       __imp_?clear@QSqlCursor@@UAEXXZ 00420f0c     qt-mt323:qt-mt323.dll
 0002:00000f10       __imp_?remove@QSqlCursor@@UAEXH@Z 00420f10     qt-mt323:qt-mt323.dll
 0002:00000f14       __imp_?insert@QSqlCursor@@EAEXHABVQSqlField@@@Z 00420f14     qt-mt323:qt-mt323.dll
 0002:00000f18       __imp_?append@QSqlCursor@@EAEXABVQSqlField@@@Z 00420f18     qt-mt323:qt-mt323.dll
 0002:00000f1c       __imp_?setNull@QSqlRecord@@UAEXH@Z 00420f1c     qt-mt323:qt-mt323.dll
 0002:00000f20       __imp_?setNull@QSqlRecord@@UAEXABVQString@@@Z 00420f20     qt-mt323:qt-mt323.dll
 0002:00000f24       __imp_?setGenerated@QSqlCursor@@UAEXABVQString@@_N@Z 00420f24     qt-mt323:qt-mt323.dll
 0002:00000f28       __imp_?setGenerated@QSqlCursor@@UAEXH_N@Z 00420f28     qt-mt323:qt-mt323.dll
 0002:00000f2c       __imp_?setValue@QSqlCursor@@UAEXHABVQVariant@@@Z 00420f2c     qt-mt323:qt-mt323.dll
 0002:00000f30       __imp_?setValue@QSqlCursor@@UAEXABVQString@@ABVQVariant@@@Z 00420f30     qt-mt323:qt-mt323.dll
 0002:00000f34       __imp_?value@QSqlCursor@@UBE?AVQVariant@@H@Z 00420f34     qt-mt323:qt-mt323.dll
 0002:00000f38       __imp_?value@QSqlCursor@@UBE?AVQVariant@@ABVQString@@@Z 00420f38     qt-mt323:qt-mt323.dll
 0002:00000f3c       __imp_??0QSqlCursor@@QAE@ABVQString@@_NPAVQSqlDatabase@@@Z 00420f3c     qt-mt323:qt-mt323.dll
 0002:00000f40       __imp_??0QGPluginManager@@QAE@ABUQUuid@@ABVQStringList@@ABVQString@@_N@Z 00420f40     qt-mt323:qt-mt323.dll
 0002:00000f44       __imp_??0QUuid@@QAE@IGGEEEEEEEE@Z 00420f44     qt-mt323:qt-mt323.dll
 0002:00000f48       __imp_?libraryPaths@QApplication@@SA?AVQStringList@@XZ 00420f48     qt-mt323:qt-mt323.dll
 0002:00000f4c       __imp_??1QSqlCursor@@UAE@XZ 00420f4c     qt-mt323:qt-mt323.dll
 0002:00000f50       __imp_??1QImage@@QAE@XZ    00420f50     qt-mt323:qt-mt323.dll
 0002:00000f54       __imp_??0QImage@@QAE@XZ    00420f54     qt-mt323:qt-mt323.dll
 0002:00000f58       __imp_??0QPixmap@@QAE@XZ   00420f58     qt-mt323:qt-mt323.dll
 0002:00000f5c       __imp_?truncate@QString@@QAEXI@Z 00420f5c     qt-mt323:qt-mt323.dll
 0002:00000f60       __imp_?centralWidget@QMainWindow@@QBEPAVQWidget@@XZ 00420f60     qt-mt323:qt-mt323.dll
 0002:00000f64       __imp_??1QGArray@@MAE@XZ   00420f64     qt-mt323:qt-mt323.dll
 0002:00000f68       __imp_??0QGArray@@IAE@H@Z  00420f68     qt-mt323:qt-mt323.dll
 0002:00000f6c       __imp_?drawButtonLabel@QCheckBox@@MAEXPAVQPainter@@@Z 00420f6c     qt-mt323:qt-mt323.dll
 0002:00000f70       __imp_?drawButton@QCheckBox@@MAEXPAVQPainter@@@Z 00420f70     qt-mt323:qt-mt323.dll
 0002:00000f74       __imp_?hitButton@QCheckBox@@MBE_NABVQPoint@@@Z 00420f74     qt-mt323:qt-mt323.dll
 0002:00000f78       __imp_?updateMask@QCheckBox@@MAEXXZ 00420f78     qt-mt323:qt-mt323.dll
 0002:00000f7c       __imp_?resizeEvent@QCheckBox@@MAEXPAVQResizeEvent@@@Z 00420f7c     qt-mt323:qt-mt323.dll
 0002:00000f80       __imp_?sizeHint@QCheckBox@@UBE?AVQSize@@XZ 00420f80     qt-mt323:qt-mt323.dll
 0002:00000f84       __imp_?qt_property@QCheckBox@@UAE_NHHPAVQVariant@@@Z 00420f84     qt-mt323:qt-mt323.dll
 0002:00000f88       __imp_?qt_emit@QCheckBox@@UAE_NHPAUQUObject@@@Z 00420f88     qt-mt323:qt-mt323.dll
 0002:00000f8c       __imp_?qt_invoke@QCheckBox@@UAE_NHPAUQUObject@@@Z 00420f8c     qt-mt323:qt-mt323.dll
 0002:00000f90       __imp_?qt_cast@QCheckBox@@UAEPAXPBD@Z 00420f90     qt-mt323:qt-mt323.dll
 0002:00000f94       __imp_?className@QCheckBox@@UBEPBDXZ 00420f94     qt-mt323:qt-mt323.dll
 0002:00000f98       __imp_?metaObject@QCheckBox@@UBEPAVQMetaObject@@XZ 00420f98     qt-mt323:qt-mt323.dll
 0002:00000f9c       __imp_?setEditText@QComboBox@@UAEXABVQString@@@Z 00420f9c     qt-mt323:qt-mt323.dll
 0002:00000fa0       __imp_?popup@QComboBox@@UAEXXZ 00420fa0     qt-mt323:qt-mt323.dll
 0002:00000fa4       __imp_?setAutoCompletion@QComboBox@@UAEX_N@Z 00420fa4     qt-mt323:qt-mt323.dll
 0002:00000fa8       __imp_?setLineEdit@QComboBox@@UAEXPAVQLineEdit@@@Z 00420fa8     qt-mt323:qt-mt323.dll
 0002:00000fac       __imp_?setListBox@QComboBox@@UAEXPAVQListBox@@@Z 00420fac     qt-mt323:qt-mt323.dll
 0002:00000fb0       __imp_?setValidator@QComboBox@@UAEXPBVQValidator@@@Z 00420fb0     qt-mt323:qt-mt323.dll
 0002:00000fb4       __imp_?setInsertionPolicy@QComboBox@@UAEXW4Policy@1@@Z 00420fb4     qt-mt323:qt-mt323.dll
 0002:00000fb8       __imp_?setMaxCount@QComboBox@@UAEXH@Z 00420fb8     qt-mt323:qt-mt323.dll
 0002:00000fbc       __imp_?setSizeLimit@QComboBox@@UAEXH@Z 00420fbc     qt-mt323:qt-mt323.dll
 0002:00000fc0       __imp_?setAutoResize@QComboBox@@UAEX_N@Z 00420fc0     qt-mt323:qt-mt323.dll
 0002:00000fc4       __imp_?setCurrentText@QComboBox@@UAEXABVQString@@@Z 00420fc4     qt-mt323:qt-mt323.dll
 0002:00000fc8       __imp_?setCurrentItem@QComboBox@@UAEXH@Z 00420fc8     qt-mt323:qt-mt323.dll
 0002:00000fcc       __imp_?styleChange@QComboBox@@MAEXAAVQStyle@@@Z 00420fcc     qt-mt323:qt-mt323.dll
 0002:00000fd0       __imp_?updateMask@QComboBox@@MAEXXZ 00420fd0     qt-mt323:qt-mt323.dll
 0002:00000fd4       __imp_?resizeEvent@QComboBox@@MAEXPAVQResizeEvent@@@Z 00420fd4     qt-mt323:qt-mt323.dll
 0002:00000fd8       __imp_?paintEvent@QComboBox@@MAEXPAVQPaintEvent@@@Z 00420fd8     qt-mt323:qt-mt323.dll
 0002:00000fdc       __imp_?focusOutEvent@QComboBox@@MAEXPAVQFocusEvent@@@Z 00420fdc     qt-mt323:qt-mt323.dll
 0002:00000fe0       __imp_?focusInEvent@QComboBox@@MAEXPAVQFocusEvent@@@Z 00420fe0     qt-mt323:qt-mt323.dll
 0002:00000fe4       __imp_?keyPressEvent@QComboBox@@MAEXPAVQKeyEvent@@@Z 00420fe4     qt-mt323:qt-mt323.dll
 0002:00000fe8       __imp_?wheelEvent@QComboBox@@MAEXPAVQWheelEvent@@@Z 00420fe8     qt-mt323:qt-mt323.dll
 0002:00000fec       __imp_?mouseMoveEvent@QComboBox@@MAEXPAVQMouseEvent@@@Z 00420fec     qt-mt323:qt-mt323.dll
 0002:00000ff0       __imp_?mouseDoubleClickEvent@QComboBox@@MAEXPAVQMouseEvent@@@Z 00420ff0     qt-mt323:qt-mt323.dll
 0002:00000ff4       __imp_?mouseReleaseEvent@QComboBox@@MAEXPAVQMouseEvent@@@Z 00420ff4     qt-mt323:qt-mt323.dll
 0002:00000ff8       __imp_?mousePressEvent@QComboBox@@MAEXPAVQMouseEvent@@@Z 00420ff8     qt-mt323:qt-mt323.dll
 0002:00000ffc       __imp_?sizeHint@QComboBox@@UBE?AVQSize@@XZ 00420ffc     qt-mt323:qt-mt323.dll
 0002:00001000       __imp_?setFont@QComboBox@@UAEXABVQFont@@@Z 00421000     qt-mt323:qt-mt323.dll
 0002:00001004       __imp_?setPalette@QComboBox@@UAEXABVQPalette@@@Z 00421004     qt-mt323:qt-mt323.dll
 0002:00001008       __imp_?setEnabled@QComboBox@@UAEX_N@Z 00421008     qt-mt323:qt-mt323.dll
 0002:0000100c       __imp_?eventFilter@QComboBox@@UAE_NPAVQObject@@PAVQEvent@@@Z 0042100c     qt-mt323:qt-mt323.dll
 0002:00001010       __imp_?qt_property@QComboBox@@UAE_NHHPAVQVariant@@@Z 00421010     qt-mt323:qt-mt323.dll
 0002:00001014       __imp_?qt_emit@QComboBox@@UAE_NHPAUQUObject@@@Z 00421014     qt-mt323:qt-mt323.dll
 0002:00001018       __imp_?qt_invoke@QComboBox@@UAE_NHPAUQUObject@@@Z 00421018     qt-mt323:qt-mt323.dll
 0002:0000101c       __imp_?qt_cast@QComboBox@@UAEPAXPBD@Z 0042101c     qt-mt323:qt-mt323.dll
 0002:00001020       __imp_?className@QComboBox@@UBEPBDXZ 00421020     qt-mt323:qt-mt323.dll
 0002:00001024       __imp_?metaObject@QComboBox@@UBEPAVQMetaObject@@XZ 00421024     qt-mt323:qt-mt323.dll
 0002:00001028       __imp_?end@QMultiLineEdit@@MAEX_N@Z 00421028     qt-mt323:qt-mt323.dll
 0002:0000102c       __imp_?home@QMultiLineEdit@@MAEX_N@Z 0042102c     qt-mt323:qt-mt323.dll
 0002:00001030       __imp_?backspace@QMultiLineEdit@@MAEXXZ 00421030     qt-mt323:qt-mt323.dll
 0002:00001034       __imp_?cursorDown@QMultiLineEdit@@MAEX_N@Z 00421034     qt-mt323:qt-mt323.dll
 0002:00001038       __imp_?cursorUp@QMultiLineEdit@@MAEX_N@Z 00421038     qt-mt323:qt-mt323.dll
 0002:0000103c       __imp_?cursorRight@QMultiLineEdit@@MAEX_N0@Z 0042103c     qt-mt323:qt-mt323.dll
 0002:00001040       __imp_?cursorLeft@QMultiLineEdit@@MAEX_N0@Z 00421040     qt-mt323:qt-mt323.dll
 0002:00001044       __imp_?pageDown@QMultiLineEdit@@MAEX_N@Z 00421044     qt-mt323:qt-mt323.dll
 0002:00001048       __imp_?pageUp@QMultiLineEdit@@MAEX_N@Z 00421048     qt-mt323:qt-mt323.dll
 0002:0000104c       __imp_?killLine@QMultiLineEdit@@MAEXXZ 0042104c     qt-mt323:qt-mt323.dll
 0002:00001050       __imp_?newLine@QMultiLineEdit@@MAEXXZ 00421050     qt-mt323:qt-mt323.dll
 0002:00001054       __imp_?insertAndMark@QMultiLineEdit@@MAEXABVQString@@_N@Z 00421054     qt-mt323:qt-mt323.dll
 0002:00001058       __imp_?setAutoUpdate@QMultiLineEdit@@UAEX_N@Z 00421058     qt-mt323:qt-mt323.dll
 0002:0000105c       __imp_?setCursorPosition@QMultiLineEdit@@UAEXHH_N@Z 0042105c     qt-mt323:qt-mt323.dll
 0002:00001060       __imp_?removeLine@QMultiLineEdit@@UAEXH@Z 00421060     qt-mt323:qt-mt323.dll
 0002:00001064       __imp_?insertAt@QMultiLineEdit@@UAEXABVQString@@HH_N@Z 00421064     qt-mt323:qt-mt323.dll
 0002:00001068       __imp_?insertLine@QMultiLineEdit@@UAEXABVQString@@H@Z 00421068     qt-mt323:qt-mt323.dll
 0002:0000106c       __imp_?insertAt@QMultiLineEdit@@UAEXABVQString@@HH@Z 0042106c     qt-mt323:qt-mt323.dll
 0002:00001070       __imp_?setCursorPosition@QMultiLineEdit@@UAEXHH@Z 00421070     qt-mt323:qt-mt323.dll
 0002:00001074       __imp_?setAlignment@QMultiLineEdit@@UAEXH@Z 00421074     qt-mt323:qt-mt323.dll
 0002:00001078       __imp_?qt_property@QMultiLineEdit@@UAE_NHHPAVQVariant@@@Z 00421078     qt-mt323:qt-mt323.dll
 0002:0000107c       __imp_?qt_emit@QMultiLineEdit@@UAE_NHPAUQUObject@@@Z 0042107c     qt-mt323:qt-mt323.dll
 0002:00001080       __imp_?qt_invoke@QMultiLineEdit@@UAE_NHPAUQUObject@@@Z 00421080     qt-mt323:qt-mt323.dll
 0002:00001084       __imp_?qt_cast@QMultiLineEdit@@UAEPAXPBD@Z 00421084     qt-mt323:qt-mt323.dll
 0002:00001088       __imp_?className@QMultiLineEdit@@UBEPBDXZ 00421088     qt-mt323:qt-mt323.dll
 0002:0000108c       __imp_?metaObject@QMultiLineEdit@@UBEPAVQMetaObject@@XZ 0042108c     qt-mt323:qt-mt323.dll
 0002:00001090       __imp_?layOutTitleRow@QWizard@@MAEXPAVQHBoxLayout@@ABVQString@@@Z 00421090     qt-mt323:qt-mt323.dll
 0002:00001094       __imp_?layOutButtonRow@QWizard@@MAEXPAVQHBoxLayout@@@Z 00421094     qt-mt323:qt-mt323.dll
 0002:00001098       __imp_?help@QWizard@@MAEXXZ 00421098     qt-mt323:qt-mt323.dll
 0002:0000109c       __imp_?next@QWizard@@MAEXXZ 0042109c     qt-mt323:qt-mt323.dll
 0002:000010a0       __imp_?back@QWizard@@MAEXXZ 004210a0     qt-mt323:qt-mt323.dll
 0002:000010a4       __imp_?setFinish@QWizard@@UAEXPAVQWidget@@_N@Z 004210a4     qt-mt323:qt-mt323.dll
 0002:000010a8       __imp_?setHelpEnabled@QWizard@@UAEXPAVQWidget@@_N@Z 004210a8     qt-mt323:qt-mt323.dll
 0002:000010ac       __imp_?setFinishEnabled@QWizard@@UAEXPAVQWidget@@_N@Z 004210ac     qt-mt323:qt-mt323.dll
 0002:000010b0       __imp_?setNextEnabled@QWizard@@UAEXPAVQWidget@@_N@Z 004210b0     qt-mt323:qt-mt323.dll
 0002:000010b4       __imp_?setBackEnabled@QWizard@@UAEXPAVQWidget@@_N@Z 004210b4     qt-mt323:qt-mt323.dll
 0002:000010b8       __imp_?setAppropriate@QWizard@@UAEXPAVQWidget@@_N@Z 004210b8     qt-mt323:qt-mt323.dll
 0002:000010bc       __imp_?appropriate@QWizard@@UBE_NPAVQWidget@@@Z 004210bc     qt-mt323:qt-mt323.dll
 0002:000010c0       __imp_?showPage@QWizard@@UAEXPAVQWidget@@@Z 004210c0     qt-mt323:qt-mt323.dll
 0002:000010c4       __imp_?removePage@QWizard@@UAEXPAVQWidget@@@Z 004210c4     qt-mt323:qt-mt323.dll
 0002:000010c8       __imp_?insertPage@QWizard@@UAEXPAVQWidget@@ABVQString@@H@Z 004210c8     qt-mt323:qt-mt323.dll
 0002:000010cc       __imp_?addPage@QWizard@@UAEXPAVQWidget@@ABVQString@@@Z 004210cc     qt-mt323:qt-mt323.dll
 0002:000010d0       __imp_?show@QWizard@@UAEXXZ 004210d0     qt-mt323:qt-mt323.dll
 0002:000010d4       __imp_?setFont@QWizard@@UAEXABVQFont@@@Z 004210d4     qt-mt323:qt-mt323.dll
 0002:000010d8       __imp_?eventFilter@QWizard@@UAE_NPAVQObject@@PAVQEvent@@@Z 004210d8     qt-mt323:qt-mt323.dll
 0002:000010dc       __imp_?qt_property@QWizard@@UAE_NHHPAVQVariant@@@Z 004210dc     qt-mt323:qt-mt323.dll
 0002:000010e0       __imp_?qt_emit@QWizard@@UAE_NHPAUQUObject@@@Z 004210e0     qt-mt323:qt-mt323.dll
 0002:000010e4       __imp_?qt_invoke@QWizard@@UAE_NHPAUQUObject@@@Z 004210e4     qt-mt323:qt-mt323.dll
 0002:000010e8       __imp_?qt_cast@QWizard@@UAEPAXPBD@Z 004210e8     qt-mt323:qt-mt323.dll
 0002:000010ec       __imp_?className@QWizard@@UBEPBDXZ 004210ec     qt-mt323:qt-mt323.dll
 0002:000010f0       __imp_?metaObject@QWizard@@UBEPAVQMetaObject@@XZ 004210f0     qt-mt323:qt-mt323.dll
 0002:000010f4       __imp_?rangeChange@QSlider@@MAEXXZ 004210f4     qt-mt323:qt-mt323.dll
 0002:000010f8       __imp_?valueChange@QSlider@@MAEXXZ 004210f8     qt-mt323:qt-mt323.dll
 0002:000010fc       __imp_?setValue@QSlider@@UAEXH@Z 004210fc     qt-mt323:qt-mt323.dll
 0002:00001100       __imp_?setTickInterval@QSlider@@UAEXH@Z 00421100     qt-mt323:qt-mt323.dll
 0002:00001104       __imp_?setTickmarks@QSlider@@UAEXW4TickSetting@1@@Z 00421104     qt-mt323:qt-mt323.dll
 0002:00001108       __imp_?setTracking@QSlider@@UAEX_N@Z 00421108     qt-mt323:qt-mt323.dll
 0002:0000110c       __imp_?setOrientation@QSlider@@UAEXW4Orientation@Qt@@@Z 0042110c     qt-mt323:qt-mt323.dll
 0002:00001110       __imp_?styleChange@QSlider@@MAEXAAVQStyle@@@Z 00421110     qt-mt323:qt-mt323.dll
 0002:00001114       __imp_?resizeEvent@QSlider@@MAEXPAVQResizeEvent@@@Z 00421114     qt-mt323:qt-mt323.dll
 0002:00001118       __imp_?paintEvent@QSlider@@MAEXPAVQPaintEvent@@@Z 00421118     qt-mt323:qt-mt323.dll
 0002:0000111c       __imp_?focusOutEvent@QSlider@@MAEXPAVQFocusEvent@@@Z 0042111c     qt-mt323:qt-mt323.dll
 0002:00001120       __imp_?focusInEvent@QSlider@@MAEXPAVQFocusEvent@@@Z 00421120     qt-mt323:qt-mt323.dll
 0002:00001124       __imp_?keyPressEvent@QSlider@@MAEXPAVQKeyEvent@@@Z 00421124     qt-mt323:qt-mt323.dll
 0002:00001128       __imp_?wheelEvent@QSlider@@MAEXPAVQWheelEvent@@@Z 00421128     qt-mt323:qt-mt323.dll
 0002:0000112c       __imp_?mouseMoveEvent@QSlider@@MAEXPAVQMouseEvent@@@Z 0042112c     qt-mt323:qt-mt323.dll
 0002:00001130       __imp_?mouseReleaseEvent@QSlider@@MAEXPAVQMouseEvent@@@Z 00421130     qt-mt323:qt-mt323.dll
 0002:00001134       __imp_?mousePressEvent@QSlider@@MAEXPAVQMouseEvent@@@Z 00421134     qt-mt323:qt-mt323.dll
 0002:00001138       __imp_?setSizePolicy@QSlider@@UAEXVQSizePolicy@@@Z 00421138     qt-mt323:qt-mt323.dll
 0002:0000113c       __imp_?sizePolicy@QSlider@@UBE?AVQSizePolicy@@XZ 0042113c     qt-mt323:qt-mt323.dll
 0002:00001140       __imp_?minimumSizeHint@QSlider@@UBE?AVQSize@@XZ 00421140     qt-mt323:qt-mt323.dll
 0002:00001144       __imp_?sizeHint@QSlider@@UBE?AVQSize@@XZ 00421144     qt-mt323:qt-mt323.dll
 0002:00001148       __imp_?setPalette@QSlider@@UAEXABVQPalette@@@Z 00421148     qt-mt323:qt-mt323.dll
 0002:0000114c       __imp_?qt_property@QSlider@@UAE_NHHPAVQVariant@@@Z 0042114c     qt-mt323:qt-mt323.dll
 0002:00001150       __imp_?qt_emit@QSlider@@UAE_NHPAUQUObject@@@Z 00421150     qt-mt323:qt-mt323.dll
 0002:00001154       __imp_?qt_invoke@QSlider@@UAE_NHPAUQUObject@@@Z 00421154     qt-mt323:qt-mt323.dll
 0002:00001158       __imp_?qt_cast@QSlider@@UAEPAXPBD@Z 00421158     qt-mt323:qt-mt323.dll
 0002:0000115c       __imp_?className@QSlider@@UBEPBDXZ 0042115c     qt-mt323:qt-mt323.dll
 0002:00001160       __imp_?metaObject@QSlider@@UBEPAVQMetaObject@@XZ 00421160     qt-mt323:qt-mt323.dll
 0002:00001164       __imp_?stepChange@QScrollBar@@MAEXXZ 00421164     qt-mt323:qt-mt323.dll
 0002:00001168       __imp_?rangeChange@QScrollBar@@MAEXXZ 00421168     qt-mt323:qt-mt323.dll
 0002:0000116c       __imp_?valueChange@QScrollBar@@MAEXXZ 0042116c     qt-mt323:qt-mt323.dll
 0002:00001170       __imp_?setTracking@QScrollBar@@UAEX_N@Z 00421170     qt-mt323:qt-mt323.dll
 0002:00001174       __imp_?setOrientation@QScrollBar@@UAEXW4Orientation@Qt@@@Z 00421174     qt-mt323:qt-mt323.dll
 0002:00001178       __imp_?styleChange@QScrollBar@@MAEXAAVQStyle@@@Z 00421178     qt-mt323:qt-mt323.dll
 0002:0000117c       __imp_?hideEvent@QScrollBar@@MAEXPAVQHideEvent@@@Z 0042117c     qt-mt323:qt-mt323.dll
 0002:00001180       __imp_?contextMenuEvent@QScrollBar@@MAEXPAVQContextMenuEvent@@@Z 00421180     qt-mt323:qt-mt323.dll
 0002:00001184       __imp_?resizeEvent@QScrollBar@@MAEXPAVQResizeEvent@@@Z 00421184     qt-mt323:qt-mt323.dll
 0002:00001188       __imp_?paintEvent@QScrollBar@@MAEXPAVQPaintEvent@@@Z 00421188     qt-mt323:qt-mt323.dll
 0002:0000118c       __imp_?keyPressEvent@QScrollBar@@MAEXPAVQKeyEvent@@@Z 0042118c     qt-mt323:qt-mt323.dll
 0002:00001190       __imp_?wheelEvent@QScrollBar@@MAEXPAVQWheelEvent@@@Z 00421190     qt-mt323:qt-mt323.dll
 0002:00001194       __imp_?mouseMoveEvent@QScrollBar@@MAEXPAVQMouseEvent@@@Z 00421194     qt-mt323:qt-mt323.dll
 0002:00001198       __imp_?mouseReleaseEvent@QScrollBar@@MAEXPAVQMouseEvent@@@Z 00421198     qt-mt323:qt-mt323.dll
 0002:0000119c       __imp_?mousePressEvent@QScrollBar@@MAEXPAVQMouseEvent@@@Z 0042119c     qt-mt323:qt-mt323.dll
 0002:000011a0       __imp_?setSizePolicy@QScrollBar@@UAEXVQSizePolicy@@@Z 004211a0     qt-mt323:qt-mt323.dll
 0002:000011a4       __imp_?sizeHint@QScrollBar@@UBE?AVQSize@@XZ 004211a4     qt-mt323:qt-mt323.dll
 0002:000011a8       __imp_?setPalette@QScrollBar@@UAEXABVQPalette@@@Z 004211a8     qt-mt323:qt-mt323.dll
 0002:000011ac       __imp_?qt_property@QScrollBar@@UAE_NHHPAVQVariant@@@Z 004211ac     qt-mt323:qt-mt323.dll
 0002:000011b0       __imp_?qt_emit@QScrollBar@@UAE_NHPAUQUObject@@@Z 004211b0     qt-mt323:qt-mt323.dll
 0002:000011b4       __imp_?qt_invoke@QScrollBar@@UAE_NHPAUQUObject@@@Z 004211b4     qt-mt323:qt-mt323.dll
 0002:000011b8       __imp_?qt_cast@QScrollBar@@UAEPAXPBD@Z 004211b8     qt-mt323:qt-mt323.dll
 0002:000011bc       __imp_?className@QScrollBar@@UBEPBDXZ 004211bc     qt-mt323:qt-mt323.dll
 0002:000011c0       __imp_?metaObject@QScrollBar@@UBEPAVQMetaObject@@XZ 004211c0     qt-mt323:qt-mt323.dll
 0002:000011c4       __imp_?columnClicked@QTable@@MAEXH@Z 004211c4     qt-mt323:qt-mt323.dll
 0002:000011c8       __imp_?resizeData@QTable@@MAEXH@Z 004211c8     qt-mt323:qt-mt323.dll
 0002:000011cc       __imp_?endEdit@QTable@@MAEXHH_N0@Z 004211cc     qt-mt323:qt-mt323.dll
 0002:000011d0       __imp_?beginEdit@QTable@@MAEPAVQWidget@@HH_N@Z 004211d0     qt-mt323:qt-mt323.dll
 0002:000011d4       __imp_?createEditor@QTable@@MBEPAVQWidget@@HH_N@Z 004211d4     qt-mt323:qt-mt323.dll
 0002:000011d8       __imp_?activateNextCell@QTable@@MAEXXZ 004211d8     qt-mt323:qt-mt323.dll
 0002:000011dc       __imp_?swapColumns@QTable@@UAEXHH_N@Z 004211dc     qt-mt323:qt-mt323.dll
 0002:000011e0       __imp_?setColumnStretchable@QTable@@UAEXH_N@Z 004211e0     qt-mt323:qt-mt323.dll
 0002:000011e4       __imp_?adjustColumn@QTable@@UAEXH@Z 004211e4     qt-mt323:qt-mt323.dll
 0002:000011e8       __imp_?setColumnWidth@QTable@@UAEXHH@Z 004211e8     qt-mt323:qt-mt323.dll
 0002:000011ec       __imp_?showColumn@QTable@@UAEXH@Z 004211ec     qt-mt323:qt-mt323.dll
 0002:000011f0       __imp_?hideColumn@QTable@@UAEXH@Z 004211f0     qt-mt323:qt-mt323.dll
 0002:000011f4       __imp_?setNumCols@QTable@@UAEXH@Z 004211f4     qt-mt323:qt-mt323.dll
 0002:000011f8       __imp_?setNumRows@QTable@@UAEXH@Z 004211f8     qt-mt323:qt-mt323.dll
 0002:000011fc       __imp_?paintCell@QTable@@UAEXPAVQPainter@@HHABVQRect@@_NABVQColorGroup@@@Z 004211fc     qt-mt323:qt-mt323.dll
 0002:00001200       __imp_?takeItem@QTable@@UAEXPAVQTableItem@@@Z 00421200     qt-mt323:qt-mt323.dll
 0002:00001204       __imp_?sortColumn@QTable@@UAEXH_N0@Z 00421204     qt-mt323:qt-mt323.dll
 0002:00001208       __imp_?numCols@QTable@@UBEHXZ 00421208     qt-mt323:qt-mt323.dll
 0002:0000120c       __imp_?numRows@QTable@@UBEHXZ 0042120c     qt-mt323:qt-mt323.dll
 0002:00001210       __imp_?clearCell@QTable@@UAEXHH@Z 00421210     qt-mt323:qt-mt323.dll
 0002:00001214       __imp_?text@QTable@@UBE?AVQString@@HH@Z 00421214     qt-mt323:qt-mt323.dll
 0002:00001218       __imp_?item@QTable@@UBEPAVQTableItem@@HH@Z 00421218     qt-mt323:qt-mt323.dll
 0002:0000121c       __imp_?setPixmap@QTable@@UAEXHHABVQPixmap@@@Z 0042121c     qt-mt323:qt-mt323.dll
 0002:00001220       __imp_?setItem@QTable@@UAEXHHPAVQTableItem@@@Z 00421220     qt-mt323:qt-mt323.dll
 0002:00001224       __imp_?contentsContextMenuEvent@QTable@@MAEXPAVQContextMenuEvent@@@Z 00421224     qt-mt323:qt-mt323.dll
 0002:00001228       __imp_?contentsMousePressEvent@QTable@@MAEXPAVQMouseEvent@@@Z 00421228     qt-mt323:qt-mt323.dll
 0002:0000122c       __imp_?drawContents@QTable@@MAEXPAVQPainter@@HHHH@Z 0042122c     qt-mt323:qt-mt323.dll
 0002:00001230       __imp_?resizeEvent@QScrollView@@MAEXPAVQResizeEvent@@@Z 00421230     qt-mt323:qt-mt323.dll
 0002:00001234       __imp_?keyPressEvent@QTable@@MAEXPAVQKeyEvent@@@Z 00421234     qt-mt323:qt-mt323.dll
 0002:00001238       __imp_?eventFilter@QTable@@UAE_NPAVQObject@@PAVQEvent@@@Z 00421238     qt-mt323:qt-mt323.dll
 0002:0000123c       __imp_?qt_property@QTable@@UAE_NHHPAVQVariant@@@Z 0042123c     qt-mt323:qt-mt323.dll
 0002:00001240       __imp_?qt_emit@QTable@@UAE_NHPAUQUObject@@@Z 00421240     qt-mt323:qt-mt323.dll
 0002:00001244       __imp_?qt_invoke@QTable@@UAE_NHPAUQUObject@@@Z 00421244     qt-mt323:qt-mt323.dll
 0002:00001248       __imp_?qt_cast@QTable@@UAEPAXPBD@Z 00421248     qt-mt323:qt-mt323.dll
 0002:0000124c       __imp_?className@QTable@@UBEPBDXZ 0042124c     qt-mt323:qt-mt323.dll
 0002:00001250       __imp_?metaObject@QTable@@UBEPAVQMetaObject@@XZ 00421250     qt-mt323:qt-mt323.dll
 0002:00001254       __imp_?initDragEnter@QIconView@@EAEXPAVQDropEvent@@@Z 00421254     qt-mt323:qt-mt323.dll
 0002:00001258       __imp_?drawDragShapes@QIconView@@EAEXABVQPoint@@@Z 00421258     qt-mt323:qt-mt323.dll
 0002:0000125c       __imp_?drawBackground@QIconView@@MAEXPAVQPainter@@ABVQRect@@@Z 0042125c     qt-mt323:qt-mt323.dll
 0002:00001260       __imp_?insertInGrid@QIconView@@MAEXPAVQIconViewItem@@@Z 00421260     qt-mt323:qt-mt323.dll
 0002:00001264       __imp_?startDrag@QIconView@@MAEXXZ 00421264     qt-mt323:qt-mt323.dll
 0002:00001268       __imp_?dragObject@QIconView@@MAEPAVQDragObject@@XZ 00421268     qt-mt323:qt-mt323.dll
 0002:0000126c       __imp_?drawRubber@QIconView@@MAEXPAVQPainter@@@Z 0042126c     qt-mt323:qt-mt323.dll
 0002:00001270       __imp_?slotUpdate@QIconView@@MAEXXZ 00421270     qt-mt323:qt-mt323.dll
 0002:00001274       __imp_?adjustItems@QIconView@@MAEXXZ 00421274     qt-mt323:qt-mt323.dll
 0002:00001278       __imp_?doAutoScroll@QIconView@@MAEXXZ 00421278     qt-mt323:qt-mt323.dll
 0002:0000127c       __imp_?updateContents@QIconView@@UAEXXZ 0042127c     qt-mt323:qt-mt323.dll
 0002:00001280       __imp_?arrangeItemsInGrid@QIconView@@UAEXABVQSize@@_N@Z 00421280     qt-mt323:qt-mt323.dll
 0002:00001284       __imp_?arrangeItemsInGrid@QIconView@@UAEX_N@Z 00421284     qt-mt323:qt-mt323.dll
 0002:00001288       __imp_?sort@QIconView@@UAEX_N@Z 00421288     qt-mt323:qt-mt323.dll
 0002:0000128c       __imp_?setWordWrapIconText@QIconView@@UAEX_N@Z 0042128c     qt-mt323:qt-mt323.dll
 0002:00001290       __imp_?setItemsMovable@QIconView@@UAEX_N@Z 00421290     qt-mt323:qt-mt323.dll
 0002:00001294       __imp_?setShowToolTips@QIconView@@UAEX_N@Z 00421294     qt-mt323:qt-mt323.dll
 0002:00001298       __imp_?setAutoArrange@QIconView@@UAEX_N@Z 00421298     qt-mt323:qt-mt323.dll
 0002:0000129c       __imp_?setMaxItemTextLength@QIconView@@UAEXH@Z 0042129c     qt-mt323:qt-mt323.dll
 0002:000012a0       __imp_?setMaxItemWidth@QIconView@@UAEXH@Z 004212a0     qt-mt323:qt-mt323.dll
 0002:000012a4       __imp_?setResizeMode@QIconView@@UAEXW4ResizeMode@1@@Z 004212a4     qt-mt323:qt-mt323.dll
 0002:000012a8       __imp_?setArrangement@QIconView@@UAEXW4Arrangement@1@@Z 004212a8     qt-mt323:qt-mt323.dll
 0002:000012ac       __imp_?setItemTextBackground@QIconView@@UAEXABVQBrush@@@Z 004212ac     qt-mt323:qt-mt323.dll
 0002:000012b0       __imp_?setItemTextPos@QIconView@@UAEXW4ItemTextPos@1@@Z 004212b0     qt-mt323:qt-mt323.dll
 0002:000012b4       __imp_?setSpacing@QIconView@@UAEXH@Z 004212b4     qt-mt323:qt-mt323.dll
 0002:000012b8       __imp_?setGridY@QIconView@@UAEXH@Z 004212b8     qt-mt323:qt-mt323.dll
 0002:000012bc       __imp_?setGridX@QIconView@@UAEXH@Z 004212bc     qt-mt323:qt-mt323.dll
 0002:000012c0       __imp_?clear@QIconView@@UAEXXZ 004212c0     qt-mt323:qt-mt323.dll
 0002:000012c4       __imp_?repaintItem@QIconView@@UAEXPAVQIconViewItem@@@Z 004212c4     qt-mt323:qt-mt323.dll
 0002:000012c8       __imp_?invertSelection@QIconView@@UAEXXZ 004212c8     qt-mt323:qt-mt323.dll
 0002:000012cc       __imp_?clearSelection@QIconView@@UAEXXZ 004212cc     qt-mt323:qt-mt323.dll
 0002:000012d0       __imp_?selectAll@QIconView@@UAEX_N@Z 004212d0     qt-mt323:qt-mt323.dll
 0002:000012d4       __imp_?setSelectionMode@QIconView@@UAEXW4SelectionMode@1@@Z 004212d4     qt-mt323:qt-mt323.dll
 0002:000012d8       __imp_?setSelected@QIconView@@UAEXPAVQIconViewItem@@_N1@Z 004212d8     qt-mt323:qt-mt323.dll
 0002:000012dc       __imp_?setCurrentItem@QIconView@@UAEXPAVQIconViewItem@@@Z 004212dc     qt-mt323:qt-mt323.dll
 0002:000012e0       __imp_?takeItem@QIconView@@UAEXPAVQIconViewItem@@@Z 004212e0     qt-mt323:qt-mt323.dll
 0002:000012e4       __imp_?insertItem@QIconView@@UAEXPAVQIconViewItem@@0@Z 004212e4     qt-mt323:qt-mt323.dll
 0002:000012e8       __imp_?contentsContextMenuEvent@QIconView@@MAEXPAVQContextMenuEvent@@@Z 004212e8     qt-mt323:qt-mt323.dll
 0002:000012ec       __imp_?contentsDropEvent@QIconView@@MAEXPAVQDropEvent@@@Z 004212ec     qt-mt323:qt-mt323.dll
 0002:000012f0       __imp_?contentsDragLeaveEvent@QIconView@@MAEXPAVQDragLeaveEvent@@@Z 004212f0     qt-mt323:qt-mt323.dll
 0002:000012f4       __imp_?contentsDragMoveEvent@QIconView@@MAEXPAVQDragMoveEvent@@@Z 004212f4     qt-mt323:qt-mt323.dll
 0002:000012f8       __imp_?contentsDragEnterEvent@QIconView@@MAEXPAVQDragEnterEvent@@@Z 004212f8     qt-mt323:qt-mt323.dll
 0002:000012fc       __imp_?contentsMouseMoveEvent@QIconView@@MAEXPAVQMouseEvent@@@Z 004212fc     qt-mt323:qt-mt323.dll
 0002:00001300       __imp_?contentsMouseDoubleClickEvent@QIconView@@MAEXPAVQMouseEvent@@@Z 00421300     qt-mt323:qt-mt323.dll
 0002:00001304       __imp_?contentsMouseReleaseEvent@QIconView@@MAEXPAVQMouseEvent@@@Z 00421304     qt-mt323:qt-mt323.dll
 0002:00001308       __imp_?contentsMousePressEvent@QIconView@@MAEXPAVQMouseEvent@@@Z 00421308     qt-mt323:qt-mt323.dll
 0002:0000130c       __imp_?drawContents@QIconView@@MAEXPAVQPainter@@HHHH@Z 0042130c     qt-mt323:qt-mt323.dll
 0002:00001310       __imp_?setContentsPos@QIconView@@UAEXHH@Z 00421310     qt-mt323:qt-mt323.dll
 0002:00001314       __imp_?drawContents@QIconView@@EAEXPAVQPainter@@@Z 00421314     qt-mt323:qt-mt323.dll
 0002:00001318       __imp_?windowActivationChange@QIconView@@MAEX_N@Z 00421318     qt-mt323:qt-mt323.dll
 0002:0000131c       __imp_?styleChange@QIconView@@MAEXAAVQStyle@@@Z 0042131c     qt-mt323:qt-mt323.dll
 0002:00001320       __imp_?showEvent@QIconView@@UAEXPAVQShowEvent@@@Z 00421320     qt-mt323:qt-mt323.dll
 0002:00001324       __imp_?resizeEvent@QIconView@@MAEXPAVQResizeEvent@@@Z 00421324     qt-mt323:qt-mt323.dll
 0002:00001328       __imp_?enterEvent@QIconView@@MAEXPAVQEvent@@@Z 00421328     qt-mt323:qt-mt323.dll
 0002:0000132c       __imp_?focusOutEvent@QIconView@@MAEXPAVQFocusEvent@@@Z 0042132c     qt-mt323:qt-mt323.dll
 0002:00001330       __imp_?focusInEvent@QIconView@@MAEXPAVQFocusEvent@@@Z 00421330     qt-mt323:qt-mt323.dll
 0002:00001334       __imp_?keyPressEvent@QIconView@@MAEXPAVQKeyEvent@@@Z 00421334     qt-mt323:qt-mt323.dll
 0002:00001338       __imp_?minimumSizeHint@QIconView@@UBE?AVQSize@@XZ 00421338     qt-mt323:qt-mt323.dll
 0002:0000133c       __imp_?sizeHint@QIconView@@UBE?AVQSize@@XZ 0042133c     qt-mt323:qt-mt323.dll
 0002:00001340       __imp_?setFont@QIconView@@UAEXABVQFont@@@Z 00421340     qt-mt323:qt-mt323.dll
 0002:00001344       __imp_?setPalette@QIconView@@UAEXABVQPalette@@@Z 00421344     qt-mt323:qt-mt323.dll
 0002:00001348       __imp_?eventFilter@QIconView@@UAE_NPAVQObject@@PAVQEvent@@@Z 00421348     qt-mt323:qt-mt323.dll
 0002:0000134c       __imp_?qt_property@QIconView@@UAE_NHHPAVQVariant@@@Z 0042134c     qt-mt323:qt-mt323.dll
 0002:00001350       __imp_?qt_emit@QIconView@@UAE_NHPAUQUObject@@@Z 00421350     qt-mt323:qt-mt323.dll
 0002:00001354       __imp_?qt_invoke@QIconView@@UAE_NHPAUQUObject@@@Z 00421354     qt-mt323:qt-mt323.dll
 0002:00001358       __imp_?qt_cast@QIconView@@UAEPAXPBD@Z 00421358     qt-mt323:qt-mt323.dll
 0002:0000135c       __imp_?className@QIconView@@UBEPBDXZ 0042135c     qt-mt323:qt-mt323.dll
 0002:00001360       __imp_?metaObject@QIconView@@UBEPAVQMetaObject@@XZ 00421360     qt-mt323:qt-mt323.dll
 0002:00001364       __imp_?paintEmptyArea@QListView@@MAEXPAVQPainter@@ABVQRect@@@Z 00421364     qt-mt323:qt-mt323.dll
 0002:00001368       __imp_?startDrag@QListView@@MAEXXZ 00421368     qt-mt323:qt-mt323.dll
 0002:0000136c       __imp_?dragObject@QListView@@MAEPAVQDragObject@@XZ 0042136c     qt-mt323:qt-mt323.dll
 0002:00001370       __imp_?selectAll@QListView@@UAEX_N@Z 00421370     qt-mt323:qt-mt323.dll
 0002:00001374       __imp_?invertSelection@QListView@@UAEXXZ 00421374     qt-mt323:qt-mt323.dll
 0002:00001378       __imp_?clear@QListView@@UAEXXZ 00421378     qt-mt323:qt-mt323.dll
 0002:0000137c       __imp_?setDefaultRenameAction@QListView@@UAEXW4RenameAction@1@@Z 0042137c     qt-mt323:qt-mt323.dll
 0002:00001380       __imp_?setResizeMode@QListView@@UAEXW4ResizeMode@1@@Z 00421380     qt-mt323:qt-mt323.dll
 0002:00001384       __imp_?setShowToolTips@QListView@@UAEX_N@Z 00421384     qt-mt323:qt-mt323.dll
 0002:00001388       __imp_?setShowSortIndicator@QListView@@UAEX_N@Z 00421388     qt-mt323:qt-mt323.dll
 0002:0000138c       __imp_?sort@QListView@@UAEXXZ 0042138c     qt-mt323:qt-mt323.dll
 0002:00001390       __imp_?setSorting@QListView@@UAEXH_N@Z 00421390     qt-mt323:qt-mt323.dll
 0002:00001394       __imp_?setRootIsDecorated@QListView@@UAEX_N@Z 00421394     qt-mt323:qt-mt323.dll
 0002:00001398       __imp_?setItemMargin@QListView@@UAEXH@Z 00421398     qt-mt323:qt-mt323.dll
 0002:0000139c       __imp_?setAllColumnsShowFocus@QListView@@UAEX_N@Z 0042139c     qt-mt323:qt-mt323.dll
 0002:000013a0       __imp_?setCurrentItem@QListView@@UAEXPAVQListViewItem@@@Z 004213a0     qt-mt323:qt-mt323.dll
 0002:000013a4       __imp_?setOpen@QListView@@UAEXPAVQListViewItem@@_N@Z 004213a4     qt-mt323:qt-mt323.dll
 0002:000013a8       __imp_?setSelected@QListView@@UAEXPAVQListViewItem@@_N@Z 004213a8     qt-mt323:qt-mt323.dll
 0002:000013ac       __imp_?clearSelection@QListView@@UAEXXZ 004213ac     qt-mt323:qt-mt323.dll
 0002:000013b0       __imp_?setMultiSelection@QListView@@UAEX_N@Z 004213b0     qt-mt323:qt-mt323.dll
 0002:000013b4       __imp_?setColumnAlignment@QListView@@UAEXHH@Z 004213b4     qt-mt323:qt-mt323.dll
 0002:000013b8       __imp_?setColumnWidthMode@QListView@@UAEXHW4WidthMode@1@@Z 004213b8     qt-mt323:qt-mt323.dll
 0002:000013bc       __imp_?setColumnWidth@QListView@@UAEXHH@Z 004213bc     qt-mt323:qt-mt323.dll
 0002:000013c0       __imp_?setColumnText@QListView@@UAEXHABVQString@@@Z 004213c0     qt-mt323:qt-mt323.dll
 0002:000013c4       __imp_?setColumnText@QListView@@UAEXHABVQIconSet@@ABVQString@@@Z 004213c4     qt-mt323:qt-mt323.dll
 0002:000013c8       __imp_?removeColumn@QListView@@UAEXH@Z 004213c8     qt-mt323:qt-mt323.dll
 0002:000013cc       __imp_?addColumn@QListView@@UAEHABVQString@@H@Z 004213cc     qt-mt323:qt-mt323.dll
 0002:000013d0       __imp_?addColumn@QListView@@UAEHABVQIconSet@@ABVQString@@H@Z 004213d0     qt-mt323:qt-mt323.dll
 0002:000013d4       __imp_?removeItem@QListView@@UAEXPAVQListViewItem@@@Z 004213d4     qt-mt323:qt-mt323.dll
 0002:000013d8       __imp_?takeItem@QListView@@UAEXPAVQListViewItem@@@Z 004213d8     qt-mt323:qt-mt323.dll
 0002:000013dc       __imp_?insertItem@QListView@@UAEXPAVQListViewItem@@@Z 004213dc     qt-mt323:qt-mt323.dll
 0002:000013e0       __imp_?setTreeStepSize@QListView@@UAEXH@Z 004213e0     qt-mt323:qt-mt323.dll
 0002:000013e4       __imp_?viewportResizeEvent@QListView@@MAEXPAVQResizeEvent@@@Z 004213e4     qt-mt323:qt-mt323.dll
 0002:000013e8       __imp_?contentsContextMenuEvent@QListView@@MAEXPAVQContextMenuEvent@@@Z 004213e8     qt-mt323:qt-mt323.dll
 0002:000013ec       __imp_?contentsDropEvent@QListView@@MAEXPAVQDropEvent@@@Z 004213ec     qt-mt323:qt-mt323.dll
 0002:000013f0       __imp_?contentsDragLeaveEvent@QListView@@MAEXPAVQDragLeaveEvent@@@Z 004213f0     qt-mt323:qt-mt323.dll
 0002:000013f4       __imp_?contentsDragMoveEvent@QListView@@MAEXPAVQDragMoveEvent@@@Z 004213f4     qt-mt323:qt-mt323.dll
 0002:000013f8       __imp_?contentsDragEnterEvent@QListView@@MAEXPAVQDragEnterEvent@@@Z 004213f8     qt-mt323:qt-mt323.dll
 0002:000013fc       __imp_?contentsMouseMoveEvent@QListView@@MAEXPAVQMouseEvent@@@Z 004213fc     qt-mt323:qt-mt323.dll
 0002:00001400       __imp_?contentsMouseDoubleClickEvent@QListView@@MAEXPAVQMouseEvent@@@Z 00421400     qt-mt323:qt-mt323.dll
 0002:00001404       __imp_?contentsMouseReleaseEvent@QListView@@MAEXPAVQMouseEvent@@@Z 00421404     qt-mt323:qt-mt323.dll
 0002:00001408       __imp_?contentsMousePressEvent@QListView@@MAEXPAVQMouseEvent@@@Z 00421408     qt-mt323:qt-mt323.dll
 0002:0000140c       __imp_?drawContentsOffset@QListView@@MAEXPAVQPainter@@HHHHHH@Z 0042140c     qt-mt323:qt-mt323.dll
 0002:00001410       __imp_?setContentsPos@QListView@@UAEXHH@Z 00421410     qt-mt323:qt-mt323.dll
 0002:00001414       __imp_?windowActivationChange@QListView@@MAEX_N@Z 00421414     qt-mt323:qt-mt323.dll
 0002:00001418       __imp_?styleChange@QListView@@MAEXAAVQStyle@@@Z 00421418     qt-mt323:qt-mt323.dll
 0002:0000141c       __imp_?showEvent@QListView@@MAEXPAVQShowEvent@@@Z 0042141c     qt-mt323:qt-mt323.dll
 0002:00001420       __imp_?resizeEvent@QListView@@MAEXPAVQResizeEvent@@@Z 00421420     qt-mt323:qt-mt323.dll
 0002:00001424       __imp_?focusOutEvent@QListView@@MAEXPAVQFocusEvent@@@Z 00421424     qt-mt323:qt-mt323.dll
 0002:00001428       __imp_?focusInEvent@QListView@@MAEXPAVQFocusEvent@@@Z 00421428     qt-mt323:qt-mt323.dll
 0002:0000142c       __imp_?keyPressEvent@QListView@@MAEXPAVQKeyEvent@@@Z 0042142c     qt-mt323:qt-mt323.dll
 0002:00001430       __imp_?minimumSizeHint@QListView@@UBE?AVQSize@@XZ 00421430     qt-mt323:qt-mt323.dll
 0002:00001434       __imp_?sizeHint@QListView@@UBE?AVQSize@@XZ 00421434     qt-mt323:qt-mt323.dll
 0002:00001438       __imp_?show@QListView@@UAEXXZ 00421438     qt-mt323:qt-mt323.dll
 0002:0000143c       __imp_?setFont@QListView@@UAEXABVQFont@@@Z 0042143c     qt-mt323:qt-mt323.dll
 0002:00001440       __imp_?setPalette@QListView@@UAEXABVQPalette@@@Z 00421440     qt-mt323:qt-mt323.dll
 0002:00001444       __imp_?eventFilter@QListView@@UAE_NPAVQObject@@PAVQEvent@@@Z 00421444     qt-mt323:qt-mt323.dll
 0002:00001448       __imp_?qt_property@QListView@@UAE_NHHPAVQVariant@@@Z 00421448     qt-mt323:qt-mt323.dll
 0002:0000144c       __imp_?qt_emit@QListView@@UAE_NHPAUQUObject@@@Z 0042144c     qt-mt323:qt-mt323.dll
 0002:00001450       __imp_?qt_invoke@QListView@@UAE_NHPAUQUObject@@@Z 00421450     qt-mt323:qt-mt323.dll
 0002:00001454       __imp_?qt_cast@QListView@@UAEPAXPBD@Z 00421454     qt-mt323:qt-mt323.dll
 0002:00001458       __imp_?className@QListView@@UBEPBDXZ 00421458     qt-mt323:qt-mt323.dll
 0002:0000145c       __imp_?metaObject@QListView@@UBEPAVQMetaObject@@XZ 0042145c     qt-mt323:qt-mt323.dll
 0002:00001460       __imp_?setOn@QToolButton@@UAEX_N@Z 00421460     qt-mt323:qt-mt323.dll
 0002:00001464       __imp_?setToggleButton@QToolButton@@UAEX_N@Z 00421464     qt-mt323:qt-mt323.dll
 0002:00001468       __imp_?setTextLabel@QToolButton@@UAEXABVQString@@_N@Z 00421468     qt-mt323:qt-mt323.dll
 0002:0000146c       __imp_?setUsesTextLabel@QToolButton@@UAEX_N@Z 0042146c     qt-mt323:qt-mt323.dll
 0002:00001470       __imp_?setUsesBigPixmap@QToolButton@@UAEX_N@Z 00421470     qt-mt323:qt-mt323.dll
 0002:00001474       __imp_?setIconSet@QToolButton@@UAEXABVQIconSet@@@Z 00421474     qt-mt323:qt-mt323.dll
 0002:00001478       __imp_?drawButtonLabel@QToolButton@@MAEXPAVQPainter@@@Z 00421478     qt-mt323:qt-mt323.dll
 0002:0000147c       __imp_?drawButton@QToolButton@@MAEXPAVQPainter@@@Z 0042147c     qt-mt323:qt-mt323.dll
 0002:00001480       __imp_?setText@QToolButton@@UAEXABVQString@@@Z 00421480     qt-mt323:qt-mt323.dll
 0002:00001484       __imp_?paletteChange@QToolButton@@MAEXABVQPalette@@@Z 00421484     qt-mt323:qt-mt323.dll
 0002:00001488       __imp_?moveEvent@QToolButton@@MAEXPAVQMoveEvent@@@Z 00421488     qt-mt323:qt-mt323.dll
 0002:0000148c       __imp_?leaveEvent@QToolButton@@MAEXPAVQEvent@@@Z 0042148c     qt-mt323:qt-mt323.dll
 0002:00001490       __imp_?enterEvent@QToolButton@@MAEXPAVQEvent@@@Z 00421490     qt-mt323:qt-mt323.dll
 0002:00001494       __imp_?mousePressEvent@QToolButton@@MAEXPAVQMouseEvent@@@Z 00421494     qt-mt323:qt-mt323.dll
 0002:00001498       __imp_?minimumSizeHint@QToolButton@@UBE?AVQSize@@XZ 00421498     qt-mt323:qt-mt323.dll
 0002:0000149c       __imp_?sizeHint@QToolButton@@UBE?AVQSize@@XZ 0042149c     qt-mt323:qt-mt323.dll
 0002:000014a0       __imp_?eventFilter@QToolButton@@MAE_NPAVQObject@@PAVQEvent@@@Z 004214a0     qt-mt323:qt-mt323.dll
 0002:000014a4       __imp_?qt_property@QToolButton@@UAE_NHHPAVQVariant@@@Z 004214a4     qt-mt323:qt-mt323.dll
 0002:000014a8       __imp_?qt_emit@QToolButton@@UAE_NHPAUQUObject@@@Z 004214a8     qt-mt323:qt-mt323.dll
 0002:000014ac       __imp_?qt_invoke@QToolButton@@UAE_NHPAUQUObject@@@Z 004214ac     qt-mt323:qt-mt323.dll
 0002:000014b0       __imp_?qt_cast@QToolButton@@UAEPAXPBD@Z 004214b0     qt-mt323:qt-mt323.dll
 0002:000014b4       __imp_?className@QToolButton@@UBEPBDXZ 004214b4     qt-mt323:qt-mt323.dll
 0002:000014b8       __imp_?metaObject@QToolButton@@UBEPAVQMetaObject@@XZ 004214b8     qt-mt323:qt-mt323.dll
 0002:000014bc       __imp_?setToolTipGroup@QMainWindow@@EAEXPAVQToolTipGroup@@@Z 004214bc     qt-mt323:qt-mt323.dll
 0002:000014c0       __imp_?setStatusBar@QMainWindow@@EAEXPAVQStatusBar@@@Z 004214c0     qt-mt323:qt-mt323.dll
 0002:000014c4       __imp_?setMenuBar@QMainWindow@@EAEXPAVQMenuBar@@@Z 004214c4     qt-mt323:qt-mt323.dll
 0002:000014c8       __imp_?showDockMenu@QMainWindow@@MAE_NABVQPoint@@@Z 004214c8     qt-mt323:qt-mt323.dll
 0002:000014cc       __imp_?setUpLayout@QMainWindow@@MAEXXZ 004214cc     qt-mt323:qt-mt323.dll
 0002:000014d0       __imp_?customize@QMainWindow@@UAEXXZ 004214d0     qt-mt323:qt-mt323.dll
 0002:000014d4       __imp_?setAppropriate@QMainWindow@@UAEXPAVQDockWindow@@_N@Z 004214d4     qt-mt323:qt-mt323.dll
 0002:000014d8       __imp_?whatsThis@QMainWindow@@UAEXXZ 004214d8     qt-mt323:qt-mt323.dll
 0002:000014dc       __imp_?setDockMenuEnabled@QMainWindow@@UAEX_N@Z 004214dc     qt-mt323:qt-mt323.dll
 0002:000014e0       __imp_?setOpaqueMoving@QMainWindow@@UAEX_N@Z 004214e0     qt-mt323:qt-mt323.dll
 0002:000014e4       __imp_?setDockWindowsMovable@QMainWindow@@UAEX_N@Z 004214e4     qt-mt323:qt-mt323.dll
 0002:000014e8       __imp_?setUsesTextLabel@QMainWindow@@UAEX_N@Z 004214e8     qt-mt323:qt-mt323.dll
 0002:000014ec       __imp_?setUsesBigPixmaps@QMainWindow@@UAEX_N@Z 004214ec     qt-mt323:qt-mt323.dll
 0002:000014f0       __imp_?setRightJustification@QMainWindow@@UAEX_N@Z 004214f0     qt-mt323:qt-mt323.dll
 0002:000014f4       __imp_?isCustomizable@QMainWindow@@UBE_NXZ 004214f4     qt-mt323:qt-mt323.dll
 0002:000014f8       __imp_?dockingArea@QMainWindow@@UAEPAVQDockArea@@ABVQPoint@@@Z 004214f8     qt-mt323:qt-mt323.dll
 0002:000014fc       __imp_?removeDockWindow@QMainWindow@@UAEXPAVQDockWindow@@@Z 004214fc     qt-mt323:qt-mt323.dll
 0002:00001500       __imp_?moveDockWindow@QMainWindow@@UAEXPAVQDockWindow@@W4Dock@Qt@@@Z 00421500     qt-mt323:qt-mt323.dll
 0002:00001504       __imp_?moveDockWindow@QMainWindow@@UAEXPAVQDockWindow@@W4Dock@Qt@@_NHH@Z 00421504     qt-mt323:qt-mt323.dll
 0002:00001508       __imp_?addDockWindow@QMainWindow@@UAEXPAVQDockWindow@@W4Dock@Qt@@_N@Z 00421508     qt-mt323:qt-mt323.dll
 0002:0000150c       __imp_?addDockWindow@QMainWindow@@UAEXPAVQDockWindow@@ABVQString@@W4Dock@Qt@@_N@Z 0042150c     qt-mt323:qt-mt323.dll
 0002:00001510       __imp_?setDockEnabled@QMainWindow@@UAEXW4Dock@Qt@@_N@Z 00421510     qt-mt323:qt-mt323.dll
 0002:00001514       __imp_?setDockEnabled@QMainWindow@@UAEXPAVQDockWindow@@W4Dock@Qt@@_N@Z 00421514     qt-mt323:qt-mt323.dll
 0002:00001518       __imp_?setCentralWidget@QMainWindow@@UAEXPAVQWidget@@@Z 00421518     qt-mt323:qt-mt323.dll
 0002:0000151c       __imp_?styleChange@QMainWindow@@MAEXAAVQStyle@@@Z 0042151c     qt-mt323:qt-mt323.dll
 0002:00001520       __imp_?paintEvent@QMainWindow@@MAEXPAVQPaintEvent@@@Z 00421520     qt-mt323:qt-mt323.dll
 0002:00001524       __imp_?minimumSizeHint@QMainWindow@@UBE?AVQSize@@XZ 00421524     qt-mt323:qt-mt323.dll
 0002:00001528       __imp_?sizeHint@QMainWindow@@UBE?AVQSize@@XZ 00421528     qt-mt323:qt-mt323.dll
 0002:0000152c       __imp_?hide@QMainWindow@@UAEXXZ 0042152c     qt-mt323:qt-mt323.dll
 0002:00001530       __imp_?show@QMainWindow@@UAEXXZ 00421530     qt-mt323:qt-mt323.dll
 0002:00001534       __imp_?childEvent@QMainWindow@@MAEXPAVQChildEvent@@@Z 00421534     qt-mt323:qt-mt323.dll
 0002:00001538       __imp_?eventFilter@QMainWindow@@UAE_NPAVQObject@@PAVQEvent@@@Z 00421538     qt-mt323:qt-mt323.dll
 0002:0000153c       __imp_?event@QMainWindow@@MAE_NPAVQEvent@@@Z 0042153c     qt-mt323:qt-mt323.dll
 0002:00001540       __imp_?qt_property@QMainWindow@@UAE_NHHPAVQVariant@@@Z 00421540     qt-mt323:qt-mt323.dll
 0002:00001544       __imp_?qt_emit@QMainWindow@@UAE_NHPAUQUObject@@@Z 00421544     qt-mt323:qt-mt323.dll
 0002:00001548       __imp_?qt_invoke@QMainWindow@@UAE_NHPAUQUObject@@@Z 00421548     qt-mt323:qt-mt323.dll
 0002:0000154c       __imp_?qt_cast@QMainWindow@@UAEPAXPBD@Z 0042154c     qt-mt323:qt-mt323.dll
 0002:00001550       __imp_?className@QMainWindow@@UBEPBDXZ 00421550     qt-mt323:qt-mt323.dll
 0002:00001554       __imp_?metaObject@QMainWindow@@UBEPAVQMetaObject@@XZ 00421554     qt-mt323:qt-mt323.dll
 0002:00001558       __imp_?className@QDialog@@UBEPBDXZ 00421558     qt-mt323:qt-mt323.dll
 0002:0000155c       __imp_?metaObject@QDialog@@UBEPAVQMetaObject@@XZ 0042155c     qt-mt323:qt-mt323.dll
 0002:00001560       __imp_?qt_property@QVBox@@UAE_NHHPAVQVariant@@@Z 00421560     qt-mt323:qt-mt323.dll
 0002:00001564       __imp_?qt_emit@QVBox@@UAE_NHPAUQUObject@@@Z 00421564     qt-mt323:qt-mt323.dll
 0002:00001568       __imp_?qt_invoke@QVBox@@UAE_NHPAUQUObject@@@Z 00421568     qt-mt323:qt-mt323.dll
 0002:0000156c       __imp_?qt_cast@QVBox@@UAEPAXPBD@Z 0042156c     qt-mt323:qt-mt323.dll
 0002:00001570       __imp_?className@QVBox@@UBEPBDXZ 00421570     qt-mt323:qt-mt323.dll
 0002:00001574       __imp_?metaObject@QVBox@@UBEPAVQMetaObject@@XZ 00421574     qt-mt323:qt-mt323.dll
 0002:00001578       __imp_?setIndicator@QProgressBar@@MAE_NAAVQString@@HH@Z 00421578     qt-mt323:qt-mt323.dll
 0002:0000157c       __imp_?setProgress@QProgressBar@@UAEXH@Z 0042157c     qt-mt323:qt-mt323.dll
 0002:00001580       __imp_?setTotalSteps@QProgressBar@@UAEXH@Z 00421580     qt-mt323:qt-mt323.dll
 0002:00001584       __imp_?drawContents@QProgressBar@@MAEXPAVQPainter@@@Z 00421584     qt-mt323:qt-mt323.dll
 0002:00001588       __imp_?styleChange@QProgressBar@@MAEXAAVQStyle@@@Z 00421588     qt-mt323:qt-mt323.dll
 0002:0000158c       __imp_?minimumSizeHint@QProgressBar@@UBE?AVQSize@@XZ 0042158c     qt-mt323:qt-mt323.dll
 0002:00001590       __imp_?sizeHint@QProgressBar@@UBE?AVQSize@@XZ 00421590     qt-mt323:qt-mt323.dll
 0002:00001594       __imp_?show@QProgressBar@@UAEXXZ 00421594     qt-mt323:qt-mt323.dll
 0002:00001598       __imp_?qt_property@QProgressBar@@UAE_NHHPAVQVariant@@@Z 00421598     qt-mt323:qt-mt323.dll
 0002:0000159c       __imp_?qt_emit@QProgressBar@@UAE_NHPAUQUObject@@@Z 0042159c     qt-mt323:qt-mt323.dll
 0002:000015a0       __imp_?qt_invoke@QProgressBar@@UAE_NHPAUQUObject@@@Z 004215a0     qt-mt323:qt-mt323.dll
 0002:000015a4       __imp_?qt_cast@QProgressBar@@UAEPAXPBD@Z 004215a4     qt-mt323:qt-mt323.dll
 0002:000015a8       __imp_?className@QProgressBar@@UBEPBDXZ 004215a8     qt-mt323:qt-mt323.dll
 0002:000015ac       __imp_?metaObject@QProgressBar@@UBEPAVQMetaObject@@XZ 004215ac     qt-mt323:qt-mt323.dll
 0002:000015b0       __imp_?outOfRange@QDateEdit@@MBE_NHHH@Z 004215b0     qt-mt323:qt-mt323.dll
 0002:000015b4       __imp_?fix@QDateEdit@@MAEXXZ 004215b4     qt-mt323:qt-mt323.dll
 0002:000015b8       __imp_?setDay@QDateEdit@@MAEXH@Z 004215b8     qt-mt323:qt-mt323.dll
 0002:000015bc       __imp_?setMonth@QDateEdit@@MAEXH@Z 004215bc     qt-mt323:qt-mt323.dll
 0002:000015c0       __imp_?setYear@QDateEdit@@MAEXH@Z 004215c0     qt-mt323:qt-mt323.dll
 0002:000015c4       __imp_?setSeparator@QDateEdit@@UAEXABVQString@@@Z 004215c4     qt-mt323:qt-mt323.dll
 0002:000015c8       __imp_?setRange@QDateEdit@@UAEXABVQDate@@0@Z 004215c8     qt-mt323:qt-mt323.dll
 0002:000015cc       __imp_?setMaxValue@QDateEdit@@UAEXABVQDate@@@Z 004215cc     qt-mt323:qt-mt323.dll
 0002:000015d0       __imp_?setMinValue@QDateEdit@@UAEXABVQDate@@@Z 004215d0     qt-mt323:qt-mt323.dll
 0002:000015d4       __imp_?setAutoAdvance@QDateEdit@@UAEX_N@Z 004215d4     qt-mt323:qt-mt323.dll
 0002:000015d8       __imp_?setOrder@QDateEdit@@UAEXW4Order@1@@Z 004215d8     qt-mt323:qt-mt323.dll
 0002:000015dc       __imp_?setDate@QDateEdit@@UAEXABVQDate@@@Z 004215dc     qt-mt323:qt-mt323.dll
 0002:000015e0       __imp_?stepDown@QDateEdit@@MAEXXZ 004215e0     qt-mt323:qt-mt323.dll
 0002:000015e4       __imp_?stepUp@QDateEdit@@MAEXXZ 004215e4     qt-mt323:qt-mt323.dll
 0002:000015e8       __imp_?removeLastNumber@QDateEdit@@MAEXH@Z 004215e8     qt-mt323:qt-mt323.dll
 0002:000015ec       __imp_?addNumber@QDateEdit@@MAEXHH@Z 004215ec     qt-mt323:qt-mt323.dll
 0002:000015f0       __imp_?sectionFormattedText@QDateEdit@@MAE?AVQString@@H@Z 004215f0     qt-mt323:qt-mt323.dll
 0002:000015f4       __imp_?setFocusSection@QDateEdit@@MAE_NH@Z 004215f4     qt-mt323:qt-mt323.dll
 0002:000015f8       __imp_?resizeEvent@QDateEdit@@MAEXPAVQResizeEvent@@@Z 004215f8     qt-mt323:qt-mt323.dll
 0002:000015fc       __imp_?minimumSizeHint@QDateEdit@@UBE?AVQSize@@XZ 004215fc     qt-mt323:qt-mt323.dll
 0002:00001600       __imp_?sizeHint@QDateEdit@@UBE?AVQSize@@XZ 00421600     qt-mt323:qt-mt323.dll
 0002:00001604       __imp_?timerEvent@QDateEdit@@MAEXPAVQTimerEvent@@@Z 00421604     qt-mt323:qt-mt323.dll
 0002:00001608       __imp_?event@QDateEdit@@MAE_NPAVQEvent@@@Z 00421608     qt-mt323:qt-mt323.dll
 0002:0000160c       __imp_?qt_property@QDateEdit@@UAE_NHHPAVQVariant@@@Z 0042160c     qt-mt323:qt-mt323.dll
 0002:00001610       __imp_?qt_emit@QDateEdit@@UAE_NHPAUQUObject@@@Z 00421610     qt-mt323:qt-mt323.dll
 0002:00001614       __imp_?qt_invoke@QDateEdit@@UAE_NHPAUQUObject@@@Z 00421614     qt-mt323:qt-mt323.dll
 0002:00001618       __imp_?qt_cast@QDateEdit@@UAEPAXPBD@Z 00421618     qt-mt323:qt-mt323.dll
 0002:0000161c       __imp_?className@QDateEdit@@UBEPBDXZ 0042161c     qt-mt323:qt-mt323.dll
 0002:00001620       __imp_?metaObject@QDateEdit@@UBEPAVQMetaObject@@XZ 00421620     qt-mt323:qt-mt323.dll
 0002:00001624       __imp_?qt_property@QFrame@@UAE_NHHPAVQVariant@@@Z 00421624     qt-mt323:qt-mt323.dll
 0002:00001628       __imp_?qt_emit@QFrame@@UAE_NHPAUQUObject@@@Z 00421628     qt-mt323:qt-mt323.dll
 0002:0000162c       __imp_?qt_invoke@QFrame@@UAE_NHPAUQUObject@@@Z 0042162c     qt-mt323:qt-mt323.dll
 0002:00001630       __imp_?qt_cast@QFrame@@UAEPAXPBD@Z 00421630     qt-mt323:qt-mt323.dll
 0002:00001634       __imp_?className@QFrame@@UBEPBDXZ 00421634     qt-mt323:qt-mt323.dll
 0002:00001638       __imp_?metaObject@QFrame@@UBEPAVQMetaObject@@XZ 00421638     qt-mt323:qt-mt323.dll
 0002:0000163c       __imp_?removePage@QTabWidget@@UAEXPAVQWidget@@@Z 0042163c     qt-mt323:qt-mt323.dll
 0002:00001640       __imp_?showPage@QTabWidget@@UAEXPAVQWidget@@@Z 00421640     qt-mt323:qt-mt323.dll
 0002:00001644       __imp_?insertTab@QTabWidget@@UAEXPAVQWidget@@ABVQString@@H@Z 00421644     qt-mt323:qt-mt323.dll
 0002:00001648       __imp_?insertTab@QTabWidget@@UAEXPAVQWidget@@ABVQIconSet@@ABVQString@@H@Z 00421648     qt-mt323:qt-mt323.dll
 0002:0000164c       __imp_?insertTab@QTabWidget@@UAEXPAVQWidget@@PAVQTab@@H@Z 0042164c     qt-mt323:qt-mt323.dll
 0002:00001650       __imp_?addTab@QTabWidget@@UAEXPAVQWidget@@ABVQString@@@Z 00421650     qt-mt323:qt-mt323.dll
 0002:00001654       __imp_?addTab@QTabWidget@@UAEXPAVQWidget@@ABVQIconSet@@ABVQString@@@Z 00421654     qt-mt323:qt-mt323.dll
 0002:00001658       __imp_?addTab@QTabWidget@@UAEXPAVQWidget@@PAVQTab@@@Z 00421658     qt-mt323:qt-mt323.dll
 0002:0000165c       __imp_?styleChange@QTabWidget@@MAEXAAVQStyle@@@Z 0042165c     qt-mt323:qt-mt323.dll
 0002:00001660       __imp_?updateMask@QTabWidget@@MAEXXZ 00421660     qt-mt323:qt-mt323.dll
 0002:00001664       __imp_?showEvent@QTabWidget@@MAEXPAVQShowEvent@@@Z 00421664     qt-mt323:qt-mt323.dll
 0002:00001668       __imp_?resizeEvent@QTabWidget@@MAEXPAVQResizeEvent@@@Z 00421668     qt-mt323:qt-mt323.dll
 0002:0000166c       __imp_?minimumSizeHint@QTabWidget@@UBE?AVQSize@@XZ 0042166c     qt-mt323:qt-mt323.dll
 0002:00001670       __imp_?sizeHint@QTabWidget@@UBE?AVQSize@@XZ 00421670     qt-mt323:qt-mt323.dll
 0002:00001674       __imp_?eventFilter@QTabWidget@@MAE_NPAVQObject@@PAVQEvent@@@Z 00421674     qt-mt323:qt-mt323.dll
 0002:00001678       __imp_?qt_property@QTabWidget@@UAE_NHHPAVQVariant@@@Z 00421678     qt-mt323:qt-mt323.dll
 0002:0000167c       __imp_?qt_emit@QTabWidget@@UAE_NHPAUQUObject@@@Z 0042167c     qt-mt323:qt-mt323.dll
 0002:00001680       __imp_?qt_invoke@QTabWidget@@UAE_NHPAUQUObject@@@Z 00421680     qt-mt323:qt-mt323.dll
 0002:00001684       __imp_?qt_cast@QTabWidget@@UAEPAXPBD@Z 00421684     qt-mt323:qt-mt323.dll
 0002:00001688       __imp_?className@QTabWidget@@UBEPBDXZ 00421688     qt-mt323:qt-mt323.dll
 0002:0000168c       __imp_?metaObject@QTabWidget@@UBEPAVQMetaObject@@XZ 0042168c     qt-mt323:qt-mt323.dll
 0002:00001690       __imp_?createPopupMenu@QLineEdit@@MAEPAVQPopupMenu@@XZ 00421690     qt-mt323:qt-mt323.dll
 0002:00001694       __imp_?setDragEnabled@QLineEdit@@UAEX_N@Z 00421694     qt-mt323:qt-mt323.dll
 0002:00001698       __imp_?paste@QLineEdit@@UAEXXZ 00421698     qt-mt323:qt-mt323.dll
 0002:0000169c       __imp_?copy@QLineEdit@@UBEXXZ 0042169c     qt-mt323:qt-mt323.dll
 0002:000016a0       __imp_?cut@QLineEdit@@UAEXXZ 004216a0     qt-mt323:qt-mt323.dll
 0002:000016a4       __imp_?setAlignment@QLineEdit@@UAEXH@Z 004216a4     qt-mt323:qt-mt323.dll
 0002:000016a8       __imp_?setCursorPosition@QLineEdit@@UAEXH@Z 004216a8     qt-mt323:qt-mt323.dll
 0002:000016ac       __imp_?setSelection@QLineEdit@@UAEXHH@Z 004216ac     qt-mt323:qt-mt323.dll
 0002:000016b0       __imp_?setValidator@QLineEdit@@UAEXPBVQValidator@@@Z 004216b0     qt-mt323:qt-mt323.dll
 0002:000016b4       __imp_?setReadOnly@QLineEdit@@UAEX_N@Z 004216b4     qt-mt323:qt-mt323.dll
 0002:000016b8       __imp_?setEchoMode@QLineEdit@@UAEXW4EchoMode@1@@Z 004216b8     qt-mt323:qt-mt323.dll
 0002:000016bc       __imp_?setFrame@QLineEdit@@UAEX_N@Z 004216bc     qt-mt323:qt-mt323.dll
 0002:000016c0       __imp_?setMaxLength@QLineEdit@@UAEXH@Z 004216c0     qt-mt323:qt-mt323.dll
 0002:000016c4       __imp_?redo@QLineEdit@@UAEXXZ 004216c4     qt-mt323:qt-mt323.dll
 0002:000016c8       __imp_?undo@QLineEdit@@UAEXXZ 004216c8     qt-mt323:qt-mt323.dll
 0002:000016cc       __imp_?clear@QLineEdit@@UAEXXZ 004216cc     qt-mt323:qt-mt323.dll
 0002:000016d0       __imp_?insert@QLineEdit@@UAEXABVQString@@@Z 004216d0     qt-mt323:qt-mt323.dll
 0002:000016d4       __imp_?clearValidator@QLineEdit@@UAEXXZ 004216d4     qt-mt323:qt-mt323.dll
 0002:000016d8       __imp_?deselect@QLineEdit@@UAEXXZ 004216d8     qt-mt323:qt-mt323.dll
 0002:000016dc       __imp_?selectAll@QLineEdit@@UAEXXZ 004216dc     qt-mt323:qt-mt323.dll
 0002:000016e0       __imp_?setText@QLineEdit@@UAEXABVQString@@@Z 004216e0     qt-mt323:qt-mt323.dll
 0002:000016e4       __imp_?drawContents@QLineEdit@@MAEXPAVQPainter@@@Z 004216e4     qt-mt323:qt-mt323.dll
 0002:000016e8       __imp_?windowActivationChange@QLineEdit@@MAEX_N@Z 004216e8     qt-mt323:qt-mt323.dll
 0002:000016ec       __imp_?dropEvent@QLineEdit@@MAEXPAVQDropEvent@@@Z 004216ec     qt-mt323:qt-mt323.dll
 0002:000016f0       __imp_?dragLeaveEvent@QLineEdit@@MAEXPAVQDragLeaveEvent@@@Z 004216f0     qt-mt323:qt-mt323.dll
 0002:000016f4       __imp_?dragMoveEvent@QLineEdit@@MAEXPAVQDragMoveEvent@@@Z 004216f4     qt-mt323:qt-mt323.dll
 0002:000016f8       __imp_?dragEnterEvent@QLineEdit@@MAEXPAVQDragEnterEvent@@@Z 004216f8     qt-mt323:qt-mt323.dll
 0002:000016fc       __imp_?imEndEvent@QLineEdit@@MAEXPAVQIMEvent@@@Z 004216fc     qt-mt323:qt-mt323.dll
 0002:00001700       __imp_?imComposeEvent@QLineEdit@@MAEXPAVQIMEvent@@@Z 00421700     qt-mt323:qt-mt323.dll
 0002:00001704       __imp_?imStartEvent@QLineEdit@@MAEXPAVQIMEvent@@@Z 00421704     qt-mt323:qt-mt323.dll
 0002:00001708       __imp_?contextMenuEvent@QLineEdit@@MAEXPAVQContextMenuEvent@@@Z 00421708     qt-mt323:qt-mt323.dll
 0002:0000170c       __imp_?resizeEvent@QLineEdit@@MAEXPAVQResizeEvent@@@Z 0042170c     qt-mt323:qt-mt323.dll
 0002:00001710       __imp_?focusOutEvent@QLineEdit@@MAEXPAVQFocusEvent@@@Z 00421710     qt-mt323:qt-mt323.dll
 0002:00001714       __imp_?focusInEvent@QLineEdit@@MAEXPAVQFocusEvent@@@Z 00421714     qt-mt323:qt-mt323.dll
 0002:00001718       __imp_?keyPressEvent@QLineEdit@@MAEXPAVQKeyEvent@@@Z 00421718     qt-mt323:qt-mt323.dll
 0002:0000171c       __imp_?mouseMoveEvent@QLineEdit@@MAEXPAVQMouseEvent@@@Z 0042171c     qt-mt323:qt-mt323.dll
 0002:00001720       __imp_?mouseDoubleClickEvent@QLineEdit@@MAEXPAVQMouseEvent@@@Z 00421720     qt-mt323:qt-mt323.dll
 0002:00001724       __imp_?mouseReleaseEvent@QLineEdit@@MAEXPAVQMouseEvent@@@Z 00421724     qt-mt323:qt-mt323.dll
 0002:00001728       __imp_?mousePressEvent@QLineEdit@@MAEXPAVQMouseEvent@@@Z 00421728     qt-mt323:qt-mt323.dll
 0002:0000172c       __imp_?minimumSizeHint@QLineEdit@@UBE?AVQSize@@XZ 0042172c     qt-mt323:qt-mt323.dll
 0002:00001730       __imp_?sizeHint@QLineEdit@@UBE?AVQSize@@XZ 00421730     qt-mt323:qt-mt323.dll
 0002:00001734       __imp_?setFont@QLineEdit@@UAEXABVQFont@@@Z 00421734     qt-mt323:qt-mt323.dll
 0002:00001738       __imp_?setPalette@QLineEdit@@UAEXABVQPalette@@@Z 00421738     qt-mt323:qt-mt323.dll
 0002:0000173c       __imp_?event@QLineEdit@@MAE_NPAVQEvent@@@Z 0042173c     qt-mt323:qt-mt323.dll
 0002:00001740       __imp_?qt_property@QLineEdit@@UAE_NHHPAVQVariant@@@Z 00421740     qt-mt323:qt-mt323.dll
 0002:00001744       __imp_?qt_emit@QLineEdit@@UAE_NHPAUQUObject@@@Z 00421744     qt-mt323:qt-mt323.dll
 0002:00001748       __imp_?qt_invoke@QLineEdit@@UAE_NHPAUQUObject@@@Z 00421748     qt-mt323:qt-mt323.dll
 0002:0000174c       __imp_?qt_cast@QLineEdit@@UAEPAXPBD@Z 0042174c     qt-mt323:qt-mt323.dll
 0002:00001750       __imp_?className@QLineEdit@@UBEPBDXZ 00421750     qt-mt323:qt-mt323.dll
 0002:00001754       __imp_?metaObject@QLineEdit@@UBEPAVQMetaObject@@XZ 00421754     qt-mt323:qt-mt323.dll
 0002:00001758       __imp_?reload@QTextBrowser@@UAEXXZ 00421758     qt-mt323:qt-mt323.dll
 0002:0000175c       __imp_?home@QTextBrowser@@UAEXXZ 0042175c     qt-mt323:qt-mt323.dll
 0002:00001760       __imp_?forward@QTextBrowser@@UAEXXZ 00421760     qt-mt323:qt-mt323.dll
 0002:00001764       __imp_?backward@QTextBrowser@@UAEXXZ 00421764     qt-mt323:qt-mt323.dll
 0002:00001768       __imp_?setSource@QTextBrowser@@UAEXABVQString@@@Z 00421768     qt-mt323:qt-mt323.dll
 0002:0000176c       __imp_?emitLinkClicked@QTextBrowser@@EAEXABVQString@@@Z 0042176c     qt-mt323:qt-mt323.dll
 0002:00001770       __imp_?emitHighlighted@QTextBrowser@@EAEXABVQString@@@Z 00421770     qt-mt323:qt-mt323.dll
 0002:00001774       __imp_?linksEnabled@QTextBrowser@@EBE_NXZ 00421774     qt-mt323:qt-mt323.dll
 0002:00001778       __imp_?setText@QTextBrowser@@UAEXABVQString@@0@Z 00421778     qt-mt323:qt-mt323.dll
 0002:0000177c       __imp_?keyPressEvent@QTextBrowser@@MAEXPAVQKeyEvent@@@Z 0042177c     qt-mt323:qt-mt323.dll
 0002:00001780       __imp_?qt_property@QTextBrowser@@UAE_NHHPAVQVariant@@@Z 00421780     qt-mt323:qt-mt323.dll
 0002:00001784       __imp_?qt_emit@QTextBrowser@@UAE_NHPAUQUObject@@@Z 00421784     qt-mt323:qt-mt323.dll
 0002:00001788       __imp_?qt_invoke@QTextBrowser@@UAE_NHPAUQUObject@@@Z 00421788     qt-mt323:qt-mt323.dll
 0002:0000178c       __imp_?qt_cast@QTextBrowser@@UAEPAXPBD@Z 0042178c     qt-mt323:qt-mt323.dll
 0002:00001790       __imp_?className@QTextBrowser@@UBEPBDXZ 00421790     qt-mt323:qt-mt323.dll
 0002:00001794       __imp_?metaObject@QTextBrowser@@UBEPAVQMetaObject@@XZ 00421794     qt-mt323:qt-mt323.dll
 0002:00001798       __imp_?qt_property@QTextEdit@@UAE_NHHPAVQVariant@@@Z 00421798     qt-mt323:qt-mt323.dll
 0002:0000179c       __imp_?qt_emit@QTextEdit@@UAE_NHPAUQUObject@@@Z 0042179c     qt-mt323:qt-mt323.dll
 0002:000017a0       __imp_?qt_invoke@QTextEdit@@UAE_NHPAUQUObject@@@Z 004217a0     qt-mt323:qt-mt323.dll
 0002:000017a4       __imp_?qt_cast@QTextEdit@@UAEPAXPBD@Z 004217a4     qt-mt323:qt-mt323.dll
 0002:000017a8       __imp_?className@QTextEdit@@UBEPBDXZ 004217a8     qt-mt323:qt-mt323.dll
 0002:000017ac       __imp_?metaObject@QTextEdit@@UBEPAVQMetaObject@@XZ 004217ac     qt-mt323:qt-mt323.dll
 0002:000017b0       __imp_?fieldAlignment@QDataTable@@MAEHPBVQSqlField@@@Z 004217b0     qt-mt323:qt-mt323.dll
 0002:000017b4       __imp_?paintField@QDataTable@@MAEXPAVQPainter@@PBVQSqlField@@ABVQRect@@_N@Z 004217b4     qt-mt323:qt-mt323.dll
 0002:000017b8       __imp_?beginUpdate@QDataTable@@MAEPAVQWidget@@HH_N@Z 004217b8     qt-mt323:qt-mt323.dll
 0002:000017bc       __imp_?beginInsert@QDataTable@@MAE_NXZ 004217bc     qt-mt323:qt-mt323.dll
 0002:000017c0       __imp_?handleError@QDataTable@@MAEXABVQSqlError@@@Z 004217c0     qt-mt323:qt-mt323.dll
 0002:000017c4       __imp_?confirmCancel@QDataTable@@MAE?AW4Confirm@QSql@@W4Op@3@@Z 004217c4     qt-mt323:qt-mt323.dll
 0002:000017c8       __imp_?confirmEdit@QDataTable@@MAE?AW4Confirm@QSql@@W4Op@3@@Z 004217c8     qt-mt323:qt-mt323.dll
 0002:000017cc       __imp_?deleteCurrent@QDataTable@@MAE_NXZ 004217cc     qt-mt323:qt-mt323.dll
 0002:000017d0       __imp_?updateCurrent@QDataTable@@MAE_NXZ 004217d0     qt-mt323:qt-mt323.dll
 0002:000017d4       __imp_?insertCurrent@QDataTable@@MAE_NXZ 004217d4     qt-mt323:qt-mt323.dll
 0002:000017d8       __imp_?sortDescending@QDataTable@@UAEXH@Z 004217d8     qt-mt323:qt-mt323.dll
 0002:000017dc       __imp_?sortAscending@QDataTable@@UAEXH@Z 004217dc     qt-mt323:qt-mt323.dll
 0002:000017e0       __imp_?find@QDataTable@@UAEXABVQString@@_N1@Z 004217e0     qt-mt323:qt-mt323.dll
 0002:000017e4       __imp_?refresh@QDataTable@@UAEXXZ 004217e4     qt-mt323:qt-mt323.dll
 0002:000017e8       __imp_?setSort@QDataTable@@UAEXABVQStringList@@@Z 004217e8     qt-mt323:qt-mt323.dll
 0002:000017ec       __imp_?setSort@QDataTable@@UAEXABVQSqlIndex@@@Z 004217ec     qt-mt323:qt-mt323.dll
 0002:000017f0       __imp_?setFilter@QDataTable@@UAEXABVQString@@@Z 004217f0     qt-mt323:qt-mt323.dll
 0002:000017f4       __imp_?setAutoEdit@QDataTable@@UAEX_N@Z 004217f4     qt-mt323:qt-mt323.dll
 0002:000017f8       __imp_?setAutoDelete@QDataTable@@UAEX_N@Z 004217f8     qt-mt323:qt-mt323.dll
 0002:000017fc       __imp_?setConfirmCancels@QDataTable@@UAEX_N@Z 004217fc     qt-mt323:qt-mt323.dll
 0002:00001800       __imp_?setConfirmDelete@QDataTable@@UAEX_N@Z 00421800     qt-mt323:qt-mt323.dll
 0002:00001804       __imp_?setConfirmUpdate@QDataTable@@UAEX_N@Z 00421804     qt-mt323:qt-mt323.dll
 0002:00001808       __imp_?setConfirmInsert@QDataTable@@UAEX_N@Z 00421808     qt-mt323:qt-mt323.dll
 0002:0000180c       __imp_?setConfirmEdits@QDataTable@@UAEX_N@Z 0042180c     qt-mt323:qt-mt323.dll
 0002:00001810       __imp_?setDateFormat@QDataTable@@UAEXW4DateFormat@Qt@@@Z 00421810     qt-mt323:qt-mt323.dll
 0002:00001814       __imp_?setFalseText@QDataTable@@UAEXABVQString@@@Z 00421814     qt-mt323:qt-mt323.dll
 0002:00001818       __imp_?setTrueText@QDataTable@@UAEXABVQString@@@Z 00421818     qt-mt323:qt-mt323.dll
 0002:0000181c       __imp_?setNullText@QDataTable@@UAEXABVQString@@@Z 0042181c     qt-mt323:qt-mt323.dll
 0002:00001820       __imp_?setSqlCursor@QDataTable@@UAEXPAVQSqlCursor@@_N1@Z 00421820     qt-mt323:qt-mt323.dll
 0002:00001824       __imp_?setColumn@QDataTable@@UAEXIABVQString@@0HABVQIconSet@@@Z 00421824     qt-mt323:qt-mt323.dll
 0002:00001828       __imp_?removeColumn@QDataTable@@UAEXI@Z 00421828     qt-mt323:qt-mt323.dll
 0002:0000182c       __imp_?addColumn@QDataTable@@UAEXABVQString@@0HABVQIconSet@@@Z 0042182c     qt-mt323:qt-mt323.dll
 0002:00001830       __imp_?columnClicked@QDataTable@@MAEXH@Z 00421830     qt-mt323:qt-mt323.dll
 0002:00001834       __imp_?rowIndexChanged@QTable@@MAEXHHH@Z 00421834     qt-mt323:qt-mt323.dll
 0002:00001838       __imp_?columnIndexChanged@QTable@@MAEXHHH@Z 00421838     qt-mt323:qt-mt323.dll
 0002:0000183c       __imp_?rowHeightChanged@QTable@@MAEXH@Z 0042183c     qt-mt323:qt-mt323.dll
 0002:00001840       __imp_?columnWidthChanged@QTable@@MAEXH@Z 00421840     qt-mt323:qt-mt323.dll
 0002:00001844       __imp_?insertWidget@QTable@@MAEXHHPAVQWidget@@@Z 00421844     qt-mt323:qt-mt323.dll
 0002:00001848       __imp_?resizeData@QDataTable@@MAEXH@Z 00421848     qt-mt323:qt-mt323.dll
 0002:0000184c       __imp_?endEdit@QDataTable@@MAEXHH_N0@Z 0042184c     qt-mt323:qt-mt323.dll
 0002:00001850       __imp_?beginEdit@QDataTable@@EAEPAVQWidget@@HH_N@Z 00421850     qt-mt323:qt-mt323.dll
 0002:00001854       __imp_?setCellContentFromEditor@QTable@@MAEXHH@Z 00421854     qt-mt323:qt-mt323.dll
 0002:00001858       __imp_?createEditor@QDataTable@@MBEPAVQWidget@@HH_N@Z 00421858     qt-mt323:qt-mt323.dll
 0002:0000185c       __imp_?activateNextCell@QDataTable@@MAEXXZ 0042185c     qt-mt323:qt-mt323.dll
 0002:00001860       __imp_?paintEmptyArea@QTable@@MAEXPAVQPainter@@HHHH@Z 00421860     qt-mt323:qt-mt323.dll
 0002:00001864       __imp_?startDrag@QTable@@MAEXXZ 00421864     qt-mt323:qt-mt323.dll
 0002:00001868       __imp_?dragObject@QTable@@MAEPAVQDragObject@@XZ 00421868     qt-mt323:qt-mt323.dll
 0002:0000186c       __imp_?editCell@QTable@@UAEXHH_N@Z 0042186c     qt-mt323:qt-mt323.dll
 0002:00001870       __imp_?removeColumns@QTable@@UAEXABV?$QMemArray@H@@@Z 00421870     qt-mt323:qt-mt323.dll
 0002:00001874       __imp_?removeColumn@QTable@@UAEXH@Z 00421874     qt-mt323:qt-mt323.dll
 0002:00001878       __imp_?removeRows@QTable@@UAEXABV?$QMemArray@H@@@Z 00421878     qt-mt323:qt-mt323.dll
 0002:0000187c       __imp_?removeRow@QTable@@UAEXH@Z 0042187c     qt-mt323:qt-mt323.dll
 0002:00001880       __imp_?insertColumns@QTable@@UAEXHH@Z 00421880     qt-mt323:qt-mt323.dll
 0002:00001884       __imp_?insertRows@QTable@@UAEXHH@Z 00421884     qt-mt323:qt-mt323.dll
 0002:00001888       __imp_?setDragEnabled@QTable@@UAEX_N@Z 00421888     qt-mt323:qt-mt323.dll
 0002:0000188c       __imp_?setColumnReadOnly@QTable@@UAEXH_N@Z 0042188c     qt-mt323:qt-mt323.dll
 0002:00001890       __imp_?setRowReadOnly@QTable@@UAEXH_N@Z 00421890     qt-mt323:qt-mt323.dll
 0002:00001894       __imp_?setReadOnly@QTable@@UAEX_N@Z 00421894     qt-mt323:qt-mt323.dll
 0002:00001898       __imp_?setRowMovingEnabled@QTable@@UAEX_N@Z 00421898     qt-mt323:qt-mt323.dll
 0002:0000189c       __imp_?setColumnMovingEnabled@QTable@@UAEX_N@Z 0042189c     qt-mt323:qt-mt323.dll
 0002:000018a0       __imp_?setCurrentCell@QTable@@UAEXHH@Z 004218a0     qt-mt323:qt-mt323.dll
 0002:000018a4       __imp_?setTopMargin@QTable@@UAEXH@Z 004218a4     qt-mt323:qt-mt323.dll
 0002:000018a8       __imp_?setLeftMargin@QTable@@UAEXH@Z 004218a8     qt-mt323:qt-mt323.dll
 0002:000018ac       __imp_?swapCells@QTable@@UAEXHHHH@Z 004218ac     qt-mt323:qt-mt323.dll
 0002:000018b0       __imp_?swapColumns@QDataTable@@UAEXHH_N@Z 004218b0     qt-mt323:qt-mt323.dll
 0002:000018b4       __imp_?swapRows@QTable@@UAEXHH_N@Z 004218b4     qt-mt323:qt-mt323.dll
 0002:000018b8       __imp_?setSorting@QTable@@UAEX_N@Z 004218b8     qt-mt323:qt-mt323.dll
 0002:000018bc       __imp_?setRowStretchable@QTable@@UAEXH_N@Z 004218bc     qt-mt323:qt-mt323.dll
 0002:000018c0       __imp_?setColumnStretchable@QDataTable@@UAEXH_N@Z 004218c0     qt-mt323:qt-mt323.dll
 0002:000018c4       __imp_?adjustRow@QTable@@UAEXH@Z 004218c4     qt-mt323:qt-mt323.dll
 0002:000018c8       __imp_?adjustColumn@QDataTable@@UAEXH@Z 004218c8     qt-mt323:qt-mt323.dll
 0002:000018cc       __imp_?setRowHeight@QTable@@UAEXHH@Z 004218cc     qt-mt323:qt-mt323.dll
 0002:000018d0       __imp_?setColumnWidth@QDataTable@@UAEXHH@Z 004218d0     qt-mt323:qt-mt323.dll
 0002:000018d4       __imp_?showColumn@QDataTable@@UAEXH@Z 004218d4     qt-mt323:qt-mt323.dll
 0002:000018d8       __imp_?showRow@QTable@@UAEXH@Z 004218d8     qt-mt323:qt-mt323.dll
 0002:000018dc       __imp_?hideColumn@QDataTable@@UAEXH@Z 004218dc     qt-mt323:qt-mt323.dll
 0002:000018e0       __imp_?hideRow@QTable@@UAEXH@Z 004218e0     qt-mt323:qt-mt323.dll
 0002:000018e4       __imp_?setShowGrid@QTable@@UAEX_N@Z 004218e4     qt-mt323:qt-mt323.dll
 0002:000018e8       __imp_?setNumCols@QDataTable@@UAEXH@Z 004218e8     qt-mt323:qt-mt323.dll
 0002:000018ec       __imp_?setNumRows@QDataTable@@UAEXH@Z 004218ec     qt-mt323:qt-mt323.dll
 0002:000018f0       __imp_?setFocusStyle@QTable@@UAEXW4FocusStyle@1@@Z 004218f0     qt-mt323:qt-mt323.dll
 0002:000018f4       __imp_?paintFocus@QTable@@UAEXPAVQPainter@@ABVQRect@@@Z 004218f4     qt-mt323:qt-mt323.dll
 0002:000018f8       __imp_?paintCell@QTable@@UAEXPAVQPainter@@HHABVQRect@@_N@Z 004218f8     qt-mt323:qt-mt323.dll
 0002:000018fc       __imp_?paintCell@QDataTable@@MAEXPAVQPainter@@HHABVQRect@@_NABVQColorGroup@@@Z 004218fc     qt-mt323:qt-mt323.dll
 0002:00001900       __imp_?cellRect@QTable@@UBE?AVQRect@@HH@Z 00421900     qt-mt323:qt-mt323.dll
 0002:00001904       __imp_?clearCellWidget@QTable@@UAEXHH@Z 00421904     qt-mt323:qt-mt323.dll
 0002:00001908       __imp_?cellWidget@QTable@@UBEPAVQWidget@@HH@Z 00421908     qt-mt323:qt-mt323.dll
 0002:0000190c       __imp_?setCellWidget@QTable@@UAEXHHPAVQWidget@@@Z 0042190c     qt-mt323:qt-mt323.dll
 0002:00001910       __imp_?takeItem@QDataTable@@MAEXPAVQTableItem@@@Z 00421910     qt-mt323:qt-mt323.dll
 0002:00001914       __imp_?sortColumn@QDataTable@@UAEXH_N0@Z 00421914     qt-mt323:qt-mt323.dll
 0002:00001918       __imp_?currentSelection@QTable@@UBEHXZ 00421918     qt-mt323:qt-mt323.dll
 0002:0000191c       __imp_?removeSelection@QTable@@UAEXABVQTableSelection@@@Z 0042191c     qt-mt323:qt-mt323.dll
 0002:00001920       __imp_?removeSelection@QTable@@UAEXH@Z 00421920     qt-mt323:qt-mt323.dll
 0002:00001924       __imp_?addSelection@QTable@@UAEHABVQTableSelection@@@Z 00421924     qt-mt323:qt-mt323.dll
 0002:00001928       __imp_?numCols@QDataTable@@UBEHXZ 00421928     qt-mt323:qt-mt323.dll
 0002:0000192c       __imp_?numRows@QDataTable@@UBEHXZ 0042192c     qt-mt323:qt-mt323.dll
 0002:00001930       __imp_?rowAt@QTable@@UBEHH@Z 00421930     qt-mt323:qt-mt323.dll
 0002:00001934       __imp_?columnAt@QTable@@UBEHH@Z 00421934     qt-mt323:qt-mt323.dll
 0002:00001938       __imp_?rowPos@QTable@@UBEHH@Z 00421938     qt-mt323:qt-mt323.dll
 0002:0000193c       __imp_?columnPos@QTable@@UBEHH@Z 0042193c     qt-mt323:qt-mt323.dll
 0002:00001940       __imp_?rowHeight@QTable@@UBEHH@Z 00421940     qt-mt323:qt-mt323.dll
 0002:00001944       __imp_?columnWidth@QTable@@UBEHH@Z 00421944     qt-mt323:qt-mt323.dll
 0002:00001948       __imp_?cellGeometry@QTable@@UBE?AVQRect@@HH@Z 00421948     qt-mt323:qt-mt323.dll
 0002:0000194c       __imp_?clearCell@QDataTable@@MAEXHH@Z 0042194c     qt-mt323:qt-mt323.dll
 0002:00001950       __imp_?pixmap@QTable@@UBE?AVQPixmap@@HH@Z 00421950     qt-mt323:qt-mt323.dll
 0002:00001954       __imp_?text@QDataTable@@UBE?AVQString@@HH@Z 00421954     qt-mt323:qt-mt323.dll
 0002:00001958       __imp_?item@QDataTable@@MBEPAVQTableItem@@HH@Z 00421958     qt-mt323:qt-mt323.dll
 0002:0000195c       __imp_?setPixmap@QDataTable@@MAEXHHABVQPixmap@@@Z 0042195c     qt-mt323:qt-mt323.dll
 0002:00001960       __imp_?setText@QTable@@UAEXHHABVQString@@@Z 00421960     qt-mt323:qt-mt323.dll
 0002:00001964       __imp_?setItem@QDataTable@@MAEXHHPAVQTableItem@@@Z 00421964     qt-mt323:qt-mt323.dll
 0002:00001968       __imp_?setSelectionMode@QTable@@UAEXW4SelectionMode@1@@Z 00421968     qt-mt323:qt-mt323.dll
 0002:0000196c       __imp_?viewportResizeEvent@QTable@@MAEXPAVQResizeEvent@@@Z 0042196c     qt-mt323:qt-mt323.dll
 0002:00001970       __imp_?contentsContextMenuEvent@QDataTable@@MAEXPAVQContextMenuEvent@@@Z 00421970     qt-mt323:qt-mt323.dll
 0002:00001974       __imp_?contentsDropEvent@QTable@@MAEXPAVQDropEvent@@@Z 00421974     qt-mt323:qt-mt323.dll
 0002:00001978       __imp_?contentsDragLeaveEvent@QTable@@MAEXPAVQDragLeaveEvent@@@Z 00421978     qt-mt323:qt-mt323.dll
 0002:0000197c       __imp_?contentsDragMoveEvent@QTable@@MAEXPAVQDragMoveEvent@@@Z 0042197c     qt-mt323:qt-mt323.dll
 0002:00001980       __imp_?contentsDragEnterEvent@QTable@@MAEXPAVQDragEnterEvent@@@Z 00421980     qt-mt323:qt-mt323.dll
 0002:00001984       __imp_?contentsMouseMoveEvent@QTable@@MAEXPAVQMouseEvent@@@Z 00421984     qt-mt323:qt-mt323.dll
 0002:00001988       __imp_?contentsMouseDoubleClickEvent@QTable@@MAEXPAVQMouseEvent@@@Z 00421988     qt-mt323:qt-mt323.dll
 0002:0000198c       __imp_?contentsMouseReleaseEvent@QTable@@MAEXPAVQMouseEvent@@@Z 0042198c     qt-mt323:qt-mt323.dll
 0002:00001990       __imp_?contentsMousePressEvent@QDataTable@@MAEXPAVQMouseEvent@@@Z 00421990     qt-mt323:qt-mt323.dll
 0002:00001994       __imp_?drawContents@QDataTable@@MAEXPAVQPainter@@HHHH@Z 00421994     qt-mt323:qt-mt323.dll
 0002:00001998       __imp_?drawContents@QTable@@EAEXPAVQPainter@@@Z 00421998     qt-mt323:qt-mt323.dll
 0002:0000199c       __imp_?windowActivationChange@QTable@@MAEX_N@Z 0042199c     qt-mt323:qt-mt323.dll
 0002:000019a0       __imp_?showEvent@QTable@@MAEXPAVQShowEvent@@@Z 004219a0     qt-mt323:qt-mt323.dll
 0002:000019a4       __imp_?resizeEvent@QDataTable@@MAEXPAVQResizeEvent@@@Z 004219a4     qt-mt323:qt-mt323.dll
 0002:000019a8       __imp_?paintEvent@QTable@@MAEXPAVQPaintEvent@@@Z 004219a8     qt-mt323:qt-mt323.dll
 0002:000019ac       __imp_?focusOutEvent@QTable@@MAEXPAVQFocusEvent@@@Z 004219ac     qt-mt323:qt-mt323.dll
 0002:000019b0       __imp_?focusInEvent@QTable@@MAEXPAVQFocusEvent@@@Z 004219b0     qt-mt323:qt-mt323.dll
 0002:000019b4       __imp_?keyPressEvent@QDataTable@@MAEXPAVQKeyEvent@@@Z 004219b4     qt-mt323:qt-mt323.dll
 0002:000019b8       __imp_?sizeHint@QTable@@UBE?AVQSize@@XZ 004219b8     qt-mt323:qt-mt323.dll
 0002:000019bc       __imp_?setEnabled@QTable@@UAEX_N@Z 004219bc     qt-mt323:qt-mt323.dll
 0002:000019c0       __imp_?eventFilter@QDataTable@@MAE_NPAVQObject@@PAVQEvent@@@Z 004219c0     qt-mt323:qt-mt323.dll
 0002:000019c4       __imp_?qt_property@QDataTable@@UAE_NHHPAVQVariant@@@Z 004219c4     qt-mt323:qt-mt323.dll
 0002:000019c8       __imp_?qt_emit@QDataTable@@UAE_NHPAUQUObject@@@Z 004219c8     qt-mt323:qt-mt323.dll
 0002:000019cc       __imp_?qt_invoke@QDataTable@@UAE_NHPAUQUObject@@@Z 004219cc     qt-mt323:qt-mt323.dll
 0002:000019d0       __imp_?qt_cast@QDataTable@@UAEPAXPBD@Z 004219d0     qt-mt323:qt-mt323.dll
 0002:000019d4       __imp_?className@QDataTable@@UBEPBDXZ 004219d4     qt-mt323:qt-mt323.dll
 0002:000019d8       __imp_?metaObject@QDataTable@@UBEPAVQMetaObject@@XZ 004219d8     qt-mt323:qt-mt323.dll
 0002:000019dc       __imp_?frameChanged@QHBox@@MAEXXZ 004219dc     qt-mt323:qt-mt323.dll
 0002:000019e0       __imp_?sizeHint@QHBox@@UBE?AVQSize@@XZ 004219e0     qt-mt323:qt-mt323.dll
 0002:000019e4       __imp_?qt_property@QHBox@@UAE_NHHPAVQVariant@@@Z 004219e4     qt-mt323:qt-mt323.dll
 0002:000019e8       __imp_?qt_emit@QHBox@@UAE_NHPAUQUObject@@@Z 004219e8     qt-mt323:qt-mt323.dll
 0002:000019ec       __imp_?qt_invoke@QHBox@@UAE_NHPAUQUObject@@@Z 004219ec     qt-mt323:qt-mt323.dll
 0002:000019f0       __imp_?qt_cast@QHBox@@UAEPAXPBD@Z 004219f0     qt-mt323:qt-mt323.dll
 0002:000019f4       __imp_?className@QHBox@@UBEPBDXZ 004219f4     qt-mt323:qt-mt323.dll
 0002:000019f8       __imp_?metaObject@QHBox@@UBEPAVQMetaObject@@XZ 004219f8     qt-mt323:qt-mt323.dll
 0002:000019fc       __imp_?event@QGroupBox@@MAE_NPAVQEvent@@@Z 004219fc     qt-mt323:qt-mt323.dll
 0002:00001a00       __imp_?qt_property@QGroupBox@@UAE_NHHPAVQVariant@@@Z 00421a00     qt-mt323:qt-mt323.dll
 0002:00001a04       __imp_?qt_emit@QGroupBox@@UAE_NHPAUQUObject@@@Z 00421a04     qt-mt323:qt-mt323.dll
 0002:00001a08       __imp_?qt_invoke@QGroupBox@@UAE_NHPAUQUObject@@@Z 00421a08     qt-mt323:qt-mt323.dll
 0002:00001a0c       __imp_?qt_cast@QGroupBox@@UAEPAXPBD@Z 00421a0c     qt-mt323:qt-mt323.dll
 0002:00001a10       __imp_?className@QGroupBox@@UBEPBDXZ 00421a10     qt-mt323:qt-mt323.dll
 0002:00001a14       __imp_?metaObject@QGroupBox@@UBEPAVQMetaObject@@XZ 00421a14     qt-mt323:qt-mt323.dll
 0002:00001a18       __imp_?rangeChange@QDial@@MAEXXZ 00421a18     qt-mt323:qt-mt323.dll
 0002:00001a1c       __imp_?valueChange@QDial@@MAEXXZ 00421a1c     qt-mt323:qt-mt323.dll
 0002:00001a20       __imp_?repaintScreen@QDial@@MAEXPBVQRect@@@Z 00421a20     qt-mt323:qt-mt323.dll
 0002:00001a24       __imp_?setTracking@QDial@@UAEX_N@Z 00421a24     qt-mt323:qt-mt323.dll
 0002:00001a28       __imp_?setWrapping@QDial@@UAEX_N@Z 00421a28     qt-mt323:qt-mt323.dll
 0002:00001a2c       __imp_?setNotchesVisible@QDial@@UAEX_N@Z 00421a2c     qt-mt323:qt-mt323.dll
 0002:00001a30       __imp_?setValue@QDial@@UAEXH@Z 00421a30     qt-mt323:qt-mt323.dll
 0002:00001a34       __imp_?setNotchTarget@QDial@@UAEXN@Z 00421a34     qt-mt323:qt-mt323.dll
 0002:00001a38       __imp_?resizeEvent@QDial@@MAEXPAVQResizeEvent@@@Z 00421a38     qt-mt323:qt-mt323.dll
 0002:00001a3c       __imp_?paintEvent@QDial@@MAEXPAVQPaintEvent@@@Z 00421a3c     qt-mt323:qt-mt323.dll
 0002:00001a40       __imp_?focusOutEvent@QDial@@MAEXPAVQFocusEvent@@@Z 00421a40     qt-mt323:qt-mt323.dll
 0002:00001a44       __imp_?focusInEvent@QDial@@MAEXPAVQFocusEvent@@@Z 00421a44     qt-mt323:qt-mt323.dll
 0002:00001a48       __imp_?keyPressEvent@QDial@@MAEXPAVQKeyEvent@@@Z 00421a48     qt-mt323:qt-mt323.dll
 0002:00001a4c       __imp_?wheelEvent@QDial@@MAEXPAVQWheelEvent@@@Z 00421a4c     qt-mt323:qt-mt323.dll
 0002:00001a50       __imp_?mouseMoveEvent@QDial@@MAEXPAVQMouseEvent@@@Z 00421a50     qt-mt323:qt-mt323.dll
 0002:00001a54       __imp_?mouseReleaseEvent@QDial@@MAEXPAVQMouseEvent@@@Z 00421a54     qt-mt323:qt-mt323.dll
 0002:00001a58       __imp_?mousePressEvent@QDial@@MAEXPAVQMouseEvent@@@Z 00421a58     qt-mt323:qt-mt323.dll
 0002:00001a5c       __imp_?minimumSizeHint@QDial@@UBE?AVQSize@@XZ 00421a5c     qt-mt323:qt-mt323.dll
 0002:00001a60       __imp_?sizeHint@QDial@@UBE?AVQSize@@XZ 00421a60     qt-mt323:qt-mt323.dll
 0002:00001a64       __imp_?qt_property@QDial@@UAE_NHHPAVQVariant@@@Z 00421a64     qt-mt323:qt-mt323.dll
 0002:00001a68       __imp_?qt_emit@QDial@@UAE_NHPAUQUObject@@@Z 00421a68     qt-mt323:qt-mt323.dll
 0002:00001a6c       __imp_?qt_invoke@QDial@@UAE_NHPAUQUObject@@@Z 00421a6c     qt-mt323:qt-mt323.dll
 0002:00001a70       __imp_?qt_cast@QDial@@UAEPAXPBD@Z 00421a70     qt-mt323:qt-mt323.dll
 0002:00001a74       __imp_?className@QDial@@UBEPBDXZ 00421a74     qt-mt323:qt-mt323.dll
 0002:00001a78       __imp_?metaObject@QDial@@UBEPAVQMetaObject@@XZ 00421a78     qt-mt323:qt-mt323.dll
 0002:00001a7c       __imp_?itemRemoved@QToolBox@@MAEXH@Z 00421a7c     qt-mt323:qt-mt323.dll
 0002:00001a80       __imp_?itemInserted@QToolBox@@MAEXH@Z 00421a80     qt-mt323:qt-mt323.dll
 0002:00001a84       __imp_?frameChanged@QToolBox@@MAEXXZ 00421a84     qt-mt323:qt-mt323.dll
 0002:00001a88       __imp_?styleChange@QToolBox@@MAEXAAVQStyle@@@Z 00421a88     qt-mt323:qt-mt323.dll
 0002:00001a8c       __imp_?showEvent@QToolBox@@MAEXPAVQShowEvent@@@Z 00421a8c     qt-mt323:qt-mt323.dll
 0002:00001a90       __imp_?sizeHint@QFrame@@UBE?AVQSize@@XZ 00421a90     qt-mt323:qt-mt323.dll
 0002:00001a94       __imp_?qt_property@QToolBox@@UAE_NHHPAVQVariant@@@Z 00421a94     qt-mt323:qt-mt323.dll
 0002:00001a98       __imp_?qt_emit@QToolBox@@UAE_NHPAUQUObject@@@Z 00421a98     qt-mt323:qt-mt323.dll
 0002:00001a9c       __imp_?qt_invoke@QToolBox@@UAE_NHPAUQUObject@@@Z 00421a9c     qt-mt323:qt-mt323.dll
 0002:00001aa0       __imp_?qt_cast@QToolBox@@UAEPAXPBD@Z 00421aa0     qt-mt323:qt-mt323.dll
 0002:00001aa4       __imp_?className@QToolBox@@UBEPBDXZ 00421aa4     qt-mt323:qt-mt323.dll
 0002:00001aa8       __imp_?metaObject@QToolBox@@UBEPAVQMetaObject@@XZ 00421aa8     qt-mt323:qt-mt323.dll
 0002:00001aac       __imp_?stepChange@QRangeControl@@MAEXXZ 00421aac     qt-mt323:qt-mt323.dll
 0002:00001ab0       __imp_?rangeChange@QSpinBox@@MAEXXZ 00421ab0     qt-mt323:qt-mt323.dll
 0002:00001ab4       __imp_?valueChange@QSpinBox@@MAEXXZ 00421ab4     qt-mt323:qt-mt323.dll
 0002:00001ab8       __imp_?interpretText@QSpinBox@@MAEXXZ 00421ab8     qt-mt323:qt-mt323.dll
 0002:00001abc       __imp_?updateDisplay@QSpinBox@@MAEXXZ 00421abc     qt-mt323:qt-mt323.dll
 0002:00001ac0       __imp_?mapTextToValue@QSpinBox@@MAEHPA_N@Z 00421ac0     qt-mt323:qt-mt323.dll
 0002:00001ac4       __imp_?mapValueToText@QSpinBox@@MAE?AVQString@@H@Z 00421ac4     qt-mt323:qt-mt323.dll
 0002:00001ac8       __imp_?selectAll@QSpinBox@@UAEXXZ 00421ac8     qt-mt323:qt-mt323.dll
 0002:00001acc       __imp_?stepDown@QSpinBox@@UAEXXZ 00421acc     qt-mt323:qt-mt323.dll
 0002:00001ad0       __imp_?stepUp@QSpinBox@@UAEXXZ 00421ad0     qt-mt323:qt-mt323.dll
 0002:00001ad4       __imp_?setSuffix@QSpinBox@@UAEXABVQString@@@Z 00421ad4     qt-mt323:qt-mt323.dll
 0002:00001ad8       __imp_?setPrefix@QSpinBox@@UAEXABVQString@@@Z 00421ad8     qt-mt323:qt-mt323.dll
 0002:00001adc       __imp_?setValue@QSpinBox@@UAEXH@Z 00421adc     qt-mt323:qt-mt323.dll
 0002:00001ae0       __imp_?setValidator@QSpinBox@@UAEXPBVQValidator@@@Z 00421ae0     qt-mt323:qt-mt323.dll
 0002:00001ae4       __imp_?setButtonSymbols@QSpinBox@@UAEXW4ButtonSymbols@1@@Z 00421ae4     qt-mt323:qt-mt323.dll
 0002:00001ae8       __imp_?setWrapping@QSpinBox@@UAEX_N@Z 00421ae8     qt-mt323:qt-mt323.dll
 0002:00001aec       __imp_?setSpecialValueText@QSpinBox@@UAEXABVQString@@@Z 00421aec     qt-mt323:qt-mt323.dll
 0002:00001af0       __imp_?cleanText@QSpinBox@@UBE?AVQString@@XZ 00421af0     qt-mt323:qt-mt323.dll
 0002:00001af4       __imp_?suffix@QSpinBox@@UBE?AVQString@@XZ 00421af4     qt-mt323:qt-mt323.dll
 0002:00001af8       __imp_?prefix@QSpinBox@@UBE?AVQString@@XZ 00421af8     qt-mt323:qt-mt323.dll
 0002:00001afc       __imp_?styleChange@QSpinBox@@MAEXAAVQStyle@@@Z 00421afc     qt-mt323:qt-mt323.dll
 0002:00001b00       __imp_?resizeEvent@QSpinBox@@MAEXPAVQResizeEvent@@@Z 00421b00     qt-mt323:qt-mt323.dll
 0002:00001b04       __imp_?leaveEvent@QSpinBox@@MAEXPAVQEvent@@@Z 00421b04     qt-mt323:qt-mt323.dll
 0002:00001b08       __imp_?wheelEvent@QSpinBox@@MAEXPAVQWheelEvent@@@Z 00421b08     qt-mt323:qt-mt323.dll
 0002:00001b0c       __imp_?minimumSizeHint@QSpinBox@@UBE?AVQSize@@XZ 00421b0c     qt-mt323:qt-mt323.dll
 0002:00001b10       __imp_?sizeHint@QSpinBox@@UBE?AVQSize@@XZ 00421b10     qt-mt323:qt-mt323.dll
 0002:00001b14       __imp_?setEnabled@QSpinBox@@UAEX_N@Z 00421b14     qt-mt323:qt-mt323.dll
 0002:00001b18       __imp_?eventFilter@QSpinBox@@MAE_NPAVQObject@@PAVQEvent@@@Z 00421b18     qt-mt323:qt-mt323.dll
 0002:00001b1c       __imp_?qt_property@QSpinBox@@UAE_NHHPAVQVariant@@@Z 00421b1c     qt-mt323:qt-mt323.dll
 0002:00001b20       __imp_?qt_emit@QSpinBox@@UAE_NHPAUQUObject@@@Z 00421b20     qt-mt323:qt-mt323.dll
 0002:00001b24       __imp_?qt_invoke@QSpinBox@@UAE_NHPAUQUObject@@@Z 00421b24     qt-mt323:qt-mt323.dll
 0002:00001b28       __imp_?qt_cast@QSpinBox@@UAEPAXPBD@Z 00421b28     qt-mt323:qt-mt323.dll
 0002:00001b2c       __imp_?className@QSpinBox@@UBEPBDXZ 00421b2c     qt-mt323:qt-mt323.dll
 0002:00001b30       __imp_?metaObject@QSpinBox@@UBEPAVQMetaObject@@XZ 00421b30     qt-mt323:qt-mt323.dll
 0002:00001b34       __imp_?emitLinkClicked@QTextEdit@@EAEXABVQString@@@Z 00421b34     qt-mt323:qt-mt323.dll
 0002:00001b38       __imp_?emitHighlighted@QTextEdit@@EAEXABVQString@@@Z 00421b38     qt-mt323:qt-mt323.dll
 0002:00001b3c       __imp_?linksEnabled@QTextEdit@@EBE_NXZ 00421b3c     qt-mt323:qt-mt323.dll
 0002:00001b40       __imp_?doChangeInterval@QTextEdit@@MAEXXZ 00421b40     qt-mt323:qt-mt323.dll
 0002:00001b44       __imp_?createPopupMenu@QTextEdit@@MAEPAVQPopupMenu@@ABVQPoint@@@Z 00421b44     qt-mt323:qt-mt323.dll
 0002:00001b48       __imp_?createPopupMenu@QTextEdit@@MAEPAVQPopupMenu@@XZ 00421b48     qt-mt323:qt-mt323.dll
 0002:00001b4c       __imp_?setUndoRedoEnabled@QTextEdit@@UAEX_N@Z 00421b4c     qt-mt323:qt-mt323.dll
 0002:00001b50       __imp_?clearParagraphBackground@QTextEdit@@UAEXH@Z 00421b50     qt-mt323:qt-mt323.dll
 0002:00001b54       __imp_?setParagraphBackgroundColor@QTextEdit@@UAEXHABVQColor@@@Z 00421b54     qt-mt323:qt-mt323.dll
 0002:00001b58       __imp_?insertParagraph@QTextEdit@@UAEXABVQString@@H@Z 00421b58     qt-mt323:qt-mt323.dll
 0002:00001b5c       __imp_?removeParagraph@QTextEdit@@UAEXH@Z 00421b5c     qt-mt323:qt-mt323.dll
 0002:00001b60       __imp_?insertAt@QTextEdit@@UAEXABVQString@@HH@Z 00421b60     qt-mt323:qt-mt323.dll
 0002:00001b64       __imp_?insert@QTextEdit@@UAEXABVQString@@_N11@Z 00421b64     qt-mt323:qt-mt323.dll
 0002:00001b68       __imp_?scrollToBottom@QTextEdit@@UAEXXZ 00421b68     qt-mt323:qt-mt323.dll
 0002:00001b6c       __imp_?setOverwriteMode@QTextEdit@@UAEX_N@Z 00421b6c     qt-mt323:qt-mt323.dll
 0002:00001b70       __imp_?setCurrentFont@QTextEdit@@UAEXABVQFont@@@Z 00421b70     qt-mt323:qt-mt323.dll
 0002:00001b74       __imp_?removeSelection@QTextEdit@@UAEXH@Z 00421b74     qt-mt323:qt-mt323.dll
 0002:00001b78       __imp_?removeSelectedText@QTextEdit@@UAEXH@Z 00421b78     qt-mt323:qt-mt323.dll
 0002:00001b7c       __imp_?doKeyboardAction@QTextEdit@@UAEXW4KeyboardAction@1@@Z 00421b7c     qt-mt323:qt-mt323.dll
 0002:00001b80       __imp_?moveCursor@QTextEdit@@UAEXW4CursorAction@1@_N@Z 00421b80     qt-mt323:qt-mt323.dll
 0002:00001b84       __imp_?placeCursor@QTextEdit@@UAEXABVQPoint@@PAVQTextCursor@@@Z 00421b84     qt-mt323:qt-mt323.dll
 0002:00001b88       __imp_?ensureCursorVisible@QTextEdit@@UAEXXZ 00421b88     qt-mt323:qt-mt323.dll
 0002:00001b8c       __imp_?setFormat@QTextEdit@@UAEXPAVQTextFormat@@H@Z 00421b8c     qt-mt323:qt-mt323.dll
 0002:00001b90       __imp_?setUndoDepth@QTextEdit@@UAEXH@Z 00421b90     qt-mt323:qt-mt323.dll
 0002:00001b94       __imp_?resetFormat@QTextEdit@@UAEXXZ 00421b94     qt-mt323:qt-mt323.dll
 0002:00001b98       __imp_?setModified@QTextEdit@@UAEX_N@Z 00421b98     qt-mt323:qt-mt323.dll
 0002:00001b9c       __imp_?setSelectionAttributes@QTextEdit@@UAEXHABVQColor@@_N@Z 00421b9c     qt-mt323:qt-mt323.dll
 0002:00001ba0       __imp_?setSelection@QTextEdit@@UAEXHHHHH@Z 00421ba0     qt-mt323:qt-mt323.dll
 0002:00001ba4       __imp_?setCursorPosition@QTextEdit@@UAEXHH@Z 00421ba4     qt-mt323:qt-mt323.dll
 0002:00001ba8       __imp_?setParagType@QTextEdit@@UAEXW4DisplayMode@QStyleSheetItem@@W4ListStyle@3@@Z 00421ba8     qt-mt323:qt-mt323.dll
 0002:00001bac       __imp_?setAlignment@QTextEdit@@UAEXH@Z 00421bac     qt-mt323:qt-mt323.dll
 0002:00001bb0       __imp_?setVerticalAlignment@QTextEdit@@UAEXW4VerticalAlignment@1@@Z 00421bb0     qt-mt323:qt-mt323.dll
 0002:00001bb4       __imp_?setColor@QTextEdit@@UAEXABVQColor@@@Z 00421bb4     qt-mt323:qt-mt323.dll
 0002:00001bb8       __imp_?setPointSize@QTextEdit@@UAEXH@Z 00421bb8     qt-mt323:qt-mt323.dll
 0002:00001bbc       __imp_?setFamily@QTextEdit@@UAEXABVQString@@@Z 00421bbc     qt-mt323:qt-mt323.dll
 0002:00001bc0       __imp_?setUnderline@QTextEdit@@UAEX_N@Z 00421bc0     qt-mt323:qt-mt323.dll
 0002:00001bc4       __imp_?setBold@QTextEdit@@UAEX_N@Z 00421bc4     qt-mt323:qt-mt323.dll
 0002:00001bc8       __imp_?setItalic@QTextEdit@@UAEX_N@Z 00421bc8     qt-mt323:qt-mt323.dll
 0002:00001bcc       __imp_?indent@QTextEdit@@UAEXXZ 00421bcc     qt-mt323:qt-mt323.dll
 0002:00001bd0       __imp_?del@QTextEdit@@UAEXXZ 00421bd0     qt-mt323:qt-mt323.dll
 0002:00001bd4       __imp_?clear@QTextEdit@@UAEXXZ 00421bd4     qt-mt323:qt-mt323.dll
 0002:00001bd8       __imp_?pasteSubType@QTextEdit@@UAEXABVQCString@@@Z 00421bd8     qt-mt323:qt-mt323.dll
 0002:00001bdc       __imp_?paste@QTextEdit@@UAEXXZ 00421bdc     qt-mt323:qt-mt323.dll
 0002:00001be0       __imp_?cut@QTextEdit@@UAEXXZ 00421be0     qt-mt323:qt-mt323.dll
 0002:00001be4       __imp_?redo@QTextEdit@@UAEXXZ 00421be4     qt-mt323:qt-mt323.dll
 0002:00001be8       __imp_?undo@QTextEdit@@UAEXXZ 00421be8     qt-mt323:qt-mt323.dll
 0002:00001bec       __imp_?setReadOnly@QTextEdit@@UAEX_N@Z 00421bec     qt-mt323:qt-mt323.dll
 0002:00001bf0       __imp_?sync@QTextEdit@@UAEXXZ 00421bf0     qt-mt323:qt-mt323.dll
 0002:00001bf4       __imp_?zoomTo@QTextEdit@@UAEXH@Z 00421bf4     qt-mt323:qt-mt323.dll
 0002:00001bf8       __imp_?zoomOut@QTextEdit@@UAEXH@Z 00421bf8     qt-mt323:qt-mt323.dll
 0002:00001bfc       __imp_?zoomOut@QTextEdit@@UAEXXZ 00421bfc     qt-mt323:qt-mt323.dll
 0002:00001c00       __imp_?zoomIn@QTextEdit@@UAEXH@Z 00421c00     qt-mt323:qt-mt323.dll
 0002:00001c04       __imp_?zoomIn@QTextEdit@@UAEXXZ 00421c04     qt-mt323:qt-mt323.dll
 0002:00001c08       __imp_?setTabStopWidth@QTextEdit@@UAEXH@Z 00421c08     qt-mt323:qt-mt323.dll
 0002:00001c0c       __imp_?selectAll@QTextEdit@@UAEX_N@Z 00421c0c     qt-mt323:qt-mt323.dll
 0002:00001c10       __imp_?setTextFormat@QTextEdit@@UAEXW4TextFormat@Qt@@@Z 00421c10     qt-mt323:qt-mt323.dll
 0002:00001c14       __imp_?setText@QTextEdit@@UAEXABVQString@@0@Z 00421c14     qt-mt323:qt-mt323.dll
 0002:00001c18       __imp_?append@QTextEdit@@UAEXABVQString@@@Z 00421c18     qt-mt323:qt-mt323.dll
 0002:00001c1c       __imp_?copy@QTextEdit@@UAEXXZ 00421c1c     qt-mt323:qt-mt323.dll
 0002:00001c20       __imp_?setWrapPolicy@QTextEdit@@UAEXW4WrapPolicy@1@@Z 00421c20     qt-mt323:qt-mt323.dll
 0002:00001c24       __imp_?setWrapColumnOrWidth@QTextEdit@@UAEXH@Z 00421c24     qt-mt323:qt-mt323.dll
 0002:00001c28       __imp_?setWordWrap@QTextEdit@@UAEXW4WordWrap@1@@Z 00421c28     qt-mt323:qt-mt323.dll
 0002:00001c2c       __imp_?setLinkUnderline@QTextEdit@@UAEX_N@Z 00421c2c     qt-mt323:qt-mt323.dll
 0002:00001c30       __imp_?setPaper@QTextEdit@@UAEXABVQBrush@@@Z 00421c30     qt-mt323:qt-mt323.dll
 0002:00001c34       __imp_?scrollToAnchor@QTextEdit@@UAEXABVQString@@@Z 00421c34     qt-mt323:qt-mt323.dll
 0002:00001c38       __imp_?setStyleSheet@QTextEdit@@UAEXPAVQStyleSheet@@@Z 00421c38     qt-mt323:qt-mt323.dll
 0002:00001c3c       __imp_?setMimeSourceFactory@QTextEdit@@UAEXPAVQMimeSourceFactory@@@Z 00421c3c     qt-mt323:qt-mt323.dll
 0002:00001c40       __imp_?getParagraphFormat@QTextEdit@@UAE_NHPAVQFont@@PAVQColor@@PAW4VerticalAlignment@1@PAHPAW4DisplayMode@QStyleSheetItem@@PAW4ListStyle@6@3@Z 00421c40     qt-mt323:qt-mt323.dll
 0002:00001c44       __imp_?getFormat@QTextEdit@@UAE_NHHPAVQFont@@PAVQColor@@PAW4VerticalAlignment@1@@Z 00421c44     qt-mt323:qt-mt323.dll
 0002:00001c48       __imp_?find@QTextEdit@@UAE_NABVQString@@_N11PAH2@Z 00421c48     qt-mt323:qt-mt323.dll
 0002:00001c4c       __imp_?viewportResizeEvent@QTextEdit@@MAEXPAVQResizeEvent@@@Z 00421c4c     qt-mt323:qt-mt323.dll
 0002:00001c50       __imp_?viewportPaintEvent@QScrollView@@MAEXPAVQPaintEvent@@@Z 00421c50     qt-mt323:qt-mt323.dll
 0002:00001c54       __imp_?contentsContextMenuEvent@QTextEdit@@MAEXPAVQContextMenuEvent@@@Z 00421c54     qt-mt323:qt-mt323.dll
 0002:00001c58       __imp_?contentsWheelEvent@QTextEdit@@MAEXPAVQWheelEvent@@@Z 00421c58     qt-mt323:qt-mt323.dll
 0002:00001c5c       __imp_?contentsDropEvent@QTextEdit@@MAEXPAVQDropEvent@@@Z 00421c5c     qt-mt323:qt-mt323.dll
 0002:00001c60       __imp_?contentsDragLeaveEvent@QTextEdit@@MAEXPAVQDragLeaveEvent@@@Z 00421c60     qt-mt323:qt-mt323.dll
 0002:00001c64       __imp_?contentsDragMoveEvent@QTextEdit@@MAEXPAVQDragMoveEvent@@@Z 00421c64     qt-mt323:qt-mt323.dll
 0002:00001c68       __imp_?contentsDragEnterEvent@QTextEdit@@MAEXPAVQDragEnterEvent@@@Z 00421c68     qt-mt323:qt-mt323.dll
 0002:00001c6c       __imp_?contentsMouseMoveEvent@QTextEdit@@MAEXPAVQMouseEvent@@@Z 00421c6c     qt-mt323:qt-mt323.dll
 0002:00001c70       __imp_?contentsMouseDoubleClickEvent@QTextEdit@@MAEXPAVQMouseEvent@@@Z 00421c70     qt-mt323:qt-mt323.dll
 0002:00001c74       __imp_?contentsMouseReleaseEvent@QTextEdit@@MAEXPAVQMouseEvent@@@Z 00421c74     qt-mt323:qt-mt323.dll
 0002:00001c78       __imp_?contentsMousePressEvent@QTextEdit@@MAEXPAVQMouseEvent@@@Z 00421c78     qt-mt323:qt-mt323.dll
 0002:00001c7c       __imp_?drawContents@QTextEdit@@MAEXPAVQPainter@@HHHH@Z 00421c7c     qt-mt323:qt-mt323.dll
 0002:00001c80       __imp_?drawContents@QTextEdit@@EAEXPAVQPainter@@@Z 00421c80     qt-mt323:qt-mt323.dll
 0002:00001c84       __imp_?focusNextPrevChild@QTextEdit@@MAE_N_N@Z 00421c84     qt-mt323:qt-mt323.dll
 0002:00001c88       __imp_?windowActivationChange@QTextEdit@@MAEX_N@Z 00421c88     qt-mt323:qt-mt323.dll
 0002:00001c8c       __imp_?imEndEvent@QTextEdit@@MAEXPAVQIMEvent@@@Z 00421c8c     qt-mt323:qt-mt323.dll
 0002:00001c90       __imp_?imComposeEvent@QTextEdit@@MAEXPAVQIMEvent@@@Z 00421c90     qt-mt323:qt-mt323.dll
 0002:00001c94       __imp_?imStartEvent@QTextEdit@@MAEXPAVQIMEvent@@@Z 00421c94     qt-mt323:qt-mt323.dll
 0002:00001c98       __imp_?resizeEvent@QTextEdit@@MAEXPAVQResizeEvent@@@Z 00421c98     qt-mt323:qt-mt323.dll
 0002:00001c9c       __imp_?keyPressEvent@QTextEdit@@MAEXPAVQKeyEvent@@@Z 00421c9c     qt-mt323:qt-mt323.dll
 0002:00001ca0       __imp_?mouseMoveEvent@QScrollView@@MAEXPAVQMouseEvent@@@Z 00421ca0     qt-mt323:qt-mt323.dll
 0002:00001ca4       __imp_?mouseDoubleClickEvent@QScrollView@@MAEXPAVQMouseEvent@@@Z 00421ca4     qt-mt323:qt-mt323.dll
 0002:00001ca8       __imp_?mouseReleaseEvent@QScrollView@@MAEXPAVQMouseEvent@@@Z 00421ca8     qt-mt323:qt-mt323.dll
 0002:00001cac       __imp_?mousePressEvent@QScrollView@@MAEXPAVQMouseEvent@@@Z 00421cac     qt-mt323:qt-mt323.dll
 0002:00001cb0       __imp_?heightForWidth@QTextEdit@@UBEHH@Z 00421cb0     qt-mt323:qt-mt323.dll
 0002:00001cb4       __imp_?minimumSizeHint@QScrollView@@UBE?AVQSize@@XZ 00421cb4     qt-mt323:qt-mt323.dll
 0002:00001cb8       __imp_?sizeHint@QTextEdit@@UBE?AVQSize@@XZ 00421cb8     qt-mt323:qt-mt323.dll
 0002:00001cbc       __imp_?polish@QTextEdit@@UAEXXZ 00421cbc     qt-mt323:qt-mt323.dll
 0002:00001cc0       __imp_?setFont@QTextEdit@@UAEXABVQFont@@@Z 00421cc0     qt-mt323:qt-mt323.dll
 0002:00001cc4       __imp_?setPalette@QTextEdit@@UAEXABVQPalette@@@Z 00421cc4     qt-mt323:qt-mt323.dll
 0002:00001cc8       __imp_?setEnabled@QTextEdit@@UAEX_N@Z 00421cc8     qt-mt323:qt-mt323.dll
 0002:00001ccc       __imp_?eventFilter@QTextEdit@@UAE_NPAVQObject@@PAVQEvent@@@Z 00421ccc     qt-mt323:qt-mt323.dll
 0002:00001cd0       __imp_?event@QTextEdit@@MAE_NPAVQEvent@@@Z 00421cd0     qt-mt323:qt-mt323.dll
 0002:00001cd4       __imp_?qt_property@QTextView@@UAE_NHHPAVQVariant@@@Z 00421cd4     qt-mt323:qt-mt323.dll
 0002:00001cd8       __imp_?qt_emit@QTextView@@UAE_NHPAUQUObject@@@Z 00421cd8     qt-mt323:qt-mt323.dll
 0002:00001cdc       __imp_?qt_invoke@QTextView@@UAE_NHPAUQUObject@@@Z 00421cdc     qt-mt323:qt-mt323.dll
 0002:00001ce0       __imp_?qt_cast@QTextView@@UAEPAXPBD@Z 00421ce0     qt-mt323:qt-mt323.dll
 0002:00001ce4       __imp_?className@QTextView@@UBEPBDXZ 00421ce4     qt-mt323:qt-mt323.dll
 0002:00001ce8       __imp_?metaObject@QTextView@@UBEPAVQMetaObject@@XZ 00421ce8     qt-mt323:qt-mt323.dll
 0002:00001cec       __imp_?setSecond@QTimeEdit@@MAEXH@Z 00421cec     qt-mt323:qt-mt323.dll
 0002:00001cf0       __imp_?setMinute@QTimeEdit@@MAEXH@Z 00421cf0     qt-mt323:qt-mt323.dll
 0002:00001cf4       __imp_?setHour@QTimeEdit@@MAEXH@Z 00421cf4     qt-mt323:qt-mt323.dll
 0002:00001cf8       __imp_?outOfRange@QTimeEdit@@MBE_NHHH@Z 00421cf8     qt-mt323:qt-mt323.dll
 0002:00001cfc       __imp_?setSeparator@QTimeEdit@@UAEXABVQString@@@Z 00421cfc     qt-mt323:qt-mt323.dll
 0002:00001d00       __imp_?setRange@QTimeEdit@@UAEXABVQTime@@0@Z 00421d00     qt-mt323:qt-mt323.dll
 0002:00001d04       __imp_?setMaxValue@QTimeEdit@@UAEXABVQTime@@@Z 00421d04     qt-mt323:qt-mt323.dll
 0002:00001d08       __imp_?setMinValue@QTimeEdit@@UAEXABVQTime@@@Z 00421d08     qt-mt323:qt-mt323.dll
 0002:00001d0c       __imp_?setAutoAdvance@QTimeEdit@@UAEX_N@Z 00421d0c     qt-mt323:qt-mt323.dll
 0002:00001d10       __imp_?setTime@QTimeEdit@@UAEXABVQTime@@@Z 00421d10     qt-mt323:qt-mt323.dll
 0002:00001d14       __imp_?stepDown@QTimeEdit@@MAEXXZ 00421d14     qt-mt323:qt-mt323.dll
 0002:00001d18       __imp_?stepUp@QTimeEdit@@MAEXXZ 00421d18     qt-mt323:qt-mt323.dll
 0002:00001d1c       __imp_?removeLastNumber@QTimeEdit@@MAEXH@Z 00421d1c     qt-mt323:qt-mt323.dll
 0002:00001d20       __imp_?addNumber@QTimeEdit@@MAEXHH@Z 00421d20     qt-mt323:qt-mt323.dll
 0002:00001d24       __imp_?sectionFormattedText@QTimeEdit@@MAE?AVQString@@H@Z 00421d24     qt-mt323:qt-mt323.dll
 0002:00001d28       __imp_?setFocusSection@QTimeEdit@@MAE_NH@Z 00421d28     qt-mt323:qt-mt323.dll
 0002:00001d2c       __imp_?resizeEvent@QTimeEdit@@MAEXPAVQResizeEvent@@@Z 00421d2c     qt-mt323:qt-mt323.dll
 0002:00001d30       __imp_?minimumSizeHint@QTimeEdit@@UBE?AVQSize@@XZ 00421d30     qt-mt323:qt-mt323.dll
 0002:00001d34       __imp_?sizeHint@QTimeEdit@@UBE?AVQSize@@XZ 00421d34     qt-mt323:qt-mt323.dll
 0002:00001d38       __imp_?timerEvent@QTimeEdit@@MAEXPAVQTimerEvent@@@Z 00421d38     qt-mt323:qt-mt323.dll
 0002:00001d3c       __imp_?event@QTimeEdit@@MAE_NPAVQEvent@@@Z 00421d3c     qt-mt323:qt-mt323.dll
 0002:00001d40       __imp_?qt_property@QTimeEdit@@UAE_NHHPAVQVariant@@@Z 00421d40     qt-mt323:qt-mt323.dll
 0002:00001d44       __imp_?qt_emit@QTimeEdit@@UAE_NHPAUQUObject@@@Z 00421d44     qt-mt323:qt-mt323.dll
 0002:00001d48       __imp_?qt_invoke@QTimeEdit@@UAE_NHPAUQUObject@@@Z 00421d48     qt-mt323:qt-mt323.dll
 0002:00001d4c       __imp_?qt_cast@QTimeEdit@@UAEPAXPBD@Z 00421d4c     qt-mt323:qt-mt323.dll
 0002:00001d50       __imp_?className@QTimeEdit@@UBEPBDXZ 00421d50     qt-mt323:qt-mt323.dll
 0002:00001d54       __imp_?metaObject@QTimeEdit@@UBEPAVQMetaObject@@XZ 00421d54     qt-mt323:qt-mt323.dll
 0002:00001d58       __imp_?setRubberband@QSplitter@@MAEXH@Z 00421d58     qt-mt323:qt-mt323.dll
 0002:00001d5c       __imp_?drawSplitter@QSplitter@@MAEXPAVQPainter@@HHHH@Z 00421d5c     qt-mt323:qt-mt323.dll
 0002:00001d60       __imp_?setOpaqueResize@QSplitter@@UAEX_N@Z 00421d60     qt-mt323:qt-mt323.dll
 0002:00001d64       __imp_?setResizeMode@QSplitter@@UAEXPAVQWidget@@W4ResizeMode@1@@Z 00421d64     qt-mt323:qt-mt323.dll
 0002:00001d68       __imp_?setOrientation@QSplitter@@UAEXW4Orientation@Qt@@@Z 00421d68     qt-mt323:qt-mt323.dll
 0002:00001d6c       __imp_?styleChange@QSplitter@@MAEXAAVQStyle@@@Z 00421d6c     qt-mt323:qt-mt323.dll
 0002:00001d70       __imp_?resizeEvent@QSplitter@@MAEXPAVQResizeEvent@@@Z 00421d70     qt-mt323:qt-mt323.dll
 0002:00001d74       __imp_?minimumSizeHint@QSplitter@@UBE?AVQSize@@XZ 00421d74     qt-mt323:qt-mt323.dll
 0002:00001d78       __imp_?sizeHint@QSplitter@@UBE?AVQSize@@XZ 00421d78     qt-mt323:qt-mt323.dll
 0002:00001d7c       __imp_?childEvent@QSplitter@@MAEXPAVQChildEvent@@@Z 00421d7c     qt-mt323:qt-mt323.dll
 0002:00001d80       __imp_?event@QSplitter@@MAE_NPAVQEvent@@@Z 00421d80     qt-mt323:qt-mt323.dll
 0002:00001d84       __imp_?qt_property@QSplitter@@UAE_NHHPAVQVariant@@@Z 00421d84     qt-mt323:qt-mt323.dll
 0002:00001d88       __imp_?qt_emit@QSplitter@@UAE_NHPAUQUObject@@@Z 00421d88     qt-mt323:qt-mt323.dll
 0002:00001d8c       __imp_?qt_invoke@QSplitter@@UAE_NHPAUQUObject@@@Z 00421d8c     qt-mt323:qt-mt323.dll
 0002:00001d90       __imp_?qt_cast@QSplitter@@UAEPAXPBD@Z 00421d90     qt-mt323:qt-mt323.dll
 0002:00001d94       __imp_?className@QSplitter@@UBEPBDXZ 00421d94     qt-mt323:qt-mt323.dll
 0002:00001d98       __imp_?metaObject@QSplitter@@UBEPAVQMetaObject@@XZ 00421d98     qt-mt323:qt-mt323.dll
 0002:00001d9c       __imp_?setSmallDecimalPoint@QLCDNumber@@UAEX_N@Z 00421d9c     qt-mt323:qt-mt323.dll
 0002:00001da0       __imp_?setBinMode@QLCDNumber@@UAEXXZ 00421da0     qt-mt323:qt-mt323.dll
 0002:00001da4       __imp_?setOctMode@QLCDNumber@@UAEXXZ 00421da4     qt-mt323:qt-mt323.dll
 0002:00001da8       __imp_?setDecMode@QLCDNumber@@UAEXXZ 00421da8     qt-mt323:qt-mt323.dll
 0002:00001dac       __imp_?setHexMode@QLCDNumber@@UAEXXZ 00421dac     qt-mt323:qt-mt323.dll
 0002:00001db0       __imp_?setSegmentStyle@QLCDNumber@@UAEXW4SegmentStyle@1@@Z 00421db0     qt-mt323:qt-mt323.dll
 0002:00001db4       __imp_?setMode@QLCDNumber@@UAEXW4Mode@1@@Z 00421db4     qt-mt323:qt-mt323.dll
 0002:00001db8       __imp_?setNumDigits@QLCDNumber@@UAEXH@Z 00421db8     qt-mt323:qt-mt323.dll
 0002:00001dbc       __imp_?drawContents@QLCDNumber@@MAEXPAVQPainter@@@Z 00421dbc     qt-mt323:qt-mt323.dll
 0002:00001dc0       __imp_?sizeHint@QLCDNumber@@UBE?AVQSize@@XZ 00421dc0     qt-mt323:qt-mt323.dll
 0002:00001dc4       __imp_?qt_property@QLCDNumber@@UAE_NHHPAVQVariant@@@Z 00421dc4     qt-mt323:qt-mt323.dll
 0002:00001dc8       __imp_?qt_emit@QLCDNumber@@UAE_NHPAUQUObject@@@Z 00421dc8     qt-mt323:qt-mt323.dll
 0002:00001dcc       __imp_?qt_invoke@QLCDNumber@@UAE_NHPAUQUObject@@@Z 00421dcc     qt-mt323:qt-mt323.dll
 0002:00001dd0       __imp_?qt_cast@QLCDNumber@@UAEPAXPBD@Z 00421dd0     qt-mt323:qt-mt323.dll
 0002:00001dd4       __imp_?className@QLCDNumber@@UBEPBDXZ 00421dd4     qt-mt323:qt-mt323.dll
 0002:00001dd8       __imp_?metaObject@QLCDNumber@@UBEPAVQMetaObject@@XZ 00421dd8     qt-mt323:qt-mt323.dll
 0002:00001ddc       __imp_?setChecked@QRadioButton@@UAEX_N@Z 00421ddc     qt-mt323:qt-mt323.dll
 0002:00001de0       __imp_?drawButtonLabel@QRadioButton@@MAEXPAVQPainter@@@Z 00421de0     qt-mt323:qt-mt323.dll
 0002:00001de4       __imp_?drawButton@QRadioButton@@MAEXPAVQPainter@@@Z 00421de4     qt-mt323:qt-mt323.dll
 0002:00001de8       __imp_?hitButton@QRadioButton@@MBE_NABVQPoint@@@Z 00421de8     qt-mt323:qt-mt323.dll
 0002:00001dec       __imp_?updateMask@QRadioButton@@MAEXXZ 00421dec     qt-mt323:qt-mt323.dll
 0002:00001df0       __imp_?resizeEvent@QRadioButton@@MAEXPAVQResizeEvent@@@Z 00421df0     qt-mt323:qt-mt323.dll
 0002:00001df4       __imp_?focusOutEvent@QButton@@MAEXPAVQFocusEvent@@@Z 00421df4     qt-mt323:qt-mt323.dll
 0002:00001df8       __imp_?focusInEvent@QButton@@MAEXPAVQFocusEvent@@@Z 00421df8     qt-mt323:qt-mt323.dll
 0002:00001dfc       __imp_?sizeHint@QRadioButton@@UBE?AVQSize@@XZ 00421dfc     qt-mt323:qt-mt323.dll
 0002:00001e00       __imp_?qt_property@QRadioButton@@UAE_NHHPAVQVariant@@@Z 00421e00     qt-mt323:qt-mt323.dll
 0002:00001e04       __imp_?qt_emit@QRadioButton@@UAE_NHPAUQUObject@@@Z 00421e04     qt-mt323:qt-mt323.dll
 0002:00001e08       __imp_?qt_invoke@QRadioButton@@UAE_NHPAUQUObject@@@Z 00421e08     qt-mt323:qt-mt323.dll
 0002:00001e0c       __imp_?qt_cast@QRadioButton@@UAEPAXPBD@Z 00421e0c     qt-mt323:qt-mt323.dll
 0002:00001e10       __imp_?className@QRadioButton@@UBEPBDXZ 00421e10     qt-mt323:qt-mt323.dll
 0002:00001e14       __imp_?metaObject@QRadioButton@@UBEPAVQMetaObject@@XZ 00421e14     qt-mt323:qt-mt323.dll
 0002:00001e18       __imp_?setAutoAdvance@QDateTimeEdit@@UAEX_N@Z 00421e18     qt-mt323:qt-mt323.dll
 0002:00001e1c       __imp_?setDateTime@QDateTimeEdit@@UAEXABVQDateTime@@@Z 00421e1c     qt-mt323:qt-mt323.dll
 0002:00001e20       __imp_?resizeEvent@QDateTimeEdit@@MAEXPAVQResizeEvent@@@Z 00421e20     qt-mt323:qt-mt323.dll
 0002:00001e24       __imp_?minimumSizeHint@QDateTimeEdit@@UBE?AVQSize@@XZ 00421e24     qt-mt323:qt-mt323.dll
 0002:00001e28       __imp_?sizeHint@QDateTimeEdit@@UBE?AVQSize@@XZ 00421e28     qt-mt323:qt-mt323.dll
 0002:00001e2c       __imp_?qt_property@QDateTimeEdit@@UAE_NHHPAVQVariant@@@Z 00421e2c     qt-mt323:qt-mt323.dll
 0002:00001e30       __imp_?qt_emit@QDateTimeEdit@@UAE_NHPAUQUObject@@@Z 00421e30     qt-mt323:qt-mt323.dll
 0002:00001e34       __imp_?qt_invoke@QDateTimeEdit@@UAE_NHPAUQUObject@@@Z 00421e34     qt-mt323:qt-mt323.dll
 0002:00001e38       __imp_?qt_cast@QDateTimeEdit@@UAEPAXPBD@Z 00421e38     qt-mt323:qt-mt323.dll
 0002:00001e3c       __imp_?className@QDateTimeEdit@@UBEPBDXZ 00421e3c     qt-mt323:qt-mt323.dll
 0002:00001e40       __imp_?metaObject@QDateTimeEdit@@UBEPAVQMetaObject@@XZ 00421e40     qt-mt323:qt-mt323.dll
 0002:00001e44       __imp_?queryUnknownInterface@QGPluginManager@@IBEKABVQString@@PAPAUQUnknownInterface@@@Z 00421e44     qt-mt323:qt-mt323.dll
 0002:00001e48       __imp_??0QDataTable@@QAE@PAVQWidget@@PBD@Z 00421e48     qt-mt323:qt-mt323.dll
 0002:00001e4c       __imp_?statusBar@QMainWindow@@QBEPAVQStatusBar@@XZ 00421e4c     qt-mt323:qt-mt323.dll
 0002:00001e50       __imp_??0QMainWindow@@QAE@PAVQWidget@@PBDI@Z 00421e50     qt-mt323:qt-mt323.dll
 0002:00001e54       __imp_??0QHBox@@QAE@PAVQWidget@@PBDI@Z 00421e54     qt-mt323:qt-mt323.dll
 0002:00001e58       __imp_??0QVBox@@QAE@PAVQWidget@@PBDI@Z 00421e58     qt-mt323:qt-mt323.dll
 0002:00001e5c       __imp_??0QToolBox@@QAE@PAVQWidget@@PBDI@Z 00421e5c     qt-mt323:qt-mt323.dll
 0002:00001e60       __imp_??0QWidgetStack@@QAE@PAVQWidget@@PBD@Z 00421e60     qt-mt323:qt-mt323.dll
 0002:00001e64       __imp_??0QScrollBar@@QAE@PAVQWidget@@PBD@Z 00421e64     qt-mt323:qt-mt323.dll
 0002:00001e68       __imp_??0QDateTimeEdit@@QAE@PAVQWidget@@PBD@Z 00421e68     qt-mt323:qt-mt323.dll
 0002:00001e6c       __imp_??0QTimeEdit@@QAE@PAVQWidget@@PBD@Z 00421e6c     qt-mt323:qt-mt323.dll
 0002:00001e70       __imp_??0QDateEdit@@QAE@PAVQWidget@@PBD@Z 00421e70     qt-mt323:qt-mt323.dll
 0002:00001e74       __imp_??0QTextEdit@@QAE@PAVQWidget@@PBD@Z 00421e74     qt-mt323:qt-mt323.dll
 0002:00001e78       __imp_??0QSplitter@@QAE@PAVQWidget@@PBD@Z 00421e78     qt-mt323:qt-mt323.dll
 0002:00001e7c       __imp_??0QFrame@@QAE@PAVQWidget@@PBDI@Z 00421e7c     qt-mt323:qt-mt323.dll
 0002:00001e80       __imp_??0QSlider@@QAE@PAVQWidget@@PBD@Z 00421e80     qt-mt323:qt-mt323.dll
 0002:00001e84       __imp_??0QDial@@QAE@PAVQWidget@@PBDI@Z 00421e84     qt-mt323:qt-mt323.dll
 0002:00001e88       __imp_??0QTextBrowser@@QAE@PAVQWidget@@PBD@Z 00421e88     qt-mt323:qt-mt323.dll
 0002:00001e8c       __imp_??0QTextView@@QAE@PAVQWidget@@PBD@Z 00421e8c     qt-mt323:qt-mt323.dll
 0002:00001e90       __imp_??0QProgressBar@@QAE@PAVQWidget@@PBDI@Z 00421e90     qt-mt323:qt-mt323.dll
 0002:00001e94       __imp_??0QLCDNumber@@QAE@PAVQWidget@@PBD@Z 00421e94     qt-mt323:qt-mt323.dll
 0002:00001e98       __imp_??0QWizard@@QAE@PAVQWidget@@PBD_NI@Z 00421e98     qt-mt323:qt-mt323.dll
 0002:00001e9c       __imp_??0QComboBox@@QAE@_NPAVQWidget@@PBD@Z 00421e9c     qt-mt323:qt-mt323.dll
 0002:00001ea0       __imp_??0QTabWidget@@QAE@PAVQWidget@@PBDI@Z 00421ea0     qt-mt323:qt-mt323.dll
 0002:00001ea4       __imp_??0QMultiLineEdit@@QAE@PAVQWidget@@PBD@Z 00421ea4     qt-mt323:qt-mt323.dll
 0002:00001ea8       __imp_??0QSpinBox@@QAE@PAVQWidget@@PBD@Z 00421ea8     qt-mt323:qt-mt323.dll
 0002:00001eac       __imp_??0QLineEdit@@QAE@PAVQWidget@@PBD@Z 00421eac     qt-mt323:qt-mt323.dll
 0002:00001eb0       __imp_??0QListView@@QAE@PAVQWidget@@PBDI@Z 00421eb0     qt-mt323:qt-mt323.dll
 0002:00001eb4       __imp_??0QTable@@QAE@PAVQWidget@@PBD@Z 00421eb4     qt-mt323:qt-mt323.dll
 0002:00001eb8       __imp_??0QIconView@@QAE@PAVQWidget@@PBDI@Z 00421eb8     qt-mt323:qt-mt323.dll
 0002:00001ebc       __imp_??0QGroupBox@@QAE@PAVQWidget@@PBD@Z 00421ebc     qt-mt323:qt-mt323.dll
 0002:00001ec0       __imp_??0QRadioButton@@QAE@PAVQWidget@@PBD@Z 00421ec0     qt-mt323:qt-mt323.dll
 0002:00001ec4       __imp_??0QCheckBox@@QAE@PAVQWidget@@PBD@Z 00421ec4     qt-mt323:qt-mt323.dll
 0002:00001ec8       __imp_??0QToolButton@@QAE@PAVQWidget@@PBD@Z 00421ec8     qt-mt323:qt-mt323.dll
 0002:00001ecc       __imp_??1QToolButton@@UAE@XZ 00421ecc     qt-mt323:qt-mt323.dll
 0002:00001ed0       __imp_??1QButton@@UAE@XZ   00421ed0     qt-mt323:qt-mt323.dll
 0002:00001ed4       __imp_??1QGroupBox@@UAE@XZ 00421ed4     qt-mt323:qt-mt323.dll
 0002:00001ed8       __imp_??1QIconView@@UAE@XZ 00421ed8     qt-mt323:qt-mt323.dll
 0002:00001edc       __imp_??1QTable@@UAE@XZ    00421edc     qt-mt323:qt-mt323.dll
 0002:00001ee0       __imp_??1QListView@@UAE@XZ 00421ee0     qt-mt323:qt-mt323.dll
 0002:00001ee4       __imp_??1QLineEdit@@UAE@XZ 00421ee4     qt-mt323:qt-mt323.dll
 0002:00001ee8       __imp_??1QSpinBox@@UAE@XZ  00421ee8     qt-mt323:qt-mt323.dll
 0002:00001eec       __imp_??1QMultiLineEdit@@UAE@XZ 00421eec     qt-mt323:qt-mt323.dll
 0002:00001ef0       __imp_??1QTabWidget@@UAE@XZ 00421ef0     qt-mt323:qt-mt323.dll
 0002:00001ef4       __imp_??1QComboBox@@UAE@XZ 00421ef4     qt-mt323:qt-mt323.dll
 0002:00001ef8       __imp_??1QWizard@@UAE@XZ   00421ef8     qt-mt323:qt-mt323.dll
 0002:00001efc       __imp_??1QLCDNumber@@UAE@XZ 00421efc     qt-mt323:qt-mt323.dll
 0002:00001f00       __imp_??1QTextView@@UAE@XZ 00421f00     qt-mt323:qt-mt323.dll
 0002:00001f04       __imp_??1QTextBrowser@@UAE@XZ 00421f04     qt-mt323:qt-mt323.dll
 0002:00001f08       __imp_??1QDial@@UAE@XZ     00421f08     qt-mt323:qt-mt323.dll
 0002:00001f0c       __imp_??1QSlider@@UAE@XZ   00421f0c     qt-mt323:qt-mt323.dll
 0002:00001f10       __imp_??1QSplitter@@UAE@XZ 00421f10     qt-mt323:qt-mt323.dll
 0002:00001f14       __imp_??1QTextEdit@@UAE@XZ 00421f14     qt-mt323:qt-mt323.dll
 0002:00001f18       __imp_??1QDateEdit@@UAE@XZ 00421f18     qt-mt323:qt-mt323.dll
 0002:00001f1c       __imp_??1QTimeEdit@@UAE@XZ 00421f1c     qt-mt323:qt-mt323.dll
 0002:00001f20       __imp_??1QDateTimeEdit@@UAE@XZ 00421f20     qt-mt323:qt-mt323.dll
 0002:00001f24       __imp_??1QScrollBar@@UAE@XZ 00421f24     qt-mt323:qt-mt323.dll
 0002:00001f28       __imp_??1QToolBox@@UAE@XZ  00421f28     qt-mt323:qt-mt323.dll
 0002:00001f2c       __imp_??1QMainWindow@@UAE@XZ 00421f2c     qt-mt323:qt-mt323.dll
 0002:00001f30       __imp_??1QDataTable@@UAE@XZ 00421f30     qt-mt323:qt-mt323.dll
 0002:00001f34       __imp_?handleError@QDataBrowser@@MAEXABVQSqlError@@@Z 00421f34     qt-mt323:qt-mt323.dll
 0002:00001f38       __imp_?confirmCancel@QDataBrowser@@MAE?AW4Confirm@QSql@@W4Op@3@@Z 00421f38     qt-mt323:qt-mt323.dll
 0002:00001f3c       __imp_?confirmEdit@QDataBrowser@@MAE?AW4Confirm@QSql@@W4Op@3@@Z 00421f3c     qt-mt323:qt-mt323.dll
 0002:00001f40       __imp_?currentEdited@QDataBrowser@@MAE_NXZ 00421f40     qt-mt323:qt-mt323.dll
 0002:00001f44       __imp_?deleteCurrent@QDataBrowser@@MAE_NXZ 00421f44     qt-mt323:qt-mt323.dll
 0002:00001f48       __imp_?updateCurrent@QDataBrowser@@MAE_NXZ 00421f48     qt-mt323:qt-mt323.dll
 0002:00001f4c       __imp_?insertCurrent@QDataBrowser@@MAE_NXZ 00421f4c     qt-mt323:qt-mt323.dll
 0002:00001f50       __imp_?clearValues@QDataBrowser@@UAEXXZ 00421f50     qt-mt323:qt-mt323.dll
 0002:00001f54       __imp_?writeFields@QDataBrowser@@UAEXXZ 00421f54     qt-mt323:qt-mt323.dll
 0002:00001f58       __imp_?readFields@QDataBrowser@@UAEXXZ 00421f58     qt-mt323:qt-mt323.dll
 0002:00001f5c       __imp_?prev@QDataBrowser@@UAEXXZ 00421f5c     qt-mt323:qt-mt323.dll
 0002:00001f60       __imp_?next@QDataBrowser@@UAEXXZ 00421f60     qt-mt323:qt-mt323.dll
 0002:00001f64       __imp_?last@QDataBrowser@@UAEXXZ 00421f64     qt-mt323:qt-mt323.dll
 0002:00001f68       __imp_?first@QDataBrowser@@UAEXXZ 00421f68     qt-mt323:qt-mt323.dll
 0002:00001f6c       __imp_?del@QDataBrowser@@UAEXXZ 00421f6c     qt-mt323:qt-mt323.dll
 0002:00001f70       __imp_?update@QDataBrowser@@UAEXXZ 00421f70     qt-mt323:qt-mt323.dll
 0002:00001f74       __imp_?insert@QDataBrowser@@UAEXXZ 00421f74     qt-mt323:qt-mt323.dll
 0002:00001f78       __imp_?refresh@QDataBrowser@@UAEXXZ 00421f78     qt-mt323:qt-mt323.dll
 0002:00001f7c       __imp_?seek@QDataBrowser@@UAE_NH_N@Z 00421f7c     qt-mt323:qt-mt323.dll
 0002:00001f80       __imp_?setAutoEdit@QDataBrowser@@UAEX_N@Z 00421f80     qt-mt323:qt-mt323.dll
 0002:00001f84       __imp_?setReadOnly@QDataBrowser@@UAEX_N@Z 00421f84     qt-mt323:qt-mt323.dll
 0002:00001f88       __imp_?setConfirmCancels@QDataBrowser@@UAEX_N@Z 00421f88     qt-mt323:qt-mt323.dll
 0002:00001f8c       __imp_?setConfirmDelete@QDataBrowser@@UAEX_N@Z 00421f8c     qt-mt323:qt-mt323.dll
 0002:00001f90       __imp_?setConfirmUpdate@QDataBrowser@@UAEX_N@Z 00421f90     qt-mt323:qt-mt323.dll
 0002:00001f94       __imp_?setConfirmInsert@QDataBrowser@@UAEX_N@Z 00421f94     qt-mt323:qt-mt323.dll
 0002:00001f98       __imp_?setConfirmEdits@QDataBrowser@@UAEX_N@Z 00421f98     qt-mt323:qt-mt323.dll
 0002:00001f9c       __imp_?setForm@QDataBrowser@@UAEXPAVQSqlForm@@@Z 00421f9c     qt-mt323:qt-mt323.dll
 0002:00001fa0       __imp_?setSqlCursor@QDataBrowser@@UAEXPAVQSqlCursor@@_N@Z 00421fa0     qt-mt323:qt-mt323.dll
 0002:00001fa4       __imp_??0QDataBrowser@@QAE@PAVQWidget@@PBDI@Z 00421fa4     qt-mt323:qt-mt323.dll
 0002:00001fa8       __imp_??1QDataBrowser@@UAE@XZ 00421fa8     qt-mt323:qt-mt323.dll
 0002:00001fac       __imp_?clearValues@QDataView@@UAEXXZ 00421fac     qt-mt323:qt-mt323.dll
 0002:00001fb0       __imp_?writeFields@QDataView@@UAEXXZ 00421fb0     qt-mt323:qt-mt323.dll
 0002:00001fb4       __imp_?readFields@QDataView@@UAEXXZ 00421fb4     qt-mt323:qt-mt323.dll
 0002:00001fb8       __imp_?refresh@QDataView@@UAEXPAVQSqlRecord@@@Z 00421fb8     qt-mt323:qt-mt323.dll
 0002:00001fbc       __imp_?setRecord@QDataView@@UAEXPAVQSqlRecord@@@Z 00421fbc     qt-mt323:qt-mt323.dll
 0002:00001fc0       __imp_?setForm@QDataView@@UAEXPAVQSqlForm@@@Z 00421fc0     qt-mt323:qt-mt323.dll
 0002:00001fc4       __imp_??0QDataView@@QAE@PAVQWidget@@PBDI@Z 00421fc4     qt-mt323:qt-mt323.dll
 0002:00001fc8       __imp_??1QDataView@@UAE@XZ 00421fc8     qt-mt323:qt-mt323.dll
 0002:00001fcc       __imp_?staticMetaObject@QDataBrowser@@SAPAVQMetaObject@@XZ 00421fcc     qt-mt323:qt-mt323.dll
 0002:00001fd0       __imp_?qt_cast@QDataBrowser@@UAEPAXPBD@Z 00421fd0     qt-mt323:qt-mt323.dll
 0002:00001fd4       __imp_?qt_invoke@QDataBrowser@@UAE_NHPAUQUObject@@@Z 00421fd4     qt-mt323:qt-mt323.dll
 0002:00001fd8       __imp_?qt_emit@QDataBrowser@@UAE_NHPAUQUObject@@@Z 00421fd8     qt-mt323:qt-mt323.dll
 0002:00001fdc       __imp_?qt_property@QDataBrowser@@UAE_NHHPAVQVariant@@@Z 00421fdc     qt-mt323:qt-mt323.dll
 0002:00001fe0       __imp_?staticMetaObject@QDataView@@SAPAVQMetaObject@@XZ 00421fe0     qt-mt323:qt-mt323.dll
 0002:00001fe4       __imp_?qt_cast@QDataView@@UAEPAXPBD@Z 00421fe4     qt-mt323:qt-mt323.dll
 0002:00001fe8       __imp_?qt_invoke@QDataView@@UAE_NHPAUQUObject@@@Z 00421fe8     qt-mt323:qt-mt323.dll
 0002:00001fec       __imp_?qt_emit@QDataView@@UAE_NHPAUQUObject@@@Z 00421fec     qt-mt323:qt-mt323.dll
 0002:00001ff0       __imp_?qt_property@QDataView@@UAE_NHHPAVQVariant@@@Z 00421ff0     qt-mt323:qt-mt323.dll
 0002:00001ff4       __imp_??4QString@@QAEAAV0@PBD@Z 00421ff4     qt-mt323:qt-mt323.dll
 0002:00001ff8       __imp_??4QString@@QAEAAV0@ABV0@@Z 00421ff8     qt-mt323:qt-mt323.dll
 0002:00001ffc       __imp_??1QString@@QAE@XZ   00421ffc     qt-mt323:qt-mt323.dll
 0002:00002000       __imp_??0QString@@QAE@PBD@Z 00422000     qt-mt323:qt-mt323.dll
 0002:00002004       __imp_??0QString@@QAE@ABV0@@Z 00422004     qt-mt323:qt-mt323.dll
 0002:00002008       __imp_??0QString@@QAE@XZ   00422008     qt-mt323:qt-mt323.dll
 0002:0000200c       __imp_?qDebug@@YAXPBDZZ    0042200c     qt-mt323:qt-mt323.dll
 0002:00002010       __imp_?deleteData@QGArray@@MAEXPAUarray_data@1@@Z 00422010     qt-mt323:qt-mt323.dll
 0002:00002014       __imp_?newData@QGArray@@MAEPAUarray_data@1@XZ 00422014     qt-mt323:qt-mt323.dll
 0002:00002018       __imp_?qWinMain@@YAXPAUHINSTANCE__@@0PADHAAHAAV?$QMemArray@PAD@@@Z 00422018     qt-mt323:qt-mt323.dll
 0002:0000201c       __imp_?duplicate@QGArray@@IAEAAV1@ABV1@@Z 0042201c     qt-mt323:qt-mt323.dll
 0002:00002020       \177qt-mt323_NULL_THUNK_DATA 00422020     qt-mt323:qt-mt323.dll
 0002:00002024       ___xc_a                    00422024     MSVCRT:cinitexe.obj
 0002:00002084       ___xc_z                    00422084     MSVCRT:cinitexe.obj
 0002:00002088       ___xi_a                    00422088     MSVCRT:cinitexe.obj
 0002:00002098       ___xi_z                    00422098     MSVCRT:cinitexe.obj
 0002:000020a0       ??_C@_00CNPNBAHC@?$AA@     004220a0     AdjustMon.obj
 0002:000020a8       ??_7?$QPtrList@VQString@@@@6B@ 004220a8     AdjustMon.obj
 0002:000020cc       ??_7CAdjustMon@@6B@        004220cc     AdjustMon.obj
 0002:000020d8       ??_7error_category@std@@6B@ 004220d8     AdjustMon.obj
 0002:000020f4       ??_7_Generic_error_category@std@@6B@ 004220f4     AdjustMon.obj
 0002:0000210c       ??_C@_07DCLBNMLN@generic?$AA@ 0042210c     AdjustMon.obj
 0002:00002114       ??_C@_0O@BFJCFAAK@unknown?5error?$AA@ 00422114     AdjustMon.obj
 0002:00002128       ??_7_Iostream_error_category@std@@6B@ 00422128     AdjustMon.obj
 0002:00002140       ??_C@_08LLGCOLLL@iostream?$AA@ 00422140     AdjustMon.obj
 0002:0000214c       ??_C@_0BG@PADBLCHM@iostream?5stream?5error?$AA@ 0042214c     AdjustMon.obj
 0002:00002168       ??_7_System_error_category@std@@6B@ 00422168     AdjustMon.obj
 0002:00002180       ??_C@_06FHFOAHML@system?$AA@ 00422180     AdjustMon.obj
 0002:0000218c       ??_7?$QPtrList@VsignalConnection@@@@6B@ 0042218c     AdjustMon.obj
 0002:000021b0       ??_7signalConnectionRefList@@6B@ 004221b0     AdjustMon.obj
 0002:000021d0       ??_C@_09DDAHAMBK@CC_SYSTEM?$AA@ 004221d0     AdjustMon.obj
 0002:000021dc       ??_C@_01KICIPPFI@?2?$AA@   004221dc     AdjustMon.obj
 0002:000021e0       ??_C@_07JBEBLGDD@CC_ROOT?$AA@ 004221e0     AdjustMon.obj
 0002:000021e8       ??_C@_0BL@BPIBGMNC@PM?3?5CAdjustMon?3?3CAdjustMon?$AA@ 004221e8     AdjustMon.obj
 0002:00002204       ??_C@_0BF@KIMLPOIM@?2config?2g_pnlman?4ini?$AA@ 00422204     AdjustMon.obj
 0002:0000221c       ??_C@_08CHNEAGPC@Tooltips?$AA@ 0042221c     AdjustMon.obj
 0002:00002228       ??_C@_05GCIPIGEI@Debug?$AA@ 00422228     AdjustMon.obj
 0002:00002230       ??_C@_04HCDDPBNL@TRUE?$AA@ 00422230     AdjustMon.obj
 0002:00002238       ??_C@_02EGCJHIOB@id?$AA@   00422238     AdjustMon.obj
 0002:0000223c       ??_C@_07DLHCIBDH@default?$AA@ 0042223c     AdjustMon.obj
 0002:00002244       ??_C@_01KMDKNFGN@?1?$AA@   00422244     AdjustMon.obj
 0002:00002248       ??_C@_05LBOHBHFK@close?$AA@ 00422248     AdjustMon.obj
 0002:00002250       ??_C@_09BAADJELJ@CMD?5CLOSE?$AA@ 00422250     AdjustMon.obj
 0002:0000225c       ??_C@_05CGAILKMH@knobs?$AA@ 0042225c     AdjustMon.obj
 0002:00002264       ??_C@_09IHOMDJCE@CMD?5KNOBS?$AA@ 00422264     AdjustMon.obj
 0002:00002270       ??_C@_05MEHLAELG@clear?$AA@ 00422270     AdjustMon.obj
 0002:00002278       ??_C@_09GFJPIHFF@CMD?5CLEAR?$AA@ 00422278     AdjustMon.obj
 0002:00002284       ??_C@_01IPJKGB@?$CD?$AA@   00422284     AdjustMon.obj
 0002:00002288       ??_C@_07HLDOBJFH@CMD?5?$CD?$CD?$CD?$AA@ 00422288     AdjustMon.obj
 0002:00002290       ??_C@_01OGPIMHDM@?$DP?$AA@ 00422290     AdjustMon.obj
 0002:00002294       ??_C@_07CHLICCMM@Adjust?5?$AA@ 00422294     AdjustMon.obj
 0002:0000229c       ??_C@_0O@GEPNPMLG@typehandlers?4?$AA@ 0042229c     AdjustMon.obj
 0002:000022ac       ??_C@_0O@FEMDGDF@applications?4?$AA@ 004222ac     AdjustMon.obj
 0002:000022bc       ??_C@_08DPGOPBLI@?$FLtitle?$DP?$FN?$AA@ 004222bc     AdjustMon.obj
 0002:000022c8       ??_C@_05PHLGJONK@title?$AA@ 004222c8     AdjustMon.obj
 0002:000022d0       ??_C@_03PBGKOMBE@PA?5?$AA@ 004222d0     AdjustMon.obj
 0002:000022d4       ??_C@_0BH@MGELANPI@Panel?$DN?$CF1?5?5?5Instance?$DN?$CF2?$AA@ 004222d4     AdjustMon.obj
 0002:000022ec       ??_C@_0N@JHJNCHJH@Handler?5for?5?$AA@ 004222ec     AdjustMon.obj
 0002:000022fc       ??_C@_02JLAILAGL@?$HM1?$AA@ 004222fc     AdjustMon.obj
 0002:00002300       ??_C@_03OJHHKPPE@PI?$HM?$AA@ 00422300     AdjustMon.obj
 0002:00002304       ??_C@_02ICBDIBCK@?$HM0?$AA@ 00422304     AdjustMon.obj
 0002:00002308       ??_C@_0N@NEFHCAPM@adjustRev?5?9?5?$AA@ 00422308     AdjustMon.obj
 0002:00002318       ??_C@_06JFHPFCED@?$DO?$DO?$DOPA?5?$AA@ 00422318     AdjustMon.obj
 0002:00002320       ??_C@_06JOCDBFHO@?$DO?$DO?$DOPN?5?$AA@ 00422320     AdjustMon.obj
 0002:00002328       ??_C@_07BCFNLIJJ@Browser?$AA@ 00422328     AdjustMon.obj
 0002:00002330       ??_C@_08JOLENAFJ@browser?5?$AA@ 00422330     AdjustMon.obj
 0002:0000233c       ??_C@_08FCANJKNK@Panel?$DN?$CF1?$AA@ 0042233c     AdjustMon.obj
 0002:00002348       ??_C@_06JLGMADPL@?$DO?$DO?$DOPI?5?$AA@ 00422348     AdjustMon.obj
 0002:00002350       ??_C@_03DKMEACPB@?$DM?$DM?$DM?$AA@ 00422350     AdjustMon.obj
 0002:00002354       ??_C@_06IGIIMKLM@?$DO?$DO?$DOPX?5?$AA@ 00422354     AdjustMon.obj
 0002:0000235c       ??_C@_03OCJNHEOL@PX?5?$AA@ 0042235c     AdjustMon.obj
 0002:00002360       ??_C@_01IHBHIGKO@?0?$AA@   00422360     AdjustMon.obj
 0002:00002364       ??_C@_0BA@JFFANBNK@applications?4?$CF1?$AA@ 00422364     AdjustMon.obj
 0002:00002374       ??_C@_06IPJCDDNI@?$DO?$DO?$DOPT?5?$AA@ 00422374     AdjustMon.obj
 0002:0000237c       ??_C@_06IIJLJLAE@?$DO?$DO?$DOPP?5?$AA@ 0042237c     AdjustMon.obj
 0002:00002384       ??_C@_0L@IINBHNNO@mydocument?$AA@ 00422384     AdjustMon.obj
 0002:00002390       ??_C@_0BG@PHEHNDCH@can?8t?5set?5dom?5content?$AA@ 00422390     AdjustMon.obj
 0002:000023a8       ??_C@_0N@PKKPMHPM@cc_navAdjust?$AA@ 004223a8     AdjustMon.obj
 0002:000023b8       ??_C@_0DN@FGBDIBGG@PM?3?5CAdjustMon?5originator?$DN?8?$CF1?8?5m@ 004223b8     AdjustMon.obj
 0002:000023f8       ??_C@_0N@BNMLEFLO@originatorid?$AA@ 004223f8     AdjustMon.obj
 0002:00002408       ??_C@_08EMNENPBA@instance?$AA@ 00422408     AdjustMon.obj
 0002:00002414       ??_C@_0O@LDNCPJHJ@cc_navExecute?$AA@ 00422414     AdjustMon.obj
 0002:00002428       ??_C@_0EM@LPJNOCE@PM?3?5CAdjustMon?5originator?$DN?8?$CF1?8?5m@ 00422428     AdjustMon.obj
 0002:00002474       ??_C@_0M@MBDKLJIJ@application?$AA@ 00422474     AdjustMon.obj
 0002:00002480       ??_C@_05LJDNNBIK@param?$AA@ 00422480     AdjustMon.obj
 0002:00002488       ??_C@_0DA@OOGMLELA@PM?3?5CAdjustMon?5originator?$DN?8?$CF1?8?5u@ 00422488     AdjustMon.obj
 0002:000024bc       ??_7?$QValueListPrivate@VparamInfo@@@@6B@ 004224bc     AdjustMon.obj
 0002:000024c4       ??_7?$QValueListPrivate@VcomplexParam@@@@6B@ 004224c4     AdjustMon.obj
 0002:000024cc       ??_7?$QValueListPrivate@VcomplexInstance@@@@6B@ 004224cc     AdjustMon.obj
 0002:000024d4       ??_7?$QValueListPrivate@VinstanceInfo@@@@6B@ 004224d4     AdjustMon.obj
 0002:000024dc       ??_7?$QValueListPrivate@VdeviceTypeInfo@@@@6B@ 004224dc     AdjustMon.obj
 0002:000024e4       ??_7?$QValueListPrivate@VcomplexType@@@@6B@ 004224e4     AdjustMon.obj
 0002:000024e8       ??_C@_0BA@JFNIOLAK@string?5too?5long?$AA@ 004224e8     AdjustMon.obj
 0002:000024f8       ??_C@_0BI@CFPLBAOH@invalid?5string?5position?$AA@ 004224f8     AdjustMon.obj
 0002:00002514       ??_7?$QValueListNode@VparamInfo@@@@6B@ 00422514     AdjustMon.obj
 0002:0000251c       ??_7?$QValueListNode@VcomplexParam@@@@6B@ 0042251c     AdjustMon.obj
 0002:00002524       ??_7?$QValueListNode@VcomplexInstance@@@@6B@ 00422524     AdjustMon.obj
 0002:0000252c       ??_7?$QValueListNode@VinstanceInfo@@@@6B@ 0042252c     AdjustMon.obj
 0002:00002534       ??_7?$QValueListNode@VdeviceTypeInfo@@@@6B@ 00422534     AdjustMon.obj
 0002:0000253c       ??_7?$QValueListNode@VcomplexType@@@@6B@ 0042253c     AdjustMon.obj
 0002:00002544       ??_SQKeyEvent@@6B@         00422544     AppBar.obj
 0002:0000254c       ??_SQGrid@@6BQObject@@@    0042254c     AppBar.obj
 0002:00002720       ??_SQGrid@@6BQPaintDevice@@@ 00422720     AppBar.obj
 0002:00002744       ??_7?$QDict@VCAppItem@@@@6B@ 00422744     AppBar.obj
 0002:00002764       ??_7CAppBar@@6BQObject@@@  00422764     AppBar.obj
 0002:0000291c       ??_7CAppBar@@6BQPaintDevice@@@ 0042291c     AppBar.obj
 0002:0000293c       ??_C@_04LOAJBDKD@true?$AA@ 0042293c     AppBar.obj
 0002:00002944       ??_C@_0P@PKHJHOPF@CC_WORKSTATION?$AA@ 00422944     AppBar.obj
 0002:00002954       ??_C@_03NLJIHOMM@?5?9?5?$AA@ 00422954     AppBar.obj
 0002:00002958       ??_C@_04CIMGMMMG@text?$AA@ 00422958     AppBar.obj
 0002:00002960       ??_C@_0O@CEJABECH@pm_deselected?$AA@ 00422960     AppBar.obj
 0002:00002970       ??_C@_0L@CDJDANNA@stylesheet?$AA@ 00422970     AppBar.obj
 0002:0000297c       ??_C@_0CI@LLIMFKO@PM?3?5setting?5button?5?8?$CF1?8to?5pm_des@ 0042297c     AppBar.obj
 0002:000029a4       ??_C@_05FAGFPHJG@start?$AA@ 004229a4     AppBar.obj
 0002:000029ac       ??_C@_09CANIIFCA@instance_?$AA@ 004229ac     AppBar.obj
 0002:000029b8       ??_C@_0P@LDGJMAKK@popupDestroyed?$AA@ 004229b8     AppBar.obj
 0002:000029c8       ??_C@_07JMJHFNOC@devtype?$AA@ 004229c8     AppBar.obj
 0002:000029d0       ??_C@_04IJMLIKBJ@ARC1?$AA@ 004229d0     AppBar.obj
 0002:000029d8       ??_C@_04KCOGNJNK@ARC2?$AA@ 004229d8     AppBar.obj
 0002:000029e0       ??_C@_04LLPNOIJL@ARC3?$AA@ 004229e0     AppBar.obj
 0002:000029e8       ??_C@_0M@PAINPAGM@instance_?$CF1?$AA@ 004229e8     AppBar.obj
 0002:000029f4       ??_C@_0N@HACHFKKL@bncs_control?$AA@ 004229f4     AppBar.obj
 0002:00002a04       ??_C@_07HKPALGNI@text?$DN?$CF1?$AA@ 00422a04     AppBar.obj
 0002:00002a0c       ??_C@_0BK@BJOMPFPH@colour?4background?$DN?$CDc0c0c0?$AA@ 00422a0c     AppBar.obj
 0002:00002a28       ??_C@_0BE@NAFKENEE@1notify?$CI?5QString?5?$CG?$CJ?$AA@ 00422a28     AppBar.obj
 0002:00002a3c       ??_C@_0BE@HPPDAAIO@2notify?$CI?5QString?5?$CG?$CJ?$AA@ 00422a3c     AppBar.obj
 0002:00002a50       ??_C@_02PIGFKFFE@?$CF1?$AA@ 00422a50     AppBar.obj
 0002:00002a54       ??_C@_01GEODFPGF@?8?$AA@   00422a54     AppBar.obj
 0002:00002a58       ??_C@_02OCDGNCGI@?5?8?$AA@ 00422a58     AppBar.obj
 0002:00002a5c       ??_C@_0L@NFKBPFK@execApp?5?9?5?$AA@ 00422a5c     AppBar.obj
 0002:00002a68       ??_C@_0M@EDHHMKBH@pm_selected?$AA@ 00422a68     AppBar.obj
 0002:00002a74       ??_C@_06NBOBHOCP@family?$AA@ 00422a74     AppBar.obj
 0002:00002a7c       ??_C@_0BA@PHMADNEM@Unknown?5type?5?9?5?$AA@ 00422a7c     AppBar.obj
 0002:00002a8c       ??_C@_0BL@BJMDLADD@PM?3?5CAppBar?3?3setUser?$CI?8?$CF1?8?$CJ?$AA@ 00422a8c     AppBar.obj
 0002:00002aa8       ??_C@_06JMCBOPGN@users?4?$AA@ 00422aa8     AppBar.obj
 0002:00002ab0       ??_C@_0O@DFGGIHIF@workstations?4?$AA@ 00422ab0     AppBar.obj
 0002:00002ac0       ??_C@_04CCHAHKJA@user?$AA@ 00422ac0     AppBar.obj
 0002:00002ac8       ??_C@_0CM@IGMPMLJO@PM?3?5CAppBar?3?3setUser?$CI?$CJ?5?9?5strRetu@ 00422ac8     AppBar.obj
 0002:00002af4       ??_C@_08FGKDABPH@panelset?$AA@ 00422af4     AppBar.obj
 0002:00002b00       ??_C@_06NODEDMPP@engset?$AA@ 00422b00     AppBar.obj
 0002:00002b08       ??_C@_0BP@FKACBJCO@PM?3?5CAppBar?3?3setPanelSet?$CI?8?$CF1?8?$CJ?$AA@ 00422b08     AppBar.obj
 0002:00002b28       ??_C@_0CL@LHMAEHHJ@PM?3?5CAppBar?3?3setPanelSet?$CI?$CJ?5intSe@ 00422b28     AppBar.obj
 0002:00002b54       ??_C@_0CK@CKKNNKDA@PM?3?5CAppBar?3?3setPanelSet?$CI?$CJ?5m_pag@ 00422b54     AppBar.obj
 0002:00002b80       ??_C@_0L@HBEKMOGK@panelsets?4?$AA@ 00422b80     AppBar.obj
 0002:00002b8c       ??_C@_0BB@IKPJBLMD@__PANELSET_START?$AA@ 00422b8c     AppBar.obj
 0002:00002ba0       ??_C@_05KJNJLLGA@level?$AA@ 00422ba0     AppBar.obj
 0002:00002ba8       ??_C@_08CBBFJFMD@location?$AA@ 00422ba8     AppBar.obj
 0002:00002bb4       ??_C@_0BB@MBBALDPN@panelsetLocation?$AA@ 00422bb4     AppBar.obj
 0002:00002bc8       ??_C@_0P@EHPIFIOI@__PANELSET_END?$AA@ 00422bc8     AppBar.obj
 0002:00002bd8       ??_C@_05EIEHMANA@popup?$AA@ 00422bd8     AppBar.obj
 0002:00002be0       ??_C@_05ENKANFLO@class?$AA@ 00422be0     AppBar.obj
 0002:00002be8       ??_C@_07BANDPJOM@caption?$AA@ 00422be8     AppBar.obj
 0002:00002bf0       ??_C@_04DMJJIPAH@icon?$AA@ 00422bf0     AppBar.obj
 0002:00002bf8       ??_C@_0BB@JDNIAKKL@icon_default?4png?$AA@ 00422bf8     AppBar.obj
 0002:00002c0c       ??_C@_08MBJCKOGB@?1images?1?$AA@ 00422c0c     AppBar.obj
 0002:00002c18       ??_C@_0BE@DOPLHILG@?4?4?1?4?4?1images?1?$CF1?4png?$AA@ 00422c18     AppBar.obj
 0002:00002c2c       ??_C@_0BA@GOCHBBNK@?4?4?1?4?4?1?$CF1?1?$CF2?4png?$AA@ 00422c2c     AppBar.obj
 0002:00002c3c       ??_C@_08LNIIGLLL@v4_panel?$AA@ 00422c3c     AppBar.obj
 0002:00002c48       ??_C@_0BB@OCAFHFDA@?4?4?1images?1?$CF1?4png?$AA@ 00422c48     AppBar.obj
 0002:00002c5c       ??_C@_0N@EEBDHLBO@?4?4?1?$CF1?1?$CF2?4png?$AA@ 00422c5c     AppBar.obj
 0002:00002c6c       ??_C@_0DE@KCGKNGAM@PM?3?5dicItems?4insert?5item?$DN?8?$CF1?8?5cl@ 00422c6c     AppBar.obj
 0002:00002ca0       ??_C@_0O@IJIKMHAK@icon_grid?4png?$AA@ 00422ca0     AppBar.obj
 0002:00002cb0       ??_C@_06MHMEPCAJ@pixmap?$AA@ 00422cb0     AppBar.obj
 0002:00002cb8       ??_C@_04LFAEFAJD@More?$AA@ 00422cb8     AppBar.obj
 0002:00002cc0       ??_C@_0O@FFJPHCPP@icon_more?4png?$AA@ 00422cc0     AppBar.obj
 0002:00002cd0       ??_C@_0O@PHPCGHDO@page?5?$CF1?5of?5?$CF2?$AA@ 00422cd0     AppBar.obj
 0002:00002ce0       ??_C@_01CLKCMJKC@?5?$AA@   00422ce0     AppBar.obj
 0002:00002ce4       ??_C@_0CP@HHNNOOEJ@PM?3?5CAppBar?3?3nextPage?$CI?$CJ?5switchin@ 00422ce4     AppBar.obj
 0002:00002d14       ??_C@_0CE@INEBJNJA@panelman?2?$CF1?2pm_app_popup_?$CF2?4bncs@ 00422d14     AppBar.obj
 0002:00002d38       ??_C@_0CB@IEGJONDF@panelman?2?$CF1?2pm_app_ext?$CF2?4bncs_ui@ 00422d38     AppBar.obj
 0002:00002d5c       ??_C@_0BF@DKPGHLKA@1notify?$CI?5QString?5?$CG?5?$CJ?$AA@ 00422d5c     AppBar.obj
 0002:00002d74       ??_C@_0BF@EBOIPJED@2notify?$CI?5QString?5?$CG?5?$CJ?$AA@ 00422d74     AppBar.obj
 0002:00002d8c       ??_C@_0BF@LBJFAMKH@pixmap?$DNicon_less?4png?$AA@ 00422d8c     AppBar.obj
 0002:00002da4       ??_C@_09OJALFCKL@text?$DNLess?$AA@ 00422da4     AppBar.obj
 0002:00002db0       ??_C@_07BDPDDEOI@pixmap?$DN?$AA@ 00422db0     AppBar.obj
 0002:00002db8       ??_C@_05BIMHOJPH@text?$DN?$AA@ 00422db8     AppBar.obj
 0002:00002dc0       ??_C@_0BH@IBMAILLB@stylesheet?$DNpm_selected?$AA@ 00422dc0     AppBar.obj
 0002:00002dd8       ??_C@_0BJ@NNBGLMPJ@stylesheet?$DNpm_deselected?$AA@ 00422dd8     AppBar.obj
 0002:00002df4       ??_C@_0CK@PDIIINBM@Can?8t?5create?5panelman?5app?5bar?5ex@ 00422df4     AppBar.obj
 0002:00002e20       ??_C@_05JIPHKDEJ@Ooops?$AA@ 00422e20     AppBar.obj
 0002:00002e30       __xmm@3ff00000000000003ff0000000000000 00422e30     AppBar.obj
 0002:00002e44       ??_7CAppItem@@6B@          00422e44     AppItem.obj
 0002:00002e4c       ??_7?$QDict@VCExtProcess@@@@6B@ 00422e4c     AppSwitch.obj
 0002:00002e6c       ??_7CAppSwitch@@6B@        00422e6c     AppSwitch.obj
 0002:00002ebc       ??_C@_0CC@DJGMINDG@AppSwitch?5?9?5an?5application?5exite@ 00422ebc     AppSwitch.obj
 0002:00002ee0       ??_C@_0M@HJHMAOGM@?5has?5exited?$AA@ 00422ee0     AppSwitch.obj
 0002:00002eec       ??_C@_0CI@BBHGJNKJ@AppSwitch?5?9?5current?5application?5@ 00422eec     AppSwitch.obj
 0002:00002f14       ??_C@_04IKDFFGKN@?4acs?$AA@ 00422f14     AppSwitch.obj
 0002:00002f1c       ??_C@_08FOGEJFAP@?2panels?2?$AA@ 00422f1c     AppSwitch.obj
 0002:00002f28       ??_C@_0CH@BAHONPMN@CAppSwitch?3?3execApp?5?9?5checking?5f@ 00422f28     AppSwitch.obj
 0002:00002f50       ??_C@_02OLOIMBPI@v4?$AA@   00422f50     AppSwitch.obj
 0002:00002f54       ??_C@_08FPPLKAFE@?4bncs_ui?$AA@ 00422f54     AppSwitch.obj
 0002:00002f60       ??_C@_04KAOENLCH@v4?45?$AA@ 00422f60     AppSwitch.obj
 0002:00002f68       ??_C@_04HLONOPDM@?4dll?$AA@ 00422f68     AppSwitch.obj
 0002:00002f70       ??_C@_08OIBPHJGN@external?$AA@ 00422f70     AppSwitch.obj
 0002:00002f7c       ??_C@_04BJJEOANI@kill?$AA@ 00422f7c     AppSwitch.obj
 0002:00002f84       ??_C@_0L@GFPMIAND@Type?5is?5?9?5?$AA@ 00422f84     AppSwitch.obj
 0002:00002f90       ??_C@_0O@CEKAELLJ@_TARGET_START?$AA@ 00422f90     AppSwitch.obj
 0002:00002fa0       ??_C@_01NEMOKFLO@?$DN?$AA@ 00422fa0     AppSwitch.obj
 0002:00002fa4       ??_C@_04GBCFPECD@V4?45?$AA@ 00422fa4     AppSwitch.obj
 0002:00002fac       ??_C@_09FFCCOILD@panelType?$AA@ 00422fac     AppSwitch.obj
 0002:00002fb8       ??_C@_05ELNADHMI@altId?$AA@ 00422fb8     AppSwitch.obj
 0002:00002fc0       ??_C@_0BB@IPIOFFMH@instanceLocation?$AA@ 00422fc0     AppSwitch.obj
 0002:00002fd4       ??_C@_04GPMDFGEJ@type?$AA@ 00422fd4     AppSwitch.obj
 0002:00002fdc       ??_C@_0BA@KOPBJIMJ@the?5bits?5are?5?$CFs?$AA@ 00422fdc     AppSwitch.obj
 0002:00002fec       ??_C@_07FDMMAPON@device?$DN?$AA@ 00422fec     AppSwitch.obj
 0002:00002ff4       ??_C@_07COEHBCAF@offset?$DN?$AA@ 00422ff4     AppSwitch.obj
 0002:00002ffc       ??_C@_06CHPEJBOD@device?$AA@ 00422ffc     AppSwitch.obj
 0002:00003004       ??_C@_06KLHHMIGM@offset?$AA@ 00423004     AppSwitch.obj
 0002:0000300c       ??_C@_0BE@DCBPINBD@applicationLocation?$AA@ 0042300c     AppSwitch.obj
 0002:00003020       ??_C@_0M@HFJCFGDA@_TARGET_END?$AA@ 00423020     AppSwitch.obj
 0002:0000302c       ??_C@_0L@DGAMBGPI@LastTitle?$DN?$AA@ 0042302c     AppSwitch.obj
 0002:00003038       ??_C@_0P@EHLGBJMF@PreviousTitle?$DN?$AA@ 00423038     AppSwitch.obj
 0002:00003048       ??_C@_0BC@MCBMJFPO@?8?5in?5process?5dict?$AA@ 00423048     AppSwitch.obj
 0002:0000305c       ??_C@_0BM@BBDICIEF@CAppSwitch?3?3execApp?5found?5?8?$AA@ 0042305c     AppSwitch.obj
 0002:00003078       ??_C@_0DB@PHAMANGL@CAppSwitch?3?3execApp?5Searching?5fo@ 00423078     AppSwitch.obj
 0002:000030ac       ??_C@_01LFCBOECM@?4?$AA@   004230ac     AppSwitch.obj
 0002:000030b0       ??_C@_0DK@HIDLEGPE@CAppSwitch?3?3execApp?5Searching?5fo@ 004230b0     AppSwitch.obj
 0002:000030ec       ??_C@_0CM@OLBBDFGI@CAppSwitch?3?3execApp?5found?5at?5sec@ 004230ec     AppSwitch.obj
 0002:00003118       ??_C@_0DA@HDEHLAMC@CAppSwitch?3?3execApp?5NOT?5found?5at@ 00423118     AppSwitch.obj
 0002:00003148       ??_C@_09GAFHBNFK@set?5fg?5ok?$AA@ 00423148     AppSwitch.obj
 0002:00003154       ??_C@_0BB@EODMPFNB@didn?8t?5set?5fg?5ok?$AA@ 00423154     AppSwitch.obj
 0002:00003168       ??_C@_0CI@MFDPHAMN@CAppSwitch?3?3execApp?5can?8t?5find?5w@ 00423168     AppSwitch.obj
 0002:00003190       ??_C@_0CA@BKKEIAOF@?8?5not?5found?0?5will?5start?5new?5one?$AA@ 00423190     AppSwitch.obj
 0002:000031b0       ??_C@_0BO@FBCABAOG@CAppSwitch?3?3execApp?5process?5?8?$AA@ 004231b0     AppSwitch.obj
 0002:000031d0       ??_C@_05MCOFHDNI@qtgui?$AA@ 004231d0     AppSwitch.obj
 0002:000031d8       ??_C@_0N@PABBLODF@ctl_applcore?$AA@ 004231d8     AppSwitch.obj
 0002:000031e8       ??_C@_06CGNADAN@?9style?$AA@ 004231e8     AppSwitch.obj
 0002:000031f0       ??_C@_0BB@PPJLGGPE@1appExitNotify?$CI?$CJ?$AA@ 004231f0     AppSwitch.obj
 0002:00003204       ??_C@_0BB@PLPOOLEO@2processExited?$CI?$CJ?$AA@ 00423204     AppSwitch.obj
 0002:00003218       ??_C@_08CJACPEIN@pm_blank?$AA@ 00423218     AppSwitch.obj
 0002:00003224       ??_C@_0CC@IIEMPADF@External?5not?5found?0?5showing?5blan@ 00423224     AppSwitch.obj
 0002:00003248       ??_C@_07BCFLDDFM@circuit?$AA@ 00423248     AppSwitch.obj
 0002:00003250       ??_C@_06IFBOCBAL@vknobs?$AA@ 00423250     AppSwitch.obj
 0002:00003258       ??_C@_01GBGANLPD@0?$AA@    00423258     AppSwitch.obj
 0002:00003260       ??_7IdCWlimits@@6B@        00423260     AppView.obj
 0002:00003268       ??_7?$QDict@VQWidget@@@@6B@ 00423268     AppView.obj
 0002:00003288       ??_7CAppView@@6BQObject@@@ 00423288     AppView.obj
 0002:00003460       ??_7CAppView@@6BQPaintDevice@@@ 00423460     AppView.obj
 0002:00003484       ??_7CAppView@@6B@          00423484     AppView.obj
 0002:00003488       ??_C@_0BH@PEFJAMCL@PM?3?5CAppView?3?3CAppView?$AA@ 00423488     AppView.obj
 0002:000034a0       ??_C@_0ED@EBEFFECH@Microsoft?1Windows?5NT?1CurrentVers@ 004234a0     AppView.obj
 0002:000034e4       ??_C@_0BI@JBFKDMEK@PM?3?5CAppView?3?3?$HOCAppView?$AA@ 004234e4     AppView.obj
 0002:000034fc       ??_C@_01HNPIGOCE@?$CG?$AA@ 004234fc     AppView.obj
 0002:00003500       ??_C@_0CG@KHIOBJPA@PM?3?5CAppView?3?3showView?5key?$DN?8?$CF1?8?5@ 00423500     AppView.obj
 0002:00003528       ??_C@_0CE@GHNBKOCJ@PM?3?5CAppView?3?3showView?5key?$DN?8?$CF1?8?5@ 00423528     AppView.obj
 0002:0000354c       ??_C@_0BH@OADGBCIB@panelman?1?$CF1?1?$CF2?4bncs_ui?$AA@ 0042354c     AppView.obj
 0002:00003564       ??_C@_09HAJAGEMB@panelman?1?$AA@ 00423564     AppView.obj
 0002:00003570       ??_C@_04BIAACBGB@?4lua?$AA@ 00423570     AppView.obj
 0002:00003578       ??_C@_03HIFDICLL@?4ui?$AA@ 00423578     AppView.obj
 0002:0000357c       ??_C@_0BK@FIPFKIED@PM?3?5file?5doesn?8t?5exist?5?9?5?$AA@ 0042357c     AppView.obj
 0002:00003598       ??_C@_0N@NIPJDDLK@before?5check?$AA@ 00423598     AppView.obj
 0002:000035a8       ??_C@_0EH@DACANEFH@PM?3?5CAppView?3?3showView?5?9?5removin@ 004235a8     AppView.obj
 0002:000035f0       ??_C@_0EF@ICNHCPML@PM?3?5CAppView?3?3showView?5?9?5removin@ 004235f0     AppView.obj
 0002:00003638       ??_C@_0O@LBPIMJFI@after?5removal?$AA@ 00423638     AppView.obj
 0002:00003648       ??_C@_0BG@NEKICLGB@dcw?5create?5took?5?$CFd?5ms?$AA@ 00423648     AppView.obj
 0002:00003660       ??_C@_04BBBJENEO@oops?$AA@ 00423660     AppView.obj
 0002:00003668       ??_C@_0L@OHMHPJED@after?5load?$AA@ 00423668     AppView.obj
 0002:00003674       ??_C@_09PMJHDLOL@Panel?3?5?$CFs?$AA@ 00423674     AppView.obj
 0002:00003680       ??_C@_0FM@NJAEECNH@PM?3?5CAppView?3?3showView?5?9?5realloc@ 00423680     AppView.obj
 0002:000036e0       ??_C@_0FK@DKNFGCF@PM?3?5CAppView?3?3showView?5?9?5realloc@ 004236e0     AppView.obj
 0002:0000373c       ??_C@_0BI@BJLPPOGN@delete?5panel?5took?5?$CFd?5ms?$AA@ 0042373c     AppView.obj
 0002:00003754       ??_C@_0BF@LIBMHNMH@PM?3?5adding?5widget?5?$CF1?$AA@ 00423754     AppView.obj
 0002:00003770       ??_C@_0FE@BHFKAKAK@PM?3?5CAppView?3?3showView?5setting?5a@ 00423770     AppView.obj
 0002:000037c4       ??_C@_09HHBDIMAF@instance?$DN?$AA@ 004237c4     AppView.obj
 0002:000037d0       ??_C@_0EC@ENLMNJJA@PM?3?5CAppView?3?3showView?5switching@ 004237d0     AppView.obj
 0002:00003814       ??_C@_0BA@LDMDNIDG@raw_parameters?$DN?$AA@ 00423814     AppView.obj
 0002:00003824       ??_C@_0BF@NCFCOEDE@CAppView?3?3hideLast?$CI?$CJ?$AA@ 00423824     AppView.obj
 0002:0000383c       ??_C@_0CP@NOJNLHDD@CAppView?3?3hideLast?$CI?$CJ?5Close?5?9?5fou@ 0042383c     AppView.obj
 0002:0000386c       ??_C@_0CH@BPBCEJPF@CAppView?3?3hideLast?$CI?$CJ?5Close?5?9?5not@ 0042386c     AppView.obj
 0002:00003894       ??_C@_0DB@HGGJCDJD@PM?3?5CAppView?3?3clearPanels?$CI?$CJ?5?$DN?$DN?$DN?$DN@ 00423894     AppView.obj
 0002:000038c8       ??_C@_0DA@PBDOMAHE@PM?3?5CAppView?3?3clearPanels?$CI?$CJ?5?9?5?$CF1@ 004238c8     AppView.obj
 0002:000038f8       ??_C@_0DB@OEFDCFOH@PM?3?5CAppView?3?3clearPanels?$CI?$CJ?5?9?5?$CF1@ 004238f8     AppView.obj
 0002:0000392c       ??_C@_0BJ@IFJOAFHC@qt_invisible_widgetstack?$AA@ 0042392c     AppView.obj
 0002:00003948       ??_C@_0EA@FALFCKDL@PM?3?5CAppView?3?3clearPanels?$CI?$CJ?5?9?5id@ 00423948     AppView.obj
 0002:00003988       ??_C@_0EB@KIGCFMKO@PM?3?5CAppView?3?3clearPanels?$CI?$CJ?5?9?5id@ 00423988     AppView.obj
 0002:000039cc       ??_C@_07ICJGOFAG@__CLEAR?$AA@ 004239cc     AppView.obj
 0002:000039d4       ??_C@_0DG@IOLFFKIP@PM?3?5CAppView?3?3deleteOldestPanel?5@ 004239d4     AppView.obj
 0002:00003a0c       ??_C@_0BP@ELGOAFBE@delete?5oldest?5panel?5took?5?$CFd?5ms?$AA@ 00423a0c     AppView.obj
 0002:00003a2c       ??_C@_07CKJGNJFJ@QObject?$AA@ 00423a2c     AppView.obj
 0002:00003a34       ??_C@_07FNEPBGL@QWidget?$AA@ 00423a34     AppView.obj
 0002:00003a3c       ??_C@_0DP@EHLJAFNO@PM?3?5CAppView?3?3showView?5?9?5Qt?5Coun@ 00423a3c     AppView.obj
 0002:00003a80       ??_C@_0FI@IEBDCENF@PM?3?5CAppView?3?3showView?5?9?5Windows@ 00423a80     AppView.obj
 0002:00003ad8       ??_C@_0DE@DGKOHKK@void?5CAppView?3?3userObjects?$CI?5unsi@ 00423ad8     AppView.obj
 0002:00003b0c       ??_C@_0BK@EGOAMOKG@void?5CAppView?3?3delting?$DN?$CFd?$AA@ 00423b0c     AppView.obj
 0002:00003b28       ??_C@_0CA@KCPKCKGK@void?5CAppView?3?3done?$CB?5count?5?$CJ?$DN?$CFd?$AA@ 00423b28     AppView.obj
 0002:00003b4c       ??_7bncs_mcComms@@6B@      00423b4c     bncs_mcComms.obj
 0002:00003b54       ??_C@_0BB@ELDMNDJC@type?5is?5panelman?$AA@ 00423b54     bncs_mcComms.obj
 0002:00003b68       ??_C@_0L@IOMEADPJ@225?40?40?410?$AA@ 00423b68     bncs_mcComms.obj
 0002:00003b74       ??_C@_0P@GACOLJKN@type?5is?5update?$AA@ 00423b74     bncs_mcComms.obj
 0002:00003b84       ??_C@_0BJ@IHBJOCDO@unknown?5type?5is?5panelman?$AA@ 00423b84     bncs_mcComms.obj
 0002:00003ba4       ??_SQSocketDevice@@6B@     00423ba4     bncs_multicast.obj
 0002:00003c14       ??_SQSocketNotifier@@6B@   00423c14     bncs_multicast.obj
 0002:00003c6c       ??_7bncs_multicast@@6B@    00423c6c     bncs_multicast.obj
 0002:00003cc0       ??_C@_0BJ@IBEKHMOD@Can?8t?5set?5socket?5options?$AA@ 00423cc0     bncs_multicast.obj
 0002:00003cdc       ??_C@_0N@MMFBGFI@not?5bound?5OK?$AA@ 00423cdc     bncs_multicast.obj
 0002:00003cec       ??_C@_0BG@BMNNCOFD@Can?8t?5set?5TTL?5options?$AA@ 00423cec     bncs_multicast.obj
 0002:00003d04       ??_C@_0BJ@FMCCBJEN@setting?5address?5to?5?$CFx?5?$CFx?$AA@ 00423d04     bncs_multicast.obj
 0002:00003d20       ??_C@_0BP@ICMMAABP@Can?8t?5set?5socket?5options?5mc?5?$CFd?$AA@ 00423d20     bncs_multicast.obj
 0002:00003d40       ??_C@_0BC@MHOFALDM@invalid?5socket?5?$CFs?$AA@ 00423d40     bncs_multicast.obj
 0002:00003d54       ??_C@_0N@IDKBIFOM@1rxdata?$CIint?$CJ?$AA@ 00423d54     bncs_multicast.obj
 0002:00003d64       ??_C@_0BA@HAKGEOGG@2activated?$CIint?$CJ?$AA@ 00423d64     bncs_multicast.obj
 0002:00003d74       ??_C@_0BO@CHLJCLEH@Can?8t?5reset?5socket?5options?5mc?$AA@ 00423d74     bncs_multicast.obj
 0002:00003d94       ??_C@_0BP@EBOIIADL@bncs_multicast?3?3rx?5?$CIdefault?$CJ?5?3?$AA@ 00423d94     bncs_multicast.obj
 0002:00003db8       ??_7bncs_popup@@6BQObject@@@ 00423db8     bncs_popup.obj
 0002:00003f98       ??_7bncs_popup@@6BQPaintDevice@@@ 00423f98     bncs_popup.obj
 0002:00003fbc       ??_7bncs_popup@@6B@        00423fbc     bncs_popup.obj
 0002:00003fdc       ??_C@_0P@GECEDGKP@1aboutToHide?$CI?$CJ?$AA@ 00423fdc     bncs_popup.obj
 0002:00003fec       ??_C@_0P@HFFJFMNG@2aboutToHide?$CI?$CJ?$AA@ 00423fec     bncs_popup.obj
 0002:00003ffc       ??_C@_0BC@LIKPHMPM@1childDestroyed?$CI?$CJ?$AA@ 00423ffc     bncs_popup.obj
 0002:00004010       ??_C@_0N@FGAMGGE@2destroyed?$CI?$CJ?$AA@ 00424010     bncs_popup.obj
 0002:00004024       ??_7IccClientCallback@@6B@ 00424024     Client.obj
 0002:00004054       ??_7CClient@@6BQObject@@@  00424054     Client.obj
 0002:00004208       ??_7CClient@@6BQPaintDevice@@@ 00424208     Client.obj
 0002:0000422c       ??_7CClient@@6B@           0042422c     Client.obj
 0002:00004258       ??_C@_0BH@FOOHIMJH@PM?3?5unregistering?5shim?$AA@ 00424258     Client.obj
 0002:00004270       ??_C@_0BB@LAFHBBLJ@Adjust?5Revertive?$AA@ 00424270     Client.obj
 0002:00004284       ??_C@_0O@PBBBFPN@IW?5?$CFd?5?8?$CFs?8?5?$CFd?$AA@ 00424284     Client.obj
 0002:00004294       ??_C@_0DG@MAFCFKFJ@PM?3?5CClient?3?3registerClient?4?5get@ 00424294     Client.obj
 0002:000042cc       ??_C@_0DC@OEGMIGDJ@PM?3?5CClient?3?3registerClient?5?9?5sh@ 004242cc     Client.obj
 0002:00004304       ??_7CConfirm_Exit@@6BQObject@@@ 00424304     Confirm_Exit.obj
 0002:000044c4       ??_7CConfirm_Exit@@6BQPaintDevice@@@ 004244c4     Confirm_Exit.obj
 0002:000044e4       ??_C@_0CB@MCEPOHLD@panelman?1pm_confirm_exit?4bncs_ui@ 004244e4     Confirm_Exit.obj
 0002:00004508       ??_C@_0M@BONONLJP@confirm_yes?$AA@ 00424508     Confirm_Exit.obj
 0002:00004514       ??_C@_0BF@IIFAKMAP@1confirm?$CI?5QString?5?$CG?$CJ?$AA@ 00424514     Confirm_Exit.obj
 0002:0000452c       ??_C@_0P@JLGALLPM@confirm_cancel?$AA@ 0042452c     Confirm_Exit.obj
 0002:0000453c       ??_C@_0BE@NMPOALIC@1cancel?$CI?5QString?5?$CG?$CJ?$AA@ 0042453c     Confirm_Exit.obj
 0002:00004554       ??_7CExtProcess@@6B@       00424554     ExtProcess.obj
 0002:000045dc       ??_7CLookUp@@6B@           004245dc     LookUp.obj
 0002:000045e0       ??_C@_0CF@HDIAJOBL@bncs_config?5cfgInstances?$CIinstanc@ 004245e0     LookUp.obj
 0002:00004608       ??_C@_09BJOJOOIO@instances?$AA@ 00424608     LookUp.obj
 0002:00004614       ??_C@_04MJHCKDHM@1024?$AA@ 00424614     main.obj
 0002:0000461c       ??_C@_06GCIEACCK@?1size?$DN?$AA@ 0042461c     main.obj
 0002:00004624       ??_C@_0N@LCBNIPDC@PM?3?5?1size?$DN?$CF1?$AA@ 00424624     main.obj
 0002:00004634       ??_C@_06JJJOPNGN@?1load?$DN?$AA@ 00424634     main.obj
 0002:0000463c       ??_C@_0N@CACHECGH@PM?3?5?1load?$DN?$CF1?$AA@ 0042463c     main.obj
 0002:0000464c       ??_C@_07BBNAADON@?1silent?$AA@ 0042464c     main.obj
 0002:00004654       ??_C@_0BC@NLJKEAFH@?1handleexceptions?$AA@ 00424654     main.obj
 0002:00004668       ??_C@_0L@OKHKCOIO@?1instance?$DN?$AA@ 00424668     main.obj
 0002:00004674       ??_C@_0BI@CEGGLPFI@?2windows?2lib?2qt_plugins?$AA@ 00424674     main.obj
 0002:0000468c       ??_C@_07NILBBMKH@?2panels?$AA@ 0042468c     main.obj
 0002:00004694       ??_C@_09PMCDNMAF@1pmQuit?$CI?$CJ?$AA@ 00424694     main.obj
 0002:000046a0       ??_C@_0P@ODDOLDGA@2aboutToQuit?$CI?$CJ?$AA@ 004246a0     main.obj
 0002:000046b0       ??_C@_0CG@ENKGFFNK@?$CK?$CK?5Exception?5?$CK?$CK?5?$CFx?5at?5?$CFx?5accessi@ 004246b0     main.obj
 0002:000046d8       ??_C@_0BK@CCNBGBH@?$CK?$CK?5Exception?5?$CK?$CK?5?$CFx?5at?5?$CFx?5?$AA@ 004246d8     main.obj
 0002:000046f4       ??_C@_08FBEBHDFM@panelman?$AA@ 004246f4     main.obj
 0002:00004700       ??_C@_0HD@IOIFKMLO@Fatal?5Error?6Last?5panel?5was?3?5?$CF1?6?6@ 00424700     main.obj
 0002:00004778       ??_C@_0FM@JKCGKEFK@Fatal?5Error?6Last?5panel?5was?3?5?$CF1?6?6@ 00424778     main.obj
 0002:000047d4       ??_C@_0P@IPKDPJEA@Panelman?5Error?$AA@ 004247d4     main.obj
 0002:000047e4       ??_C@_0BM@PHMJCIII@Fatal?5Error?6Last?5panel?5was?5?$AA@ 004247e4     main.obj
 0002:00004800       ??_C@_0N@FJMDGIHJ@now?5return?5?6?$AA@ 00424800     main.obj
 0002:00004858       ??_C@_0L@MHDIHJOJ@bncs_popup?$AA@ 00424858     moc_bncs_popup.obj
 0002:00004870       ??_C@_0M@NKGGFHDH@aboutToHide?$AA@ 00424870     moc_bncs_popup.obj
 0002:00004888       ??_C@_0P@DPLHFDEK@childDestroyed?$AA@ 00424888     moc_bncs_popup.obj
 0002:000048b0       ??_C@_0O@BHBADGLG@aboutToHide?$CI?$CJ?$AA@ 004248b0     moc_bncs_popup.obj
 0002:000048c0       ??_C@_0BB@IKOMBAMF@childDestroyed?$CI?$CJ?$AA@ 004248c0     moc_bncs_popup.obj
 0002:000048e0       ??_C@_06LHFIAONP@hiding?$AA@ 004248e0     moc_bncs_popup.obj
 0002:000048f4       ??_C@_06LIGDCBBN@notify?$AA@ 004248f4     moc_bncs_popup.obj
 0002:00004914       ??_C@_08JDAAMLDM@hiding?$CI?$CJ?$AA@ 00424914     moc_bncs_popup.obj
 0002:00004920       ??_C@_0BB@KPBBGHKF@notify?$CIQString?$CG?$CJ?$AA@ 00424920     moc_bncs_popup.obj
 0002:00004934       ??_C@_0N@IKGNONIM@32?532?5128?52?5?$AA@ 00424934     PanelMan.obj
 0002:00004944       ??_C@_0N@PKEHNDKL@?5?5?5c?5?$CD6C006C?$AA@ 00424944     PanelMan.obj
 0002:00004954       ??_C@_0N@MNOPDLBJ@?4?5?5c?5?$CD7B017B?$AA@ 00424954     PanelMan.obj
 0002:00004964       ??_C@_0N@OOIFJOKD@X?5?5c?5?$CD7E0A7E?$AA@ 00424964     PanelMan.obj
 0002:00004974       ??_C@_0N@GPGJNNJF@o?5?5c?5?$CD7F117F?$AA@ 00424974     PanelMan.obj
 0002:00004984       ??_C@_0N@KNHIPOKA@O?5?5c?5?$CD830083?$AA@ 00424984     PanelMan.obj
 0002:00004994       ??_C@_0N@PIJBLKCK@?$CL?5?5c?5?$CD810D81?$AA@ 00424994     PanelMan.obj
 0002:000049a4       ??_C@_0N@MEOONKCD@?$EA?5?5c?5?$CD8B018B?$AA@ 004249a4     PanelMan.obj
 0002:000049b4       ??_C@_0N@BGOEBLFL@?$CD?5?5c?5?$CD831383?$AA@ 004249b4     PanelMan.obj
 0002:000049c4       ??_C@_0N@FCOMBLOA@$?5?5c?5?$CD841C84?$AA@ 004249c4     PanelMan.obj
 0002:000049d4       ??_C@_0N@KDLGIMHI@?$CF?5?5c?5?$CD8A1E8A?$AA@ 004249d4     PanelMan.obj
 0002:000049e4       ??_C@_0N@NOIODKCG@?$CG?5?5c?5?$CD920492?$AA@ 004249e4     PanelMan.obj
 0002:000049f4       ??_C@_0N@IKGDDIAG@?$CK?5?5c?5?$CD940B94?$AA@ 004249f4     PanelMan.obj
 0002:00004a04       ??_C@_0N@GPNLNGJJ@?$DN?5?5c?5?$CD9A0D9A?$AA@ 00424a04     PanelMan.obj
 0002:00004a14       ??_C@_0N@NHBGGFDK@?9?5?5c?5?$CD9C129C?$AA@ 00424a14     PanelMan.obj
 0002:00004a24       ??_C@_0N@PIABPEEL@?$DL?5?5c?5?$CD872287?$AA@ 00424a24     PanelMan.obj
 0002:00004a34       ??_C@_0N@DJDFHKAH@?3?5?5c?5?$CD8A238A?$AA@ 00424a34     PanelMan.obj
 0002:00004a44       ??_C@_0N@IHLGPGAF@?$DO?5?5c?5?$CD8B2B8B?$AA@ 00424a44     PanelMan.obj
 0002:00004a54       ??_C@_0N@PKEPOLKK@?0?5?5c?5?$CD8F328F?$AA@ 00424a54     PanelMan.obj
 0002:00004a64       ??_C@_0N@HBEHBAPC@?$DM?5?5c?5?$CD912C91?$AA@ 00424a64     PanelMan.obj
 0002:00004a74       ??_C@_0N@FAFKOAHE@1?5?5c?5?$CD923492?$AA@ 00424a74     PanelMan.obj
 0002:00004a84       ??_C@_0N@PBIANFIF@2?5?5c?5?$CD953B95?$AA@ 00424a84     PanelMan.obj
 0002:00004a94       ??_C@_0N@JJBIEGAO@3?5?5c?5?$CD983998?$AA@ 00424a94     PanelMan.obj
 0002:00004aa4       ??_C@_0N@MKJOINMM@4?5?5c?5?$CDA316A3?$AA@ 00424aa4     PanelMan.obj
 0002:00004ab4       ??_C@_0N@KBBBMFPN@5?5?5c?5?$CDA41BA4?$AA@ 00424ab4     PanelMan.obj
 0002:00004ac4       ??_C@_0N@DABHOHCO@6?5?5c?5?$CDAA1DAA?$AA@ 00424ac4     PanelMan.obj
 0002:00004ad4       ??_C@_0N@HBCIEBE@7?5?5c?5?$CDBA00BA?$AA@ 00424ad4     PanelMan.obj
 0002:00004ae4       ??_C@_0N@FGADGMJN@8?5?5c?5?$CDAD23AD?$AA@ 00424ae4     PanelMan.obj
 0002:00004af4       ??_C@_0N@EPKFKCBC@9?5?5c?5?$CDB42BB4?$AA@ 00424af4     PanelMan.obj
 0002:00004b04       ??_C@_0N@HJLMKCAM@0?5?5c?5?$CDB92CB9?$AA@ 00424b04     PanelMan.obj
 0002:00004b14       ??_C@_0N@OCNGDODB@q?5?5c?5?$CDBB33BB?$AA@ 00424b14     PanelMan.obj
 0002:00004b24       ??_C@_0N@HLEIOHAP@w?5?5c?5?$CDBE3CBE?$AA@ 00424b24     PanelMan.obj
 0002:00004b34       ??_C@_0N@JNFOHEFE@e?5?5c?5?$CD884888?$AA@ 00424b34     PanelMan.obj
 0002:00004b44       ??_C@_0N@NMPGLJJO@r?5?5c?5?$CD8D548D?$AA@ 00424b44     PanelMan.obj
 0002:00004b54       ??_C@_0N@MLHMELIG@t?5?5c?5?$CD9A449A?$AA@ 00424b54     PanelMan.obj
 0002:00004b64       ??_C@_0N@IFEFDEMP@y?5?5c?5?$CD9E4C9E?$AA@ 00424b64     PanelMan.obj
 0002:00004b74       ??_C@_0N@KIHBDKFG@u?5?5c?5?$CD8D6B8D?$AA@ 00424b74     PanelMan.obj
 0002:00004b84       ??_C@_0N@FLMPPBGB@i?5?5c?5?$CD987C98?$AA@ 00424b84     PanelMan.obj
 0002:00004b94       ??_C@_0N@PGFMKCCN@p?5?5c?5?$CDA14AA1?$AA@ 00424b94     PanelMan.obj
 0002:00004ba4       ??_C@_0N@OOCEOGNM@a?5?5c?5?$CDAE4CAE?$AA@ 00424ba4     PanelMan.obj
 0002:00004bb4       ??_C@_0N@HKNNCAL@s?5?5c?5?$CDA454A4?$AA@ 00424bb4     PanelMan.obj
 0002:00004bc4       ??_C@_0N@CNDEKMKE@d?5?5c?5?$CDA75BA7?$AA@ 00424bc4     PanelMan.obj
 0002:00004bd4       ??_C@_0N@MMBNHGJP@f?5?5c?5?$CDAA5DAA?$AA@ 00424bd4     PanelMan.obj
 0002:00004be4       ??_C@_0N@NOMBEEIP@g?5?5c?5?$CDB04AB0?$AA@ 00424be4     PanelMan.obj
 0002:00004bf4       ??_C@_0N@DHNOMFJF@h?5?5c?5?$CDAD64AD?$AA@ 00424bf4     PanelMan.obj
 0002:00004c04       ??_C@_0N@GCKKAMOP@j?5?5c?5?$CDAF68AF?$AA@ 00424c04     PanelMan.obj
 0002:00004c14       ??_C@_0N@OLEMKFBG@k?5?5c?5?$CDB26CB2?$AA@ 00424c14     PanelMan.obj
 0002:00004c24       ??_C@_0N@LICOAAAN@l?5?5c?5?$CDB371B3?$AA@ 00424c24     PanelMan.obj
 0002:00004c34       ??_C@_0N@LICIGILL@z?5?5c?5?$CDB876B8?$AA@ 00424c34     PanelMan.obj
 0002:00004c44       ??_C@_0N@JBAHLHAE@x?5?5c?5?$CDBC7BBC?$AA@ 00424c44     PanelMan.obj
 0002:00004c54       ??_C@_0N@LCHEELFF@c?5?5c?5?$CDC500C5?$AA@ 00424c54     PanelMan.obj
 0002:00004c64       ??_C@_0N@DPEBCKKL@v?5?5c?5?$CDCE00CE?$AA@ 00424c64     PanelMan.obj
 0002:00004c74       ??_C@_0N@HEOKEJPO@b?5?5c?5?$CDDA00DA?$AA@ 00424c74     PanelMan.obj
 0002:00004c84       ??_C@_0N@LDDMHEOG@n?5?5c?5?$CDC43AC4?$AA@ 00424c84     PanelMan.obj
 0002:00004c94       ??_C@_0N@OELMNHME@m?5?5c?5?$CDCB37CB?$AA@ 00424c94     PanelMan.obj
 0002:00004ca4       ??_C@_0N@GBNIEJBO@M?5?5c?5?$CDCC3CCC?$AA@ 00424ca4     PanelMan.obj
 0002:00004cb4       ??_C@_0N@MPMLMENE@N?5?5c?5?$CDD23ED2?$AA@ 00424cb4     PanelMan.obj
 0002:00004cc4       ??_C@_0N@NPCNONAL@B?5?5c?5?$CDEB03EB?$AA@ 00424cc4     PanelMan.obj
 0002:00004cd4       ??_C@_0N@MAKMIBNL@V?5?5c?5?$CDEB0CEB?$AA@ 00424cd4     PanelMan.obj
 0002:00004ce4       ??_C@_0N@JMHFMEHE@C?5?5c?5?$CDE711E7?$AA@ 00424ce4     PanelMan.obj
 0002:00004cf4       ??_C@_0N@NOAOFDOI@Z?5?5c?5?$CDEC13EC?$AA@ 00424cf4     PanelMan.obj
 0002:00004d04       ??_C@_0N@NBKHLFJ@A?5?5c?5?$CDF301F3?$AA@ 00424d04     PanelMan.obj
 0002:00004d14       ??_C@_0N@ENIDEPEG@S?5?5c?5?$CDF70AF7?$AA@ 00424d14     PanelMan.obj
 0002:00004d24       ??_C@_0N@LECLPIOG@D?5?5c?5?$CDFE01FE?$AA@ 00424d24     PanelMan.obj
 0002:00004d34       ??_C@_0N@KCJMJBBD@F?5?5c?5?$CDFC0FFC?$AA@ 00424d34     PanelMan.obj
 0002:00004d44       ??_C@_0N@NAGOIEKF@G?5?5c?5?$CDF412F4?$AA@ 00424d44     PanelMan.obj
 0002:00004d54       ??_C@_0N@DJPLOELN@H?5?5c?5?$CDFC13FC?$AA@ 00424d54     PanelMan.obj
 0002:00004d64       ??_C@_0N@DCJIPBGK@J?5?5c?5?$CDFC1CFC?$AA@ 00424d64     PanelMan.obj
 0002:00004d74       ??_C@_0N@BEJAHFKC@K?5?5c?5?$CDFC28FC?$AA@ 00424d74     PanelMan.obj
 0002:00004d84       ??_C@_0N@HEKOGAHD@L?5?5c?5?$CDFB35FB?$AA@ 00424d84     PanelMan.obj
 0002:00004d94       ??_C@_0N@LBNPKKH@P?5?5c?5?$CDCD40CD?$AA@ 00424d94     PanelMan.obj
 0002:00004da4       ??_C@_0N@BFMDLIB@I?5?5c?5?$CDD344D3?$AA@ 00424da4     PanelMan.obj
 0002:00004db4       ??_C@_0N@PADBJJIL@U?5?5c?5?$CDD649D6?$AA@ 00424db4     PanelMan.obj
 0002:00004dc4       ??_C@_0N@EELBOCGO@Y?5?5c?5?$CDDA46DA?$AA@ 00424dc4     PanelMan.obj
 0002:00004dd4       ??_C@_0N@CAICBBDH@T?5?5c?5?$CDDC4CDC?$AA@ 00424dd4     PanelMan.obj
 0002:00004de4       ??_C@_0N@PMDCMLNG@R?5?5c?5?$CDDE51DE?$AA@ 00424de4     PanelMan.obj
 0002:00004df4       ??_C@_0N@FJJKLGHP@E?5?5c?5?$CDD365D3?$AA@ 00424df4     PanelMan.obj
 0002:00004e04       ??_C@_0N@BBGALGLM@W?5?5c?5?$CDDC64DC?$AA@ 00424e04     PanelMan.obj
 0002:00004e14       ??_C@_0N@EJCJAKKI@Q?5?5c?5?$CDE24EE2?$AA@ 00424e14     PanelMan.obj
 0002:00004e24       ??_C@_0N@JNDNNMPO@?$CB?5?5c?5?$CDE454E4?$AA@ 00424e24     PanelMan.obj
 0002:00004e34       ??_C@_0N@CLFGGDOG@?$HO?5?5c?5?$CDE558E5?$AA@ 00424e34     PanelMan.obj
 0002:00004e44       ??_C@_0N@LBDFHPLJ@?$FO?5?5c?5?$CDE955E9?$AA@ 00424e44     PanelMan.obj
 0002:00004e54       ??_C@_0N@FPNGPNEG@?1?5?5c?5?$CDEC5BEC?$AA@ 00424e54     PanelMan.obj
 0002:00004e64       ??_C@_0N@GPIDLHLI@?$CI?5?5c?5?$CDF15DF1?$AA@ 00424e64     PanelMan.obj
 0002:00004e74       ??_C@_0N@CLOBJGCD@?$CJ?5?5c?5?$CDED60ED?$AA@ 00424e74     PanelMan.obj
 0002:00004e84       ??_C@_0N@KJCBHCNO@_?5?5c?5?$CDF464F4?$AA@ 00424e84     PanelMan.obj
 0002:00004e94       ??_C@_0N@MPDCKEKG@?$GA?5?5c?5?$CD8A878A?$AA@ 00424e94     PanelMan.obj
 0002:00004ea4       ??_C@_0M@CLGAJNFM@?8?5?5c?5gray59?$AA@ 00424ea4     PanelMan.obj
 0002:00004eb0       ??_C@_0N@GEOJFEJM@?$FN?5?5c?5?$CD9D9B9D?$AA@ 00424eb0     PanelMan.obj
 0002:00004ec0       ??_C@_0N@KIHKDBLC@?$FL?5?5c?5?$CDB689B6?$AA@ 00424ec0     PanelMan.obj
 0002:00004ed0       ??_C@_0N@MFKCOMIH@?$HL?5?5c?5?$CDBC82BC?$AA@ 00424ed0     PanelMan.obj
 0002:00004ee0       ??_C@_0N@LCEGLEFL@?$HN?5?5c?5?$CDBC89BC?$AA@ 00424ee0     PanelMan.obj
 0002:00004ef0       ??_C@_0N@BALHMBPM@?$HM?5?5c?5?$CDBF93BF?$AA@ 00424ef0     PanelMan.obj
 0002:00004f00       ??_C@_0N@MLFJCEBM@?5?4?5c?5?$CDA4A3A4?$AA@ 00424f00     PanelMan.obj
 0002:00004f10       ??_C@_0N@LHONNCGI@?4?4?5c?5?$CDA9A7A9?$AA@ 00424f10     PanelMan.obj
 0002:00004f20       ??_C@_0N@FMDDHMKA@X?4?5c?5?$CDABABAB?$AA@ 00424f20     PanelMan.obj
 0002:00004f30       ??_C@_0N@NCIGADKO@o?4?5c?5?$CDB5B5B5?$AA@ 00424f30     PanelMan.obj
 0002:00004f40       ??_C@_0N@OBEJACDG@O?4?5c?5?$CDBBBBBB?$AA@ 00424f40     PanelMan.obj
 0002:00004f50       ??_C@_0N@EEJIOGGM@?$CL?4?5c?5?$CDC185C1?$AA@ 00424f50     PanelMan.obj
 0002:00004f60       ??_C@_0N@MOEMBJCH@?$EA?4?5c?5?$CDC48CC4?$AA@ 00424f60     PanelMan.obj
 0002:00004f70       ??_C@_0N@OFMPJDLG@?$CD?4?5c?5?$CDCC92CC?$AA@ 00424f70     PanelMan.obj
 0002:00004f80       ??_C@_0N@JOMIFJBF@$?4?5c?5?$CDCA9ACA?$AA@ 00424f80     PanelMan.obj
 0002:00004f90       ??_C@_0N@BIKHFCCP@?$CF?4?5c?5?$CDD29BD2?$AA@ 00424f90     PanelMan.obj
 0002:00004fa0       ??_C@_0N@KDPEGANO@?$CG?4?5c?5?$CDCEA1CE?$AA@ 00424fa0     PanelMan.obj
 0002:00004fb0       ??_C@_0N@PHLBAJAJ@?$CK?4?5c?5?$CDD3A3D3?$AA@ 00424fb0     PanelMan.obj
 0002:00004fc0       ??_C@_0N@IAANACBF@?$DN?4?5c?5?$CDD1AAD1?$AA@ 00424fc0     PanelMan.obj
 0002:00004fd0       ??_C@_0N@PENNJLGB@?9?4?5c?5?$CDD9A5D9?$AA@ 00424fd0     PanelMan.obj
 0002:00004fe0       ??_C@_0N@MNGEBNDH@?$DL?4?5c?5?$CDD8B4D8?$AA@ 00424fe0     PanelMan.obj
 0002:00004ff0       ??_C@_0N@JJHDODEM@?3?4?5c?5?$CDDBBCDB?$AA@ 00424ff0     PanelMan.obj
 0002:00005000       ??_C@_0N@JMCIEBDF@?$DO?4?5c?5?$CDF183F1?$AA@ 00425000     PanelMan.obj
 0002:00005010       ??_C@_0N@CCOPDDHJ@?0?4?5c?5?$CDC4C4C4?$AA@ 00425010     PanelMan.obj
 0002:00005020       ??_C@_0N@KOOFLIKL@?$DM?4?5c?5?$CDCCCBCC?$AA@ 00425020     PanelMan.obj
 0002:00005030       ??_C@_0N@GPKEDFLE@1?4?5c?5?$CDDFC2DF?$AA@ 00425030     PanelMan.obj
 0002:00005040       ??_C@_0N@BOMGGNAI@2?4?5c?5?$CDD4D4D4?$AA@ 00425040     PanelMan.obj
 0002:00005050       ??_C@_0N@CJBKHLGB@3?4?5c?5?$CDDBDBDB?$AA@ 00425050     PanelMan.obj
 0002:00005060       ??_C@_0N@DOLAANNF@4?4?5c?5?$CDE1C5E1?$AA@ 00425060     PanelMan.obj
 0002:00005070       ??_C@_0N@IAMIEOOG@5?4?5c?5?$CDE4CCE4?$AA@ 00425070     PanelMan.obj
 0002:00005080       ??_C@_0N@ODKNLHEC@6?4?5c?5?$CDE7D1E7?$AA@ 00425080     PanelMan.obj
 0002:00005090       ??_C@_0N@KNGMNCAL@7?4?5c?5?$CDE9D4E9?$AA@ 00425090     PanelMan.obj
 0002:000050a0       ??_C@_0N@MMAOLOAG@8?4?5c?5?$CDEDDDED?$AA@ 004250a0     PanelMan.obj
 0002:000050b0       ??_C@_0N@GDNKJKJI@9?4?5c?5?$CDE4E4E4?$AA@ 004250b0     PanelMan.obj
 0002:000050c0       ??_C@_0N@DAMOLAJJ@0?4?5c?5?$CDEFE0EF?$AA@ 004250c0     PanelMan.obj
 0002:000050d0       ??_C@_0N@EOFJCDD@q?4?5c?5?$CDECECEC?$AA@ 004250d0     PanelMan.obj
 0002:000050e0       ??_C@_0N@DNBFCPFH@w?4?5c?5?$CDF2E6F2?$AA@ 004250e0     PanelMan.obj
 0002:000050f0       ??_C@_0N@OHOLMKBH@e?4?5c?5?$CDF5ECF5?$AA@ 004250f0     PanelMan.obj
 0002:00005100       ??_C@_0N@KPLJJBLE@r?4?5c?5?$CDF6F3F6?$AA@ 00425100     PanelMan.obj
 0002:00005110       ??_C@_0N@FMGOMDPN@t?4?5c?5?$CDFAF5FA?$AA@ 00425110     PanelMan.obj
 0002:00005120       ??_C@_0N@CCDJKFGA@y?4?5c?5?$CDFFFEFF?$AA@ 00425120     PanelMan.obj
 0002:00005130       ??_C@_09NMOHMJMJ@u?4?5c?5None?$AA@ 00425130     PanelMan.obj
 0002:00005140       ??_C@_0EB@ILGPOCCC@u?4u?4u?4u?4u?4u?4?$DO?4_?5?$CI?5_?5_?5?$CI?5_?5?$CI?5_?5?$CI?5@ 00425140     PanelMan.obj
 0002:00005188       ??_C@_0EB@OFMAHOAI@u?4u?4u?4u?4u?4?$DO?4L?5F?5Z?5V?5S?5B?5B?5Z?5V?5B?5@ 00425188     PanelMan.obj
 0002:000051d0       ??_C@_0EB@DLGMCKJJ@u?4u?4u?4u?4?$DO?4K?5H?5?9?5?$CL?5?$CD?5?$CL?5?$CL?5?$CL?5?$CD?5?$CD?5?$CL?5@ 004251d0     PanelMan.obj
 0002:00005218       ??_C@_0EB@GPPAANIK@u?4u?4u?4?$DO?4J?5S?5?9?5X?5?4?5?$CD?5?$CD?5?4?5?$CD?5?$CD?5?$CD?5?$CD?5@ 00425218     PanelMan.obj
 0002:00005260       ??_C@_0EB@MAMJCJA@u?4u?4?$DO?4J?5A?5?9?5?$CD?5?$CD?5?$CD?5?$CD?5?$CL?5?4?5?$CD?5?$CL?5?$CD?5?$CD?5@ 00425260     PanelMan.obj
 0002:000052a8       ??_C@_0EB@MEJFCFFD@u?4?$DO?4H?5A?5?$CG?5?$CD?5?$CD?5X?5?$CL?5?$CD?5?$CL?5?$CL?5?$CD?5?$CL?5?$CL?5?$CD?5@ 004252a8     PanelMan.obj
 0002:000052f0       ??_C@_0EB@MAAIEHML@?$DO?4H?5A?5?$EA?5X?5?$CD?5?$CL?5?4?5?4?5?$CD?5?$CD?5?$CL?5?$CD?5?4?5?4?5?$CD?5@ 004252f0     PanelMan.obj
 0002:00005338       ??_C@_0EB@COGPINMO@_?5D?5?$EA?5?4?5?$CL?5?$CD?5?$CL?5X?5?$CL?5?$CD?5?$CL?5?$CD?5?$CD?5?4?5?4?5?$CL?5@ 00425338     PanelMan.obj
 0002:00005380       ??_C@_0EB@KOMDBAJC@_?5A?5?4?5?4?5?$CD?5w?48?48?48?46?44?4$?4t?5?4?5?4?5?$CL?5@ 00425380     PanelMan.obj
 0002:000053c8       ??_C@_0EB@LGGFIFEA@_?5A?5?4?5?4?5?4?5y?4y?4y?4y?4y?4y?4y?4y?4$?4?4?5?4?5@ 004253c8     PanelMan.obj
 0002:00005410       ??_C@_0EB@JNIMKEFO@_?5A?5?4?5?4?5?4?5y?4y?45?4d?5k?5?$CG?4t?4y?4y?4h?5?4?5@ 00425410     PanelMan.obj
 0002:00005458       ??_C@_0EB@BLOLDEID@_?5B?5?4?5?4?5X?5y?4y?4?$DL?4?4?5?4?5?4?5d?5y?4y?44?4?4?5@ 00425458     PanelMan.obj
 0002:000054a0       ??_C@_0EB@KBKHFKJL@_?5A?5?4?5?4?5?4?5y?4y?4?$DL?4?4?5?4?5?4?5?4?5t?4y?4w?4?4?5@ 004254a0     PanelMan.obj
 0002:000054e8       ??_C@_0EB@JDEBGDIH@_?5A?5?4?5?4?5?4?5y?4y?4?$DL?4?4?5?4?5?4?5X?5t?4y?48?4?4?5@ 004254e8     PanelMan.obj
 0002:00005530       ??_C@_0EB@FEKGFGGP@_?5A?5?4?5?4?5?4?5y?4y?4?$DL?4?4?5?4?5?4?5h?5y?4y?4?$CG?4?4?5@ 00425530     PanelMan.obj
 0002:00005578       ??_C@_0EB@NBDADLDI@_?5A?5?4?5?4?5X?5y?4y?46?4h?5k?5?$CG?4y?4y?4y?43?5?4?5@ 00425578     PanelMan.obj
 0002:000055c0       ??_C@_0EB@JKCHLGIH@?$CJ?5A?5?4?5?4?5X?5y?4y?4y?4y?4y?4y?4y?4r?4d?5?4?5?4?5@ 004255c0     PanelMan.obj
 0002:00005608       ??_C@_0EB@DEBKGPDG@?$CJ?5A?5?4?5?4?5?4?5y?4y?4r?48?48?4?3?4?$HL?5?$CF?5?4?5?4?5?4?5@ 00425608     PanelMan.obj
 0002:00005650       ??_C@_0EB@FEABLMNB@?1?5A?5?4?5?4?5?4?5y?4y?4?$DL?4?4?5?4?5?4?5?4?5?4?5?4?5?4?5?4?5@ 00425650     PanelMan.obj
 0002:00005698       ??_C@_0EB@BKDPFNAB@?$HO?5A?5?4?5?4?5X?5y?4y?4?$DL?4?4?5?4?5?4?5?4?5?4?5?4?5?4?5?4?5@ 00425698     PanelMan.obj
 0002:000056e0       ??_C@_0EB@HCJBNFFI@?$HO?5A?5?4?5?4?5X?5y?4y?4?$DL?4?4?5?4?5?4?5?4?5?4?5?4?5?4?5X?5@ 004256e0     PanelMan.obj
 0002:00005728       ??_C@_0EB@ODBLLPNH@?$HO?5A?5?4?5?4?5?4?5y?4y?4?$DL?4?4?5?4?5?4?5?4?5?4?5X?5o?5o?5@ 00425728     PanelMan.obj
 0002:00005770       ??_C@_0EB@CNJDFBFI@R?5A?5?4?5?4?5?4?5z?5z?5s?5X?5X?5X?5X?5o?5$?5$?5?$DL?5@ 00425770     PanelMan.obj
 0002:000057b8       ??_C@_0EB@ODGNCLAM@T?5B?5?4?5?4?5?4?5?4?5?4?5X?5X?5o?5o?5o?5$?5?$DL?5?3?5?$DO?5@ 004257b8     PanelMan.obj
 0002:00005800       ??_C@_0EB@LGBEGLPF@T?5A?5?4?5?4?5X?5X?5X?5o?5o?5?$DL?5?$DL?5?$DO?5?$DO?5?0?51?53?5@ 00425800     PanelMan.obj
 0002:00005848       ??_C@_0EB@IPNFEFKI@U?5A?5?4?5X?5o?5o?5$?5?$DL?5?$DL?5?$DO?5?$DO?5e?5?$FN?5?5?4u?5p?5@ 00425848     PanelMan.obj
 0002:00005890       ??_C@_0EB@GLFJGHDH@I?5A?5o?5?$CD?5$?5?$DL?5?$DL?5?$DO?5?0?51?52?5r?5?0?42?4?$GA?5f?5@ 00425890     PanelMan.obj
 0002:000058d8       ??_C@_0EB@KIHEIFKJ@P?5C?5?$GA?5?$FN?5?$FN?5?$FN?5?$FN?5?$FN?5?5?4?5?4?4?4X?4?$DM?42?4O?4O?4@ 004258d8     PanelMan.obj
 0002:00005920       ??_C@_0EB@IIADBLFN@P?5C?5X?4?0?4?0?4?$DM?4?$DM?4?$DM?42?4?$DM?42?43?43?43?49?49?4@ 00425920     PanelMan.obj
 0002:00005968       ??_C@_0EB@GJOCBCGF@M?5C?5?8?5X?4X?4X?4o?4o?4o?4o?4O?4O?4?0?4?0?4?$DM?4?$DM?4@ 00425968     PanelMan.obj
 0002:000059b0       ??_C@_0EB@CABNDLHA@n?5D?5C?5C?5Z?5Z?5Z?5Z?5Z?5Z?5Z?5G?5C?5Z?5Z?5Z?5@ 004259b0     PanelMan.obj
 0002:000059f8       ??_C@_0EB@JPBCGIBA@a?5w?5q?5q?59?59?58?58?58?55?55?5?$DM?5?9?5?9?5?$CK?5?$CK?5@ 004259f8     PanelMan.obj
 0002:00005a44       ??_SQVBoxLayout@@6BQObject@@@ 00425a44     PanelMan.obj
 0002:00005aac       ??_SQVBoxLayout@@6BQLayoutItem@@@ 00425aac     PanelMan.obj
 0002:00005af4       ??_SQListBox@@6BQObject@@@ 00425af4     PanelMan.obj
 0002:00005d9c       ??_SQListBox@@6BQPaintDevice@@@ 00425d9c     PanelMan.obj
 0002:00005dc0       ??_7CPanelMan@@6BQObject@@@ 00425dc0     PanelMan.obj
 0002:00005f74       ??_7CPanelMan@@6BQPaintDevice@@@ 00425f74     PanelMan.obj
 0002:00005f94       ??_C@_0BG@DMBPNDE@PM?3?5?1?1?1?1?1?1?1?1?1?1?1?1?1?1?1?1?1?$AA@ 00425f94     PanelMan.obj
 0002:00005fac       ??_C@_0BG@GDAFGEJI@PM?3?5PanelMan?5Starting?$AA@ 00425fac     PanelMan.obj
 0002:00005fc4       ??_C@_0O@IEDIFPDK@PM?3?5size?5?$DN?5?$CF1?$AA@ 00425fc4     PanelMan.obj
 0002:00005fd4       ??_C@_0BP@KAPCJDCD@PM?3?5PanelMan?5setting?5style?5to?5?$AA@ 00425fd4     PanelMan.obj
 0002:00005ff4       ??_C@_08MOKNMEDG@pm_title?$AA@ 00425ff4     PanelMan.obj
 0002:00006000       ??_C@_09JAACPJFB@pm_status?$AA@ 00426000     PanelMan.obj
 0002:0000600c       ??_C@_06HIIGDFPE@pm_app?$AA@ 0042600c     PanelMan.obj
 0002:00006014       ??_C@_0CF@PCCCOOJL@PM?3?5CPanelMan?5calling?5pba?9?$DOsetUs@ 00426014     PanelMan.obj
 0002:0000603c       ??_C@_0CH@FIEJCMDB@PM?3?5Failed?5to?5load?5a?5pm?5bncs_ui?5@ 0042603c     PanelMan.obj
 0002:00006064       ??_C@_0BI@KALNCCDL@PM?3?5PanelMan?5Started?5OK?$AA@ 00426064     PanelMan.obj
 0002:0000607c       ??_C@_0BK@IIKKAHGL@PM?3?5CPanelMan?3?3?$HOCPanelMan?$AA@ 0042607c     PanelMan.obj
 0002:00006098       ??_C@_0BK@DFEAEHBJ@PM?3?5Deleting?5Client?5Class?$AA@ 00426098     PanelMan.obj
 0002:000060b4       ??_C@_0N@ENLBDDCH@CC_DEVELOPER?$AA@ 004260b4     PanelMan.obj
 0002:000060c4       ??_C@_0BB@BEIOAEPF@PM?3?5CC_SYSTEM?$DN?$CF1?$AA@ 004260c4     PanelMan.obj
 0002:000060d8       ??_C@_04MEMAJGDJ@name?$AA@ 004260d8     PanelMan.obj
 0002:000060e0       ??_C@_05IHAFCALK@Style?$AA@ 004260e0     PanelMan.obj
 0002:000060e8       ??_C@_06CPCBHFIH@Styles?$AA@ 004260e8     PanelMan.obj
 0002:000060f0       ??_C@_0M@EPGPPEKP@bncs_style3?$AA@ 004260f0     PanelMan.obj
 0002:000060fc       ??_C@_07FGAAFDHC@NUFFINK?$AA@ 004260fc     PanelMan.obj
 0002:00006104       ??_C@_0N@CAHKGIIL@DefaultTitle?$AA@ 00426104     PanelMan.obj
 0002:00006114       ??_C@_05PABKJLOM@Title?$AA@ 00426114     PanelMan.obj
 0002:0000611c       ??_C@_04IDGPBBML@BNCS?$AA@ 0042611c     PanelMan.obj
 0002:00006124       ??_C@_0BE@IIKIKCJ@workstation_tracker?$AA@ 00426124     PanelMan.obj
 0002:00006138       ??_C@_0N@FJFECOOC@dev_?$CF03d?4ini?$AA@ 00426138     PanelMan.obj
 0002:00006148       ??_C@_0BA@MKLJNGGC@?2config?2system?2?$AA@ 00426148     PanelMan.obj
 0002:00006158       ??_C@_0M@KAJNMODM@WS_Man_Text?$AA@ 00426158     PanelMan.obj
 0002:00006164       ??_C@_09EPBPIOK@WSTracker?$AA@ 00426164     PanelMan.obj
 0002:00006170       ??_C@_03EAHPLIF@PIN?$AA@   00426170     PanelMan.obj
 0002:00006174       ??_C@_0M@EKMDDPG@Engineering?$AA@ 00426174     PanelMan.obj
 0002:00006180       ??_C@_08GGAEICMD@05c85bca?$AA@ 00426180     PanelMan.obj
 0002:0000618c       ??_C@_04GAOAGNCM@?4xml?$AA@ 0042618c     PanelMan.obj
 0002:00006194       ??_C@_08JHDOFJNE@?2config?2?$AA@ 00426194     PanelMan.obj
 0002:000061a0       ??_C@_0BK@BIKMGOMB@PM?3?5closing?5Panel?5Manager?$AA@ 004261a0     PanelMan.obj
 0002:000061c0       ??_7CSimpleBar@@6BQObject@@@ 004261c0     SimpleBar.obj
 0002:00006378       ??_7CSimpleBar@@6BQPaintDevice@@@ 00426378     SimpleBar.obj
 0002:00006398       ??_C@_0BF@KPFBENIL@pm?3?5init?5?$CF1?5using?5?$CF2?$AA@ 00426398     SimpleBar.obj
 0002:000063b0       ??_C@_0BC@HDMGLDJO@SystemExclamation?$AA@ 004263b0     SimpleBar.obj
 0002:000063c4       ??_C@_0BH@NDIJCKOK@PM?3?5eventSimpleBar?5id?$DN?$AA@ 004263c4     SimpleBar.obj
 0002:000063dc       ??_C@_07OFDADDNC@return?$DN?$AA@ 004263dc     SimpleBar.obj
 0002:000063e4       ??_C@_09IILMPLJM@NOT_FOUND?$AA@ 004263e4     SimpleBar.obj
 0002:000063f4       ??_SQWidget@@6BQObject@@@  004263f4     StartPop.obj
 0002:000065a8       ??_SQWidget@@6BQPaintDevice@@@ 004265a8     StartPop.obj
 0002:000065cc       ??_SQPopupMenu@@6BQObject@@@ 004265cc     StartPop.obj
 0002:000067ac       ??_SQPopupMenu@@6BQPaintDevice@@@ 004267ac     StartPop.obj
 0002:000067d0       ??_SQPopupMenu@@6B@        004267d0     StartPop.obj
 0002:000067f4       ??_SQTimer@@6B@            004267f4     StartPop.obj
 0002:00006848       ??_7CStartPop@@6BQObject@@@ 00426848     StartPop.obj
 0002:000069fc       ??_7CStartPop@@6BQPaintDevice@@@ 004269fc     StartPop.obj
 0002:00006a1c       ??_C@_01NBENCBCI@?$CK?$AA@ 00426a1c     StartPop.obj
 0002:00006a24       ??_SQLabel@@6BQObject@@@   00426a24     StartPop.obj
 0002:00006c1c       ??_SQLabel@@6BQPaintDevice@@@ 00426c1c     StartPop.obj
 0002:00006c3c       ??_C@_0CH@NOMGIJCG@PM?3?5CStartPop?3?3notify?$DN?8?$CF1?8?5sende@ 00426c3c     StartPop.obj
 0002:00006c64       ??_C@_0L@NIIOMHJP@start_quit?$AA@ 00426c64     StartPop.obj
 0002:00006c70       ??_C@_0O@KMFEDKMB@start_restart?$AA@ 00426c70     StartPop.obj
 0002:00006c80       ??_C@_0BD@JNJNKNJN@start_clean_screen?$AA@ 00426c80     StartPop.obj
 0002:00006c94       ??_C@_0BA@IINOHMNH@start_calibrate?$AA@ 00426c94     StartPop.obj
 0002:00006ca4       ??_C@_0P@LNKAGNGN@cancel_eng_pin?$AA@ 00426ca4     StartPop.obj
 0002:00006cb4       ??_C@_04PJELPHBF@pin_?$AA@ 00426cb4     StartPop.obj
 0002:00006cbc       ??_C@_0BP@FNCKHOMF@PM?3?5CStartPop?3?3?5pin?5entry?5?8?$CF1?8?$AA@ 00426cbc     StartPop.obj
 0002:00006cdc       ??_C@_01IDAFKMJL@_?$AA@    00426cdc     StartPop.obj
 0002:00006ce0       ??_C@_0CG@NDHCGGGE@PM?3?5CStartPop?3?3?5widPINDisplay?5no@ 00426ce0     StartPop.obj
 0002:00006d08       ??_C@_0BF@MMECHGDH@strPINBufferMD5?5?$DN?5?$CFs?$AA@ 00426d08     StartPop.obj
 0002:00006d20       ??_C@_0O@KONPBPHF@start_engmenu?$AA@ 00426d20     StartPop.obj
 0002:00006d30       ??_C@_0CG@CBJADGOK@PM?3?5CStartPop?3?3notify?$CI?$CJ?5?9?5switch@ 00426d30     StartPop.obj
 0002:00006d58       ??_C@_0BC@PAGKLMNE@BNCS?5?9?5Registered?$AA@ 00426d58     StartPop.obj
 0002:00006d6c       ??_C@_0BL@NPBCJMIM@PM?3?5CStartPop?3?3showStart?$CI?$CJ?$AA@ 00426d6c     StartPop.obj
 0002:00006d88       ??_C@_0BK@IFGHAGCJ@panelman?1pm_start?4bncs_ui?$AA@ 00426d88     StartPop.obj
 0002:00006da4       ??_C@_0N@CNMLCJPM@pm_start?4png?$AA@ 00426da4     StartPop.obj
 0002:00006db4       ??_C@_0P@JOGLHKDB@start_panelset?$AA@ 00426db4     StartPop.obj
 0002:00006dc4       ??_C@_0BE@IDKKDFML@colour?4text?$DN?$CDffffff?$AA@ 00426dc4     StartPop.obj
 0002:00006dd8       ??_C@_0BK@BKJICDCP@colour?4background?$DN?$CD000000?$AA@ 00426dd8     StartPop.obj
 0002:00006df4       ??_C@_0L@FHCFGAGB@start_user?$AA@ 00426df4     StartPop.obj
 0002:00006e00       ??_C@_0N@MLDCHDED@start_wsname?$AA@ 00426e00     StartPop.obj
 0002:00006e10       ??_C@_0M@HFDHFBML@start_wsnum?$AA@ 00426e10     StartPop.obj
 0002:00006e1c       ??_C@_0O@DAAFNJJJ@start_version?$AA@ 00426e1c     StartPop.obj
 0002:00006e2c       ??_C@_09FNBLEPBD@text?$DN?5v?$CF1?$AA@ 00426e2c     StartPop.obj
 0002:00006e38       ??_C@_0M@HNAADHLE@ws_man_text?$AA@ 00426e38     StartPop.obj
 0002:00006e44       ??_C@_0O@MLHPEHIA@text?$DNClear?5?5?5?$AA@ 00426e44     StartPop.obj
 0002:00006e54       ??_C@_0O@KIGFKLJJ@start_address?$AA@ 00426e54     StartPop.obj
 0002:00006e64       ??_C@_0BI@LGPKGONG@text?$DNSwitch?5to?5Eng?5Menu?$AA@ 00426e64     StartPop.obj
 0002:00006e7c       ??_C@_0BJ@EALNAFCO@text?$DNReturn?5to?5Main?5Menu?$AA@ 00426e7c     StartPop.obj
 0002:00006e98       ??_C@_03NIBMKKKC@?5?1?5?$AA@ 00426e98     StartPop.obj
 0002:00006e9c       ??_C@_0BO@CFGMNFPC@panelman?1pm_popup_pin?4bncs_ui?$AA@ 00426e9c     StartPop.obj
 0002:00006ebc       ??_C@_0BG@HGINJFFA@PM?3?5Initialising?5?8?$CF1?8?$AA@ 00426ebc     StartPop.obj
 0002:00006ed4       ??_C@_0M@ICJGNLLI@display_pin?$AA@ 00426ed4     StartPop.obj
 0002:00006ee0       ??_C@_0BP@PADCAKFN@PM?3?5pin?5popup?5?9?5no?5return?5?$CI?$CFd?$CJ?$AA@ 00426ee0     StartPop.obj
 0002:00006f00       ??_C@_0BN@LDFKOPFM@PM?3?5Failed?5to?5load?5popup?5pin?$AA@ 00426f00     StartPop.obj
 0002:00006f20       ??_C@_0BO@FIGDMFOG@panelman?1clean_background?4png?$AA@ 00426f20     StartPop.obj
 0002:00006f40       ??_C@_0BC@NPDHNDCJ@1slotCleanCount?$CI?$CJ?$AA@ 00426f40     StartPop.obj
 0002:00006f54       ??_C@_0L@CHKJBFLD@2timeout?$CI?$CJ?$AA@ 00426f54     StartPop.obj
 0002:00006f60       ??_C@_0BN@MGODHPGK@?$DMcenter?$DO?$DMh1?$DO?$CF1?$DM?1h1?$DO?$DM?1center?$DO?$AA@ 00426f60     StartPop.obj
 0002:00006f80       ??_C@_0BP@HAKNJDPA@PM?3?5CStartPop?3?3?5slotCleanCount?$AA@ 00426f80     StartPop.obj
 0002:00006fa0       ??_C@_0BI@BBCBNKMG@workstation_settings?4?$CF1?$AA@ 00426fa0     StartPop.obj
 0002:00006fb8       ??_C@_0M@HPKCOFGI@touchscreen?$AA@ 00426fb8     StartPop.obj
 0002:00006fc4       ??_C@_05MFEJDJP@value?$AA@ 00426fc4     StartPop.obj
 0002:00006fcc       ??_C@_0BF@JOBBFJCK@touchscreen_work_dir?$AA@ 00426fcc     StartPop.obj
 0002:00006fe4       ??_C@_0CM@OPLCGDP@PM?3?5Cannot?5start?5touch?5screen?5so@ 00426fe4     StartPop.obj
 0002:00007010       ??_C@_0DF@JCJCBMFF@rundll32?4exe?5shell32?4dll?0Control@ 00427010     StartPop.obj
 0002:00007048       ??_C@_0EG@BMONLKID@PM?3?5Cannot?5start?5rundll32?4exe?5sh@ 00427048     StartPop.obj
 0002:00007090       ??_C@_0DF@IKIBPJFJ@rundll32?4exe?5shell32?4dll?0Control@ 00427090     StartPop.obj
 0002:000070c8       ??_C@_0EG@MPGFAKAP@PM?3?5Cannot?5start?5rundll32?4exe?5sh@ 004270c8     StartPop.obj
 0002:00007114       ??_7CStatusBar@@6BQObject@@@ 00427114     StatusBar.obj
 0002:000072cc       ??_7CStatusBar@@6BQPaintDevice@@@ 004272cc     StatusBar.obj
 0002:000072ec       ??_C@_0BH@JBBAEDJE@PM?3?5eventStatusBar?5id?$DN?$AA@ 004272ec     StatusBar.obj
 0002:00007308       ??_7CTitleBar@@6BQObject@@@ 00427308     TitleBar.obj
 0002:000074c0       ??_7CTitleBar@@6BQPaintDevice@@@ 004274c0     TitleBar.obj
 0002:000074e0       ??_C@_0P@JDDHIJED@title_time_utc?$AA@ 004274e0     TitleBar.obj
 0002:000074f0       ??_C@_0BB@PMIEMEAJ@title_time_local?$AA@ 004274f0     TitleBar.obj
 0002:00007504       ??_C@_0P@BOFEAJJK@title_date_utc?$AA@ 00427504     TitleBar.obj
 0002:00007514       ??_C@_0BB@EBMGLEBM@title_date_local?$AA@ 00427514     TitleBar.obj
 0002:00007528       ??_C@_0P@IIBLHDDH@1updateClock?$CI?$CJ?$AA@ 00427528     TitleBar.obj
 0002:00007538       ??_C@_0CD@EPJEJNLH@PM?3?5sender?$CI?$CJ?9?$DOname?$CI?$CJ?$DN?$CF1?5message?$DN@ 00427538     TitleBar.obj
 0002:0000755c       ??_C@_0O@DJEIEMEN@title_caption?$AA@ 0042755c     TitleBar.obj
 0002:00007570       ??_7wait@@6BQObject@@@     00427570     waitimpl.obj
 0002:00007724       ??_7wait@@6BQPaintDevice@@@ 00427724     waitimpl.obj
 0002:00007744       ??_C@_0BJ@GOFODFFJ@panelman?1pm_wait?4bncs_ui?$AA@ 00427744     waitimpl.obj
 0002:00007760       ??_C@_07EIECFMIO@CAppBar?$AA@ 00427760     moc_AppBar.obj
 0002:00007774       ??_C@_0P@IOKECBA@getCurrentMenu?$AA@ 00427774     moc_AppBar.obj
 0002:00007790       ??_C@_05JLNEMJLN@dummy?$AA@ 00427790     moc_AppBar.obj
 0002:00007798       ??_C@_07ONPBMBOP@message?$AA@ 00427798     moc_AppBar.obj
 0002:000077c4       ??_C@_0M@POAODNGH@slotPressed?$AA@ 004277c4     moc_AppBar.obj
 0002:0000780c       ??_C@_0BB@KAAILCLE@getCurrentMenu?$CI?$CJ?$AA@ 0042780c     moc_AppBar.obj
 0002:00007820       ??_C@_07MBMLLJIG@dummy?$CI?$CJ?$AA@ 00427820     moc_AppBar.obj
 0002:00007828       ??_C@_0BB@LNJEKNAJ@popupDestroyed?$CI?$CJ?$AA@ 00427828     moc_AppBar.obj
 0002:0000783c       ??_C@_0O@MMMHMM@slotPressed?$CI?$CJ?$AA@ 0042783c     moc_AppBar.obj
 0002:0000784c       ??_C@_0L@GFIJHHFE@CAppSwitch?$AA@ 0042784c     moc_AppSwitch.obj
 0002:00007870       ??_C@_0O@CODOPFED@appExitNotify?$AA@ 00427870     moc_AppSwitch.obj
 0002:00007898       ??_C@_0BA@GEJLLMNI@appExitNotify?$CI?$CJ?$AA@ 00427898     moc_AppSwitch.obj
 0002:000078a8       ??_C@_0P@OACAPPLB@bncs_multicast?$AA@ 004278a8     moc_bncs_multicast.obj
 0002:000078b8       ??_C@_01KBJDNOO@i?$AA@     004278b8     moc_bncs_multicast.obj
 0002:000078c8       ??_C@_06DOCDLFKO@rxdata?$AA@ 004278c8     moc_bncs_multicast.obj
 0002:000078dc       ??_C@_0M@CNOPDBKL@rxdata?$CIint?$CJ?$AA@ 004278dc     moc_bncs_multicast.obj
 0002:000078e8       ??_C@_0O@KMIHLGAF@CConfirm_Exit?$AA@ 004278e8     moc_Confirm_Exit.obj
 0002:00007904       ??_C@_06JDKABGKH@cancel?$AA@ 00427904     moc_Confirm_Exit.obj
 0002:00007918       ??_C@_07FMMDEGFI@confirm?$AA@ 00427918     moc_Confirm_Exit.obj
 0002:00007938       ??_C@_0BB@EFAGPMPM@cancel?$CIQString?$CG?$CJ?$AA@ 00427938     moc_Confirm_Exit.obj
 0002:0000794c       ??_C@_0BC@LCCCCCKE@confirm?$CIQString?$CG?$CJ?$AA@ 0042794c     moc_Confirm_Exit.obj
 0002:00007960       ??_C@_09DIMJOLK@CPanelMan?$AA@ 00427960     moc_PanelMan.obj
 0002:00007984       ??_C@_06GPFGBGKG@pmQuit?$AA@ 00427984     moc_PanelMan.obj
 0002:000079a4       ??_C@_08HOJBEJNL@pmQuit?$CI?$CJ?$AA@ 004279a4     moc_PanelMan.obj
 0002:000079b0       ??_C@_0L@JFFCEDMB@CSimpleBar?$AA@ 004279b0     moc_SimpleBar.obj
 0002:000079d4       ??_C@_09MKPNJOCO@CStartPop?$AA@ 004279d4     moc_StartPop.obj
 0002:00007a04       ??_C@_0P@FPCLNGH@slotCleanCount?$AA@ 00427a04     moc_StartPop.obj
 0002:00007a38       ??_C@_0BB@ONHELPBA@slotCleanCount?$CI?$CJ?$AA@ 00427a38     moc_StartPop.obj
 0002:00007a4c       ??_C@_0L@KAEEOGMK@CStatusBar?$AA@ 00427a4c     moc_StatusBar.obj
 0002:00007a70       ??_C@_09NKCAGJDB@CTitleBar?$AA@ 00427a70     moc_TitleBar.obj
 0002:00007a94       ??_C@_0M@NOLCJCIM@updateClock?$AA@ 00427a94     moc_TitleBar.obj
 0002:00007ab8       ??_C@_0O@PLCPHDCO@updateClock?$CI?$CJ?$AA@ 00427ab8     moc_TitleBar.obj
 0002:00007ac8       ??_C@_04PNOAOIAG@wait?$AA@ 00427ac8     moc_waitimpl.obj
 0002:00007ad4       ??_SQPushButton@@6BQObject@@@ 00427ad4     cfg_widgets001:config_mb4impl.obj
 0002:00007cc4       ??_SQPushButton@@6BQPaintDevice@@@ 00427cc4     cfg_widgets001:config_mb4impl.obj
 0002:00007cec       ??_SQButtonGroup@@6BQObject@@@ 00427cec     cfg_widgets001:config_mb4impl.obj
 0002:00007edc       ??_SQButtonGroup@@6BQPaintDevice@@@ 00427edc     cfg_widgets001:config_mb4impl.obj
 0002:00007efc       ??_C@_0L@HHCOLPHE@config_mb4?$AA@ 00427efc     cfg_widgets001:moc_config_mb4impl.obj
 0002:00007f14       ??_C@_0O@IABBPLOA@buttonClicked?$AA@ 00427f14     cfg_widgets001:moc_config_mb4impl.obj
 0002:00007f30       ??_C@_0BD@OMEOEKEF@buttonClicked?$CIint?$CJ?$AA@ 00427f30     cfg_widgets001:moc_config_mb4impl.obj
 0002:00007f48       ??_7?$QPtrList@VQWidgetFactory@@@@6B@ 00427f48     qui:qwidgetfactory.obj
 0002:00007f68       ??_7QWidgetFactory@@6B@    00427f68     qui:qwidgetfactory.obj
 0002:00007f70       ??_7?$QPtrList@VQAction@@@@6B@ 00427f70     qui:qwidgetfactory.obj
 0002:00007f90       ??_7?$QDict@_N@@6B@        00427f90     qui:qwidgetfactory.obj
 0002:00007fac       ??_SQSqlCursor@@6BQSqlQuery@@@ 00427fac     qui:qwidgetfactory.obj
 0002:00007fd4       ??_SQSqlCursor@@6BQSqlRecord@@@ 00427fd4     qui:qwidgetfactory.obj
 0002:00008078       ??_SQDataTable@@6BQPaintDevice@@@ 00428078     qui:qwidgetfactory.obj
 0002:00008098       ??_SQDataTable@@6BQObject@@@ 00428098     qui:qwidgetfactory.obj
 0002:000084b4       ??_SQMainWindow@@6BQPaintDevice@@@ 004284b4     qui:qwidgetfactory.obj
 0002:000084d4       ??_SQMainWindow@@6BQObject@@@ 004284d4     qui:qwidgetfactory.obj
 0002:000086e4       ??_SQHBox@@6BQPaintDevice@@@ 004286e4     qui:qwidgetfactory.obj
 0002:00008704       ??_SQHBox@@6BQObject@@@    00428704     qui:qwidgetfactory.obj
 0002:000088d4       ??_SQVBox@@6BQPaintDevice@@@ 004288d4     qui:qwidgetfactory.obj
 0002:000088f4       ??_SQVBox@@6BQObject@@@    004288f4     qui:qwidgetfactory.obj
 0002:00008ac4       ??_SQToolBox@@6BQPaintDevice@@@ 00428ac4     qui:qwidgetfactory.obj
 0002:00008ae4       ??_SQToolBox@@6BQObject@@@ 00428ae4     qui:qwidgetfactory.obj
 0002:00008cbc       ??_SQWidgetStack@@6BQPaintDevice@@@ 00428cbc     qui:qwidgetfactory.obj
 0002:00008cdc       ??_SQWidgetStack@@6BQObject@@@ 00428cdc     qui:qwidgetfactory.obj
 0002:00008eb0       ??_SQScrollBar@@6B@        00428eb0     qui:qwidgetfactory.obj
 0002:00008ec0       ??_SQScrollBar@@6BQPaintDevice@@@ 00428ec0     qui:qwidgetfactory.obj
 0002:00008ee0       ??_SQScrollBar@@6BQObject@@@ 00428ee0     qui:qwidgetfactory.obj
 0002:00009098       ??_SQDateTimeEdit@@6BQPaintDevice@@@ 00429098     qui:qwidgetfactory.obj
 0002:000090b8       ??_SQDateTimeEdit@@6BQObject@@@ 004290b8     qui:qwidgetfactory.obj
 0002:00009270       ??_SQTimeEdit@@6BQPaintDevice@@@ 00429270     qui:qwidgetfactory.obj
 0002:00009290       ??_SQTimeEdit@@6BQObject@@@ 00429290     qui:qwidgetfactory.obj
 0002:00009480       ??_SQDateEdit@@6BQPaintDevice@@@ 00429480     qui:qwidgetfactory.obj
 0002:000094a0       ??_SQDateEdit@@6BQObject@@@ 004294a0     qui:qwidgetfactory.obj
 0002:00009698       ??_SQTextEdit@@6BQPaintDevice@@@ 00429698     qui:qwidgetfactory.obj
 0002:000096b8       ??_SQTextEdit@@6BQObject@@@ 004296b8     qui:qwidgetfactory.obj
 0002:00009a30       ??_SQSplitter@@6BQPaintDevice@@@ 00429a30     qui:qwidgetfactory.obj
 0002:00009a50       ??_SQSplitter@@6BQObject@@@ 00429a50     qui:qwidgetfactory.obj
 0002:00009c34       ??_SQFrame@@6BQPaintDevice@@@ 00429c34     qui:qwidgetfactory.obj
 0002:00009c54       ??_SQFrame@@6BQObject@@@   00429c54     qui:qwidgetfactory.obj
 0002:00009e24       ??_SQSlider@@6B@           00429e24     qui:qwidgetfactory.obj
 0002:00009e34       ??_SQSlider@@6BQPaintDevice@@@ 00429e34     qui:qwidgetfactory.obj
 0002:00009e54       ??_SQSlider@@6BQObject@@@  00429e54     qui:qwidgetfactory.obj
 0002:0000a018       ??_SQDial@@6B@             0042a018     qui:qwidgetfactory.obj
 0002:0000a028       ??_SQDial@@6BQPaintDevice@@@ 0042a028     qui:qwidgetfactory.obj
 0002:0000a048       ??_SQDial@@6BQObject@@@    0042a048     qui:qwidgetfactory.obj
 0002:0000a210       ??_SQTextBrowser@@6BQPaintDevice@@@ 0042a210     qui:qwidgetfactory.obj
 0002:0000a230       ??_SQTextBrowser@@6BQObject@@@ 0042a230     qui:qwidgetfactory.obj
 0002:0000a5bc       ??_SQTextView@@6BQPaintDevice@@@ 0042a5bc     qui:qwidgetfactory.obj
 0002:0000a5dc       ??_SQTextView@@6BQObject@@@ 0042a5dc     qui:qwidgetfactory.obj
 0002:0000a954       ??_SQProgressBar@@6BQPaintDevice@@@ 0042a954     qui:qwidgetfactory.obj
 0002:0000a974       ??_SQProgressBar@@6BQObject@@@ 0042a974     qui:qwidgetfactory.obj
 0002:0000ab50       ??_SQLCDNumber@@6BQPaintDevice@@@ 0042ab50     qui:qwidgetfactory.obj
 0002:0000ab70       ??_SQLCDNumber@@6BQObject@@@ 0042ab70     qui:qwidgetfactory.obj
 0002:0000ad60       ??_SQWizard@@6BQPaintDevice@@@ 0042ad60     qui:qwidgetfactory.obj
 0002:0000ad80       ??_SQWizard@@6BQObject@@@  0042ad80     qui:qwidgetfactory.obj
 0002:0000af7c       ??_SQDialog@@6BQPaintDevice@@@ 0042af7c     qui:qwidgetfactory.obj
 0002:0000af9c       ??_SQDialog@@6BQObject@@@  0042af9c     qui:qwidgetfactory.obj
 0002:0000b158       ??_SQComboBox@@6BQPaintDevice@@@ 0042b158     qui:qwidgetfactory.obj
 0002:0000b178       ??_SQComboBox@@6BQObject@@@ 0042b178     qui:qwidgetfactory.obj
 0002:0000b358       ??_SQTabWidget@@6BQPaintDevice@@@ 0042b358     qui:qwidgetfactory.obj
 0002:0000b378       ??_SQTabWidget@@6BQObject@@@ 0042b378     qui:qwidgetfactory.obj
 0002:0000b548       ??_SQMultiLineEdit@@6BQPaintDevice@@@ 0042b548     qui:qwidgetfactory.obj
 0002:0000b568       ??_SQMultiLineEdit@@6BQObject@@@ 0042b568     qui:qwidgetfactory.obj
 0002:0000b924       ??_SQSpinBox@@6B@          0042b924     qui:qwidgetfactory.obj
 0002:0000b934       ??_SQSpinBox@@6BQPaintDevice@@@ 0042b934     qui:qwidgetfactory.obj
 0002:0000b954       ??_SQSpinBox@@6BQObject@@@ 0042b954     qui:qwidgetfactory.obj
 0002:0000bb48       ??_SQLineEdit@@6BQPaintDevice@@@ 0042bb48     qui:qwidgetfactory.obj
 0002:0000bb68       ??_SQLineEdit@@6BQObject@@@ 0042bb68     qui:qwidgetfactory.obj
 0002:0000bd8c       ??_SQListView@@6BQPaintDevice@@@ 0042bd8c     qui:qwidgetfactory.obj
 0002:0000bdac       ??_SQListView@@6BQObject@@@ 0042bdac     qui:qwidgetfactory.obj
 0002:0000c08c       ??_SQTable@@6BQPaintDevice@@@ 0042c08c     qui:qwidgetfactory.obj
 0002:0000c0ac       ??_SQTable@@6BQObject@@@   0042c0ac     qui:qwidgetfactory.obj
 0002:0000c448       ??_SQIconView@@6BQPaintDevice@@@ 0042c448     qui:qwidgetfactory.obj
 0002:0000c468       ??_SQIconView@@6BQObject@@@ 0042c468     qui:qwidgetfactory.obj
 0002:0000c75c       ??_SQGroupBox@@6BQPaintDevice@@@ 0042c75c     qui:qwidgetfactory.obj
 0002:0000c77c       ??_SQGroupBox@@6BQObject@@@ 0042c77c     qui:qwidgetfactory.obj
 0002:0000c958       ??_SQRadioButton@@6BQPaintDevice@@@ 0042c958     qui:qwidgetfactory.obj
 0002:0000c978       ??_SQRadioButton@@6BQObject@@@ 0042c978     qui:qwidgetfactory.obj
 0002:0000cb58       ??_SQCheckBox@@6BQPaintDevice@@@ 0042cb58     qui:qwidgetfactory.obj
 0002:0000cb78       ??_SQCheckBox@@6BQObject@@@ 0042cb78     qui:qwidgetfactory.obj
 0002:0000cd54       ??_SQToolButton@@6BQPaintDevice@@@ 0042cd54     qui:qwidgetfactory.obj
 0002:0000cd74       ??_SQToolButton@@6BQObject@@@ 0042cd74     qui:qwidgetfactory.obj
 0002:0000cf68       ??_7?$QValueListNode@UField@QWidgetFactory@@@@6B@ 0042cf68     qui:qwidgetfactory.obj
 0002:0000cf6c       ??_7?$QValueListPrivate@UField@QWidgetFactory@@@@6B@ 0042cf6c     qui:qwidgetfactory.obj
 0002:0000cf6c       ??_7?$QValueListPrivate@UImage@QWidgetFactory@@@@6B@ 0042cf6c     qui:qwidgetfactory.obj
 0002:0000cf70       ??_7?$QValueListNode@UImage@QWidgetFactory@@@@6B@ 0042cf70     qui:qwidgetfactory.obj
 0002:0000cf74       ??_7DatabaseSupport2@@6B@  0042cf74     qui:database.obj
 0002:0000cf78       ??_7QDesignerDataBrowser2@@6BQPaintDevice@@@ 0042cf78     qui:database.obj
 0002:0000cf98       ??_7QDesignerDataBrowser2@@6BQObject@@@ 0042cf98     qui:database.obj
 0002:0000d1b8       ??_7QDesignerDataBrowser2@@6B@ 0042d1b8     qui:database.obj
 0002:0000d1bc       ??_7QDesignerDataView2@@6BQPaintDevice@@@ 0042d1bc     qui:database.obj
 0002:0000d1dc       ??_7QDesignerDataView2@@6BQObject@@@ 0042d1dc     qui:database.obj
 0002:0000d3a4       ??_7QDesignerDataView2@@6B@ 0042d3a4     qui:database.obj
 0002:0000d540       ??_7bncs_disklog@@6B@      0042d540     bncs_disklog:bncs_disklog.obj
 0002:0000d544       ??_C@_0L@ILPMAFPO@?$CFs?2?$CFs?2logs?$AA@ 0042d544     bncs_disklog:bncs_disklog.obj
 0002:0000d550       ??_C@_0M@EEBKEKAD@c?3?2bncslogs?$AA@ 0042d550     bncs_disklog:bncs_disklog.obj
 0002:0000d55c       ??_C@_0BG@DPKAAFIM@localtime?5has?5failed?6?$AA@ 0042d55c     bncs_disklog:bncs_disklog.obj
 0002:0000d574       ??_C@_0N@GLHMENIG@?$CFs?2?$CFs?2?$CFs?4log?$AA@ 0042d574     bncs_disklog:bncs_disklog.obj
 0002:0000d584       ??_C@_0BH@EBDFGIGN@?$CFs?2?$CFs?2?$CF04d?$CF02d?$CF02d?4log?$AA@ 0042d584     bncs_disklog:bncs_disklog.obj
 0002:0000d59c       ??_C@_0BM@MFEMPJOF@?$CFs?2?$CFs?2?$CF04d?$CF02d?$CF02d?9?$CF02d?4log?$AA@ 0042d59c     bncs_disklog:bncs_disklog.obj
 0002:0000d5b8       ??_C@_0CE@NIPIAOPO@bncs_disklog?3?5Can?8t?5open?5log?5fil@ 0042d5b8     bncs_disklog:bncs_disklog.obj
 0002:0000d5dc       ??_C@_01EEMJAFIK@?6?$AA@   0042d5dc     bncs_disklog:bncs_disklog.obj
 0002:0000d5e0       ??_C@_0CE@NLINMDII@?$CF02d?1?$CF02d?1?$CF04d?5?$CF02d?3?$CF02d?3?$CF02d?4?$CF0@ 0042d5e0     bncs_disklog:bncs_disklog.obj
 0002:0000d604       ??_C@_02KEGNLNML@?0?5?$AA@ 0042d604     bncs_disklog:bncs_disklog.obj
 0002:0000d608       ??_C@_02PCIJFNDE@?$AN?6?$AA@ 0042d608     bncs_disklog:bncs_disklog.obj
 0002:0000d610       ??_7cBncsVersion@@6B@      0042d610     bncsversioninfo:cBncsVersion.obj
 0002:0000d614       ??_C@_0BJ@KPNNKBCP@?2VarFileInfo?2Translation?$AA@ 0042d614     bncsversioninfo:cBncsVersion.obj
 0002:0000d630       ??_C@_08EAKGLGNO@?$CF04X?$CF04X?$AA@ 0042d630     bncsversioninfo:cBncsVersion.obj
 0002:0000d63c       ??_C@_0BP@OKGDDKKJ@?2StringFileInfo?2?$CFs?2FileVersion?$AA@ 0042d63c     bncsversioninfo:cBncsVersion.obj
 0002:0000d65c       ??_C@_0CD@DNOFBAPJ@?2StringFileInfo?2?$CFs?2FileDescripti@ 0042d65c     bncsversioninfo:cBncsVersion.obj
 0002:0000d680       ??_C@_0BM@HLKDAPDC@?2StringFileInfo?2?$CFs?2Comments?$AA@ 0042d680     bncsversioninfo:cBncsVersion.obj
 0002:0000d69c       ??_C@_0CA@EHAODNDK@?2StringFileInfo?2?$CFs?2InternalName?$AA@ 0042d69c     bncsversioninfo:cBncsVersion.obj
 0002:0000d6bc       ??_C@_0BP@MGNIHEJF@?2StringFileInfo?2?$CFs?2ProductName?$AA@ 0042d6bc     bncsversioninfo:cBncsVersion.obj
 0002:0000d6dc       ??_C@_0BP@IFNEMNK@?2StringFileInfo?2?$CFs?2CompanyName?$AA@ 0042d6dc     bncsversioninfo:cBncsVersion.obj
 0002:0000d6fc       ??_C@_0CC@BENIJKPI@?2StringFileInfo?2?$CFs?2LegalCopyrigh@ 0042d6fc     bncsversioninfo:cBncsVersion.obj
 0002:0000d720       ??_C@_0CC@IAGJDCJF@?2StringFileInfo?2?$CFs?2ProductVersio@ 0042d720     bncsversioninfo:cBncsVersion.obj
 0002:0000d744       ??_C@_0CD@CHCCGCCP@?2StringFileInfo?2?$CFs?2LegalTradeMar@ 0042d744     bncsversioninfo:cBncsVersion.obj
 0002:0000d768       ??_C@_0CA@GODGGLFO@?2StringFileInfo?2?$CFs?2PrivateBuild?$AA@ 0042d768     bncsversioninfo:cBncsVersion.obj
 0002:0000d788       ??_C@_0CE@NLHFPOLE@?2StringFileInfo?2?$CFs?2OriginalFileN@ 0042d788     bncsversioninfo:cBncsVersion.obj
 0002:0000d7ac       ??_C@_0CA@OOEBJJOA@?2StringFileInfo?2?$CFs?2SpecialBuild?$AA@ 0042d7ac     bncsversioninfo:cBncsVersion.obj
 0002:0000d7d0       ??_7type_info@@6B@         0042d7d0     MSVCRT:ti_inst.obj
 0002:0000d7dc       ??_7?$QMemArray@PAD@@6B@   0042d7dc     qtmain:qtmain_win.obj
 0002:0000d7f0       __load_config_used         0042d7f0     MSVCRT:loadcfg.obj
 0002:0000d838       ??_R13?0A@EA@QShared@@8    0042d838     AdjustMon.obj
 0002:0000d854       ??_R3QShared@@8            0042d854     AdjustMon.obj
 0002:0000d864       ??_R2QShared@@8            0042d864     AdjustMon.obj
 0002:0000d86c       ??_R1A@?0A@EA@QShared@@8   0042d86c     AdjustMon.obj
 0002:0000d888       ??_R1A@?0A@EA@QGList@@8    0042d888     AdjustMon.obj
 0002:0000d8a4       ??_R3QGList@@8             0042d8a4     AdjustMon.obj
 0002:0000d8b4       ??_R2QGList@@8             0042d8b4     AdjustMon.obj
 0002:0000d8c0       ??_R1A@?0A@EA@QPtrCollection@@8 0042d8c0     AdjustMon.obj
 0002:0000d8dc       ??_R3QPtrCollection@@8     0042d8dc     AdjustMon.obj
 0002:0000d8ec       ??_R2QPtrCollection@@8     0042d8ec     AdjustMon.obj
 0002:0000d8f4       ??_R4CAdjustMon@@6B@       0042d8f4     AdjustMon.obj
 0002:0000d908       ??_R3CAdjustMon@@8         0042d908     AdjustMon.obj
 0002:0000d918       ??_R2CAdjustMon@@8         0042d918     AdjustMon.obj
 0002:0000d928       ??_R1A@?0A@EA@CAdjustMon@@8 0042d928     AdjustMon.obj
 0002:0000d944       ??_R1A@?0A@EA@bncs_mcComms@@8 0042d944     AdjustMon.obj
 0002:0000d960       ??_R3bncs_mcComms@@8       0042d960     AdjustMon.obj
 0002:0000d970       ??_R2bncs_mcComms@@8       0042d970     AdjustMon.obj
 0002:0000d97c       ??_R1A@?0A@EA@bncs_textCallback@@8 0042d97c     AdjustMon.obj
 0002:0000d998       ??_R3bncs_textCallback@@8  0042d998     AdjustMon.obj
 0002:0000d9a8       ??_R2bncs_textCallback@@8  0042d9a8     AdjustMon.obj
 0002:0000d9b0       ??_R4?$QPtrList@VQString@@@@6B@ 0042d9b0     AdjustMon.obj
 0002:0000d9c4       ??_R3?$QPtrList@VQString@@@@8 0042d9c4     AdjustMon.obj
 0002:0000d9d4       ??_R2?$QPtrList@VQString@@@@8 0042d9d4     AdjustMon.obj
 0002:0000d9e4       ??_R1A@?0A@EA@?$QPtrList@VQString@@@@8 0042d9e4     AdjustMon.obj
 0002:0000da00       ??_R4error_category@std@@6B@ 0042da00     AdjustMon.obj
 0002:0000da14       ??_R3error_category@std@@8 0042da14     AdjustMon.obj
 0002:0000da24       ??_R2error_category@std@@8 0042da24     AdjustMon.obj
 0002:0000da2c       ??_R1A@?0A@EA@error_category@std@@8 0042da2c     AdjustMon.obj
 0002:0000da48       ??_R4_Generic_error_category@std@@6B@ 0042da48     AdjustMon.obj
 0002:0000da5c       ??_R3_Generic_error_category@std@@8 0042da5c     AdjustMon.obj
 0002:0000da6c       ??_R2_Generic_error_category@std@@8 0042da6c     AdjustMon.obj
 0002:0000da78       ??_R1A@?0A@EA@_Generic_error_category@std@@8 0042da78     AdjustMon.obj
 0002:0000da94       ??_R4_Iostream_error_category@std@@6B@ 0042da94     AdjustMon.obj
 0002:0000daa8       ??_R3_Iostream_error_category@std@@8 0042daa8     AdjustMon.obj
 0002:0000dab8       ??_R2_Iostream_error_category@std@@8 0042dab8     AdjustMon.obj
 0002:0000dac8       ??_R1A@?0A@EA@_Iostream_error_category@std@@8 0042dac8     AdjustMon.obj
 0002:0000dae4       ??_R4_System_error_category@std@@6B@ 0042dae4     AdjustMon.obj
 0002:0000daf8       ??_R3_System_error_category@std@@8 0042daf8     AdjustMon.obj
 0002:0000db08       ??_R2_System_error_category@std@@8 0042db08     AdjustMon.obj
 0002:0000db18       ??_R1A@?0A@EA@_System_error_category@std@@8 0042db18     AdjustMon.obj
 0002:0000db34       ??_R4signalConnectionRefList@@6B@ 0042db34     AdjustMon.obj
 0002:0000db48       ??_R3signalConnectionRefList@@8 0042db48     AdjustMon.obj
 0002:0000db58       ??_R2signalConnectionRefList@@8 0042db58     AdjustMon.obj
 0002:0000db6c       ??_R1A@?0A@EA@signalConnectionRefList@@8 0042db6c     AdjustMon.obj
 0002:0000db88       ??_R1A@?0A@EA@?$QPtrList@VsignalConnection@@@@8 0042db88     AdjustMon.obj
 0002:0000dba4       ??_R3?$QPtrList@VsignalConnection@@@@8 0042dba4     AdjustMon.obj
 0002:0000dbb4       ??_R2?$QPtrList@VsignalConnection@@@@8 0042dbb4     AdjustMon.obj
 0002:0000dbc4       ??_R4?$QPtrList@VsignalConnection@@@@6B@ 0042dbc4     AdjustMon.obj
 0002:0000dbd8       ??_R4?$QValueListPrivate@VparamInfo@@@@6B@ 0042dbd8     AdjustMon.obj
 0002:0000dbec       ??_R3?$QValueListPrivate@VparamInfo@@@@8 0042dbec     AdjustMon.obj
 0002:0000dbfc       ??_R2?$QValueListPrivate@VparamInfo@@@@8 0042dbfc     AdjustMon.obj
 0002:0000dc08       ??_R1A@?0A@EA@?$QValueListPrivate@VparamInfo@@@@8 0042dc08     AdjustMon.obj
 0002:0000dc24       ??_R4?$QValueListNode@VparamInfo@@@@6B@ 0042dc24     AdjustMon.obj
 0002:0000dc38       ??_R3?$QValueListNode@VparamInfo@@@@8 0042dc38     AdjustMon.obj
 0002:0000dc48       ??_R2?$QValueListNode@VparamInfo@@@@8 0042dc48     AdjustMon.obj
 0002:0000dc50       ??_R1A@?0A@EA@?$QValueListNode@VparamInfo@@@@8 0042dc50     AdjustMon.obj
 0002:0000dc6c       ??_R4?$QValueListPrivate@VcomplexParam@@@@6B@ 0042dc6c     AdjustMon.obj
 0002:0000dc80       ??_R3?$QValueListPrivate@VcomplexParam@@@@8 0042dc80     AdjustMon.obj
 0002:0000dc90       ??_R2?$QValueListPrivate@VcomplexParam@@@@8 0042dc90     AdjustMon.obj
 0002:0000dc9c       ??_R1A@?0A@EA@?$QValueListPrivate@VcomplexParam@@@@8 0042dc9c     AdjustMon.obj
 0002:0000dcb8       ??_R4?$QValueListNode@VcomplexParam@@@@6B@ 0042dcb8     AdjustMon.obj
 0002:0000dccc       ??_R3?$QValueListNode@VcomplexParam@@@@8 0042dccc     AdjustMon.obj
 0002:0000dcdc       ??_R2?$QValueListNode@VcomplexParam@@@@8 0042dcdc     AdjustMon.obj
 0002:0000dce4       ??_R1A@?0A@EA@?$QValueListNode@VcomplexParam@@@@8 0042dce4     AdjustMon.obj
 0002:0000dd00       ??_R4?$QValueListPrivate@VcomplexInstance@@@@6B@ 0042dd00     AdjustMon.obj
 0002:0000dd14       ??_R3?$QValueListPrivate@VcomplexInstance@@@@8 0042dd14     AdjustMon.obj
 0002:0000dd24       ??_R2?$QValueListPrivate@VcomplexInstance@@@@8 0042dd24     AdjustMon.obj
 0002:0000dd30       ??_R1A@?0A@EA@?$QValueListPrivate@VcomplexInstance@@@@8 0042dd30     AdjustMon.obj
 0002:0000dd4c       ??_R4?$QValueListNode@VcomplexInstance@@@@6B@ 0042dd4c     AdjustMon.obj
 0002:0000dd60       ??_R3?$QValueListNode@VcomplexInstance@@@@8 0042dd60     AdjustMon.obj
 0002:0000dd70       ??_R2?$QValueListNode@VcomplexInstance@@@@8 0042dd70     AdjustMon.obj
 0002:0000dd78       ??_R1A@?0A@EA@?$QValueListNode@VcomplexInstance@@@@8 0042dd78     AdjustMon.obj
 0002:0000dd94       ??_R4?$QValueListPrivate@VinstanceInfo@@@@6B@ 0042dd94     AdjustMon.obj
 0002:0000dda8       ??_R3?$QValueListPrivate@VinstanceInfo@@@@8 0042dda8     AdjustMon.obj
 0002:0000ddb8       ??_R2?$QValueListPrivate@VinstanceInfo@@@@8 0042ddb8     AdjustMon.obj
 0002:0000ddc4       ??_R1A@?0A@EA@?$QValueListPrivate@VinstanceInfo@@@@8 0042ddc4     AdjustMon.obj
 0002:0000dde0       ??_R4?$QValueListNode@VinstanceInfo@@@@6B@ 0042dde0     AdjustMon.obj
 0002:0000ddf4       ??_R3?$QValueListNode@VinstanceInfo@@@@8 0042ddf4     AdjustMon.obj
 0002:0000de04       ??_R2?$QValueListNode@VinstanceInfo@@@@8 0042de04     AdjustMon.obj
 0002:0000de0c       ??_R1A@?0A@EA@?$QValueListNode@VinstanceInfo@@@@8 0042de0c     AdjustMon.obj
 0002:0000de28       ??_R4?$QValueListPrivate@VdeviceTypeInfo@@@@6B@ 0042de28     AdjustMon.obj
 0002:0000de3c       ??_R3?$QValueListPrivate@VdeviceTypeInfo@@@@8 0042de3c     AdjustMon.obj
 0002:0000de4c       ??_R2?$QValueListPrivate@VdeviceTypeInfo@@@@8 0042de4c     AdjustMon.obj
 0002:0000de58       ??_R1A@?0A@EA@?$QValueListPrivate@VdeviceTypeInfo@@@@8 0042de58     AdjustMon.obj
 0002:0000de74       ??_R4?$QValueListNode@VdeviceTypeInfo@@@@6B@ 0042de74     AdjustMon.obj
 0002:0000de88       ??_R3?$QValueListNode@VdeviceTypeInfo@@@@8 0042de88     AdjustMon.obj
 0002:0000de98       ??_R2?$QValueListNode@VdeviceTypeInfo@@@@8 0042de98     AdjustMon.obj
 0002:0000dea0       ??_R1A@?0A@EA@?$QValueListNode@VdeviceTypeInfo@@@@8 0042dea0     AdjustMon.obj
 0002:0000debc       ??_R4?$QValueListPrivate@VcomplexType@@@@6B@ 0042debc     AdjustMon.obj
 0002:0000ded0       ??_R3?$QValueListPrivate@VcomplexType@@@@8 0042ded0     AdjustMon.obj
 0002:0000dee0       ??_R2?$QValueListPrivate@VcomplexType@@@@8 0042dee0     AdjustMon.obj
 0002:0000deec       ??_R1A@?0A@EA@?$QValueListPrivate@VcomplexType@@@@8 0042deec     AdjustMon.obj
 0002:0000df08       ??_R4?$QValueListNode@VcomplexType@@@@6B@ 0042df08     AdjustMon.obj
 0002:0000df1c       ??_R3?$QValueListNode@VcomplexType@@@@8 0042df1c     AdjustMon.obj
 0002:0000df2c       ??_R2?$QValueListNode@VcomplexType@@@@8 0042df2c     AdjustMon.obj
 0002:0000df34       ??_R1A@?0A@EA@?$QValueListNode@VcomplexType@@@@8 0042df34     AdjustMon.obj
 0002:0000df50       ??_R4QKeyEvent@@6B@        0042df50     AppBar.obj
 0002:0000df64       ??_R3QKeyEvent@@8          0042df64     AppBar.obj
 0002:0000df74       ??_R2QKeyEvent@@8          0042df74     AppBar.obj
 0002:0000df84       ??_R1A@?0A@EA@QKeyEvent@@8 0042df84     AppBar.obj
 0002:0000dfa0       ??_R1A@?0A@EA@QEvent@@8    0042dfa0     AppBar.obj
 0002:0000dfbc       ??_R3QEvent@@8             0042dfbc     AppBar.obj
 0002:0000dfcc       ??_R2QEvent@@8             0042dfcc     AppBar.obj
 0002:0000dfd8       ??_R13?0A@EA@Qt@@8         0042dfd8     AppBar.obj
 0002:0000dff4       ??_R3Qt@@8                 0042dff4     AppBar.obj
 0002:0000e004       ??_R2Qt@@8                 0042e004     AppBar.obj
 0002:0000e00c       ??_R1A@?0A@EA@Qt@@8        0042e00c     AppBar.obj
 0002:0000e028       ??_R1A@?0A@EA@QGDict@@8    0042e028     AppBar.obj
 0002:0000e044       ??_R3QGDict@@8             0042e044     AppBar.obj
 0002:0000e054       ??_R2QGDict@@8             0042e054     AppBar.obj
 0002:0000e060       ??_R4QGrid@@6BQObject@@@   0042e060     AppBar.obj
 0002:0000e074       ??_R3QGrid@@8              0042e074     AppBar.obj
 0002:0000e084       ??_R2QGrid@@8              0042e084     AppBar.obj
 0002:0000e0a0       ??_R1A@?0A@EA@QGrid@@8     0042e0a0     AppBar.obj
 0002:0000e0bc       ??_R1A@?0A@EA@QFrame@@8    0042e0bc     AppBar.obj
 0002:0000e0d8       ??_R3QFrame@@8             0042e0d8     AppBar.obj
 0002:0000e0e8       ??_R2QFrame@@8             0042e0e8     AppBar.obj
 0002:0000e100       ??_R1A@?0A@EA@QWidget@@8   0042e100     AppBar.obj
 0002:0000e11c       ??_R3QWidget@@8            0042e11c     AppBar.obj
 0002:0000e12c       ??_R2QWidget@@8            0042e12c     AppBar.obj
 0002:0000e140       ??_R1A@?0A@EA@QObject@@8   0042e140     AppBar.obj
 0002:0000e15c       ??_R3QObject@@8            0042e15c     AppBar.obj
 0002:0000e16c       ??_R2QObject@@8            0042e16c     AppBar.obj
 0002:0000e178       ??_R1CI@?0A@EA@QPaintDevice@@8 0042e178     AppBar.obj
 0002:0000e194       ??_R3QPaintDevice@@8       0042e194     AppBar.obj
 0002:0000e1a4       ??_R2QPaintDevice@@8       0042e1a4     AppBar.obj
 0002:0000e1ac       ??_R1A@?0A@EA@QPaintDevice@@8 0042e1ac     AppBar.obj
 0002:0000e1c8       ??_R4QGrid@@6BQPaintDevice@@@ 0042e1c8     AppBar.obj
 0002:0000e1dc       ??_R4CAppBar@@6BQObject@@@ 0042e1dc     AppBar.obj
 0002:0000e1f0       ??_R3CAppBar@@8            0042e1f0     AppBar.obj
 0002:0000e200       ??_R2CAppBar@@8            0042e200     AppBar.obj
 0002:0000e21c       ??_R1A@?0A@EA@CAppBar@@8   0042e21c     AppBar.obj
 0002:0000e238       ??_R1A@?0A@EA@CSimpleBar@@8 0042e238     AppBar.obj
 0002:0000e254       ??_R3CSimpleBar@@8         0042e254     AppBar.obj
 0002:0000e264       ??_R2CSimpleBar@@8         0042e264     AppBar.obj
 0002:0000e27c       ??_R4CAppBar@@6BQPaintDevice@@@ 0042e27c     AppBar.obj
 0002:0000e290       ??_R4?$QDict@VCAppItem@@@@6B@ 0042e290     AppBar.obj
 0002:0000e2a4       ??_R3?$QDict@VCAppItem@@@@8 0042e2a4     AppBar.obj
 0002:0000e2b4       ??_R2?$QDict@VCAppItem@@@@8 0042e2b4     AppBar.obj
 0002:0000e2c4       ??_R1A@?0A@EA@?$QDict@VCAppItem@@@@8 0042e2c4     AppBar.obj
 0002:0000e2e0       ??_R4CAppItem@@6B@         0042e2e0     AppItem.obj
 0002:0000e2f4       ??_R3CAppItem@@8           0042e2f4     AppItem.obj
 0002:0000e304       ??_R2CAppItem@@8           0042e304     AppItem.obj
 0002:0000e30c       ??_R1A@?0A@EA@CAppItem@@8  0042e30c     AppItem.obj
 0002:0000e328       ??_R4CAppSwitch@@6B@       0042e328     AppSwitch.obj
 0002:0000e33c       ??_R3CAppSwitch@@8         0042e33c     AppSwitch.obj
 0002:0000e34c       ??_R2CAppSwitch@@8         0042e34c     AppSwitch.obj
 0002:0000e35c       ??_R1A@?0A@EA@CAppSwitch@@8 0042e35c     AppSwitch.obj
 0002:0000e378       ??_R4?$QDict@VCExtProcess@@@@6B@ 0042e378     AppSwitch.obj
 0002:0000e38c       ??_R3?$QDict@VCExtProcess@@@@8 0042e38c     AppSwitch.obj
 0002:0000e39c       ??_R2?$QDict@VCExtProcess@@@@8 0042e39c     AppSwitch.obj
 0002:0000e3ac       ??_R1A@?0A@EA@?$QDict@VCExtProcess@@@@8 0042e3ac     AppSwitch.obj
 0002:0000e3c8       ??_R4IdCWlimits@@6B@       0042e3c8     AppView.obj
 0002:0000e3dc       ??_R3IdCWlimits@@8         0042e3dc     AppView.obj
 0002:0000e3ec       ??_R2IdCWlimits@@8         0042e3ec     AppView.obj
 0002:0000e3f4       ??_R1A@?0A@EA@IdCWlimits@@8 0042e3f4     AppView.obj
 0002:0000e410       ??_R4CAppView@@6BQObject@@@ 0042e410     AppView.obj
 0002:0000e424       ??_R3CAppView@@8           0042e424     AppView.obj
 0002:0000e434       ??_R2CAppView@@8           0042e434     AppView.obj
 0002:0000e458       ??_R1A@?0A@EA@CAppView@@8  0042e458     AppView.obj
 0002:0000e474       ??_R1A@?0A@EA@QWidgetStack@@8 0042e474     AppView.obj
 0002:0000e490       ??_R3QWidgetStack@@8       0042e490     AppView.obj
 0002:0000e4a0       ??_R2QWidgetStack@@8       0042e4a0     AppView.obj
 0002:0000e4bc       ??_R1KA@?0A@EN@IdCWlimits@@8 0042e4bc     AppView.obj
 0002:0000e4d8       ??_R4CAppView@@6BQPaintDevice@@@ 0042e4d8     AppView.obj
 0002:0000e4ec       ??_R4CAppView@@6B@         0042e4ec     AppView.obj
 0002:0000e500       ??_R4?$QDict@VQWidget@@@@6B@ 0042e500     AppView.obj
 0002:0000e514       ??_R3?$QDict@VQWidget@@@@8 0042e514     AppView.obj
 0002:0000e524       ??_R2?$QDict@VQWidget@@@@8 0042e524     AppView.obj
 0002:0000e534       ??_R1A@?0A@EA@?$QDict@VQWidget@@@@8 0042e534     AppView.obj
 0002:0000e550       ??_R4bncs_mcComms@@6B@     0042e550     bncs_mcComms.obj
 0002:0000e564       ??_R4QSocketDevice@@6B@    0042e564     bncs_multicast.obj
 0002:0000e578       ??_R3QSocketDevice@@8      0042e578     bncs_multicast.obj
 0002:0000e588       ??_R2QSocketDevice@@8      0042e588     bncs_multicast.obj
 0002:0000e594       ??_R1A@?0A@EA@QSocketDevice@@8 0042e594     bncs_multicast.obj
 0002:0000e5b0       ??_R1A@?0A@EA@QIODevice@@8 0042e5b0     bncs_multicast.obj
 0002:0000e5cc       ??_R3QIODevice@@8          0042e5cc     bncs_multicast.obj
 0002:0000e5dc       ??_R2QIODevice@@8          0042e5dc     bncs_multicast.obj
 0002:0000e5e4       ??_R4QSocketNotifier@@6B@  0042e5e4     bncs_multicast.obj
 0002:0000e5f8       ??_R3QSocketNotifier@@8    0042e5f8     bncs_multicast.obj
 0002:0000e608       ??_R2QSocketNotifier@@8    0042e608     bncs_multicast.obj
 0002:0000e618       ??_R1A@?0A@EA@QSocketNotifier@@8 0042e618     bncs_multicast.obj
 0002:0000e634       ??_R4bncs_multicast@@6B@   0042e634     bncs_multicast.obj
 0002:0000e648       ??_R3bncs_multicast@@8     0042e648     bncs_multicast.obj
 0002:0000e658       ??_R2bncs_multicast@@8     0042e658     bncs_multicast.obj
 0002:0000e668       ??_R1A@?0A@EA@bncs_multicast@@8 0042e668     bncs_multicast.obj
 0002:0000e684       ??_R4bncs_popup@@6BQObject@@@ 0042e684     bncs_popup.obj
 0002:0000e698       ??_R3bncs_popup@@8         0042e698     bncs_popup.obj
 0002:0000e6a8       ??_R2bncs_popup@@8         0042e6a8     bncs_popup.obj
 0002:0000e6cc       ??_R1A@?0A@EA@bncs_popup@@8 0042e6cc     bncs_popup.obj
 0002:0000e6e8       ??_R1A@?0A@EA@QPopupMenu@@8 0042e6e8     bncs_popup.obj
 0002:0000e704       ??_R3QPopupMenu@@8         0042e704     bncs_popup.obj
 0002:0000e714       ??_R2QPopupMenu@@8         0042e714     bncs_popup.obj
 0002:0000e734       ??_R1IM@?0A@EA@QMenuData@@8 0042e734     bncs_popup.obj
 0002:0000e750       ??_R3QMenuData@@8          0042e750     bncs_popup.obj
 0002:0000e760       ??_R2QMenuData@@8          0042e760     bncs_popup.obj
 0002:0000e768       ??_R1A@?0A@EA@QMenuData@@8 0042e768     bncs_popup.obj
 0002:0000e784       ??_R4bncs_popup@@6BQPaintDevice@@@ 0042e784     bncs_popup.obj
 0002:0000e798       ??_R4bncs_popup@@6B@       0042e798     bncs_popup.obj
 0002:0000e7ac       ??_R4IccClientCallback@@6B@ 0042e7ac     Client.obj
 0002:0000e7c0       ??_R3IccClientCallback@@8  0042e7c0     Client.obj
 0002:0000e7d0       ??_R2IccClientCallback@@8  0042e7d0     Client.obj
 0002:0000e7d8       ??_R1A@?0A@EA@IccClientCallback@@8 0042e7d8     Client.obj
 0002:0000e7f4       ??_R4CClient@@6BQObject@@@ 0042e7f4     Client.obj
 0002:0000e808       ??_R3CClient@@8            0042e808     Client.obj
 0002:0000e818       ??_R2CClient@@8            0042e818     Client.obj
 0002:0000e834       ??_R1A@?0A@EA@CClient@@8   0042e834     Client.obj
 0002:0000e850       ??_R1GM@?0A@EN@IccClientCallback@@8 0042e850     Client.obj
 0002:0000e86c       ??_R4CClient@@6BQPaintDevice@@@ 0042e86c     Client.obj
 0002:0000e880       ??_R4CClient@@6B@          0042e880     Client.obj
 0002:0000e894       ??_R4CConfirm_Exit@@6BQObject@@@ 0042e894     Confirm_Exit.obj
 0002:0000e8a8       ??_R3CConfirm_Exit@@8      0042e8a8     Confirm_Exit.obj
 0002:0000e8b8       ??_R2CConfirm_Exit@@8      0042e8b8     Confirm_Exit.obj
 0002:0000e8d4       ??_R1A@?0A@EA@CConfirm_Exit@@8 0042e8d4     Confirm_Exit.obj
 0002:0000e8f0       ??_R1A@?0A@EA@QDialog@@8   0042e8f0     Confirm_Exit.obj
 0002:0000e90c       ??_R3QDialog@@8            0042e90c     Confirm_Exit.obj
 0002:0000e91c       ??_R2QDialog@@8            0042e91c     Confirm_Exit.obj
 0002:0000e934       ??_R4CConfirm_Exit@@6BQPaintDevice@@@ 0042e934     Confirm_Exit.obj
 0002:0000e948       ??_R4CExtProcess@@6B@      0042e948     ExtProcess.obj
 0002:0000e95c       ??_R3CExtProcess@@8        0042e95c     ExtProcess.obj
 0002:0000e96c       ??_R2CExtProcess@@8        0042e96c     ExtProcess.obj
 0002:0000e980       ??_R1A@?0A@EA@CExtProcess@@8 0042e980     ExtProcess.obj
 0002:0000e99c       ??_R1A@?0A@EA@QProcess@@8  0042e99c     ExtProcess.obj
 0002:0000e9b8       ??_R3QProcess@@8           0042e9b8     ExtProcess.obj
 0002:0000e9c8       ??_R2QProcess@@8           0042e9c8     ExtProcess.obj
 0002:0000e9d8       ??_R4CLookUp@@6B@          0042e9d8     LookUp.obj
 0002:0000e9ec       ??_R3CLookUp@@8            0042e9ec     LookUp.obj
 0002:0000e9fc       ??_R2CLookUp@@8            0042e9fc     LookUp.obj
 0002:0000ea04       ??_R1A@?0A@EA@CLookUp@@8   0042ea04     LookUp.obj
 0002:0000ea20       ??_R1A@?0A@EA@QLayoutItem@@8 0042ea20     PanelMan.obj
 0002:0000ea3c       ??_R3QLayoutItem@@8        0042ea3c     PanelMan.obj
 0002:0000ea4c       ??_R2QLayoutItem@@8        0042ea4c     PanelMan.obj
 0002:0000ea54       ??_R4QVBoxLayout@@6BQObject@@@ 0042ea54     PanelMan.obj
 0002:0000ea68       ??_R3QVBoxLayout@@8        0042ea68     PanelMan.obj
 0002:0000ea78       ??_R2QVBoxLayout@@8        0042ea78     PanelMan.obj
 0002:0000ea94       ??_R1A@?0A@EA@QVBoxLayout@@8 0042ea94     PanelMan.obj
 0002:0000eab0       ??_R1A@?0A@EA@QBoxLayout@@8 0042eab0     PanelMan.obj
 0002:0000eacc       ??_R3QBoxLayout@@8         0042eacc     PanelMan.obj
 0002:0000eadc       ??_R2QBoxLayout@@8         0042eadc     PanelMan.obj
 0002:0000eaf4       ??_R1A@?0A@EA@QLayout@@8   0042eaf4     PanelMan.obj
 0002:0000eb10       ??_R3QLayout@@8            0042eb10     PanelMan.obj
 0002:0000eb20       ??_R2QLayout@@8            0042eb20     PanelMan.obj
 0002:0000eb34       ??_R1CI@?0A@EA@QLayoutItem@@8 0042eb34     PanelMan.obj
 0002:0000eb50       ??_R4QVBoxLayout@@6BQLayoutItem@@@ 0042eb50     PanelMan.obj
 0002:0000eb64       ??_R4QListBox@@6BQObject@@@ 0042eb64     PanelMan.obj
 0002:0000eb78       ??_R3QListBox@@8           0042eb78     PanelMan.obj
 0002:0000eb88       ??_R2QListBox@@8           0042eb88     PanelMan.obj
 0002:0000eba8       ??_R1A@?0A@EA@QListBox@@8  0042eba8     PanelMan.obj
 0002:0000ebc4       ??_R1A@?0A@EA@QScrollView@@8 0042ebc4     PanelMan.obj
 0002:0000ebe0       ??_R3QScrollView@@8        0042ebe0     PanelMan.obj
 0002:0000ebf0       ??_R2QScrollView@@8        0042ebf0     PanelMan.obj
 0002:0000ec0c       ??_R4QListBox@@6BQPaintDevice@@@ 0042ec0c     PanelMan.obj
 0002:0000ec20       ??_R4CPanelMan@@6BQObject@@@ 0042ec20     PanelMan.obj
 0002:0000ec34       ??_R3CPanelMan@@8          0042ec34     PanelMan.obj
 0002:0000ec44       ??_R2CPanelMan@@8          0042ec44     PanelMan.obj
 0002:0000ec5c       ??_R1A@?0A@EA@CPanelMan@@8 0042ec5c     PanelMan.obj
 0002:0000ec78       ??_R4CPanelMan@@6BQPaintDevice@@@ 0042ec78     PanelMan.obj
 0002:0000ec8c       ??_R4CSimpleBar@@6BQObject@@@ 0042ec8c     SimpleBar.obj
 0002:0000eca0       ??_R4CSimpleBar@@6BQPaintDevice@@@ 0042eca0     SimpleBar.obj
 0002:0000ecb4       ??_R4QWidget@@6BQObject@@@ 0042ecb4     StartPop.obj
 0002:0000ecc8       ??_R4QWidget@@6BQPaintDevice@@@ 0042ecc8     StartPop.obj
 0002:0000ecdc       ??_R4QTimer@@6B@           0042ecdc     StartPop.obj
 0002:0000ecf0       ??_R3QTimer@@8             0042ecf0     StartPop.obj
 0002:0000ed00       ??_R2QTimer@@8             0042ed00     StartPop.obj
 0002:0000ed10       ??_R1A@?0A@EA@QTimer@@8    0042ed10     StartPop.obj
 0002:0000ed2c       ??_R4QLabel@@6BQObject@@@  0042ed2c     StartPop.obj
 0002:0000ed40       ??_R3QLabel@@8             0042ed40     StartPop.obj
 0002:0000ed50       ??_R2QLabel@@8             0042ed50     StartPop.obj
 0002:0000ed6c       ??_R1A@?0A@EA@QLabel@@8    0042ed6c     StartPop.obj
 0002:0000ed88       ??_R4QLabel@@6BQPaintDevice@@@ 0042ed88     StartPop.obj
 0002:0000ed9c       ??_R4QPopupMenu@@6BQObject@@@ 0042ed9c     StartPop.obj
 0002:0000edb0       ??_R4QPopupMenu@@6BQPaintDevice@@@ 0042edb0     StartPop.obj
 0002:0000edc4       ??_R4QPopupMenu@@6B@       0042edc4     StartPop.obj
 0002:0000edd8       ??_R4CStartPop@@6BQObject@@@ 0042edd8     StartPop.obj
 0002:0000edec       ??_R3CStartPop@@8          0042edec     StartPop.obj
 0002:0000edfc       ??_R2CStartPop@@8          0042edfc     StartPop.obj
 0002:0000ee14       ??_R1A@?0A@EA@CStartPop@@8 0042ee14     StartPop.obj
 0002:0000ee30       ??_R4CStartPop@@6BQPaintDevice@@@ 0042ee30     StartPop.obj
 0002:0000ee44       ??_R4CStatusBar@@6BQObject@@@ 0042ee44     StatusBar.obj
 0002:0000ee58       ??_R3CStatusBar@@8         0042ee58     StatusBar.obj
 0002:0000ee68       ??_R2CStatusBar@@8         0042ee68     StatusBar.obj
 0002:0000ee84       ??_R1A@?0A@EA@CStatusBar@@8 0042ee84     StatusBar.obj
 0002:0000eea0       ??_R4CStatusBar@@6BQPaintDevice@@@ 0042eea0     StatusBar.obj
 0002:0000eeb4       ??_R4CTitleBar@@6BQObject@@@ 0042eeb4     TitleBar.obj
 0002:0000eec8       ??_R3CTitleBar@@8          0042eec8     TitleBar.obj
 0002:0000eed8       ??_R2CTitleBar@@8          0042eed8     TitleBar.obj
 0002:0000eef4       ??_R1A@?0A@EA@CTitleBar@@8 0042eef4     TitleBar.obj
 0002:0000ef10       ??_R4CTitleBar@@6BQPaintDevice@@@ 0042ef10     TitleBar.obj
 0002:0000ef24       ??_R4wait@@6BQObject@@@    0042ef24     waitimpl.obj
 0002:0000ef38       ??_R3wait@@8               0042ef38     waitimpl.obj
 0002:0000ef48       ??_R2wait@@8               0042ef48     waitimpl.obj
 0002:0000ef60       ??_R1A@?0A@EA@wait@@8      0042ef60     waitimpl.obj
 0002:0000ef7c       ??_R4wait@@6BQPaintDevice@@@ 0042ef7c     waitimpl.obj
 0002:0000ef90       ??_R4QPushButton@@6BQObject@@@ 0042ef90     cfg_widgets001:config_mb4impl.obj
 0002:0000efa4       ??_R3QPushButton@@8        0042efa4     cfg_widgets001:config_mb4impl.obj
 0002:0000efb4       ??_R2QPushButton@@8        0042efb4     cfg_widgets001:config_mb4impl.obj
 0002:0000efd0       ??_R1A@?0A@EA@QPushButton@@8 0042efd0     cfg_widgets001:config_mb4impl.obj
 0002:0000efec       ??_R1A@?0A@EA@QButton@@8   0042efec     cfg_widgets001:config_mb4impl.obj
 0002:0000f008       ??_R3QButton@@8            0042f008     cfg_widgets001:config_mb4impl.obj
 0002:0000f018       ??_R2QButton@@8            0042f018     cfg_widgets001:config_mb4impl.obj
 0002:0000f030       ??_R4QPushButton@@6BQPaintDevice@@@ 0042f030     cfg_widgets001:config_mb4impl.obj
 0002:0000f044       ??_R4QButtonGroup@@6BQObject@@@ 0042f044     cfg_widgets001:config_mb4impl.obj
 0002:0000f058       ??_R3QButtonGroup@@8       0042f058     cfg_widgets001:config_mb4impl.obj
 0002:0000f068       ??_R2QButtonGroup@@8       0042f068     cfg_widgets001:config_mb4impl.obj
 0002:0000f088       ??_R1A@?0A@EA@QButtonGroup@@8 0042f088     cfg_widgets001:config_mb4impl.obj
 0002:0000f0a4       ??_R1A@?0A@EA@QGroupBox@@8 0042f0a4     cfg_widgets001:config_mb4impl.obj
 0002:0000f0c0       ??_R3QGroupBox@@8          0042f0c0     cfg_widgets001:config_mb4impl.obj
 0002:0000f0d0       ??_R2QGroupBox@@8          0042f0d0     cfg_widgets001:config_mb4impl.obj
 0002:0000f0ec       ??_R4QButtonGroup@@6BQPaintDevice@@@ 0042f0ec     cfg_widgets001:config_mb4impl.obj
 0002:0000f100       ??_R4bncs_disklog@@6B@     0042f100     bncs_disklog:bncs_disklog.obj
 0002:0000f114       ??_R3bncs_disklog@@8       0042f114     bncs_disklog:bncs_disklog.obj
 0002:0000f124       ??_R2bncs_disklog@@8       0042f124     bncs_disklog:bncs_disklog.obj
 0002:0000f12c       ??_R1A@?0A@EA@bncs_disklog@@8 0042f12c     bncs_disklog:bncs_disklog.obj
 0002:0000f148       ??_R4cBncsVersion@@6B@     0042f148     bncsversioninfo:cBncsVersion.obj
 0002:0000f15c       ??_R3cBncsVersion@@8       0042f15c     bncsversioninfo:cBncsVersion.obj
 0002:0000f16c       ??_R2cBncsVersion@@8       0042f16c     bncsversioninfo:cBncsVersion.obj
 0002:0000f174       ??_R1A@?0A@EA@cBncsVersion@@8 0042f174     bncsversioninfo:cBncsVersion.obj
 0002:0000f190       ??_R4type_info@@6B@        0042f190     MSVCRT:ti_inst.obj
 0002:0000f1a4       ??_R3type_info@@8          0042f1a4     MSVCRT:ti_inst.obj
 0002:0000f1b4       ??_R2type_info@@8          0042f1b4     MSVCRT:ti_inst.obj
 0002:0000f1bc       ??_R1A@?0A@EA@type_info@@8 0042f1bc     MSVCRT:ti_inst.obj
 0002:0000f1d8       ___rtc_iaa                 0042f1d8     MSVCRT:initsect.obj
 0002:0000f1dc       ___rtc_izz                 0042f1dc     MSVCRT:initsect.obj
 0002:0000f1e0       ___rtc_taa                 0042f1e0     MSVCRT:initsect.obj
 0002:0000f1e4       ___rtc_tzz                 0042f1e4     MSVCRT:initsect.obj
 0002:00011a68       __TI1?AVstructured_exception@@ 00431a68     except.obj
 0002:00011a78       __CTA1?AVstructured_exception@@ 00431a78     except.obj
 0002:00011a80       __CT??_R0?AVstructured_exception@@@812 00431a80     except.obj
 0002:00018540       __IMPORT_DESCRIPTOR_bncs_cachedData 00438540     bncs_cachedData:bncs_cachedData.dll
 0002:00018554       __IMPORT_DESCRIPTOR_WSOCK32 00438554     wsock32:WSOCK32.dll
 0002:00018568       __IMPORT_DESCRIPTOR_WINMM  00438568     winmm:WINMM.dll
 0002:0001857c       __IMPORT_DESCRIPTOR_qt-mt323 0043857c     qt-mt323:qt-mt323.dll
 0002:00018590       __IMPORT_DESCRIPTOR_bncs_config 00438590     bncs_config:bncs_config.dll
 0002:000185a4       __IMPORT_DESCRIPTOR_bncs_string 004385a4     bncs_string:bncs_string.dll
 0002:000185b8       __IMPORT_DESCRIPTOR_dcw    004385b8     dcw:dcw.dll
 0002:000185cc       __IMPORT_DESCRIPTOR_bncs_shim_loader 004385cc     bncs_shim_loader:bncs_shim_loader.dll
 0002:000185e0       __IMPORT_DESCRIPTOR_KERNEL32 004385e0     kernel32:KERNEL32.dll
 0002:000185f4       __IMPORT_DESCRIPTOR_USER32 004385f4     user32:USER32.dll
 0002:00018608       __IMPORT_DESCRIPTOR_MSVCP120 00438608     msvcprt:MSVCP120.dll
 0002:0001861c       __IMPORT_DESCRIPTOR_MSVCR120 0043861c     MSVCRT:MSVCR120.dll
 0002:00018630       __IMPORT_DESCRIPTOR_VERSION 00438630     version:VERSION.dll
 0002:00018644       __NULL_IMPORT_DESCRIPTOR   00438644     bncs_cachedData:bncs_cachedData.dll
 0003:00000000       ?_Generic_object@?$_Error_objects@H@std@@2V_Generic_error_category@2@A 0044f000     AdjustMon.obj
 0003:00000004       ?_Iostream_object@?$_Error_objects@H@std@@2V_Iostream_error_category@2@A 0044f004     AdjustMon.obj
 0003:00000008       ?_System_object@?$_Error_objects@H@std@@2V_System_error_category@2@A 0044f008     AdjustMon.obj
 0003:00000304       ?qwf_execute_code@@3_NA    0044f304     qui:qwidgetfactory.obj
 0003:00000308       ??_C@_09MKDN@?1designer?$AA@ 0044f308     qui:qwidgetfactory.obj
 0003:00000314       ??_C@_07MBFH@QWidget?$AA@  0044f314     qui:qwidgetfactory.obj
 0003:0000031c       ??_C@_06KNLE@QLabel?$AA@   0044f31c     qui:qwidgetfactory.obj
 0003:00000324       ??_C@_0L@GHMK@QDataTable?$AA@ 0044f324     qui:qwidgetfactory.obj
 0003:00000330       ??_C@_0BD@PMKE@QDesignerDataView2?$AA@ 0044f330     qui:qwidgetfactory.obj
 0003:00000344       ??_C@_0BG@FOMG@QDesignerDataBrowser2?$AA@ 0044f344     qui:qwidgetfactory.obj
 0003:0000035c       ??_C@_06PDBK@QTable?$AA@   0044f35c     qui:qwidgetfactory.obj
 0003:00000364       ??_C@_09GHEJ@QListView?$AA@ 0044f364     qui:qwidgetfactory.obj
 0003:00000370       ??_C@_09MEON@QIconView?$AA@ 0044f370     qui:qwidgetfactory.obj
 0003:0000037c       ??_C@_08BPKO@QListBox?$AA@ 0044f37c     qui:qwidgetfactory.obj
 0003:00000388       ??_C@_09DMGG@QComboBox?$AA@ 0044f388     qui:qwidgetfactory.obj
 0003:00000394       ??_C@_0N@OBMJ@QWidgetStack?$AA@ 0044f394     qui:qwidgetfactory.obj
 0003:000003a4       ??_C@_07CPPB@QWizard?$AA@  0044f3a4     qui:qwidgetfactory.obj
 0003:000003ac       ??_C@_0L@PDID@QTabWidget?$AA@ 0044f3ac     qui:qwidgetfactory.obj
 0003:000003b8       ??_C@_0M@HHOI@QMainWindow?$AA@ 0044f3b8     qui:qwidgetfactory.obj
 0003:000003c4       ??_C@_09JIBF@QDataView?$AA@ 0044f3c4     qui:qwidgetfactory.obj
 0003:000003d0       ??_C@_0N@LHBP@QDataBrowser?$AA@ 0044f3d0     qui:qwidgetfactory.obj
 0003:000003e0       ??_C@_0BC@OAFG@qt_central_widget?$AA@ 0044f3e0     qui:qwidgetfactory.obj
 0003:000003f4       ??_C@_05MGFC@QGrid?$AA@    0044f3f4     qui:qwidgetfactory.obj
 0003:000003fc       ??_C@_05FFKI@QHBox?$AA@    0044f3fc     qui:qwidgetfactory.obj
 0003:00000404       ??_C@_05PFPF@QVBox?$AA@    0044f404     qui:qwidgetfactory.obj
 0003:0000040c       ??_C@_08DMC@QToolBox?$AA@  0044f40c     qui:qwidgetfactory.obj
 0003:00000418       ??_C@_0L@KGMO@QPopupMenu?$AA@ 0044f418     qui:qwidgetfactory.obj
 0003:00000424       ??_C@_0L@HBBK@QScrollBar?$AA@ 0044f424     qui:qwidgetfactory.obj
 0003:00000430       ??_C@_0O@EKBI@QDateTimeEdit?$AA@ 0044f430     qui:qwidgetfactory.obj
 0003:00000440       ??_C@_09CMAO@QTimeEdit?$AA@ 0044f440     qui:qwidgetfactory.obj
 0003:0000044c       ??_C@_09LIOJ@QDateEdit?$AA@ 0044f44c     qui:qwidgetfactory.obj
 0003:00000458       ??_C@_09NJKH@QTextEdit?$AA@ 0044f458     qui:qwidgetfactory.obj
 0003:00000464       ??_C@_04KEDG@Line?$AA@     0044f464     qui:qwidgetfactory.obj
 0003:0000046c       ??_C@_09JIGN@QSplitter?$AA@ 0044f46c     qui:qwidgetfactory.obj
 0003:00000478       ??_C@_06GLED@QFrame?$AA@   0044f478     qui:qwidgetfactory.obj
 0003:00000480       ??_C@_07CEKE@QSlider?$AA@  0044f480     qui:qwidgetfactory.obj
 0003:00000488       ??_C@_05PKM@QDial?$AA@     0044f488     qui:qwidgetfactory.obj
 0003:00000490       ??_C@_0N@NBPG@QTextBrowser?$AA@ 0044f490     qui:qwidgetfactory.obj
 0003:000004a0       ??_C@_09HJMO@QTextView?$AA@ 0044f4a0     qui:qwidgetfactory.obj
 0003:000004ac       ??_C@_0N@ONGP@QProgressBar?$AA@ 0044f4ac     qui:qwidgetfactory.obj
 0003:000004bc       ??_C@_0L@GOLD@QLCDNumber?$AA@ 0044f4bc     qui:qwidgetfactory.obj
 0003:000004c8       ??_C@_07DNOJ@QDialog?$AA@  0044f4c8     qui:qwidgetfactory.obj
 0003:000004d0       ??_C@_0O@EGKB@QLayoutWidget?$AA@ 0044f4d0     qui:qwidgetfactory.obj
 0003:000004e0       ??_C@_0M@ONAE@PixmapLabel?$AA@ 0044f4e0     qui:qwidgetfactory.obj
 0003:000004ec       ??_C@_09OJPB@TextLabel?$AA@ 0044f4ec     qui:qwidgetfactory.obj
 0003:000004f8       ??_C@_0P@FPMD@QMultiLineEdit?$AA@ 0044f4f8     qui:qwidgetfactory.obj
 0003:00000508       ??_C@_08FPDC@QSpinBox?$AA@ 0044f508     qui:qwidgetfactory.obj
 0003:00000514       ??_C@_09FBHD@QLineEdit?$AA@ 0044f514     qui:qwidgetfactory.obj
 0003:00000520       ??_C@_0N@BKO@QButtonGroup?$AA@ 0044f520     qui:qwidgetfactory.obj
 0003:00000530       ??_C@_09NJAI@QGroupBox?$AA@ 0044f530     qui:qwidgetfactory.obj
 0003:0000053c       ??_C@_0N@IENO@QRadioButton?$AA@ 0044f53c     qui:qwidgetfactory.obj
 0003:0000054c       ??_C@_09GNOC@QCheckBox?$AA@ 0044f54c     qui:qwidgetfactory.obj
 0003:00000558       ??_C@_0M@FBMJ@QToolButton?$AA@ 0044f558     qui:qwidgetfactory.obj
 0003:00000564       ??_C@_0M@IFOC@QPushButton?$AA@ 0044f564     qui:qwidgetfactory.obj
 0003:00000570       ??_C@_0BB@FLKJ@DatabaseSupport2?$AA@ 0044f570     qui:moc_database2.obj
 0003:00000600       ___security_cookie         0044f600     MSVCRT:gs_cookie.obj
 0003:00000604       ___security_cookie_complement 0044f604     MSVCRT:gs_cookie.obj
 0003:00000610       ___defaultmatherr          0044f610     MSVCRT:merr.obj
 0003:00000614       ___globallocalestatus      0044f614     MSVCRT:xthdloc.obj
 0003:00000618       ___native_dllmain_reason   0044f618     MSVCRT:natstart.obj
 0003:0000061c       ??_R0?AUQShared@@@8        0044f61c     AdjustMon.obj
 0003:00000634       ??_R0?AVQGList@@@8         0044f634     AdjustMon.obj
 0003:0000064c       ??_R0?AVQPtrCollection@@@8 0044f64c     AdjustMon.obj
 0003:0000066c       ??_R0?AVCAdjustMon@@@8     0044f66c     AdjustMon.obj
 0003:00000688       ??_R0?AVbncs_mcComms@@@8   0044f688     AdjustMon.obj
 0003:000006a4       ??_R0?AVbncs_textCallback@@@8 0044f6a4     AdjustMon.obj
 0003:000006c4       ??_R0?AV?$QPtrList@VQString@@@@@8 0044f6c4     AdjustMon.obj
 0003:000006e8       ??_R0?AVerror_category@std@@@8 0044f6e8     AdjustMon.obj
 0003:0000070c       ??_R0?AV_Generic_error_category@std@@@8 0044f70c     AdjustMon.obj
 0003:00000738       ??_R0?AV_Iostream_error_category@std@@@8 0044f738     AdjustMon.obj
 0003:00000764       ??_R0?AV_System_error_category@std@@@8 0044f764     AdjustMon.obj
 0003:00000790       ??_R0?AVsignalConnectionRefList@@@8 0044f790     AdjustMon.obj
 0003:000007b8       ??_R0?AV?$QPtrList@VsignalConnection@@@@@8 0044f7b8     AdjustMon.obj
 0003:000007e8       ??_R0?AV?$QValueListPrivate@VparamInfo@@@@@8 0044f7e8     AdjustMon.obj
 0003:00000818       ??_R0?AV?$QValueListNode@VparamInfo@@@@@8 0044f818     AdjustMon.obj
 0003:00000844       ??_R0?AV?$QValueListPrivate@VcomplexParam@@@@@8 0044f844     AdjustMon.obj
 0003:00000878       ??_R0?AV?$QValueListNode@VcomplexParam@@@@@8 0044f878     AdjustMon.obj
 0003:000008a8       ??_R0?AV?$QValueListPrivate@VcomplexInstance@@@@@8 0044f8a8     AdjustMon.obj
 0003:000008e0       ??_R0?AV?$QValueListNode@VcomplexInstance@@@@@8 0044f8e0     AdjustMon.obj
 0003:00000914       ??_R0?AV?$QValueListPrivate@VinstanceInfo@@@@@8 0044f914     AdjustMon.obj
 0003:00000948       ??_R0?AV?$QValueListNode@VinstanceInfo@@@@@8 0044f948     AdjustMon.obj
 0003:00000978       ??_R0?AV?$QValueListPrivate@VdeviceTypeInfo@@@@@8 0044f978     AdjustMon.obj
 0003:000009ac       ??_R0?AV?$QValueListNode@VdeviceTypeInfo@@@@@8 0044f9ac     AdjustMon.obj
 0003:000009e0       ??_R0?AV?$QValueListPrivate@VcomplexType@@@@@8 0044f9e0     AdjustMon.obj
 0003:00000a14       ??_R0?AV?$QValueListNode@VcomplexType@@@@@8 0044fa14     AdjustMon.obj
 0003:00000a44       ??_R0?AVQKeyEvent@@@8      0044fa44     AppBar.obj
 0003:00000a5c       ??_R0?AVQEvent@@@8         0044fa5c     AppBar.obj
 0003:00000a74       ??_R0?AVQt@@@8             0044fa74     AppBar.obj
 0003:00000a88       ??_R0?AVQGDict@@@8         0044fa88     AppBar.obj
 0003:00000aa0       ??_R0?AVQGrid@@@8          0044faa0     AppBar.obj
 0003:00000ab4       ??_R0?AVQFrame@@@8         0044fab4     AppBar.obj
 0003:00000acc       ??_R0?AVQWidget@@@8        0044facc     AppBar.obj
 0003:00000ae4       ??_R0?AVQObject@@@8        0044fae4     AppBar.obj
 0003:00000afc       ??_R0?AVQPaintDevice@@@8   0044fafc     AppBar.obj
 0003:00000b18       ??_R0?AVCAppBar@@@8        0044fb18     AppBar.obj
 0003:00000b30       ??_R0?AVCSimpleBar@@@8     0044fb30     AppBar.obj
 0003:00000b4c       ??_R0?AV?$QDict@VCAppItem@@@@@8 0044fb4c     AppBar.obj
 0003:00000b70       ??_R0?AVCAppItem@@@8       0044fb70     AppItem.obj
 0003:00000b88       ??_R0?AVCAppSwitch@@@8     0044fb88     AppSwitch.obj
 0003:00000ba4       ??_R0?AV?$QDict@VCExtProcess@@@@@8 0044fba4     AppSwitch.obj
 0003:00000bcc       ??_R0?AVIdCWlimits@@@8     0044fbcc     AppView.obj
 0003:00000be8       ??_R0?AVCAppView@@@8       0044fbe8     AppView.obj
 0003:00000c00       ??_R0?AVQWidgetStack@@@8   0044fc00     AppView.obj
 0003:00000c1c       ??_R0?AV?$QDict@VQWidget@@@@@8 0044fc1c     AppView.obj
 0003:00000c40       ??_R0?AVQSocketDevice@@@8  0044fc40     bncs_multicast.obj
 0003:00000c5c       ??_R0?AVQIODevice@@@8      0044fc5c     bncs_multicast.obj
 0003:00000c74       ??_R0?AVQSocketNotifier@@@8 0044fc74     bncs_multicast.obj
 0003:00000c94       ??_R0?AVbncs_multicast@@@8 0044fc94     bncs_multicast.obj
 0003:00000cb4       ??_R0?AVbncs_popup@@@8     0044fcb4     bncs_popup.obj
 0003:00000cd0       ??_R0?AVQPopupMenu@@@8     0044fcd0     bncs_popup.obj
 0003:00000cec       ??_R0?AVQMenuData@@@8      0044fcec     bncs_popup.obj
 0003:00000d04       ??_R0?AVIccClientCallback@@@8 0044fd04     Client.obj
 0003:00000d24       ??_R0?AVCClient@@@8        0044fd24     Client.obj
 0003:00000d3c       ??_R0?AVCConfirm_Exit@@@8  0044fd3c     Confirm_Exit.obj
 0003:00000d58       ??_R0?AVQDialog@@@8        0044fd58     Confirm_Exit.obj
 0003:00000d70       ??_R0?AVstructured_exception@@@8 0044fd70     except.obj
 0003:00000d94       ??_R0?AVCExtProcess@@@8    0044fd94     ExtProcess.obj
 0003:00000db0       ??_R0?AVQProcess@@@8       0044fdb0     ExtProcess.obj
 0003:00000dc8       ??_R0?AVCLookUp@@@8        0044fdc8     LookUp.obj
 0003:00000de0       ??_R0?AVQLayoutItem@@@8    0044fde0     PanelMan.obj
 0003:00000dfc       ??_R0?AVQVBoxLayout@@@8    0044fdfc     PanelMan.obj
 0003:00000e18       ??_R0?AVQBoxLayout@@@8     0044fe18     PanelMan.obj
 0003:00000e34       ??_R0?AVQLayout@@@8        0044fe34     PanelMan.obj
 0003:00000e4c       ??_R0?AVQListBox@@@8       0044fe4c     PanelMan.obj
 0003:00000e64       ??_R0?AVQScrollView@@@8    0044fe64     PanelMan.obj
 0003:00000e80       ??_R0?AVCPanelMan@@@8      0044fe80     PanelMan.obj
 0003:00000e98       ??_R0?AVQTimer@@@8         0044fe98     StartPop.obj
 0003:00000eb0       ??_R0?AVQLabel@@@8         0044feb0     StartPop.obj
 0003:00000ec8       ??_R0?AVCStartPop@@@8      0044fec8     StartPop.obj
 0003:00000ee0       ??_R0?AVCStatusBar@@@8     0044fee0     StatusBar.obj
 0003:00000efc       ??_R0?AVCTitleBar@@@8      0044fefc     TitleBar.obj
 0003:00000f14       ??_R0?AVwait@@@8           0044ff14     waitimpl.obj
 0003:00000f28       ??_R0?AVQPushButton@@@8    0044ff28     cfg_widgets001:config_mb4impl.obj
 0003:00000f44       ??_R0?AVQButton@@@8        0044ff44     cfg_widgets001:config_mb4impl.obj
 0003:00000f5c       ??_R0?AVQButtonGroup@@@8   0044ff5c     cfg_widgets001:config_mb4impl.obj
 0003:00000f78       ??_R0?AVQGroupBox@@@8      0044ff78     cfg_widgets001:config_mb4impl.obj
 0003:00000f90       ??_R0?AVbncs_disklog@@@8   0044ff90     bncs_disklog:bncs_disklog.obj
 0003:00000fac       ??_R0?AVcBncsVersion@@@8   0044ffac     bncsversioninfo:cBncsVersion.obj
 0003:00000fc8       ??_R0?AVtype_info@@@8      0044ffc8     MSVCRT:ti_inst.obj
 0003:00000fe4       ?id@?$num_put@DV?$back_insert_iterator@V?$basic_string@DU?$char_traits@D@std@@V?$allocator@D@2@@std@@@std@@@std@@2V0locale@2@A 0044ffe4     AdjustMon.obj
 0003:00000fe8       ?id@?$num_put@_WV?$back_insert_iterator@V?$basic_string@_WU?$char_traits@_W@std@@V?$allocator@_W@2@@std@@@std@@@std@@2V0locale@2@A 0044ffe8     AdjustMon.obj
 0003:00000ff4       ?gResC@@3VresourceCounts@@A 0044fff4     AppView.obj
 0003:00001008       ?strLastPanel@@3VQString@@A 00450008     main.obj
 0003:0000100c       ?metaObj@bncs_popup@@0PAVQMetaObject@@A 0045000c     moc_bncs_popup.obj
 0003:0000102c       ?m_defaultTitle@CPanelMan@@0VQString@@A 0045002c     PanelMan.obj
 0003:00001038       ?metaObj@CAppBar@@0PAVQMetaObject@@A 00450038     moc_AppBar.obj
 0003:00001054       ?metaObj@CAppSwitch@@0PAVQMetaObject@@A 00450054     moc_AppSwitch.obj
 0003:0000105c       ?metaObj@bncs_multicast@@0PAVQMetaObject@@A 0045005c     moc_bncs_multicast.obj
 0003:00001068       ?metaObj@CConfirm_Exit@@0PAVQMetaObject@@A 00450068     moc_Confirm_Exit.obj
 0003:00001094       ?metaObj@CPanelMan@@0PAVQMetaObject@@A 00450094     moc_PanelMan.obj
 0003:000010a0       ?metaObj@CSimpleBar@@0PAVQMetaObject@@A 004500a0     moc_SimpleBar.obj
 0003:000010ac       ?metaObj@CStartPop@@0PAVQMetaObject@@A 004500ac     moc_StartPop.obj
 0003:000010b8       ?metaObj@CStatusBar@@0PAVQMetaObject@@A 004500b8     moc_StatusBar.obj
 0003:000010c4       ?metaObj@CTitleBar@@0PAVQMetaObject@@A 004500c4     moc_TitleBar.obj
 0003:000010d0       ?metaObj@wait@@0PAVQMetaObject@@A 004500d0     moc_waitimpl.obj
 0003:000010d8       ?metaObj@config_mb4@@0PAVQMetaObject@@A 004500d8     cfg_widgets001:moc_config_mb4impl.obj
 0003:000010e8       ?qwf_currFileName@@3VQString@@A 004500e8     qui:qwidgetfactory.obj
 0003:00001120       ?qwf_forms@@3PAV?$QMap@PAVQWidget@@VQString@@@@A 00450120     qui:qwidgetfactory.obj
 0003:00001124       ?qwf_language@@3PAVQString@@A 00450124     qui:qwidgetfactory.obj
 0003:00001128       ?qwf_stays_on_top@@3_NA    00450128     qui:qwidgetfactory.obj
 0003:0000112c       ?qwf_form_object@@3PAVQObject@@A 0045012c     qui:qwidgetfactory.obj
 0003:00001130       ?qwf_plugin_dir@@3PAVQString@@A 00450130     qui:qwidgetfactory.obj
 0003:00001134       ??_C@_00A@?$AA@            00450134     qui:qwidgetfactory.obj
 0003:00001140       ?metaObj@QDesignerDataBrowser2@@0PAVQMetaObject@@A 00450140     qui:moc_database2.obj
 0003:00001144       ?metaObj@QDesignerDataView2@@0PAVQMetaObject@@A 00450144     qui:moc_database2.obj
 0003:00001488       __commode                  00450488     MSVCRT:xncommod.obj
 0003:0000148c       __dowildcard               0045048c     MSVCRT:wildcard.obj
 0003:00001490       __newmode                  00450490     MSVCRT:_newmode.obj
 0003:00001494       __fmode                    00450494     MSVCRT:xtxtmode.obj
 0003:00001498       ___native_startup_lock     00450498     <common>
 0003:0000149c       ___native_startup_state    0045049c     <common>
 0003:000014a0       ___dyn_tls_init_callback   004504a0     <common>
 0003:000014a4       ___onexitend               004504a4     <common>
 0003:000014a8       ___onexitbegin             004504a8     <common>

 entry point at        0001:000189b2

 Static symbols

 0001:00000000       _$E185                     00401000 f   qui:qwidgetfactory.obj
 0001:0000000a       _$E182                     0040100a f   qui:qwidgetfactory.obj
 0001:00000020       _$E184                     00401020 f   qui:qwidgetfactory.obj
 0001:0000002c       _$E183                     0040102c f   qui:qwidgetfactory.obj
 0001:0000004e       _$E190                     0040104e f   qui:qwidgetfactory.obj
 0001:00000058       _$E187                     00401058 f   qui:qwidgetfactory.obj
 0001:00000069       _$E189                     00401069 f   qui:qwidgetfactory.obj
 0001:00000075       _$E188                     00401075 f   qui:qwidgetfactory.obj
 0001:000001fb       ?setupPluginDir@@YAXXZ     004011fb f   qui:qwidgetfactory.obj
 0001:00001d31       _$E103                     00402d31 f   qui:moc_database2.obj
 0001:00001d3b       _$E100                     00402d3b f   qui:moc_database2.obj
 0001:00001d51       _$E102                     00402d51 f   qui:moc_database2.obj
 0001:00001d5d       _$E101                     00402d5d f   qui:moc_database2.obj
 0001:00001e57       _$E108                     00402e57 f   qui:moc_database2.obj
 0001:00001e61       _$E105                     00402e61 f   qui:moc_database2.obj
 0001:00001e77       _$E107                     00402e77 f   qui:moc_database2.obj
 0001:00001e83       _$E106                     00402e83 f   qui:moc_database2.obj
 0001:0000202f       ??__E?_Generic_object@?$_Error_objects@H@std@@2V_Generic_error_category@2@A@@YAXXZ 0040302f f   AdjustMon.obj
 0001:0000205e       ??__E?_Iostream_object@?$_Error_objects@H@std@@2V_Iostream_error_category@2@A@@YAXXZ 0040305e f   AdjustMon.obj
 0001:0000209e       ??__E?_System_object@?$_Error_objects@H@std@@2V_System_error_category@2@A@@YAXXZ 0040309e f   AdjustMon.obj
 0001:000020de       ??__EgResC@@YAXXZ          004030de f   AppView.obj
 0001:000020f4       ??__EstrLastPanel@@YAXXZ   004030f4 f   main.obj
 0001:00002118       ??__EcleanUp_bncs_popup@@YAXXZ 00403118 f   moc_bncs_popup.obj
 0001:00002139       ??__E?m_defaultTitle@CPanelMan@@0VQString@@A@@YAXXZ 00403139 f   PanelMan.obj
 0001:0000215d       ??__EcleanUp_CAppBar@@YAXXZ 0040315d f   moc_AppBar.obj
 0001:0000217e       ??__EcleanUp_CAppSwitch@@YAXXZ 0040317e f   moc_AppSwitch.obj
 0001:0000219f       ??__EcleanUp_bncs_multicast@@YAXXZ 0040319f f   moc_bncs_multicast.obj
 0001:000021c0       ??__EcleanUp_CConfirm_Exit@@YAXXZ 004031c0 f   moc_Confirm_Exit.obj
 0001:000021e1       ??__EcleanUp_CPanelMan@@YAXXZ 004031e1 f   moc_PanelMan.obj
 0001:00002202       ??__EcleanUp_CSimpleBar@@YAXXZ 00403202 f   moc_SimpleBar.obj
 0001:00002223       ??__EcleanUp_CStartPop@@YAXXZ 00403223 f   moc_StartPop.obj
 0001:00002244       ??__EcleanUp_CStatusBar@@YAXXZ 00403244 f   moc_StatusBar.obj
 0001:00002265       ??__EcleanUp_CTitleBar@@YAXXZ 00403265 f   moc_TitleBar.obj
 0001:00002286       ??__EcleanUp_wait@@YAXXZ   00403286 f   moc_waitimpl.obj
 0001:000022a7       ??__EcleanUp_config_mb4@@YAXXZ 004032a7 f   cfg_widgets001:moc_config_mb4impl.obj
 0001:00004a88       __catch$?_Copy@?$basic_string@DU?$char_traits@D@std@@V?$allocator@D@2@@std@@QAEXII@Z$0 00405a88 f i AdjustMon.obj
 0001:00004b20       __catch$?_Copy@?$basic_string@DU?$char_traits@D@std@@V?$allocator@D@2@@std@@QAEXII@Z$1 00405b20 f i AdjustMon.obj
 0001:00010870       ?my_translator@@YAXIPAU_EXCEPTION_POINTERS@@@Z 00411870 f   except.obj
 0001:000110ff       __catch$_main$0            004120ff f   main.obj
 0001:000113a6       __catch$_main$1            004123a6 f   main.obj
 0001:0001160d       _md5_process               0041260d f   md5.obj
 0001:000188ae       _pre_c_init                004198ae f   MSVCRT:crtexew.obj
 0001:00018967       _pre_cpp_init              00419967 f   MSVCRT:crtexew.obj
 0001:000189bc       ___tmainCRTStartup         004199bc f   MSVCRT:crtexew.obj
 0001:00018bb0       $$000000                   00419bb0     MSVCRT:sehprolg4.obj
 0001:0001a8b8       __unwindfunclet$??1?$QMapNode@VQString@@VcomplexParam@@@@QAE@XZ$0 0041b8b8 f   AdjustMon.obj
 0001:0001a8b8       __unwindfunclet$??0?$QMapNode@VQString@@VcomplexParam@@@@QAE@XZ$0 0041b8b8 f   AdjustMon.obj
 0001:0001a8b8       __unwindfunclet$??0?$QMapNode@VQString@@VcomplexParam@@@@QAE@ABU0@@Z$0 0041b8b8 f   AdjustMon.obj
 0001:0001a8b8       __unwindfunclet$??0?$QMapNode@VQString@@VcomplexParam@@@@QAE@ABVQString@@@Z$0 0041b8b8 f   AdjustMon.obj
 0001:0001a8c4       __unwindfunclet$??0?$QMapNode@VQString@@VcomplexParam@@@@QAE@XZ$1 0041b8c4 f   AdjustMon.obj
 0001:0001a8c4       __unwindfunclet$??1?$QMapNode@VQString@@VcomplexParam@@@@QAE@XZ$1 0041b8c4 f   AdjustMon.obj
 0001:0001a8c4       __unwindfunclet$??0?$QMapNode@VQString@@VcomplexParam@@@@QAE@ABVQString@@@Z$1 0041b8c4 f   AdjustMon.obj
 0001:0001a8c4       __unwindfunclet$??0?$QMapNode@VQString@@VcomplexParam@@@@QAE@ABU0@@Z$1 0041b8c4 f   AdjustMon.obj
 0001:0001a8d0       __ehhandler$??0?$QMapNode@VQString@@VcomplexParam@@@@QAE@ABU0@@Z 0041b8d0 f   AdjustMon.obj
 0001:0001a8d0       __ehhandler$??1?$QMapNode@VQString@@VcomplexParam@@@@QAE@XZ 0041b8d0 f   AdjustMon.obj
 0001:0001a8d0       __ehhandler$??0?$QMapNode@VQString@@VcomplexParam@@@@QAE@XZ 0041b8d0 f   AdjustMon.obj
 0001:0001a8d0       __ehhandler$??0?$QMapNode@VQString@@VcomplexParam@@@@QAE@ABVQString@@@Z 0041b8d0 f   AdjustMon.obj
 0001:0001a8eb       __unwindfunclet$??0?$QMapNode@VQString@@VcomplexType@@@@QAE@ABU0@@Z$0 0041b8eb f   AdjustMon.obj
 0001:0001a8eb       __unwindfunclet$??0?$QMapNode@VQString@@VcomplexType@@@@QAE@XZ$0 0041b8eb f   AdjustMon.obj
 0001:0001a8eb       __unwindfunclet$??1?$QMapNode@VQString@@VcomplexType@@@@QAE@XZ$0 0041b8eb f   AdjustMon.obj
 0001:0001a8eb       __unwindfunclet$??0?$QMapNode@VQString@@VcomplexType@@@@QAE@ABVQString@@@Z$0 0041b8eb f   AdjustMon.obj
 0001:0001a8f7       __unwindfunclet$??1?$QMapNode@VQString@@VcomplexType@@@@QAE@XZ$1 0041b8f7 f   AdjustMon.obj
 0001:0001a8f7       __unwindfunclet$??0?$QMapNode@VQString@@VcomplexType@@@@QAE@ABVQString@@@Z$1 0041b8f7 f   AdjustMon.obj
 0001:0001a8f7       __unwindfunclet$??0?$QMapNode@VQString@@VcomplexType@@@@QAE@ABU0@@Z$1 0041b8f7 f   AdjustMon.obj
 0001:0001a8f7       __unwindfunclet$??0?$QMapNode@VQString@@VcomplexType@@@@QAE@XZ$1 0041b8f7 f   AdjustMon.obj
 0001:0001a903       __ehhandler$??0?$QMapNode@VQString@@VcomplexType@@@@QAE@ABU0@@Z 0041b903 f   AdjustMon.obj
 0001:0001a903       __ehhandler$??0?$QMapNode@VQString@@VcomplexType@@@@QAE@ABVQString@@@Z 0041b903 f   AdjustMon.obj
 0001:0001a903       __ehhandler$??0?$QMapNode@VQString@@VcomplexType@@@@QAE@XZ 0041b903 f   AdjustMon.obj
 0001:0001a903       __ehhandler$??1?$QMapNode@VQString@@VcomplexType@@@@QAE@XZ 0041b903 f   AdjustMon.obj
 0001:0001a91e       __unwindfunclet$??1?$QMapNode@VQString@@VinstanceInfo@@@@QAE@XZ$0 0041b91e f   AdjustMon.obj
 0001:0001a91e       __unwindfunclet$??0?$QMapNode@VQString@@VinstanceInfo@@@@QAE@ABVQString@@@Z$0 0041b91e f   AdjustMon.obj
 0001:0001a91e       __unwindfunclet$??0?$QMapNode@VQString@@VinstanceInfo@@@@QAE@XZ$0 0041b91e f   AdjustMon.obj
 0001:0001a91e       __unwindfunclet$??0?$QMapNode@VQString@@VinstanceInfo@@@@QAE@ABU0@@Z$0 0041b91e f   AdjustMon.obj
 0001:0001a92a       __unwindfunclet$??0?$QMapNode@VQString@@VinstanceInfo@@@@QAE@XZ$1 0041b92a f   AdjustMon.obj
 0001:0001a92a       __unwindfunclet$??0?$QMapNode@VQString@@VinstanceInfo@@@@QAE@ABVQString@@@Z$1 0041b92a f   AdjustMon.obj
 0001:0001a92a       __unwindfunclet$??0?$QMapNode@VQString@@VinstanceInfo@@@@QAE@ABU0@@Z$1 0041b92a f   AdjustMon.obj
 0001:0001a92a       __unwindfunclet$??1?$QMapNode@VQString@@VinstanceInfo@@@@QAE@XZ$1 0041b92a f   AdjustMon.obj
 0001:0001a936       __ehhandler$??1?$QMapNode@VQString@@VinstanceInfo@@@@QAE@XZ 0041b936 f   AdjustMon.obj
 0001:0001a936       __ehhandler$??0?$QMapNode@VQString@@VinstanceInfo@@@@QAE@ABU0@@Z 0041b936 f   AdjustMon.obj
 0001:0001a936       __ehhandler$??0?$QMapNode@VQString@@VinstanceInfo@@@@QAE@XZ 0041b936 f   AdjustMon.obj
 0001:0001a936       __ehhandler$??0?$QMapNode@VQString@@VinstanceInfo@@@@QAE@ABVQString@@@Z 0041b936 f   AdjustMon.obj
 0001:0001a951       __unwindfunclet$??0?$QMapNode@VQString@@VparamInfo@@@@QAE@ABVQString@@@Z$0 0041b951 f   AdjustMon.obj
 0001:0001a951       __unwindfunclet$??0?$QMapNode@VQString@@VparamInfo@@@@QAE@ABU0@@Z$0 0041b951 f   AdjustMon.obj
 0001:0001a951       __unwindfunclet$??0?$QMapNode@VQString@@VparamInfo@@@@QAE@XZ$0 0041b951 f   AdjustMon.obj
 0001:0001a951       __unwindfunclet$??1?$QMapNode@VQString@@VparamInfo@@@@QAE@XZ$0 0041b951 f   AdjustMon.obj
 0001:0001a95d       __unwindfunclet$??0?$QMapNode@VQString@@VparamInfo@@@@QAE@XZ$1 0041b95d f   AdjustMon.obj
 0001:0001a95d       __unwindfunclet$??0?$QMapNode@VQString@@VparamInfo@@@@QAE@ABU0@@Z$1 0041b95d f   AdjustMon.obj
 0001:0001a95d       __unwindfunclet$??1?$QMapNode@VQString@@VparamInfo@@@@QAE@XZ$1 0041b95d f   AdjustMon.obj
 0001:0001a95d       __unwindfunclet$??0?$QMapNode@VQString@@VparamInfo@@@@QAE@ABVQString@@@Z$1 0041b95d f   AdjustMon.obj
 0001:0001a969       __ehhandler$??1?$QMapNode@VQString@@VparamInfo@@@@QAE@XZ 0041b969 f   AdjustMon.obj
 0001:0001a969       __ehhandler$??0?$QMapNode@VQString@@VparamInfo@@@@QAE@ABU0@@Z 0041b969 f   AdjustMon.obj
 0001:0001a969       __ehhandler$??0?$QMapNode@VQString@@VparamInfo@@@@QAE@ABVQString@@@Z 0041b969 f   AdjustMon.obj
 0001:0001a969       __ehhandler$??0?$QMapNode@VQString@@VparamInfo@@@@QAE@XZ 0041b969 f   AdjustMon.obj
 0001:0001a984       __unwindfunclet$?copy@?$QMapPrivate@VQString@@VparamInfo@@@@QAEPAU?$QMapNode@VQString@@VparamInfo@@@@PAU2@@Z$0 0041b984 f   AdjustMon.obj
 0001:0001a984       __unwindfunclet$??0?$QMapPrivate@VQString@@VparamInfo@@@@QAE@PBV0@@Z$0 0041b984 f   AdjustMon.obj
 0001:0001a984       __unwindfunclet$??0?$QMapPrivate@VQString@@VinstanceInfo@@@@QAE@PBV0@@Z$0 0041b984 f   AdjustMon.obj
 0001:0001a984       __unwindfunclet$?copy@?$QMapPrivate@VQString@@VcomplexInstance@@@@QAEPAU?$QMapNode@VQString@@VcomplexInstance@@@@PAU2@@Z$0 0041b984 f   AdjustMon.obj
 0001:0001a984       __unwindfunclet$?copy@?$QMapPrivate@VQString@@VdeviceTypeInfo@@@@QAEPAU?$QMapNode@VQString@@VdeviceTypeInfo@@@@PAU2@@Z$0 0041b984 f   AdjustMon.obj
 0001:0001a984       __unwindfunclet$??0?$QMapPrivate@VQString@@VcomplexType@@@@QAE@PBV0@@Z$0 0041b984 f   AdjustMon.obj
 0001:0001a984       __unwindfunclet$?copy@?$QMapPrivate@VQString@@VcomplexType@@@@QAEPAU?$QMapNode@VQString@@VcomplexType@@@@PAU2@@Z$0 0041b984 f   AdjustMon.obj
 0001:0001a984       __unwindfunclet$??0?$QMapPrivate@VQString@@VcomplexInstance@@@@QAE@PBV0@@Z$0 0041b984 f   AdjustMon.obj
 0001:0001a984       __unwindfunclet$?copy@?$QMapPrivate@VQString@@VcomplexParam@@@@QAEPAU?$QMapNode@VQString@@VcomplexParam@@@@PAU2@@Z$0 0041b984 f   AdjustMon.obj
 0001:0001a984       __unwindfunclet$?copy@?$QMapPrivate@VQString@@VinstanceInfo@@@@QAEPAU?$QMapNode@VQString@@VinstanceInfo@@@@PAU2@@Z$0 0041b984 f   AdjustMon.obj
 0001:0001a984       __unwindfunclet$??0?$QMapPrivate@VQString@@VcomplexParam@@@@QAE@PBV0@@Z$0 0041b984 f   AdjustMon.obj
 0001:0001a984       __unwindfunclet$??0?$QMapPrivate@VQString@@VdeviceTypeInfo@@@@QAE@PBV0@@Z$0 0041b984 f   AdjustMon.obj
 0001:0001a98e       __ehhandler$?copy@?$QMapPrivate@VQString@@VdeviceTypeInfo@@@@QAEPAU?$QMapNode@VQString@@VdeviceTypeInfo@@@@PAU2@@Z 0041b98e f   AdjustMon.obj
 0001:0001a98e       __ehhandler$?copy@?$QMapPrivate@VQString@@VcomplexParam@@@@QAEPAU?$QMapNode@VQString@@VcomplexParam@@@@PAU2@@Z 0041b98e f   AdjustMon.obj
 0001:0001a98e       __ehhandler$??0?$QMapPrivate@VQString@@VdeviceTypeInfo@@@@QAE@PBV0@@Z 0041b98e f   AdjustMon.obj
 0001:0001a98e       __ehhandler$??0?$QMapPrivate@VQString@@VcomplexParam@@@@QAE@PBV0@@Z 0041b98e f   AdjustMon.obj
 0001:0001a98e       __ehhandler$??0?$QMapPrivate@VQString@@VcomplexInstance@@@@QAE@PBV0@@Z 0041b98e f   AdjustMon.obj
 0001:0001a98e       __ehhandler$?copy@?$QMapPrivate@VQString@@VcomplexInstance@@@@QAEPAU?$QMapNode@VQString@@VcomplexInstance@@@@PAU2@@Z 0041b98e f   AdjustMon.obj
 0001:0001a98e       __ehhandler$?copy@?$QMapPrivate@VQString@@VparamInfo@@@@QAEPAU?$QMapNode@VQString@@VparamInfo@@@@PAU2@@Z 0041b98e f   AdjustMon.obj
 0001:0001a98e       __ehhandler$??0?$QMapPrivate@VQString@@VcomplexType@@@@QAE@PBV0@@Z 0041b98e f   AdjustMon.obj
 0001:0001a98e       __ehhandler$?copy@?$QMapPrivate@VQString@@VcomplexType@@@@QAEPAU?$QMapNode@VQString@@VcomplexType@@@@PAU2@@Z 0041b98e f   AdjustMon.obj
 0001:0001a98e       __ehhandler$??0?$QMapPrivate@VQString@@VinstanceInfo@@@@QAE@PBV0@@Z 0041b98e f   AdjustMon.obj
 0001:0001a98e       __ehhandler$??0?$QMapPrivate@VQString@@VparamInfo@@@@QAE@PBV0@@Z 0041b98e f   AdjustMon.obj
 0001:0001a98e       __ehhandler$?copy@?$QMapPrivate@VQString@@VinstanceInfo@@@@QAEPAU?$QMapNode@VQString@@VinstanceInfo@@@@PAU2@@Z 0041b98e f   AdjustMon.obj
 0001:0001a9a9       __unwindfunclet$??0?$QPtrList@VsignalConnection@@@@QAE@XZ$0 0041b9a9 f   AdjustMon.obj
 0001:0001a9a9       __unwindfunclet$??0?$QPtrList@VQString@@@@QAE@XZ$0 0041b9a9 f   AdjustMon.obj
 0001:0001a9a9       __unwindfunclet$??1?$QPtrList@VQString@@@@UAE@XZ$0 0041b9a9 f   AdjustMon.obj
 0001:0001a9a9       __unwindfunclet$??0?$QPtrList@VsignalConnection@@@@QAE@ABV0@@Z$0 0041b9a9 f   AdjustMon.obj
 0001:0001a9a9       __unwindfunclet$??1?$QPtrList@VsignalConnection@@@@UAE@XZ$0 0041b9a9 f   AdjustMon.obj
 0001:0001a9b2       __ehhandler$??0?$QPtrList@VsignalConnection@@@@QAE@ABV0@@Z 0041b9b2 f   AdjustMon.obj
 0001:0001a9b2       __ehhandler$??0?$QPtrList@VQString@@@@QAE@XZ 0041b9b2 f   AdjustMon.obj
 0001:0001a9b2       __ehhandler$??1?$QPtrList@VQString@@@@UAE@XZ 0041b9b2 f   AdjustMon.obj
 0001:0001a9b2       __ehhandler$??1?$QPtrList@VsignalConnection@@@@UAE@XZ 0041b9b2 f   AdjustMon.obj
 0001:0001a9b2       __ehhandler$??0?$QPtrList@VsignalConnection@@@@QAE@XZ 0041b9b2 f   AdjustMon.obj
 0001:0001a9cd       __unwindfunclet$??0?$QValueListNode@VcomplexInstance@@@@QAE@ABVcomplexInstance@@@Z$0 0041b9cd f   AdjustMon.obj
 0001:0001a9cd       __unwindfunclet$??1?$QValueListNode@VcomplexInstance@@@@UAE@XZ$0 0041b9cd f   AdjustMon.obj
 0001:0001a9cd       __unwindfunclet$??0?$QValueListNode@VcomplexInstance@@@@QAE@XZ$0 0041b9cd f   AdjustMon.obj
 0001:0001a9d9       __ehhandler$??0?$QValueListNode@VcomplexInstance@@@@QAE@XZ 0041b9d9 f   AdjustMon.obj
 0001:0001a9d9       __ehhandler$??0?$QValueListNode@VcomplexInstance@@@@QAE@ABVcomplexInstance@@@Z 0041b9d9 f   AdjustMon.obj
 0001:0001a9d9       __ehhandler$??1?$QValueListNode@VcomplexInstance@@@@UAE@XZ 0041b9d9 f   AdjustMon.obj
 0001:0001a9f4       __unwindfunclet$??1?$QValueListNode@VcomplexParam@@@@UAE@XZ$0 0041b9f4 f   AdjustMon.obj
 0001:0001a9f4       __unwindfunclet$??0?$QValueListNode@VcomplexParam@@@@QAE@ABVcomplexParam@@@Z$0 0041b9f4 f   AdjustMon.obj
 0001:0001a9f4       __unwindfunclet$??0?$QValueListNode@VcomplexParam@@@@QAE@XZ$0 0041b9f4 f   AdjustMon.obj
 0001:0001aa00       __ehhandler$??0?$QValueListNode@VcomplexParam@@@@QAE@ABVcomplexParam@@@Z 0041ba00 f   AdjustMon.obj
 0001:0001aa00       __ehhandler$??0?$QValueListNode@VcomplexParam@@@@QAE@XZ 0041ba00 f   AdjustMon.obj
 0001:0001aa00       __ehhandler$??1?$QValueListNode@VcomplexParam@@@@UAE@XZ 0041ba00 f   AdjustMon.obj
 0001:0001aa1b       __unwindfunclet$??0?$QValueListNode@VdeviceTypeInfo@@@@QAE@ABVdeviceTypeInfo@@@Z$0 0041ba1b f   AdjustMon.obj
 0001:0001aa1b       __unwindfunclet$??0?$QValueListNode@VdeviceTypeInfo@@@@QAE@XZ$0 0041ba1b f   AdjustMon.obj
 0001:0001aa1b       __unwindfunclet$??1?$QValueListNode@VdeviceTypeInfo@@@@UAE@XZ$0 0041ba1b f   AdjustMon.obj
 0001:0001aa27       __ehhandler$??1?$QValueListNode@VdeviceTypeInfo@@@@UAE@XZ 0041ba27 f   AdjustMon.obj
 0001:0001aa27       __ehhandler$??0?$QValueListNode@VdeviceTypeInfo@@@@QAE@ABVdeviceTypeInfo@@@Z 0041ba27 f   AdjustMon.obj
 0001:0001aa27       __ehhandler$??0?$QValueListNode@VdeviceTypeInfo@@@@QAE@XZ 0041ba27 f   AdjustMon.obj
 0001:0001aa42       __unwindfunclet$??0?$QValueListNode@VinstanceInfo@@@@QAE@ABVinstanceInfo@@@Z$0 0041ba42 f   AdjustMon.obj
 0001:0001aa42       __unwindfunclet$??1?$QValueListNode@VinstanceInfo@@@@UAE@XZ$0 0041ba42 f   AdjustMon.obj
 0001:0001aa42       __unwindfunclet$??0?$QValueListNode@VinstanceInfo@@@@QAE@XZ$0 0041ba42 f   AdjustMon.obj
 0001:0001aa4e       __ehhandler$??0?$QValueListNode@VinstanceInfo@@@@QAE@XZ 0041ba4e f   AdjustMon.obj
 0001:0001aa4e       __ehhandler$??0?$QValueListNode@VinstanceInfo@@@@QAE@ABVinstanceInfo@@@Z 0041ba4e f   AdjustMon.obj
 0001:0001aa4e       __ehhandler$??1?$QValueListNode@VinstanceInfo@@@@UAE@XZ 0041ba4e f   AdjustMon.obj
 0001:0001aa69       __unwindfunclet$??0?$QValueListPrivate@VcomplexType@@@@QAE@ABV0@@Z$0 0041ba69 f   AdjustMon.obj
 0001:0001aa69       __unwindfunclet$??0?$QValueListPrivate@VcomplexParam@@@@QAE@ABV0@@Z$0 0041ba69 f   AdjustMon.obj
 0001:0001aa69       __unwindfunclet$??0?$QValueListPrivate@VinstanceInfo@@@@QAE@ABV0@@Z$0 0041ba69 f   AdjustMon.obj
 0001:0001aa69       __unwindfunclet$??0?$QValueListPrivate@VdeviceTypeInfo@@@@QAE@ABV0@@Z$0 0041ba69 f   AdjustMon.obj
 0001:0001aa69       __unwindfunclet$??0?$QValueListPrivate@VcomplexInstance@@@@QAE@ABV0@@Z$0 0041ba69 f   AdjustMon.obj
 0001:0001aa69       __unwindfunclet$??0?$QValueListPrivate@VparamInfo@@@@QAE@ABV0@@Z$0 0041ba69 f   AdjustMon.obj
 0001:0001aa73       __ehhandler$??0?$QValueListPrivate@VcomplexInstance@@@@QAE@ABV0@@Z 0041ba73 f   AdjustMon.obj
 0001:0001aa73       __ehhandler$??0?$QValueListPrivate@VcomplexType@@@@QAE@ABV0@@Z 0041ba73 f   AdjustMon.obj
 0001:0001aa73       __ehhandler$??0?$QValueListPrivate@VcomplexParam@@@@QAE@ABV0@@Z 0041ba73 f   AdjustMon.obj
 0001:0001aa73       __ehhandler$??0?$QValueListPrivate@VinstanceInfo@@@@QAE@ABV0@@Z 0041ba73 f   AdjustMon.obj
 0001:0001aa73       __ehhandler$??0?$QValueListPrivate@VparamInfo@@@@QAE@ABV0@@Z 0041ba73 f   AdjustMon.obj
 0001:0001aa73       __ehhandler$??0?$QValueListPrivate@VdeviceTypeInfo@@@@QAE@ABV0@@Z 0041ba73 f   AdjustMon.obj
 0001:0001aa8e       __unwindfunclet$??0?$QValueList@VcomplexType@@@@QAE@XZ$0 0041ba8e f   AdjustMon.obj
 0001:0001aa8e       __unwindfunclet$??0?$QMap@VQString@@VcomplexType@@@@QAE@XZ$0 0041ba8e f   AdjustMon.obj
 0001:0001aa8e       __unwindfunclet$?insert@?$QMapPrivate@VQString@@VcomplexType@@@@QAE?AV?$QMapIterator@VQString@@VcomplexType@@@@PAUQMapNodeBase@@0ABVQString@@@Z$0 0041ba8e f   AdjustMon.obj
 0001:0001aa8e       __unwindfunclet$??0?$QMap@VQString@@VcomplexInstance@@@@QAE@XZ$0 0041ba8e f   AdjustMon.obj
 0001:0001aa8e       __unwindfunclet$??0?$QMap@VQString@@VinstanceInfo@@@@QAE@XZ$0 0041ba8e f   AdjustMon.obj
 0001:0001aa8e       __unwindfunclet$?detachInternal@?$QMap@VQString@@VinstanceInfo@@@@AAEXXZ$0 0041ba8e f   AdjustMon.obj
 0001:0001aa8e       __unwindfunclet$?clear@?$QMap@VQString@@VparamInfo@@@@QAEXXZ$0 0041ba8e f   AdjustMon.obj
 0001:0001aa8e       __unwindfunclet$??0?$QValueListPrivate@VcomplexParam@@@@QAE@XZ$0 0041ba8e f   AdjustMon.obj
 0001:0001aa8e       __unwindfunclet$??0?$QMapPrivate@VQString@@VcomplexType@@@@QAE@XZ$0 0041ba8e f   AdjustMon.obj
 0001:0001aa8e       __unwindfunclet$?clear@?$QMap@VQString@@VcomplexType@@@@QAEXXZ$0 0041ba8e f   AdjustMon.obj
 0001:0001aa8e       __unwindfunclet$?detachInternal@?$QValueList@VdeviceTypeInfo@@@@AAEXXZ$0 0041ba8e f   AdjustMon.obj
 0001:0001aa8e       __unwindfunclet$?clear@?$QMap@VQString@@VcomplexInstance@@@@QAEXXZ$0 0041ba8e f   AdjustMon.obj
 0001:0001aa8e       __unwindfunclet$??0?$QValueList@VdeviceTypeInfo@@@@QAE@XZ$0 0041ba8e f   AdjustMon.obj
 0001:0001aa8e       __unwindfunclet$?detachInternal@?$QMap@VQString@@VdeviceTypeInfo@@@@AAEXXZ$0 0041ba8e f   AdjustMon.obj
 0001:0001aa8e       __unwindfunclet$?insert@?$QMapPrivate@VQString@@VdeviceTypeInfo@@@@QAE?AV?$QMapIterator@VQString@@VdeviceTypeInfo@@@@PAUQMapNodeBase@@0ABVQString@@@Z$0 0041ba8e f   AdjustMon.obj
 0001:0001aa8e       __unwindfunclet$??0?$QValueListPrivate@VparamInfo@@@@QAE@XZ$0 0041ba8e f   AdjustMon.obj
 0001:0001aa8e       __unwindfunclet$?detachInternal@?$QMap@VQString@@VcomplexParam@@@@AAEXXZ$0 0041ba8e f   AdjustMon.obj
 0001:0001aa8e       __unwindfunclet$?clear@?$QMap@VQString@@VdeviceTypeInfo@@@@QAEXXZ$0 0041ba8e f   AdjustMon.obj
 0001:0001aa8e       __unwindfunclet$??0?$QMap@VQString@@VparamInfo@@@@QAE@XZ$0 0041ba8e f   AdjustMon.obj
 0001:0001aa8e       __unwindfunclet$??0?$QValueListPrivate@VdeviceTypeInfo@@@@QAE@XZ$0 0041ba8e f   AdjustMon.obj
 0001:0001aa8e       __unwindfunclet$??0?$QMapPrivate@VQString@@VdeviceTypeInfo@@@@QAE@XZ$0 0041ba8e f   AdjustMon.obj
 0001:0001aa8e       __unwindfunclet$?insert@?$QValueListPrivate@VcomplexType@@@@QAE?AV?$QValueListIterator@VcomplexType@@@@V2@ABVcomplexType@@@Z$0 0041ba8e f   AdjustMon.obj
 0001:0001aa8e       __unwindfunclet$?detachInternal@?$QValueList@VinstanceInfo@@@@AAEXXZ$0 0041ba8e f   AdjustMon.obj
 0001:0001aa8e       __unwindfunclet$?detachInternal@?$QMap@VQString@@VcomplexType@@@@AAEXXZ$0 0041ba8e f   AdjustMon.obj
 0001:0001aa8e       __unwindfunclet$??0?$QValueList@VinstanceInfo@@@@QAE@XZ$0 0041ba8e f   AdjustMon.obj
 0001:0001aa8e       __unwindfunclet$??0?$QMapPrivate@VQString@@VparamInfo@@@@QAE@XZ$0 0041ba8e f   AdjustMon.obj
 0001:0001aa8e       __unwindfunclet$?insert@?$QMapPrivate@VQString@@VinstanceInfo@@@@QAE?AV?$QMapIterator@VQString@@VinstanceInfo@@@@PAUQMapNodeBase@@0ABVQString@@@Z$0 0041ba8e f   AdjustMon.obj
 0001:0001aa8e       __unwindfunclet$??0?$QMap@VQString@@VdeviceTypeInfo@@@@QAE@XZ$0 0041ba8e f   AdjustMon.obj
 0001:0001aa8e       __unwindfunclet$?detachInternal@?$QMap@VQString@@VcomplexInstance@@@@AAEXXZ$0 0041ba8e f   AdjustMon.obj
 0001:0001aa8e       __unwindfunclet$?clear@?$QMap@VQString@@VcomplexParam@@@@QAEXXZ$0 0041ba8e f   AdjustMon.obj
 0001:0001aa8e       __unwindfunclet$?detachInternal@?$QMap@VQString@@VparamInfo@@@@AAEXXZ$0 0041ba8e f   AdjustMon.obj
 0001:0001aa8e       __unwindfunclet$??0?$QMap@VQString@@VcomplexParam@@@@QAE@XZ$0 0041ba8e f   AdjustMon.obj
 0001:0001aa8e       __unwindfunclet$??0?$QMapPrivate@VQString@@VinstanceInfo@@@@QAE@XZ$0 0041ba8e f   AdjustMon.obj
 0001:0001aa8e       __unwindfunclet$?insert@?$QValueListPrivate@VinstanceInfo@@@@QAE?AV?$QValueListIterator@VinstanceInfo@@@@V2@ABVinstanceInfo@@@Z$0 0041ba8e f   AdjustMon.obj
 0001:0001aa8e       __unwindfunclet$?detachInternal@?$QValueList@VcomplexInstance@@@@AAEXXZ$0 0041ba8e f   AdjustMon.obj
 0001:0001aa8e       __unwindfunclet$?clear@?$QMap@VQString@@VinstanceInfo@@@@QAEXXZ$0 0041ba8e f   AdjustMon.obj
 0001:0001aa8e       __unwindfunclet$??0?$QValueList@VcomplexInstance@@@@QAE@XZ$0 0041ba8e f   AdjustMon.obj
 0001:0001aa8e       __unwindfunclet$?slotPressed@CAppBar@@QAEXXZ$0 0041ba8e f   AdjustMon.obj
 0001:0001aa8e       __unwindfunclet$?insert@?$QMapPrivate@VQString@@VcomplexInstance@@@@QAE?AV?$QMapIterator@VQString@@VcomplexInstance@@@@PAUQMapNodeBase@@0ABVQString@@@Z$0 0041ba8e f   AdjustMon.obj
 0001:0001aa8e       __unwindfunclet$?insert@?$QMapPrivate@VQString@@VparamInfo@@@@QAE?AV?$QMapIterator@VQString@@VparamInfo@@@@PAUQMapNodeBase@@0ABVQString@@@Z$0 0041ba8e f   AdjustMon.obj
 0001:0001aa8e       __unwindfunclet$??0?$QValueListPrivate@VinstanceInfo@@@@QAE@XZ$0 0041ba8e f   AdjustMon.obj
 0001:0001aa8e       __unwindfunclet$??0?$QValueListPrivate@VcomplexInstance@@@@QAE@XZ$0 0041ba8e f   AdjustMon.obj
 0001:0001aa8e       __unwindfunclet$?addToNavigationStack@CAdjustMon@@QAEXABVQString@@@Z$0 0041ba8e f   AdjustMon.obj
 0001:0001aa8e       __unwindfunclet$?insert@?$QValueListPrivate@VcomplexParam@@@@QAE?AV?$QValueListIterator@VcomplexParam@@@@V2@ABVcomplexParam@@@Z$0 0041ba8e f   AdjustMon.obj
 0001:0001aa8e       __unwindfunclet$??0?$QMapPrivate@VQString@@VcomplexInstance@@@@QAE@XZ$0 0041ba8e f   AdjustMon.obj
 0001:0001aa8e       __unwindfunclet$??0?$QValueList@VparamInfo@@@@QAE@XZ$0 0041ba8e f   AdjustMon.obj
 0001:0001aa8e       __unwindfunclet$?detachInternal@?$QValueList@VcomplexParam@@@@AAEXXZ$0 0041ba8e f   AdjustMon.obj
 0001:0001aa8e       __unwindfunclet$?detachInternal@?$QValueList@VparamInfo@@@@AAEXXZ$0 0041ba8e f   AdjustMon.obj
 0001:0001aa8e       __unwindfunclet$??0?$QValueList@VcomplexParam@@@@QAE@XZ$0 0041ba8e f   AdjustMon.obj
 0001:0001aa8e       __unwindfunclet$??0?$QMapPrivate@VQString@@VcomplexParam@@@@QAE@XZ$0 0041ba8e f   AdjustMon.obj
 0001:0001aa8e       __unwindfunclet$?insert@?$QMapPrivate@VQString@@VcomplexParam@@@@QAE?AV?$QMapIterator@VQString@@VcomplexParam@@@@PAUQMapNodeBase@@0ABVQString@@@Z$0 0041ba8e f   AdjustMon.obj
 0001:0001aa8e       __unwindfunclet$??0?$QValueListPrivate@VcomplexType@@@@QAE@XZ$0 0041ba8e f   AdjustMon.obj
 0001:0001aa8e       __unwindfunclet$?insert@?$QValueListPrivate@VdeviceTypeInfo@@@@QAE?AV?$QValueListIterator@VdeviceTypeInfo@@@@V2@ABVdeviceTypeInfo@@@Z$0 0041ba8e f   AdjustMon.obj
 0001:0001aa8e       __unwindfunclet$?insert@?$QValueListPrivate@VcomplexInstance@@@@QAE?AV?$QValueListIterator@VcomplexInstance@@@@V2@ABVcomplexInstance@@@Z$0 0041ba8e f   AdjustMon.obj
 0001:0001aa8e       __unwindfunclet$?detachInternal@?$QValueList@VcomplexType@@@@AAEXXZ$0 0041ba8e f   AdjustMon.obj
 0001:0001aa98       __ehhandler$?insert@?$QMapPrivate@VQString@@VcomplexParam@@@@QAE?AV?$QMapIterator@VQString@@VcomplexParam@@@@PAUQMapNodeBase@@0ABVQString@@@Z 0041ba98 f   AdjustMon.obj
 0001:0001aa98       __ehhandler$??0?$QValueList@VcomplexParam@@@@QAE@XZ 0041ba98 f   AdjustMon.obj
 0001:0001aa98       __ehhandler$??0?$QMapPrivate@VQString@@VcomplexParam@@@@QAE@XZ 0041ba98 f   AdjustMon.obj
 0001:0001aa98       __ehhandler$?detachInternal@?$QValueList@VcomplexParam@@@@AAEXXZ 0041ba98 f   AdjustMon.obj
 0001:0001aa98       __ehhandler$?detachInternal@?$QValueList@VparamInfo@@@@AAEXXZ 0041ba98 f   AdjustMon.obj
 0001:0001aa98       __ehhandler$??0?$QMapPrivate@VQString@@VcomplexInstance@@@@QAE@XZ 0041ba98 f   AdjustMon.obj
 0001:0001aa98       __ehhandler$??0?$QValueList@VparamInfo@@@@QAE@XZ 0041ba98 f   AdjustMon.obj
 0001:0001aa98       __ehhandler$?insert@?$QMapPrivate@VQString@@VcomplexInstance@@@@QAE?AV?$QMapIterator@VQString@@VcomplexInstance@@@@PAUQMapNodeBase@@0ABVQString@@@Z 0041ba98 f   AdjustMon.obj
 0001:0001aa98       __ehhandler$?insert@?$QMapPrivate@VQString@@VparamInfo@@@@QAE?AV?$QMapIterator@VQString@@VparamInfo@@@@PAUQMapNodeBase@@0ABVQString@@@Z 0041ba98 f   AdjustMon.obj
 0001:0001aa98       __ehhandler$??0?$QValueList@VcomplexInstance@@@@QAE@XZ 0041ba98 f   AdjustMon.obj
 0001:0001aa98       __ehhandler$?detachInternal@?$QValueList@VcomplexInstance@@@@AAEXXZ 0041ba98 f   AdjustMon.obj
 0001:0001aa98       __ehhandler$??0?$QMapPrivate@VQString@@VinstanceInfo@@@@QAE@XZ 0041ba98 f   AdjustMon.obj
 0001:0001aa98       __ehhandler$?insert@?$QMapPrivate@VQString@@VinstanceInfo@@@@QAE?AV?$QMapIterator@VQString@@VinstanceInfo@@@@PAUQMapNodeBase@@0ABVQString@@@Z 0041ba98 f   AdjustMon.obj
 0001:0001aa98       __ehhandler$??0?$QValueList@VinstanceInfo@@@@QAE@XZ 0041ba98 f   AdjustMon.obj
 0001:0001aa98       __ehhandler$??0?$QMapPrivate@VQString@@VparamInfo@@@@QAE@XZ 0041ba98 f   AdjustMon.obj
 0001:0001aa98       __ehhandler$?detachInternal@?$QValueList@VinstanceInfo@@@@AAEXXZ 0041ba98 f   AdjustMon.obj
 0001:0001aa98       __ehhandler$?detachInternal@?$QMap@VQString@@VcomplexType@@@@AAEXXZ 0041ba98 f   AdjustMon.obj
 0001:0001aa98       __ehhandler$??0?$QMapPrivate@VQString@@VdeviceTypeInfo@@@@QAE@XZ 0041ba98 f   AdjustMon.obj
 0001:0001aa98       __ehhandler$?insert@?$QMapPrivate@VQString@@VdeviceTypeInfo@@@@QAE?AV?$QMapIterator@VQString@@VdeviceTypeInfo@@@@PAUQMapNodeBase@@0ABVQString@@@Z 0041ba98 f   AdjustMon.obj
 0001:0001aa98       __ehhandler$??0?$QValueList@VdeviceTypeInfo@@@@QAE@XZ 0041ba98 f   AdjustMon.obj
 0001:0001aa98       __ehhandler$?detachInternal@?$QValueList@VdeviceTypeInfo@@@@AAEXXZ 0041ba98 f   AdjustMon.obj
 0001:0001aa98       __ehhandler$??0?$QMapPrivate@VQString@@VcomplexType@@@@QAE@XZ 0041ba98 f   AdjustMon.obj
 0001:0001aa98       __ehhandler$?clear@?$QMap@VQString@@VcomplexType@@@@QAEXXZ 0041ba98 f   AdjustMon.obj
 0001:0001aa98       __ehhandler$??0?$QMap@VQString@@VcomplexInstance@@@@QAE@XZ 0041ba98 f   AdjustMon.obj
 0001:0001aa98       __ehhandler$?insert@?$QMapPrivate@VQString@@VcomplexType@@@@QAE?AV?$QMapIterator@VQString@@VcomplexType@@@@PAUQMapNodeBase@@0ABVQString@@@Z 0041ba98 f   AdjustMon.obj
 0001:0001aa98       __ehhandler$??0?$QValueList@VcomplexType@@@@QAE@XZ 0041ba98 f   AdjustMon.obj
 0001:0001aa98       __ehhandler$??0?$QMap@VQString@@VcomplexType@@@@QAE@XZ 0041ba98 f   AdjustMon.obj
 0001:0001aa98       __ehhandler$?detachInternal@?$QValueList@VcomplexType@@@@AAEXXZ 0041ba98 f   AdjustMon.obj
 0001:0001aa98       __ehhandler$?detachInternal@?$QMap@VQString@@VdeviceTypeInfo@@@@AAEXXZ 0041ba98 f   AdjustMon.obj
 0001:0001aa98       __ehhandler$??0?$QValueListPrivate@VparamInfo@@@@QAE@XZ 0041ba98 f   AdjustMon.obj
 0001:0001aa98       __ehhandler$?insert@?$QValueListPrivate@VcomplexType@@@@QAE?AV?$QValueListIterator@VcomplexType@@@@V2@ABVcomplexType@@@Z 0041ba98 f   AdjustMon.obj
 0001:0001aa98       __ehhandler$??0?$QValueListPrivate@VcomplexType@@@@QAE@XZ 0041ba98 f   AdjustMon.obj
 0001:0001aa98       __ehhandler$?addToNavigationStack@CAdjustMon@@QAEXABVQString@@@Z 0041ba98 f   AdjustMon.obj
 0001:0001aa98       __ehhandler$?insert@?$QValueListPrivate@VdeviceTypeInfo@@@@QAE?AV?$QValueListIterator@VdeviceTypeInfo@@@@V2@ABVdeviceTypeInfo@@@Z 0041ba98 f   AdjustMon.obj
 0001:0001aa98       __ehhandler$?clear@?$QMap@VQString@@VdeviceTypeInfo@@@@QAEXXZ 0041ba98 f   AdjustMon.obj
 0001:0001aa98       __ehhandler$?clear@?$QMap@VQString@@VcomplexInstance@@@@QAEXXZ 0041ba98 f   AdjustMon.obj
 0001:0001aa98       __ehhandler$??0?$QValueListPrivate@VcomplexParam@@@@QAE@XZ 0041ba98 f   AdjustMon.obj
 0001:0001aa98       __ehhandler$?insert@?$QValueListPrivate@VcomplexParam@@@@QAE?AV?$QValueListIterator@VcomplexParam@@@@V2@ABVcomplexParam@@@Z 0041ba98 f   AdjustMon.obj
 0001:0001aa98       __ehhandler$??0?$QMap@VQString@@VdeviceTypeInfo@@@@QAE@XZ 0041ba98 f   AdjustMon.obj
 0001:0001aa98       __ehhandler$?detachInternal@?$QMap@VQString@@VcomplexParam@@@@AAEXXZ 0041ba98 f   AdjustMon.obj
 0001:0001aa98       __ehhandler$?detachInternal@?$QMap@VQString@@VinstanceInfo@@@@AAEXXZ 0041ba98 f   AdjustMon.obj
 0001:0001aa98       __ehhandler$?clear@?$QMap@VQString@@VcomplexParam@@@@QAEXXZ 0041ba98 f   AdjustMon.obj
 0001:0001aa98       __ehhandler$??0?$QMap@VQString@@VcomplexParam@@@@QAE@XZ 0041ba98 f   AdjustMon.obj
 0001:0001aa98       __ehhandler$??0?$QValueListPrivate@VdeviceTypeInfo@@@@QAE@XZ 0041ba98 f   AdjustMon.obj
 0001:0001aa98       __ehhandler$?slotPressed@CAppBar@@QAEXXZ 0041ba98 f   AdjustMon.obj
 0001:0001aa98       __ehhandler$??0?$QValueListPrivate@VcomplexInstance@@@@QAE@XZ 0041ba98 f   AdjustMon.obj
 0001:0001aa98       __ehhandler$?clear@?$QMap@VQString@@VinstanceInfo@@@@QAEXXZ 0041ba98 f   AdjustMon.obj
 0001:0001aa98       __ehhandler$?insert@?$QValueListPrivate@VcomplexInstance@@@@QAE?AV?$QValueListIterator@VcomplexInstance@@@@V2@ABVcomplexInstance@@@Z 0041ba98 f   AdjustMon.obj
 0001:0001aa98       __ehhandler$??0?$QMap@VQString@@VparamInfo@@@@QAE@XZ 0041ba98 f   AdjustMon.obj
 0001:0001aa98       __ehhandler$?clear@?$QMap@VQString@@VparamInfo@@@@QAEXXZ 0041ba98 f   AdjustMon.obj
 0001:0001aa98       __ehhandler$??0?$QMap@VQString@@VinstanceInfo@@@@QAE@XZ 0041ba98 f   AdjustMon.obj
 0001:0001aa98       __ehhandler$?detachInternal@?$QMap@VQString@@VparamInfo@@@@AAEXXZ 0041ba98 f   AdjustMon.obj
 0001:0001aa98       __ehhandler$?detachInternal@?$QMap@VQString@@VcomplexInstance@@@@AAEXXZ 0041ba98 f   AdjustMon.obj
 0001:0001aa98       __ehhandler$??0?$QValueListPrivate@VinstanceInfo@@@@QAE@XZ 0041ba98 f   AdjustMon.obj
 0001:0001aa98       __ehhandler$?insert@?$QValueListPrivate@VinstanceInfo@@@@QAE?AV?$QValueListIterator@VinstanceInfo@@@@V2@ABVinstanceInfo@@@Z 0041ba98 f   AdjustMon.obj
 0001:0001aab3       __unwindfunclet$??0CAdjustMon@@QAE@PAVQWidget@@@Z$0 0041bab3 f   AdjustMon.obj
 0001:0001aabe       __unwindfunclet$??0CAdjustMon@@QAE@PAVQWidget@@@Z$1 0041babe f   AdjustMon.obj
 0001:0001aacc       __unwindfunclet$??0CAdjustMon@@QAE@PAVQWidget@@@Z$2 0041bacc f   AdjustMon.obj
 0001:0001aad8       __unwindfunclet$??0CAdjustMon@@QAE@PAVQWidget@@@Z$3 0041bad8 f   AdjustMon.obj
 0001:0001aae4       __unwindfunclet$??0CAdjustMon@@QAE@PAVQWidget@@@Z$4 0041bae4 f   AdjustMon.obj
 0001:0001aaf0       __unwindfunclet$??0CAdjustMon@@QAE@PAVQWidget@@@Z$5 0041baf0 f   AdjustMon.obj
 0001:0001aafc       __ehhandler$??0CAdjustMon@@QAE@PAVQWidget@@@Z 0041bafc f   AdjustMon.obj
 0001:0001ab24       __unwindfunclet$??0signalConnectionRefList@@QAE@ABV0@@Z$0 0041bb24 f   AdjustMon.obj
 0001:0001ab24       __unwindfunclet$??0signalConnectionRefList@@QAE@XZ$0 0041bb24 f   AdjustMon.obj
 0001:0001ab24       __unwindfunclet$??1signalConnectionRefList@@UAE@XZ$0 0041bb24 f   AdjustMon.obj
 0001:0001ab2c       __ehhandler$??0signalConnectionRefList@@QAE@XZ 0041bb2c f   AdjustMon.obj
 0001:0001ab2c       __ehhandler$??0signalConnectionRefList@@QAE@ABV0@@Z 0041bb2c f   AdjustMon.obj
 0001:0001ab2c       __ehhandler$??1signalConnectionRefList@@UAE@XZ 0041bb2c f   AdjustMon.obj
 0001:0001ab47       __unwindfunclet$??0signalConnectionRefListIt@@QAE@ABVsignalConnectionRefList@@@Z$1 0041bb47 f   AdjustMon.obj
 0001:0001ab47       __unwindfunclet$??0signalConnectionRefListIt@@QAE@ABV0@@Z$1 0041bb47 f   AdjustMon.obj
 0001:0001ab50       __unwindfunclet$??0signalConnectionRefListIt@@QAE@ABV0@@Z$0 0041bb50 f   AdjustMon.obj
 0001:0001ab50       __unwindfunclet$??0signalConnectionRefListIt@@QAE@ABVsignalConnectionRefList@@@Z$0 0041bb50 f   AdjustMon.obj
 0001:0001ab58       __ehhandler$??0signalConnectionRefListIt@@QAE@ABV0@@Z 0041bb58 f   AdjustMon.obj
 0001:0001ab58       __ehhandler$??0signalConnectionRefListIt@@QAE@ABVsignalConnectionRefList@@@Z 0041bb58 f   AdjustMon.obj
 0001:0001ab73       __unwindfunclet$??0?$QMapNode@VQString@@VcomplexInstance@@@@QAE@ABU0@@Z$0 0041bb73 f   AdjustMon.obj
 0001:0001ab73       __unwindfunclet$??0?$QMapNode@VQString@@VcomplexInstance@@@@QAE@XZ$0 0041bb73 f   AdjustMon.obj
 0001:0001ab73       __unwindfunclet$??1?$QMapNode@VQString@@VcomplexInstance@@@@QAE@XZ$0 0041bb73 f   AdjustMon.obj
 0001:0001ab73       __unwindfunclet$??0?$QMapNode@VQString@@VcomplexInstance@@@@QAE@ABVQString@@@Z$0 0041bb73 f   AdjustMon.obj
 0001:0001ab7f       __unwindfunclet$??0?$QMapNode@VQString@@VcomplexInstance@@@@QAE@ABVQString@@@Z$1 0041bb7f f   AdjustMon.obj
 0001:0001ab7f       __unwindfunclet$??1?$QMapNode@VQString@@VcomplexInstance@@@@QAE@XZ$1 0041bb7f f   AdjustMon.obj
 0001:0001ab7f       __unwindfunclet$??0?$QMapNode@VQString@@VcomplexInstance@@@@QAE@XZ$1 0041bb7f f   AdjustMon.obj
 0001:0001ab7f       __unwindfunclet$??0?$QMapNode@VQString@@VcomplexInstance@@@@QAE@ABU0@@Z$1 0041bb7f f   AdjustMon.obj
 0001:0001ab8b       __ehhandler$??1?$QMapNode@VQString@@VcomplexInstance@@@@QAE@XZ 0041bb8b f   AdjustMon.obj
 0001:0001ab8b       __ehhandler$??0?$QMapNode@VQString@@VcomplexInstance@@@@QAE@XZ 0041bb8b f   AdjustMon.obj
 0001:0001ab8b       __ehhandler$??0?$QMapNode@VQString@@VcomplexInstance@@@@QAE@ABU0@@Z 0041bb8b f   AdjustMon.obj
 0001:0001ab8b       __ehhandler$??0?$QMapNode@VQString@@VcomplexInstance@@@@QAE@ABVQString@@@Z 0041bb8b f   AdjustMon.obj
 0001:0001aba6       __unwindfunclet$??0?$QMapNode@VQString@@VdeviceTypeInfo@@@@QAE@ABU0@@Z$0 0041bba6 f   AdjustMon.obj
 0001:0001aba6       __unwindfunclet$??1?$QMapNode@VQString@@VdeviceTypeInfo@@@@QAE@XZ$0 0041bba6 f   AdjustMon.obj
 0001:0001aba6       __unwindfunclet$??0?$QMapNode@VQString@@VdeviceTypeInfo@@@@QAE@ABVQString@@@Z$0 0041bba6 f   AdjustMon.obj
 0001:0001aba6       __unwindfunclet$??0?$QMapNode@VQString@@VdeviceTypeInfo@@@@QAE@XZ$0 0041bba6 f   AdjustMon.obj
 0001:0001abb2       __unwindfunclet$??0?$QMapNode@VQString@@VdeviceTypeInfo@@@@QAE@ABVQString@@@Z$1 0041bbb2 f   AdjustMon.obj
 0001:0001abb2       __unwindfunclet$??0?$QMapNode@VQString@@VdeviceTypeInfo@@@@QAE@ABU0@@Z$1 0041bbb2 f   AdjustMon.obj
 0001:0001abb2       __unwindfunclet$??1?$QMapNode@VQString@@VdeviceTypeInfo@@@@QAE@XZ$1 0041bbb2 f   AdjustMon.obj
 0001:0001abb2       __unwindfunclet$??0?$QMapNode@VQString@@VdeviceTypeInfo@@@@QAE@XZ$1 0041bbb2 f   AdjustMon.obj
 0001:0001abbe       __ehhandler$??0?$QMapNode@VQString@@VdeviceTypeInfo@@@@QAE@XZ 0041bbbe f   AdjustMon.obj
 0001:0001abbe       __ehhandler$??0?$QMapNode@VQString@@VdeviceTypeInfo@@@@QAE@ABU0@@Z 0041bbbe f   AdjustMon.obj
 0001:0001abbe       __ehhandler$??1?$QMapNode@VQString@@VdeviceTypeInfo@@@@QAE@XZ 0041bbbe f   AdjustMon.obj
 0001:0001abbe       __ehhandler$??0?$QMapNode@VQString@@VdeviceTypeInfo@@@@QAE@ABVQString@@@Z 0041bbbe f   AdjustMon.obj
 0001:0001abd9       __unwindfunclet$??0?$QPtrListIterator@VsignalConnection@@@@QAE@ABV?$QPtrList@VsignalConnection@@@@@Z$0 0041bbd9 f   AdjustMon.obj
 0001:0001abd9       __unwindfunclet$??0?$QPtrListIterator@VsignalConnection@@@@QAE@ABV0@@Z$0 0041bbd9 f   AdjustMon.obj
 0001:0001abd9       __unwindfunclet$??1?$QPtrListIterator@VsignalConnection@@@@QAE@XZ$0 0041bbd9 f   AdjustMon.obj
 0001:0001abe2       __ehhandler$??0?$QPtrListIterator@VsignalConnection@@@@QAE@ABV?$QPtrList@VsignalConnection@@@@@Z 0041bbe2 f   AdjustMon.obj
 0001:0001abe2       __ehhandler$??0?$QPtrListIterator@VsignalConnection@@@@QAE@ABV0@@Z 0041bbe2 f   AdjustMon.obj
 0001:0001abe2       __ehhandler$??1?$QPtrListIterator@VsignalConnection@@@@QAE@XZ 0041bbe2 f   AdjustMon.obj
 0001:0001abfd       __unwindfunclet$??1?$QValueListNode@VcomplexType@@@@UAE@XZ$0 0041bbfd f   AdjustMon.obj
 0001:0001abfd       __unwindfunclet$??0?$QValueListNode@VcomplexType@@@@QAE@XZ$0 0041bbfd f   AdjustMon.obj
 0001:0001abfd       __unwindfunclet$??0?$QValueListNode@VcomplexType@@@@QAE@ABVcomplexType@@@Z$0 0041bbfd f   AdjustMon.obj
 0001:0001ac09       __ehhandler$??1?$QValueListNode@VcomplexType@@@@UAE@XZ 0041bc09 f   AdjustMon.obj
 0001:0001ac09       __ehhandler$??0?$QValueListNode@VcomplexType@@@@QAE@XZ 0041bc09 f   AdjustMon.obj
 0001:0001ac09       __ehhandler$??0?$QValueListNode@VcomplexType@@@@QAE@ABVcomplexType@@@Z 0041bc09 f   AdjustMon.obj
 0001:0001ac24       __unwindfunclet$??0?$QValueListNode@VparamInfo@@@@QAE@XZ$0 0041bc24 f   AdjustMon.obj
 0001:0001ac24       __unwindfunclet$??1?$QValueListNode@VparamInfo@@@@UAE@XZ$0 0041bc24 f   AdjustMon.obj
 0001:0001ac30       __ehhandler$??0?$QValueListNode@VparamInfo@@@@QAE@XZ 0041bc30 f   AdjustMon.obj
 0001:0001ac30       __ehhandler$??1?$QValueListNode@VparamInfo@@@@UAE@XZ 0041bc30 f   AdjustMon.obj
 0001:0001ac4b       __unwindfunclet$??1CAdjustMon@@UAE@XZ$0 0041bc4b f   AdjustMon.obj
 0001:0001ac53       __unwindfunclet$??1CAdjustMon@@UAE@XZ$1 0041bc53 f   AdjustMon.obj
 0001:0001ac5e       __ehhandler$??1CAdjustMon@@UAE@XZ 0041bc5e f   AdjustMon.obj
 0001:0001ac79       __unwindfunclet$??0signalConnection@@QAE@ABVQString@@0000@Z$0 0041bc79 f   AdjustMon.obj
 0001:0001ac79       __unwindfunclet$??0signalConnection@@QAE@ABV0@@Z$0 0041bc79 f   AdjustMon.obj
 0001:0001ac79       __unwindfunclet$??1signalConnection@@QAE@XZ$0 0041bc79 f   AdjustMon.obj
 0001:0001ac82       __unwindfunclet$??1signalConnection@@QAE@XZ$1 0041bc82 f   AdjustMon.obj
 0001:0001ac82       __unwindfunclet$??0signalConnection@@QAE@ABVQString@@0000@Z$1 0041bc82 f   AdjustMon.obj
 0001:0001ac82       __unwindfunclet$??0signalConnection@@QAE@ABV0@@Z$1 0041bc82 f   AdjustMon.obj
 0001:0001ac8e       __unwindfunclet$??0signalConnection@@QAE@ABVQString@@0000@Z$2 0041bc8e f   AdjustMon.obj
 0001:0001ac8e       __unwindfunclet$??0signalConnection@@QAE@ABV0@@Z$2 0041bc8e f   AdjustMon.obj
 0001:0001ac8e       __unwindfunclet$??1signalConnection@@QAE@XZ$2 0041bc8e f   AdjustMon.obj
 0001:0001ac9a       __unwindfunclet$??0signalConnection@@QAE@ABVQString@@0000@Z$3 0041bc9a f   AdjustMon.obj
 0001:0001ac9a       __unwindfunclet$??1signalConnection@@QAE@XZ$3 0041bc9a f   AdjustMon.obj
 0001:0001ac9a       __unwindfunclet$??0signalConnection@@QAE@ABV0@@Z$3 0041bc9a f   AdjustMon.obj
 0001:0001aca6       __unwindfunclet$??1signalConnection@@QAE@XZ$4 0041bca6 f   AdjustMon.obj
 0001:0001aca6       __unwindfunclet$??0signalConnection@@QAE@ABVQString@@0000@Z$4 0041bca6 f   AdjustMon.obj
 0001:0001aca6       __unwindfunclet$??0signalConnection@@QAE@ABV0@@Z$4 0041bca6 f   AdjustMon.obj
 0001:0001acb2       __ehhandler$??0signalConnection@@QAE@ABV0@@Z 0041bcb2 f   AdjustMon.obj
 0001:0001acb2       __ehhandler$??0signalConnection@@QAE@ABVQString@@0000@Z 0041bcb2 f   AdjustMon.obj
 0001:0001acb2       __ehhandler$??1signalConnection@@QAE@XZ 0041bcb2 f   AdjustMon.obj
 0001:0001accd       __unwindfunclet$??1signalConnectionRefListIt@@QAE@XZ$0 0041bccd f   AdjustMon.obj
 0001:0001acd5       __unwindfunclet$??1signalConnectionRefListIt@@QAE@XZ$1 0041bcd5 f   AdjustMon.obj
 0001:0001acde       __ehhandler$??1signalConnectionRefListIt@@QAE@XZ 0041bcde f   AdjustMon.obj
 0001:0001acf9       __unwindfunclet$??A?$QMap@VQString@@VcomplexInstance@@@@QAEAAVcomplexInstance@@ABVQString@@@Z$0 0041bcf9 f   AdjustMon.obj
 0001:0001ad02       __ehhandler$??A?$QMap@VQString@@VcomplexInstance@@@@QAEAAVcomplexInstance@@ABVQString@@@Z 0041bd02 f   AdjustMon.obj
 0001:0001ad1d       __unwindfunclet$??A?$QMap@VQString@@VcomplexParam@@@@QAEAAVcomplexParam@@ABVQString@@@Z$0 0041bd1d f   AdjustMon.obj
 0001:0001ad26       __ehhandler$??A?$QMap@VQString@@VcomplexParam@@@@QAEAAVcomplexParam@@ABVQString@@@Z 0041bd26 f   AdjustMon.obj
 0001:0001ad41       __unwindfunclet$??A?$QMap@VQString@@VcomplexType@@@@QAEAAVcomplexType@@ABVQString@@@Z$0 0041bd41 f   AdjustMon.obj
 0001:0001ad4a       __ehhandler$??A?$QMap@VQString@@VcomplexType@@@@QAEAAVcomplexType@@ABVQString@@@Z 0041bd4a f   AdjustMon.obj
 0001:0001ad65       __unwindfunclet$??A?$QMap@VQString@@VdeviceTypeInfo@@@@QAEAAVdeviceTypeInfo@@ABVQString@@@Z$0 0041bd65 f   AdjustMon.obj
 0001:0001ad6e       __ehhandler$??A?$QMap@VQString@@VdeviceTypeInfo@@@@QAEAAVdeviceTypeInfo@@ABVQString@@@Z 0041bd6e f   AdjustMon.obj
 0001:0001ad89       __unwindfunclet$??A?$QMap@VQString@@VinstanceInfo@@@@QAEAAVinstanceInfo@@ABVQString@@@Z$0 0041bd89 f   AdjustMon.obj
 0001:0001ad92       __ehhandler$??A?$QMap@VQString@@VinstanceInfo@@@@QAEAAVinstanceInfo@@ABVQString@@@Z 0041bd92 f   AdjustMon.obj
 0001:0001adad       __unwindfunclet$??A?$QMap@VQString@@VparamInfo@@@@QAEAAVparamInfo@@ABVQString@@@Z$0 0041bdad f   AdjustMon.obj
 0001:0001adb6       __ehhandler$??A?$QMap@VQString@@VparamInfo@@@@QAEAAVparamInfo@@ABVQString@@@Z 0041bdb6 f   AdjustMon.obj
 0001:0001add1       __unwindfunclet$??_G_Generic_error_category@std@@UAEPAXI@Z$0 0041bdd1 f   AdjustMon.obj
 0001:0001add1       __unwindfunclet$??1_Generic_error_category@std@@UAE@XZ$0 0041bdd1 f   AdjustMon.obj
 0001:0001add9       __ehhandler$??1_Generic_error_category@std@@UAE@XZ 0041bdd9 f   AdjustMon.obj
 0001:0001add9       __ehhandler$??_G_Generic_error_category@std@@UAEPAXI@Z 0041bdd9 f   AdjustMon.obj
 0001:0001adf4       __unwindfunclet$??_G_Iostream_error_category@std@@UAEPAXI@Z$0 0041bdf4 f   AdjustMon.obj
 0001:0001adf4       __unwindfunclet$??_G_System_error_category@std@@UAEPAXI@Z$0 0041bdf4 f   AdjustMon.obj
 0001:0001adfc       __unwindfunclet$??_G_Iostream_error_category@std@@UAEPAXI@Z$1 0041bdfc f   AdjustMon.obj
 0001:0001adfc       __unwindfunclet$??_G_System_error_category@std@@UAEPAXI@Z$1 0041bdfc f   AdjustMon.obj
 0001:0001ae04       __ehhandler$??_G_Iostream_error_category@std@@UAEPAXI@Z 0041be04 f   AdjustMon.obj
 0001:0001ae04       __ehhandler$??_G_System_error_category@std@@UAEPAXI@Z 0041be04 f   AdjustMon.obj
 0001:0001ae1f       __unwindfunclet$??__E?_Iostream_object@?$_Error_objects@H@std@@2V_Iostream_error_category@2@A@@YAXXZ$1 0041be1f f   AdjustMon.obj
 0001:0001ae29       __unwindfunclet$??__E?_Iostream_object@?$_Error_objects@H@std@@2V_Iostream_error_category@2@A@@YAXXZ$0 0041be29 f   AdjustMon.obj
 0001:0001ae33       __ehhandler$??__E?_Iostream_object@?$_Error_objects@H@std@@2V_Iostream_error_category@2@A@@YAXXZ 0041be33 f   AdjustMon.obj
 0001:0001ae4e       __unwindfunclet$??__E?_System_object@?$_Error_objects@H@std@@2V_System_error_category@2@A@@YAXXZ$1 0041be4e f   AdjustMon.obj
 0001:0001ae58       __unwindfunclet$??__E?_System_object@?$_Error_objects@H@std@@2V_System_error_category@2@A@@YAXXZ$0 0041be58 f   AdjustMon.obj
 0001:0001ae62       __ehhandler$??__E?_System_object@?$_Error_objects@H@std@@2V_System_error_category@2@A@@YAXXZ 0041be62 f   AdjustMon.obj
 0001:0001ae7d       __unwindfunclet$??__E?_Generic_object@?$_Error_objects@H@std@@2V_Generic_error_category@2@A@@YAXXZ$0 0041be7d f   AdjustMon.obj
 0001:0001ae7d       __unwindfunclet$??__F?_Generic_object@?$_Error_objects@H@std@@2V_Generic_error_category@2@A@@YAXXZ$0 0041be7d f   AdjustMon.obj
 0001:0001ae87       __ehhandler$??__E?_Generic_object@?$_Error_objects@H@std@@2V_Generic_error_category@2@A@@YAXXZ 0041be87 f   AdjustMon.obj
 0001:0001ae87       __ehhandler$??__F?_Generic_object@?$_Error_objects@H@std@@2V_Generic_error_category@2@A@@YAXXZ 0041be87 f   AdjustMon.obj
 0001:0001aea2       __unwindfunclet$??__F?_Iostream_object@?$_Error_objects@H@std@@2V_Iostream_error_category@2@A@@YAXXZ$0 0041bea2 f   AdjustMon.obj
 0001:0001aeac       __unwindfunclet$??__F?_Iostream_object@?$_Error_objects@H@std@@2V_Iostream_error_category@2@A@@YAXXZ$1 0041beac f   AdjustMon.obj
 0001:0001aeb6       __ehhandler$??__F?_Iostream_object@?$_Error_objects@H@std@@2V_Iostream_error_category@2@A@@YAXXZ 0041beb6 f   AdjustMon.obj
 0001:0001aed1       __unwindfunclet$??__F?_System_object@?$_Error_objects@H@std@@2V_System_error_category@2@A@@YAXXZ$0 0041bed1 f   AdjustMon.obj
 0001:0001aedb       __unwindfunclet$??__F?_System_object@?$_Error_objects@H@std@@2V_System_error_category@2@A@@YAXXZ$1 0041bedb f   AdjustMon.obj
 0001:0001aee5       __ehhandler$??__F?_System_object@?$_Error_objects@H@std@@2V_System_error_category@2@A@@YAXXZ 0041bee5 f   AdjustMon.obj
 0001:0001af00       __unwindfunclet$?_Copy@?$basic_string@DU?$char_traits@D@std@@V?$allocator@D@2@@std@@QAEXII@Z$4 0041bf00 f   AdjustMon.obj
 0001:0001af0e       __ehhandler$?_Copy@?$basic_string@DU?$char_traits@D@std@@V?$allocator@D@2@@std@@QAEXII@Z 0041bf0e f   AdjustMon.obj
 0001:0001af2c       __unwindfunclet$?adjust@CAdjustMon@@AAEXVQString@@@Z$0 0041bf2c f   AdjustMon.obj
 0001:0001af35       __unwindfunclet$?adjust@CAdjustMon@@AAEXVQString@@@Z$1 0041bf35 f   AdjustMon.obj
 0001:0001af3e       __unwindfunclet$?adjust@CAdjustMon@@AAEXVQString@@@Z$2 0041bf3e f   AdjustMon.obj
 0001:0001af47       __unwindfunclet$?adjust@CAdjustMon@@AAEXVQString@@@Z$3 0041bf47 f   AdjustMon.obj
 0001:0001af50       __unwindfunclet$?adjust@CAdjustMon@@AAEXVQString@@@Z$4 0041bf50 f   AdjustMon.obj
 0001:0001af59       __unwindfunclet$?adjust@CAdjustMon@@AAEXVQString@@@Z$5 0041bf59 f   AdjustMon.obj
 0001:0001af62       __unwindfunclet$?adjust@CAdjustMon@@AAEXVQString@@@Z$6 0041bf62 f   AdjustMon.obj
 0001:0001af6b       __unwindfunclet$?adjust@CAdjustMon@@AAEXVQString@@@Z$7 0041bf6b f   AdjustMon.obj
 0001:0001af74       __unwindfunclet$?adjust@CAdjustMon@@AAEXVQString@@@Z$8 0041bf74 f   AdjustMon.obj
 0001:0001af7d       __unwindfunclet$?adjust@CAdjustMon@@AAEXVQString@@@Z$9 0041bf7d f   AdjustMon.obj
 0001:0001af86       __unwindfunclet$?adjust@CAdjustMon@@AAEXVQString@@@Z$10 0041bf86 f   AdjustMon.obj
 0001:0001af8f       __unwindfunclet$?adjust@CAdjustMon@@AAEXVQString@@@Z$11 0041bf8f f   AdjustMon.obj
 0001:0001af98       __unwindfunclet$?adjust@CAdjustMon@@AAEXVQString@@@Z$12 0041bf98 f   AdjustMon.obj
 0001:0001afa1       __unwindfunclet$?adjust@CAdjustMon@@AAEXVQString@@@Z$13 0041bfa1 f   AdjustMon.obj
 0001:0001afaa       __unwindfunclet$?adjust@CAdjustMon@@AAEXVQString@@@Z$14 0041bfaa f   AdjustMon.obj
 0001:0001afb3       __unwindfunclet$?adjust@CAdjustMon@@AAEXVQString@@@Z$15 0041bfb3 f   AdjustMon.obj
 0001:0001afbc       __unwindfunclet$?adjust@CAdjustMon@@AAEXVQString@@@Z$16 0041bfbc f   AdjustMon.obj
 0001:0001afc5       __unwindfunclet$?adjust@CAdjustMon@@AAEXVQString@@@Z$17 0041bfc5 f   AdjustMon.obj
 0001:0001afce       __unwindfunclet$?adjust@CAdjustMon@@AAEXVQString@@@Z$18 0041bfce f   AdjustMon.obj
 0001:0001afd7       __unwindfunclet$?adjust@CAdjustMon@@AAEXVQString@@@Z$19 0041bfd7 f   AdjustMon.obj
 0001:0001afe0       __unwindfunclet$?adjust@CAdjustMon@@AAEXVQString@@@Z$20 0041bfe0 f   AdjustMon.obj
 0001:0001afe9       __unwindfunclet$?adjust@CAdjustMon@@AAEXVQString@@@Z$21 0041bfe9 f   AdjustMon.obj
 0001:0001aff2       __unwindfunclet$?adjust@CAdjustMon@@AAEXVQString@@@Z$22 0041bff2 f   AdjustMon.obj
 0001:0001affb       __unwindfunclet$?adjust@CAdjustMon@@AAEXVQString@@@Z$23 0041bffb f   AdjustMon.obj
 0001:0001b004       __unwindfunclet$?adjust@CAdjustMon@@AAEXVQString@@@Z$24 0041c004 f   AdjustMon.obj
 0001:0001b00d       __unwindfunclet$?adjust@CAdjustMon@@AAEXVQString@@@Z$25 0041c00d f   AdjustMon.obj
 0001:0001b016       __unwindfunclet$?adjust@CAdjustMon@@AAEXVQString@@@Z$26 0041c016 f   AdjustMon.obj
 0001:0001b01f       __unwindfunclet$?adjust@CAdjustMon@@AAEXVQString@@@Z$27 0041c01f f   AdjustMon.obj
 0001:0001b028       __unwindfunclet$?adjust@CAdjustMon@@AAEXVQString@@@Z$28 0041c028 f   AdjustMon.obj
 0001:0001b031       __unwindfunclet$?adjust@CAdjustMon@@AAEXVQString@@@Z$29 0041c031 f   AdjustMon.obj
 0001:0001b03a       __unwindfunclet$?adjust@CAdjustMon@@AAEXVQString@@@Z$30 0041c03a f   AdjustMon.obj
 0001:0001b043       __unwindfunclet$?adjust@CAdjustMon@@AAEXVQString@@@Z$31 0041c043 f   AdjustMon.obj
 0001:0001b04c       __unwindfunclet$?adjust@CAdjustMon@@AAEXVQString@@@Z$32 0041c04c f   AdjustMon.obj
 0001:0001b055       __unwindfunclet$?adjust@CAdjustMon@@AAEXVQString@@@Z$33 0041c055 f   AdjustMon.obj
 0001:0001b05f       __unwindfunclet$?adjust@CAdjustMon@@AAEXVQString@@@Z$34 0041c05f f   AdjustMon.obj
 0001:0001b068       __unwindfunclet$?adjust@CAdjustMon@@AAEXVQString@@@Z$35 0041c068 f   AdjustMon.obj
 0001:0001b071       __unwindfunclet$?adjust@CAdjustMon@@AAEXVQString@@@Z$36 0041c071 f   AdjustMon.obj
 0001:0001b07a       __unwindfunclet$?adjust@CAdjustMon@@AAEXVQString@@@Z$37 0041c07a f   AdjustMon.obj
 0001:0001b083       __unwindfunclet$?adjust@CAdjustMon@@AAEXVQString@@@Z$38 0041c083 f   AdjustMon.obj
 0001:0001b08c       __unwindfunclet$?adjust@CAdjustMon@@AAEXVQString@@@Z$39 0041c08c f   AdjustMon.obj
 0001:0001b095       __unwindfunclet$?adjust@CAdjustMon@@AAEXVQString@@@Z$40 0041c095 f   AdjustMon.obj
 0001:0001b09e       __unwindfunclet$?adjust@CAdjustMon@@AAEXVQString@@@Z$41 0041c09e f   AdjustMon.obj
 0001:0001b0a7       __ehhandler$?adjust@CAdjustMon@@AAEXVQString@@@Z 0041c0a7 f   AdjustMon.obj
 0001:0001b0c2       __unwindfunclet$?adjustRev@CAdjustMon@@QAEXPBD@Z$0 0041c0c2 f   AdjustMon.obj
 0001:0001b0ce       __unwindfunclet$?adjustRev@CAdjustMon@@QAEXPBD@Z$1 0041c0ce f   AdjustMon.obj
 0001:0001b0da       __unwindfunclet$?adjustRev@CAdjustMon@@QAEXPBD@Z$2 0041c0da f   AdjustMon.obj
 0001:0001b0e6       __unwindfunclet$?adjustRev@CAdjustMon@@QAEXPBD@Z$3 0041c0e6 f   AdjustMon.obj
 0001:0001b0f2       __unwindfunclet$?adjustRev@CAdjustMon@@QAEXPBD@Z$21 0041c0f2 f   AdjustMon.obj
 0001:0001b0fe       __unwindfunclet$?adjustRev@CAdjustMon@@QAEXPBD@Z$22 0041c0fe f   AdjustMon.obj
 0001:0001b10a       __unwindfunclet$?adjustRev@CAdjustMon@@QAEXPBD@Z$23 0041c10a f   AdjustMon.obj
 0001:0001b116       __unwindfunclet$?adjustRev@CAdjustMon@@QAEXPBD@Z$24 0041c116 f   AdjustMon.obj
 0001:0001b122       __unwindfunclet$?adjustRev@CAdjustMon@@QAEXPBD@Z$25 0041c122 f   AdjustMon.obj
 0001:0001b12e       __unwindfunclet$?adjustRev@CAdjustMon@@QAEXPBD@Z$26 0041c12e f   AdjustMon.obj
 0001:0001b13a       __unwindfunclet$?adjustRev@CAdjustMon@@QAEXPBD@Z$27 0041c13a f   AdjustMon.obj
 0001:0001b146       __unwindfunclet$?adjustRev@CAdjustMon@@QAEXPBD@Z$28 0041c146 f   AdjustMon.obj
 0001:0001b152       __unwindfunclet$?adjustRev@CAdjustMon@@QAEXPBD@Z$29 0041c152 f   AdjustMon.obj
 0001:0001b15e       __unwindfunclet$?adjustRev@CAdjustMon@@QAEXPBD@Z$30 0041c15e f   AdjustMon.obj
 0001:0001b16a       __unwindfunclet$?adjustRev@CAdjustMon@@QAEXPBD@Z$31 0041c16a f   AdjustMon.obj
 0001:0001b176       __unwindfunclet$?adjustRev@CAdjustMon@@QAEXPBD@Z$32 0041c176 f   AdjustMon.obj
 0001:0001b182       __unwindfunclet$?adjustRev@CAdjustMon@@QAEXPBD@Z$33 0041c182 f   AdjustMon.obj
 0001:0001b18e       __unwindfunclet$?adjustRev@CAdjustMon@@QAEXPBD@Z$34 0041c18e f   AdjustMon.obj
 0001:0001b19a       __unwindfunclet$?adjustRev@CAdjustMon@@QAEXPBD@Z$35 0041c19a f   AdjustMon.obj
 0001:0001b1a6       __unwindfunclet$?adjustRev@CAdjustMon@@QAEXPBD@Z$36 0041c1a6 f   AdjustMon.obj
 0001:0001b1b2       __unwindfunclet$?adjustRev@CAdjustMon@@QAEXPBD@Z$37 0041c1b2 f   AdjustMon.obj
 0001:0001b1be       __unwindfunclet$?adjustRev@CAdjustMon@@QAEXPBD@Z$38 0041c1be f   AdjustMon.obj
 0001:0001b1ca       __unwindfunclet$?adjustRev@CAdjustMon@@QAEXPBD@Z$39 0041c1ca f   AdjustMon.obj
 0001:0001b1d6       __unwindfunclet$?adjustRev@CAdjustMon@@QAEXPBD@Z$40 0041c1d6 f   AdjustMon.obj
 0001:0001b1e2       __unwindfunclet$?adjustRev@CAdjustMon@@QAEXPBD@Z$41 0041c1e2 f   AdjustMon.obj
 0001:0001b1ee       __unwindfunclet$?adjustRev@CAdjustMon@@QAEXPBD@Z$42 0041c1ee f   AdjustMon.obj
 0001:0001b1fa       __unwindfunclet$?adjustRev@CAdjustMon@@QAEXPBD@Z$43 0041c1fa f   AdjustMon.obj
 0001:0001b206       __unwindfunclet$?adjustRev@CAdjustMon@@QAEXPBD@Z$44 0041c206 f   AdjustMon.obj
 0001:0001b212       __unwindfunclet$?adjustRev@CAdjustMon@@QAEXPBD@Z$7 0041c212 f   AdjustMon.obj
 0001:0001b21e       __unwindfunclet$?adjustRev@CAdjustMon@@QAEXPBD@Z$8 0041c21e f   AdjustMon.obj
 0001:0001b22a       __unwindfunclet$?adjustRev@CAdjustMon@@QAEXPBD@Z$9 0041c22a f   AdjustMon.obj
 0001:0001b236       __unwindfunclet$?adjustRev@CAdjustMon@@QAEXPBD@Z$10 0041c236 f   AdjustMon.obj
 0001:0001b242       __unwindfunclet$?adjustRev@CAdjustMon@@QAEXPBD@Z$11 0041c242 f   AdjustMon.obj
 0001:0001b24e       __unwindfunclet$?adjustRev@CAdjustMon@@QAEXPBD@Z$12 0041c24e f   AdjustMon.obj
 0001:0001b25a       __unwindfunclet$?adjustRev@CAdjustMon@@QAEXPBD@Z$13 0041c25a f   AdjustMon.obj
 0001:0001b266       __unwindfunclet$?adjustRev@CAdjustMon@@QAEXPBD@Z$14 0041c266 f   AdjustMon.obj
 0001:0001b272       __unwindfunclet$?adjustRev@CAdjustMon@@QAEXPBD@Z$15 0041c272 f   AdjustMon.obj
 0001:0001b27e       __unwindfunclet$?adjustRev@CAdjustMon@@QAEXPBD@Z$16 0041c27e f   AdjustMon.obj
 0001:0001b28a       __unwindfunclet$?adjustRev@CAdjustMon@@QAEXPBD@Z$17 0041c28a f   AdjustMon.obj
 0001:0001b296       __unwindfunclet$?adjustRev@CAdjustMon@@QAEXPBD@Z$18 0041c296 f   AdjustMon.obj
 0001:0001b2a2       __unwindfunclet$?adjustRev@CAdjustMon@@QAEXPBD@Z$19 0041c2a2 f   AdjustMon.obj
 0001:0001b2ae       __unwindfunclet$?adjustRev@CAdjustMon@@QAEXPBD@Z$20 0041c2ae f   AdjustMon.obj
 0001:0001b2ba       __unwindfunclet$?adjustRev@CAdjustMon@@QAEXPBD@Z$4 0041c2ba f   AdjustMon.obj
 0001:0001b2c6       __unwindfunclet$?adjustRev@CAdjustMon@@QAEXPBD@Z$5 0041c2c6 f   AdjustMon.obj
 0001:0001b2d2       __unwindfunclet$?adjustRev@CAdjustMon@@QAEXPBD@Z$6 0041c2d2 f   AdjustMon.obj
 0001:0001b2de       __ehhandler$?adjustRev@CAdjustMon@@QAEXPBD@Z 0041c2de f   AdjustMon.obj
 0001:0001b306       __unwindfunclet$?checkAdjust@CAdjustMon@@AAE?AVQString@@V2@@Z$0 0041c306 f   AdjustMon.obj
 0001:0001b30f       __unwindfunclet$?checkAdjust@CAdjustMon@@AAE?AVQString@@V2@@Z$1 0041c30f f   AdjustMon.obj
 0001:0001b329       __unwindfunclet$?checkAdjust@CAdjustMon@@AAE?AVQString@@V2@@Z$2 0041c329 f   AdjustMon.obj
 0001:0001b332       __unwindfunclet$?checkAdjust@CAdjustMon@@AAE?AVQString@@V2@@Z$3 0041c332 f   AdjustMon.obj
 0001:0001b33b       __unwindfunclet$?checkAdjust@CAdjustMon@@AAE?AVQString@@V2@@Z$4 0041c33b f   AdjustMon.obj
 0001:0001b344       __unwindfunclet$?checkAdjust@CAdjustMon@@AAE?AVQString@@V2@@Z$5 0041c344 f   AdjustMon.obj
 0001:0001b34d       __unwindfunclet$?checkAdjust@CAdjustMon@@AAE?AVQString@@V2@@Z$6 0041c34d f   AdjustMon.obj
 0001:0001b356       __unwindfunclet$?checkAdjust@CAdjustMon@@AAE?AVQString@@V2@@Z$7 0041c356 f   AdjustMon.obj
 0001:0001b35f       __unwindfunclet$?checkAdjust@CAdjustMon@@AAE?AVQString@@V2@@Z$8 0041c35f f   AdjustMon.obj
 0001:0001b368       __ehhandler$?checkAdjust@CAdjustMon@@AAE?AVQString@@V2@@Z 0041c368 f   AdjustMon.obj
 0001:0001b383       __unwindfunclet$?insert@?$QValueListPrivate@VparamInfo@@@@QAE?AV?$QValueListIterator@VparamInfo@@@@V2@ABVparamInfo@@@Z$0 0041c383 f   AdjustMon.obj
 0001:0001b38d       __unwindfunclet$?insert@?$QValueListPrivate@VparamInfo@@@@QAE?AV?$QValueListIterator@VparamInfo@@@@V2@ABVparamInfo@@@Z$1 0041c38d f   AdjustMon.obj
 0001:0001b399       __ehhandler$?insert@?$QValueListPrivate@VparamInfo@@@@QAE?AV?$QValueListIterator@VparamInfo@@@@V2@ABVparamInfo@@@Z 0041c399 f   AdjustMon.obj
 0001:0001b3b4       __unwindfunclet$?keys@?$QMap@VQString@@VcomplexParam@@@@QBE?AV?$QValueList@VQString@@@@XZ$0 0041c3b4 f   AdjustMon.obj
 0001:0001b3b4       __unwindfunclet$?keys@?$QMap@VQString@@VcomplexType@@@@QBE?AV?$QValueList@VQString@@@@XZ$0 0041c3b4 f   AdjustMon.obj
 0001:0001b3b4       __unwindfunclet$?keys@?$QMap@VQString@@VinstanceInfo@@@@QBE?AV?$QValueList@VQString@@@@XZ$0 0041c3b4 f   AdjustMon.obj
 0001:0001b3b4       __unwindfunclet$?keys@?$QMap@VQString@@VdeviceTypeInfo@@@@QBE?AV?$QValueList@VQString@@@@XZ$0 0041c3b4 f   AdjustMon.obj
 0001:0001b3b4       __unwindfunclet$?keys@?$QMap@VQString@@VparamInfo@@@@QBE?AV?$QValueList@VQString@@@@XZ$0 0041c3b4 f   AdjustMon.obj
 0001:0001b3b4       __unwindfunclet$?keys@?$QMap@VQString@@VcomplexInstance@@@@QBE?AV?$QValueList@VQString@@@@XZ$0 0041c3b4 f   AdjustMon.obj
 0001:0001b3ce       __ehhandler$?keys@?$QMap@VQString@@VcomplexType@@@@QBE?AV?$QValueList@VQString@@@@XZ 0041c3ce f   AdjustMon.obj
 0001:0001b3ce       __ehhandler$?keys@?$QMap@VQString@@VcomplexParam@@@@QBE?AV?$QValueList@VQString@@@@XZ 0041c3ce f   AdjustMon.obj
 0001:0001b3ce       __ehhandler$?keys@?$QMap@VQString@@VinstanceInfo@@@@QBE?AV?$QValueList@VQString@@@@XZ 0041c3ce f   AdjustMon.obj
 0001:0001b3ce       __ehhandler$?keys@?$QMap@VQString@@VdeviceTypeInfo@@@@QBE?AV?$QValueList@VQString@@@@XZ 0041c3ce f   AdjustMon.obj
 0001:0001b3ce       __ehhandler$?keys@?$QMap@VQString@@VparamInfo@@@@QBE?AV?$QValueList@VQString@@@@XZ 0041c3ce f   AdjustMon.obj
 0001:0001b3ce       __ehhandler$?keys@?$QMap@VQString@@VcomplexInstance@@@@QBE?AV?$QValueList@VQString@@@@XZ 0041c3ce f   AdjustMon.obj
 0001:0001b3e9       __unwindfunclet$?message@_Generic_error_category@std@@UBE?AV?$basic_string@DU?$char_traits@D@std@@V?$allocator@D@2@@2@H@Z$0 0041c3e9 f   AdjustMon.obj
 0001:0001b3e9       __unwindfunclet$?message@_Iostream_error_category@std@@UBE?AV?$basic_string@DU?$char_traits@D@std@@V?$allocator@D@2@@2@H@Z$0 0041c3e9 f   AdjustMon.obj
 0001:0001b3e9       __unwindfunclet$?message@_System_error_category@std@@UBE?AV?$basic_string@DU?$char_traits@D@std@@V?$allocator@D@2@@2@H@Z$0 0041c3e9 f   AdjustMon.obj
 0001:0001b402       __ehhandler$?message@_Iostream_error_category@std@@UBE?AV?$basic_string@DU?$char_traits@D@std@@V?$allocator@D@2@@2@H@Z 0041c402 f   AdjustMon.obj
 0001:0001b402       __ehhandler$?message@_System_error_category@std@@UBE?AV?$basic_string@DU?$char_traits@D@std@@V?$allocator@D@2@@2@H@Z 0041c402 f   AdjustMon.obj
 0001:0001b402       __ehhandler$?message@_Generic_error_category@std@@UBE?AV?$basic_string@DU?$char_traits@D@std@@V?$allocator@D@2@@2@H@Z 0041c402 f   AdjustMon.obj
 0001:0001b41d       __unwindfunclet$?path@global@@SA?AVQString@@XZ$0 0041c41d f   AdjustMon.obj
 0001:0001b426       __unwindfunclet$?path@global@@SA?AVQString@@XZ$1 0041c426 f   AdjustMon.obj
 0001:0001b42f       __unwindfunclet$?path@global@@SA?AVQString@@XZ$2 0041c42f f   AdjustMon.obj
 0001:0001b449       __ehhandler$?path@global@@SA?AVQString@@XZ 0041c449 f   AdjustMon.obj
 0001:0001b464       __unwindfunclet$?textCallback@CAdjustMon@@EAEXPBDH@Z$0 0041c464 f   AdjustMon.obj
 0001:0001b46d       __unwindfunclet$?textCallback@CAdjustMon@@EAEXPBDH@Z$1 0041c46d f   AdjustMon.obj
 0001:0001b476       __unwindfunclet$?textCallback@CAdjustMon@@EAEXPBDH@Z$2 0041c476 f   AdjustMon.obj
 0001:0001b47f       __unwindfunclet$?textCallback@CAdjustMon@@EAEXPBDH@Z$3 0041c47f f   AdjustMon.obj
 0001:0001b488       __unwindfunclet$?textCallback@CAdjustMon@@EAEXPBDH@Z$4 0041c488 f   AdjustMon.obj
 0001:0001b491       __unwindfunclet$?textCallback@CAdjustMon@@EAEXPBDH@Z$5 0041c491 f   AdjustMon.obj
 0001:0001b49a       __unwindfunclet$?textCallback@CAdjustMon@@EAEXPBDH@Z$6 0041c49a f   AdjustMon.obj
 0001:0001b4a6       __unwindfunclet$?textCallback@CAdjustMon@@EAEXPBDH@Z$7 0041c4a6 f   AdjustMon.obj
 0001:0001b4af       __unwindfunclet$?textCallback@CAdjustMon@@EAEXPBDH@Z$8 0041c4af f   AdjustMon.obj
 0001:0001b4b8       __unwindfunclet$?textCallback@CAdjustMon@@EAEXPBDH@Z$9 0041c4b8 f   AdjustMon.obj
 0001:0001b4c1       __unwindfunclet$?textCallback@CAdjustMon@@EAEXPBDH@Z$10 0041c4c1 f   AdjustMon.obj
 0001:0001b4ca       __unwindfunclet$?textCallback@CAdjustMon@@EAEXPBDH@Z$11 0041c4ca f   AdjustMon.obj
 0001:0001b4d6       __unwindfunclet$?textCallback@CAdjustMon@@EAEXPBDH@Z$12 0041c4d6 f   AdjustMon.obj
 0001:0001b4e2       __unwindfunclet$?textCallback@CAdjustMon@@EAEXPBDH@Z$13 0041c4e2 f   AdjustMon.obj
 0001:0001b4ee       __unwindfunclet$?textCallback@CAdjustMon@@EAEXPBDH@Z$14 0041c4ee f   AdjustMon.obj
 0001:0001b4f7       __unwindfunclet$?textCallback@CAdjustMon@@EAEXPBDH@Z$15 0041c4f7 f   AdjustMon.obj
 0001:0001b500       __unwindfunclet$?textCallback@CAdjustMon@@EAEXPBDH@Z$16 0041c500 f   AdjustMon.obj
 0001:0001b50c       __unwindfunclet$?textCallback@CAdjustMon@@EAEXPBDH@Z$17 0041c50c f   AdjustMon.obj
 0001:0001b515       __unwindfunclet$?textCallback@CAdjustMon@@EAEXPBDH@Z$18 0041c515 f   AdjustMon.obj
 0001:0001b51e       __unwindfunclet$?textCallback@CAdjustMon@@EAEXPBDH@Z$19 0041c51e f   AdjustMon.obj
 0001:0001b527       __unwindfunclet$?textCallback@CAdjustMon@@EAEXPBDH@Z$20 0041c527 f   AdjustMon.obj
 0001:0001b533       __unwindfunclet$?textCallback@CAdjustMon@@EAEXPBDH@Z$21 0041c533 f   AdjustMon.obj
 0001:0001b53f       __unwindfunclet$?textCallback@CAdjustMon@@EAEXPBDH@Z$22 0041c53f f   AdjustMon.obj
 0001:0001b54b       __unwindfunclet$?textCallback@CAdjustMon@@EAEXPBDH@Z$23 0041c54b f   AdjustMon.obj
 0001:0001b554       __unwindfunclet$?textCallback@CAdjustMon@@EAEXPBDH@Z$24 0041c554 f   AdjustMon.obj
 0001:0001b55d       __unwindfunclet$?textCallback@CAdjustMon@@EAEXPBDH@Z$25 0041c55d f   AdjustMon.obj
 0001:0001b569       __unwindfunclet$?textCallback@CAdjustMon@@EAEXPBDH@Z$26 0041c569 f   AdjustMon.obj
 0001:0001b572       __unwindfunclet$?textCallback@CAdjustMon@@EAEXPBDH@Z$27 0041c572 f   AdjustMon.obj
 0001:0001b57b       __unwindfunclet$?textCallback@CAdjustMon@@EAEXPBDH@Z$28 0041c57b f   AdjustMon.obj
 0001:0001b584       __unwindfunclet$?textCallback@CAdjustMon@@EAEXPBDH@Z$29 0041c584 f   AdjustMon.obj
 0001:0001b590       __unwindfunclet$?textCallback@CAdjustMon@@EAEXPBDH@Z$30 0041c590 f   AdjustMon.obj
 0001:0001b59c       __unwindfunclet$?textCallback@CAdjustMon@@EAEXPBDH@Z$31 0041c59c f   AdjustMon.obj
 0001:0001b5a8       __unwindfunclet$?textCallback@CAdjustMon@@EAEXPBDH@Z$32 0041c5a8 f   AdjustMon.obj
 0001:0001b5b4       __unwindfunclet$?textCallback@CAdjustMon@@EAEXPBDH@Z$33 0041c5b4 f   AdjustMon.obj
 0001:0001b5c0       __unwindfunclet$?textCallback@CAdjustMon@@EAEXPBDH@Z$34 0041c5c0 f   AdjustMon.obj
 0001:0001b5cc       __unwindfunclet$?textCallback@CAdjustMon@@EAEXPBDH@Z$35 0041c5cc f   AdjustMon.obj
 0001:0001b5d5       __unwindfunclet$?textCallback@CAdjustMon@@EAEXPBDH@Z$36 0041c5d5 f   AdjustMon.obj
 0001:0001b5e1       __unwindfunclet$?textCallback@CAdjustMon@@EAEXPBDH@Z$37 0041c5e1 f   AdjustMon.obj
 0001:0001b5ea       __unwindfunclet$?textCallback@CAdjustMon@@EAEXPBDH@Z$38 0041c5ea f   AdjustMon.obj
 0001:0001b5f3       __unwindfunclet$?textCallback@CAdjustMon@@EAEXPBDH@Z$39 0041c5f3 f   AdjustMon.obj
 0001:0001b5fc       __unwindfunclet$?textCallback@CAdjustMon@@EAEXPBDH@Z$40 0041c5fc f   AdjustMon.obj
 0001:0001b608       __unwindfunclet$?textCallback@CAdjustMon@@EAEXPBDH@Z$41 0041c608 f   AdjustMon.obj
 0001:0001b614       __unwindfunclet$?textCallback@CAdjustMon@@EAEXPBDH@Z$42 0041c614 f   AdjustMon.obj
 0001:0001b61d       __unwindfunclet$?textCallback@CAdjustMon@@EAEXPBDH@Z$43 0041c61d f   AdjustMon.obj
 0001:0001b626       __unwindfunclet$?textCallback@CAdjustMon@@EAEXPBDH@Z$44 0041c626 f   AdjustMon.obj
 0001:0001b62f       __unwindfunclet$?textCallback@CAdjustMon@@EAEXPBDH@Z$45 0041c62f f   AdjustMon.obj
 0001:0001b638       __unwindfunclet$?textCallback@CAdjustMon@@EAEXPBDH@Z$46 0041c638 f   AdjustMon.obj
 0001:0001b644       __unwindfunclet$?textCallback@CAdjustMon@@EAEXPBDH@Z$47 0041c644 f   AdjustMon.obj
 0001:0001b650       __unwindfunclet$?textCallback@CAdjustMon@@EAEXPBDH@Z$48 0041c650 f   AdjustMon.obj
 0001:0001b65c       __ehhandler$?textCallback@CAdjustMon@@EAEXPBDH@Z 0041c65c f   AdjustMon.obj
 0001:0001b67a       __unwindfunclet$?values@?$QMap@VQString@@VparamInfo@@@@QBE?AV?$QValueList@VparamInfo@@@@XZ$0 0041c67a f   AdjustMon.obj
 0001:0001b67a       __unwindfunclet$?values@?$QMap@VQString@@VinstanceInfo@@@@QBE?AV?$QValueList@VinstanceInfo@@@@XZ$0 0041c67a f   AdjustMon.obj
 0001:0001b67a       __unwindfunclet$?values@?$QMap@VQString@@VdeviceTypeInfo@@@@QBE?AV?$QValueList@VdeviceTypeInfo@@@@XZ$0 0041c67a f   AdjustMon.obj
 0001:0001b67a       __unwindfunclet$?values@?$QMap@VQString@@VcomplexInstance@@@@QBE?AV?$QValueList@VcomplexInstance@@@@XZ$0 0041c67a f   AdjustMon.obj
 0001:0001b67a       __unwindfunclet$?values@?$QMap@VQString@@VcomplexParam@@@@QBE?AV?$QValueList@VcomplexParam@@@@XZ$0 0041c67a f   AdjustMon.obj
 0001:0001b67a       __unwindfunclet$?values@?$QMap@VQString@@VcomplexType@@@@QBE?AV?$QValueList@VcomplexType@@@@XZ$0 0041c67a f   AdjustMon.obj
 0001:0001b693       __ehhandler$?values@?$QMap@VQString@@VcomplexInstance@@@@QBE?AV?$QValueList@VcomplexInstance@@@@XZ 0041c693 f   AdjustMon.obj
 0001:0001b693       __ehhandler$?values@?$QMap@VQString@@VcomplexParam@@@@QBE?AV?$QValueList@VcomplexParam@@@@XZ 0041c693 f   AdjustMon.obj
 0001:0001b693       __ehhandler$?values@?$QMap@VQString@@VparamInfo@@@@QBE?AV?$QValueList@VparamInfo@@@@XZ 0041c693 f   AdjustMon.obj
 0001:0001b693       __ehhandler$?values@?$QMap@VQString@@VinstanceInfo@@@@QBE?AV?$QValueList@VinstanceInfo@@@@XZ 0041c693 f   AdjustMon.obj
 0001:0001b693       __ehhandler$?values@?$QMap@VQString@@VdeviceTypeInfo@@@@QBE?AV?$QValueList@VdeviceTypeInfo@@@@XZ 0041c693 f   AdjustMon.obj
 0001:0001b693       __ehhandler$?values@?$QMap@VQString@@VcomplexType@@@@QBE?AV?$QValueList@VcomplexType@@@@XZ 0041c693 f   AdjustMon.obj
 0001:0001b6ae       __unwindfunclet$??0CAppBar@@QAE@PAVQWidget@@ABVQString@@_N@Z$0 0041c6ae f   AppBar.obj
 0001:0001b6ae       __unwindfunclet$??1CAppBar@@UAE@XZ$0 0041c6ae f   AppBar.obj
 0001:0001b6b6       __unwindfunclet$??0CAppBar@@QAE@PAVQWidget@@ABVQString@@_N@Z$1 0041c6b6 f   AppBar.obj
 0001:0001b6b6       __unwindfunclet$??1CAppBar@@UAE@XZ$1 0041c6b6 f   AppBar.obj
 0001:0001b6c2       __unwindfunclet$??1CAppBar@@UAE@XZ$2 0041c6c2 f   AppBar.obj
 0001:0001b6c2       __unwindfunclet$??0CAppBar@@QAE@PAVQWidget@@ABVQString@@_N@Z$2 0041c6c2 f   AppBar.obj
 0001:0001b6ce       __unwindfunclet$??1CAppBar@@UAE@XZ$3 0041c6ce f   AppBar.obj
 0001:0001b6ce       __unwindfunclet$??0CAppBar@@QAE@PAVQWidget@@ABVQString@@_N@Z$3 0041c6ce f   AppBar.obj
 0001:0001b6da       __unwindfunclet$??1CAppBar@@UAE@XZ$4 0041c6da f   AppBar.obj
 0001:0001b6da       __unwindfunclet$??0CAppBar@@QAE@PAVQWidget@@ABVQString@@_N@Z$4 0041c6da f   AppBar.obj
 0001:0001b6e9       __unwindfunclet$??1CAppBar@@UAE@XZ$5 0041c6e9 f   AppBar.obj
 0001:0001b6e9       __unwindfunclet$??0CAppBar@@QAE@PAVQWidget@@ABVQString@@_N@Z$5 0041c6e9 f   AppBar.obj
 0001:0001b6f8       __unwindfunclet$??0CAppBar@@QAE@PAVQWidget@@ABVQString@@_N@Z$6 0041c6f8 f   AppBar.obj
 0001:0001b6f8       __unwindfunclet$??1CAppBar@@UAE@XZ$6 0041c6f8 f   AppBar.obj
 0001:0001b707       __unwindfunclet$??1CAppBar@@UAE@XZ$7 0041c707 f   AppBar.obj
 0001:0001b707       __unwindfunclet$??0CAppBar@@QAE@PAVQWidget@@ABVQString@@_N@Z$7 0041c707 f   AppBar.obj
 0001:0001b716       __unwindfunclet$??1CAppBar@@UAE@XZ$8 0041c716 f   AppBar.obj
 0001:0001b716       __unwindfunclet$??0CAppBar@@QAE@PAVQWidget@@ABVQString@@_N@Z$8 0041c716 f   AppBar.obj
 0001:0001b724       __unwindfunclet$??0CAppBar@@QAE@PAVQWidget@@ABVQString@@_N@Z$9 0041c724 f   AppBar.obj
 0001:0001b724       __unwindfunclet$??1CAppBar@@UAE@XZ$9 0041c724 f   AppBar.obj
 0001:0001b733       __ehhandler$??0CAppBar@@QAE@PAVQWidget@@ABVQString@@_N@Z 0041c733 f   AppBar.obj
 0001:0001b733       __ehhandler$??1CAppBar@@UAE@XZ 0041c733 f   AppBar.obj
 0001:0001b74e       __unwindfunclet$??_GQGrid@@UAEPAXI@Z$0 0041c74e f   AppBar.obj
 0001:0001b757       __unwindfunclet$??_GQGrid@@UAEPAXI@Z$1 0041c757 f   AppBar.obj
 0001:0001b760       __ehhandler$??_GQGrid@@UAEPAXI@Z 0041c760 f   AppBar.obj
 0001:0001b77b       __unwindfunclet$??_GQKeyEvent@@UAEPAXI@Z$0 0041c77b f   AppBar.obj
 0001:0001b784       __unwindfunclet$??_GQKeyEvent@@UAEPAXI@Z$1 0041c784 f   AppBar.obj
 0001:0001b790       __ehhandler$??_GQKeyEvent@@UAEPAXI@Z 0041c790 f   AppBar.obj
 0001:0001b7ab       __unwindfunclet$?appItem@CAppBar@@AAEXHPAVQPoint@@@Z$0 0041c7ab f   AppBar.obj
 0001:0001b7b5       __unwindfunclet$?appItem@CAppBar@@AAEXHPAVQPoint@@@Z$1 0041c7b5 f   AppBar.obj
 0001:0001b7be       __unwindfunclet$?appItem@CAppBar@@AAEXHPAVQPoint@@@Z$2 0041c7be f   AppBar.obj
 0001:0001b7c7       __unwindfunclet$?appItem@CAppBar@@AAEXHPAVQPoint@@@Z$3 0041c7c7 f   AppBar.obj
 0001:0001b7d0       __unwindfunclet$?appItem@CAppBar@@AAEXHPAVQPoint@@@Z$4 0041c7d0 f   AppBar.obj
 0001:0001b7d9       __unwindfunclet$?appItem@CAppBar@@AAEXHPAVQPoint@@@Z$5 0041c7d9 f   AppBar.obj
 0001:0001b7e2       __unwindfunclet$?appItem@CAppBar@@AAEXHPAVQPoint@@@Z$6 0041c7e2 f   AppBar.obj
 0001:0001b7eb       __unwindfunclet$?appItem@CAppBar@@AAEXHPAVQPoint@@@Z$7 0041c7eb f   AppBar.obj
 0001:0001b7f4       __unwindfunclet$?appItem@CAppBar@@AAEXHPAVQPoint@@@Z$8 0041c7f4 f   AppBar.obj
 0001:0001b7fd       __unwindfunclet$?appItem@CAppBar@@AAEXHPAVQPoint@@@Z$9 0041c7fd f   AppBar.obj
 0001:0001b806       __unwindfunclet$?appItem@CAppBar@@AAEXHPAVQPoint@@@Z$10 0041c806 f   AppBar.obj
 0001:0001b80f       __unwindfunclet$?appItem@CAppBar@@AAEXHPAVQPoint@@@Z$11 0041c80f f   AppBar.obj
 0001:0001b818       __unwindfunclet$?appItem@CAppBar@@AAEXHPAVQPoint@@@Z$12 0041c818 f   AppBar.obj
 0001:0001b821       __unwindfunclet$?appItem@CAppBar@@AAEXHPAVQPoint@@@Z$13 0041c821 f   AppBar.obj
 0001:0001b82a       __unwindfunclet$?appItem@CAppBar@@AAEXHPAVQPoint@@@Z$14 0041c82a f   AppBar.obj
 0001:0001b833       __unwindfunclet$?appItem@CAppBar@@AAEXHPAVQPoint@@@Z$15 0041c833 f   AppBar.obj
 0001:0001b83c       __unwindfunclet$?appItem@CAppBar@@AAEXHPAVQPoint@@@Z$16 0041c83c f   AppBar.obj
 0001:0001b845       __unwindfunclet$?appItem@CAppBar@@AAEXHPAVQPoint@@@Z$17 0041c845 f   AppBar.obj
 0001:0001b84e       __unwindfunclet$?appItem@CAppBar@@AAEXHPAVQPoint@@@Z$18 0041c84e f   AppBar.obj
 0001:0001b857       __unwindfunclet$?appItem@CAppBar@@AAEXHPAVQPoint@@@Z$19 0041c857 f   AppBar.obj
 0001:0001b860       __unwindfunclet$?appItem@CAppBar@@AAEXHPAVQPoint@@@Z$20 0041c860 f   AppBar.obj
 0001:0001b869       __unwindfunclet$?appItem@CAppBar@@AAEXHPAVQPoint@@@Z$21 0041c869 f   AppBar.obj
 0001:0001b872       __unwindfunclet$?appItem@CAppBar@@AAEXHPAVQPoint@@@Z$22 0041c872 f   AppBar.obj
 0001:0001b87b       __unwindfunclet$?appItem@CAppBar@@AAEXHPAVQPoint@@@Z$23 0041c87b f   AppBar.obj
 0001:0001b884       __unwindfunclet$?appItem@CAppBar@@AAEXHPAVQPoint@@@Z$24 0041c884 f   AppBar.obj
 0001:0001b88d       __unwindfunclet$?appItem@CAppBar@@AAEXHPAVQPoint@@@Z$25 0041c88d f   AppBar.obj
 0001:0001b896       __unwindfunclet$?appItem@CAppBar@@AAEXHPAVQPoint@@@Z$26 0041c896 f   AppBar.obj
 0001:0001b89f       __unwindfunclet$?appItem@CAppBar@@AAEXHPAVQPoint@@@Z$27 0041c89f f   AppBar.obj
 0001:0001b8a8       __unwindfunclet$?appItem@CAppBar@@AAEXHPAVQPoint@@@Z$28 0041c8a8 f   AppBar.obj
 0001:0001b8b1       __unwindfunclet$?appItem@CAppBar@@AAEXHPAVQPoint@@@Z$29 0041c8b1 f   AppBar.obj
 0001:0001b8ba       __unwindfunclet$?appItem@CAppBar@@AAEXHPAVQPoint@@@Z$30 0041c8ba f   AppBar.obj
 0001:0001b8c3       __unwindfunclet$?appItem@CAppBar@@AAEXHPAVQPoint@@@Z$31 0041c8c3 f   AppBar.obj
 0001:0001b8cc       __unwindfunclet$?appItem@CAppBar@@AAEXHPAVQPoint@@@Z$32 0041c8cc f   AppBar.obj
 0001:0001b8d5       __unwindfunclet$?appItem@CAppBar@@AAEXHPAVQPoint@@@Z$33 0041c8d5 f   AppBar.obj
 0001:0001b8de       __unwindfunclet$?appItem@CAppBar@@AAEXHPAVQPoint@@@Z$34 0041c8de f   AppBar.obj
 0001:0001b8e7       __unwindfunclet$?appItem@CAppBar@@AAEXHPAVQPoint@@@Z$35 0041c8e7 f   AppBar.obj
 0001:0001b8f0       __unwindfunclet$?appItem@CAppBar@@AAEXHPAVQPoint@@@Z$36 0041c8f0 f   AppBar.obj
 0001:0001b8f9       __unwindfunclet$?appItem@CAppBar@@AAEXHPAVQPoint@@@Z$37 0041c8f9 f   AppBar.obj
 0001:0001b902       __unwindfunclet$?appItem@CAppBar@@AAEXHPAVQPoint@@@Z$38 0041c902 f   AppBar.obj
 0001:0001b90b       __unwindfunclet$?appItem@CAppBar@@AAEXHPAVQPoint@@@Z$39 0041c90b f   AppBar.obj
 0001:0001b914       __unwindfunclet$?appItem@CAppBar@@AAEXHPAVQPoint@@@Z$40 0041c914 f   AppBar.obj
 0001:0001b91d       __unwindfunclet$?appItem@CAppBar@@AAEXHPAVQPoint@@@Z$41 0041c91d f   AppBar.obj
 0001:0001b926       __unwindfunclet$?appItem@CAppBar@@AAEXHPAVQPoint@@@Z$42 0041c926 f   AppBar.obj
 0001:0001b92f       __unwindfunclet$?appItem@CAppBar@@AAEXHPAVQPoint@@@Z$43 0041c92f f   AppBar.obj
 0001:0001b938       __unwindfunclet$?appItem@CAppBar@@AAEXHPAVQPoint@@@Z$44 0041c938 f   AppBar.obj
 0001:0001b941       __unwindfunclet$?appItem@CAppBar@@AAEXHPAVQPoint@@@Z$45 0041c941 f   AppBar.obj
 0001:0001b94a       __ehhandler$?appItem@CAppBar@@AAEXHPAVQPoint@@@Z 0041c94a f   AppBar.obj
 0001:0001b965       __unwindfunclet$?clearHighlight@CAppBar@@QAEXXZ$0 0041c965 f   AppBar.obj
 0001:0001b96e       __unwindfunclet$?clearHighlight@CAppBar@@QAEXXZ$1 0041c96e f   AppBar.obj
 0001:0001b977       __ehhandler$?clearHighlight@CAppBar@@QAEXXZ 0041c977 f   AppBar.obj
 0001:0001b992       __unwindfunclet$?getAppItemCount@CAppBar@@AAEHXZ$0 0041c992 f   AppBar.obj
 0001:0001b99b       __unwindfunclet$?getAppItemCount@CAppBar@@AAEHXZ$1 0041c99b f   AppBar.obj
 0001:0001b9a4       __ehhandler$?getAppItemCount@CAppBar@@AAEHXZ 0041c9a4 f   AppBar.obj
 0001:0001b9bf       __unwindfunclet$?getPanelSetSize@CAppBar@@AAEHVQString@@@Z$0 0041c9bf f   AppBar.obj
 0001:0001b9c8       __unwindfunclet$?getPanelSetSize@CAppBar@@AAEHVQString@@@Z$1 0041c9c8 f   AppBar.obj
 0001:0001b9d1       __unwindfunclet$?getPanelSetSize@CAppBar@@AAEHVQString@@@Z$2 0041c9d1 f   AppBar.obj
 0001:0001b9da       __unwindfunclet$?getPanelSetSize@CAppBar@@AAEHVQString@@@Z$3 0041c9da f   AppBar.obj
 0001:0001b9e3       __ehhandler$?getPanelSetSize@CAppBar@@AAEHVQString@@@Z 0041c9e3 f   AppBar.obj
 0001:0001b9fe       __unwindfunclet$?initButtons@CAppBar@@QAEXXZ$0 0041c9fe f   AppBar.obj
 0001:0001ba07       __unwindfunclet$?initButtons@CAppBar@@QAEXXZ$1 0041ca07 f   AppBar.obj
 0001:0001ba10       __unwindfunclet$?initButtons@CAppBar@@QAEXXZ$2 0041ca10 f   AppBar.obj
 0001:0001ba19       __unwindfunclet$?initButtons@CAppBar@@QAEXXZ$3 0041ca19 f   AppBar.obj
 0001:0001ba22       __unwindfunclet$?initButtons@CAppBar@@QAEXXZ$4 0041ca22 f   AppBar.obj
 0001:0001ba2b       __unwindfunclet$?initButtons@CAppBar@@QAEXXZ$5 0041ca2b f   AppBar.obj
 0001:0001ba34       __ehhandler$?initButtons@CAppBar@@QAEXXZ 0041ca34 f   AppBar.obj
 0001:0001ba4f       __unwindfunclet$?notify@CStatusBar@@UAEXAAVQString@@@Z$0 0041ca4f f   AppBar.obj
 0001:0001ba4f       __unwindfunclet$?nextPage@CAppBar@@AAEXXZ$0 0041ca4f f   AppBar.obj
 0001:0001ba4f       __unwindfunclet$?notify@CSimpleBar@@UAEXAAVQString@@@Z$0 0041ca4f f   AppBar.obj
 0001:0001ba58       __unwindfunclet$?nextPage@CAppBar@@AAEXXZ$1 0041ca58 f   AppBar.obj
 0001:0001ba58       __unwindfunclet$?notify@CStatusBar@@UAEXAAVQString@@@Z$1 0041ca58 f   AppBar.obj
 0001:0001ba58       __unwindfunclet$?notify@CSimpleBar@@UAEXAAVQString@@@Z$1 0041ca58 f   AppBar.obj
 0001:0001ba61       __ehhandler$?notify@CStatusBar@@UAEXAAVQString@@@Z 0041ca61 f   AppBar.obj
 0001:0001ba61       __ehhandler$?notify@CSimpleBar@@UAEXAAVQString@@@Z 0041ca61 f   AppBar.obj
 0001:0001ba61       __ehhandler$?nextPage@CAppBar@@AAEXXZ 0041ca61 f   AppBar.obj
 0001:0001ba7c       __unwindfunclet$?notify@CAppBar@@UAEXAAVQString@@@Z$0 0041ca7c f   AppBar.obj
 0001:0001ba85       __unwindfunclet$?notify@CAppBar@@UAEXAAVQString@@@Z$1 0041ca85 f   AppBar.obj
 0001:0001ba8e       __unwindfunclet$?notify@CAppBar@@UAEXAAVQString@@@Z$2 0041ca8e f   AppBar.obj
 0001:0001ba98       __unwindfunclet$?notify@CAppBar@@UAEXAAVQString@@@Z$3 0041ca98 f   AppBar.obj
 0001:0001baa1       __unwindfunclet$?notify@CAppBar@@UAEXAAVQString@@@Z$4 0041caa1 f   AppBar.obj
 0001:0001baaa       __unwindfunclet$?notify@CAppBar@@UAEXAAVQString@@@Z$5 0041caaa f   AppBar.obj
 0001:0001bab3       __ehhandler$?notify@CAppBar@@UAEXAAVQString@@@Z 0041cab3 f   AppBar.obj
 0001:0001bace       __unwindfunclet$?popupAppExtension@CAppBar@@AAEXXZ$0 0041cace f   AppBar.obj
 0001:0001bada       __unwindfunclet$?popupAppExtension@CAppBar@@AAEXXZ$1 0041cada f   AppBar.obj
 0001:0001bae5       __unwindfunclet$?popupAppExtension@CAppBar@@AAEXXZ$2 0041cae5 f   AppBar.obj
 0001:0001baee       __unwindfunclet$?popupAppExtension@CAppBar@@AAEXXZ$3 0041caee f   AppBar.obj
 0001:0001baf7       __unwindfunclet$?popupAppExtension@CAppBar@@AAEXXZ$4 0041caf7 f   AppBar.obj
 0001:0001bb00       __unwindfunclet$?popupAppExtension@CAppBar@@AAEXXZ$5 0041cb00 f   AppBar.obj
 0001:0001bb0c       __unwindfunclet$?popupAppExtension@CAppBar@@AAEXXZ$6 0041cb0c f   AppBar.obj
 0001:0001bb15       __unwindfunclet$?popupAppExtension@CAppBar@@AAEXXZ$7 0041cb15 f   AppBar.obj
 0001:0001bb1e       __unwindfunclet$?popupAppExtension@CAppBar@@AAEXXZ$8 0041cb1e f   AppBar.obj
 0001:0001bb27       __unwindfunclet$?popupAppExtension@CAppBar@@AAEXXZ$9 0041cb27 f   AppBar.obj
 0001:0001bb30       __unwindfunclet$?popupAppExtension@CAppBar@@AAEXXZ$10 0041cb30 f   AppBar.obj
 0001:0001bb39       __unwindfunclet$?popupAppExtension@CAppBar@@AAEXXZ$11 0041cb39 f   AppBar.obj
 0001:0001bb42       __unwindfunclet$?popupAppExtension@CAppBar@@AAEXXZ$12 0041cb42 f   AppBar.obj
 0001:0001bb4b       __unwindfunclet$?popupAppExtension@CAppBar@@AAEXXZ$13 0041cb4b f   AppBar.obj
 0001:0001bb54       __unwindfunclet$?popupAppExtension@CAppBar@@AAEXXZ$14 0041cb54 f   AppBar.obj
 0001:0001bb5d       __unwindfunclet$?popupAppExtension@CAppBar@@AAEXXZ$15 0041cb5d f   AppBar.obj
 0001:0001bb66       __unwindfunclet$?popupAppExtension@CAppBar@@AAEXXZ$16 0041cb66 f   AppBar.obj
 0001:0001bb6f       __unwindfunclet$?popupAppExtension@CAppBar@@AAEXXZ$17 0041cb6f f   AppBar.obj
 0001:0001bb78       __unwindfunclet$?popupAppExtension@CAppBar@@AAEXXZ$18 0041cb78 f   AppBar.obj
 0001:0001bb81       __unwindfunclet$?popupAppExtension@CAppBar@@AAEXXZ$19 0041cb81 f   AppBar.obj
 0001:0001bb8a       __unwindfunclet$?popupAppExtension@CAppBar@@AAEXXZ$20 0041cb8a f   AppBar.obj
 0001:0001bb93       __unwindfunclet$?popupAppExtension@CAppBar@@AAEXXZ$21 0041cb93 f   AppBar.obj
 0001:0001bb9c       __unwindfunclet$?popupAppExtension@CAppBar@@AAEXXZ$22 0041cb9c f   AppBar.obj
 0001:0001bba5       __unwindfunclet$?popupAppExtension@CAppBar@@AAEXXZ$23 0041cba5 f   AppBar.obj
 0001:0001bbae       __unwindfunclet$?popupAppExtension@CAppBar@@AAEXXZ$24 0041cbae f   AppBar.obj
 0001:0001bbb7       __unwindfunclet$?popupAppExtension@CAppBar@@AAEXXZ$25 0041cbb7 f   AppBar.obj
 0001:0001bbc0       __unwindfunclet$?popupAppExtension@CAppBar@@AAEXXZ$26 0041cbc0 f   AppBar.obj
 0001:0001bbc9       __ehhandler$?popupAppExtension@CAppBar@@AAEXXZ 0041cbc9 f   AppBar.obj
 0001:0001bbe7       __unwindfunclet$?resetPanelSet@CAppBar@@QAEXXZ$0 0041cbe7 f   AppBar.obj
 0001:0001bbe7       __unwindfunclet$?popupDestroyed@CAppBar@@QAEXXZ$0 0041cbe7 f   AppBar.obj
 0001:0001bbf0       __ehhandler$?resetPanelSet@CAppBar@@QAEXXZ 0041cbf0 f   AppBar.obj
 0001:0001bbf0       __ehhandler$?popupDestroyed@CAppBar@@QAEXXZ 0041cbf0 f   AppBar.obj
 0001:0001bc0b       __unwindfunclet$?setPanelSet@CAppBar@@QAEXVQString@@@Z$0 0041cc0b f   AppBar.obj
 0001:0001bc14       __unwindfunclet$?setPanelSet@CAppBar@@QAEXVQString@@@Z$1 0041cc14 f   AppBar.obj
 0001:0001bc1e       __unwindfunclet$?setPanelSet@CAppBar@@QAEXVQString@@@Z$2 0041cc1e f   AppBar.obj
 0001:0001bc27       __unwindfunclet$?setPanelSet@CAppBar@@QAEXVQString@@@Z$3 0041cc27 f   AppBar.obj
 0001:0001bc30       __unwindfunclet$?setPanelSet@CAppBar@@QAEXVQString@@@Z$4 0041cc30 f   AppBar.obj
 0001:0001bc39       __unwindfunclet$?setPanelSet@CAppBar@@QAEXVQString@@@Z$5 0041cc39 f   AppBar.obj
 0001:0001bc42       __unwindfunclet$?setPanelSet@CAppBar@@QAEXVQString@@@Z$6 0041cc42 f   AppBar.obj
 0001:0001bc4b       __unwindfunclet$?setPanelSet@CAppBar@@QAEXVQString@@@Z$7 0041cc4b f   AppBar.obj
 0001:0001bc54       __unwindfunclet$?setPanelSet@CAppBar@@QAEXVQString@@@Z$8 0041cc54 f   AppBar.obj
 0001:0001bc5d       __unwindfunclet$?setPanelSet@CAppBar@@QAEXVQString@@@Z$9 0041cc5d f   AppBar.obj
 0001:0001bc66       __unwindfunclet$?setPanelSet@CAppBar@@QAEXVQString@@@Z$10 0041cc66 f   AppBar.obj
 0001:0001bc6f       __unwindfunclet$?setPanelSet@CAppBar@@QAEXVQString@@@Z$11 0041cc6f f   AppBar.obj
 0001:0001bc78       __unwindfunclet$?setPanelSet@CAppBar@@QAEXVQString@@@Z$12 0041cc78 f   AppBar.obj
 0001:0001bc81       __unwindfunclet$?setPanelSet@CAppBar@@QAEXVQString@@@Z$13 0041cc81 f   AppBar.obj
 0001:0001bc8a       __unwindfunclet$?setPanelSet@CAppBar@@QAEXVQString@@@Z$14 0041cc8a f   AppBar.obj
 0001:0001bc93       __unwindfunclet$?setPanelSet@CAppBar@@QAEXVQString@@@Z$15 0041cc93 f   AppBar.obj
 0001:0001bc9c       __unwindfunclet$?setPanelSet@CAppBar@@QAEXVQString@@@Z$16 0041cc9c f   AppBar.obj
 0001:0001bca5       __unwindfunclet$?setPanelSet@CAppBar@@QAEXVQString@@@Z$17 0041cca5 f   AppBar.obj
 0001:0001bcae       __unwindfunclet$?setPanelSet@CAppBar@@QAEXVQString@@@Z$18 0041ccae f   AppBar.obj
 0001:0001bcb7       __unwindfunclet$?setPanelSet@CAppBar@@QAEXVQString@@@Z$19 0041ccb7 f   AppBar.obj
 0001:0001bcc0       __unwindfunclet$?setPanelSet@CAppBar@@QAEXVQString@@@Z$20 0041ccc0 f   AppBar.obj
 0001:0001bcc9       __unwindfunclet$?setPanelSet@CAppBar@@QAEXVQString@@@Z$21 0041ccc9 f   AppBar.obj
 0001:0001bcd2       __unwindfunclet$?setPanelSet@CAppBar@@QAEXVQString@@@Z$22 0041ccd2 f   AppBar.obj
 0001:0001bcdb       __unwindfunclet$?setPanelSet@CAppBar@@QAEXVQString@@@Z$23 0041ccdb f   AppBar.obj
 0001:0001bce4       __unwindfunclet$?setPanelSet@CAppBar@@QAEXVQString@@@Z$24 0041cce4 f   AppBar.obj
 0001:0001bced       __unwindfunclet$?setPanelSet@CAppBar@@QAEXVQString@@@Z$25 0041cced f   AppBar.obj
 0001:0001bcf6       __unwindfunclet$?setPanelSet@CAppBar@@QAEXVQString@@@Z$26 0041ccf6 f   AppBar.obj
 0001:0001bd02       __unwindfunclet$?setPanelSet@CAppBar@@QAEXVQString@@@Z$27 0041cd02 f   AppBar.obj
 0001:0001bd0b       __unwindfunclet$?setPanelSet@CAppBar@@QAEXVQString@@@Z$28 0041cd0b f   AppBar.obj
 0001:0001bd14       __unwindfunclet$?setPanelSet@CAppBar@@QAEXVQString@@@Z$29 0041cd14 f   AppBar.obj
 0001:0001bd1d       __unwindfunclet$?setPanelSet@CAppBar@@QAEXVQString@@@Z$30 0041cd1d f   AppBar.obj
 0001:0001bd26       __unwindfunclet$?setPanelSet@CAppBar@@QAEXVQString@@@Z$31 0041cd26 f   AppBar.obj
 0001:0001bd32       __unwindfunclet$?setPanelSet@CAppBar@@QAEXVQString@@@Z$32 0041cd32 f   AppBar.obj
 0001:0001bd3e       __unwindfunclet$?setPanelSet@CAppBar@@QAEXVQString@@@Z$33 0041cd3e f   AppBar.obj
 0001:0001bd47       __unwindfunclet$?setPanelSet@CAppBar@@QAEXVQString@@@Z$34 0041cd47 f   AppBar.obj
 0001:0001bd53       __unwindfunclet$?setPanelSet@CAppBar@@QAEXVQString@@@Z$35 0041cd53 f   AppBar.obj
 0001:0001bd5f       __unwindfunclet$?setPanelSet@CAppBar@@QAEXVQString@@@Z$36 0041cd5f f   AppBar.obj
 0001:0001bd68       __unwindfunclet$?setPanelSet@CAppBar@@QAEXVQString@@@Z$37 0041cd68 f   AppBar.obj
 0001:0001bd74       __unwindfunclet$?setPanelSet@CAppBar@@QAEXVQString@@@Z$38 0041cd74 f   AppBar.obj
 0001:0001bd80       __unwindfunclet$?setPanelSet@CAppBar@@QAEXVQString@@@Z$39 0041cd80 f   AppBar.obj
 0001:0001bd89       __unwindfunclet$?setPanelSet@CAppBar@@QAEXVQString@@@Z$40 0041cd89 f   AppBar.obj
 0001:0001bd95       __unwindfunclet$?setPanelSet@CAppBar@@QAEXVQString@@@Z$41 0041cd95 f   AppBar.obj
 0001:0001bda1       __unwindfunclet$?setPanelSet@CAppBar@@QAEXVQString@@@Z$42 0041cda1 f   AppBar.obj
 0001:0001bdad       __unwindfunclet$?setPanelSet@CAppBar@@QAEXVQString@@@Z$43 0041cdad f   AppBar.obj
 0001:0001bdb9       __unwindfunclet$?setPanelSet@CAppBar@@QAEXVQString@@@Z$44 0041cdb9 f   AppBar.obj
 0001:0001bdc5       __unwindfunclet$?setPanelSet@CAppBar@@QAEXVQString@@@Z$45 0041cdc5 f   AppBar.obj
 0001:0001bdd1       __unwindfunclet$?setPanelSet@CAppBar@@QAEXVQString@@@Z$46 0041cdd1 f   AppBar.obj
 0001:0001bddd       __unwindfunclet$?setPanelSet@CAppBar@@QAEXVQString@@@Z$47 0041cddd f   AppBar.obj
 0001:0001bde9       __unwindfunclet$?setPanelSet@CAppBar@@QAEXVQString@@@Z$48 0041cde9 f   AppBar.obj
 0001:0001bdf5       __unwindfunclet$?setPanelSet@CAppBar@@QAEXVQString@@@Z$49 0041cdf5 f   AppBar.obj
 0001:0001be01       __unwindfunclet$?setPanelSet@CAppBar@@QAEXVQString@@@Z$50 0041ce01 f   AppBar.obj
 0001:0001be0d       __unwindfunclet$?setPanelSet@CAppBar@@QAEXVQString@@@Z$51 0041ce0d f   AppBar.obj
 0001:0001be19       __unwindfunclet$?setPanelSet@CAppBar@@QAEXVQString@@@Z$52 0041ce19 f   AppBar.obj
 0001:0001be25       __unwindfunclet$?setPanelSet@CAppBar@@QAEXVQString@@@Z$53 0041ce25 f   AppBar.obj
 0001:0001be2e       __unwindfunclet$?setPanelSet@CAppBar@@QAEXVQString@@@Z$54 0041ce2e f   AppBar.obj
 0001:0001be3a       __unwindfunclet$?setPanelSet@CAppBar@@QAEXVQString@@@Z$55 0041ce3a f   AppBar.obj
 0001:0001be43       __unwindfunclet$?setPanelSet@CAppBar@@QAEXVQString@@@Z$56 0041ce43 f   AppBar.obj
 0001:0001be4f       __unwindfunclet$?setPanelSet@CAppBar@@QAEXVQString@@@Z$57 0041ce4f f   AppBar.obj
 0001:0001be5b       __unwindfunclet$?setPanelSet@CAppBar@@QAEXVQString@@@Z$58 0041ce5b f   AppBar.obj
 0001:0001be67       __unwindfunclet$?setPanelSet@CAppBar@@QAEXVQString@@@Z$59 0041ce67 f   AppBar.obj
 0001:0001be73       __unwindfunclet$?setPanelSet@CAppBar@@QAEXVQString@@@Z$60 0041ce73 f   AppBar.obj
 0001:0001be7f       __unwindfunclet$?setPanelSet@CAppBar@@QAEXVQString@@@Z$61 0041ce7f f   AppBar.obj
 0001:0001be8b       __unwindfunclet$?setPanelSet@CAppBar@@QAEXVQString@@@Z$62 0041ce8b f   AppBar.obj
 0001:0001be97       __unwindfunclet$?setPanelSet@CAppBar@@QAEXVQString@@@Z$63 0041ce97 f   AppBar.obj
 0001:0001bea3       __unwindfunclet$?setPanelSet@CAppBar@@QAEXVQString@@@Z$64 0041cea3 f   AppBar.obj
 0001:0001beaf       __unwindfunclet$?setPanelSet@CAppBar@@QAEXVQString@@@Z$65 0041ceaf f   AppBar.obj
 0001:0001bebb       __unwindfunclet$?setPanelSet@CAppBar@@QAEXVQString@@@Z$66 0041cebb f   AppBar.obj
 0001:0001bec7       __unwindfunclet$?setPanelSet@CAppBar@@QAEXVQString@@@Z$67 0041cec7 f   AppBar.obj
 0001:0001bed3       __unwindfunclet$?setPanelSet@CAppBar@@QAEXVQString@@@Z$68 0041ced3 f   AppBar.obj
 0001:0001bedc       __unwindfunclet$?setPanelSet@CAppBar@@QAEXVQString@@@Z$69 0041cedc f   AppBar.obj
 0001:0001bee8       __unwindfunclet$?setPanelSet@CAppBar@@QAEXVQString@@@Z$70 0041cee8 f   AppBar.obj
 0001:0001bef4       __unwindfunclet$?setPanelSet@CAppBar@@QAEXVQString@@@Z$71 0041cef4 f   AppBar.obj
 0001:0001bf00       __unwindfunclet$?setPanelSet@CAppBar@@QAEXVQString@@@Z$72 0041cf00 f   AppBar.obj
 0001:0001bf0c       __unwindfunclet$?setPanelSet@CAppBar@@QAEXVQString@@@Z$73 0041cf0c f   AppBar.obj
 0001:0001bf18       __unwindfunclet$?setPanelSet@CAppBar@@QAEXVQString@@@Z$74 0041cf18 f   AppBar.obj
 0001:0001bf21       __unwindfunclet$?setPanelSet@CAppBar@@QAEXVQString@@@Z$75 0041cf21 f   AppBar.obj
 0001:0001bf2d       __unwindfunclet$?setPanelSet@CAppBar@@QAEXVQString@@@Z$76 0041cf2d f   AppBar.obj
 0001:0001bf39       __unwindfunclet$?setPanelSet@CAppBar@@QAEXVQString@@@Z$77 0041cf39 f   AppBar.obj
 0001:0001bf45       __unwindfunclet$?setPanelSet@CAppBar@@QAEXVQString@@@Z$78 0041cf45 f   AppBar.obj
 0001:0001bf51       __unwindfunclet$?setPanelSet@CAppBar@@QAEXVQString@@@Z$79 0041cf51 f   AppBar.obj
 0001:0001bf5d       __unwindfunclet$?setPanelSet@CAppBar@@QAEXVQString@@@Z$80 0041cf5d f   AppBar.obj
 0001:0001bf69       __unwindfunclet$?setPanelSet@CAppBar@@QAEXVQString@@@Z$81 0041cf69 f   AppBar.obj
 0001:0001bf75       __unwindfunclet$?setPanelSet@CAppBar@@QAEXVQString@@@Z$82 0041cf75 f   AppBar.obj
 0001:0001bf81       __unwindfunclet$?setPanelSet@CAppBar@@QAEXVQString@@@Z$83 0041cf81 f   AppBar.obj
 0001:0001bf8d       __unwindfunclet$?setPanelSet@CAppBar@@QAEXVQString@@@Z$84 0041cf8d f   AppBar.obj
 0001:0001bf99       __unwindfunclet$?setPanelSet@CAppBar@@QAEXVQString@@@Z$85 0041cf99 f   AppBar.obj
 0001:0001bfa2       __unwindfunclet$?setPanelSet@CAppBar@@QAEXVQString@@@Z$86 0041cfa2 f   AppBar.obj
 0001:0001bfae       __unwindfunclet$?setPanelSet@CAppBar@@QAEXVQString@@@Z$87 0041cfae f   AppBar.obj
 0001:0001bfba       __unwindfunclet$?setPanelSet@CAppBar@@QAEXVQString@@@Z$88 0041cfba f   AppBar.obj
 0001:0001bfc3       __unwindfunclet$?setPanelSet@CAppBar@@QAEXVQString@@@Z$89 0041cfc3 f   AppBar.obj
 0001:0001bfcc       __unwindfunclet$?setPanelSet@CAppBar@@QAEXVQString@@@Z$90 0041cfcc f   AppBar.obj
 0001:0001bfd8       __unwindfunclet$?setPanelSet@CAppBar@@QAEXVQString@@@Z$91 0041cfd8 f   AppBar.obj
 0001:0001bfe4       __unwindfunclet$?setPanelSet@CAppBar@@QAEXVQString@@@Z$92 0041cfe4 f   AppBar.obj
 0001:0001bfed       __unwindfunclet$?setPanelSet@CAppBar@@QAEXVQString@@@Z$93 0041cfed f   AppBar.obj
 0001:0001bff9       __unwindfunclet$?setPanelSet@CAppBar@@QAEXVQString@@@Z$94 0041cff9 f   AppBar.obj
 0001:0001c005       __unwindfunclet$?setPanelSet@CAppBar@@QAEXVQString@@@Z$95 0041d005 f   AppBar.obj
 0001:0001c00e       __unwindfunclet$?setPanelSet@CAppBar@@QAEXVQString@@@Z$96 0041d00e f   AppBar.obj
 0001:0001c017       __unwindfunclet$?setPanelSet@CAppBar@@QAEXVQString@@@Z$97 0041d017 f   AppBar.obj
 0001:0001c021       __unwindfunclet$?setPanelSet@CAppBar@@QAEXVQString@@@Z$98 0041d021 f   AppBar.obj
 0001:0001c02a       __unwindfunclet$?setPanelSet@CAppBar@@QAEXVQString@@@Z$99 0041d02a f   AppBar.obj
 0001:0001c036       __unwindfunclet$?setPanelSet@CAppBar@@QAEXVQString@@@Z$100 0041d036 f   AppBar.obj
 0001:0001c042       __unwindfunclet$?setPanelSet@CAppBar@@QAEXVQString@@@Z$101 0041d042 f   AppBar.obj
 0001:0001c04e       __unwindfunclet$?setPanelSet@CAppBar@@QAEXVQString@@@Z$102 0041d04e f   AppBar.obj
 0001:0001c05a       __unwindfunclet$?setPanelSet@CAppBar@@QAEXVQString@@@Z$103 0041d05a f   AppBar.obj
 0001:0001c066       __unwindfunclet$?setPanelSet@CAppBar@@QAEXVQString@@@Z$104 0041d066 f   AppBar.obj
 0001:0001c072       __unwindfunclet$?setPanelSet@CAppBar@@QAEXVQString@@@Z$105 0041d072 f   AppBar.obj
 0001:0001c07b       __unwindfunclet$?setPanelSet@CAppBar@@QAEXVQString@@@Z$106 0041d07b f   AppBar.obj
 0001:0001c084       __unwindfunclet$?setPanelSet@CAppBar@@QAEXVQString@@@Z$107 0041d084 f   AppBar.obj
 0001:0001c090       __unwindfunclet$?setPanelSet@CAppBar@@QAEXVQString@@@Z$108 0041d090 f   AppBar.obj
 0001:0001c09c       __ehhandler$?setPanelSet@CAppBar@@QAEXVQString@@@Z 0041d09c f   AppBar.obj
 0001:0001c0ba       __unwindfunclet$?setUser@CAppBar@@QAE?AVQString@@V2@@Z$0 0041d0ba f   AppBar.obj
 0001:0001c0c3       __unwindfunclet$?setUser@CAppBar@@QAE?AVQString@@V2@@Z$1 0041d0c3 f   AppBar.obj
 0001:0001c0dd       __unwindfunclet$?setUser@CAppBar@@QAE?AVQString@@V2@@Z$2 0041d0dd f   AppBar.obj
 0001:0001c0e6       __unwindfunclet$?setUser@CAppBar@@QAE?AVQString@@V2@@Z$3 0041d0e6 f   AppBar.obj
 0001:0001c0ef       __unwindfunclet$?setUser@CAppBar@@QAE?AVQString@@V2@@Z$4 0041d0ef f   AppBar.obj
 0001:0001c0f8       __unwindfunclet$?setUser@CAppBar@@QAE?AVQString@@V2@@Z$5 0041d0f8 f   AppBar.obj
 0001:0001c101       __unwindfunclet$?setUser@CAppBar@@QAE?AVQString@@V2@@Z$6 0041d101 f   AppBar.obj
 0001:0001c10a       __unwindfunclet$?setUser@CAppBar@@QAE?AVQString@@V2@@Z$7 0041d10a f   AppBar.obj
 0001:0001c113       __unwindfunclet$?setUser@CAppBar@@QAE?AVQString@@V2@@Z$8 0041d113 f   AppBar.obj
 0001:0001c11c       __unwindfunclet$?setUser@CAppBar@@QAE?AVQString@@V2@@Z$9 0041d11c f   AppBar.obj
 0001:0001c125       __unwindfunclet$?setUser@CAppBar@@QAE?AVQString@@V2@@Z$10 0041d125 f   AppBar.obj
 0001:0001c12e       __unwindfunclet$?setUser@CAppBar@@QAE?AVQString@@V2@@Z$11 0041d12e f   AppBar.obj
 0001:0001c137       __unwindfunclet$?setUser@CAppBar@@QAE?AVQString@@V2@@Z$12 0041d137 f   AppBar.obj
 0001:0001c140       __unwindfunclet$?setUser@CAppBar@@QAE?AVQString@@V2@@Z$13 0041d140 f   AppBar.obj
 0001:0001c149       __unwindfunclet$?setUser@CAppBar@@QAE?AVQString@@V2@@Z$14 0041d149 f   AppBar.obj
 0001:0001c152       __unwindfunclet$?setUser@CAppBar@@QAE?AVQString@@V2@@Z$15 0041d152 f   AppBar.obj
 0001:0001c15b       __unwindfunclet$?setUser@CAppBar@@QAE?AVQString@@V2@@Z$16 0041d15b f   AppBar.obj
 0001:0001c164       __unwindfunclet$?setUser@CAppBar@@QAE?AVQString@@V2@@Z$17 0041d164 f   AppBar.obj
 0001:0001c16d       __unwindfunclet$?setUser@CAppBar@@QAE?AVQString@@V2@@Z$18 0041d16d f   AppBar.obj
 0001:0001c176       __unwindfunclet$?setUser@CAppBar@@QAE?AVQString@@V2@@Z$19 0041d176 f   AppBar.obj
 0001:0001c17f       __unwindfunclet$?setUser@CAppBar@@QAE?AVQString@@V2@@Z$20 0041d17f f   AppBar.obj
 0001:0001c188       __unwindfunclet$?setUser@CAppBar@@QAE?AVQString@@V2@@Z$21 0041d188 f   AppBar.obj
 0001:0001c191       __unwindfunclet$?setUser@CAppBar@@QAE?AVQString@@V2@@Z$22 0041d191 f   AppBar.obj
 0001:0001c19a       __ehhandler$?setUser@CAppBar@@QAE?AVQString@@V2@@Z 0041d19a f   AppBar.obj
 0001:0001c1b5       __unwindfunclet$?showInstancesGrid@CAppBar@@AAEXPAVQPoint@@VQString@@1@Z$0 0041d1b5 f   AppBar.obj
 0001:0001c1be       __unwindfunclet$?showInstancesGrid@CAppBar@@AAEXPAVQPoint@@VQString@@1@Z$1 0041d1be f   AppBar.obj
 0001:0001c1c7       __unwindfunclet$?showInstancesGrid@CAppBar@@AAEXPAVQPoint@@VQString@@1@Z$2 0041d1c7 f   AppBar.obj
 0001:0001c1d0       __unwindfunclet$?showInstancesGrid@CAppBar@@AAEXPAVQPoint@@VQString@@1@Z$3 0041d1d0 f   AppBar.obj
 0001:0001c1d9       __unwindfunclet$?showInstancesGrid@CAppBar@@AAEXPAVQPoint@@VQString@@1@Z$4 0041d1d9 f   AppBar.obj
 0001:0001c1e2       __unwindfunclet$?showInstancesGrid@CAppBar@@AAEXPAVQPoint@@VQString@@1@Z$5 0041d1e2 f   AppBar.obj
 0001:0001c1eb       __unwindfunclet$?showInstancesGrid@CAppBar@@AAEXPAVQPoint@@VQString@@1@Z$6 0041d1eb f   AppBar.obj
 0001:0001c1f4       __unwindfunclet$?showInstancesGrid@CAppBar@@AAEXPAVQPoint@@VQString@@1@Z$7 0041d1f4 f   AppBar.obj
 0001:0001c1fd       __unwindfunclet$?showInstancesGrid@CAppBar@@AAEXPAVQPoint@@VQString@@1@Z$8 0041d1fd f   AppBar.obj
 0001:0001c209       __unwindfunclet$?showInstancesGrid@CAppBar@@AAEXPAVQPoint@@VQString@@1@Z$9 0041d209 f   AppBar.obj
 0001:0001c213       __unwindfunclet$?showInstancesGrid@CAppBar@@AAEXPAVQPoint@@VQString@@1@Z$10 0041d213 f   AppBar.obj
 0001:0001c21e       __unwindfunclet$?showInstancesGrid@CAppBar@@AAEXPAVQPoint@@VQString@@1@Z$11 0041d21e f   AppBar.obj
 0001:0001c227       __unwindfunclet$?showInstancesGrid@CAppBar@@AAEXPAVQPoint@@VQString@@1@Z$12 0041d227 f   AppBar.obj
 0001:0001c230       __unwindfunclet$?showInstancesGrid@CAppBar@@AAEXPAVQPoint@@VQString@@1@Z$13 0041d230 f   AppBar.obj
 0001:0001c239       __unwindfunclet$?showInstancesGrid@CAppBar@@AAEXPAVQPoint@@VQString@@1@Z$14 0041d239 f   AppBar.obj
 0001:0001c242       __unwindfunclet$?showInstancesGrid@CAppBar@@AAEXPAVQPoint@@VQString@@1@Z$15 0041d242 f   AppBar.obj
 0001:0001c24b       __unwindfunclet$?showInstancesGrid@CAppBar@@AAEXPAVQPoint@@VQString@@1@Z$16 0041d24b f   AppBar.obj
 0001:0001c254       __unwindfunclet$?showInstancesGrid@CAppBar@@AAEXPAVQPoint@@VQString@@1@Z$17 0041d254 f   AppBar.obj
 0001:0001c25d       __unwindfunclet$?showInstancesGrid@CAppBar@@AAEXPAVQPoint@@VQString@@1@Z$18 0041d25d f   AppBar.obj
 0001:0001c266       __ehhandler$?showInstancesGrid@CAppBar@@AAEXPAVQPoint@@VQString@@1@Z 0041d266 f   AppBar.obj
 0001:0001c284       __unwindfunclet$?showPanelSet@CAppBar@@AAEXXZ$0 0041d284 f   AppBar.obj
 0001:0001c28d       __unwindfunclet$?showPanelSet@CAppBar@@AAEXXZ$1 0041d28d f   AppBar.obj
 0001:0001c296       __unwindfunclet$?showPanelSet@CAppBar@@AAEXXZ$2 0041d296 f   AppBar.obj
 0001:0001c29f       __unwindfunclet$?showPanelSet@CAppBar@@AAEXXZ$3 0041d29f f   AppBar.obj
 0001:0001c2a8       __unwindfunclet$?showPanelSet@CAppBar@@AAEXXZ$4 0041d2a8 f   AppBar.obj
 0001:0001c2b1       __unwindfunclet$?showPanelSet@CAppBar@@AAEXXZ$5 0041d2b1 f   AppBar.obj
 0001:0001c2ba       __unwindfunclet$?showPanelSet@CAppBar@@AAEXXZ$6 0041d2ba f   AppBar.obj
 0001:0001c2c3       __unwindfunclet$?showPanelSet@CAppBar@@AAEXXZ$7 0041d2c3 f   AppBar.obj
 0001:0001c2cc       __unwindfunclet$?showPanelSet@CAppBar@@AAEXXZ$8 0041d2cc f   AppBar.obj
 0001:0001c2d5       __unwindfunclet$?showPanelSet@CAppBar@@AAEXXZ$9 0041d2d5 f   AppBar.obj
 0001:0001c2de       __unwindfunclet$?showPanelSet@CAppBar@@AAEXXZ$10 0041d2de f   AppBar.obj
 0001:0001c2e7       __unwindfunclet$?showPanelSet@CAppBar@@AAEXXZ$11 0041d2e7 f   AppBar.obj
 0001:0001c2f0       __unwindfunclet$?showPanelSet@CAppBar@@AAEXXZ$12 0041d2f0 f   AppBar.obj
 0001:0001c2f9       __unwindfunclet$?showPanelSet@CAppBar@@AAEXXZ$13 0041d2f9 f   AppBar.obj
 0001:0001c302       __unwindfunclet$?showPanelSet@CAppBar@@AAEXXZ$14 0041d302 f   AppBar.obj
 0001:0001c30b       __unwindfunclet$?showPanelSet@CAppBar@@AAEXXZ$15 0041d30b f   AppBar.obj
 0001:0001c314       __unwindfunclet$?showPanelSet@CAppBar@@AAEXXZ$16 0041d314 f   AppBar.obj
 0001:0001c31d       __unwindfunclet$?showPanelSet@CAppBar@@AAEXXZ$17 0041d31d f   AppBar.obj
 0001:0001c326       __unwindfunclet$?showPanelSet@CAppBar@@AAEXXZ$18 0041d326 f   AppBar.obj
 0001:0001c32f       __unwindfunclet$?showPanelSet@CAppBar@@AAEXXZ$19 0041d32f f   AppBar.obj
 0001:0001c338       __unwindfunclet$?showPanelSet@CAppBar@@AAEXXZ$20 0041d338 f   AppBar.obj
 0001:0001c341       __unwindfunclet$?showPanelSet@CAppBar@@AAEXXZ$21 0041d341 f   AppBar.obj
 0001:0001c34a       __unwindfunclet$?showPanelSet@CAppBar@@AAEXXZ$22 0041d34a f   AppBar.obj
 0001:0001c353       __unwindfunclet$?showPanelSet@CAppBar@@AAEXXZ$23 0041d353 f   AppBar.obj
 0001:0001c35c       __ehhandler$?showPanelSet@CAppBar@@AAEXXZ 0041d35c f   AppBar.obj
 0001:0001c377       __unwindfunclet$?hideLast@CAppView@@QAEXXZ$0 0041d377 f   AppBar.obj
 0001:0001c377       __unwindfunclet$?switchMenu@CAppBar@@QAEHXZ$0 0041d377 f   AppBar.obj
 0001:0001c380       __unwindfunclet$?switchMenu@CAppBar@@QAEHXZ$1 0041d380 f   AppBar.obj
 0001:0001c380       __unwindfunclet$?hideLast@CAppView@@QAEXXZ$1 0041d380 f   AppBar.obj
 0001:0001c389       __ehhandler$?switchMenu@CAppBar@@QAEHXZ 0041d389 f   AppBar.obj
 0001:0001c389       __ehhandler$?hideLast@CAppView@@QAEXXZ 0041d389 f   AppBar.obj
 0001:0001c3a4       __unwindfunclet$?ws@global@@SAHXZ$0 0041d3a4 f   AppBar.obj
 0001:0001c3a4       __unwindfunclet$?knobsOff@CAppSwitch@@QAEXXZ$0 0041d3a4 f   AppBar.obj
 0001:0001c3ad       __ehhandler$?ws@global@@SAHXZ 0041d3ad f   AppBar.obj
 0001:0001c3ad       __ehhandler$?knobsOff@CAppSwitch@@QAEXXZ 0041d3ad f   AppBar.obj
 0001:0001c3c8       __unwindfunclet$??0CAppItem@@QAE@VQString@@0000@Z$0 0041d3c8 f   AppItem.obj
 0001:0001c3d1       __unwindfunclet$??0CAppItem@@QAE@VQString@@0000@Z$1 0041d3d1 f   AppItem.obj
 0001:0001c3da       __unwindfunclet$??0CAppItem@@QAE@VQString@@0000@Z$2 0041d3da f   AppItem.obj
 0001:0001c3e3       __unwindfunclet$??0CAppItem@@QAE@VQString@@0000@Z$3 0041d3e3 f   AppItem.obj
 0001:0001c3ec       __unwindfunclet$??0CAppItem@@QAE@VQString@@0000@Z$4 0041d3ec f   AppItem.obj
 0001:0001c3f5       __unwindfunclet$??0CAppItem@@QAE@VQString@@0000@Z$5 0041d3f5 f   AppItem.obj
 0001:0001c401       __unwindfunclet$??0CAppItem@@QAE@VQString@@0000@Z$6 0041d401 f   AppItem.obj
 0001:0001c40d       __unwindfunclet$??0CAppItem@@QAE@VQString@@0000@Z$7 0041d40d f   AppItem.obj
 0001:0001c419       __unwindfunclet$??0CAppItem@@QAE@VQString@@0000@Z$8 0041d419 f   AppItem.obj
 0001:0001c425       __unwindfunclet$??0CAppItem@@QAE@VQString@@0000@Z$9 0041d425 f   AppItem.obj
 0001:0001c431       __ehhandler$??0CAppItem@@QAE@VQString@@0000@Z 0041d431 f   AppItem.obj
 0001:0001c44c       __unwindfunclet$??1CAppItem@@UAE@XZ$0 0041d44c f   AppItem.obj
 0001:0001c458       __unwindfunclet$??1CAppItem@@UAE@XZ$1 0041d458 f   AppItem.obj
 0001:0001c464       __unwindfunclet$??1CAppItem@@UAE@XZ$2 0041d464 f   AppItem.obj
 0001:0001c470       __unwindfunclet$??1CAppItem@@UAE@XZ$3 0041d470 f   AppItem.obj
 0001:0001c47c       __unwindfunclet$??1CAppItem@@UAE@XZ$4 0041d47c f   AppItem.obj
 0001:0001c488       __ehhandler$??1CAppItem@@UAE@XZ 0041d488 f   AppItem.obj
 0001:0001c4a3       __unwindfunclet$??0?$QDict@VQWidget@@@@QAE@H_N@Z$0 0041d4a3 f   AppSwitch.obj
 0001:0001c4a3       __unwindfunclet$??1?$QDict@VCExtProcess@@@@UAE@XZ$0 0041d4a3 f   AppSwitch.obj
 0001:0001c4a3       __unwindfunclet$??1?$QDict@VQWidget@@@@UAE@XZ$0 0041d4a3 f   AppSwitch.obj
 0001:0001c4a3       __unwindfunclet$??0?$QDict@VCAppItem@@@@QAE@H_N@Z$0 0041d4a3 f   AppSwitch.obj
 0001:0001c4a3       __unwindfunclet$??1?$QDict@VCAppItem@@@@UAE@XZ$0 0041d4a3 f   AppSwitch.obj
 0001:0001c4a3       __unwindfunclet$??0?$QDict@VCExtProcess@@@@QAE@H_N@Z$0 0041d4a3 f   AppSwitch.obj
 0001:0001c4ac       __ehhandler$??0?$QDict@VQWidget@@@@QAE@H_N@Z 0041d4ac f   AppSwitch.obj
 0001:0001c4ac       __ehhandler$??1?$QDict@VCAppItem@@@@UAE@XZ 0041d4ac f   AppSwitch.obj
 0001:0001c4ac       __ehhandler$??0?$QDict@VCExtProcess@@@@QAE@H_N@Z 0041d4ac f   AppSwitch.obj
 0001:0001c4ac       __ehhandler$??0?$QDict@VCAppItem@@@@QAE@H_N@Z 0041d4ac f   AppSwitch.obj
 0001:0001c4ac       __ehhandler$??1?$QDict@VQWidget@@@@UAE@XZ 0041d4ac f   AppSwitch.obj
 0001:0001c4ac       __ehhandler$??1?$QDict@VCExtProcess@@@@UAE@XZ 0041d4ac f   AppSwitch.obj
 0001:0001c4c7       __unwindfunclet$??0CAppSwitch@@QAE@PAVQWidget@@@Z$0 0041d4c7 f   AppSwitch.obj
 0001:0001c4d0       __unwindfunclet$??0CAppSwitch@@QAE@PAVQWidget@@@Z$1 0041d4d0 f   AppSwitch.obj
 0001:0001c4db       __unwindfunclet$??0CAppSwitch@@QAE@PAVQWidget@@@Z$2 0041d4db f   AppSwitch.obj
 0001:0001c4e7       __unwindfunclet$??0CAppSwitch@@QAE@PAVQWidget@@@Z$3 0041d4e7 f   AppSwitch.obj
 0001:0001c4f3       __unwindfunclet$??0CAppSwitch@@QAE@PAVQWidget@@@Z$4 0041d4f3 f   AppSwitch.obj
 0001:0001c4ff       __unwindfunclet$??0CAppSwitch@@QAE@PAVQWidget@@@Z$5 0041d4ff f   AppSwitch.obj
 0001:0001c50b       __unwindfunclet$??0CAppSwitch@@QAE@PAVQWidget@@@Z$6 0041d50b f   AppSwitch.obj
 0001:0001c517       __unwindfunclet$??0CAppSwitch@@QAE@PAVQWidget@@@Z$7 0041d517 f   AppSwitch.obj
 0001:0001c520       __ehhandler$??0CAppSwitch@@QAE@PAVQWidget@@@Z 0041d520 f   AppSwitch.obj
 0001:0001c53b       __unwindfunclet$??1?$QDictIterator@VQWidget@@@@QAE@XZ$0 0041d53b f   AppSwitch.obj
 0001:0001c53b       __unwindfunclet$??1?$QDictIterator@VCExtProcess@@@@QAE@XZ$0 0041d53b f   AppSwitch.obj
 0001:0001c544       __ehhandler$??1?$QDictIterator@VQWidget@@@@QAE@XZ 0041d544 f   AppSwitch.obj
 0001:0001c544       __ehhandler$??1?$QDictIterator@VCExtProcess@@@@QAE@XZ 0041d544 f   AppSwitch.obj
 0001:0001c55f       __unwindfunclet$??1CAppSwitch@@UAE@XZ$0 0041d55f f   AppSwitch.obj
 0001:0001c568       __unwindfunclet$??1CAppSwitch@@UAE@XZ$1 0041d568 f   AppSwitch.obj
 0001:0001c573       __unwindfunclet$??1CAppSwitch@@UAE@XZ$2 0041d573 f   AppSwitch.obj
 0001:0001c57f       __unwindfunclet$??1CAppSwitch@@UAE@XZ$3 0041d57f f   AppSwitch.obj
 0001:0001c58b       __unwindfunclet$??1CAppSwitch@@UAE@XZ$4 0041d58b f   AppSwitch.obj
 0001:0001c597       __unwindfunclet$??1CAppSwitch@@UAE@XZ$5 0041d597 f   AppSwitch.obj
 0001:0001c5a3       __unwindfunclet$??1CAppSwitch@@UAE@XZ$6 0041d5a3 f   AppSwitch.obj
 0001:0001c5af       __ehhandler$??1CAppSwitch@@UAE@XZ 0041d5af f   AppSwitch.obj
 0001:0001c5ca       __unwindfunclet$?appExitNotify@CAppSwitch@@QAEXXZ$4 0041d5ca f   AppSwitch.obj
 0001:0001c5d3       __unwindfunclet$?appExitNotify@CAppSwitch@@QAEXXZ$0 0041d5d3 f   AppSwitch.obj
 0001:0001c5db       __unwindfunclet$?appExitNotify@CAppSwitch@@QAEXXZ$1 0041d5db f   AppSwitch.obj
 0001:0001c5e4       __unwindfunclet$?appExitNotify@CAppSwitch@@QAEXXZ$2 0041d5e4 f   AppSwitch.obj
 0001:0001c5ed       __unwindfunclet$?appExitNotify@CAppSwitch@@QAEXXZ$3 0041d5ed f   AppSwitch.obj
 0001:0001c5f6       __unwindfunclet$?appExitNotify@CAppSwitch@@QAEXXZ$5 0041d5f6 f   AppSwitch.obj
 0001:0001c5ff       __ehhandler$?appExitNotify@CAppSwitch@@QAEXXZ 0041d5ff f   AppSwitch.obj
 0001:0001c61a       __unwindfunclet$?defaultTitle@CPanelMan@@SA?AVQString@@XZ$0 0041d61a f   AppSwitch.obj
 0001:0001c61a       __unwindfunclet$?currentKey@?$QDictIterator@VCExtProcess@@@@QBE?AVQString@@XZ$0 0041d61a f   AppSwitch.obj
 0001:0001c61a       __unwindfunclet$?currentKey@?$QDictIterator@VQWidget@@@@QBE?AVQString@@XZ$0 0041d61a f   AppSwitch.obj
 0001:0001c634       __ehhandler$?defaultTitle@CPanelMan@@SA?AVQString@@XZ 0041d634 f   AppSwitch.obj
 0001:0001c634       __ehhandler$?currentKey@?$QDictIterator@VQWidget@@@@QBE?AVQString@@XZ 0041d634 f   AppSwitch.obj
 0001:0001c634       __ehhandler$?currentKey@?$QDictIterator@VCExtProcess@@@@QBE?AVQString@@XZ 0041d634 f   AppSwitch.obj
 0001:0001c64f       __unwindfunclet$?execApp@CAppSwitch@@QAE_NVQString@@00_N@Z$0 0041d64f f   AppSwitch.obj
 0001:0001c658       __unwindfunclet$?execApp@CAppSwitch@@QAE_NVQString@@00_N@Z$1 0041d658 f   AppSwitch.obj
 0001:0001c661       __unwindfunclet$?execApp@CAppSwitch@@QAE_NVQString@@00_N@Z$2 0041d661 f   AppSwitch.obj
 0001:0001c66a       __unwindfunclet$?execApp@CAppSwitch@@QAE_NVQString@@00_N@Z$3 0041d66a f   AppSwitch.obj
 0001:0001c673       __unwindfunclet$?execApp@CAppSwitch@@QAE_NVQString@@00_N@Z$4 0041d673 f   AppSwitch.obj
 0001:0001c67c       __unwindfunclet$?execApp@CAppSwitch@@QAE_NVQString@@00_N@Z$5 0041d67c f   AppSwitch.obj
 0001:0001c685       __unwindfunclet$?execApp@CAppSwitch@@QAE_NVQString@@00_N@Z$6 0041d685 f   AppSwitch.obj
 0001:0001c68e       __unwindfunclet$?execApp@CAppSwitch@@QAE_NVQString@@00_N@Z$7 0041d68e f   AppSwitch.obj
 0001:0001c697       __unwindfunclet$?execApp@CAppSwitch@@QAE_NVQString@@00_N@Z$8 0041d697 f   AppSwitch.obj
 0001:0001c6a3       __unwindfunclet$?execApp@CAppSwitch@@QAE_NVQString@@00_N@Z$9 0041d6a3 f   AppSwitch.obj
 0001:0001c6ac       __unwindfunclet$?execApp@CAppSwitch@@QAE_NVQString@@00_N@Z$10 0041d6ac f   AppSwitch.obj
 0001:0001c6b5       __unwindfunclet$?execApp@CAppSwitch@@QAE_NVQString@@00_N@Z$11 0041d6b5 f   AppSwitch.obj
 0001:0001c6be       __unwindfunclet$?execApp@CAppSwitch@@QAE_NVQString@@00_N@Z$12 0041d6be f   AppSwitch.obj
 0001:0001c6c7       __unwindfunclet$?execApp@CAppSwitch@@QAE_NVQString@@00_N@Z$13 0041d6c7 f   AppSwitch.obj
 0001:0001c6d0       __unwindfunclet$?execApp@CAppSwitch@@QAE_NVQString@@00_N@Z$14 0041d6d0 f   AppSwitch.obj
 0001:0001c6d9       __unwindfunclet$?execApp@CAppSwitch@@QAE_NVQString@@00_N@Z$15 0041d6d9 f   AppSwitch.obj
 0001:0001c6e2       __unwindfunclet$?execApp@CAppSwitch@@QAE_NVQString@@00_N@Z$16 0041d6e2 f   AppSwitch.obj
 0001:0001c6eb       __unwindfunclet$?execApp@CAppSwitch@@QAE_NVQString@@00_N@Z$17 0041d6eb f   AppSwitch.obj
 0001:0001c6f4       __unwindfunclet$?execApp@CAppSwitch@@QAE_NVQString@@00_N@Z$18 0041d6f4 f   AppSwitch.obj
 0001:0001c6fd       __unwindfunclet$?execApp@CAppSwitch@@QAE_NVQString@@00_N@Z$19 0041d6fd f   AppSwitch.obj
 0001:0001c706       __unwindfunclet$?execApp@CAppSwitch@@QAE_NVQString@@00_N@Z$20 0041d706 f   AppSwitch.obj
 0001:0001c70f       __unwindfunclet$?execApp@CAppSwitch@@QAE_NVQString@@00_N@Z$21 0041d70f f   AppSwitch.obj
 0001:0001c718       __unwindfunclet$?execApp@CAppSwitch@@QAE_NVQString@@00_N@Z$22 0041d718 f   AppSwitch.obj
 0001:0001c721       __unwindfunclet$?execApp@CAppSwitch@@QAE_NVQString@@00_N@Z$23 0041d721 f   AppSwitch.obj
 0001:0001c72a       __unwindfunclet$?execApp@CAppSwitch@@QAE_NVQString@@00_N@Z$24 0041d72a f   AppSwitch.obj
 0001:0001c733       __unwindfunclet$?execApp@CAppSwitch@@QAE_NVQString@@00_N@Z$25 0041d733 f   AppSwitch.obj
 0001:0001c73c       __unwindfunclet$?execApp@CAppSwitch@@QAE_NVQString@@00_N@Z$26 0041d73c f   AppSwitch.obj
 0001:0001c745       __unwindfunclet$?execApp@CAppSwitch@@QAE_NVQString@@00_N@Z$27 0041d745 f   AppSwitch.obj
 0001:0001c74e       __unwindfunclet$?execApp@CAppSwitch@@QAE_NVQString@@00_N@Z$28 0041d74e f   AppSwitch.obj
 0001:0001c757       __unwindfunclet$?execApp@CAppSwitch@@QAE_NVQString@@00_N@Z$29 0041d757 f   AppSwitch.obj
 0001:0001c760       __unwindfunclet$?execApp@CAppSwitch@@QAE_NVQString@@00_N@Z$30 0041d760 f   AppSwitch.obj
 0001:0001c769       __unwindfunclet$?execApp@CAppSwitch@@QAE_NVQString@@00_N@Z$31 0041d769 f   AppSwitch.obj
 0001:0001c772       __unwindfunclet$?execApp@CAppSwitch@@QAE_NVQString@@00_N@Z$32 0041d772 f   AppSwitch.obj
 0001:0001c77b       __unwindfunclet$?execApp@CAppSwitch@@QAE_NVQString@@00_N@Z$33 0041d77b f   AppSwitch.obj
 0001:0001c784       __unwindfunclet$?execApp@CAppSwitch@@QAE_NVQString@@00_N@Z$34 0041d784 f   AppSwitch.obj
 0001:0001c78d       __unwindfunclet$?execApp@CAppSwitch@@QAE_NVQString@@00_N@Z$35 0041d78d f   AppSwitch.obj
 0001:0001c796       __unwindfunclet$?execApp@CAppSwitch@@QAE_NVQString@@00_N@Z$36 0041d796 f   AppSwitch.obj
 0001:0001c79f       __unwindfunclet$?execApp@CAppSwitch@@QAE_NVQString@@00_N@Z$37 0041d79f f   AppSwitch.obj
 0001:0001c7a8       __unwindfunclet$?execApp@CAppSwitch@@QAE_NVQString@@00_N@Z$38 0041d7a8 f   AppSwitch.obj
 0001:0001c7b1       __unwindfunclet$?execApp@CAppSwitch@@QAE_NVQString@@00_N@Z$39 0041d7b1 f   AppSwitch.obj
 0001:0001c7ba       __unwindfunclet$?execApp@CAppSwitch@@QAE_NVQString@@00_N@Z$40 0041d7ba f   AppSwitch.obj
 0001:0001c7c3       __unwindfunclet$?execApp@CAppSwitch@@QAE_NVQString@@00_N@Z$41 0041d7c3 f   AppSwitch.obj
 0001:0001c7cc       __unwindfunclet$?execApp@CAppSwitch@@QAE_NVQString@@00_N@Z$42 0041d7cc f   AppSwitch.obj
 0001:0001c7d5       __unwindfunclet$?execApp@CAppSwitch@@QAE_NVQString@@00_N@Z$43 0041d7d5 f   AppSwitch.obj
 0001:0001c7de       __unwindfunclet$?execApp@CAppSwitch@@QAE_NVQString@@00_N@Z$44 0041d7de f   AppSwitch.obj
 0001:0001c7e7       __unwindfunclet$?execApp@CAppSwitch@@QAE_NVQString@@00_N@Z$45 0041d7e7 f   AppSwitch.obj
 0001:0001c7f0       __unwindfunclet$?execApp@CAppSwitch@@QAE_NVQString@@00_N@Z$46 0041d7f0 f   AppSwitch.obj
 0001:0001c7f9       __unwindfunclet$?execApp@CAppSwitch@@QAE_NVQString@@00_N@Z$47 0041d7f9 f   AppSwitch.obj
 0001:0001c802       __unwindfunclet$?execApp@CAppSwitch@@QAE_NVQString@@00_N@Z$48 0041d802 f   AppSwitch.obj
 0001:0001c80b       __unwindfunclet$?execApp@CAppSwitch@@QAE_NVQString@@00_N@Z$49 0041d80b f   AppSwitch.obj
 0001:0001c814       __unwindfunclet$?execApp@CAppSwitch@@QAE_NVQString@@00_N@Z$50 0041d814 f   AppSwitch.obj
 0001:0001c81d       __unwindfunclet$?execApp@CAppSwitch@@QAE_NVQString@@00_N@Z$51 0041d81d f   AppSwitch.obj
 0001:0001c826       __unwindfunclet$?execApp@CAppSwitch@@QAE_NVQString@@00_N@Z$52 0041d826 f   AppSwitch.obj
 0001:0001c82f       __unwindfunclet$?execApp@CAppSwitch@@QAE_NVQString@@00_N@Z$53 0041d82f f   AppSwitch.obj
 0001:0001c838       __unwindfunclet$?execApp@CAppSwitch@@QAE_NVQString@@00_N@Z$54 0041d838 f   AppSwitch.obj
 0001:0001c841       __unwindfunclet$?execApp@CAppSwitch@@QAE_NVQString@@00_N@Z$55 0041d841 f   AppSwitch.obj
 0001:0001c84a       __unwindfunclet$?execApp@CAppSwitch@@QAE_NVQString@@00_N@Z$56 0041d84a f   AppSwitch.obj
 0001:0001c853       __unwindfunclet$?execApp@CAppSwitch@@QAE_NVQString@@00_N@Z$57 0041d853 f   AppSwitch.obj
 0001:0001c85c       __unwindfunclet$?execApp@CAppSwitch@@QAE_NVQString@@00_N@Z$58 0041d85c f   AppSwitch.obj
 0001:0001c865       __unwindfunclet$?execApp@CAppSwitch@@QAE_NVQString@@00_N@Z$59 0041d865 f   AppSwitch.obj
 0001:0001c86e       __unwindfunclet$?execApp@CAppSwitch@@QAE_NVQString@@00_N@Z$60 0041d86e f   AppSwitch.obj
 0001:0001c877       __unwindfunclet$?execApp@CAppSwitch@@QAE_NVQString@@00_N@Z$61 0041d877 f   AppSwitch.obj
 0001:0001c880       __unwindfunclet$?execApp@CAppSwitch@@QAE_NVQString@@00_N@Z$62 0041d880 f   AppSwitch.obj
 0001:0001c889       __unwindfunclet$?execApp@CAppSwitch@@QAE_NVQString@@00_N@Z$63 0041d889 f   AppSwitch.obj
 0001:0001c892       __unwindfunclet$?execApp@CAppSwitch@@QAE_NVQString@@00_N@Z$64 0041d892 f   AppSwitch.obj
 0001:0001c89b       __unwindfunclet$?execApp@CAppSwitch@@QAE_NVQString@@00_N@Z$65 0041d89b f   AppSwitch.obj
 0001:0001c8a4       __unwindfunclet$?execApp@CAppSwitch@@QAE_NVQString@@00_N@Z$66 0041d8a4 f   AppSwitch.obj
 0001:0001c8ad       __unwindfunclet$?execApp@CAppSwitch@@QAE_NVQString@@00_N@Z$67 0041d8ad f   AppSwitch.obj
 0001:0001c8b6       __unwindfunclet$?execApp@CAppSwitch@@QAE_NVQString@@00_N@Z$68 0041d8b6 f   AppSwitch.obj
 0001:0001c8bf       __unwindfunclet$?execApp@CAppSwitch@@QAE_NVQString@@00_N@Z$69 0041d8bf f   AppSwitch.obj
 0001:0001c8c8       __unwindfunclet$?execApp@CAppSwitch@@QAE_NVQString@@00_N@Z$70 0041d8c8 f   AppSwitch.obj
 0001:0001c8d1       __unwindfunclet$?execApp@CAppSwitch@@QAE_NVQString@@00_N@Z$71 0041d8d1 f   AppSwitch.obj
 0001:0001c8da       __unwindfunclet$?execApp@CAppSwitch@@QAE_NVQString@@00_N@Z$72 0041d8da f   AppSwitch.obj
 0001:0001c8e3       __unwindfunclet$?execApp@CAppSwitch@@QAE_NVQString@@00_N@Z$73 0041d8e3 f   AppSwitch.obj
 0001:0001c8ec       __unwindfunclet$?execApp@CAppSwitch@@QAE_NVQString@@00_N@Z$74 0041d8ec f   AppSwitch.obj
 0001:0001c8f5       __unwindfunclet$?execApp@CAppSwitch@@QAE_NVQString@@00_N@Z$75 0041d8f5 f   AppSwitch.obj
 0001:0001c8fe       __unwindfunclet$?execApp@CAppSwitch@@QAE_NVQString@@00_N@Z$76 0041d8fe f   AppSwitch.obj
 0001:0001c907       __unwindfunclet$?execApp@CAppSwitch@@QAE_NVQString@@00_N@Z$77 0041d907 f   AppSwitch.obj
 0001:0001c910       __unwindfunclet$?execApp@CAppSwitch@@QAE_NVQString@@00_N@Z$78 0041d910 f   AppSwitch.obj
 0001:0001c919       __unwindfunclet$?execApp@CAppSwitch@@QAE_NVQString@@00_N@Z$79 0041d919 f   AppSwitch.obj
 0001:0001c922       __unwindfunclet$?execApp@CAppSwitch@@QAE_NVQString@@00_N@Z$80 0041d922 f   AppSwitch.obj
 0001:0001c92b       __unwindfunclet$?execApp@CAppSwitch@@QAE_NVQString@@00_N@Z$81 0041d92b f   AppSwitch.obj
 0001:0001c934       __unwindfunclet$?execApp@CAppSwitch@@QAE_NVQString@@00_N@Z$82 0041d934 f   AppSwitch.obj
 0001:0001c93d       __unwindfunclet$?execApp@CAppSwitch@@QAE_NVQString@@00_N@Z$83 0041d93d f   AppSwitch.obj
 0001:0001c946       __unwindfunclet$?execApp@CAppSwitch@@QAE_NVQString@@00_N@Z$84 0041d946 f   AppSwitch.obj
 0001:0001c94f       __unwindfunclet$?execApp@CAppSwitch@@QAE_NVQString@@00_N@Z$85 0041d94f f   AppSwitch.obj
 0001:0001c958       __unwindfunclet$?execApp@CAppSwitch@@QAE_NVQString@@00_N@Z$86 0041d958 f   AppSwitch.obj
 0001:0001c961       __unwindfunclet$?execApp@CAppSwitch@@QAE_NVQString@@00_N@Z$87 0041d961 f   AppSwitch.obj
 0001:0001c96a       __unwindfunclet$?execApp@CAppSwitch@@QAE_NVQString@@00_N@Z$88 0041d96a f   AppSwitch.obj
 0001:0001c973       __unwindfunclet$?execApp@CAppSwitch@@QAE_NVQString@@00_N@Z$89 0041d973 f   AppSwitch.obj
 0001:0001c97c       __unwindfunclet$?execApp@CAppSwitch@@QAE_NVQString@@00_N@Z$90 0041d97c f   AppSwitch.obj
 0001:0001c985       __unwindfunclet$?execApp@CAppSwitch@@QAE_NVQString@@00_N@Z$91 0041d985 f   AppSwitch.obj
 0001:0001c98e       __unwindfunclet$?execApp@CAppSwitch@@QAE_NVQString@@00_N@Z$92 0041d98e f   AppSwitch.obj
 0001:0001c997       __unwindfunclet$?execApp@CAppSwitch@@QAE_NVQString@@00_N@Z$93 0041d997 f   AppSwitch.obj
 0001:0001c9a0       __unwindfunclet$?execApp@CAppSwitch@@QAE_NVQString@@00_N@Z$94 0041d9a0 f   AppSwitch.obj
 0001:0001c9a9       __unwindfunclet$?execApp@CAppSwitch@@QAE_NVQString@@00_N@Z$95 0041d9a9 f   AppSwitch.obj
 0001:0001c9b2       __unwindfunclet$?execApp@CAppSwitch@@QAE_NVQString@@00_N@Z$96 0041d9b2 f   AppSwitch.obj
 0001:0001c9bb       __unwindfunclet$?execApp@CAppSwitch@@QAE_NVQString@@00_N@Z$97 0041d9bb f   AppSwitch.obj
 0001:0001c9c5       __unwindfunclet$?execApp@CAppSwitch@@QAE_NVQString@@00_N@Z$98 0041d9c5 f   AppSwitch.obj
 0001:0001c9ce       __unwindfunclet$?execApp@CAppSwitch@@QAE_NVQString@@00_N@Z$99 0041d9ce f   AppSwitch.obj
 0001:0001c9d7       __unwindfunclet$?execApp@CAppSwitch@@QAE_NVQString@@00_N@Z$100 0041d9d7 f   AppSwitch.obj
 0001:0001c9e0       __unwindfunclet$?execApp@CAppSwitch@@QAE_NVQString@@00_N@Z$101 0041d9e0 f   AppSwitch.obj
 0001:0001c9e9       __unwindfunclet$?execApp@CAppSwitch@@QAE_NVQString@@00_N@Z$102 0041d9e9 f   AppSwitch.obj
 0001:0001c9f2       __unwindfunclet$?execApp@CAppSwitch@@QAE_NVQString@@00_N@Z$103 0041d9f2 f   AppSwitch.obj
 0001:0001c9fb       __unwindfunclet$?execApp@CAppSwitch@@QAE_NVQString@@00_N@Z$104 0041d9fb f   AppSwitch.obj
 0001:0001ca04       __unwindfunclet$?execApp@CAppSwitch@@QAE_NVQString@@00_N@Z$105 0041da04 f   AppSwitch.obj
 0001:0001ca0d       __unwindfunclet$?execApp@CAppSwitch@@QAE_NVQString@@00_N@Z$106 0041da0d f   AppSwitch.obj
 0001:0001ca16       __unwindfunclet$?execApp@CAppSwitch@@QAE_NVQString@@00_N@Z$107 0041da16 f   AppSwitch.obj
 0001:0001ca1f       __unwindfunclet$?execApp@CAppSwitch@@QAE_NVQString@@00_N@Z$108 0041da1f f   AppSwitch.obj
 0001:0001ca28       __ehhandler$?execApp@CAppSwitch@@QAE_NVQString@@00_N@Z 0041da28 f   AppSwitch.obj
 0001:0001ca46       __unwindfunclet$?knobsOn@CAppSwitch@@QAEXXZ$0 0041da46 f   AppSwitch.obj
 0001:0001ca4f       __unwindfunclet$?knobsOn@CAppSwitch@@QAEXXZ$1 0041da4f f   AppSwitch.obj
 0001:0001ca58       __unwindfunclet$?knobsOn@CAppSwitch@@QAEXXZ$2 0041da58 f   AppSwitch.obj
 0001:0001ca61       __unwindfunclet$?knobsOn@CAppSwitch@@QAEXXZ$3 0041da61 f   AppSwitch.obj
 0001:0001ca6a       __unwindfunclet$?knobsOn@CAppSwitch@@QAEXXZ$4 0041da6a f   AppSwitch.obj
 0001:0001ca73       __unwindfunclet$?knobsOn@CAppSwitch@@QAEXXZ$5 0041da73 f   AppSwitch.obj
 0001:0001ca7c       __ehhandler$?knobsOn@CAppSwitch@@QAEXXZ 0041da7c f   AppSwitch.obj
 0001:0001ca97       __unwindfunclet$?terminateApps@CAppSwitch@@QAEXXZ$1 0041da97 f   AppSwitch.obj
 0001:0001caa0       __unwindfunclet$?terminateApps@CAppSwitch@@QAEXXZ$0 0041daa0 f   AppSwitch.obj
 0001:0001caa8       __unwindfunclet$?terminateApps@CAppSwitch@@QAEXXZ$2 0041daa8 f   AppSwitch.obj
 0001:0001cab1       __ehhandler$?terminateApps@CAppSwitch@@QAEXXZ 0041dab1 f   AppSwitch.obj
 0001:0001cacc       __unwindfunclet$??0CAppView@@QAE@PAVQWidget@@ABVQString@@@Z$0 0041dacc f   AppView.obj
 0001:0001cad5       __unwindfunclet$??0CAppView@@QAE@PAVQWidget@@ABVQString@@@Z$1 0041dad5 f   AppView.obj
 0001:0001cae3       __unwindfunclet$??0CAppView@@QAE@PAVQWidget@@ABVQString@@@Z$8 0041dae3 f   AppView.obj
 0001:0001caec       __unwindfunclet$??0CAppView@@QAE@PAVQWidget@@ABVQString@@@Z$2 0041daec f   AppView.obj
 0001:0001cafb       __unwindfunclet$??0CAppView@@QAE@PAVQWidget@@ABVQString@@@Z$3 0041dafb f   AppView.obj
 0001:0001cb0a       __unwindfunclet$??0CAppView@@QAE@PAVQWidget@@ABVQString@@@Z$4 0041db0a f   AppView.obj
 0001:0001cb13       __unwindfunclet$??0CAppView@@QAE@PAVQWidget@@ABVQString@@@Z$5 0041db13 f   AppView.obj
 0001:0001cb1c       __unwindfunclet$??0CAppView@@QAE@PAVQWidget@@ABVQString@@@Z$6 0041db1c f   AppView.obj
 0001:0001cb25       __unwindfunclet$??0CAppView@@QAE@PAVQWidget@@ABVQString@@@Z$7 0041db25 f   AppView.obj
 0001:0001cb2e       __ehhandler$??0CAppView@@QAE@PAVQWidget@@ABVQString@@@Z 0041db2e f   AppView.obj
 0001:0001cb49       __unwindfunclet$??1CAppView@@UAE@XZ$0 0041db49 f   AppView.obj
 0001:0001cb52       __unwindfunclet$??1CAppView@@UAE@XZ$1 0041db52 f   AppView.obj
 0001:0001cb60       __unwindfunclet$??1CAppView@@UAE@XZ$2 0041db60 f   AppView.obj
 0001:0001cb6f       __unwindfunclet$??1CAppView@@UAE@XZ$3 0041db6f f   AppView.obj
 0001:0001cb7e       __unwindfunclet$??1CAppView@@UAE@XZ$4 0041db7e f   AppView.obj
 0001:0001cb87       __ehhandler$??1CAppView@@UAE@XZ 0041db87 f   AppView.obj
 0001:0001cba2       __unwindfunclet$?clearPanels@CAppView@@QAEXXZ$0 0041dba2 f   AppView.obj
 0001:0001cbab       __unwindfunclet$?clearPanels@CAppView@@QAEXXZ$1 0041dbab f   AppView.obj
 0001:0001cbb4       __unwindfunclet$?clearPanels@CAppView@@QAEXXZ$2 0041dbb4 f   AppView.obj
 0001:0001cbbd       __unwindfunclet$?clearPanels@CAppView@@QAEXXZ$3 0041dbbd f   AppView.obj
 0001:0001cbc6       __unwindfunclet$?clearPanels@CAppView@@QAEXXZ$4 0041dbc6 f   AppView.obj
 0001:0001cbcf       __unwindfunclet$?clearPanels@CAppView@@QAEXXZ$21 0041dbcf f   AppView.obj
 0001:0001cbd8       __unwindfunclet$?clearPanels@CAppView@@QAEXXZ$5 0041dbd8 f   AppView.obj
 0001:0001cbe1       __unwindfunclet$?clearPanels@CAppView@@QAEXXZ$6 0041dbe1 f   AppView.obj
 0001:0001cbea       __unwindfunclet$?clearPanels@CAppView@@QAEXXZ$7 0041dbea f   AppView.obj
 0001:0001cbf3       __unwindfunclet$?clearPanels@CAppView@@QAEXXZ$8 0041dbf3 f   AppView.obj
 0001:0001cbfc       __unwindfunclet$?clearPanels@CAppView@@QAEXXZ$9 0041dbfc f   AppView.obj
 0001:0001cc05       __unwindfunclet$?clearPanels@CAppView@@QAEXXZ$10 0041dc05 f   AppView.obj
 0001:0001cc0e       __unwindfunclet$?clearPanels@CAppView@@QAEXXZ$11 0041dc0e f   AppView.obj
 0001:0001cc17       __unwindfunclet$?clearPanels@CAppView@@QAEXXZ$12 0041dc17 f   AppView.obj
 0001:0001cc20       __unwindfunclet$?clearPanels@CAppView@@QAEXXZ$13 0041dc20 f   AppView.obj
 0001:0001cc29       __unwindfunclet$?clearPanels@CAppView@@QAEXXZ$14 0041dc29 f   AppView.obj
 0001:0001cc32       __unwindfunclet$?clearPanels@CAppView@@QAEXXZ$15 0041dc32 f   AppView.obj
 0001:0001cc3b       __unwindfunclet$?clearPanels@CAppView@@QAEXXZ$16 0041dc3b f   AppView.obj
 0001:0001cc44       __unwindfunclet$?clearPanels@CAppView@@QAEXXZ$17 0041dc44 f   AppView.obj
 0001:0001cc4d       __unwindfunclet$?clearPanels@CAppView@@QAEXXZ$18 0041dc4d f   AppView.obj
 0001:0001cc56       __unwindfunclet$?clearPanels@CAppView@@QAEXXZ$19 0041dc56 f   AppView.obj
 0001:0001cc5f       __unwindfunclet$?clearPanels@CAppView@@QAEXXZ$20 0041dc5f f   AppView.obj
 0001:0001cc68       __unwindfunclet$?clearPanels@CAppView@@QAEXXZ$22 0041dc68 f   AppView.obj
 0001:0001cc71       __unwindfunclet$?clearPanels@CAppView@@QAEXXZ$23 0041dc71 f   AppView.obj
 0001:0001cc7a       __ehhandler$?clearPanels@CAppView@@QAEXXZ 0041dc7a f   AppView.obj
 0001:0001cc95       __unwindfunclet$?deleteOldestPanel@CAppView@@AAEXXZ$3 0041dc95 f   AppView.obj
 0001:0001cc9e       __unwindfunclet$?deleteOldestPanel@CAppView@@AAEXXZ$0 0041dc9e f   AppView.obj
 0001:0001cca6       __unwindfunclet$?deleteOldestPanel@CAppView@@AAEXXZ$1 0041dca6 f   AppView.obj
 0001:0001ccaf       __unwindfunclet$?deleteOldestPanel@CAppView@@AAEXXZ$2 0041dcaf f   AppView.obj
 0001:0001ccb8       __unwindfunclet$?deleteOldestPanel@CAppView@@AAEXXZ$4 0041dcb8 f   AppView.obj
 0001:0001ccc1       __ehhandler$?deleteOldestPanel@CAppView@@AAEXXZ 0041dcc1 f   AppView.obj
 0001:0001ccdc       __unwindfunclet$?showView@CAppView@@QAE_NVQString@@0_N@Z$0 0041dcdc f   AppView.obj
 0001:0001cce5       __unwindfunclet$?showView@CAppView@@QAE_NVQString@@0_N@Z$1 0041dce5 f   AppView.obj
 0001:0001ccee       __unwindfunclet$?showView@CAppView@@QAE_NVQString@@0_N@Z$2 0041dcee f   AppView.obj
 0001:0001ccf8       __unwindfunclet$?showView@CAppView@@QAE_NVQString@@0_N@Z$3 0041dcf8 f   AppView.obj
 0001:0001cd01       __unwindfunclet$?showView@CAppView@@QAE_NVQString@@0_N@Z$4 0041dd01 f   AppView.obj
 0001:0001cd0a       __unwindfunclet$?showView@CAppView@@QAE_NVQString@@0_N@Z$5 0041dd0a f   AppView.obj
 0001:0001cd13       __unwindfunclet$?showView@CAppView@@QAE_NVQString@@0_N@Z$6 0041dd13 f   AppView.obj
 0001:0001cd1c       __unwindfunclet$?showView@CAppView@@QAE_NVQString@@0_N@Z$7 0041dd1c f   AppView.obj
 0001:0001cd25       __unwindfunclet$?showView@CAppView@@QAE_NVQString@@0_N@Z$8 0041dd25 f   AppView.obj
 0001:0001cd2e       __unwindfunclet$?showView@CAppView@@QAE_NVQString@@0_N@Z$9 0041dd2e f   AppView.obj
 0001:0001cd37       __unwindfunclet$?showView@CAppView@@QAE_NVQString@@0_N@Z$10 0041dd37 f   AppView.obj
 0001:0001cd40       __unwindfunclet$?showView@CAppView@@QAE_NVQString@@0_N@Z$11 0041dd40 f   AppView.obj
 0001:0001cd49       __unwindfunclet$?showView@CAppView@@QAE_NVQString@@0_N@Z$12 0041dd49 f   AppView.obj
 0001:0001cd52       __unwindfunclet$?showView@CAppView@@QAE_NVQString@@0_N@Z$13 0041dd52 f   AppView.obj
 0001:0001cd5b       __unwindfunclet$?showView@CAppView@@QAE_NVQString@@0_N@Z$14 0041dd5b f   AppView.obj
 0001:0001cd64       __unwindfunclet$?showView@CAppView@@QAE_NVQString@@0_N@Z$15 0041dd64 f   AppView.obj
 0001:0001cd6d       __unwindfunclet$?showView@CAppView@@QAE_NVQString@@0_N@Z$16 0041dd6d f   AppView.obj
 0001:0001cd76       __unwindfunclet$?showView@CAppView@@QAE_NVQString@@0_N@Z$17 0041dd76 f   AppView.obj
 0001:0001cd7f       __unwindfunclet$?showView@CAppView@@QAE_NVQString@@0_N@Z$18 0041dd7f f   AppView.obj
 0001:0001cd88       __unwindfunclet$?showView@CAppView@@QAE_NVQString@@0_N@Z$19 0041dd88 f   AppView.obj
 0001:0001cd91       __unwindfunclet$?showView@CAppView@@QAE_NVQString@@0_N@Z$20 0041dd91 f   AppView.obj
 0001:0001cd9a       __unwindfunclet$?showView@CAppView@@QAE_NVQString@@0_N@Z$21 0041dd9a f   AppView.obj
 0001:0001cda3       __unwindfunclet$?showView@CAppView@@QAE_NVQString@@0_N@Z$22 0041dda3 f   AppView.obj
 0001:0001cdac       __unwindfunclet$?showView@CAppView@@QAE_NVQString@@0_N@Z$23 0041ddac f   AppView.obj
 0001:0001cdb5       __unwindfunclet$?showView@CAppView@@QAE_NVQString@@0_N@Z$24 0041ddb5 f   AppView.obj
 0001:0001cdbe       __unwindfunclet$?showView@CAppView@@QAE_NVQString@@0_N@Z$25 0041ddbe f   AppView.obj
 0001:0001cdca       __unwindfunclet$?showView@CAppView@@QAE_NVQString@@0_N@Z$26 0041ddca f   AppView.obj
 0001:0001cdd3       __unwindfunclet$?showView@CAppView@@QAE_NVQString@@0_N@Z$27 0041ddd3 f   AppView.obj
 0001:0001cddc       __unwindfunclet$?showView@CAppView@@QAE_NVQString@@0_N@Z$28 0041dddc f   AppView.obj
 0001:0001cde5       __unwindfunclet$?showView@CAppView@@QAE_NVQString@@0_N@Z$29 0041dde5 f   AppView.obj
 0001:0001cdee       __unwindfunclet$?showView@CAppView@@QAE_NVQString@@0_N@Z$30 0041ddee f   AppView.obj
 0001:0001cdf7       __unwindfunclet$?showView@CAppView@@QAE_NVQString@@0_N@Z$31 0041ddf7 f   AppView.obj
 0001:0001ce00       __unwindfunclet$?showView@CAppView@@QAE_NVQString@@0_N@Z$32 0041de00 f   AppView.obj
 0001:0001ce09       __unwindfunclet$?showView@CAppView@@QAE_NVQString@@0_N@Z$33 0041de09 f   AppView.obj
 0001:0001ce12       __unwindfunclet$?showView@CAppView@@QAE_NVQString@@0_N@Z$34 0041de12 f   AppView.obj
 0001:0001ce1b       __unwindfunclet$?showView@CAppView@@QAE_NVQString@@0_N@Z$35 0041de1b f   AppView.obj
 0001:0001ce24       __unwindfunclet$?showView@CAppView@@QAE_NVQString@@0_N@Z$36 0041de24 f   AppView.obj
 0001:0001ce2d       __unwindfunclet$?showView@CAppView@@QAE_NVQString@@0_N@Z$37 0041de2d f   AppView.obj
 0001:0001ce36       __unwindfunclet$?showView@CAppView@@QAE_NVQString@@0_N@Z$38 0041de36 f   AppView.obj
 0001:0001ce3f       __unwindfunclet$?showView@CAppView@@QAE_NVQString@@0_N@Z$39 0041de3f f   AppView.obj
 0001:0001ce48       __unwindfunclet$?showView@CAppView@@QAE_NVQString@@0_N@Z$40 0041de48 f   AppView.obj
 0001:0001ce51       __unwindfunclet$?showView@CAppView@@QAE_NVQString@@0_N@Z$41 0041de51 f   AppView.obj
 0001:0001ce5a       __unwindfunclet$?showView@CAppView@@QAE_NVQString@@0_N@Z$42 0041de5a f   AppView.obj
 0001:0001ce63       __unwindfunclet$?showView@CAppView@@QAE_NVQString@@0_N@Z$43 0041de63 f   AppView.obj
 0001:0001ce6c       __unwindfunclet$?showView@CAppView@@QAE_NVQString@@0_N@Z$44 0041de6c f   AppView.obj
 0001:0001ce75       __unwindfunclet$?showView@CAppView@@QAE_NVQString@@0_N@Z$45 0041de75 f   AppView.obj
 0001:0001ce7e       __unwindfunclet$?showView@CAppView@@QAE_NVQString@@0_N@Z$46 0041de7e f   AppView.obj
 0001:0001ce87       __unwindfunclet$?showView@CAppView@@QAE_NVQString@@0_N@Z$47 0041de87 f   AppView.obj
 0001:0001ce90       __unwindfunclet$?showView@CAppView@@QAE_NVQString@@0_N@Z$48 0041de90 f   AppView.obj
 0001:0001ce9b       __unwindfunclet$?showView@CAppView@@QAE_NVQString@@0_N@Z$49 0041de9b f   AppView.obj
 0001:0001cea6       __unwindfunclet$?showView@CAppView@@QAE_NVQString@@0_N@Z$50 0041dea6 f   AppView.obj
 0001:0001ceaf       __unwindfunclet$?showView@CAppView@@QAE_NVQString@@0_N@Z$51 0041deaf f   AppView.obj
 0001:0001ceb8       __unwindfunclet$?showView@CAppView@@QAE_NVQString@@0_N@Z$52 0041deb8 f   AppView.obj
 0001:0001cec1       __unwindfunclet$?showView@CAppView@@QAE_NVQString@@0_N@Z$53 0041dec1 f   AppView.obj
 0001:0001ceca       __unwindfunclet$?showView@CAppView@@QAE_NVQString@@0_N@Z$54 0041deca f   AppView.obj
 0001:0001ced3       __unwindfunclet$?showView@CAppView@@QAE_NVQString@@0_N@Z$55 0041ded3 f   AppView.obj
 0001:0001cedc       __unwindfunclet$?showView@CAppView@@QAE_NVQString@@0_N@Z$56 0041dedc f   AppView.obj
 0001:0001cee5       __unwindfunclet$?showView@CAppView@@QAE_NVQString@@0_N@Z$57 0041dee5 f   AppView.obj
 0001:0001ceee       __unwindfunclet$?showView@CAppView@@QAE_NVQString@@0_N@Z$64 0041deee f   AppView.obj
 0001:0001cef7       __unwindfunclet$?showView@CAppView@@QAE_NVQString@@0_N@Z$65 0041def7 f   AppView.obj
 0001:0001cf00       __unwindfunclet$?showView@CAppView@@QAE_NVQString@@0_N@Z$66 0041df00 f   AppView.obj
 0001:0001cf09       __unwindfunclet$?showView@CAppView@@QAE_NVQString@@0_N@Z$58 0041df09 f   AppView.obj
 0001:0001cf12       __unwindfunclet$?showView@CAppView@@QAE_NVQString@@0_N@Z$59 0041df12 f   AppView.obj
 0001:0001cf1b       __unwindfunclet$?showView@CAppView@@QAE_NVQString@@0_N@Z$60 0041df1b f   AppView.obj
 0001:0001cf24       __unwindfunclet$?showView@CAppView@@QAE_NVQString@@0_N@Z$61 0041df24 f   AppView.obj
 0001:0001cf2d       __unwindfunclet$?showView@CAppView@@QAE_NVQString@@0_N@Z$62 0041df2d f   AppView.obj
 0001:0001cf36       __unwindfunclet$?showView@CAppView@@QAE_NVQString@@0_N@Z$63 0041df36 f   AppView.obj
 0001:0001cf3f       __ehhandler$?showView@CAppView@@QAE_NVQString@@0_N@Z 0041df3f f   AppView.obj
 0001:0001cf5d       __unwindfunclet$??0bncs_mcComms@@QAE@W4mcCommsType@0@@Z$0 0041df5d f   bncs_mcComms.obj
 0001:0001cf67       __unwindfunclet$??0bncs_mcComms@@QAE@W4mcCommsType@0@@Z$2 0041df67 f   bncs_mcComms.obj
 0001:0001cf70       __unwindfunclet$??0bncs_mcComms@@QAE@W4mcCommsType@0@@Z$1 0041df70 f   bncs_mcComms.obj
 0001:0001cf79       __ehhandler$??0bncs_mcComms@@QAE@W4mcCommsType@0@@Z 0041df79 f   bncs_mcComms.obj
 0001:0001cf94       __unwindfunclet$??0bncs_multicast@@QAE@XZ$0 0041df94 f   bncs_multicast.obj
 0001:0001cf94       __unwindfunclet$??1bncs_multicast@@UAE@XZ$0 0041df94 f   bncs_multicast.obj
 0001:0001cf9d       __unwindfunclet$??0bncs_multicast@@QAE@XZ$1 0041df9d f   bncs_multicast.obj
 0001:0001cf9d       __unwindfunclet$??1bncs_multicast@@UAE@XZ$1 0041df9d f   bncs_multicast.obj
 0001:0001cfa9       __unwindfunclet$??1bncs_multicast@@UAE@XZ$2 0041dfa9 f   bncs_multicast.obj
 0001:0001cfa9       __unwindfunclet$??0bncs_multicast@@QAE@XZ$2 0041dfa9 f   bncs_multicast.obj
 0001:0001cfb5       __ehhandler$??1bncs_multicast@@UAE@XZ 0041dfb5 f   bncs_multicast.obj
 0001:0001cfb5       __ehhandler$??0bncs_multicast@@QAE@XZ 0041dfb5 f   bncs_multicast.obj
 0001:0001cfd0       __unwindfunclet$?enableRx@bncs_multicast@@QAE_N_N@Z$0 0041dfd0 f   bncs_multicast.obj
 0001:0001cfd9       __unwindfunclet$?enableRx@bncs_multicast@@QAE_N_N@Z$1 0041dfd9 f   bncs_multicast.obj
 0001:0001cfe3       __ehhandler$?enableRx@bncs_multicast@@QAE_N_N@Z 0041dfe3 f   bncs_multicast.obj
 0001:0001cffe       __unwindfunclet$?rx@bncs_multicast@@UAEXPBDH@Z$0 0041dffe f   bncs_multicast.obj
 0001:0001d007       __unwindfunclet$?rx@bncs_multicast@@UAEXPBDH@Z$1 0041e007 f   bncs_multicast.obj
 0001:0001d010       __ehhandler$?rx@bncs_multicast@@UAEXPBDH@Z 0041e010 f   bncs_multicast.obj
 0001:0001d02b       __unwindfunclet$?setMulticastParams@bncs_multicast@@QAEXABVQString@@H0@Z$0 0041e02b f   bncs_multicast.obj
 0001:0001d034       __unwindfunclet$?setMulticastParams@bncs_multicast@@QAEXABVQString@@H0@Z$1 0041e034 f   bncs_multicast.obj
 0001:0001d03e       __ehhandler$?setMulticastParams@bncs_multicast@@QAEXABVQString@@H0@Z 0041e03e f   bncs_multicast.obj
 0001:0001d059       __unwindfunclet$??1bncs_popup@@UAE@XZ$0 0041e059 f   bncs_popup.obj
 0001:0001d059       __unwindfunclet$??0bncs_popup@@QAE@PAVQWidget@@0@Z$0 0041e059 f   bncs_popup.obj
 0001:0001d062       __ehhandler$??1bncs_popup@@UAE@XZ 0041e062 f   bncs_popup.obj
 0001:0001d062       __ehhandler$??0bncs_popup@@QAE@PAVQWidget@@0@Z 0041e062 f   bncs_popup.obj
 0001:0001d07d       __unwindfunclet$??0CClient@@QAE@PAVQWidget@@@Z$0 0041e07d f   Client.obj
 0001:0001d086       __unwindfunclet$??0CClient@@QAE@PAVQWidget@@@Z$1 0041e086 f   Client.obj
 0001:0001d08f       __ehhandler$??0CClient@@QAE@PAVQWidget@@@Z 0041e08f f   Client.obj
 0001:0001d0aa       __unwindfunclet$??1CSimpleBar@@UAE@XZ$0 0041e0aa f   Client.obj
 0001:0001d0aa       __unwindfunclet$??0CSimpleBar@@QAE@PAVQWidget@@@Z$0 0041e0aa f   Client.obj
 0001:0001d0aa       __unwindfunclet$??1CClient@@UAE@XZ$0 0041e0aa f   Client.obj
 0001:0001d0aa       __unwindfunclet$??1wait@@UAE@XZ$0 0041e0aa f   Client.obj
 0001:0001d0b3       __ehhandler$??1CClient@@UAE@XZ 0041e0b3 f   Client.obj
 0001:0001d0b3       __ehhandler$??1CSimpleBar@@UAE@XZ 0041e0b3 f   Client.obj
 0001:0001d0b3       __ehhandler$??1wait@@UAE@XZ 0041e0b3 f   Client.obj
 0001:0001d0b3       __ehhandler$??0CSimpleBar@@QAE@PAVQWidget@@@Z 0041e0b3 f   Client.obj
 0001:0001d0ce       __unwindfunclet$?cccInfoRevertive@CClient@@EAEXHHABV?$basic_string@DU?$char_traits@D@std@@V?$allocator@D@2@@std@@@Z$0 0041e0ce f   Client.obj
 0001:0001d0d7       __ehhandler$?cccInfoRevertive@CClient@@EAEXHHABV?$basic_string@DU?$char_traits@D@std@@V?$allocator@D@2@@std@@@Z 0041e0d7 f   Client.obj
 0001:0001d0f2       __unwindfunclet$?sendMsg@CClient@@QAEXHPBDH@Z$0 0041e0f2 f   Client.obj
 0001:0001d0fe       __unwindfunclet$?sendMsg@CClient@@QAEXHPBDH@Z$1 0041e0fe f   Client.obj
 0001:0001d109       __ehhandler$?sendMsg@CClient@@QAEXHPBDH@Z 0041e109 f   Client.obj
 0001:0001d131       __unwindfunclet$??0CConfirm_Exit@@QAE@XZ$0 0041e131 f   Confirm_Exit.obj
 0001:0001d13a       __unwindfunclet$??0CConfirm_Exit@@QAE@XZ$1 0041e13a f   Confirm_Exit.obj
 0001:0001d145       __unwindfunclet$??0CConfirm_Exit@@QAE@XZ$2 0041e145 f   Confirm_Exit.obj
 0001:0001d14e       __ehhandler$??0CConfirm_Exit@@QAE@XZ 0041e14e f   Confirm_Exit.obj
 0001:0001d16c       __unwindfunclet$??1CConfirm_Exit@@UAE@XZ$0 0041e16c f   Confirm_Exit.obj
 0001:0001d175       __ehhandler$??1CConfirm_Exit@@UAE@XZ 0041e175 f   Confirm_Exit.obj
 0001:0001d190       __unwindfunclet$??1CExtProcess@@UAE@XZ$0 0041e190 f   ExtProcess.obj
 0001:0001d190       __unwindfunclet$??0CExtProcess@@QAE@PAVQObject@@PBD@Z$0 0041e190 f   ExtProcess.obj
 0001:0001d199       __unwindfunclet$??1CExtProcess@@UAE@XZ$1 0041e199 f   ExtProcess.obj
 0001:0001d199       __unwindfunclet$??0CExtProcess@@QAE@PAVQObject@@PBD@Z$1 0041e199 f   ExtProcess.obj
 0001:0001d1a5       __ehhandler$??1CExtProcess@@UAE@XZ 0041e1a5 f   ExtProcess.obj
 0001:0001d1a5       __ehhandler$??0CExtProcess@@QAE@PAVQObject@@PBD@Z 0041e1a5 f   ExtProcess.obj
 0001:0001d1c0       __unwindfunclet$?timerEvent@CExtProcess@@UAEXPAVQTimerEvent@@@Z$0 0041e1c0 f   ExtProcess.obj
 0001:0001d1c9       __unwindfunclet$?timerEvent@CExtProcess@@UAEXPAVQTimerEvent@@@Z$1 0041e1c9 f   ExtProcess.obj
 0001:0001d1d2       __ehhandler$?timerEvent@CExtProcess@@UAEXPAVQTimerEvent@@@Z 0041e1d2 f   ExtProcess.obj
 0001:0001d1ed       __unwindfunclet$?getInstancesOfType@CLookUp@@QAE?AVQStringList@@VQString@@@Z$0 0041e1ed f   LookUp.obj
 0001:0001d1f6       __unwindfunclet$?getInstancesOfType@CLookUp@@QAE?AVQStringList@@VQString@@@Z$1 0041e1f6 f   LookUp.obj
 0001:0001d210       __unwindfunclet$?getInstancesOfType@CLookUp@@QAE?AVQStringList@@VQString@@@Z$2 0041e210 f   LookUp.obj
 0001:0001d219       __unwindfunclet$?getInstancesOfType@CLookUp@@QAE?AVQStringList@@VQString@@@Z$3 0041e219 f   LookUp.obj
 0001:0001d222       __unwindfunclet$?getInstancesOfType@CLookUp@@QAE?AVQStringList@@VQString@@@Z$4 0041e222 f   LookUp.obj
 0001:0001d22b       __unwindfunclet$?getInstancesOfType@CLookUp@@QAE?AVQStringList@@VQString@@@Z$5 0041e22b f   LookUp.obj
 0001:0001d234       __unwindfunclet$?getInstancesOfType@CLookUp@@QAE?AVQStringList@@VQString@@@Z$6 0041e234 f   LookUp.obj
 0001:0001d23d       __unwindfunclet$?getInstancesOfType@CLookUp@@QAE?AVQStringList@@VQString@@@Z$7 0041e23d f   LookUp.obj
 0001:0001d246       __unwindfunclet$?getInstancesOfType@CLookUp@@QAE?AVQStringList@@VQString@@@Z$8 0041e246 f   LookUp.obj
 0001:0001d24f       __unwindfunclet$?getInstancesOfType@CLookUp@@QAE?AVQStringList@@VQString@@@Z$9 0041e24f f   LookUp.obj
 0001:0001d258       __ehhandler$?getInstancesOfType@CLookUp@@QAE?AVQStringList@@VQString@@@Z 0041e258 f   LookUp.obj
 0001:0001d273       __unwindfunclet$_main$3    0041e273 f   main.obj
 0001:0001d27f       __unwindfunclet$_main$4    0041e27f f   main.obj
 0001:0001d28b       __unwindfunclet$_main$5    0041e28b f   main.obj
 0001:0001d297       __unwindfunclet$_main$6    0041e297 f   main.obj
 0001:0001d2a3       __unwindfunclet$_main$7    0041e2a3 f   main.obj
 0001:0001d2af       __unwindfunclet$_main$8    0041e2af f   main.obj
 0001:0001d2bb       __unwindfunclet$_main$9    0041e2bb f   main.obj
 0001:0001d2c7       __unwindfunclet$_main$10   0041e2c7 f   main.obj
 0001:0001d2d3       __unwindfunclet$_main$11   0041e2d3 f   main.obj
 0001:0001d2df       __unwindfunclet$_main$12   0041e2df f   main.obj
 0001:0001d2eb       __unwindfunclet$_main$13   0041e2eb f   main.obj
 0001:0001d2f7       __unwindfunclet$_main$14   0041e2f7 f   main.obj
 0001:0001d303       __unwindfunclet$_main$15   0041e303 f   main.obj
 0001:0001d30f       __unwindfunclet$_main$16   0041e30f f   main.obj
 0001:0001d31b       __unwindfunclet$_main$17   0041e31b f   main.obj
 0001:0001d327       __unwindfunclet$_main$18   0041e327 f   main.obj
 0001:0001d333       __unwindfunclet$_main$19   0041e333 f   main.obj
 0001:0001d33f       __unwindfunclet$_main$20   0041e33f f   main.obj
 0001:0001d34b       __unwindfunclet$_main$21   0041e34b f   main.obj
 0001:0001d357       __unwindfunclet$_main$22   0041e357 f   main.obj
 0001:0001d363       __unwindfunclet$_main$23   0041e363 f   main.obj
 0001:0001d36f       __unwindfunclet$_main$24   0041e36f f   main.obj
 0001:0001d37b       __unwindfunclet$_main$25   0041e37b f   main.obj
 0001:0001d386       __unwindfunclet$_main$26   0041e386 f   main.obj
 0001:0001d391       __unwindfunclet$_main$27   0041e391 f   main.obj
 0001:0001d39d       __unwindfunclet$_main$28   0041e39d f   main.obj
 0001:0001d3a9       __unwindfunclet$_main$29   0041e3a9 f   main.obj
 0001:0001d3b5       __unwindfunclet$_main$30   0041e3b5 f   main.obj
 0001:0001d3c1       __unwindfunclet$_main$31   0041e3c1 f   main.obj
 0001:0001d3cd       __unwindfunclet$_main$32   0041e3cd f   main.obj
 0001:0001d3d9       __unwindfunclet$_main$33   0041e3d9 f   main.obj
 0001:0001d3e5       __unwindfunclet$_main$34   0041e3e5 f   main.obj
 0001:0001d3f1       __unwindfunclet$_main$35   0041e3f1 f   main.obj
 0001:0001d3fd       __unwindfunclet$_main$36   0041e3fd f   main.obj
 0001:0001d409       __unwindfunclet$_main$37   0041e409 f   main.obj
 0001:0001d415       __ehhandler$_main          0041e415 f   main.obj
 0001:0001d43d       __unwindfunclet$?notify@bncs_popup@@IAEXAAVQString@@@Z$0 0041e43d f   moc_bncs_popup.obj
 0001:0001d451       __ehhandler$?notify@bncs_popup@@IAEXAAVQString@@@Z 0041e451 f   moc_bncs_popup.obj
 0001:0001d476       __unwindfunclet$?staticMetaObject@bncs_popup@@SAPAVQMetaObject@@XZ$0 0041e476 f   moc_bncs_popup.obj
 0001:0001d484       __ehhandler$?staticMetaObject@bncs_popup@@SAPAVQMetaObject@@XZ 0041e484 f   moc_bncs_popup.obj
 0001:0001d49f       __unwindfunclet$??0CPanelMan@@QAE@ABVQString@@00@Z$0 0041e49f f   PanelMan.obj
 0001:0001d4ab       __unwindfunclet$??0CPanelMan@@QAE@ABVQString@@00@Z$1 0041e4ab f   PanelMan.obj
 0001:0001d4bd       __unwindfunclet$??0CPanelMan@@QAE@ABVQString@@00@Z$2 0041e4bd f   PanelMan.obj
 0001:0001d4cf       __unwindfunclet$??0CPanelMan@@QAE@ABVQString@@00@Z$3 0041e4cf f   PanelMan.obj
 0001:0001d4e1       __unwindfunclet$??0CPanelMan@@QAE@ABVQString@@00@Z$4 0041e4e1 f   PanelMan.obj
 0001:0001d4f3       __unwindfunclet$??0CPanelMan@@QAE@ABVQString@@00@Z$5 0041e4f3 f   PanelMan.obj
 0001:0001d505       __unwindfunclet$??0CPanelMan@@QAE@ABVQString@@00@Z$6 0041e505 f   PanelMan.obj
 0001:0001d517       __unwindfunclet$??0CPanelMan@@QAE@ABVQString@@00@Z$7 0041e517 f   PanelMan.obj
 0001:0001d529       __unwindfunclet$??0CPanelMan@@QAE@ABVQString@@00@Z$8 0041e529 f   PanelMan.obj
 0001:0001d53b       __unwindfunclet$??0CPanelMan@@QAE@ABVQString@@00@Z$9 0041e53b f   PanelMan.obj
 0001:0001d547       __unwindfunclet$??0CPanelMan@@QAE@ABVQString@@00@Z$10 0041e547 f   PanelMan.obj
 0001:0001d553       __unwindfunclet$??0CPanelMan@@QAE@ABVQString@@00@Z$11 0041e553 f   PanelMan.obj
 0001:0001d55f       __unwindfunclet$??0CPanelMan@@QAE@ABVQString@@00@Z$12 0041e55f f   PanelMan.obj
 0001:0001d56a       __unwindfunclet$??0CPanelMan@@QAE@ABVQString@@00@Z$13 0041e56a f   PanelMan.obj
 0001:0001d577       __unwindfunclet$??0CPanelMan@@QAE@ABVQString@@00@Z$14 0041e577 f   PanelMan.obj
 0001:0001d583       __unwindfunclet$??0CPanelMan@@QAE@ABVQString@@00@Z$15 0041e583 f   PanelMan.obj
 0001:0001d590       __unwindfunclet$??0CPanelMan@@QAE@ABVQString@@00@Z$16 0041e590 f   PanelMan.obj
 0001:0001d59d       __unwindfunclet$??0CPanelMan@@QAE@ABVQString@@00@Z$17 0041e59d f   PanelMan.obj
 0001:0001d5aa       __unwindfunclet$??0CPanelMan@@QAE@ABVQString@@00@Z$18 0041e5aa f   PanelMan.obj
 0001:0001d5b6       __unwindfunclet$??0CPanelMan@@QAE@ABVQString@@00@Z$19 0041e5b6 f   PanelMan.obj
 0001:0001d5c2       __unwindfunclet$??0CPanelMan@@QAE@ABVQString@@00@Z$20 0041e5c2 f   PanelMan.obj
 0001:0001d5cf       __unwindfunclet$??0CPanelMan@@QAE@ABVQString@@00@Z$21 0041e5cf f   PanelMan.obj
 0001:0001d5db       __unwindfunclet$??0CPanelMan@@QAE@ABVQString@@00@Z$22 0041e5db f   PanelMan.obj
 0001:0001d5e8       __unwindfunclet$??0CPanelMan@@QAE@ABVQString@@00@Z$23 0041e5e8 f   PanelMan.obj
 0001:0001d5f4       __unwindfunclet$??0CPanelMan@@QAE@ABVQString@@00@Z$24 0041e5f4 f   PanelMan.obj
 0001:0001d600       __unwindfunclet$??0CPanelMan@@QAE@ABVQString@@00@Z$26 0041e600 f   PanelMan.obj
 0001:0001d60d       __unwindfunclet$??0CPanelMan@@QAE@ABVQString@@00@Z$27 0041e60d f   PanelMan.obj
 0001:0001d61a       __unwindfunclet$??0CPanelMan@@QAE@ABVQString@@00@Z$28 0041e61a f   PanelMan.obj
 0001:0001d626       __unwindfunclet$??0CPanelMan@@QAE@ABVQString@@00@Z$29 0041e626 f   PanelMan.obj
 0001:0001d632       __unwindfunclet$??0CPanelMan@@QAE@ABVQString@@00@Z$30 0041e632 f   PanelMan.obj
 0001:0001d63e       __unwindfunclet$??0CPanelMan@@QAE@ABVQString@@00@Z$31 0041e63e f   PanelMan.obj
 0001:0001d64b       __unwindfunclet$??0CPanelMan@@QAE@ABVQString@@00@Z$32 0041e64b f   PanelMan.obj
 0001:0001d658       __unwindfunclet$??0CPanelMan@@QAE@ABVQString@@00@Z$33 0041e658 f   PanelMan.obj
 0001:0001d665       __ehhandler$??0CPanelMan@@QAE@ABVQString@@00@Z 0041e665 f   PanelMan.obj
 0001:0001d68d       __unwindfunclet$??1CPanelMan@@UAE@XZ$0 0041e68d f   PanelMan.obj
 0001:0001d696       __unwindfunclet$??1CPanelMan@@UAE@XZ$1 0041e696 f   PanelMan.obj
 0001:0001d6a5       __unwindfunclet$??1CPanelMan@@UAE@XZ$2 0041e6a5 f   PanelMan.obj
 0001:0001d6b4       __unwindfunclet$??1CPanelMan@@UAE@XZ$3 0041e6b4 f   PanelMan.obj
 0001:0001d6c3       __unwindfunclet$??1CPanelMan@@UAE@XZ$4 0041e6c3 f   PanelMan.obj
 0001:0001d6d2       __unwindfunclet$??1CPanelMan@@UAE@XZ$5 0041e6d2 f   PanelMan.obj
 0001:0001d6e1       __unwindfunclet$??1CPanelMan@@UAE@XZ$6 0041e6e1 f   PanelMan.obj
 0001:0001d6f0       __unwindfunclet$??1CPanelMan@@UAE@XZ$7 0041e6f0 f   PanelMan.obj
 0001:0001d6ff       __unwindfunclet$??1CPanelMan@@UAE@XZ$8 0041e6ff f   PanelMan.obj
 0001:0001d70e       __ehhandler$??1CPanelMan@@UAE@XZ 0041e70e f   PanelMan.obj
 0001:0001d729       __unwindfunclet$?timerEvent@CStartPop@@EAEXPAVQTimerEvent@@@Z$0 0041e729 f   PanelMan.obj
 0001:0001d729       __unwindfunclet$?setToolTip@CAdjustMon@@AAEXVQString@@@Z$0 0041e729 f   PanelMan.obj
 0001:0001d729       __unwindfunclet$?debug@CPanelMan@@QAEXVQString@@@Z$0 0041e729 f   PanelMan.obj
 0001:0001d732       __ehhandler$?debug@CPanelMan@@QAEXVQString@@@Z 0041e732 f   PanelMan.obj
 0001:0001d732       __ehhandler$?setToolTip@CAdjustMon@@AAEXVQString@@@Z 0041e732 f   PanelMan.obj
 0001:0001d732       __ehhandler$?timerEvent@CStartPop@@EAEXPAVQTimerEvent@@@Z 0041e732 f   PanelMan.obj
 0001:0001d74d       __unwindfunclet$?getAttribute@CPanelMan@@QAE?AVQString@@V2@00@Z$0 0041e74d f   PanelMan.obj
 0001:0001d756       __unwindfunclet$?getAttribute@CPanelMan@@QAE?AVQString@@V2@00@Z$1 0041e756 f   PanelMan.obj
 0001:0001d75f       __unwindfunclet$?getAttribute@CPanelMan@@QAE?AVQString@@V2@00@Z$2 0041e75f f   PanelMan.obj
 0001:0001d768       __unwindfunclet$?getAttribute@CPanelMan@@QAE?AVQString@@V2@00@Z$3 0041e768 f   PanelMan.obj
 0001:0001d782       __unwindfunclet$?getAttribute@CPanelMan@@QAE?AVQString@@V2@00@Z$4 0041e782 f   PanelMan.obj
 0001:0001d78b       __unwindfunclet$?getAttribute@CPanelMan@@QAE?AVQString@@V2@00@Z$5 0041e78b f   PanelMan.obj
 0001:0001d794       __unwindfunclet$?getAttribute@CPanelMan@@QAE?AVQString@@V2@00@Z$6 0041e794 f   PanelMan.obj
 0001:0001d79d       __unwindfunclet$?getAttribute@CPanelMan@@QAE?AVQString@@V2@00@Z$7 0041e79d f   PanelMan.obj
 0001:0001d7a6       __unwindfunclet$?getAttribute@CPanelMan@@QAE?AVQString@@V2@00@Z$8 0041e7a6 f   PanelMan.obj
 0001:0001d7af       __unwindfunclet$?getAttribute@CPanelMan@@QAE?AVQString@@V2@00@Z$9 0041e7af f   PanelMan.obj
 0001:0001d7bb       __unwindfunclet$?getAttribute@CPanelMan@@QAE?AVQString@@V2@00@Z$10 0041e7bb f   PanelMan.obj
 0001:0001d7c7       __unwindfunclet$?getAttribute@CPanelMan@@QAE?AVQString@@V2@00@Z$11 0041e7c7 f   PanelMan.obj
 0001:0001d7d0       __unwindfunclet$?getAttribute@CPanelMan@@QAE?AVQString@@V2@00@Z$12 0041e7d0 f   PanelMan.obj
 0001:0001d7d9       __unwindfunclet$?getAttribute@CPanelMan@@QAE?AVQString@@V2@00@Z$13 0041e7d9 f   PanelMan.obj
 0001:0001d7e2       __unwindfunclet$?getAttribute@CPanelMan@@QAE?AVQString@@V2@00@Z$14 0041e7e2 f   PanelMan.obj
 0001:0001d7eb       __unwindfunclet$?getAttribute@CPanelMan@@QAE?AVQString@@V2@00@Z$15 0041e7eb f   PanelMan.obj
 0001:0001d7f4       __unwindfunclet$?getAttribute@CPanelMan@@QAE?AVQString@@V2@00@Z$16 0041e7f4 f   PanelMan.obj
 0001:0001d7fd       __unwindfunclet$?getAttribute@CPanelMan@@QAE?AVQString@@V2@00@Z$17 0041e7fd f   PanelMan.obj
 0001:0001d806       __unwindfunclet$?getAttribute@CPanelMan@@QAE?AVQString@@V2@00@Z$18 0041e806 f   PanelMan.obj
 0001:0001d80f       __unwindfunclet$?getAttribute@CPanelMan@@QAE?AVQString@@V2@00@Z$19 0041e80f f   PanelMan.obj
 0001:0001d818       __unwindfunclet$?getAttribute@CPanelMan@@QAE?AVQString@@V2@00@Z$20 0041e818 f   PanelMan.obj
 0001:0001d821       __unwindfunclet$?getAttribute@CPanelMan@@QAE?AVQString@@V2@00@Z$21 0041e821 f   PanelMan.obj
 0001:0001d82a       __unwindfunclet$?getAttribute@CPanelMan@@QAE?AVQString@@V2@00@Z$22 0041e82a f   PanelMan.obj
 0001:0001d833       __unwindfunclet$?getAttribute@CPanelMan@@QAE?AVQString@@V2@00@Z$23 0041e833 f   PanelMan.obj
 0001:0001d83c       __unwindfunclet$?getAttribute@CPanelMan@@QAE?AVQString@@V2@00@Z$24 0041e83c f   PanelMan.obj
 0001:0001d845       __ehhandler$?getAttribute@CPanelMan@@QAE?AVQString@@V2@00@Z 0041e845 f   PanelMan.obj
 0001:0001d863       __unwindfunclet$?getSettings@CPanelMan@@AAEXXZ$0 0041e863 f   PanelMan.obj
 0001:0001d86f       __unwindfunclet$?getSettings@CPanelMan@@AAEXXZ$1 0041e86f f   PanelMan.obj
 0001:0001d87b       __unwindfunclet$?getSettings@CPanelMan@@AAEXXZ$2 0041e87b f   PanelMan.obj
 0001:0001d887       __unwindfunclet$?getSettings@CPanelMan@@AAEXXZ$3 0041e887 f   PanelMan.obj
 0001:0001d893       __unwindfunclet$?getSettings@CPanelMan@@AAEXXZ$4 0041e893 f   PanelMan.obj
 0001:0001d89f       __unwindfunclet$?getSettings@CPanelMan@@AAEXXZ$5 0041e89f f   PanelMan.obj
 0001:0001d8ab       __unwindfunclet$?getSettings@CPanelMan@@AAEXXZ$6 0041e8ab f   PanelMan.obj
 0001:0001d8b7       __unwindfunclet$?getSettings@CPanelMan@@AAEXXZ$7 0041e8b7 f   PanelMan.obj
 0001:0001d8c3       __unwindfunclet$?getSettings@CPanelMan@@AAEXXZ$8 0041e8c3 f   PanelMan.obj
 0001:0001d8cf       __unwindfunclet$?getSettings@CPanelMan@@AAEXXZ$9 0041e8cf f   PanelMan.obj
 0001:0001d8db       __unwindfunclet$?getSettings@CPanelMan@@AAEXXZ$10 0041e8db f   PanelMan.obj
 0001:0001d8e7       __unwindfunclet$?getSettings@CPanelMan@@AAEXXZ$11 0041e8e7 f   PanelMan.obj
 0001:0001d8f3       __unwindfunclet$?getSettings@CPanelMan@@AAEXXZ$12 0041e8f3 f   PanelMan.obj
 0001:0001d8fc       __unwindfunclet$?getSettings@CPanelMan@@AAEXXZ$13 0041e8fc f   PanelMan.obj
 0001:0001d908       __unwindfunclet$?getSettings@CPanelMan@@AAEXXZ$14 0041e908 f   PanelMan.obj
 0001:0001d911       __unwindfunclet$?getSettings@CPanelMan@@AAEXXZ$15 0041e911 f   PanelMan.obj
 0001:0001d91d       __unwindfunclet$?getSettings@CPanelMan@@AAEXXZ$16 0041e91d f   PanelMan.obj
 0001:0001d929       __unwindfunclet$?getSettings@CPanelMan@@AAEXXZ$17 0041e929 f   PanelMan.obj
 0001:0001d935       __unwindfunclet$?getSettings@CPanelMan@@AAEXXZ$18 0041e935 f   PanelMan.obj
 0001:0001d941       __unwindfunclet$?getSettings@CPanelMan@@AAEXXZ$19 0041e941 f   PanelMan.obj
 0001:0001d94d       __unwindfunclet$?getSettings@CPanelMan@@AAEXXZ$20 0041e94d f   PanelMan.obj
 0001:0001d959       __unwindfunclet$?getSettings@CPanelMan@@AAEXXZ$21 0041e959 f   PanelMan.obj
 0001:0001d965       __unwindfunclet$?getSettings@CPanelMan@@AAEXXZ$22 0041e965 f   PanelMan.obj
 0001:0001d971       __ehhandler$?getSettings@CPanelMan@@AAEXXZ 0041e971 f   PanelMan.obj
 0001:0001d999       __unwindfunclet$?shutDown@CPanelMan@@QAEXXZ$0 0041e999 f   PanelMan.obj
 0001:0001d9a4       __ehhandler$?shutDown@CPanelMan@@QAEXXZ 0041e9a4 f   PanelMan.obj
 0001:0001d9c2       __unwindfunclet$?getProperty@CSimpleBar@@IAE?AVQString@@V2@0@Z$0 0041e9c2 f   SimpleBar.obj
 0001:0001d9cb       __unwindfunclet$?getProperty@CSimpleBar@@IAE?AVQString@@V2@0@Z$1 0041e9cb f   SimpleBar.obj
 0001:0001d9d4       __unwindfunclet$?getProperty@CSimpleBar@@IAE?AVQString@@V2@0@Z$2 0041e9d4 f   SimpleBar.obj
 0001:0001d9dd       __unwindfunclet$?getProperty@CSimpleBar@@IAE?AVQString@@V2@0@Z$3 0041e9dd f   SimpleBar.obj
 0001:0001d9e6       __unwindfunclet$?getProperty@CSimpleBar@@IAE?AVQString@@V2@0@Z$4 0041e9e6 f   SimpleBar.obj
 0001:0001d9ef       __unwindfunclet$?getProperty@CSimpleBar@@IAE?AVQString@@V2@0@Z$5 0041e9ef f   SimpleBar.obj
 0001:0001d9f8       __unwindfunclet$?getProperty@CSimpleBar@@IAE?AVQString@@V2@0@Z$6 0041e9f8 f   SimpleBar.obj
 0001:0001da01       __unwindfunclet$?getProperty@CSimpleBar@@IAE?AVQString@@V2@0@Z$7 0041ea01 f   SimpleBar.obj
 0001:0001da1b       __ehhandler$?getProperty@CSimpleBar@@IAE?AVQString@@V2@0@Z 0041ea1b f   SimpleBar.obj
 0001:0001da36       __unwindfunclet$?init@CSimpleBar@@QAE_NVQString@@ABV2@_N@Z$0 0041ea36 f   SimpleBar.obj
 0001:0001da3f       __unwindfunclet$?init@CSimpleBar@@QAE_NVQString@@ABV2@_N@Z$1 0041ea3f f   SimpleBar.obj
 0001:0001da4a       __unwindfunclet$?init@CSimpleBar@@QAE_NVQString@@ABV2@_N@Z$2 0041ea4a f   SimpleBar.obj
 0001:0001da53       __unwindfunclet$?init@CSimpleBar@@QAE_NVQString@@ABV2@_N@Z$3 0041ea53 f   SimpleBar.obj
 0001:0001da5c       __unwindfunclet$?init@CSimpleBar@@QAE_NVQString@@ABV2@_N@Z$4 0041ea5c f   SimpleBar.obj
 0001:0001da65       __unwindfunclet$?init@CSimpleBar@@QAE_NVQString@@ABV2@_N@Z$5 0041ea65 f   SimpleBar.obj
 0001:0001da6e       __unwindfunclet$?init@CSimpleBar@@QAE_NVQString@@ABV2@_N@Z$6 0041ea6e f   SimpleBar.obj
 0001:0001da77       __unwindfunclet$?init@CSimpleBar@@QAE_NVQString@@ABV2@_N@Z$7 0041ea77 f   SimpleBar.obj
 0001:0001da80       __unwindfunclet$?init@CSimpleBar@@QAE_NVQString@@ABV2@_N@Z$8 0041ea80 f   SimpleBar.obj
 0001:0001da89       __unwindfunclet$?init@CSimpleBar@@QAE_NVQString@@ABV2@_N@Z$9 0041ea89 f   SimpleBar.obj
 0001:0001da92       __ehhandler$?init@CSimpleBar@@QAE_NVQString@@ABV2@_N@Z 0041ea92 f   SimpleBar.obj
 0001:0001dab0       __unwindfunclet$?setProperty@CSimpleBar@@IAEXHVQString@@0@Z$0 0041eab0 f   SimpleBar.obj
 0001:0001dab9       __unwindfunclet$?setProperty@CSimpleBar@@IAEXHVQString@@0@Z$1 0041eab9 f   SimpleBar.obj
 0001:0001dac2       __unwindfunclet$?setProperty@CSimpleBar@@IAEXHVQString@@0@Z$2 0041eac2 f   SimpleBar.obj
 0001:0001dacb       __unwindfunclet$?setProperty@CSimpleBar@@IAEXHVQString@@0@Z$3 0041eacb f   SimpleBar.obj
 0001:0001dad4       __unwindfunclet$?setProperty@CSimpleBar@@IAEXHVQString@@0@Z$4 0041ead4 f   SimpleBar.obj
 0001:0001dadd       __unwindfunclet$?setProperty@CSimpleBar@@IAEXHVQString@@0@Z$5 0041eadd f   SimpleBar.obj
 0001:0001dae6       __ehhandler$?setProperty@CSimpleBar@@IAEXHVQString@@0@Z 0041eae6 f   SimpleBar.obj
 0001:0001db01       __unwindfunclet$?setProperty@CSimpleBar@@IAEXVQString@@00@Z$0 0041eb01 f   SimpleBar.obj
 0001:0001db0a       __unwindfunclet$?setProperty@CSimpleBar@@IAEXVQString@@00@Z$1 0041eb0a f   SimpleBar.obj
 0001:0001db13       __unwindfunclet$?setProperty@CSimpleBar@@IAEXVQString@@00@Z$2 0041eb13 f   SimpleBar.obj
 0001:0001db1c       __unwindfunclet$?setProperty@CSimpleBar@@IAEXVQString@@00@Z$3 0041eb1c f   SimpleBar.obj
 0001:0001db25       __unwindfunclet$?setProperty@CSimpleBar@@IAEXVQString@@00@Z$4 0041eb25 f   SimpleBar.obj
 0001:0001db2e       __ehhandler$?setProperty@CSimpleBar@@IAEXVQString@@00@Z 0041eb2e f   SimpleBar.obj
 0001:0001db49       __unwindfunclet$?widgetList@dCW@@QAE?AVQWidgetList@@XZ$2 0041eb49 f   SimpleBar.obj
 0001:0001db52       __unwindfunclet$?widgetList@dCW@@QAE?AVQWidgetList@@XZ$1 0041eb52 f   SimpleBar.obj
 0001:0001db5b       __unwindfunclet$?widgetList@dCW@@QAE?AVQWidgetList@@XZ$0 0041eb5b f   SimpleBar.obj
 0001:0001db75       __ehhandler$?widgetList@dCW@@QAE?AVQWidgetList@@XZ 0041eb75 f   SimpleBar.obj
 0001:0001db90       __unwindfunclet$??0CStartPop@@QAE@PAVQWidget@@@Z$0 0041eb90 f   StartPop.obj
 0001:0001db90       __unwindfunclet$??1CStartPop@@UAE@XZ$0 0041eb90 f   StartPop.obj
 0001:0001db99       __unwindfunclet$??0CStartPop@@QAE@PAVQWidget@@@Z$1 0041eb99 f   StartPop.obj
 0001:0001db99       __unwindfunclet$??1CStartPop@@UAE@XZ$1 0041eb99 f   StartPop.obj
 0001:0001dba5       __ehhandler$??1CStartPop@@UAE@XZ 0041eba5 f   StartPop.obj
 0001:0001dba5       __ehhandler$??0CStartPop@@QAE@PAVQWidget@@@Z 0041eba5 f   StartPop.obj
 0001:0001dbc0       __unwindfunclet$?getAddress@CStartPop@@AAE?AVQString@@XZ$0 0041ebc0 f   StartPop.obj
 0001:0001dbe3       __unwindfunclet$?getAddress@CStartPop@@AAE?AVQString@@XZ$1 0041ebe3 f   StartPop.obj
 0001:0001dbef       __unwindfunclet$?getAddress@CStartPop@@AAE?AVQString@@XZ$2 0041ebef f   StartPop.obj
 0001:0001dbfb       __unwindfunclet$?getAddress@CStartPop@@AAE?AVQString@@XZ$3 0041ebfb f   StartPop.obj
 0001:0001dc07       __ehhandler$?getAddress@CStartPop@@AAE?AVQString@@XZ 0041ec07 f   StartPop.obj
 0001:0001dc2f       __unwindfunclet$?notify@CStartPop@@QAEXAAVQString@@@Z$0 0041ec2f f   StartPop.obj
 0001:0001dc38       __unwindfunclet$?notify@CStartPop@@QAEXAAVQString@@@Z$1 0041ec38 f   StartPop.obj
 0001:0001dc44       __unwindfunclet$?notify@CStartPop@@QAEXAAVQString@@@Z$2 0041ec44 f   StartPop.obj
 0001:0001dc50       __unwindfunclet$?notify@CStartPop@@QAEXAAVQString@@@Z$3 0041ec50 f   StartPop.obj
 0001:0001dc5c       __unwindfunclet$?notify@CStartPop@@QAEXAAVQString@@@Z$4 0041ec5c f   StartPop.obj
 0001:0001dc69       __unwindfunclet$?notify@CStartPop@@QAEXAAVQString@@@Z$5 0041ec69 f   StartPop.obj
 0001:0001dc76       __unwindfunclet$?notify@CStartPop@@QAEXAAVQString@@@Z$6 0041ec76 f   StartPop.obj
 0001:0001dc83       __unwindfunclet$?notify@CStartPop@@QAEXAAVQString@@@Z$7 0041ec83 f   StartPop.obj
 0001:0001dc90       __unwindfunclet$?notify@CStartPop@@QAEXAAVQString@@@Z$8 0041ec90 f   StartPop.obj
 0001:0001dc9c       __unwindfunclet$?notify@CStartPop@@QAEXAAVQString@@@Z$9 0041ec9c f   StartPop.obj
 0001:0001dca8       __unwindfunclet$?notify@CStartPop@@QAEXAAVQString@@@Z$10 0041eca8 f   StartPop.obj
 0001:0001dcb1       __unwindfunclet$?notify@CStartPop@@QAEXAAVQString@@@Z$11 0041ecb1 f   StartPop.obj
 0001:0001dcbd       __unwindfunclet$?notify@CStartPop@@QAEXAAVQString@@@Z$12 0041ecbd f   StartPop.obj
 0001:0001dcc6       __unwindfunclet$?notify@CStartPop@@QAEXAAVQString@@@Z$13 0041ecc6 f   StartPop.obj
 0001:0001dcd2       __unwindfunclet$?notify@CStartPop@@QAEXAAVQString@@@Z$14 0041ecd2 f   StartPop.obj
 0001:0001dcde       __unwindfunclet$?notify@CStartPop@@QAEXAAVQString@@@Z$15 0041ecde f   StartPop.obj
 0001:0001dcea       __unwindfunclet$?notify@CStartPop@@QAEXAAVQString@@@Z$16 0041ecea f   StartPop.obj
 0001:0001dcf6       __unwindfunclet$?notify@CStartPop@@QAEXAAVQString@@@Z$17 0041ecf6 f   StartPop.obj
 0001:0001dd02       __unwindfunclet$?notify@CStartPop@@QAEXAAVQString@@@Z$18 0041ed02 f   StartPop.obj
 0001:0001dd0b       __unwindfunclet$?notify@CStartPop@@QAEXAAVQString@@@Z$19 0041ed0b f   StartPop.obj
 0001:0001dd17       __unwindfunclet$?notify@CStartPop@@QAEXAAVQString@@@Z$20 0041ed17 f   StartPop.obj
 0001:0001dd20       __unwindfunclet$?notify@CStartPop@@QAEXAAVQString@@@Z$21 0041ed20 f   StartPop.obj
 0001:0001dd2c       __unwindfunclet$?notify@CStartPop@@QAEXAAVQString@@@Z$22 0041ed2c f   StartPop.obj
 0001:0001dd38       __unwindfunclet$?notify@CStartPop@@QAEXAAVQString@@@Z$23 0041ed38 f   StartPop.obj
 0001:0001dd45       __unwindfunclet$?notify@CStartPop@@QAEXAAVQString@@@Z$24 0041ed45 f   StartPop.obj
 0001:0001dd52       __ehhandler$?notify@CStartPop@@QAEXAAVQString@@@Z 0041ed52 f   StartPop.obj
 0001:0001dd7a       __unwindfunclet$?showCleanScreen@CStartPop@@AAEXXZ$0 0041ed7a f   StartPop.obj
 0001:0001dd84       __unwindfunclet$?showCleanScreen@CStartPop@@AAEXXZ$1 0041ed84 f   StartPop.obj
 0001:0001dd8e       __unwindfunclet$?showCleanScreen@CStartPop@@AAEXXZ$2 0041ed8e f   StartPop.obj
 0001:0001dd98       __unwindfunclet$?showCleanScreen@CStartPop@@AAEXXZ$3 0041ed98 f   StartPop.obj
 0001:0001dda4       __unwindfunclet$?showCleanScreen@CStartPop@@AAEXXZ$4 0041eda4 f   StartPop.obj
 0001:0001ddad       __unwindfunclet$?showCleanScreen@CStartPop@@AAEXXZ$5 0041edad f   StartPop.obj
 0001:0001ddb6       __unwindfunclet$?showCleanScreen@CStartPop@@AAEXXZ$6 0041edb6 f   StartPop.obj
 0001:0001ddc0       __unwindfunclet$?showCleanScreen@CStartPop@@AAEXXZ$7 0041edc0 f   StartPop.obj
 0001:0001ddc9       __unwindfunclet$?showCleanScreen@CStartPop@@AAEXXZ$8 0041edc9 f   StartPop.obj
 0001:0001ddd2       __unwindfunclet$?showCleanScreen@CStartPop@@AAEXXZ$9 0041edd2 f   StartPop.obj
 0001:0001dddc       __ehhandler$?showCleanScreen@CStartPop@@AAEXXZ 0041eddc f   StartPop.obj
 0001:0001ddfa       __unwindfunclet$?showPopupPin@CStartPop@@AAEXABVQPoint@@@Z$0 0041edfa f   StartPop.obj
 0001:0001de06       __unwindfunclet$?showPopupPin@CStartPop@@AAEXABVQPoint@@@Z$1 0041ee06 f   StartPop.obj
 0001:0001de11       __unwindfunclet$?showPopupPin@CStartPop@@AAEXABVQPoint@@@Z$2 0041ee11 f   StartPop.obj
 0001:0001de1a       __unwindfunclet$?showPopupPin@CStartPop@@AAEXABVQPoint@@@Z$3 0041ee1a f   StartPop.obj
 0001:0001de23       __unwindfunclet$?showPopupPin@CStartPop@@AAEXABVQPoint@@@Z$4 0041ee23 f   StartPop.obj
 0001:0001de2c       __unwindfunclet$?showPopupPin@CStartPop@@AAEXABVQPoint@@@Z$5 0041ee2c f   StartPop.obj
 0001:0001de35       __unwindfunclet$?showPopupPin@CStartPop@@AAEXABVQPoint@@@Z$6 0041ee35 f   StartPop.obj
 0001:0001de41       __ehhandler$?showPopupPin@CStartPop@@AAEXABVQPoint@@@Z 0041ee41 f   StartPop.obj
 0001:0001de5f       __unwindfunclet$?showStart@CStartPop@@QAEXPAVQPoint@@@Z$0 0041ee5f f   StartPop.obj
 0001:0001de68       __unwindfunclet$?showStart@CStartPop@@QAEXPAVQPoint@@@Z$1 0041ee68 f   StartPop.obj
 0001:0001de73       __unwindfunclet$?showStart@CStartPop@@QAEXPAVQPoint@@@Z$2 0041ee73 f   StartPop.obj
 0001:0001de7e       __unwindfunclet$?showStart@CStartPop@@QAEXPAVQPoint@@@Z$3 0041ee7e f   StartPop.obj
 0001:0001de87       __unwindfunclet$?showStart@CStartPop@@QAEXPAVQPoint@@@Z$4 0041ee87 f   StartPop.obj
 0001:0001de90       __unwindfunclet$?showStart@CStartPop@@QAEXPAVQPoint@@@Z$5 0041ee90 f   StartPop.obj
 0001:0001de99       __unwindfunclet$?showStart@CStartPop@@QAEXPAVQPoint@@@Z$6 0041ee99 f   StartPop.obj
 0001:0001dea5       __unwindfunclet$?showStart@CStartPop@@QAEXPAVQPoint@@@Z$7 0041eea5 f   StartPop.obj
 0001:0001deae       __unwindfunclet$?showStart@CStartPop@@QAEXPAVQPoint@@@Z$8 0041eeae f   StartPop.obj
 0001:0001deb7       __unwindfunclet$?showStart@CStartPop@@QAEXPAVQPoint@@@Z$9 0041eeb7 f   StartPop.obj
 0001:0001dec0       __unwindfunclet$?showStart@CStartPop@@QAEXPAVQPoint@@@Z$10 0041eec0 f   StartPop.obj
 0001:0001dec9       __unwindfunclet$?showStart@CStartPop@@QAEXPAVQPoint@@@Z$12 0041eec9 f   StartPop.obj
 0001:0001ded2       __unwindfunclet$?showStart@CStartPop@@QAEXPAVQPoint@@@Z$13 0041eed2 f   StartPop.obj
 0001:0001dedb       __unwindfunclet$?showStart@CStartPop@@QAEXPAVQPoint@@@Z$14 0041eedb f   StartPop.obj
 0001:0001dee4       __unwindfunclet$?showStart@CStartPop@@QAEXPAVQPoint@@@Z$15 0041eee4 f   StartPop.obj
 0001:0001deed       __unwindfunclet$?showStart@CStartPop@@QAEXPAVQPoint@@@Z$16 0041eeed f   StartPop.obj
 0001:0001def6       __unwindfunclet$?showStart@CStartPop@@QAEXPAVQPoint@@@Z$17 0041eef6 f   StartPop.obj
 0001:0001deff       __unwindfunclet$?showStart@CStartPop@@QAEXPAVQPoint@@@Z$18 0041eeff f   StartPop.obj
 0001:0001df08       __unwindfunclet$?showStart@CStartPop@@QAEXPAVQPoint@@@Z$19 0041ef08 f   StartPop.obj
 0001:0001df11       __unwindfunclet$?showStart@CStartPop@@QAEXPAVQPoint@@@Z$20 0041ef11 f   StartPop.obj
 0001:0001df1a       __unwindfunclet$?showStart@CStartPop@@QAEXPAVQPoint@@@Z$21 0041ef1a f   StartPop.obj
 0001:0001df23       __unwindfunclet$?showStart@CStartPop@@QAEXPAVQPoint@@@Z$22 0041ef23 f   StartPop.obj
 0001:0001df2c       __unwindfunclet$?showStart@CStartPop@@QAEXPAVQPoint@@@Z$23 0041ef2c f   StartPop.obj
 0001:0001df35       __unwindfunclet$?showStart@CStartPop@@QAEXPAVQPoint@@@Z$24 0041ef35 f   StartPop.obj
 0001:0001df3e       __unwindfunclet$?showStart@CStartPop@@QAEXPAVQPoint@@@Z$25 0041ef3e f   StartPop.obj
 0001:0001df47       __unwindfunclet$?showStart@CStartPop@@QAEXPAVQPoint@@@Z$26 0041ef47 f   StartPop.obj
 0001:0001df50       __unwindfunclet$?showStart@CStartPop@@QAEXPAVQPoint@@@Z$27 0041ef50 f   StartPop.obj
 0001:0001df59       __unwindfunclet$?showStart@CStartPop@@QAEXPAVQPoint@@@Z$28 0041ef59 f   StartPop.obj
 0001:0001df62       __unwindfunclet$?showStart@CStartPop@@QAEXPAVQPoint@@@Z$29 0041ef62 f   StartPop.obj
 0001:0001df6b       __unwindfunclet$?showStart@CStartPop@@QAEXPAVQPoint@@@Z$30 0041ef6b f   StartPop.obj
 0001:0001df74       __unwindfunclet$?showStart@CStartPop@@QAEXPAVQPoint@@@Z$31 0041ef74 f   StartPop.obj
 0001:0001df7d       __unwindfunclet$?showStart@CStartPop@@QAEXPAVQPoint@@@Z$32 0041ef7d f   StartPop.obj
 0001:0001df86       __unwindfunclet$?showStart@CStartPop@@QAEXPAVQPoint@@@Z$33 0041ef86 f   StartPop.obj
 0001:0001df8f       __unwindfunclet$?showStart@CStartPop@@QAEXPAVQPoint@@@Z$34 0041ef8f f   StartPop.obj
 0001:0001df98       __unwindfunclet$?showStart@CStartPop@@QAEXPAVQPoint@@@Z$35 0041ef98 f   StartPop.obj
 0001:0001dfa1       __unwindfunclet$?showStart@CStartPop@@QAEXPAVQPoint@@@Z$36 0041efa1 f   StartPop.obj
 0001:0001dfaa       __unwindfunclet$?showStart@CStartPop@@QAEXPAVQPoint@@@Z$37 0041efaa f   StartPop.obj
 0001:0001dfb3       __unwindfunclet$?showStart@CStartPop@@QAEXPAVQPoint@@@Z$39 0041efb3 f   StartPop.obj
 0001:0001dfbc       __unwindfunclet$?showStart@CStartPop@@QAEXPAVQPoint@@@Z$38 0041efbc f   StartPop.obj
 0001:0001dfc5       __ehhandler$?showStart@CStartPop@@QAEXPAVQPoint@@@Z 0041efc5 f   StartPop.obj
 0001:0001dfe3       __unwindfunclet$?slotCleanCount@CStartPop@@QAEXXZ$0 0041efe3 f   StartPop.obj
 0001:0001dfec       __unwindfunclet$?slotCleanCount@CStartPop@@QAEXXZ$1 0041efec f   StartPop.obj
 0001:0001dff5       __unwindfunclet$?slotCleanCount@CStartPop@@QAEXXZ$2 0041eff5 f   StartPop.obj
 0001:0001dffe       __unwindfunclet$?slotCleanCount@CStartPop@@QAEXXZ$3 0041effe f   StartPop.obj
 0001:0001e008       __ehhandler$?slotCleanCount@CStartPop@@QAEXXZ 0041f008 f   StartPop.obj
 0001:0001e023       __unwindfunclet$?startCalibrate@CStartPop@@AAEXXZ$0 0041f023 f   StartPop.obj
 0001:0001e02c       __unwindfunclet$?startCalibrate@CStartPop@@AAEXXZ$1 0041f02c f   StartPop.obj
 0001:0001e035       __unwindfunclet$?startCalibrate@CStartPop@@AAEXXZ$2 0041f035 f   StartPop.obj
 0001:0001e03e       __unwindfunclet$?startCalibrate@CStartPop@@AAEXXZ$3 0041f03e f   StartPop.obj
 0001:0001e047       __unwindfunclet$?startCalibrate@CStartPop@@AAEXXZ$4 0041f047 f   StartPop.obj
 0001:0001e050       __unwindfunclet$?startCalibrate@CStartPop@@AAEXXZ$5 0041f050 f   StartPop.obj
 0001:0001e059       __unwindfunclet$?startCalibrate@CStartPop@@AAEXXZ$6 0041f059 f   StartPop.obj
 0001:0001e062       __unwindfunclet$?startCalibrate@CStartPop@@AAEXXZ$7 0041f062 f   StartPop.obj
 0001:0001e06e       __unwindfunclet$?startCalibrate@CStartPop@@AAEXXZ$8 0041f06e f   StartPop.obj
 0001:0001e077       __unwindfunclet$?startCalibrate@CStartPop@@AAEXXZ$9 0041f077 f   StartPop.obj
 0001:0001e083       __unwindfunclet$?startCalibrate@CStartPop@@AAEXXZ$10 0041f083 f   StartPop.obj
 0001:0001e08c       __unwindfunclet$?startCalibrate@CStartPop@@AAEXXZ$11 0041f08c f   StartPop.obj
 0001:0001e098       __unwindfunclet$?startCalibrate@CStartPop@@AAEXXZ$12 0041f098 f   StartPop.obj
 0001:0001e0a1       __unwindfunclet$?startCalibrate@CStartPop@@AAEXXZ$13 0041f0a1 f   StartPop.obj
 0001:0001e0ad       __unwindfunclet$?startCalibrate@CStartPop@@AAEXXZ$14 0041f0ad f   StartPop.obj
 0001:0001e0b9       __unwindfunclet$?startCalibrate@CStartPop@@AAEXXZ$15 0041f0b9 f   StartPop.obj
 0001:0001e0c2       __unwindfunclet$?startCalibrate@CStartPop@@AAEXXZ$16 0041f0c2 f   StartPop.obj
 0001:0001e0cb       __unwindfunclet$?startCalibrate@CStartPop@@AAEXXZ$17 0041f0cb f   StartPop.obj
 0001:0001e0d4       __unwindfunclet$?startCalibrate@CStartPop@@AAEXXZ$18 0041f0d4 f   StartPop.obj
 0001:0001e0dd       __unwindfunclet$?startCalibrate@CStartPop@@AAEXXZ$19 0041f0dd f   StartPop.obj
 0001:0001e0e9       __unwindfunclet$?startCalibrate@CStartPop@@AAEXXZ$20 0041f0e9 f   StartPop.obj
 0001:0001e0f2       __unwindfunclet$?startCalibrate@CStartPop@@AAEXXZ$21 0041f0f2 f   StartPop.obj
 0001:0001e0fe       __unwindfunclet$?startCalibrate@CStartPop@@AAEXXZ$22 0041f0fe f   StartPop.obj
 0001:0001e107       __ehhandler$?startCalibrate@CStartPop@@AAEXXZ 0041f107 f   StartPop.obj
 0001:0001e125       __unwindfunclet$??1CStatusBar@@UAE@XZ$0 0041f125 f   StatusBar.obj
 0001:0001e125       __unwindfunclet$??0CStatusBar@@QAE@PAVQWidget@@@Z$0 0041f125 f   StatusBar.obj
 0001:0001e12d       __ehhandler$??0CStatusBar@@QAE@PAVQWidget@@@Z 0041f12d f   StatusBar.obj
 0001:0001e12d       __ehhandler$??1CStatusBar@@UAE@XZ 0041f12d f   StatusBar.obj
 0001:0001e148       __unwindfunclet$??1CTitleBar@@UAE@XZ$0 0041f148 f   TitleBar.obj
 0001:0001e148       __unwindfunclet$??0CTitleBar@@QAE@PAVQWidget@@@Z$0 0041f148 f   TitleBar.obj
 0001:0001e150       __unwindfunclet$??1CTitleBar@@UAE@XZ$1 0041f150 f   TitleBar.obj
 0001:0001e150       __unwindfunclet$??0CTitleBar@@QAE@PAVQWidget@@@Z$1 0041f150 f   TitleBar.obj
 0001:0001e15c       __unwindfunclet$??1CTitleBar@@UAE@XZ$2 0041f15c f   TitleBar.obj
 0001:0001e15c       __unwindfunclet$??0CTitleBar@@QAE@PAVQWidget@@@Z$2 0041f15c f   TitleBar.obj
 0001:0001e168       __unwindfunclet$??0CTitleBar@@QAE@PAVQWidget@@@Z$3 0041f168 f   TitleBar.obj
 0001:0001e168       __unwindfunclet$??1CTitleBar@@UAE@XZ$3 0041f168 f   TitleBar.obj
 0001:0001e177       __unwindfunclet$??1CTitleBar@@UAE@XZ$4 0041f177 f   TitleBar.obj
 0001:0001e177       __unwindfunclet$??0CTitleBar@@QAE@PAVQWidget@@@Z$4 0041f177 f   TitleBar.obj
 0001:0001e186       __unwindfunclet$??0CTitleBar@@QAE@PAVQWidget@@@Z$5 0041f186 f   TitleBar.obj
 0001:0001e186       __unwindfunclet$??1CTitleBar@@UAE@XZ$5 0041f186 f   TitleBar.obj
 0001:0001e195       __unwindfunclet$??0CTitleBar@@QAE@PAVQWidget@@@Z$6 0041f195 f   TitleBar.obj
 0001:0001e195       __unwindfunclet$??1CTitleBar@@UAE@XZ$6 0041f195 f   TitleBar.obj
 0001:0001e1a4       __unwindfunclet$??1CTitleBar@@UAE@XZ$7 0041f1a4 f   TitleBar.obj
 0001:0001e1a4       __unwindfunclet$??0CTitleBar@@QAE@PAVQWidget@@@Z$7 0041f1a4 f   TitleBar.obj
 0001:0001e1b3       __unwindfunclet$??1CTitleBar@@UAE@XZ$8 0041f1b3 f   TitleBar.obj
 0001:0001e1b3       __unwindfunclet$??0CTitleBar@@QAE@PAVQWidget@@@Z$8 0041f1b3 f   TitleBar.obj
 0001:0001e1c2       __ehhandler$??0CTitleBar@@QAE@PAVQWidget@@@Z 0041f1c2 f   TitleBar.obj
 0001:0001e1c2       __ehhandler$??1CTitleBar@@UAE@XZ 0041f1c2 f   TitleBar.obj
 0001:0001e1dd       __unwindfunclet$?notify@CTitleBar@@UAEXAAVQString@@@Z$0 0041f1dd f   TitleBar.obj
 0001:0001e1e6       __unwindfunclet$?notify@CTitleBar@@UAEXAAVQString@@@Z$1 0041f1e6 f   TitleBar.obj
 0001:0001e1ef       __unwindfunclet$?notify@CTitleBar@@UAEXAAVQString@@@Z$2 0041f1ef f   TitleBar.obj
 0001:0001e1f8       __unwindfunclet$?notify@CTitleBar@@UAEXAAVQString@@@Z$3 0041f1f8 f   TitleBar.obj
 0001:0001e201       __ehhandler$?notify@CTitleBar@@UAEXAAVQString@@@Z 0041f201 f   TitleBar.obj
 0001:0001e21c       __unwindfunclet$?setTitle@CTitleBar@@QAEXABVQString@@0@Z$0 0041f21c f   TitleBar.obj
 0001:0001e225       __unwindfunclet$?setTitle@CTitleBar@@QAEXABVQString@@0@Z$1 0041f225 f   TitleBar.obj
 0001:0001e22e       __unwindfunclet$?setTitle@CTitleBar@@QAEXABVQString@@0@Z$2 0041f22e f   TitleBar.obj
 0001:0001e237       __ehhandler$?setTitle@CTitleBar@@QAEXABVQString@@0@Z 0041f237 f   TitleBar.obj
 0001:0001e252       __unwindfunclet$?setTitle@CTitleBar@@QAEXABVQString@@@Z$0 0041f252 f   TitleBar.obj
 0001:0001e25b       __unwindfunclet$?setTitle@CTitleBar@@QAEXABVQString@@@Z$1 0041f25b f   TitleBar.obj
 0001:0001e264       __unwindfunclet$?setTitle@CTitleBar@@QAEXABVQString@@@Z$2 0041f264 f   TitleBar.obj
 0001:0001e26d       __ehhandler$?setTitle@CTitleBar@@QAEXABVQString@@@Z 0041f26d f   TitleBar.obj
 0001:0001e288       __unwindfunclet$?startClock@CTitleBar@@QAEXXZ$0 0041f288 f   TitleBar.obj
 0001:0001e291       __unwindfunclet$?startClock@CTitleBar@@QAEXXZ$1 0041f291 f   TitleBar.obj
 0001:0001e29a       __unwindfunclet$?startClock@CTitleBar@@QAEXXZ$2 0041f29a f   TitleBar.obj
 0001:0001e2a3       __unwindfunclet$?startClock@CTitleBar@@QAEXXZ$3 0041f2a3 f   TitleBar.obj
 0001:0001e2ac       __unwindfunclet$?startClock@CTitleBar@@QAEXXZ$4 0041f2ac f   TitleBar.obj
 0001:0001e2b5       __unwindfunclet$?startClock@CTitleBar@@QAEXXZ$5 0041f2b5 f   TitleBar.obj
 0001:0001e2be       __unwindfunclet$?startClock@CTitleBar@@QAEXXZ$6 0041f2be f   TitleBar.obj
 0001:0001e2c7       __unwindfunclet$?startClock@CTitleBar@@QAEXXZ$7 0041f2c7 f   TitleBar.obj
 0001:0001e2d0       __unwindfunclet$?startClock@CTitleBar@@QAEXXZ$8 0041f2d0 f   TitleBar.obj
 0001:0001e2d9       __unwindfunclet$?startClock@CTitleBar@@QAEXXZ$9 0041f2d9 f   TitleBar.obj
 0001:0001e2e2       __unwindfunclet$?startClock@CTitleBar@@QAEXXZ$10 0041f2e2 f   TitleBar.obj
 0001:0001e2eb       __unwindfunclet$?startClock@CTitleBar@@QAEXXZ$11 0041f2eb f   TitleBar.obj
 0001:0001e2f4       __unwindfunclet$?startClock@CTitleBar@@QAEXXZ$12 0041f2f4 f   TitleBar.obj
 0001:0001e2fe       __ehhandler$?startClock@CTitleBar@@QAEXXZ 0041f2fe f   TitleBar.obj
 0001:0001e319       __unwindfunclet$?updateClock@CTitleBar@@QAEXXZ$0 0041f319 f   TitleBar.obj
 0001:0001e322       __unwindfunclet$?updateClock@CTitleBar@@QAEXXZ$1 0041f322 f   TitleBar.obj
 0001:0001e32b       __unwindfunclet$?updateClock@CTitleBar@@QAEXXZ$2 0041f32b f   TitleBar.obj
 0001:0001e334       __unwindfunclet$?updateClock@CTitleBar@@QAEXXZ$3 0041f334 f   TitleBar.obj
 0001:0001e33d       __unwindfunclet$?updateClock@CTitleBar@@QAEXXZ$4 0041f33d f   TitleBar.obj
 0001:0001e346       __unwindfunclet$?updateClock@CTitleBar@@QAEXXZ$5 0041f346 f   TitleBar.obj
 0001:0001e34f       __unwindfunclet$?updateClock@CTitleBar@@QAEXXZ$6 0041f34f f   TitleBar.obj
 0001:0001e358       __unwindfunclet$?updateClock@CTitleBar@@QAEXXZ$7 0041f358 f   TitleBar.obj
 0001:0001e361       __unwindfunclet$?updateClock@CTitleBar@@QAEXXZ$8 0041f361 f   TitleBar.obj
 0001:0001e36a       __unwindfunclet$?updateClock@CTitleBar@@QAEXXZ$9 0041f36a f   TitleBar.obj
 0001:0001e373       __unwindfunclet$?updateClock@CTitleBar@@QAEXXZ$10 0041f373 f   TitleBar.obj
 0001:0001e37c       __unwindfunclet$?updateClock@CTitleBar@@QAEXXZ$11 0041f37c f   TitleBar.obj
 0001:0001e385       __unwindfunclet$?updateClock@CTitleBar@@QAEXXZ$12 0041f385 f   TitleBar.obj
 0001:0001e38e       __unwindfunclet$?updateClock@CTitleBar@@QAEXXZ$13 0041f38e f   TitleBar.obj
 0001:0001e397       __unwindfunclet$?updateClock@CTitleBar@@QAEXXZ$14 0041f397 f   TitleBar.obj
 0001:0001e3a0       __unwindfunclet$?updateClock@CTitleBar@@QAEXXZ$15 0041f3a0 f   TitleBar.obj
 0001:0001e3a9       __ehhandler$?updateClock@CTitleBar@@QAEXXZ 0041f3a9 f   TitleBar.obj
 0001:0001e3c4       __unwindfunclet$??0wait@@QAE@PAVQWidget@@PBDI@Z$0 0041f3c4 f   waitimpl.obj
 0001:0001e3cd       __unwindfunclet$??0wait@@QAE@PAVQWidget@@PBDI@Z$1 0041f3cd f   waitimpl.obj
 0001:0001e3d8       __unwindfunclet$??0wait@@QAE@PAVQWidget@@PBDI@Z$2 0041f3d8 f   waitimpl.obj
 0001:0001e3e1       __unwindfunclet$??0wait@@QAE@PAVQWidget@@PBDI@Z$3 0041f3e1 f   waitimpl.obj
 0001:0001e3ed       __ehhandler$??0wait@@QAE@PAVQWidget@@PBDI@Z 0041f3ed f   waitimpl.obj
 0001:0001e40b       __unwindfunclet$?paintEvent@bncs_popup@@UAEXPAVQPaintEvent@@@Z$0 0041f40b f   waitimpl.obj
 0001:0001e40b       __unwindfunclet$?paintEvent@wait@@UAEXPAVQPaintEvent@@@Z$0 0041f40b f   waitimpl.obj
 0001:0001e417       __unwindfunclet$?paintEvent@wait@@UAEXPAVQPaintEvent@@@Z$1 0041f417 f   waitimpl.obj
 0001:0001e417       __unwindfunclet$?paintEvent@bncs_popup@@UAEXPAVQPaintEvent@@@Z$1 0041f417 f   waitimpl.obj
 0001:0001e420       __ehhandler$?paintEvent@bncs_popup@@UAEXPAVQPaintEvent@@@Z 0041f420 f   waitimpl.obj
 0001:0001e420       __ehhandler$?paintEvent@wait@@UAEXPAVQPaintEvent@@@Z 0041f420 f   waitimpl.obj
 0001:0001e43e       __unwindfunclet$?resizeEvent@wait@@UAEXPAVQResizeEvent@@@Z$0 0041f43e f   waitimpl.obj
 0001:0001e447       __unwindfunclet$?resizeEvent@wait@@UAEXPAVQResizeEvent@@@Z$1 0041f447 f   waitimpl.obj
 0001:0001e453       __unwindfunclet$?resizeEvent@wait@@UAEXPAVQResizeEvent@@@Z$2 0041f453 f   waitimpl.obj
 0001:0001e45c       __ehhandler$?resizeEvent@wait@@UAEXPAVQResizeEvent@@@Z 0041f45c f   waitimpl.obj
 0001:0001e47a       __unwindfunclet$?staticMetaObject@CAppBar@@SAPAVQMetaObject@@XZ$0 0041f47a f   moc_AppBar.obj
 0001:0001e488       __unwindfunclet$?staticMetaObject@CAppBar@@SAPAVQMetaObject@@XZ$1 0041f488 f   moc_AppBar.obj
 0001:0001e496       __ehhandler$?staticMetaObject@CAppBar@@SAPAVQMetaObject@@XZ 0041f496 f   moc_AppBar.obj
 0001:0001e4b1       __unwindfunclet$?staticMetaObject@bncs_multicast@@SAPAVQMetaObject@@XZ$0 0041f4b1 f   moc_bncs_multicast.obj
 0001:0001e4bf       __ehhandler$?staticMetaObject@bncs_multicast@@SAPAVQMetaObject@@XZ 0041f4bf f   moc_bncs_multicast.obj
 0001:0001e4da       __unwindfunclet$?staticMetaObject@CConfirm_Exit@@SAPAVQMetaObject@@XZ$0 0041f4da f   moc_Confirm_Exit.obj
 0001:0001e4e8       __unwindfunclet$?staticMetaObject@CConfirm_Exit@@SAPAVQMetaObject@@XZ$1 0041f4e8 f   moc_Confirm_Exit.obj
 0001:0001e4f6       __ehhandler$?staticMetaObject@CConfirm_Exit@@SAPAVQMetaObject@@XZ 0041f4f6 f   moc_Confirm_Exit.obj
 0001:0001e511       __unwindfunclet$?staticMetaObject@CSimpleBar@@SAPAVQMetaObject@@XZ$0 0041f511 f   moc_SimpleBar.obj
 0001:0001e51f       __ehhandler$?staticMetaObject@CSimpleBar@@SAPAVQMetaObject@@XZ 0041f51f f   moc_SimpleBar.obj
 0001:0001e53a       __unwindfunclet$?staticMetaObject@CStartPop@@SAPAVQMetaObject@@XZ$0 0041f53a f   moc_StartPop.obj
 0001:0001e548       __ehhandler$?staticMetaObject@CStartPop@@SAPAVQMetaObject@@XZ 0041f548 f   moc_StartPop.obj
 0001:0001e563       __unwindfunclet$?staticMetaObject@CStatusBar@@SAPAVQMetaObject@@XZ$0 0041f563 f   moc_StatusBar.obj
 0001:0001e571       __ehhandler$?staticMetaObject@CStatusBar@@SAPAVQMetaObject@@XZ 0041f571 f   moc_StatusBar.obj
 0001:0001e58c       __unwindfunclet$?staticMetaObject@CTitleBar@@SAPAVQMetaObject@@XZ$0 0041f58c f   moc_TitleBar.obj
 0001:0001e59a       __ehhandler$?staticMetaObject@CTitleBar@@SAPAVQMetaObject@@XZ 0041f59a f   moc_TitleBar.obj
 0001:0001e5b5       ??__F?_Generic_object@?$_Error_objects@H@std@@2V_Generic_error_category@2@A@@YAXXZ 0041f5b5 f   AdjustMon.obj
 0001:0001e5d5       ??__F?_Iostream_object@?$_Error_objects@H@std@@2V_Iostream_error_category@2@A@@YAXXZ 0041f5d5 f   AdjustMon.obj
 0001:0001e5f5       ??__F?_System_object@?$_Error_objects@H@std@@2V_System_error_category@2@A@@YAXXZ 0041f5f5 f   AdjustMon.obj
 0001:0001e615       ??__FgResC@@YAXXZ          0041f615 f   AppView.obj
 0001:0001e61f       ??__FstrLastPanel@@YAXXZ   0041f61f f   main.obj
 0001:0001e63e       ??__FcleanUp_bncs_popup@@YAXXZ 0041f63e f   moc_bncs_popup.obj
 0001:0001e649       ??__F?m_defaultTitle@CPanelMan@@0VQString@@A@@YAXXZ 0041f649 f   PanelMan.obj
 0001:0001e668       ??__FcleanUp_CAppBar@@YAXXZ 0041f668 f   moc_AppBar.obj
 0001:0001e673       ??__FcleanUp_CAppSwitch@@YAXXZ 0041f673 f   moc_AppSwitch.obj
 0001:0001e67e       ??__FcleanUp_bncs_multicast@@YAXXZ 0041f67e f   moc_bncs_multicast.obj
 0001:0001e689       ??__FcleanUp_CConfirm_Exit@@YAXXZ 0041f689 f   moc_Confirm_Exit.obj
 0001:0001e694       ??__FcleanUp_CPanelMan@@YAXXZ 0041f694 f   moc_PanelMan.obj
 0001:0001e69f       ??__FcleanUp_CSimpleBar@@YAXXZ 0041f69f f   moc_SimpleBar.obj
 0001:0001e6aa       ??__FcleanUp_CStartPop@@YAXXZ 0041f6aa f   moc_StartPop.obj
 0001:0001e6b5       ??__FcleanUp_CStatusBar@@YAXXZ 0041f6b5 f   moc_StatusBar.obj
 0001:0001e6c0       ??__FcleanUp_CTitleBar@@YAXXZ 0041f6c0 f   moc_TitleBar.obj
 0001:0001e6cb       ??__FcleanUp_wait@@YAXXZ   0041f6cb f   moc_waitimpl.obj
 0001:0001e6d6       ??__FcleanUp_config_mb4@@YAXXZ 0041f6d6 f   cfg_widgets001:moc_config_mb4impl.obj
 0002:00002028       _pcppinit                  00422028     MSVCRT:crtexew.obj
 0002:0000202c       ?_Generic_object$initializer$@?$_Error_objects@H@std@@2P6AXXZA 0042202c     AdjustMon.obj
 0002:00002030       ?_Iostream_object$initializer$@?$_Error_objects@H@std@@2P6AXXZA 00422030     AdjustMon.obj
 0002:00002034       ?_System_object$initializer$@?$_Error_objects@H@std@@2P6AXXZA 00422034     AdjustMon.obj
 0002:00002038       _gResC$initializer$        00422038     AppView.obj
 0002:0000203c       _strLastPanel$initializer$ 0042203c     main.obj
 0002:00002040       _cleanUp_bncs_popup$initializer$ 00422040     moc_bncs_popup.obj
 0002:00002044       ?m_defaultTitle$initializer$@CPanelMan@@0P6AXXZA 00422044     PanelMan.obj
 0002:00002048       _cleanUp_CAppBar$initializer$ 00422048     moc_AppBar.obj
 0002:0000204c       _cleanUp_CAppSwitch$initializer$ 0042204c     moc_AppSwitch.obj
 0002:00002050       _cleanUp_bncs_multicast$initializer$ 00422050     moc_bncs_multicast.obj
 0002:00002054       _cleanUp_CConfirm_Exit$initializer$ 00422054     moc_Confirm_Exit.obj
 0002:00002058       _cleanUp_CPanelMan$initializer$ 00422058     moc_PanelMan.obj
 0002:0000205c       _cleanUp_CSimpleBar$initializer$ 0042205c     moc_SimpleBar.obj
 0002:00002060       _cleanUp_CStartPop$initializer$ 00422060     moc_StartPop.obj
 0002:00002064       _cleanUp_CStatusBar$initializer$ 00422064     moc_StatusBar.obj
 0002:00002068       _cleanUp_CTitleBar$initializer$ 00422068     moc_TitleBar.obj
 0002:0000206c       _cleanUp_wait$initializer$ 0042206c     moc_waitimpl.obj
 0002:00002070       _cleanUp_config_mb4$initializer$ 00422070     cfg_widgets001:moc_config_mb4impl.obj
 0002:00002074       _$S186                     00422074     qui:qwidgetfactory.obj
 0002:00002078       _$S191                     00422078     qui:qwidgetfactory.obj
 0002:0000207c       _$S104                     0042207c     qui:moc_database2.obj
 0002:00002080       _$S109                     00422080     qui:moc_database2.obj
 0002:0000208c       _pcinit                    0042208c     MSVCRT:crtexew.obj
 0002:00002090       _pinit                     00422090     MSVCRT:atonexit.obj
 0002:00002094       _pinit                     00422094     MSVCRT:crtexew.obj
 0002:00004810       ?w@?2??md5_process@@9@9    00424810     md5.obj
 0002:00004818       ?pad@?1??md5_finish@@9@9   00424818     md5.obj
 0002:00004864       ?slot_0@?3??staticMetaObject@bncs_popup@@SAPAVQMetaObject@@XZ@4UQUMethod@@B 00424864     moc_bncs_popup.obj
 0002:0000487c       ?slot_1@?3??staticMetaObject@bncs_popup@@SAPAVQMetaObject@@XZ@4UQUMethod@@B 0042487c     moc_bncs_popup.obj
 0002:00004898       ?slot_tbl@?3??staticMetaObject@bncs_popup@@SAPAVQMetaObject@@XZ@4QBUQMetaData@@B 00424898     moc_bncs_popup.obj
 0002:000048d4       ?signal_0@?3??staticMetaObject@bncs_popup@@SAPAVQMetaObject@@XZ@4UQUMethod@@B 004248d4     moc_bncs_popup.obj
 0002:000048e8       ?signal_1@?3??staticMetaObject@bncs_popup@@SAPAVQMetaObject@@XZ@4UQUMethod@@B 004248e8     moc_bncs_popup.obj
 0002:000048fc       ?signal_tbl@?3??staticMetaObject@bncs_popup@@SAPAVQMetaObject@@XZ@4QBUQMetaData@@B 004248fc     moc_bncs_popup.obj
 0002:00007768       ?slot_0@?3??staticMetaObject@CAppBar@@SAPAVQMetaObject@@XZ@4UQUMethod@@B 00427768     moc_AppBar.obj
 0002:00007784       ?slot_1@?3??staticMetaObject@CAppBar@@SAPAVQMetaObject@@XZ@4UQUMethod@@B 00427784     moc_AppBar.obj
 0002:000077a0       ?slot_2@?3??staticMetaObject@CAppBar@@SAPAVQMetaObject@@XZ@4UQUMethod@@B 004277a0     moc_AppBar.obj
 0002:000077ac       ?slot_3@?3??staticMetaObject@CAppBar@@SAPAVQMetaObject@@XZ@4UQUMethod@@B 004277ac     moc_AppBar.obj
 0002:000077b8       ?slot_4@?3??staticMetaObject@CAppBar@@SAPAVQMetaObject@@XZ@4UQUMethod@@B 004277b8     moc_AppBar.obj
 0002:000077d0       ?slot_tbl@?3??staticMetaObject@CAppBar@@SAPAVQMetaObject@@XZ@4QBUQMetaData@@B 004277d0     moc_AppBar.obj
 0002:00007858       ?slot_0@?3??staticMetaObject@CAppSwitch@@SAPAVQMetaObject@@XZ@4UQUMethod@@B 00427858     moc_AppSwitch.obj
 0002:00007864       ?slot_1@?3??staticMetaObject@CAppSwitch@@SAPAVQMetaObject@@XZ@4UQUMethod@@B 00427864     moc_AppSwitch.obj
 0002:00007880       ?slot_tbl@?3??staticMetaObject@CAppSwitch@@SAPAVQMetaObject@@XZ@4QBUQMetaData@@B 00427880     moc_AppSwitch.obj
 0002:000078bc       ?slot_0@?3??staticMetaObject@bncs_multicast@@SAPAVQMetaObject@@XZ@4UQUMethod@@B 004278bc     moc_bncs_multicast.obj
 0002:000078d0       ?slot_tbl@?3??staticMetaObject@bncs_multicast@@SAPAVQMetaObject@@XZ@4QBUQMetaData@@B 004278d0     moc_bncs_multicast.obj
 0002:000078f8       ?slot_0@?3??staticMetaObject@CConfirm_Exit@@SAPAVQMetaObject@@XZ@4UQUMethod@@B 004278f8     moc_Confirm_Exit.obj
 0002:0000790c       ?slot_1@?3??staticMetaObject@CConfirm_Exit@@SAPAVQMetaObject@@XZ@4UQUMethod@@B 0042790c     moc_Confirm_Exit.obj
 0002:00007920       ?slot_tbl@?3??staticMetaObject@CConfirm_Exit@@SAPAVQMetaObject@@XZ@4QBUQMetaData@@B 00427920     moc_Confirm_Exit.obj
 0002:0000796c       ?slot_0@?3??staticMetaObject@CPanelMan@@SAPAVQMetaObject@@XZ@4UQUMethod@@B 0042796c     moc_PanelMan.obj
 0002:00007978       ?slot_1@?3??staticMetaObject@CPanelMan@@SAPAVQMetaObject@@XZ@4UQUMethod@@B 00427978     moc_PanelMan.obj
 0002:0000798c       ?slot_tbl@?3??staticMetaObject@CPanelMan@@SAPAVQMetaObject@@XZ@4QBUQMetaData@@B 0042798c     moc_PanelMan.obj
 0002:000079bc       ?slot_0@?3??staticMetaObject@CSimpleBar@@SAPAVQMetaObject@@XZ@4UQUMethod@@B 004279bc     moc_SimpleBar.obj
 0002:000079c8       ?slot_tbl@?3??staticMetaObject@CSimpleBar@@SAPAVQMetaObject@@XZ@4QBUQMetaData@@B 004279c8     moc_SimpleBar.obj
 0002:000079e0       ?slot_0@?3??staticMetaObject@CStartPop@@SAPAVQMetaObject@@XZ@4UQUMethod@@B 004279e0     moc_StartPop.obj
 0002:000079ec       ?slot_1@?3??staticMetaObject@CStartPop@@SAPAVQMetaObject@@XZ@4UQUMethod@@B 004279ec     moc_StartPop.obj
 0002:000079f8       ?slot_2@?3??staticMetaObject@CStartPop@@SAPAVQMetaObject@@XZ@4UQUMethod@@B 004279f8     moc_StartPop.obj
 0002:00007a14       ?slot_tbl@?3??staticMetaObject@CStartPop@@SAPAVQMetaObject@@XZ@4QBUQMetaData@@B 00427a14     moc_StartPop.obj
 0002:00007a58       ?slot_0@?3??staticMetaObject@CStatusBar@@SAPAVQMetaObject@@XZ@4UQUMethod@@B 00427a58     moc_StatusBar.obj
 0002:00007a64       ?slot_tbl@?3??staticMetaObject@CStatusBar@@SAPAVQMetaObject@@XZ@4QBUQMetaData@@B 00427a64     moc_StatusBar.obj
 0002:00007a7c       ?slot_0@?3??staticMetaObject@CTitleBar@@SAPAVQMetaObject@@XZ@4UQUMethod@@B 00427a7c     moc_TitleBar.obj
 0002:00007a88       ?slot_1@?3??staticMetaObject@CTitleBar@@SAPAVQMetaObject@@XZ@4UQUMethod@@B 00427a88     moc_TitleBar.obj
 0002:00007aa0       ?slot_tbl@?3??staticMetaObject@CTitleBar@@SAPAVQMetaObject@@XZ@4QBUQMetaData@@B 00427aa0     moc_TitleBar.obj
 0002:00007f08       ?slot_0@?3??staticMetaObject@config_mb4@@SAPAVQMetaObject@@XZ@4UQUMethod@@B 00427f08     cfg_widgets001:moc_config_mb4impl.obj
 0002:00007f24       ?slot_tbl@?3??staticMetaObject@config_mb4@@SAPAVQMetaObject@@XZ@4QBUQMetaData@@B 00427f24     cfg_widgets001:moc_config_mb4impl.obj
 0002:00007f44       _TRUE                      00427f44     qui:qwidgetfactory.obj
 0002:0000d3a8       _commonStrings             0042d3a8     qui:uib.obj
 0002:0000d7d4       _GS_ExceptionPointers      0042d7d4     MSVCRT:gs_report.obj
 0002:0000f1e8       __ehfuncinfo$??0CAdjustMon@@QAE@PAVQWidget@@@Z 0042f1e8     AdjustMon.obj
 0002:0000f20c       __unwindtable$??0CAdjustMon@@QAE@PAVQWidget@@@Z 0042f20c     AdjustMon.obj
 0002:0000f244       __unwindtable$??1CAdjustMon@@UAE@XZ 0042f244     AdjustMon.obj
 0002:0000f254       __ehfuncinfo$??1CAdjustMon@@UAE@XZ 0042f254     AdjustMon.obj
 0002:0000f278       __ehfuncinfo$?adjustRev@CAdjustMon@@QAEXPBD@Z 0042f278     AdjustMon.obj
 0002:0000f29c       __unwindtable$?adjustRev@CAdjustMon@@QAEXPBD@Z 0042f29c     AdjustMon.obj
 0002:0000f424       __ehfuncinfo$?adjust@CAdjustMon@@AAEXVQString@@@Z 0042f424     AdjustMon.obj
 0002:0000f448       __unwindtable$?adjust@CAdjustMon@@AAEXVQString@@@Z 0042f448     AdjustMon.obj
 0002:0000f5b8       __ehfuncinfo$?checkAdjust@CAdjustMon@@AAE?AVQString@@V2@@Z 0042f5b8     AdjustMon.obj
 0002:0000f5dc       __unwindtable$?checkAdjust@CAdjustMon@@AAE?AVQString@@V2@@Z 0042f5dc     AdjustMon.obj
 0002:0000f624       __ehfuncinfo$?textCallback@CAdjustMon@@EAEXPBDH@Z 0042f624     AdjustMon.obj
 0002:0000f648       __unwindtable$?textCallback@CAdjustMon@@EAEXPBDH@Z 0042f648     AdjustMon.obj
 0002:0000f7f8       __catchsym$?_Copy@?$basic_string@DU?$char_traits@D@std@@V?$allocator@D@2@@std@@QAEXII@Z$6 0042f7f8     AdjustMon.obj
 0002:0000f808       __catchsym$?_Copy@?$basic_string@DU?$char_traits@D@std@@V?$allocator@D@2@@std@@QAEXII@Z$5 0042f808     AdjustMon.obj
 0002:0000f818       __ehfuncinfo$?_Copy@?$basic_string@DU?$char_traits@D@std@@V?$allocator@D@2@@std@@QAEXII@Z 0042f818     AdjustMon.obj
 0002:0000f83c       __tryblocktable$?_Copy@?$basic_string@DU?$char_traits@D@std@@V?$allocator@D@2@@std@@QAEXII@Z 0042f83c     AdjustMon.obj
 0002:0000f864       __unwindtable$?_Copy@?$basic_string@DU?$char_traits@D@std@@V?$allocator@D@2@@std@@QAEXII@Z 0042f864     AdjustMon.obj
 0002:0000f88c       __unwindtable$??_G_Generic_error_category@std@@UAEPAXI@Z 0042f88c     AdjustMon.obj
 0002:0000f88c       __unwindtable$??1_Generic_error_category@std@@UAE@XZ 0042f88c     AdjustMon.obj
 0002:0000f894       __ehfuncinfo$??_G_Generic_error_category@std@@UAEPAXI@Z 0042f894     AdjustMon.obj
 0002:0000f894       __ehfuncinfo$??1_Generic_error_category@std@@UAE@XZ 0042f894     AdjustMon.obj
 0002:0000f8b8       __unwindtable$?message@_Generic_error_category@std@@UBE?AV?$basic_string@DU?$char_traits@D@std@@V?$allocator@D@2@@2@H@Z 0042f8b8     AdjustMon.obj
 0002:0000f8b8       __unwindtable$?message@_Iostream_error_category@std@@UBE?AV?$basic_string@DU?$char_traits@D@std@@V?$allocator@D@2@@2@H@Z 0042f8b8     AdjustMon.obj
 0002:0000f8b8       __unwindtable$?message@_System_error_category@std@@UBE?AV?$basic_string@DU?$char_traits@D@std@@V?$allocator@D@2@@2@H@Z 0042f8b8     AdjustMon.obj
 0002:0000f8c0       __ehfuncinfo$?message@_System_error_category@std@@UBE?AV?$basic_string@DU?$char_traits@D@std@@V?$allocator@D@2@@2@H@Z 0042f8c0     AdjustMon.obj
 0002:0000f8c0       __ehfuncinfo$?message@_Iostream_error_category@std@@UBE?AV?$basic_string@DU?$char_traits@D@std@@V?$allocator@D@2@@2@H@Z 0042f8c0     AdjustMon.obj
 0002:0000f8c0       __ehfuncinfo$?message@_Generic_error_category@std@@UBE?AV?$basic_string@DU?$char_traits@D@std@@V?$allocator@D@2@@2@H@Z 0042f8c0     AdjustMon.obj
 0002:0000f8e4       __unwindtable$??_G_System_error_category@std@@UAEPAXI@Z 0042f8e4     AdjustMon.obj
 0002:0000f8e4       __unwindtable$??_G_Iostream_error_category@std@@UAEPAXI@Z 0042f8e4     AdjustMon.obj
 0002:0000f8f4       __ehfuncinfo$??_G_Iostream_error_category@std@@UAEPAXI@Z 0042f8f4     AdjustMon.obj
 0002:0000f8f4       __ehfuncinfo$??_G_System_error_category@std@@UAEPAXI@Z 0042f8f4     AdjustMon.obj
 0002:0000f918       __ehfuncinfo$??1signalConnection@@QAE@XZ 0042f918     AdjustMon.obj
 0002:0000f918       __ehfuncinfo$??0signalConnection@@QAE@ABVQString@@0000@Z 0042f918     AdjustMon.obj
 0002:0000f918       __ehfuncinfo$??0signalConnection@@QAE@ABV0@@Z 0042f918     AdjustMon.obj
 0002:0000f93c       __unwindtable$??0signalConnection@@QAE@ABV0@@Z 0042f93c     AdjustMon.obj
 0002:0000f93c       __unwindtable$??0signalConnection@@QAE@ABVQString@@0000@Z 0042f93c     AdjustMon.obj
 0002:0000f93c       __unwindtable$??1signalConnection@@QAE@XZ 0042f93c     AdjustMon.obj
 0002:0000f964       __unwindtable$??1?$QPtrList@VQString@@@@UAE@XZ 0042f964     AdjustMon.obj
 0002:0000f964       __unwindtable$??0?$QPtrList@VsignalConnection@@@@QAE@XZ 0042f964     AdjustMon.obj
 0002:0000f964       __unwindtable$??0?$QPtrList@VsignalConnection@@@@QAE@ABV0@@Z 0042f964     AdjustMon.obj
 0002:0000f964       __unwindtable$??0?$QPtrList@VQString@@@@QAE@XZ 0042f964     AdjustMon.obj
 0002:0000f964       __unwindtable$??1?$QPtrList@VsignalConnection@@@@UAE@XZ 0042f964     AdjustMon.obj
 0002:0000f96c       __ehfuncinfo$??1?$QPtrList@VsignalConnection@@@@UAE@XZ 0042f96c     AdjustMon.obj
 0002:0000f96c       __ehfuncinfo$??0?$QPtrList@VsignalConnection@@@@QAE@ABV0@@Z 0042f96c     AdjustMon.obj
 0002:0000f96c       __ehfuncinfo$??1?$QPtrList@VQString@@@@UAE@XZ 0042f96c     AdjustMon.obj
 0002:0000f96c       __ehfuncinfo$??0?$QPtrList@VQString@@@@QAE@XZ 0042f96c     AdjustMon.obj
 0002:0000f96c       __ehfuncinfo$??0?$QPtrList@VsignalConnection@@@@QAE@XZ 0042f96c     AdjustMon.obj
 0002:0000f990       __unwindtable$??0signalConnectionRefList@@QAE@ABV0@@Z 0042f990     AdjustMon.obj
 0002:0000f990       __unwindtable$??0signalConnectionRefList@@QAE@XZ 0042f990     AdjustMon.obj
 0002:0000f990       __unwindtable$??1signalConnectionRefList@@UAE@XZ 0042f990     AdjustMon.obj
 0002:0000f998       __ehfuncinfo$??1signalConnectionRefList@@UAE@XZ 0042f998     AdjustMon.obj
 0002:0000f998       __ehfuncinfo$??0signalConnectionRefList@@QAE@ABV0@@Z 0042f998     AdjustMon.obj
 0002:0000f998       __ehfuncinfo$??0signalConnectionRefList@@QAE@XZ 0042f998     AdjustMon.obj
 0002:0000f9bc       __unwindtable$??1?$QPtrListIterator@VsignalConnection@@@@QAE@XZ 0042f9bc     AdjustMon.obj
 0002:0000f9bc       __unwindtable$??0?$QPtrListIterator@VsignalConnection@@@@QAE@ABV0@@Z 0042f9bc     AdjustMon.obj
 0002:0000f9bc       __unwindtable$??0?$QPtrListIterator@VsignalConnection@@@@QAE@ABV?$QPtrList@VsignalConnection@@@@@Z 0042f9bc     AdjustMon.obj
 0002:0000f9c4       __ehfuncinfo$??0?$QPtrListIterator@VsignalConnection@@@@QAE@ABV0@@Z 0042f9c4     AdjustMon.obj
 0002:0000f9c4       __ehfuncinfo$??1?$QPtrListIterator@VsignalConnection@@@@QAE@XZ 0042f9c4     AdjustMon.obj
 0002:0000f9c4       __ehfuncinfo$??0?$QPtrListIterator@VsignalConnection@@@@QAE@ABV?$QPtrList@VsignalConnection@@@@@Z 0042f9c4     AdjustMon.obj
 0002:0000f9e8       __unwindtable$??0signalConnectionRefListIt@@QAE@ABVsignalConnectionRefList@@@Z 0042f9e8     AdjustMon.obj
 0002:0000f9e8       __unwindtable$??0signalConnectionRefListIt@@QAE@ABV0@@Z 0042f9e8     AdjustMon.obj
 0002:0000f9f8       __ehfuncinfo$??0signalConnectionRefListIt@@QAE@ABV0@@Z 0042f9f8     AdjustMon.obj
 0002:0000f9f8       __ehfuncinfo$??0signalConnectionRefListIt@@QAE@ABVsignalConnectionRefList@@@Z 0042f9f8     AdjustMon.obj
 0002:0000fa1c       __unwindtable$??1signalConnectionRefListIt@@QAE@XZ 0042fa1c     AdjustMon.obj
 0002:0000fa2c       __ehfuncinfo$??1signalConnectionRefListIt@@QAE@XZ 0042fa2c     AdjustMon.obj
 0002:0000fa50       __unwindtable$?path@global@@SA?AVQString@@XZ 0042fa50     AdjustMon.obj
 0002:0000fa68       __ehfuncinfo$?path@global@@SA?AVQString@@XZ 0042fa68     AdjustMon.obj
 0002:0000fa8c       __unwindtable$??A?$QMap@VQString@@VparamInfo@@@@QAEAAVparamInfo@@ABVQString@@@Z 0042fa8c     AdjustMon.obj
 0002:0000fa94       __ehfuncinfo$??A?$QMap@VQString@@VparamInfo@@@@QAEAAVparamInfo@@ABVQString@@@Z 0042fa94     AdjustMon.obj
 0002:0000fab8       __unwindtable$?values@?$QMap@VQString@@VcomplexInstance@@@@QBE?AV?$QValueList@VcomplexInstance@@@@XZ 0042fab8     AdjustMon.obj
 0002:0000fab8       __unwindtable$?values@?$QMap@VQString@@VinstanceInfo@@@@QBE?AV?$QValueList@VinstanceInfo@@@@XZ 0042fab8     AdjustMon.obj
 0002:0000fab8       __unwindtable$?values@?$QMap@VQString@@VdeviceTypeInfo@@@@QBE?AV?$QValueList@VdeviceTypeInfo@@@@XZ 0042fab8     AdjustMon.obj
 0002:0000fab8       __unwindtable$?values@?$QMap@VQString@@VcomplexParam@@@@QBE?AV?$QValueList@VcomplexParam@@@@XZ 0042fab8     AdjustMon.obj
 0002:0000fab8       __unwindtable$?values@?$QMap@VQString@@VcomplexType@@@@QBE?AV?$QValueList@VcomplexType@@@@XZ 0042fab8     AdjustMon.obj
 0002:0000fab8       __unwindtable$?values@?$QMap@VQString@@VparamInfo@@@@QBE?AV?$QValueList@VparamInfo@@@@XZ 0042fab8     AdjustMon.obj
 0002:0000fac0       __ehfuncinfo$?values@?$QMap@VQString@@VparamInfo@@@@QBE?AV?$QValueList@VparamInfo@@@@XZ 0042fac0     AdjustMon.obj
 0002:0000fac0       __ehfuncinfo$?values@?$QMap@VQString@@VinstanceInfo@@@@QBE?AV?$QValueList@VinstanceInfo@@@@XZ 0042fac0     AdjustMon.obj
 0002:0000fac0       __ehfuncinfo$?values@?$QMap@VQString@@VcomplexParam@@@@QBE?AV?$QValueList@VcomplexParam@@@@XZ 0042fac0     AdjustMon.obj
 0002:0000fac0       __ehfuncinfo$?values@?$QMap@VQString@@VcomplexType@@@@QBE?AV?$QValueList@VcomplexType@@@@XZ 0042fac0     AdjustMon.obj
 0002:0000fac0       __ehfuncinfo$?values@?$QMap@VQString@@VcomplexInstance@@@@QBE?AV?$QValueList@VcomplexInstance@@@@XZ 0042fac0     AdjustMon.obj
 0002:0000fac0       __ehfuncinfo$?values@?$QMap@VQString@@VdeviceTypeInfo@@@@QBE?AV?$QValueList@VdeviceTypeInfo@@@@XZ 0042fac0     AdjustMon.obj
 0002:0000fae4       __unwindtable$??A?$QMap@VQString@@VcomplexParam@@@@QAEAAVcomplexParam@@ABVQString@@@Z 0042fae4     AdjustMon.obj
 0002:0000faec       __ehfuncinfo$??A?$QMap@VQString@@VcomplexParam@@@@QAEAAVcomplexParam@@ABVQString@@@Z 0042faec     AdjustMon.obj
 0002:0000fb10       __unwindtable$??A?$QMap@VQString@@VcomplexInstance@@@@QAEAAVcomplexInstance@@ABVQString@@@Z 0042fb10     AdjustMon.obj
 0002:0000fb18       __ehfuncinfo$??A?$QMap@VQString@@VcomplexInstance@@@@QAEAAVcomplexInstance@@ABVQString@@@Z 0042fb18     AdjustMon.obj
 0002:0000fb3c       __unwindtable$??A?$QMap@VQString@@VinstanceInfo@@@@QAEAAVinstanceInfo@@ABVQString@@@Z 0042fb3c     AdjustMon.obj
 0002:0000fb44       __ehfuncinfo$??A?$QMap@VQString@@VinstanceInfo@@@@QAEAAVinstanceInfo@@ABVQString@@@Z 0042fb44     AdjustMon.obj
 0002:0000fb68       __unwindtable$??A?$QMap@VQString@@VdeviceTypeInfo@@@@QAEAAVdeviceTypeInfo@@ABVQString@@@Z 0042fb68     AdjustMon.obj
 0002:0000fb70       __ehfuncinfo$??A?$QMap@VQString@@VdeviceTypeInfo@@@@QAEAAVdeviceTypeInfo@@ABVQString@@@Z 0042fb70     AdjustMon.obj
 0002:0000fb94       __unwindtable$??A?$QMap@VQString@@VcomplexType@@@@QAEAAVcomplexType@@ABVQString@@@Z 0042fb94     AdjustMon.obj
 0002:0000fb9c       __ehfuncinfo$??A?$QMap@VQString@@VcomplexType@@@@QAEAAVcomplexType@@ABVQString@@@Z 0042fb9c     AdjustMon.obj
 0002:0000fbc0       __unwindtable$?keys@?$QMap@VQString@@VcomplexInstance@@@@QBE?AV?$QValueList@VQString@@@@XZ 0042fbc0     AdjustMon.obj
 0002:0000fbc0       __unwindtable$?keys@?$QMap@VQString@@VinstanceInfo@@@@QBE?AV?$QValueList@VQString@@@@XZ 0042fbc0     AdjustMon.obj
 0002:0000fbc0       __unwindtable$?keys@?$QMap@VQString@@VdeviceTypeInfo@@@@QBE?AV?$QValueList@VQString@@@@XZ 0042fbc0     AdjustMon.obj
 0002:0000fbc0       __unwindtable$?keys@?$QMap@VQString@@VcomplexParam@@@@QBE?AV?$QValueList@VQString@@@@XZ 0042fbc0     AdjustMon.obj
 0002:0000fbc0       __unwindtable$?keys@?$QMap@VQString@@VcomplexType@@@@QBE?AV?$QValueList@VQString@@@@XZ 0042fbc0     AdjustMon.obj
 0002:0000fbc0       __unwindtable$?keys@?$QMap@VQString@@VparamInfo@@@@QBE?AV?$QValueList@VQString@@@@XZ 0042fbc0     AdjustMon.obj
 0002:0000fbc8       __ehfuncinfo$?keys@?$QMap@VQString@@VparamInfo@@@@QBE?AV?$QValueList@VQString@@@@XZ 0042fbc8     AdjustMon.obj
 0002:0000fbc8       __ehfuncinfo$?keys@?$QMap@VQString@@VinstanceInfo@@@@QBE?AV?$QValueList@VQString@@@@XZ 0042fbc8     AdjustMon.obj
 0002:0000fbc8       __ehfuncinfo$?keys@?$QMap@VQString@@VcomplexInstance@@@@QBE?AV?$QValueList@VQString@@@@XZ 0042fbc8     AdjustMon.obj
 0002:0000fbc8       __ehfuncinfo$?keys@?$QMap@VQString@@VdeviceTypeInfo@@@@QBE?AV?$QValueList@VQString@@@@XZ 0042fbc8     AdjustMon.obj
 0002:0000fbc8       __ehfuncinfo$?keys@?$QMap@VQString@@VcomplexType@@@@QBE?AV?$QValueList@VQString@@@@XZ 0042fbc8     AdjustMon.obj
 0002:0000fbc8       __ehfuncinfo$?keys@?$QMap@VQString@@VcomplexParam@@@@QBE?AV?$QValueList@VQString@@@@XZ 0042fbc8     AdjustMon.obj
 0002:0000fbec       __unwindtable$?copy@?$QMapPrivate@VQString@@VcomplexInstance@@@@QAEPAU?$QMapNode@VQString@@VcomplexInstance@@@@PAU2@@Z 0042fbec     AdjustMon.obj
 0002:0000fbec       __unwindtable$??0?$QMapPrivate@VQString@@VparamInfo@@@@QAE@PBV0@@Z 0042fbec     AdjustMon.obj
 0002:0000fbec       __unwindtable$?copy@?$QMapPrivate@VQString@@VcomplexType@@@@QAEPAU?$QMapNode@VQString@@VcomplexType@@@@PAU2@@Z 0042fbec     AdjustMon.obj
 0002:0000fbec       __unwindtable$?copy@?$QMapPrivate@VQString@@VparamInfo@@@@QAEPAU?$QMapNode@VQString@@VparamInfo@@@@PAU2@@Z 0042fbec     AdjustMon.obj
 0002:0000fbec       __unwindtable$??0?$QMapPrivate@VQString@@VcomplexType@@@@QAE@PBV0@@Z 0042fbec     AdjustMon.obj
 0002:0000fbec       __unwindtable$??0?$QMapPrivate@VQString@@VdeviceTypeInfo@@@@QAE@PBV0@@Z 0042fbec     AdjustMon.obj
 0002:0000fbec       __unwindtable$??0?$QMapPrivate@VQString@@VcomplexInstance@@@@QAE@PBV0@@Z 0042fbec     AdjustMon.obj
 0002:0000fbec       __unwindtable$?copy@?$QMapPrivate@VQString@@VcomplexParam@@@@QAEPAU?$QMapNode@VQString@@VcomplexParam@@@@PAU2@@Z 0042fbec     AdjustMon.obj
 0002:0000fbec       __unwindtable$?copy@?$QMapPrivate@VQString@@VinstanceInfo@@@@QAEPAU?$QMapNode@VQString@@VinstanceInfo@@@@PAU2@@Z 0042fbec     AdjustMon.obj
 0002:0000fbec       __unwindtable$??0?$QMapPrivate@VQString@@VcomplexParam@@@@QAE@PBV0@@Z 0042fbec     AdjustMon.obj
 0002:0000fbec       __unwindtable$??0?$QMapPrivate@VQString@@VinstanceInfo@@@@QAE@PBV0@@Z 0042fbec     AdjustMon.obj
 0002:0000fbec       __unwindtable$?copy@?$QMapPrivate@VQString@@VdeviceTypeInfo@@@@QAEPAU?$QMapNode@VQString@@VdeviceTypeInfo@@@@PAU2@@Z 0042fbec     AdjustMon.obj
 0002:0000fbf4       __ehfuncinfo$??0?$QMapPrivate@VQString@@VcomplexParam@@@@QAE@PBV0@@Z 0042fbf4     AdjustMon.obj
 0002:0000fbf4       __ehfuncinfo$?copy@?$QMapPrivate@VQString@@VinstanceInfo@@@@QAEPAU?$QMapNode@VQString@@VinstanceInfo@@@@PAU2@@Z 0042fbf4     AdjustMon.obj
 0002:0000fbf4       __ehfuncinfo$?copy@?$QMapPrivate@VQString@@VcomplexParam@@@@QAEPAU?$QMapNode@VQString@@VcomplexParam@@@@PAU2@@Z 0042fbf4     AdjustMon.obj
 0002:0000fbf4       __ehfuncinfo$??0?$QMapPrivate@VQString@@VdeviceTypeInfo@@@@QAE@PBV0@@Z 0042fbf4     AdjustMon.obj
 0002:0000fbf4       __ehfuncinfo$?copy@?$QMapPrivate@VQString@@VcomplexType@@@@QAEPAU?$QMapNode@VQString@@VcomplexType@@@@PAU2@@Z 0042fbf4     AdjustMon.obj
 0002:0000fbf4       __ehfuncinfo$?copy@?$QMapPrivate@VQString@@VparamInfo@@@@QAEPAU?$QMapNode@VQString@@VparamInfo@@@@PAU2@@Z 0042fbf4     AdjustMon.obj
 0002:0000fbf4       __ehfuncinfo$??0?$QMapPrivate@VQString@@VcomplexType@@@@QAE@PBV0@@Z 0042fbf4     AdjustMon.obj
 0002:0000fbf4       __ehfuncinfo$??0?$QMapPrivate@VQString@@VparamInfo@@@@QAE@PBV0@@Z 0042fbf4     AdjustMon.obj
 0002:0000fbf4       __ehfuncinfo$?copy@?$QMapPrivate@VQString@@VcomplexInstance@@@@QAEPAU?$QMapNode@VQString@@VcomplexInstance@@@@PAU2@@Z 0042fbf4     AdjustMon.obj
 0002:0000fbf4       __ehfuncinfo$??0?$QMapPrivate@VQString@@VcomplexInstance@@@@QAE@PBV0@@Z 0042fbf4     AdjustMon.obj
 0002:0000fbf4       __ehfuncinfo$?copy@?$QMapPrivate@VQString@@VdeviceTypeInfo@@@@QAEPAU?$QMapNode@VQString@@VdeviceTypeInfo@@@@PAU2@@Z 0042fbf4     AdjustMon.obj
 0002:0000fbf4       __ehfuncinfo$??0?$QMapPrivate@VQString@@VinstanceInfo@@@@QAE@PBV0@@Z 0042fbf4     AdjustMon.obj
 0002:0000fc18       __unwindtable$??0?$QMapNode@VQString@@VparamInfo@@@@QAE@ABVQString@@@Z 0042fc18     AdjustMon.obj
 0002:0000fc18       __unwindtable$??0?$QMapNode@VQString@@VparamInfo@@@@QAE@XZ 0042fc18     AdjustMon.obj
 0002:0000fc18       __unwindtable$??0?$QMapNode@VQString@@VparamInfo@@@@QAE@ABU0@@Z 0042fc18     AdjustMon.obj
 0002:0000fc18       __unwindtable$??1?$QMapNode@VQString@@VparamInfo@@@@QAE@XZ 0042fc18     AdjustMon.obj
 0002:0000fc28       __ehfuncinfo$??0?$QMapNode@VQString@@VparamInfo@@@@QAE@ABVQString@@@Z 0042fc28     AdjustMon.obj
 0002:0000fc28       __ehfuncinfo$??0?$QMapNode@VQString@@VparamInfo@@@@QAE@XZ 0042fc28     AdjustMon.obj
 0002:0000fc28       __ehfuncinfo$??1?$QMapNode@VQString@@VparamInfo@@@@QAE@XZ 0042fc28     AdjustMon.obj
 0002:0000fc28       __ehfuncinfo$??0?$QMapNode@VQString@@VparamInfo@@@@QAE@ABU0@@Z 0042fc28     AdjustMon.obj
 0002:0000fc4c       __unwindtable$?insert@?$QValueListPrivate@VparamInfo@@@@QAE?AV?$QValueListIterator@VparamInfo@@@@V2@ABVparamInfo@@@Z 0042fc4c     AdjustMon.obj
 0002:0000fc5c       __ehfuncinfo$?insert@?$QValueListPrivate@VparamInfo@@@@QAE?AV?$QValueListIterator@VparamInfo@@@@V2@ABVparamInfo@@@Z 0042fc5c     AdjustMon.obj
 0002:0000fc80       __unwindtable$??0?$QMapNode@VQString@@VcomplexParam@@@@QAE@XZ 0042fc80     AdjustMon.obj
 0002:0000fc80       __unwindtable$??0?$QMapNode@VQString@@VcomplexParam@@@@QAE@ABVQString@@@Z 0042fc80     AdjustMon.obj
 0002:0000fc80       __unwindtable$??0?$QMapNode@VQString@@VcomplexParam@@@@QAE@ABU0@@Z 0042fc80     AdjustMon.obj
 0002:0000fc80       __unwindtable$??1?$QMapNode@VQString@@VcomplexParam@@@@QAE@XZ 0042fc80     AdjustMon.obj
 0002:0000fc90       __ehfuncinfo$??0?$QMapNode@VQString@@VcomplexParam@@@@QAE@ABVQString@@@Z 0042fc90     AdjustMon.obj
 0002:0000fc90       __ehfuncinfo$??0?$QMapNode@VQString@@VcomplexParam@@@@QAE@XZ 0042fc90     AdjustMon.obj
 0002:0000fc90       __ehfuncinfo$??0?$QMapNode@VQString@@VcomplexParam@@@@QAE@ABU0@@Z 0042fc90     AdjustMon.obj
 0002:0000fc90       __ehfuncinfo$??1?$QMapNode@VQString@@VcomplexParam@@@@QAE@XZ 0042fc90     AdjustMon.obj
 0002:0000fcb4       __unwindtable$??0?$QMapPrivate@VQString@@VdeviceTypeInfo@@@@QAE@XZ 0042fcb4     AdjustMon.obj
 0002:0000fcb4       __unwindtable$??0?$QValueListPrivate@VparamInfo@@@@QAE@XZ 0042fcb4     AdjustMon.obj
 0002:0000fcb4       __unwindtable$??0?$QValueListPrivate@VdeviceTypeInfo@@@@QAE@XZ 0042fcb4     AdjustMon.obj
 0002:0000fcb4       __unwindtable$?insert@?$QValueListPrivate@VinstanceInfo@@@@QAE?AV?$QValueListIterator@VinstanceInfo@@@@V2@ABVinstanceInfo@@@Z 0042fcb4     AdjustMon.obj
 0002:0000fcb4       __unwindtable$?detachInternal@?$QValueList@VinstanceInfo@@@@AAEXXZ 0042fcb4     AdjustMon.obj
 0002:0000fcb4       __unwindtable$?detachInternal@?$QValueList@VdeviceTypeInfo@@@@AAEXXZ 0042fcb4     AdjustMon.obj
 0002:0000fcb4       __unwindtable$??0?$QValueList@VinstanceInfo@@@@QAE@XZ 0042fcb4     AdjustMon.obj
 0002:0000fcb4       __unwindtable$??0?$QValueList@VdeviceTypeInfo@@@@QAE@XZ 0042fcb4     AdjustMon.obj
 0002:0000fcb4       __unwindtable$?insert@?$QMapPrivate@VQString@@VinstanceInfo@@@@QAE?AV?$QMapIterator@VQString@@VinstanceInfo@@@@PAUQMapNodeBase@@0ABVQString@@@Z 0042fcb4     AdjustMon.obj
 0002:0000fcb4       __unwindtable$?detachInternal@?$QValueList@VcomplexType@@@@AAEXXZ 0042fcb4     AdjustMon.obj
 0002:0000fcb4       __unwindtable$??0?$QValueList@VcomplexType@@@@QAE@XZ 0042fcb4     AdjustMon.obj
 0002:0000fcb4       __unwindtable$?insert@?$QMapPrivate@VQString@@VcomplexType@@@@QAE?AV?$QMapIterator@VQString@@VcomplexType@@@@PAUQMapNodeBase@@0ABVQString@@@Z 0042fcb4     AdjustMon.obj
 0002:0000fcb4       __unwindtable$??0?$QMapPrivate@VQString@@VcomplexType@@@@QAE@XZ 0042fcb4     AdjustMon.obj
 0002:0000fcb4       __unwindtable$??0?$QMapPrivate@VQString@@VinstanceInfo@@@@QAE@XZ 0042fcb4     AdjustMon.obj
 0002:0000fcb4       __unwindtable$?addToNavigationStack@CAdjustMon@@QAEXABVQString@@@Z 0042fcb4     AdjustMon.obj
 0002:0000fcb4       __unwindtable$?insert@?$QValueListPrivate@VdeviceTypeInfo@@@@QAE?AV?$QValueListIterator@VdeviceTypeInfo@@@@V2@ABVdeviceTypeInfo@@@Z 0042fcb4     AdjustMon.obj
 0002:0000fcb4       __unwindtable$??0?$QValueList@VcomplexInstance@@@@QAE@XZ 0042fcb4     AdjustMon.obj
 0002:0000fcb4       __unwindtable$?insert@?$QMapPrivate@VQString@@VdeviceTypeInfo@@@@QAE?AV?$QMapIterator@VQString@@VdeviceTypeInfo@@@@PAUQMapNodeBase@@0ABVQString@@@Z 0042fcb4     AdjustMon.obj
 0002:0000fcb4       __unwindtable$?insert@?$QMapPrivate@VQString@@VcomplexInstance@@@@QAE?AV?$QMapIterator@VQString@@VcomplexInstance@@@@PAUQMapNodeBase@@0ABVQString@@@Z 0042fcb4     AdjustMon.obj
 0002:0000fcb4       __unwindtable$??0?$QValueListPrivate@VinstanceInfo@@@@QAE@XZ 0042fcb4     AdjustMon.obj
 0002:0000fcb4       __unwindtable$??0?$QValueListPrivate@VcomplexParam@@@@QAE@XZ 0042fcb4     AdjustMon.obj
 0002:0000fcb4       __unwindtable$??0?$QMap@VQString@@VparamInfo@@@@QAE@XZ 0042fcb4     AdjustMon.obj
 0002:0000fcb4       __unwindtable$??0?$QValueListPrivate@VcomplexType@@@@QAE@XZ 0042fcb4     AdjustMon.obj
 0002:0000fcb4       __unwindtable$??0?$QMapPrivate@VQString@@VcomplexInstance@@@@QAE@XZ 0042fcb4     AdjustMon.obj
 0002:0000fcb4       __unwindtable$?insert@?$QValueListPrivate@VcomplexType@@@@QAE?AV?$QValueListIterator@VcomplexType@@@@V2@ABVcomplexType@@@Z 0042fcb4     AdjustMon.obj
 0002:0000fcb4       __unwindtable$?detachInternal@?$QValueList@VcomplexParam@@@@AAEXXZ 0042fcb4     AdjustMon.obj
 0002:0000fcb4       __unwindtable$?clear@?$QMap@VQString@@VparamInfo@@@@QAEXXZ 0042fcb4     AdjustMon.obj
 0002:0000fcb4       __unwindtable$?insert@?$QValueListPrivate@VcomplexParam@@@@QAE?AV?$QValueListIterator@VcomplexParam@@@@V2@ABVcomplexParam@@@Z 0042fcb4     AdjustMon.obj
 0002:0000fcb4       __unwindtable$?detachInternal@?$QMap@VQString@@VparamInfo@@@@AAEXXZ 0042fcb4     AdjustMon.obj
 0002:0000fcb4       __unwindtable$??0?$QValueList@VcomplexParam@@@@QAE@XZ 0042fcb4     AdjustMon.obj
 0002:0000fcb4       __unwindtable$??0?$QMap@VQString@@VcomplexParam@@@@QAE@XZ 0042fcb4     AdjustMon.obj
 0002:0000fcb4       __unwindtable$?insert@?$QMapPrivate@VQString@@VcomplexParam@@@@QAE?AV?$QMapIterator@VQString@@VcomplexParam@@@@PAUQMapNodeBase@@0ABVQString@@@Z 0042fcb4     AdjustMon.obj
 0002:0000fcb4       __unwindtable$?clear@?$QMap@VQString@@VcomplexParam@@@@QAEXXZ 0042fcb4     AdjustMon.obj
 0002:0000fcb4       __unwindtable$?detachInternal@?$QMap@VQString@@VcomplexParam@@@@AAEXXZ 0042fcb4     AdjustMon.obj
 0002:0000fcb4       __unwindtable$??0?$QMap@VQString@@VcomplexInstance@@@@QAE@XZ 0042fcb4     AdjustMon.obj
 0002:0000fcb4       __unwindtable$??0?$QMapPrivate@VQString@@VcomplexParam@@@@QAE@XZ 0042fcb4     AdjustMon.obj
 0002:0000fcb4       __unwindtable$?clear@?$QMap@VQString@@VcomplexInstance@@@@QAEXXZ 0042fcb4     AdjustMon.obj
 0002:0000fcb4       __unwindtable$?detachInternal@?$QValueList@VparamInfo@@@@AAEXXZ 0042fcb4     AdjustMon.obj
 0002:0000fcb4       __unwindtable$?detachInternal@?$QMap@VQString@@VcomplexInstance@@@@AAEXXZ 0042fcb4     AdjustMon.obj
 0002:0000fcb4       __unwindtable$??0?$QValueList@VparamInfo@@@@QAE@XZ 0042fcb4     AdjustMon.obj
 0002:0000fcb4       __unwindtable$??0?$QMap@VQString@@VinstanceInfo@@@@QAE@XZ 0042fcb4     AdjustMon.obj
 0002:0000fcb4       __unwindtable$?insert@?$QMapPrivate@VQString@@VparamInfo@@@@QAE?AV?$QMapIterator@VQString@@VparamInfo@@@@PAUQMapNodeBase@@0ABVQString@@@Z 0042fcb4     AdjustMon.obj
 0002:0000fcb4       __unwindtable$?clear@?$QMap@VQString@@VinstanceInfo@@@@QAEXXZ 0042fcb4     AdjustMon.obj
 0002:0000fcb4       __unwindtable$?detachInternal@?$QMap@VQString@@VinstanceInfo@@@@AAEXXZ 0042fcb4     AdjustMon.obj
 0002:0000fcb4       __unwindtable$??0?$QMap@VQString@@VdeviceTypeInfo@@@@QAE@XZ 0042fcb4     AdjustMon.obj
 0002:0000fcb4       __unwindtable$?clear@?$QMap@VQString@@VdeviceTypeInfo@@@@QAEXXZ 0042fcb4     AdjustMon.obj
 0002:0000fcb4       __unwindtable$??0?$QValueListPrivate@VcomplexInstance@@@@QAE@XZ 0042fcb4     AdjustMon.obj
 0002:0000fcb4       __unwindtable$??0?$QMapPrivate@VQString@@VparamInfo@@@@QAE@XZ 0042fcb4     AdjustMon.obj
 0002:0000fcb4       __unwindtable$?detachInternal@?$QValueList@VcomplexInstance@@@@AAEXXZ 0042fcb4     AdjustMon.obj
 0002:0000fcb4       __unwindtable$?slotPressed@CAppBar@@QAEXXZ 0042fcb4     AdjustMon.obj
 0002:0000fcb4       __unwindtable$?detachInternal@?$QMap@VQString@@VdeviceTypeInfo@@@@AAEXXZ 0042fcb4     AdjustMon.obj
 0002:0000fcb4       __unwindtable$?detachInternal@?$QMap@VQString@@VcomplexType@@@@AAEXXZ 0042fcb4     AdjustMon.obj
 0002:0000fcb4       __unwindtable$??0?$QMap@VQString@@VcomplexType@@@@QAE@XZ 0042fcb4     AdjustMon.obj
 0002:0000fcb4       __unwindtable$?clear@?$QMap@VQString@@VcomplexType@@@@QAEXXZ 0042fcb4     AdjustMon.obj
 0002:0000fcb4       __unwindtable$?insert@?$QValueListPrivate@VcomplexInstance@@@@QAE?AV?$QValueListIterator@VcomplexInstance@@@@V2@ABVcomplexInstance@@@Z 0042fcb4     AdjustMon.obj
 0002:0000fcbc       __ehfuncinfo$?insert@?$QMapPrivate@VQString@@VcomplexParam@@@@QAE?AV?$QMapIterator@VQString@@VcomplexParam@@@@PAUQMapNodeBase@@0ABVQString@@@Z 0042fcbc     AdjustMon.obj
 0002:0000fcbc       __ehfuncinfo$?addToNavigationStack@CAdjustMon@@QAEXABVQString@@@Z 0042fcbc     AdjustMon.obj
 0002:0000fcbc       __ehfuncinfo$?clear@?$QMap@VQString@@VcomplexType@@@@QAEXXZ 0042fcbc     AdjustMon.obj
 0002:0000fcbc       __ehfuncinfo$?detachInternal@?$QMap@VQString@@VcomplexType@@@@AAEXXZ 0042fcbc     AdjustMon.obj
 0002:0000fcbc       __ehfuncinfo$??0?$QMap@VQString@@VcomplexType@@@@QAE@XZ 0042fcbc     AdjustMon.obj
 0002:0000fcbc       __ehfuncinfo$?slotPressed@CAppBar@@QAEXXZ 0042fcbc     AdjustMon.obj
 0002:0000fcbc       __ehfuncinfo$?insert@?$QValueListPrivate@VcomplexInstance@@@@QAE?AV?$QValueListIterator@VcomplexInstance@@@@V2@ABVcomplexInstance@@@Z 0042fcbc     AdjustMon.obj
 0002:0000fcbc       __ehfuncinfo$??0?$QMapPrivate@VQString@@VparamInfo@@@@QAE@XZ 0042fcbc     AdjustMon.obj
 0002:0000fcbc       __ehfuncinfo$?insert@?$QValueListPrivate@VinstanceInfo@@@@QAE?AV?$QValueListIterator@VinstanceInfo@@@@V2@ABVinstanceInfo@@@Z 0042fcbc     AdjustMon.obj
 0002:0000fcbc       __ehfuncinfo$?insert@?$QMapPrivate@VQString@@VparamInfo@@@@QAE?AV?$QMapIterator@VQString@@VparamInfo@@@@PAUQMapNodeBase@@0ABVQString@@@Z 0042fcbc     AdjustMon.obj
 0002:0000fcbc       __ehfuncinfo$??0?$QValueListPrivate@VcomplexInstance@@@@QAE@XZ 0042fcbc     AdjustMon.obj
 0002:0000fcbc       __ehfuncinfo$?detachInternal@?$QMap@VQString@@VdeviceTypeInfo@@@@AAEXXZ 0042fcbc     AdjustMon.obj
 0002:0000fcbc       __ehfuncinfo$??0?$QMap@VQString@@VparamInfo@@@@QAE@XZ 0042fcbc     AdjustMon.obj
 0002:0000fcbc       __ehfuncinfo$?clear@?$QMap@VQString@@VdeviceTypeInfo@@@@QAEXXZ 0042fcbc     AdjustMon.obj
 0002:0000fcbc       __ehfuncinfo$?insert@?$QMapPrivate@VQString@@VcomplexType@@@@QAE?AV?$QMapIterator@VQString@@VcomplexType@@@@PAUQMapNodeBase@@0ABVQString@@@Z 0042fcbc     AdjustMon.obj
 0002:0000fcbc       __ehfuncinfo$??0?$QMap@VQString@@VdeviceTypeInfo@@@@QAE@XZ 0042fcbc     AdjustMon.obj
 0002:0000fcbc       __ehfuncinfo$?insert@?$QMapPrivate@VQString@@VdeviceTypeInfo@@@@QAE?AV?$QMapIterator@VQString@@VdeviceTypeInfo@@@@PAUQMapNodeBase@@0ABVQString@@@Z 0042fcbc     AdjustMon.obj
 0002:0000fcbc       __ehfuncinfo$?detachInternal@?$QMap@VQString@@VinstanceInfo@@@@AAEXXZ 0042fcbc     AdjustMon.obj
 0002:0000fcbc       __ehfuncinfo$??0?$QValueListPrivate@VdeviceTypeInfo@@@@QAE@XZ 0042fcbc     AdjustMon.obj
 0002:0000fcbc       __ehfuncinfo$?insert@?$QValueListPrivate@VdeviceTypeInfo@@@@QAE?AV?$QValueListIterator@VdeviceTypeInfo@@@@V2@ABVdeviceTypeInfo@@@Z 0042fcbc     AdjustMon.obj
 0002:0000fcbc       __ehfuncinfo$??0?$QValueList@VcomplexType@@@@QAE@XZ 0042fcbc     AdjustMon.obj
 0002:0000fcbc       __ehfuncinfo$?clear@?$QMap@VQString@@VinstanceInfo@@@@QAEXXZ 0042fcbc     AdjustMon.obj
 0002:0000fcbc       __ehfuncinfo$??0?$QValueListPrivate@VparamInfo@@@@QAE@XZ 0042fcbc     AdjustMon.obj
 0002:0000fcbc       __ehfuncinfo$??0?$QMapPrivate@VQString@@VdeviceTypeInfo@@@@QAE@XZ 0042fcbc     AdjustMon.obj
 0002:0000fcbc       __ehfuncinfo$??0?$QValueList@VparamInfo@@@@QAE@XZ 0042fcbc     AdjustMon.obj
 0002:0000fcbc       __ehfuncinfo$??0?$QMap@VQString@@VinstanceInfo@@@@QAE@XZ 0042fcbc     AdjustMon.obj
 0002:0000fcbc       __ehfuncinfo$?detachInternal@?$QValueList@VparamInfo@@@@AAEXXZ 0042fcbc     AdjustMon.obj
 0002:0000fcbc       __ehfuncinfo$?detachInternal@?$QMap@VQString@@VcomplexInstance@@@@AAEXXZ 0042fcbc     AdjustMon.obj
 0002:0000fcbc       __ehfuncinfo$??0?$QMapPrivate@VQString@@VcomplexParam@@@@QAE@XZ 0042fcbc     AdjustMon.obj
 0002:0000fcbc       __ehfuncinfo$?clear@?$QMap@VQString@@VcomplexInstance@@@@QAEXXZ 0042fcbc     AdjustMon.obj
 0002:0000fcbc       __ehfuncinfo$?detachInternal@?$QValueList@VinstanceInfo@@@@AAEXXZ 0042fcbc     AdjustMon.obj
 0002:0000fcbc       __ehfuncinfo$?detachInternal@?$QValueList@VcomplexType@@@@AAEXXZ 0042fcbc     AdjustMon.obj
 0002:0000fcbc       __ehfuncinfo$??0?$QValueList@VinstanceInfo@@@@QAE@XZ 0042fcbc     AdjustMon.obj
 0002:0000fcbc       __ehfuncinfo$?insert@?$QMapPrivate@VQString@@VinstanceInfo@@@@QAE?AV?$QMapIterator@VQString@@VinstanceInfo@@@@PAUQMapNodeBase@@0ABVQString@@@Z 0042fcbc     AdjustMon.obj
 0002:0000fcbc       __ehfuncinfo$??0?$QMap@VQString@@VcomplexInstance@@@@QAE@XZ 0042fcbc     AdjustMon.obj
 0002:0000fcbc       __ehfuncinfo$??0?$QValueList@VdeviceTypeInfo@@@@QAE@XZ 0042fcbc     AdjustMon.obj
 0002:0000fcbc       __ehfuncinfo$?detachInternal@?$QMap@VQString@@VcomplexParam@@@@AAEXXZ 0042fcbc     AdjustMon.obj
 0002:0000fcbc       __ehfuncinfo$?detachInternal@?$QValueList@VdeviceTypeInfo@@@@AAEXXZ 0042fcbc     AdjustMon.obj
 0002:0000fcbc       __ehfuncinfo$?clear@?$QMap@VQString@@VcomplexParam@@@@QAEXXZ 0042fcbc     AdjustMon.obj
 0002:0000fcbc       __ehfuncinfo$??0?$QValueList@VcomplexParam@@@@QAE@XZ 0042fcbc     AdjustMon.obj
 0002:0000fcbc       __ehfuncinfo$??0?$QMap@VQString@@VcomplexParam@@@@QAE@XZ 0042fcbc     AdjustMon.obj
 0002:0000fcbc       __ehfuncinfo$??0?$QValueListPrivate@VcomplexType@@@@QAE@XZ 0042fcbc     AdjustMon.obj
 0002:0000fcbc       __ehfuncinfo$?detachInternal@?$QMap@VQString@@VparamInfo@@@@AAEXXZ 0042fcbc     AdjustMon.obj
 0002:0000fcbc       __ehfuncinfo$??0?$QMapPrivate@VQString@@VcomplexType@@@@QAE@XZ 0042fcbc     AdjustMon.obj
 0002:0000fcbc       __ehfuncinfo$??0?$QMapPrivate@VQString@@VinstanceInfo@@@@QAE@XZ 0042fcbc     AdjustMon.obj
 0002:0000fcbc       __ehfuncinfo$?detachInternal@?$QValueList@VcomplexParam@@@@AAEXXZ 0042fcbc     AdjustMon.obj
 0002:0000fcbc       __ehfuncinfo$?clear@?$QMap@VQString@@VparamInfo@@@@QAEXXZ 0042fcbc     AdjustMon.obj
 0002:0000fcbc       __ehfuncinfo$?insert@?$QValueListPrivate@VcomplexType@@@@QAE?AV?$QValueListIterator@VcomplexType@@@@V2@ABVcomplexType@@@Z 0042fcbc     AdjustMon.obj
 0002:0000fcbc       __ehfuncinfo$??0?$QMapPrivate@VQString@@VcomplexInstance@@@@QAE@XZ 0042fcbc     AdjustMon.obj
 0002:0000fcbc       __ehfuncinfo$?insert@?$QMapPrivate@VQString@@VcomplexInstance@@@@QAE?AV?$QMapIterator@VQString@@VcomplexInstance@@@@PAUQMapNodeBase@@0ABVQString@@@Z 0042fcbc     AdjustMon.obj
 0002:0000fcbc       __ehfuncinfo$?insert@?$QValueListPrivate@VcomplexParam@@@@QAE?AV?$QValueListIterator@VcomplexParam@@@@V2@ABVcomplexParam@@@Z 0042fcbc     AdjustMon.obj
 0002:0000fcbc       __ehfuncinfo$?detachInternal@?$QValueList@VcomplexInstance@@@@AAEXXZ 0042fcbc     AdjustMon.obj
 0002:0000fcbc       __ehfuncinfo$??0?$QValueList@VcomplexInstance@@@@QAE@XZ 0042fcbc     AdjustMon.obj
 0002:0000fcbc       __ehfuncinfo$??0?$QValueListPrivate@VinstanceInfo@@@@QAE@XZ 0042fcbc     AdjustMon.obj
 0002:0000fcbc       __ehfuncinfo$??0?$QValueListPrivate@VcomplexParam@@@@QAE@XZ 0042fcbc     AdjustMon.obj
 0002:0000fce0       __unwindtable$??0?$QValueListPrivate@VparamInfo@@@@QAE@ABV0@@Z 0042fce0     AdjustMon.obj
 0002:0000fce0       __unwindtable$??0?$QValueListPrivate@VcomplexParam@@@@QAE@ABV0@@Z 0042fce0     AdjustMon.obj
 0002:0000fce0       __unwindtable$??0?$QValueListPrivate@VdeviceTypeInfo@@@@QAE@ABV0@@Z 0042fce0     AdjustMon.obj
 0002:0000fce0       __unwindtable$??0?$QValueListPrivate@VinstanceInfo@@@@QAE@ABV0@@Z 0042fce0     AdjustMon.obj
 0002:0000fce0       __unwindtable$??0?$QValueListPrivate@VcomplexType@@@@QAE@ABV0@@Z 0042fce0     AdjustMon.obj
 0002:0000fce0       __unwindtable$??0?$QValueListPrivate@VcomplexInstance@@@@QAE@ABV0@@Z 0042fce0     AdjustMon.obj
 0002:0000fce8       __ehfuncinfo$??0?$QValueListPrivate@VcomplexParam@@@@QAE@ABV0@@Z 0042fce8     AdjustMon.obj
 0002:0000fce8       __ehfuncinfo$??0?$QValueListPrivate@VdeviceTypeInfo@@@@QAE@ABV0@@Z 0042fce8     AdjustMon.obj
 0002:0000fce8       __ehfuncinfo$??0?$QValueListPrivate@VcomplexInstance@@@@QAE@ABV0@@Z 0042fce8     AdjustMon.obj
 0002:0000fce8       __ehfuncinfo$??0?$QValueListPrivate@VinstanceInfo@@@@QAE@ABV0@@Z 0042fce8     AdjustMon.obj
 0002:0000fce8       __ehfuncinfo$??0?$QValueListPrivate@VparamInfo@@@@QAE@ABV0@@Z 0042fce8     AdjustMon.obj
 0002:0000fce8       __ehfuncinfo$??0?$QValueListPrivate@VcomplexType@@@@QAE@ABV0@@Z 0042fce8     AdjustMon.obj
 0002:0000fd0c       __unwindtable$??0?$QMapNode@VQString@@VcomplexInstance@@@@QAE@XZ 0042fd0c     AdjustMon.obj
 0002:0000fd0c       __unwindtable$??0?$QMapNode@VQString@@VcomplexInstance@@@@QAE@ABU0@@Z 0042fd0c     AdjustMon.obj
 0002:0000fd0c       __unwindtable$??1?$QMapNode@VQString@@VcomplexInstance@@@@QAE@XZ 0042fd0c     AdjustMon.obj
 0002:0000fd0c       __unwindtable$??0?$QMapNode@VQString@@VcomplexInstance@@@@QAE@ABVQString@@@Z 0042fd0c     AdjustMon.obj
 0002:0000fd1c       __ehfuncinfo$??0?$QMapNode@VQString@@VcomplexInstance@@@@QAE@ABVQString@@@Z 0042fd1c     AdjustMon.obj
 0002:0000fd1c       __ehfuncinfo$??0?$QMapNode@VQString@@VcomplexInstance@@@@QAE@XZ 0042fd1c     AdjustMon.obj
 0002:0000fd1c       __ehfuncinfo$??0?$QMapNode@VQString@@VcomplexInstance@@@@QAE@ABU0@@Z 0042fd1c     AdjustMon.obj
 0002:0000fd1c       __ehfuncinfo$??1?$QMapNode@VQString@@VcomplexInstance@@@@QAE@XZ 0042fd1c     AdjustMon.obj
 0002:0000fd40       __unwindtable$??1?$QMapNode@VQString@@VinstanceInfo@@@@QAE@XZ 0042fd40     AdjustMon.obj
 0002:0000fd40       __unwindtable$??0?$QMapNode@VQString@@VinstanceInfo@@@@QAE@ABVQString@@@Z 0042fd40     AdjustMon.obj
 0002:0000fd40       __unwindtable$??0?$QMapNode@VQString@@VinstanceInfo@@@@QAE@XZ 0042fd40     AdjustMon.obj
 0002:0000fd40       __unwindtable$??0?$QMapNode@VQString@@VinstanceInfo@@@@QAE@ABU0@@Z 0042fd40     AdjustMon.obj
 0002:0000fd50       __ehfuncinfo$??0?$QMapNode@VQString@@VinstanceInfo@@@@QAE@ABU0@@Z 0042fd50     AdjustMon.obj
 0002:0000fd50       __ehfuncinfo$??0?$QMapNode@VQString@@VinstanceInfo@@@@QAE@ABVQString@@@Z 0042fd50     AdjustMon.obj
 0002:0000fd50       __ehfuncinfo$??1?$QMapNode@VQString@@VinstanceInfo@@@@QAE@XZ 0042fd50     AdjustMon.obj
 0002:0000fd50       __ehfuncinfo$??0?$QMapNode@VQString@@VinstanceInfo@@@@QAE@XZ 0042fd50     AdjustMon.obj
 0002:0000fd74       __unwindtable$??0?$QMapNode@VQString@@VdeviceTypeInfo@@@@QAE@XZ 0042fd74     AdjustMon.obj
 0002:0000fd74       __unwindtable$??0?$QMapNode@VQString@@VdeviceTypeInfo@@@@QAE@ABU0@@Z 0042fd74     AdjustMon.obj
 0002:0000fd74       __unwindtable$??0?$QMapNode@VQString@@VdeviceTypeInfo@@@@QAE@ABVQString@@@Z 0042fd74     AdjustMon.obj
 0002:0000fd74       __unwindtable$??1?$QMapNode@VQString@@VdeviceTypeInfo@@@@QAE@XZ 0042fd74     AdjustMon.obj
 0002:0000fd84       __ehfuncinfo$??0?$QMapNode@VQString@@VdeviceTypeInfo@@@@QAE@XZ 0042fd84     AdjustMon.obj
 0002:0000fd84       __ehfuncinfo$??0?$QMapNode@VQString@@VdeviceTypeInfo@@@@QAE@ABU0@@Z 0042fd84     AdjustMon.obj
 0002:0000fd84       __ehfuncinfo$??0?$QMapNode@VQString@@VdeviceTypeInfo@@@@QAE@ABVQString@@@Z 0042fd84     AdjustMon.obj
 0002:0000fd84       __ehfuncinfo$??1?$QMapNode@VQString@@VdeviceTypeInfo@@@@QAE@XZ 0042fd84     AdjustMon.obj
 0002:0000fda8       __unwindtable$??0?$QMapNode@VQString@@VcomplexType@@@@QAE@ABU0@@Z 0042fda8     AdjustMon.obj
 0002:0000fda8       __unwindtable$??1?$QMapNode@VQString@@VcomplexType@@@@QAE@XZ 0042fda8     AdjustMon.obj
 0002:0000fda8       __unwindtable$??0?$QMapNode@VQString@@VcomplexType@@@@QAE@ABVQString@@@Z 0042fda8     AdjustMon.obj
 0002:0000fda8       __unwindtable$??0?$QMapNode@VQString@@VcomplexType@@@@QAE@XZ 0042fda8     AdjustMon.obj
 0002:0000fdb8       __ehfuncinfo$??0?$QMapNode@VQString@@VcomplexType@@@@QAE@ABVQString@@@Z 0042fdb8     AdjustMon.obj
 0002:0000fdb8       __ehfuncinfo$??0?$QMapNode@VQString@@VcomplexType@@@@QAE@ABU0@@Z 0042fdb8     AdjustMon.obj
 0002:0000fdb8       __ehfuncinfo$??0?$QMapNode@VQString@@VcomplexType@@@@QAE@XZ 0042fdb8     AdjustMon.obj
 0002:0000fdb8       __ehfuncinfo$??1?$QMapNode@VQString@@VcomplexType@@@@QAE@XZ 0042fdb8     AdjustMon.obj
 0002:0000fddc       __unwindtable$??__E?_Generic_object@?$_Error_objects@H@std@@2V_Generic_error_category@2@A@@YAXXZ 0042fddc     AdjustMon.obj
 0002:0000fddc       __unwindtable$??__F?_Generic_object@?$_Error_objects@H@std@@2V_Generic_error_category@2@A@@YAXXZ 0042fddc     AdjustMon.obj
 0002:0000fde4       __ehfuncinfo$??__F?_Generic_object@?$_Error_objects@H@std@@2V_Generic_error_category@2@A@@YAXXZ 0042fde4     AdjustMon.obj
 0002:0000fde4       __ehfuncinfo$??__E?_Generic_object@?$_Error_objects@H@std@@2V_Generic_error_category@2@A@@YAXXZ 0042fde4     AdjustMon.obj
 0002:0000fe08       __unwindtable$??__E?_Iostream_object@?$_Error_objects@H@std@@2V_Iostream_error_category@2@A@@YAXXZ 0042fe08     AdjustMon.obj
 0002:0000fe18       __ehfuncinfo$??__E?_Iostream_object@?$_Error_objects@H@std@@2V_Iostream_error_category@2@A@@YAXXZ 0042fe18     AdjustMon.obj
 0002:0000fe3c       __unwindtable$??__F?_Iostream_object@?$_Error_objects@H@std@@2V_Iostream_error_category@2@A@@YAXXZ 0042fe3c     AdjustMon.obj
 0002:0000fe4c       __ehfuncinfo$??__F?_Iostream_object@?$_Error_objects@H@std@@2V_Iostream_error_category@2@A@@YAXXZ 0042fe4c     AdjustMon.obj
 0002:0000fe70       __unwindtable$??__E?_System_object@?$_Error_objects@H@std@@2V_System_error_category@2@A@@YAXXZ 0042fe70     AdjustMon.obj
 0002:0000fe80       __ehfuncinfo$??__E?_System_object@?$_Error_objects@H@std@@2V_System_error_category@2@A@@YAXXZ 0042fe80     AdjustMon.obj
 0002:0000fea4       __unwindtable$??__F?_System_object@?$_Error_objects@H@std@@2V_System_error_category@2@A@@YAXXZ 0042fea4     AdjustMon.obj
 0002:0000feb4       __ehfuncinfo$??__F?_System_object@?$_Error_objects@H@std@@2V_System_error_category@2@A@@YAXXZ 0042feb4     AdjustMon.obj
 0002:0000fed8       __unwindtable$??0?$QValueListNode@VparamInfo@@@@QAE@XZ 0042fed8     AdjustMon.obj
 0002:0000fed8       __unwindtable$??1?$QValueListNode@VparamInfo@@@@UAE@XZ 0042fed8     AdjustMon.obj
 0002:0000fee0       __ehfuncinfo$??1?$QValueListNode@VparamInfo@@@@UAE@XZ 0042fee0     AdjustMon.obj
 0002:0000fee0       __ehfuncinfo$??0?$QValueListNode@VparamInfo@@@@QAE@XZ 0042fee0     AdjustMon.obj
 0002:0000ff04       __unwindtable$??0?$QValueListNode@VcomplexParam@@@@QAE@ABVcomplexParam@@@Z 0042ff04     AdjustMon.obj
 0002:0000ff04       __unwindtable$??1?$QValueListNode@VcomplexParam@@@@UAE@XZ 0042ff04     AdjustMon.obj
 0002:0000ff04       __unwindtable$??0?$QValueListNode@VcomplexParam@@@@QAE@XZ 0042ff04     AdjustMon.obj
 0002:0000ff0c       __ehfuncinfo$??1?$QValueListNode@VcomplexParam@@@@UAE@XZ 0042ff0c     AdjustMon.obj
 0002:0000ff0c       __ehfuncinfo$??0?$QValueListNode@VcomplexParam@@@@QAE@XZ 0042ff0c     AdjustMon.obj
 0002:0000ff0c       __ehfuncinfo$??0?$QValueListNode@VcomplexParam@@@@QAE@ABVcomplexParam@@@Z 0042ff0c     AdjustMon.obj
 0002:0000ff30       __unwindtable$??0?$QValueListNode@VcomplexInstance@@@@QAE@ABVcomplexInstance@@@Z 0042ff30     AdjustMon.obj
 0002:0000ff30       __unwindtable$??1?$QValueListNode@VcomplexInstance@@@@UAE@XZ 0042ff30     AdjustMon.obj
 0002:0000ff30       __unwindtable$??0?$QValueListNode@VcomplexInstance@@@@QAE@XZ 0042ff30     AdjustMon.obj
 0002:0000ff38       __ehfuncinfo$??0?$QValueListNode@VcomplexInstance@@@@QAE@XZ 0042ff38     AdjustMon.obj
 0002:0000ff38       __ehfuncinfo$??1?$QValueListNode@VcomplexInstance@@@@UAE@XZ 0042ff38     AdjustMon.obj
 0002:0000ff38       __ehfuncinfo$??0?$QValueListNode@VcomplexInstance@@@@QAE@ABVcomplexInstance@@@Z 0042ff38     AdjustMon.obj
 0002:0000ff5c       __unwindtable$??0?$QValueListNode@VinstanceInfo@@@@QAE@XZ 0042ff5c     AdjustMon.obj
 0002:0000ff5c       __unwindtable$??1?$QValueListNode@VinstanceInfo@@@@UAE@XZ 0042ff5c     AdjustMon.obj
 0002:0000ff5c       __unwindtable$??0?$QValueListNode@VinstanceInfo@@@@QAE@ABVinstanceInfo@@@Z 0042ff5c     AdjustMon.obj
 0002:0000ff64       __ehfuncinfo$??0?$QValueListNode@VinstanceInfo@@@@QAE@XZ 0042ff64     AdjustMon.obj
 0002:0000ff64       __ehfuncinfo$??1?$QValueListNode@VinstanceInfo@@@@UAE@XZ 0042ff64     AdjustMon.obj
 0002:0000ff64       __ehfuncinfo$??0?$QValueListNode@VinstanceInfo@@@@QAE@ABVinstanceInfo@@@Z 0042ff64     AdjustMon.obj
 0002:0000ff88       __unwindtable$??1?$QValueListNode@VdeviceTypeInfo@@@@UAE@XZ 0042ff88     AdjustMon.obj
 0002:0000ff88       __unwindtable$??0?$QValueListNode@VdeviceTypeInfo@@@@QAE@ABVdeviceTypeInfo@@@Z 0042ff88     AdjustMon.obj
 0002:0000ff88       __unwindtable$??0?$QValueListNode@VdeviceTypeInfo@@@@QAE@XZ 0042ff88     AdjustMon.obj
 0002:0000ff90       __ehfuncinfo$??1?$QValueListNode@VdeviceTypeInfo@@@@UAE@XZ 0042ff90     AdjustMon.obj
 0002:0000ff90       __ehfuncinfo$??0?$QValueListNode@VdeviceTypeInfo@@@@QAE@XZ 0042ff90     AdjustMon.obj
 0002:0000ff90       __ehfuncinfo$??0?$QValueListNode@VdeviceTypeInfo@@@@QAE@ABVdeviceTypeInfo@@@Z 0042ff90     AdjustMon.obj
 0002:0000ffb4       __unwindtable$??0?$QValueListNode@VcomplexType@@@@QAE@ABVcomplexType@@@Z 0042ffb4     AdjustMon.obj
 0002:0000ffb4       __unwindtable$??0?$QValueListNode@VcomplexType@@@@QAE@XZ 0042ffb4     AdjustMon.obj
 0002:0000ffb4       __unwindtable$??1?$QValueListNode@VcomplexType@@@@UAE@XZ 0042ffb4     AdjustMon.obj
 0002:0000ffbc       __ehfuncinfo$??0?$QValueListNode@VcomplexType@@@@QAE@XZ 0042ffbc     AdjustMon.obj
 0002:0000ffbc       __ehfuncinfo$??1?$QValueListNode@VcomplexType@@@@UAE@XZ 0042ffbc     AdjustMon.obj
 0002:0000ffbc       __ehfuncinfo$??0?$QValueListNode@VcomplexType@@@@QAE@ABVcomplexType@@@Z 0042ffbc     AdjustMon.obj
 0002:0000ffe0       __unwindtable$??_GQKeyEvent@@UAEPAXI@Z 0042ffe0     AppBar.obj
 0002:0000fff0       __ehfuncinfo$??_GQKeyEvent@@UAEPAXI@Z 0042fff0     AppBar.obj
 0002:00010014       __unwindtable$??_GQGrid@@UAEPAXI@Z 00430014     AppBar.obj
 0002:00010024       __ehfuncinfo$??_GQGrid@@UAEPAXI@Z 00430024     AppBar.obj
 0002:00010048       __ehfuncinfo$??1CAppBar@@UAE@XZ 00430048     AppBar.obj
 0002:00010048       __ehfuncinfo$??0CAppBar@@QAE@PAVQWidget@@ABVQString@@_N@Z 00430048     AppBar.obj
 0002:0001006c       __unwindtable$??1CAppBar@@UAE@XZ 0043006c     AppBar.obj
 0002:0001006c       __unwindtable$??0CAppBar@@QAE@PAVQWidget@@ABVQString@@_N@Z 0043006c     AppBar.obj
 0002:000100bc       __unwindtable$?clearHighlight@CAppBar@@QAEXXZ 004300bc     AppBar.obj
 0002:000100cc       __ehfuncinfo$?clearHighlight@CAppBar@@QAEXXZ 004300cc     AppBar.obj
 0002:000100f0       __ehfuncinfo$?initButtons@CAppBar@@QAEXXZ 004300f0     AppBar.obj
 0002:00010114       __unwindtable$?initButtons@CAppBar@@QAEXXZ 00430114     AppBar.obj
 0002:00010144       __ehfuncinfo$?setPanelSet@CAppBar@@QAEXVQString@@@Z 00430144     AppBar.obj
 0002:00010168       __unwindtable$?setPanelSet@CAppBar@@QAEXVQString@@@Z 00430168     AppBar.obj
 0002:00010590       __ehfuncinfo$?setUser@CAppBar@@QAE?AVQString@@V2@@Z 00430590     AppBar.obj
 0002:000105b4       __unwindtable$?setUser@CAppBar@@QAE?AVQString@@V2@@Z 004305b4     AppBar.obj
 0002:0001069c       __unwindtable$?hideLast@CAppView@@QAEXXZ 0043069c     AppBar.obj
 0002:0001069c       __unwindtable$?switchMenu@CAppBar@@QAEHXZ 0043069c     AppBar.obj
 0002:000106ac       __ehfuncinfo$?switchMenu@CAppBar@@QAEHXZ 004306ac     AppBar.obj
 0002:000106ac       __ehfuncinfo$?hideLast@CAppView@@QAEXXZ 004306ac     AppBar.obj
 0002:000106d0       __ehfuncinfo$?notify@CAppBar@@UAEXAAVQString@@@Z 004306d0     AppBar.obj
 0002:000106f4       __unwindtable$?notify@CAppBar@@UAEXAAVQString@@@Z 004306f4     AppBar.obj
 0002:0001072c       __unwindtable$?resetPanelSet@CAppBar@@QAEXXZ 0043072c     AppBar.obj
 0002:0001072c       __unwindtable$?popupDestroyed@CAppBar@@QAEXXZ 0043072c     AppBar.obj
 0002:00010734       __ehfuncinfo$?popupDestroyed@CAppBar@@QAEXXZ 00430734     AppBar.obj
 0002:00010734       __ehfuncinfo$?resetPanelSet@CAppBar@@QAEXXZ 00430734     AppBar.obj
 0002:00010758       __unwindtable$?notify@CSimpleBar@@UAEXAAVQString@@@Z 00430758     AppBar.obj
 0002:00010758       __unwindtable$?nextPage@CAppBar@@AAEXXZ 00430758     AppBar.obj
 0002:00010758       __unwindtable$?notify@CStatusBar@@UAEXAAVQString@@@Z 00430758     AppBar.obj
 0002:00010768       __ehfuncinfo$?notify@CSimpleBar@@UAEXAAVQString@@@Z 00430768     AppBar.obj
 0002:00010768       __ehfuncinfo$?nextPage@CAppBar@@AAEXXZ 00430768     AppBar.obj
 0002:00010768       __ehfuncinfo$?notify@CStatusBar@@UAEXAAVQString@@@Z 00430768     AppBar.obj
 0002:0001078c       __ehfuncinfo$?appItem@CAppBar@@AAEXHPAVQPoint@@@Z 0043078c     AppBar.obj
 0002:000107b0       __unwindtable$?appItem@CAppBar@@AAEXHPAVQPoint@@@Z 004307b0     AppBar.obj
 0002:00010980       __unwindtable$?getAppItemCount@CAppBar@@AAEHXZ 00430980     AppBar.obj
 0002:00010990       __ehfuncinfo$?getAppItemCount@CAppBar@@AAEHXZ 00430990     AppBar.obj
 0002:000109b4       __ehfuncinfo$?getPanelSetSize@CAppBar@@AAEHVQString@@@Z 004309b4     AppBar.obj
 0002:000109d8       __unwindtable$?getPanelSetSize@CAppBar@@AAEHVQString@@@Z 004309d8     AppBar.obj
 0002:00010a08       __ehfuncinfo$?showInstancesGrid@CAppBar@@AAEXPAVQPoint@@VQString@@1@Z 00430a08     AppBar.obj
 0002:00010a2c       __unwindtable$?showInstancesGrid@CAppBar@@AAEXPAVQPoint@@VQString@@1@Z 00430a2c     AppBar.obj
 0002:00010ac4       __ehfuncinfo$?showPanelSet@CAppBar@@AAEXXZ 00430ac4     AppBar.obj
 0002:00010ae8       __unwindtable$?showPanelSet@CAppBar@@AAEXXZ 00430ae8     AppBar.obj
 0002:00010bb0       __ehfuncinfo$?popupAppExtension@CAppBar@@AAEXXZ 00430bb0     AppBar.obj
 0002:00010bd4       __unwindtable$?popupAppExtension@CAppBar@@AAEXXZ 00430bd4     AppBar.obj
 0002:00010cbc       __unwindtable$?ws@global@@SAHXZ 00430cbc     AppBar.obj
 0002:00010cbc       __unwindtable$?knobsOff@CAppSwitch@@QAEXXZ 00430cbc     AppBar.obj
 0002:00010cc4       __ehfuncinfo$?knobsOff@CAppSwitch@@QAEXXZ 00430cc4     AppBar.obj
 0002:00010cc4       __ehfuncinfo$?ws@global@@SAHXZ 00430cc4     AppBar.obj
 0002:00010ce8       __ehfuncinfo$??0CAppItem@@QAE@VQString@@0000@Z 00430ce8     AppItem.obj
 0002:00010d0c       __unwindtable$??0CAppItem@@QAE@VQString@@0000@Z 00430d0c     AppItem.obj
 0002:00010d5c       __ehfuncinfo$??1CAppItem@@UAE@XZ 00430d5c     AppItem.obj
 0002:00010d80       __unwindtable$??1CAppItem@@UAE@XZ 00430d80     AppItem.obj
 0002:00010da8       __ehfuncinfo$??0CAppSwitch@@QAE@PAVQWidget@@@Z 00430da8     AppSwitch.obj
 0002:00010dcc       __unwindtable$??0CAppSwitch@@QAE@PAVQWidget@@@Z 00430dcc     AppSwitch.obj
 0002:00010e0c       __ehfuncinfo$??1CAppSwitch@@UAE@XZ 00430e0c     AppSwitch.obj
 0002:00010e30       __unwindtable$??1CAppSwitch@@UAE@XZ 00430e30     AppSwitch.obj
 0002:00010e68       __ehfuncinfo$?execApp@CAppSwitch@@QAE_NVQString@@00_N@Z 00430e68     AppSwitch.obj
 0002:00010e8c       __unwindtable$?execApp@CAppSwitch@@QAE_NVQString@@00_N@Z 00430e8c     AppSwitch.obj
 0002:00011264       __unwindtable$?terminateApps@CAppSwitch@@QAEXXZ 00431264     AppSwitch.obj
 0002:0001127c       __ehfuncinfo$?terminateApps@CAppSwitch@@QAEXXZ 0043127c     AppSwitch.obj
 0002:000112a0       __ehfuncinfo$?knobsOn@CAppSwitch@@QAEXXZ 004312a0     AppSwitch.obj
 0002:000112c4       __unwindtable$?knobsOn@CAppSwitch@@QAEXXZ 004312c4     AppSwitch.obj
 0002:000112f4       __ehfuncinfo$?appExitNotify@CAppSwitch@@QAEXXZ 004312f4     AppSwitch.obj
 0002:00011318       __unwindtable$?appExitNotify@CAppSwitch@@QAEXXZ 00431318     AppSwitch.obj
 0002:00011348       __unwindtable$??0?$QDict@VCExtProcess@@@@QAE@H_N@Z 00431348     AppSwitch.obj
 0002:00011348       __unwindtable$??0?$QDict@VCAppItem@@@@QAE@H_N@Z 00431348     AppSwitch.obj
 0002:00011348       __unwindtable$??1?$QDict@VCAppItem@@@@UAE@XZ 00431348     AppSwitch.obj
 0002:00011348       __unwindtable$??1?$QDict@VQWidget@@@@UAE@XZ 00431348     AppSwitch.obj
 0002:00011348       __unwindtable$??1?$QDict@VCExtProcess@@@@UAE@XZ 00431348     AppSwitch.obj
 0002:00011348       __unwindtable$??0?$QDict@VQWidget@@@@QAE@H_N@Z 00431348     AppSwitch.obj
 0002:00011350       __ehfuncinfo$??0?$QDict@VQWidget@@@@QAE@H_N@Z 00431350     AppSwitch.obj
 0002:00011350       __ehfuncinfo$??1?$QDict@VCExtProcess@@@@UAE@XZ 00431350     AppSwitch.obj
 0002:00011350       __ehfuncinfo$??1?$QDict@VQWidget@@@@UAE@XZ 00431350     AppSwitch.obj
 0002:00011350       __ehfuncinfo$??0?$QDict@VCAppItem@@@@QAE@H_N@Z 00431350     AppSwitch.obj
 0002:00011350       __ehfuncinfo$??1?$QDict@VCAppItem@@@@UAE@XZ 00431350     AppSwitch.obj
 0002:00011350       __ehfuncinfo$??0?$QDict@VCExtProcess@@@@QAE@H_N@Z 00431350     AppSwitch.obj
 0002:00011374       __unwindtable$??1?$QDictIterator@VQWidget@@@@QAE@XZ 00431374     AppSwitch.obj
 0002:00011374       __unwindtable$??1?$QDictIterator@VCExtProcess@@@@QAE@XZ 00431374     AppSwitch.obj
 0002:0001137c       __ehfuncinfo$??1?$QDictIterator@VCExtProcess@@@@QAE@XZ 0043137c     AppSwitch.obj
 0002:0001137c       __ehfuncinfo$??1?$QDictIterator@VQWidget@@@@QAE@XZ 0043137c     AppSwitch.obj
 0002:000113a0       __unwindtable$?defaultTitle@CPanelMan@@SA?AVQString@@XZ 004313a0     AppSwitch.obj
 0002:000113a0       __unwindtable$?currentKey@?$QDictIterator@VCExtProcess@@@@QBE?AVQString@@XZ 004313a0     AppSwitch.obj
 0002:000113a0       __unwindtable$?currentKey@?$QDictIterator@VQWidget@@@@QBE?AVQString@@XZ 004313a0     AppSwitch.obj
 0002:000113a8       __ehfuncinfo$?defaultTitle@CPanelMan@@SA?AVQString@@XZ 004313a8     AppSwitch.obj
 0002:000113a8       __ehfuncinfo$?currentKey@?$QDictIterator@VCExtProcess@@@@QBE?AVQString@@XZ 004313a8     AppSwitch.obj
 0002:000113a8       __ehfuncinfo$?currentKey@?$QDictIterator@VQWidget@@@@QBE?AVQString@@XZ 004313a8     AppSwitch.obj
 0002:000113cc       __ehfuncinfo$??0CAppView@@QAE@PAVQWidget@@ABVQString@@@Z 004313cc     AppView.obj
 0002:000113f0       __unwindtable$??0CAppView@@QAE@PAVQWidget@@ABVQString@@@Z 004313f0     AppView.obj
 0002:00011438       __ehfuncinfo$??1CAppView@@UAE@XZ 00431438     AppView.obj
 0002:0001145c       __unwindtable$??1CAppView@@UAE@XZ 0043145c     AppView.obj
 0002:00011484       __ehfuncinfo$?clearPanels@CAppView@@QAEXXZ 00431484     AppView.obj
 0002:000114a8       __unwindtable$?clearPanels@CAppView@@QAEXXZ 004314a8     AppView.obj
 0002:00011568       __ehfuncinfo$?showView@CAppView@@QAE_NVQString@@0_N@Z 00431568     AppView.obj
 0002:0001158c       __unwindtable$?showView@CAppView@@QAE_NVQString@@0_N@Z 0043158c     AppView.obj
 0002:000117b4       __ehfuncinfo$?deleteOldestPanel@CAppView@@AAEXXZ 004317b4     AppView.obj
 0002:000117d8       __unwindtable$?deleteOldestPanel@CAppView@@AAEXXZ 004317d8     AppView.obj
 0002:00011800       __unwindtable$??0bncs_mcComms@@QAE@W4mcCommsType@0@@Z 00431800     bncs_mcComms.obj
 0002:00011818       __ehfuncinfo$??0bncs_mcComms@@QAE@W4mcCommsType@0@@Z 00431818     bncs_mcComms.obj
 0002:0001183c       __unwindtable$??1bncs_multicast@@UAE@XZ 0043183c     bncs_multicast.obj
 0002:0001183c       __unwindtable$??0bncs_multicast@@QAE@XZ 0043183c     bncs_multicast.obj
 0002:00011854       __ehfuncinfo$??0bncs_multicast@@QAE@XZ 00431854     bncs_multicast.obj
 0002:00011854       __ehfuncinfo$??1bncs_multicast@@UAE@XZ 00431854     bncs_multicast.obj
 0002:00011878       __unwindtable$?enableRx@bncs_multicast@@QAE_N_N@Z 00431878     bncs_multicast.obj
 0002:00011888       __ehfuncinfo$?enableRx@bncs_multicast@@QAE_N_N@Z 00431888     bncs_multicast.obj
 0002:000118ac       __unwindtable$?setMulticastParams@bncs_multicast@@QAEXABVQString@@H0@Z 004318ac     bncs_multicast.obj
 0002:000118bc       __ehfuncinfo$?setMulticastParams@bncs_multicast@@QAEXABVQString@@H0@Z 004318bc     bncs_multicast.obj
 0002:000118e0       __unwindtable$?rx@bncs_multicast@@UAEXPBDH@Z 004318e0     bncs_multicast.obj
 0002:000118f0       __ehfuncinfo$?rx@bncs_multicast@@UAEXPBDH@Z 004318f0     bncs_multicast.obj
 0002:00011914       __unwindtable$??0bncs_popup@@QAE@PAVQWidget@@0@Z 00431914     bncs_popup.obj
 0002:00011914       __unwindtable$??1bncs_popup@@UAE@XZ 00431914     bncs_popup.obj
 0002:0001191c       __ehfuncinfo$??1bncs_popup@@UAE@XZ 0043191c     bncs_popup.obj
 0002:0001191c       __ehfuncinfo$??0bncs_popup@@QAE@PAVQWidget@@0@Z 0043191c     bncs_popup.obj
 0002:00011940       __unwindtable$??0CClient@@QAE@PAVQWidget@@@Z 00431940     Client.obj
 0002:00011950       __ehfuncinfo$??0CClient@@QAE@PAVQWidget@@@Z 00431950     Client.obj
 0002:00011974       __unwindtable$??1CSimpleBar@@UAE@XZ 00431974     Client.obj
 0002:00011974       __unwindtable$??1CClient@@UAE@XZ 00431974     Client.obj
 0002:00011974       __unwindtable$??0CSimpleBar@@QAE@PAVQWidget@@@Z 00431974     Client.obj
 0002:00011974       __unwindtable$??1wait@@UAE@XZ 00431974     Client.obj
 0002:0001197c       __ehfuncinfo$??1wait@@UAE@XZ 0043197c     Client.obj
 0002:0001197c       __ehfuncinfo$??1CClient@@UAE@XZ 0043197c     Client.obj
 0002:0001197c       __ehfuncinfo$??1CSimpleBar@@UAE@XZ 0043197c     Client.obj
 0002:0001197c       __ehfuncinfo$??0CSimpleBar@@QAE@PAVQWidget@@@Z 0043197c     Client.obj
 0002:000119a0       __unwindtable$?sendMsg@CClient@@QAEXHPBDH@Z 004319a0     Client.obj
 0002:000119b0       __ehfuncinfo$?sendMsg@CClient@@QAEXHPBDH@Z 004319b0     Client.obj
 0002:000119d4       __unwindtable$?cccInfoRevertive@CClient@@EAEXHHABV?$basic_string@DU?$char_traits@D@std@@V?$allocator@D@2@@std@@@Z 004319d4     Client.obj
 0002:000119dc       __ehfuncinfo$?cccInfoRevertive@CClient@@EAEXHHABV?$basic_string@DU?$char_traits@D@std@@V?$allocator@D@2@@std@@@Z 004319dc     Client.obj
 0002:00011a00       __unwindtable$??0CConfirm_Exit@@QAE@XZ 00431a00     Confirm_Exit.obj
 0002:00011a18       __ehfuncinfo$??0CConfirm_Exit@@QAE@XZ 00431a18     Confirm_Exit.obj
 0002:00011a3c       __unwindtable$??1CConfirm_Exit@@UAE@XZ 00431a3c     Confirm_Exit.obj
 0002:00011a44       __ehfuncinfo$??1CConfirm_Exit@@UAE@XZ 00431a44     Confirm_Exit.obj
 0002:00011a9c       __unwindtable$?timerEvent@CExtProcess@@UAEXPAVQTimerEvent@@@Z 00431a9c     ExtProcess.obj
 0002:00011aac       __ehfuncinfo$?timerEvent@CExtProcess@@UAEXPAVQTimerEvent@@@Z 00431aac     ExtProcess.obj
 0002:00011ad0       __unwindtable$??1CExtProcess@@UAE@XZ 00431ad0     ExtProcess.obj
 0002:00011ad0       __unwindtable$??0CExtProcess@@QAE@PAVQObject@@PBD@Z 00431ad0     ExtProcess.obj
 0002:00011ae0       __ehfuncinfo$??0CExtProcess@@QAE@PAVQObject@@PBD@Z 00431ae0     ExtProcess.obj
 0002:00011ae0       __ehfuncinfo$??1CExtProcess@@UAE@XZ 00431ae0     ExtProcess.obj
 0002:00011b04       __ehfuncinfo$?getInstancesOfType@CLookUp@@QAE?AVQStringList@@VQString@@@Z 00431b04     LookUp.obj
 0002:00011b28       __unwindtable$?getInstancesOfType@CLookUp@@QAE?AVQStringList@@VQString@@@Z 00431b28     LookUp.obj
 0002:00011b80       __tryblocktable$_main      00431b80     main.obj
 0002:00011b94       __catchsym$_main$38        00431b94     main.obj
 0002:00011bb4       __ehfuncinfo$_main         00431bb4     main.obj
 0002:00011bd8       __unwindtable$_main        00431bd8     main.obj
 0002:00011d08       __unwindtable$?staticMetaObject@bncs_popup@@SAPAVQMetaObject@@XZ 00431d08     moc_bncs_popup.obj
 0002:00011d10       __ehfuncinfo$?staticMetaObject@bncs_popup@@SAPAVQMetaObject@@XZ 00431d10     moc_bncs_popup.obj
 0002:00011d34       __unwindtable$?notify@bncs_popup@@IAEXAAVQString@@@Z 00431d34     moc_bncs_popup.obj
 0002:00011d3c       __ehfuncinfo$?notify@bncs_popup@@IAEXAAVQString@@@Z 00431d3c     moc_bncs_popup.obj
 0002:00011d60       __ehfuncinfo$??0CPanelMan@@QAE@ABVQString@@00@Z 00431d60     PanelMan.obj
 0002:00011d84       __unwindtable$??0CPanelMan@@QAE@ABVQString@@00@Z 00431d84     PanelMan.obj
 0002:00011e8c       __ehfuncinfo$??1CPanelMan@@UAE@XZ 00431e8c     PanelMan.obj
 0002:00011eb0       __unwindtable$??1CPanelMan@@UAE@XZ 00431eb0     PanelMan.obj
 0002:00011ef8       __unwindtable$?debug@CPanelMan@@QAEXVQString@@@Z 00431ef8     PanelMan.obj
 0002:00011ef8       __unwindtable$?timerEvent@CStartPop@@EAEXPAVQTimerEvent@@@Z 00431ef8     PanelMan.obj
 0002:00011ef8       __unwindtable$?setToolTip@CAdjustMon@@AAEXVQString@@@Z 00431ef8     PanelMan.obj
 0002:00011f00       __ehfuncinfo$?timerEvent@CStartPop@@EAEXPAVQTimerEvent@@@Z 00431f00     PanelMan.obj
 0002:00011f00       __ehfuncinfo$?debug@CPanelMan@@QAEXVQString@@@Z 00431f00     PanelMan.obj
 0002:00011f00       __ehfuncinfo$?setToolTip@CAdjustMon@@AAEXVQString@@@Z 00431f00     PanelMan.obj
 0002:00011f24       __ehfuncinfo$?getAttribute@CPanelMan@@QAE?AVQString@@V2@00@Z 00431f24     PanelMan.obj
 0002:00011f48       __unwindtable$?getAttribute@CPanelMan@@QAE?AVQString@@V2@00@Z 00431f48     PanelMan.obj
 0002:00012030       __unwindtable$?shutDown@CPanelMan@@QAEXXZ 00432030     PanelMan.obj
 0002:00012038       __ehfuncinfo$?shutDown@CPanelMan@@QAEXXZ 00432038     PanelMan.obj
 0002:0001205c       __ehfuncinfo$?getSettings@CPanelMan@@AAEXXZ 0043205c     PanelMan.obj
 0002:00012080       __unwindtable$?getSettings@CPanelMan@@AAEXXZ 00432080     PanelMan.obj
 0002:00012168       __unwindtable$?widgetList@dCW@@QAE?AVQWidgetList@@XZ 00432168     SimpleBar.obj
 0002:00012180       __ehfuncinfo$?widgetList@dCW@@QAE?AVQWidgetList@@XZ 00432180     SimpleBar.obj
 0002:000121a4       __ehfuncinfo$?init@CSimpleBar@@QAE_NVQString@@ABV2@_N@Z 004321a4     SimpleBar.obj
 0002:000121c8       __unwindtable$?init@CSimpleBar@@QAE_NVQString@@ABV2@_N@Z 004321c8     SimpleBar.obj
 0002:00012218       __ehfuncinfo$?setProperty@CSimpleBar@@IAEXVQString@@00@Z 00432218     SimpleBar.obj
 0002:0001223c       __unwindtable$?setProperty@CSimpleBar@@IAEXVQString@@00@Z 0043223c     SimpleBar.obj
 0002:00012264       __ehfuncinfo$?setProperty@CSimpleBar@@IAEXHVQString@@0@Z 00432264     SimpleBar.obj
 0002:00012288       __unwindtable$?setProperty@CSimpleBar@@IAEXHVQString@@0@Z 00432288     SimpleBar.obj
 0002:000122b8       __ehfuncinfo$?getProperty@CSimpleBar@@IAE?AVQString@@V2@0@Z 004322b8     SimpleBar.obj
 0002:000122dc       __unwindtable$?getProperty@CSimpleBar@@IAE?AVQString@@V2@0@Z 004322dc     SimpleBar.obj
 0002:00012324       __unwindtable$??0CStartPop@@QAE@PAVQWidget@@@Z 00432324     StartPop.obj
 0002:00012324       __unwindtable$??1CStartPop@@UAE@XZ 00432324     StartPop.obj
 0002:00012334       __ehfuncinfo$??1CStartPop@@UAE@XZ 00432334     StartPop.obj
 0002:00012334       __ehfuncinfo$??0CStartPop@@QAE@PAVQWidget@@@Z 00432334     StartPop.obj
 0002:00012358       __ehfuncinfo$?showStart@CStartPop@@QAEXPAVQPoint@@@Z 00432358     StartPop.obj
 0002:0001237c       __unwindtable$?showStart@CStartPop@@QAEXPAVQPoint@@@Z 0043237c     StartPop.obj
 0002:000124cc       __ehfuncinfo$?notify@CStartPop@@QAEXAAVQString@@@Z 004324cc     StartPop.obj
 0002:000124f0       __unwindtable$?notify@CStartPop@@QAEXAAVQString@@@Z 004324f0     StartPop.obj
 0002:000125b8       __unwindtable$?slotCleanCount@CStartPop@@QAEXXZ 004325b8     StartPop.obj
 0002:000125d8       __ehfuncinfo$?slotCleanCount@CStartPop@@QAEXXZ 004325d8     StartPop.obj
 0002:000125fc       __ehfuncinfo$?startCalibrate@CStartPop@@AAEXXZ 004325fc     StartPop.obj
 0002:00012620       __unwindtable$?startCalibrate@CStartPop@@AAEXXZ 00432620     StartPop.obj
 0002:000126f0       __ehfuncinfo$?showCleanScreen@CStartPop@@AAEXXZ 004326f0     StartPop.obj
 0002:00012714       __unwindtable$?showCleanScreen@CStartPop@@AAEXXZ 00432714     StartPop.obj
 0002:00012764       __ehfuncinfo$?showPopupPin@CStartPop@@AAEXABVQPoint@@@Z 00432764     StartPop.obj
 0002:00012788       __unwindtable$?showPopupPin@CStartPop@@AAEXABVQPoint@@@Z 00432788     StartPop.obj
 0002:000127c0       __unwindtable$?getAddress@CStartPop@@AAE?AVQString@@XZ 004327c0     StartPop.obj
 0002:000127e0       __ehfuncinfo$?getAddress@CStartPop@@AAE?AVQString@@XZ 004327e0     StartPop.obj
 0002:00012804       __unwindtable$??0CStatusBar@@QAE@PAVQWidget@@@Z 00432804     StatusBar.obj
 0002:00012804       __unwindtable$??1CStatusBar@@UAE@XZ 00432804     StatusBar.obj
 0002:0001280c       __ehfuncinfo$??0CStatusBar@@QAE@PAVQWidget@@@Z 0043280c     StatusBar.obj
 0002:0001280c       __ehfuncinfo$??1CStatusBar@@UAE@XZ 0043280c     StatusBar.obj
 0002:00012830       __ehfuncinfo$??1CTitleBar@@UAE@XZ 00432830     TitleBar.obj
 0002:00012830       __ehfuncinfo$??0CTitleBar@@QAE@PAVQWidget@@@Z 00432830     TitleBar.obj
 0002:00012854       __unwindtable$??1CTitleBar@@UAE@XZ 00432854     TitleBar.obj
 0002:00012854       __unwindtable$??0CTitleBar@@QAE@PAVQWidget@@@Z 00432854     TitleBar.obj
 0002:0001289c       __unwindtable$?setTitle@CTitleBar@@QAEXABVQString@@@Z 0043289c     TitleBar.obj
 0002:000128b4       __ehfuncinfo$?setTitle@CTitleBar@@QAEXABVQString@@@Z 004328b4     TitleBar.obj
 0002:000128d8       __unwindtable$?setTitle@CTitleBar@@QAEXABVQString@@0@Z 004328d8     TitleBar.obj
 0002:000128f0       __ehfuncinfo$?setTitle@CTitleBar@@QAEXABVQString@@0@Z 004328f0     TitleBar.obj
 0002:00012914       __ehfuncinfo$?startClock@CTitleBar@@QAEXXZ 00432914     TitleBar.obj
 0002:00012938       __unwindtable$?startClock@CTitleBar@@QAEXXZ 00432938     TitleBar.obj
 0002:000129a0       __unwindtable$?notify@CTitleBar@@UAEXAAVQString@@@Z 004329a0     TitleBar.obj
 0002:000129c0       __ehfuncinfo$?notify@CTitleBar@@UAEXAAVQString@@@Z 004329c0     TitleBar.obj
 0002:000129e4       __ehfuncinfo$?updateClock@CTitleBar@@QAEXXZ 004329e4     TitleBar.obj
 0002:00012a08       __unwindtable$?updateClock@CTitleBar@@QAEXXZ 00432a08     TitleBar.obj
 0002:00012a88       __unwindtable$??0wait@@QAE@PAVQWidget@@PBDI@Z 00432a88     waitimpl.obj
 0002:00012aa8       __ehfuncinfo$??0wait@@QAE@PAVQWidget@@PBDI@Z 00432aa8     waitimpl.obj
 0002:00012acc       __unwindtable$?paintEvent@bncs_popup@@UAEXPAVQPaintEvent@@@Z 00432acc     waitimpl.obj
 0002:00012acc       __unwindtable$?paintEvent@wait@@UAEXPAVQPaintEvent@@@Z 00432acc     waitimpl.obj
 0002:00012adc       __ehfuncinfo$?paintEvent@bncs_popup@@UAEXPAVQPaintEvent@@@Z 00432adc     waitimpl.obj
 0002:00012adc       __ehfuncinfo$?paintEvent@wait@@UAEXPAVQPaintEvent@@@Z 00432adc     waitimpl.obj
 0002:00012b00       __unwindtable$?resizeEvent@wait@@UAEXPAVQResizeEvent@@@Z 00432b00     waitimpl.obj
 0002:00012b18       __ehfuncinfo$?resizeEvent@wait@@UAEXPAVQResizeEvent@@@Z 00432b18     waitimpl.obj
 0002:00012b3c       __unwindtable$?staticMetaObject@CAppBar@@SAPAVQMetaObject@@XZ 00432b3c     moc_AppBar.obj
 0002:00012b4c       __ehfuncinfo$?staticMetaObject@CAppBar@@SAPAVQMetaObject@@XZ 00432b4c     moc_AppBar.obj
 0002:00012b70       __unwindtable$?staticMetaObject@bncs_multicast@@SAPAVQMetaObject@@XZ 00432b70     moc_bncs_multicast.obj
 0002:00012b78       __ehfuncinfo$?staticMetaObject@bncs_multicast@@SAPAVQMetaObject@@XZ 00432b78     moc_bncs_multicast.obj
 0002:00012b9c       __unwindtable$?staticMetaObject@CConfirm_Exit@@SAPAVQMetaObject@@XZ 00432b9c     moc_Confirm_Exit.obj
 0002:00012bac       __ehfuncinfo$?staticMetaObject@CConfirm_Exit@@SAPAVQMetaObject@@XZ 00432bac     moc_Confirm_Exit.obj
 0002:00012bd0       __unwindtable$?staticMetaObject@CSimpleBar@@SAPAVQMetaObject@@XZ 00432bd0     moc_SimpleBar.obj
 0002:00012bd8       __ehfuncinfo$?staticMetaObject@CSimpleBar@@SAPAVQMetaObject@@XZ 00432bd8     moc_SimpleBar.obj
 0002:00012bfc       __unwindtable$?staticMetaObject@CStartPop@@SAPAVQMetaObject@@XZ 00432bfc     moc_StartPop.obj
 0002:00012c04       __ehfuncinfo$?staticMetaObject@CStartPop@@SAPAVQMetaObject@@XZ 00432c04     moc_StartPop.obj
 0002:00012c28       __unwindtable$?staticMetaObject@CStatusBar@@SAPAVQMetaObject@@XZ 00432c28     moc_StatusBar.obj
 0002:00012c30       __ehfuncinfo$?staticMetaObject@CStatusBar@@SAPAVQMetaObject@@XZ 00432c30     moc_StatusBar.obj
 0002:00012c54       __unwindtable$?staticMetaObject@CTitleBar@@SAPAVQMetaObject@@XZ 00432c54     moc_TitleBar.obj
 0002:00012c5c       __ehfuncinfo$?staticMetaObject@CTitleBar@@SAPAVQMetaObject@@XZ 00432c5c     moc_TitleBar.obj
 0002:00012c80       __sehtable$??_M@YGXPAXIHP6EX0@Z@Z 00432c80     MSVCRT:ehvecdtr.obj
 0002:00012ca0       __sehtable$?__ArrayUnwind@@YGXPAXIHP6EX0@Z@Z 00432ca0     MSVCRT:ehvecdtr.obj
 0002:00012cc0       __sehtable$__onexit        00432cc0     MSVCRT:atonexit.obj
 0002:00012ce0       __sehtable$??_L@YGXPAXIHP6EX0@Z1@Z 00432ce0     MSVCRT:ehvecctr.obj
 0002:00012d00       __sehtable$___tmainCRTStartup 00432d00     MSVCRT:crtexew.obj
 0002:00012d20       __sehtable$__IsNonwritableInCurrentImage 00432d20     MSVCRT:pesect.obj
 0002:00012d40       .edata                     00432d40     PanelMan.exp
 0002:00012d68       rgpv                       00432d68     PanelMan.exp
 0002:000131b0       rgszName                   004331b0     PanelMan.exp
 0002:000135f8       rgwOrd                     004335f8     PanelMan.exp
 0002:0001381c       szName                     0043381c     PanelMan.exp
 0002:00013829       $N00001                    00433829     PanelMan.exp
 0002:0001385d       $N00002                    0043385d     PanelMan.exp
 0002:0001388c       $N00003                    0043388c     PanelMan.exp
 0002:000138bd       $N00004                    004338bd     PanelMan.exp
 0002:000138e9       $N00005                    004338e9     PanelMan.exp
 0002:00013919       $N00006                    00433919     PanelMan.exp
 0002:00013944       $N00007                    00433944     PanelMan.exp
 0002:00013977       $N00008                    00433977     PanelMan.exp
 0002:000139a5       $N00009                    004339a5     PanelMan.exp
 0002:000139d6       $N00010                    004339d6     PanelMan.exp
 0002:00013a02       $N00011                    00433a02     PanelMan.exp
 0002:00013a30       $N00012                    00433a30     PanelMan.exp
 0002:00013a59       $N00013                    00433a59     PanelMan.exp
 0002:00013a88       $N00014                    00433a88     PanelMan.exp
 0002:00013ab2       $N00015                    00433ab2     PanelMan.exp
 0002:00013ae9       $N00016                    00433ae9     PanelMan.exp
 0002:00013b3e       $N00017                    00433b3e     PanelMan.exp
 0002:00013b5f       $N00018                    00433b5f     PanelMan.exp
 0002:00013b8b       $N00019                    00433b8b     PanelMan.exp
 0002:00013bb3       $N00020                    00433bb3     PanelMan.exp
 0002:00013bd6       $N00021                    00433bd6     PanelMan.exp
 0002:00013c00       $N00022                    00433c00     PanelMan.exp
 0002:00013c41       $N00023                    00433c41     PanelMan.exp
 0002:00013c70       $N00024                    00433c70     PanelMan.exp
 0002:00013c9c       $N00025                    00433c9c     PanelMan.exp
 0002:00013cc7       $N00026                    00433cc7     PanelMan.exp
 0002:00013cf5       $N00027                    00433cf5     PanelMan.exp
 0002:00013d21       $N00028                    00433d21     PanelMan.exp
 0002:00013d4a       $N00029                    00433d4a     PanelMan.exp
 0002:00013d74       $N00030                    00433d74     PanelMan.exp
 0002:00013da6       $N00031                    00433da6     PanelMan.exp
 0002:00013dc2       $N00032                    00433dc2     PanelMan.exp
 0002:00013de5       $N00033                    00433de5     PanelMan.exp
 0002:00013e0a       $N00034                    00433e0a     PanelMan.exp
 0002:00013e42       $N00035                    00433e42     PanelMan.exp
 0002:00013e77       $N00036                    00433e77     PanelMan.exp
 0002:00013eab       $N00037                    00433eab     PanelMan.exp
 0002:00013ee2       $N00038                    00433ee2     PanelMan.exp
 0002:00013f17       $N00039                    00433f17     PanelMan.exp
 0002:00013f49       $N00040                    00433f49     PanelMan.exp
 0002:00013f7c       $N00041                    00433f7c     PanelMan.exp
 0002:00013fb7       $N00042                    00433fb7     PanelMan.exp
 0002:00013fdc       $N00043                    00433fdc     PanelMan.exp
 0002:00014008       $N00044                    00434008     PanelMan.exp
 0002:00014036       $N00045                    00434036     PanelMan.exp
 0002:00014066       $N00046                    00434066     PanelMan.exp
 0002:00014096       $N00047                    00434096     PanelMan.exp
 0002:000140e4       $N00048                    004340e4     PanelMan.exp
 0002:00014132       $N00049                    00434132     PanelMan.exp
 0002:0001417a       $N00050                    0043417a     PanelMan.exp
 0002:000141c2       $N00051                    004341c2     PanelMan.exp
 0002:00014208       $N00052                    00434208     PanelMan.exp
 0002:0001424e       $N00053                    0043424e     PanelMan.exp
 0002:0001429a       $N00054                    0043429a     PanelMan.exp
 0002:000142e6       $N00055                    004342e6     PanelMan.exp
 0002:0001432e       $N00056                    0043432e     PanelMan.exp
 0002:00014376       $N00057                    00434376     PanelMan.exp
 0002:000143b8       $N00058                    004343b8     PanelMan.exp
 0002:000143fa       $N00059                    004343fa     PanelMan.exp
 0002:00014440       $N00060                    00434440     PanelMan.exp
 0002:00014486       $N00061                    00434486     PanelMan.exp
 0002:000144cc       $N00062                    004344cc     PanelMan.exp
 0002:00014512       $N00063                    00434512     PanelMan.exp
 0002:00014558       $N00064                    00434558     PanelMan.exp
 0002:0001459f       $N00065                    0043459f     PanelMan.exp
 0002:000145e6       $N00066                    004345e6     PanelMan.exp
 0002:0001460e       $N00067                    0043460e     PanelMan.exp
 0002:0001462f       $N00068                    0043462f     PanelMan.exp
 0002:00014673       $N00069                    00434673     PanelMan.exp
 0002:000146b3       $N00070                    004346b3     PanelMan.exp
 0002:000146de       $N00071                    004346de     PanelMan.exp
 0002:00014717       $N00072                    00434717     PanelMan.exp
 0002:0001474f       $N00073                    0043474f     PanelMan.exp
 0002:000147b1       $N00074                    004347b1     PanelMan.exp
 0002:00014818       $N00075                    00434818     PanelMan.exp
 0002:00014874       $N00076                    00434874     PanelMan.exp
 0002:000148d5       $N00077                    004348d5     PanelMan.exp
 0002:0001492f       $N00078                    0043492f     PanelMan.exp
 0002:0001498e       $N00079                    0043498e     PanelMan.exp
 0002:000149ee       $N00080                    004349ee     PanelMan.exp
 0002:00014a53       $N00081                    00434a53     PanelMan.exp
 0002:00014aaf       $N00082                    00434aaf     PanelMan.exp
 0002:00014b10       $N00083                    00434b10     PanelMan.exp
 0002:00014b66       $N00084                    00434b66     PanelMan.exp
 0002:00014bc1       $N00085                    00434bc1     PanelMan.exp
 0002:00014c1c       $N00086                    00434c1c     PanelMan.exp
 0002:00014c77       $N00087                    00434c77     PanelMan.exp
 0002:00014caa       $N00088                    00434caa     PanelMan.exp
 0002:00014cda       $N00089                    00434cda     PanelMan.exp
 0002:00014d09       $N00090                    00434d09     PanelMan.exp
 0002:00014d3b       $N00091                    00434d3b     PanelMan.exp
 0002:00014d6b       $N00092                    00434d6b     PanelMan.exp
 0002:00014d98       $N00093                    00434d98     PanelMan.exp
 0002:00014dc6       $N00094                    00434dc6     PanelMan.exp
 0002:00014e32       $N00095                    00434e32     PanelMan.exp
 0002:00014e98       $N00096                    00434e98     PanelMan.exp
 0002:00014efc       $N00097                    00434efc     PanelMan.exp
 0002:00014f66       $N00098                    00434f66     PanelMan.exp
 0002:00014fcc       $N00099                    00434fcc     PanelMan.exp
 0002:0001502c       $N00100                    0043502c     PanelMan.exp
 0002:0001508c       $N00101                    0043508c     PanelMan.exp
 0002:000150f6       $N00102                    004350f6     PanelMan.exp
 0002:0001515a       $N00103                    0043515a     PanelMan.exp
 0002:000151bc       $N00104                    004351bc     PanelMan.exp
 0002:00015224       $N00105                    00435224     PanelMan.exp
 0002:00015288       $N00106                    00435288     PanelMan.exp
 0002:000152e6       $N00107                    004352e6     PanelMan.exp
 0002:00015344       $N00108                    00435344     PanelMan.exp
 0002:00015387       $N00109                    00435387     PanelMan.exp
 0002:000153c7       $N00110                    004353c7     PanelMan.exp
 0002:00015406       $N00111                    00435406     PanelMan.exp
 0002:00015448       $N00112                    00435448     PanelMan.exp
 0002:00015488       $N00113                    00435488     PanelMan.exp
 0002:000154c5       $N00114                    004354c5     PanelMan.exp
 0002:0001550b       $N00115                    0043550b     PanelMan.exp
 0002:00015554       $N00116                    00435554     PanelMan.exp
 0002:00015593       $N00117                    00435593     PanelMan.exp
 0002:000155c6       $N00118                    004355c6     PanelMan.exp
 0002:00015602       $N00119                    00435602     PanelMan.exp
 0002:00015632       $N00120                    00435632     PanelMan.exp
 0002:0001566d       $N00121                    0043566d     PanelMan.exp
 0002:0001569c       $N00122                    0043569c     PanelMan.exp
 0002:000156da       $N00123                    004356da     PanelMan.exp
 0002:0001570c       $N00124                    0043570c     PanelMan.exp
 0002:00015748       $N00125                    00435748     PanelMan.exp
 0002:00015778       $N00126                    00435778     PanelMan.exp
 0002:000157b1       $N00127                    004357b1     PanelMan.exp
 0002:000157de       $N00128                    004357de     PanelMan.exp
 0002:0001580c       $N00129                    0043580c     PanelMan.exp
 0002:00015842       $N00130                    00435842     PanelMan.exp
 0002:00015886       $N00131                    00435886     PanelMan.exp
 0002:000158d2       $N00132                    004358d2     PanelMan.exp
 0002:00015910       $N00133                    00435910     PanelMan.exp
 0002:00015946       $N00134                    00435946     PanelMan.exp
 0002:0001597a       $N00135                    0043597a     PanelMan.exp
 0002:000159ab       $N00136                    004359ab     PanelMan.exp
 0002:000159db       $N00137                    004359db     PanelMan.exp
 0002:00015a0e       $N00138                    00435a0e     PanelMan.exp
 0002:00015a3f       $N00139                    00435a3f     PanelMan.exp
 0002:00015a6d       $N00140                    00435a6d     PanelMan.exp
 0002:00015aa9       $N00141                    00435aa9     PanelMan.exp
 0002:00015ae2       $N00142                    00435ae2     PanelMan.exp
 0002:00015b1a       $N00143                    00435b1a     PanelMan.exp
 0002:00015b55       $N00144                    00435b55     PanelMan.exp
 0002:00015b8e       $N00145                    00435b8e     PanelMan.exp
 0002:00015bc4       $N00146                    00435bc4     PanelMan.exp
 0002:00015bf8       $N00147                    00435bf8     PanelMan.exp
 0002:00015c29       $N00148                    00435c29     PanelMan.exp
 0002:00015c59       $N00149                    00435c59     PanelMan.exp
 0002:00015c8c       $N00150                    00435c8c     PanelMan.exp
 0002:00015cbd       $N00151                    00435cbd     PanelMan.exp
 0002:00015ceb       $N00152                    00435ceb     PanelMan.exp
 0002:00015d4b       $N00153                    00435d4b     PanelMan.exp
 0002:00015db0       $N00154                    00435db0     PanelMan.exp
 0002:00015e0a       $N00155                    00435e0a     PanelMan.exp
 0002:00015e69       $N00156                    00435e69     PanelMan.exp
 0002:00015ec1       $N00157                    00435ec1     PanelMan.exp
 0002:00015f1e       $N00158                    00435f1e     PanelMan.exp
 0002:00015f7c       $N00159                    00435f7c     PanelMan.exp
 0002:00015fdf       $N00160                    00435fdf     PanelMan.exp
 0002:00016039       $N00161                    00436039     PanelMan.exp
 0002:00016098       $N00162                    00436098     PanelMan.exp
 0002:000160ec       $N00163                    004360ec     PanelMan.exp
 0002:00016145       $N00164                    00436145     PanelMan.exp
 0002:0001619e       $N00165                    0043619e     PanelMan.exp
 0002:000161f7       $N00166                    004361f7     PanelMan.exp
 0002:00016236       $N00167                    00436236     PanelMan.exp
 0002:00016297       $N00168                    00436297     PanelMan.exp
 0002:000162d3       $N00169                    004362d3     PanelMan.exp
 0002:0001632e       $N00170                    0043632e     PanelMan.exp
 0002:00016369       $N00171                    00436369     PanelMan.exp
 0002:000163c2       $N00172                    004363c2     PanelMan.exp
 0002:00016400       $N00173                    00436400     PanelMan.exp
 0002:0001645f       $N00174                    0043645f     PanelMan.exp
 0002:0001649b       $N00175                    0043649b     PanelMan.exp
 0002:000164f6       $N00176                    004364f6     PanelMan.exp
 0002:0001652f       $N00177                    0043652f     PanelMan.exp
 0002:00016584       $N00178                    00436584     PanelMan.exp
 0002:000165e2       $N00179                    004365e2     PanelMan.exp
 0002:0001664f       $N00180                    0043664f     PanelMan.exp
 0002:000166c1       $N00181                    004366c1     PanelMan.exp
 0002:00016728       $N00182                    00436728     PanelMan.exp
 0002:00016794       $N00183                    00436794     PanelMan.exp
 0002:000167f9       $N00184                    004367f9     PanelMan.exp
 0002:00016863       $N00185                    00436863     PanelMan.exp
 0002:000168ce       $N00186                    004368ce     PanelMan.exp
 0002:0001693e       $N00187                    0043693e     PanelMan.exp
 0002:000169a5       $N00188                    004369a5     PanelMan.exp
 0002:00016a11       $N00189                    00436a11     PanelMan.exp
 0002:00016a72       $N00190                    00436a72     PanelMan.exp
 0002:00016ad8       $N00191                    00436ad8     PanelMan.exp
 0002:00016b1a       $N00192                    00436b1a     PanelMan.exp
 0002:00016b60       $N00193                    00436b60     PanelMan.exp
 0002:00016ba9       $N00194                    00436ba9     PanelMan.exp
 0002:00016bee       $N00195                    00436bee     PanelMan.exp
 0002:00016c30       $N00196                    00436c30     PanelMan.exp
 0002:00016c75       $N00197                    00436c75     PanelMan.exp
 0002:00016cb9       $N00198                    00436cb9     PanelMan.exp
 0002:00016cfd       $N00199                    00436cfd     PanelMan.exp
 0002:00016d9a       $N00200                    00436d9a     PanelMan.exp
 0002:00016e1f       $N00201                    00436e1f     PanelMan.exp
 0002:00016eb3       $N00202                    00436eb3     PanelMan.exp
 0002:00016f2f       $N00203                    00436f2f     PanelMan.exp
 0002:00016fc0       $N00204                    00436fc0     PanelMan.exp
 0002:00017039       $N00205                    00437039     PanelMan.exp
 0002:000170d3       $N00206                    004370d3     PanelMan.exp
 0002:00017155       $N00207                    00437155     PanelMan.exp
 0002:000171e9       $N00208                    004371e9     PanelMan.exp
 0002:00017265       $N00209                    00437265     PanelMan.exp
 0002:000172f0       $N00210                    004372f0     PanelMan.exp
 0002:00017363       $N00211                    00437363     PanelMan.exp
 0002:000173a9       $N00212                    004373a9     PanelMan.exp
 0002:000173df       $N00213                    004373df     PanelMan.exp
 0002:00017412       $N00214                    00437412     PanelMan.exp
 0002:00017444       $N00215                    00437444     PanelMan.exp
 0002:00017479       $N00216                    00437479     PanelMan.exp
 0002:000174ac       $N00217                    004374ac     PanelMan.exp
 0002:000174dc       $N00218                    004374dc     PanelMan.exp
 0002:0001750d       $N00219                    0043750d     PanelMan.exp
 0002:00017546       $N00220                    00437546     PanelMan.exp
 0002:00017593       $N00221                    00437593     PanelMan.exp
 0002:000175dd       $N00222                    004375dd     PanelMan.exp
 0002:00017626       $N00223                    00437626     PanelMan.exp
 0002:00017672       $N00224                    00437672     PanelMan.exp
 0002:000176bc       $N00225                    004376bc     PanelMan.exp
 0002:00017703       $N00226                    00437703     PanelMan.exp
 0002:00017744       $N00227                    00437744     PanelMan.exp
 0002:00017785       $N00228                    00437785     PanelMan.exp
 0002:000177ca       $N00229                    004377ca     PanelMan.exp
 0002:0001780b       $N00230                    0043780b     PanelMan.exp
 0002:0001784b       $N00231                    0043784b     PanelMan.exp
 0002:000178ad       $N00232                    004378ad     PanelMan.exp
 0002:000178ea       $N00233                    004378ea     PanelMan.exp
 0002:00017946       $N00234                    00437946     PanelMan.exp
 0002:00017982       $N00235                    00437982     PanelMan.exp
 0002:000179dc       $N00236                    004379dc     PanelMan.exp
 0002:00017a1b       $N00237                    00437a1b     PanelMan.exp
 0002:00017a7b       $N00238                    00437a7b     PanelMan.exp
 0002:00017ab8       $N00239                    00437ab8     PanelMan.exp
 0002:00017b14       $N00240                    00437b14     PanelMan.exp
 0002:00017b4e       $N00241                    00437b4e     PanelMan.exp
 0002:00017ba4       $N00242                    00437ba4     PanelMan.exp
 0002:00017bd5       $N00243                    00437bd5     PanelMan.exp
 0002:00017c1a       $N00244                    00437c1a     PanelMan.exp
 0002:00017c4a       $N00245                    00437c4a     PanelMan.exp
 0002:00017c7f       $N00246                    00437c7f     PanelMan.exp
 0002:00017cb3       $N00247                    00437cb3     PanelMan.exp
 0002:00017cf1       $N00248                    00437cf1     PanelMan.exp
 0002:00017d39       $N00249                    00437d39     PanelMan.exp
 0002:00017dbd       $N00250                    00437dbd     PanelMan.exp
 0002:00017e38       $N00251                    00437e38     PanelMan.exp
 0002:00017eb0       $N00252                    00437eb0     PanelMan.exp
 0002:00017f31       $N00253                    00437f31     PanelMan.exp
 0002:00017fac       $N00254                    00437fac     PanelMan.exp
 0002:0001801e       $N00255                    0043801e     PanelMan.exp
 0002:00018065       $N00256                    00438065     PanelMan.exp
 0002:00018097       $N00257                    00438097     PanelMan.exp
 0002:000180c6       $N00258                    004380c6     PanelMan.exp
 0002:000180f4       $N00259                    004380f4     PanelMan.exp
 0002:00018125       $N00260                    00438125     PanelMan.exp
 0002:00018154       $N00261                    00438154     PanelMan.exp
 0002:00018180       $N00262                    00438180     PanelMan.exp
 0002:000181ad       $N00263                    004381ad     PanelMan.exp
 0002:000181ef       $N00264                    004381ef     PanelMan.exp
 0002:00018230       $N00265                    00438230     PanelMan.exp
 0002:00018280       $N00266                    00438280     PanelMan.exp
 0002:000182cc       $N00267                    004382cc     PanelMan.exp
 0002:00018317       $N00268                    00438317     PanelMan.exp
 0002:00018355       $N00269                    00438355     PanelMan.exp
 0002:000183ac       $N00270                    004383ac     PanelMan.exp
 0002:000183fd       $N00271                    004383fd     PanelMan.exp
 0002:0001844c       $N00272                    0043844c     PanelMan.exp
 0002:000184a1       $N00273                    004384a1     PanelMan.exp
 0002:000184f2       $N00274                    004384f2     PanelMan.exp
 0002:0001a9c2       .idata$6                   0043a9c2     bncs_cachedData:bncs_cachedData.dll
 0002:0001a9d6       .idata$6                   0043a9d6     wsock32:WSOCK32.dll
 0002:0001a9f0       .idata$6                   0043a9f0     winmm:WINMM.dll
 0002:00022166       .idata$6                   00442166     qt-mt323:qt-mt323.dll
 0002:000222a8       .idata$6                   004422a8     bncs_config:bncs_config.dll
 0002:00022426       .idata$6                   00442426     bncs_string:bncs_string.dll
 0002:000225c8       .idata$6                   004425c8     dcw:dcw.dll
 0002:00022766       .idata$6                   00442766     bncs_shim_loader:bncs_shim_loader.dll
 0002:00022858       .idata$6                   00442858     kernel32:KERNEL32.dll
 0002:0002291c       .idata$6                   0044291c     user32:USER32.dll
 0002:000229c2       .idata$6                   004429c2     msvcprt:MSVCP120.dll
 0002:00022b3e       .idata$6                   00442b3e     MSVCRT:MSVCR120.dll
 0002:00022d6a       .idata$6                   00442d6a     version:VERSION.dll
 0003:00000010       _PM_large_Icon_32          0044f010     PanelMan.obj
 0003:00000294       ?param_slot_2@?3??staticMetaObject@CAppBar@@SAPAVQMetaObject@@XZ@4QBUQUParameter@@B 0044f294     moc_AppBar.obj
 0003:000002a4       ?param_slot_0@?3??staticMetaObject@bncs_multicast@@SAPAVQMetaObject@@XZ@4QBUQUParameter@@B 0044f2a4     moc_bncs_multicast.obj
 0003:000002b4       ?param_slot_0@?3??staticMetaObject@CSimpleBar@@SAPAVQMetaObject@@XZ@4QBUQUParameter@@B 0044f2b4     moc_SimpleBar.obj
 0003:000002c4       ?param_slot_1@?3??staticMetaObject@CStartPop@@SAPAVQMetaObject@@XZ@4QBUQUParameter@@B 0044f2c4     moc_StartPop.obj
 0003:000002d4       ?param_slot_0@?3??staticMetaObject@CStatusBar@@SAPAVQMetaObject@@XZ@4QBUQUParameter@@B 0044f2d4     moc_StatusBar.obj
 0003:000002e4       ?param_slot_0@?3??staticMetaObject@CTitleBar@@SAPAVQMetaObject@@XZ@4QBUQUParameter@@B 0044f2e4     moc_TitleBar.obj
 0003:000002f4       ?param_slot_0@?3??staticMetaObject@config_mb4@@SAPAVQMetaObject@@XZ@4QBUQUParameter@@B 0044f2f4     cfg_widgets001:moc_config_mb4impl.obj
 0003:00000588       _BNCS_DISKLOG_SIG          0044f588     bncs_disklog:bncs_disklog.obj
 0003:00000fe0       _allocator_arg             0044ffe0     AdjustMon.obj
 0003:00000fe1       _piecewise_construct       0044ffe1     AdjustMon.obj
 0003:00000fec       _allocator_arg             0044ffec     AppBar.obj
 0003:00000fed       _piecewise_construct       0044ffed     AppBar.obj
 0003:00000fee       _allocator_arg             0044ffee     AppSwitch.obj
 0003:00000fef       _piecewise_construct       0044ffef     AppSwitch.obj
 0003:00000ff0       _allocator_arg             0044fff0     AppView.obj
 0003:00000ff1       _piecewise_construct       0044fff1     AppView.obj
 0003:00000ff8       __Tuple_alloc              0044fff8     Client.obj
 0003:00000ff9       _ignore                    0044fff9     Client.obj
 0003:00000ffa       _allocator_arg             0044fffa     Client.obj
 0003:00000ffb       _piecewise_construct       0044fffb     Client.obj
 0003:00000ffc       _allocator_arg             0044fffc     Confirm_Exit.obj
 0003:00000ffd       _piecewise_construct       0044fffd     Confirm_Exit.obj
 0003:00000ffe       _allocator_arg             0044fffe     except.obj
 0003:00000fff       _piecewise_construct       0044ffff     except.obj
 0003:00001000       _allocator_arg             00450000     LookUp.obj
 0003:00001001       _piecewise_construct       00450001     LookUp.obj
 0003:00001004       _allocator_arg             00450004     main.obj
 0003:00001005       _piecewise_construct       00450005     main.obj
 0003:00001010       _cleanUp_bncs_popup        00450010     moc_bncs_popup.obj
 0003:00001014       ?param_signal_1@?3??staticMetaObject@bncs_popup@@SAPAVQMetaObject@@XZ@4QBUQUParameter@@B 00450014     moc_bncs_popup.obj
 0003:00001024       ?$S1@?3??staticMetaObject@bncs_popup@@SAPAVQMetaObject@@XZ@4IA 00450024     moc_bncs_popup.obj
 0003:00001028       _allocator_arg             00450028     PanelMan.obj
 0003:00001029       _piecewise_construct       00450029     PanelMan.obj
 0003:00001030       _allocator_arg             00450030     SimpleBar.obj
 0003:00001031       _piecewise_construct       00450031     SimpleBar.obj
 0003:00001032       _allocator_arg             00450032     StartPop.obj
 0003:00001033       _piecewise_construct       00450033     StartPop.obj
 0003:00001034       _allocator_arg             00450034     waitimpl.obj
 0003:00001035       _piecewise_construct       00450035     waitimpl.obj
 0003:0000103c       _cleanUp_CAppBar           0045003c     moc_AppBar.obj
 0003:00001040       ?param_slot_0@?3??staticMetaObject@CAppBar@@SAPAVQMetaObject@@XZ@4QBUQUParameter@@B 00450040     moc_AppBar.obj
 0003:00001050       ?$S1@?3??staticMetaObject@CAppBar@@SAPAVQMetaObject@@XZ@4IA 00450050     moc_AppBar.obj
 0003:00001058       _cleanUp_CAppSwitch        00450058     moc_AppSwitch.obj
 0003:00001060       _cleanUp_bncs_multicast    00450060     moc_bncs_multicast.obj
 0003:00001064       ?$S1@?3??staticMetaObject@bncs_multicast@@SAPAVQMetaObject@@XZ@4IA 00450064     moc_bncs_multicast.obj
 0003:0000106c       _cleanUp_CConfirm_Exit     0045006c     moc_Confirm_Exit.obj
 0003:00001070       ?param_slot_0@?3??staticMetaObject@CConfirm_Exit@@SAPAVQMetaObject@@XZ@4QBUQUParameter@@B 00450070     moc_Confirm_Exit.obj
 0003:00001080       ?$S1@?3??staticMetaObject@CConfirm_Exit@@SAPAVQMetaObject@@XZ@4IA 00450080     moc_Confirm_Exit.obj
 0003:00001084       ?param_slot_1@?3??staticMetaObject@CConfirm_Exit@@SAPAVQMetaObject@@XZ@4QBUQUParameter@@B 00450084     moc_Confirm_Exit.obj
 0003:00001098       _allocator_arg             00450098     moc_PanelMan.obj
 0003:00001099       _piecewise_construct       00450099     moc_PanelMan.obj
 0003:0000109c       _cleanUp_CPanelMan         0045009c     moc_PanelMan.obj
 0003:000010a4       _cleanUp_CSimpleBar        004500a4     moc_SimpleBar.obj
 0003:000010a8       ?$S1@?3??staticMetaObject@CSimpleBar@@SAPAVQMetaObject@@XZ@4IA 004500a8     moc_SimpleBar.obj
 0003:000010b0       _cleanUp_CStartPop         004500b0     moc_StartPop.obj
 0003:000010b4       ?$S1@?3??staticMetaObject@CStartPop@@SAPAVQMetaObject@@XZ@4IA 004500b4     moc_StartPop.obj
 0003:000010bc       _cleanUp_CStatusBar        004500bc     moc_StatusBar.obj
 0003:000010c0       ?$S1@?3??staticMetaObject@CStatusBar@@SAPAVQMetaObject@@XZ@4IA 004500c0     moc_StatusBar.obj
 0003:000010c8       _cleanUp_CTitleBar         004500c8     moc_TitleBar.obj
 0003:000010cc       ?$S1@?3??staticMetaObject@CTitleBar@@SAPAVQMetaObject@@XZ@4IA 004500cc     moc_TitleBar.obj
 0003:000010d4       _cleanUp_wait              004500d4     moc_waitimpl.obj
 0003:000010dc       _cleanUp_config_mb4        004500dc     cfg_widgets001:moc_config_mb4impl.obj
 0003:000010e0       ?$S1@?3??staticMetaObject@config_mb4@@SAPAVQMetaObject@@XZ@4IA 004500e0     cfg_widgets001:moc_config_mb4impl.obj
 0003:000010f0       _widgetFactories           004500f0     qui:qwidgetfactory.obj
 0003:00001110       _languageInterfaceManager  00450110     qui:qwidgetfactory.obj
 0003:00001114       _widgetInterfaceManager    00450114     qui:qwidgetfactory.obj
 0003:00001118       _availableWidgetMap        00450118     qui:qwidgetfactory.obj
 0003:0000111c       _availableWidgetList       0045011c     qui:qwidgetfactory.obj
 0003:00001138       _cleanUp_QDesignerDataBrowser2 00450138     qui:moc_database2.obj
 0003:0000113c       _cleanUp_QDesignerDataView2 0045013c     qui:moc_database2.obj
 0003:00001148       _has_cctor                 00450148     MSVCRT:crtexew.obj
 0003:0000114c       _mainret                   0045014c     MSVCRT:crtexew.obj
 0003:00001150       _managedapp                00450150     MSVCRT:crtexew.obj
 0003:00001154       _argc                      00450154     MSVCRT:crtexew.obj
 0003:00001158       _argv                      00450158     MSVCRT:crtexew.obj
 0003:0000115c       _envp                      0045015c     MSVCRT:crtexew.obj
 0003:00001160       _argret                    00450160     MSVCRT:crtexew.obj
 0003:00001164       _startinfo                 00450164     MSVCRT:crtexew.obj
 0003:00001168       _GS_ExceptionRecord        00450168     MSVCRT:gs_report.obj
 0003:000011b8       _GS_ContextRecord          004501b8     MSVCRT:gs_report.obj
 0003:00001484       _DebuggerWasPresent        00450484     MSVCRT:gs_report.obj
 0004:00000160       $R000000                   00451160     PanelMan.res
 0004:00000540       $R0003E0                   00451540     PanelMan.res
 0004:000011e8       $R001088                   004521e8     PanelMan.res
 0004:00002e90       $R002D30                   00453e90     PanelMan.res
 0004:00002eb8       $R002D58                   00453eb8     PanelMan.res

 Exports

  ordinal    name

        1    ??0?$QMap@VQString@@VcomplexInstance@@@@QAE@ABV0@@Z (public: __thiscall QMap<class QString,class complexInstance>::QMap<class QString,class complexInstance>(class QMap<class QString,class complexInstance> const &))
        2    ??0?$QMap@VQString@@VcomplexInstance@@@@QAE@XZ (public: __thiscall QMap<class QString,class complexInstance>::QMap<class QString,class complexInstance>(void))
        3    ??0?$QMap@VQString@@VcomplexParam@@@@QAE@ABV0@@Z (public: __thiscall QMap<class QString,class complexParam>::QMap<class QString,class complexParam>(class QMap<class QString,class complexParam> const &))
        4    ??0?$QMap@VQString@@VcomplexParam@@@@QAE@XZ (public: __thiscall QMap<class QString,class complexParam>::QMap<class QString,class complexParam>(void))
        5    ??0?$QMap@VQString@@VcomplexType@@@@QAE@ABV0@@Z (public: __thiscall QMap<class QString,class complexType>::QMap<class QString,class complexType>(class QMap<class QString,class complexType> const &))
        6    ??0?$QMap@VQString@@VcomplexType@@@@QAE@XZ (public: __thiscall QMap<class QString,class complexType>::QMap<class QString,class complexType>(void))
        7    ??0?$QMap@VQString@@VdeviceTypeInfo@@@@QAE@ABV0@@Z (public: __thiscall QMap<class QString,class deviceTypeInfo>::QMap<class QString,class deviceTypeInfo>(class QMap<class QString,class deviceTypeInfo> const &))
        8    ??0?$QMap@VQString@@VdeviceTypeInfo@@@@QAE@XZ (public: __thiscall QMap<class QString,class deviceTypeInfo>::QMap<class QString,class deviceTypeInfo>(void))
        9    ??0?$QMap@VQString@@VinstanceInfo@@@@QAE@ABV0@@Z (public: __thiscall QMap<class QString,class instanceInfo>::QMap<class QString,class instanceInfo>(class QMap<class QString,class instanceInfo> const &))
       10    ??0?$QMap@VQString@@VinstanceInfo@@@@QAE@XZ (public: __thiscall QMap<class QString,class instanceInfo>::QMap<class QString,class instanceInfo>(void))
       11    ??0?$QMap@VQString@@VparamInfo@@@@QAE@ABV0@@Z (public: __thiscall QMap<class QString,class paramInfo>::QMap<class QString,class paramInfo>(class QMap<class QString,class paramInfo> const &))
       12    ??0?$QMap@VQString@@VparamInfo@@@@QAE@XZ (public: __thiscall QMap<class QString,class paramInfo>::QMap<class QString,class paramInfo>(void))
       13    ??0?$QPtrList@VsignalConnection@@@@QAE@ABV0@@Z (public: __thiscall QPtrList<class signalConnection>::QPtrList<class signalConnection>(class QPtrList<class signalConnection> const &))
       14    ??0?$QPtrList@VsignalConnection@@@@QAE@XZ (public: __thiscall QPtrList<class signalConnection>::QPtrList<class signalConnection>(void))
       15    ??0?$QPtrListIterator@VsignalConnection@@@@QAE@ABV0@@Z (public: __thiscall QPtrListIterator<class signalConnection>::QPtrListIterator<class signalConnection>(class QPtrListIterator<class signalConnection> const &))
       16    ??0?$QPtrListIterator@VsignalConnection@@@@QAE@ABV?$QPtrList@VsignalConnection@@@@@Z (public: __thiscall QPtrListIterator<class signalConnection>::QPtrListIterator<class signalConnection>(class QPtrList<class signalConnection> const &))
       17    ??0signalConnection@@QAE@ABV0@@Z (public: __thiscall signalConnection::signalConnection(class signalConnection const &))
       18    ??0signalConnection@@QAE@ABVQString@@0000@Z (public: __thiscall signalConnection::signalConnection(class QString const &,class QString const &,class QString const &,class QString const &,class QString const &))
       19    ??0signalConnectionRefList@@QAE@ABV0@@Z (public: __thiscall signalConnectionRefList::signalConnectionRefList(class signalConnectionRefList const &))
       20    ??0signalConnectionRefList@@QAE@XZ (public: __thiscall signalConnectionRefList::signalConnectionRefList(void))
       21    ??0signalConnectionRefListIt@@QAE@ABV0@@Z (public: __thiscall signalConnectionRefListIt::signalConnectionRefListIt(class signalConnectionRefListIt const &))
       22    ??0signalConnectionRefListIt@@QAE@ABVsignalConnectionRefList@@@Z (public: __thiscall signalConnectionRefListIt::signalConnectionRefListIt(class signalConnectionRefList const &))
       23    ??1?$QMap@VQString@@VcomplexInstance@@@@QAE@XZ (public: __thiscall QMap<class QString,class complexInstance>::~QMap<class QString,class complexInstance>(void))
       24    ??1?$QMap@VQString@@VcomplexParam@@@@QAE@XZ (public: __thiscall QMap<class QString,class complexParam>::~QMap<class QString,class complexParam>(void))
       25    ??1?$QMap@VQString@@VcomplexType@@@@QAE@XZ (public: __thiscall QMap<class QString,class complexType>::~QMap<class QString,class complexType>(void))
       26    ??1?$QMap@VQString@@VdeviceTypeInfo@@@@QAE@XZ (public: __thiscall QMap<class QString,class deviceTypeInfo>::~QMap<class QString,class deviceTypeInfo>(void))
       27    ??1?$QMap@VQString@@VinstanceInfo@@@@QAE@XZ (public: __thiscall QMap<class QString,class instanceInfo>::~QMap<class QString,class instanceInfo>(void))
       28    ??1?$QMap@VQString@@VparamInfo@@@@QAE@XZ (public: __thiscall QMap<class QString,class paramInfo>::~QMap<class QString,class paramInfo>(void))
       29    ??1?$QPtrList@VsignalConnection@@@@UAE@XZ (public: virtual __thiscall QPtrList<class signalConnection>::~QPtrList<class signalConnection>(void))
       30    ??1?$QPtrListIterator@VsignalConnection@@@@QAE@XZ (public: __thiscall QPtrListIterator<class signalConnection>::~QPtrListIterator<class signalConnection>(void))
       31    ??1signalConnection@@QAE@XZ (public: __thiscall signalConnection::~signalConnection(void))
       32    ??1signalConnectionRefList@@UAE@XZ (public: virtual __thiscall signalConnectionRefList::~signalConnectionRefList(void))
       33    ??1signalConnectionRefListIt@@QAE@XZ (public: __thiscall signalConnectionRefListIt::~signalConnectionRefListIt(void))
       34    ??4?$QMap@VQString@@VcomplexInstance@@@@QAEAAV0@ABV0@@Z (public: class QMap<class QString,class complexInstance> & __thiscall QMap<class QString,class complexInstance>::operator=(class QMap<class QString,class complexInstance> const &))
       35    ??4?$QMap@VQString@@VcomplexParam@@@@QAEAAV0@ABV0@@Z (public: class QMap<class QString,class complexParam> & __thiscall QMap<class QString,class complexParam>::operator=(class QMap<class QString,class complexParam> const &))
       36    ??4?$QMap@VQString@@VcomplexType@@@@QAEAAV0@ABV0@@Z (public: class QMap<class QString,class complexType> & __thiscall QMap<class QString,class complexType>::operator=(class QMap<class QString,class complexType> const &))
       37    ??4?$QMap@VQString@@VdeviceTypeInfo@@@@QAEAAV0@ABV0@@Z (public: class QMap<class QString,class deviceTypeInfo> & __thiscall QMap<class QString,class deviceTypeInfo>::operator=(class QMap<class QString,class deviceTypeInfo> const &))
       38    ??4?$QMap@VQString@@VinstanceInfo@@@@QAEAAV0@ABV0@@Z (public: class QMap<class QString,class instanceInfo> & __thiscall QMap<class QString,class instanceInfo>::operator=(class QMap<class QString,class instanceInfo> const &))
       39    ??4?$QMap@VQString@@VparamInfo@@@@QAEAAV0@ABV0@@Z (public: class QMap<class QString,class paramInfo> & __thiscall QMap<class QString,class paramInfo>::operator=(class QMap<class QString,class paramInfo> const &))
       40    ??4?$QPtrList@VsignalConnection@@@@QAEAAV0@ABV0@@Z (public: class QPtrList<class signalConnection> & __thiscall QPtrList<class signalConnection>::operator=(class QPtrList<class signalConnection> const &))
       41    ??4?$QPtrListIterator@VsignalConnection@@@@QAEAAV0@ABV0@@Z (public: class QPtrListIterator<class signalConnection> & __thiscall QPtrListIterator<class signalConnection>::operator=(class QPtrListIterator<class signalConnection> const &))
       42    ??4signalConnection@@QAEAAV0@ABV0@@Z (public: class signalConnection & __thiscall signalConnection::operator=(class signalConnection const &))
       43    ??4signalConnectionRefList@@QAEAAV0@ABV0@@Z (public: class signalConnectionRefList & __thiscall signalConnectionRefList::operator=(class signalConnectionRefList const &))
       44    ??4signalConnectionRefListIt@@QAEAAV0@ABV0@@Z (public: class signalConnectionRefListIt & __thiscall signalConnectionRefListIt::operator=(class signalConnectionRefListIt const &))
       45    ??8?$QPtrList@VsignalConnection@@@@QBE_NABV0@@Z (public: bool __thiscall QPtrList<class signalConnection>::operator==(class QPtrList<class signalConnection> const &)const )
       46    ??9?$QPtrList@VsignalConnection@@@@QBE_NABV0@@Z (public: bool __thiscall QPtrList<class signalConnection>::operator!=(class QPtrList<class signalConnection> const &)const )
       47    ??A?$QMap@VQString@@VcomplexInstance@@@@QAEAAVcomplexInstance@@ABVQString@@@Z (public: class complexInstance & __thiscall QMap<class QString,class complexInstance>::operator[](class QString const &))
       48    ??A?$QMap@VQString@@VcomplexInstance@@@@QBEABVcomplexInstance@@ABVQString@@@Z (public: class complexInstance const & __thiscall QMap<class QString,class complexInstance>::operator[](class QString const &)const )
       49    ??A?$QMap@VQString@@VcomplexParam@@@@QAEAAVcomplexParam@@ABVQString@@@Z (public: class complexParam & __thiscall QMap<class QString,class complexParam>::operator[](class QString const &))
       50    ??A?$QMap@VQString@@VcomplexParam@@@@QBEABVcomplexParam@@ABVQString@@@Z (public: class complexParam const & __thiscall QMap<class QString,class complexParam>::operator[](class QString const &)const )
       51    ??A?$QMap@VQString@@VcomplexType@@@@QAEAAVcomplexType@@ABVQString@@@Z (public: class complexType & __thiscall QMap<class QString,class complexType>::operator[](class QString const &))
       52    ??A?$QMap@VQString@@VcomplexType@@@@QBEABVcomplexType@@ABVQString@@@Z (public: class complexType const & __thiscall QMap<class QString,class complexType>::operator[](class QString const &)const )
       53    ??A?$QMap@VQString@@VdeviceTypeInfo@@@@QAEAAVdeviceTypeInfo@@ABVQString@@@Z (public: class deviceTypeInfo & __thiscall QMap<class QString,class deviceTypeInfo>::operator[](class QString const &))
       54    ??A?$QMap@VQString@@VdeviceTypeInfo@@@@QBEABVdeviceTypeInfo@@ABVQString@@@Z (public: class deviceTypeInfo const & __thiscall QMap<class QString,class deviceTypeInfo>::operator[](class QString const &)const )
       55    ??A?$QMap@VQString@@VinstanceInfo@@@@QAEAAVinstanceInfo@@ABVQString@@@Z (public: class instanceInfo & __thiscall QMap<class QString,class instanceInfo>::operator[](class QString const &))
       56    ??A?$QMap@VQString@@VinstanceInfo@@@@QBEABVinstanceInfo@@ABVQString@@@Z (public: class instanceInfo const & __thiscall QMap<class QString,class instanceInfo>::operator[](class QString const &)const )
       57    ??A?$QMap@VQString@@VparamInfo@@@@QAEAAVparamInfo@@ABVQString@@@Z (public: class paramInfo & __thiscall QMap<class QString,class paramInfo>::operator[](class QString const &))
       58    ??A?$QMap@VQString@@VparamInfo@@@@QBEABVparamInfo@@ABVQString@@@Z (public: class paramInfo const & __thiscall QMap<class QString,class paramInfo>::operator[](class QString const &)const )
       59    ??B?$QPtrListIterator@VsignalConnection@@@@QBEPAVsignalConnection@@XZ (public: __thiscall QPtrListIterator<class signalConnection>::operator class signalConnection *(void)const )
       60    ??D?$QPtrListIterator@VsignalConnection@@@@QAEPAVsignalConnection@@XZ (public: class signalConnection * __thiscall QPtrListIterator<class signalConnection>::operator*(void))
       61    ??E?$QPtrListIterator@VsignalConnection@@@@QAEPAVsignalConnection@@XZ (public: class signalConnection * __thiscall QPtrListIterator<class signalConnection>::operator++(void))
       62    ??F?$QPtrListIterator@VsignalConnection@@@@QAEPAVsignalConnection@@XZ (public: class signalConnection * __thiscall QPtrListIterator<class signalConnection>::operator--(void))
       63    ??R?$QPtrListIterator@VsignalConnection@@@@QAEPAVsignalConnection@@XZ (public: class signalConnection * __thiscall QPtrListIterator<class signalConnection>::operator()(void))
       64    ??Y?$QPtrListIterator@VsignalConnection@@@@QAEPAVsignalConnection@@I@Z (public: class signalConnection * __thiscall QPtrListIterator<class signalConnection>::operator+=(unsigned int))
       65    ??Z?$QPtrListIterator@VsignalConnection@@@@QAEPAVsignalConnection@@I@Z (public: class signalConnection * __thiscall QPtrListIterator<class signalConnection>::operator-=(unsigned int))
       66    ??_7?$QPtrList@VsignalConnection@@@@6B@ (const QPtrList<class signalConnection>::`vftable')
       67    ??_7signalConnectionRefList@@6B@ (const signalConnectionRefList::`vftable')
       68    ?append@?$QPtrList@VsignalConnection@@@@QAEXPBVsignalConnection@@@Z (public: void __thiscall QPtrList<class signalConnection>::append(class signalConnection const *))
       69    ?at@?$QPtrList@VsignalConnection@@@@QAEPAVsignalConnection@@I@Z (public: class signalConnection * __thiscall QPtrList<class signalConnection>::at(unsigned int))
       70    ?at@?$QPtrList@VsignalConnection@@@@QBEHXZ (public: int __thiscall QPtrList<class signalConnection>::at(void)const )
       71    ?atFirst@?$QPtrListIterator@VsignalConnection@@@@QBE_NXZ (public: bool __thiscall QPtrListIterator<class signalConnection>::atFirst(void)const )
       72    ?atLast@?$QPtrListIterator@VsignalConnection@@@@QBE_NXZ (public: bool __thiscall QPtrListIterator<class signalConnection>::atLast(void)const )
       73    ?begin@?$QMap@VQString@@VcomplexInstance@@@@QAE?AV?$QMapIterator@VQString@@VcomplexInstance@@@@XZ (public: class QMapIterator<class QString,class complexInstance> __thiscall QMap<class QString,class complexInstance>::begin(void))
       74    ?begin@?$QMap@VQString@@VcomplexInstance@@@@QBE?AV?$QMapConstIterator@VQString@@VcomplexInstance@@@@XZ (public: class QMapConstIterator<class QString,class complexInstance> __thiscall QMap<class QString,class complexInstance>::begin(void)const )
       75    ?begin@?$QMap@VQString@@VcomplexParam@@@@QAE?AV?$QMapIterator@VQString@@VcomplexParam@@@@XZ (public: class QMapIterator<class QString,class complexParam> __thiscall QMap<class QString,class complexParam>::begin(void))
       76    ?begin@?$QMap@VQString@@VcomplexParam@@@@QBE?AV?$QMapConstIterator@VQString@@VcomplexParam@@@@XZ (public: class QMapConstIterator<class QString,class complexParam> __thiscall QMap<class QString,class complexParam>::begin(void)const )
       77    ?begin@?$QMap@VQString@@VcomplexType@@@@QAE?AV?$QMapIterator@VQString@@VcomplexType@@@@XZ (public: class QMapIterator<class QString,class complexType> __thiscall QMap<class QString,class complexType>::begin(void))
       78    ?begin@?$QMap@VQString@@VcomplexType@@@@QBE?AV?$QMapConstIterator@VQString@@VcomplexType@@@@XZ (public: class QMapConstIterator<class QString,class complexType> __thiscall QMap<class QString,class complexType>::begin(void)const )
       79    ?begin@?$QMap@VQString@@VdeviceTypeInfo@@@@QAE?AV?$QMapIterator@VQString@@VdeviceTypeInfo@@@@XZ (public: class QMapIterator<class QString,class deviceTypeInfo> __thiscall QMap<class QString,class deviceTypeInfo>::begin(void))
       80    ?begin@?$QMap@VQString@@VdeviceTypeInfo@@@@QBE?AV?$QMapConstIterator@VQString@@VdeviceTypeInfo@@@@XZ (public: class QMapConstIterator<class QString,class deviceTypeInfo> __thiscall QMap<class QString,class deviceTypeInfo>::begin(void)const )
       81    ?begin@?$QMap@VQString@@VinstanceInfo@@@@QAE?AV?$QMapIterator@VQString@@VinstanceInfo@@@@XZ (public: class QMapIterator<class QString,class instanceInfo> __thiscall QMap<class QString,class instanceInfo>::begin(void))
       82    ?begin@?$QMap@VQString@@VinstanceInfo@@@@QBE?AV?$QMapConstIterator@VQString@@VinstanceInfo@@@@XZ (public: class QMapConstIterator<class QString,class instanceInfo> __thiscall QMap<class QString,class instanceInfo>::begin(void)const )
       83    ?begin@?$QMap@VQString@@VparamInfo@@@@QAE?AV?$QMapIterator@VQString@@VparamInfo@@@@XZ (public: class QMapIterator<class QString,class paramInfo> __thiscall QMap<class QString,class paramInfo>::begin(void))
       84    ?begin@?$QMap@VQString@@VparamInfo@@@@QBE?AV?$QMapConstIterator@VQString@@VparamInfo@@@@XZ (public: class QMapConstIterator<class QString,class paramInfo> __thiscall QMap<class QString,class paramInfo>::begin(void)const )
       85    ?begin@?$QPtrList@VsignalConnection@@@@QAE?AV?$QPtrListStdIterator@VsignalConnection@@@@XZ (public: class QPtrListStdIterator<class signalConnection> __thiscall QPtrList<class signalConnection>::begin(void))
       86    ?begin@?$QPtrList@VsignalConnection@@@@QBE?AV?$QPtrListStdIterator@VsignalConnection@@@@XZ (public: class QPtrListStdIterator<class signalConnection> __thiscall QPtrList<class signalConnection>::begin(void)const )
       87    ?clear@?$QMap@VQString@@VcomplexInstance@@@@QAEXXZ (public: void __thiscall QMap<class QString,class complexInstance>::clear(void))
       88    ?clear@?$QMap@VQString@@VcomplexParam@@@@QAEXXZ (public: void __thiscall QMap<class QString,class complexParam>::clear(void))
       89    ?clear@?$QMap@VQString@@VcomplexType@@@@QAEXXZ (public: void __thiscall QMap<class QString,class complexType>::clear(void))
       90    ?clear@?$QMap@VQString@@VdeviceTypeInfo@@@@QAEXXZ (public: void __thiscall QMap<class QString,class deviceTypeInfo>::clear(void))
       91    ?clear@?$QMap@VQString@@VinstanceInfo@@@@QAEXXZ (public: void __thiscall QMap<class QString,class instanceInfo>::clear(void))
       92    ?clear@?$QMap@VQString@@VparamInfo@@@@QAEXXZ (public: void __thiscall QMap<class QString,class paramInfo>::clear(void))
       93    ?clear@?$QPtrList@VsignalConnection@@@@UAEXXZ (public: virtual void __thiscall QPtrList<class signalConnection>::clear(void))
       94    ?constBegin@?$QMap@VQString@@VcomplexInstance@@@@QBE?AV?$QMapConstIterator@VQString@@VcomplexInstance@@@@XZ (public: class QMapConstIterator<class QString,class complexInstance> __thiscall QMap<class QString,class complexInstance>::constBegin(void)const )
       95    ?constBegin@?$QMap@VQString@@VcomplexParam@@@@QBE?AV?$QMapConstIterator@VQString@@VcomplexParam@@@@XZ (public: class QMapConstIterator<class QString,class complexParam> __thiscall QMap<class QString,class complexParam>::constBegin(void)const )
       96    ?constBegin@?$QMap@VQString@@VcomplexType@@@@QBE?AV?$QMapConstIterator@VQString@@VcomplexType@@@@XZ (public: class QMapConstIterator<class QString,class complexType> __thiscall QMap<class QString,class complexType>::constBegin(void)const )
       97    ?constBegin@?$QMap@VQString@@VdeviceTypeInfo@@@@QBE?AV?$QMapConstIterator@VQString@@VdeviceTypeInfo@@@@XZ (public: class QMapConstIterator<class QString,class deviceTypeInfo> __thiscall QMap<class QString,class deviceTypeInfo>::constBegin(void)const )
       98    ?constBegin@?$QMap@VQString@@VinstanceInfo@@@@QBE?AV?$QMapConstIterator@VQString@@VinstanceInfo@@@@XZ (public: class QMapConstIterator<class QString,class instanceInfo> __thiscall QMap<class QString,class instanceInfo>::constBegin(void)const )
       99    ?constBegin@?$QMap@VQString@@VparamInfo@@@@QBE?AV?$QMapConstIterator@VQString@@VparamInfo@@@@XZ (public: class QMapConstIterator<class QString,class paramInfo> __thiscall QMap<class QString,class paramInfo>::constBegin(void)const )
      100    ?constBegin@?$QPtrList@VsignalConnection@@@@QBE?AV?$QPtrListStdIterator@VsignalConnection@@@@XZ (public: class QPtrListStdIterator<class signalConnection> __thiscall QPtrList<class signalConnection>::constBegin(void)const )
      101    ?constEnd@?$QMap@VQString@@VcomplexInstance@@@@QBE?AV?$QMapConstIterator@VQString@@VcomplexInstance@@@@XZ (public: class QMapConstIterator<class QString,class complexInstance> __thiscall QMap<class QString,class complexInstance>::constEnd(void)const )
      102    ?constEnd@?$QMap@VQString@@VcomplexParam@@@@QBE?AV?$QMapConstIterator@VQString@@VcomplexParam@@@@XZ (public: class QMapConstIterator<class QString,class complexParam> __thiscall QMap<class QString,class complexParam>::constEnd(void)const )
      103    ?constEnd@?$QMap@VQString@@VcomplexType@@@@QBE?AV?$QMapConstIterator@VQString@@VcomplexType@@@@XZ (public: class QMapConstIterator<class QString,class complexType> __thiscall QMap<class QString,class complexType>::constEnd(void)const )
      104    ?constEnd@?$QMap@VQString@@VdeviceTypeInfo@@@@QBE?AV?$QMapConstIterator@VQString@@VdeviceTypeInfo@@@@XZ (public: class QMapConstIterator<class QString,class deviceTypeInfo> __thiscall QMap<class QString,class deviceTypeInfo>::constEnd(void)const )
      105    ?constEnd@?$QMap@VQString@@VinstanceInfo@@@@QBE?AV?$QMapConstIterator@VQString@@VinstanceInfo@@@@XZ (public: class QMapConstIterator<class QString,class instanceInfo> __thiscall QMap<class QString,class instanceInfo>::constEnd(void)const )
      106    ?constEnd@?$QMap@VQString@@VparamInfo@@@@QBE?AV?$QMapConstIterator@VQString@@VparamInfo@@@@XZ (public: class QMapConstIterator<class QString,class paramInfo> __thiscall QMap<class QString,class paramInfo>::constEnd(void)const )
      107    ?constEnd@?$QPtrList@VsignalConnection@@@@QBE?AV?$QPtrListStdIterator@VsignalConnection@@@@XZ (public: class QPtrListStdIterator<class signalConnection> __thiscall QPtrList<class signalConnection>::constEnd(void)const )
      108    ?contains@?$QMap@VQString@@VcomplexInstance@@@@QBE_NABVQString@@@Z (public: bool __thiscall QMap<class QString,class complexInstance>::contains(class QString const &)const )
      109    ?contains@?$QMap@VQString@@VcomplexParam@@@@QBE_NABVQString@@@Z (public: bool __thiscall QMap<class QString,class complexParam>::contains(class QString const &)const )
      110    ?contains@?$QMap@VQString@@VcomplexType@@@@QBE_NABVQString@@@Z (public: bool __thiscall QMap<class QString,class complexType>::contains(class QString const &)const )
      111    ?contains@?$QMap@VQString@@VdeviceTypeInfo@@@@QBE_NABVQString@@@Z (public: bool __thiscall QMap<class QString,class deviceTypeInfo>::contains(class QString const &)const )
      112    ?contains@?$QMap@VQString@@VinstanceInfo@@@@QBE_NABVQString@@@Z (public: bool __thiscall QMap<class QString,class instanceInfo>::contains(class QString const &)const )
      113    ?contains@?$QMap@VQString@@VparamInfo@@@@QBE_NABVQString@@@Z (public: bool __thiscall QMap<class QString,class paramInfo>::contains(class QString const &)const )
      114    ?contains@?$QPtrList@VsignalConnection@@@@QBEIPBVsignalConnection@@@Z (public: unsigned int __thiscall QPtrList<class signalConnection>::contains(class signalConnection const *)const )
      115    ?containsRef@?$QPtrList@VsignalConnection@@@@QBEIPBVsignalConnection@@@Z (public: unsigned int __thiscall QPtrList<class signalConnection>::containsRef(class signalConnection const *)const )
      116    ?count@?$QMap@VQString@@VcomplexInstance@@@@QBEIABVQString@@@Z (public: unsigned int __thiscall QMap<class QString,class complexInstance>::count(class QString const &)const )
      117    ?count@?$QMap@VQString@@VcomplexInstance@@@@QBEIXZ (public: unsigned int __thiscall QMap<class QString,class complexInstance>::count(void)const )
      118    ?count@?$QMap@VQString@@VcomplexParam@@@@QBEIABVQString@@@Z (public: unsigned int __thiscall QMap<class QString,class complexParam>::count(class QString const &)const )
      119    ?count@?$QMap@VQString@@VcomplexParam@@@@QBEIXZ (public: unsigned int __thiscall QMap<class QString,class complexParam>::count(void)const )
      120    ?count@?$QMap@VQString@@VcomplexType@@@@QBEIABVQString@@@Z (public: unsigned int __thiscall QMap<class QString,class complexType>::count(class QString const &)const )
      121    ?count@?$QMap@VQString@@VcomplexType@@@@QBEIXZ (public: unsigned int __thiscall QMap<class QString,class complexType>::count(void)const )
      122    ?count@?$QMap@VQString@@VdeviceTypeInfo@@@@QBEIABVQString@@@Z (public: unsigned int __thiscall QMap<class QString,class deviceTypeInfo>::count(class QString const &)const )
      123    ?count@?$QMap@VQString@@VdeviceTypeInfo@@@@QBEIXZ (public: unsigned int __thiscall QMap<class QString,class deviceTypeInfo>::count(void)const )
      124    ?count@?$QMap@VQString@@VinstanceInfo@@@@QBEIABVQString@@@Z (public: unsigned int __thiscall QMap<class QString,class instanceInfo>::count(class QString const &)const )
      125    ?count@?$QMap@VQString@@VinstanceInfo@@@@QBEIXZ (public: unsigned int __thiscall QMap<class QString,class instanceInfo>::count(void)const )
      126    ?count@?$QMap@VQString@@VparamInfo@@@@QBEIABVQString@@@Z (public: unsigned int __thiscall QMap<class QString,class paramInfo>::count(class QString const &)const )
      127    ?count@?$QMap@VQString@@VparamInfo@@@@QBEIXZ (public: unsigned int __thiscall QMap<class QString,class paramInfo>::count(void)const )
      128    ?count@?$QPtrList@VsignalConnection@@@@UBEIXZ (public: virtual unsigned int __thiscall QPtrList<class signalConnection>::count(void)const )
      129    ?count@?$QPtrListIterator@VsignalConnection@@@@QBEIXZ (public: unsigned int __thiscall QPtrListIterator<class signalConnection>::count(void)const )
      130    ?current@?$QPtrList@VsignalConnection@@@@QBEPAVsignalConnection@@XZ (public: class signalConnection * __thiscall QPtrList<class signalConnection>::current(void)const )
      131    ?current@?$QPtrListIterator@VsignalConnection@@@@QBEPAVsignalConnection@@XZ (public: class signalConnection * __thiscall QPtrListIterator<class signalConnection>::current(void)const )
      132    ?currentNode@?$QPtrList@VsignalConnection@@@@QBEPAVQLNode@@XZ (public: class QLNode * __thiscall QPtrList<class signalConnection>::currentNode(void)const )
      133    ?deleteItem@?$QPtrList@VsignalConnection@@@@EAEXPAX@Z (private: virtual void __thiscall QPtrList<class signalConnection>::deleteItem(void *))
      134    ?detach@?$QMap@VQString@@VcomplexInstance@@@@IAEXXZ (protected: void __thiscall QMap<class QString,class complexInstance>::detach(void))
      135    ?detach@?$QMap@VQString@@VcomplexParam@@@@IAEXXZ (protected: void __thiscall QMap<class QString,class complexParam>::detach(void))
      136    ?detach@?$QMap@VQString@@VcomplexType@@@@IAEXXZ (protected: void __thiscall QMap<class QString,class complexType>::detach(void))
      137    ?detach@?$QMap@VQString@@VdeviceTypeInfo@@@@IAEXXZ (protected: void __thiscall QMap<class QString,class deviceTypeInfo>::detach(void))
      138    ?detach@?$QMap@VQString@@VinstanceInfo@@@@IAEXXZ (protected: void __thiscall QMap<class QString,class instanceInfo>::detach(void))
      139    ?detach@?$QMap@VQString@@VparamInfo@@@@IAEXXZ (protected: void __thiscall QMap<class QString,class paramInfo>::detach(void))
      140    ?detachInternal@?$QMap@VQString@@VcomplexInstance@@@@AAEXXZ (private: void __thiscall QMap<class QString,class complexInstance>::detachInternal(void))
      141    ?detachInternal@?$QMap@VQString@@VcomplexParam@@@@AAEXXZ (private: void __thiscall QMap<class QString,class complexParam>::detachInternal(void))
      142    ?detachInternal@?$QMap@VQString@@VcomplexType@@@@AAEXXZ (private: void __thiscall QMap<class QString,class complexType>::detachInternal(void))
      143    ?detachInternal@?$QMap@VQString@@VdeviceTypeInfo@@@@AAEXXZ (private: void __thiscall QMap<class QString,class deviceTypeInfo>::detachInternal(void))
      144    ?detachInternal@?$QMap@VQString@@VinstanceInfo@@@@AAEXXZ (private: void __thiscall QMap<class QString,class instanceInfo>::detachInternal(void))
      145    ?detachInternal@?$QMap@VQString@@VparamInfo@@@@AAEXXZ (private: void __thiscall QMap<class QString,class paramInfo>::detachInternal(void))
      146    ?empty@?$QMap@VQString@@VcomplexInstance@@@@QBE_NXZ (public: bool __thiscall QMap<class QString,class complexInstance>::empty(void)const )
      147    ?empty@?$QMap@VQString@@VcomplexParam@@@@QBE_NXZ (public: bool __thiscall QMap<class QString,class complexParam>::empty(void)const )
      148    ?empty@?$QMap@VQString@@VcomplexType@@@@QBE_NXZ (public: bool __thiscall QMap<class QString,class complexType>::empty(void)const )
      149    ?empty@?$QMap@VQString@@VdeviceTypeInfo@@@@QBE_NXZ (public: bool __thiscall QMap<class QString,class deviceTypeInfo>::empty(void)const )
      150    ?empty@?$QMap@VQString@@VinstanceInfo@@@@QBE_NXZ (public: bool __thiscall QMap<class QString,class instanceInfo>::empty(void)const )
      151    ?empty@?$QMap@VQString@@VparamInfo@@@@QBE_NXZ (public: bool __thiscall QMap<class QString,class paramInfo>::empty(void)const )
      152    ?end@?$QMap@VQString@@VcomplexInstance@@@@QAE?AV?$QMapIterator@VQString@@VcomplexInstance@@@@XZ (public: class QMapIterator<class QString,class complexInstance> __thiscall QMap<class QString,class complexInstance>::end(void))
      153    ?end@?$QMap@VQString@@VcomplexInstance@@@@QBE?AV?$QMapConstIterator@VQString@@VcomplexInstance@@@@XZ (public: class QMapConstIterator<class QString,class complexInstance> __thiscall QMap<class QString,class complexInstance>::end(void)const )
      154    ?end@?$QMap@VQString@@VcomplexParam@@@@QAE?AV?$QMapIterator@VQString@@VcomplexParam@@@@XZ (public: class QMapIterator<class QString,class complexParam> __thiscall QMap<class QString,class complexParam>::end(void))
      155    ?end@?$QMap@VQString@@VcomplexParam@@@@QBE?AV?$QMapConstIterator@VQString@@VcomplexParam@@@@XZ (public: class QMapConstIterator<class QString,class complexParam> __thiscall QMap<class QString,class complexParam>::end(void)const )
      156    ?end@?$QMap@VQString@@VcomplexType@@@@QAE?AV?$QMapIterator@VQString@@VcomplexType@@@@XZ (public: class QMapIterator<class QString,class complexType> __thiscall QMap<class QString,class complexType>::end(void))
      157    ?end@?$QMap@VQString@@VcomplexType@@@@QBE?AV?$QMapConstIterator@VQString@@VcomplexType@@@@XZ (public: class QMapConstIterator<class QString,class complexType> __thiscall QMap<class QString,class complexType>::end(void)const )
      158    ?end@?$QMap@VQString@@VdeviceTypeInfo@@@@QAE?AV?$QMapIterator@VQString@@VdeviceTypeInfo@@@@XZ (public: class QMapIterator<class QString,class deviceTypeInfo> __thiscall QMap<class QString,class deviceTypeInfo>::end(void))
      159    ?end@?$QMap@VQString@@VdeviceTypeInfo@@@@QBE?AV?$QMapConstIterator@VQString@@VdeviceTypeInfo@@@@XZ (public: class QMapConstIterator<class QString,class deviceTypeInfo> __thiscall QMap<class QString,class deviceTypeInfo>::end(void)const )
      160    ?end@?$QMap@VQString@@VinstanceInfo@@@@QAE?AV?$QMapIterator@VQString@@VinstanceInfo@@@@XZ (public: class QMapIterator<class QString,class instanceInfo> __thiscall QMap<class QString,class instanceInfo>::end(void))
      161    ?end@?$QMap@VQString@@VinstanceInfo@@@@QBE?AV?$QMapConstIterator@VQString@@VinstanceInfo@@@@XZ (public: class QMapConstIterator<class QString,class instanceInfo> __thiscall QMap<class QString,class instanceInfo>::end(void)const )
      162    ?end@?$QMap@VQString@@VparamInfo@@@@QAE?AV?$QMapIterator@VQString@@VparamInfo@@@@XZ (public: class QMapIterator<class QString,class paramInfo> __thiscall QMap<class QString,class paramInfo>::end(void))
      163    ?end@?$QMap@VQString@@VparamInfo@@@@QBE?AV?$QMapConstIterator@VQString@@VparamInfo@@@@XZ (public: class QMapConstIterator<class QString,class paramInfo> __thiscall QMap<class QString,class paramInfo>::end(void)const )
      164    ?end@?$QPtrList@VsignalConnection@@@@QAE?AV?$QPtrListStdIterator@VsignalConnection@@@@XZ (public: class QPtrListStdIterator<class signalConnection> __thiscall QPtrList<class signalConnection>::end(void))
      165    ?end@?$QPtrList@VsignalConnection@@@@QBE?AV?$QPtrListStdIterator@VsignalConnection@@@@XZ (public: class QPtrListStdIterator<class signalConnection> __thiscall QPtrList<class signalConnection>::end(void)const )
      166    ?erase@?$QMap@VQString@@VcomplexInstance@@@@QAEXABVQString@@@Z (public: void __thiscall QMap<class QString,class complexInstance>::erase(class QString const &))
      167    ?erase@?$QMap@VQString@@VcomplexInstance@@@@QAEXV?$QMapIterator@VQString@@VcomplexInstance@@@@@Z (public: void __thiscall QMap<class QString,class complexInstance>::erase(class QMapIterator<class QString,class complexInstance>))
      168    ?erase@?$QMap@VQString@@VcomplexParam@@@@QAEXABVQString@@@Z (public: void __thiscall QMap<class QString,class complexParam>::erase(class QString const &))
      169    ?erase@?$QMap@VQString@@VcomplexParam@@@@QAEXV?$QMapIterator@VQString@@VcomplexParam@@@@@Z (public: void __thiscall QMap<class QString,class complexParam>::erase(class QMapIterator<class QString,class complexParam>))
      170    ?erase@?$QMap@VQString@@VcomplexType@@@@QAEXABVQString@@@Z (public: void __thiscall QMap<class QString,class complexType>::erase(class QString const &))
      171    ?erase@?$QMap@VQString@@VcomplexType@@@@QAEXV?$QMapIterator@VQString@@VcomplexType@@@@@Z (public: void __thiscall QMap<class QString,class complexType>::erase(class QMapIterator<class QString,class complexType>))
      172    ?erase@?$QMap@VQString@@VdeviceTypeInfo@@@@QAEXABVQString@@@Z (public: void __thiscall QMap<class QString,class deviceTypeInfo>::erase(class QString const &))
      173    ?erase@?$QMap@VQString@@VdeviceTypeInfo@@@@QAEXV?$QMapIterator@VQString@@VdeviceTypeInfo@@@@@Z (public: void __thiscall QMap<class QString,class deviceTypeInfo>::erase(class QMapIterator<class QString,class deviceTypeInfo>))
      174    ?erase@?$QMap@VQString@@VinstanceInfo@@@@QAEXABVQString@@@Z (public: void __thiscall QMap<class QString,class instanceInfo>::erase(class QString const &))
      175    ?erase@?$QMap@VQString@@VinstanceInfo@@@@QAEXV?$QMapIterator@VQString@@VinstanceInfo@@@@@Z (public: void __thiscall QMap<class QString,class instanceInfo>::erase(class QMapIterator<class QString,class instanceInfo>))
      176    ?erase@?$QMap@VQString@@VparamInfo@@@@QAEXABVQString@@@Z (public: void __thiscall QMap<class QString,class paramInfo>::erase(class QString const &))
      177    ?erase@?$QMap@VQString@@VparamInfo@@@@QAEXV?$QMapIterator@VQString@@VparamInfo@@@@@Z (public: void __thiscall QMap<class QString,class paramInfo>::erase(class QMapIterator<class QString,class paramInfo>))
      178    ?erase@?$QPtrList@VsignalConnection@@@@QAE?AV?$QPtrListStdIterator@VsignalConnection@@@@V2@@Z (public: class QPtrListStdIterator<class signalConnection> __thiscall QPtrList<class signalConnection>::erase(class QPtrListStdIterator<class signalConnection>))
      179    ?find@?$QMap@VQString@@VcomplexInstance@@@@QAE?AV?$QMapIterator@VQString@@VcomplexInstance@@@@ABVQString@@@Z (public: class QMapIterator<class QString,class complexInstance> __thiscall QMap<class QString,class complexInstance>::find(class QString const &))
      180    ?find@?$QMap@VQString@@VcomplexInstance@@@@QBE?AV?$QMapConstIterator@VQString@@VcomplexInstance@@@@ABVQString@@@Z (public: class QMapConstIterator<class QString,class complexInstance> __thiscall QMap<class QString,class complexInstance>::find(class QString const &)const )
      181    ?find@?$QMap@VQString@@VcomplexParam@@@@QAE?AV?$QMapIterator@VQString@@VcomplexParam@@@@ABVQString@@@Z (public: class QMapIterator<class QString,class complexParam> __thiscall QMap<class QString,class complexParam>::find(class QString const &))
      182    ?find@?$QMap@VQString@@VcomplexParam@@@@QBE?AV?$QMapConstIterator@VQString@@VcomplexParam@@@@ABVQString@@@Z (public: class QMapConstIterator<class QString,class complexParam> __thiscall QMap<class QString,class complexParam>::find(class QString const &)const )
      183    ?find@?$QMap@VQString@@VcomplexType@@@@QAE?AV?$QMapIterator@VQString@@VcomplexType@@@@ABVQString@@@Z (public: class QMapIterator<class QString,class complexType> __thiscall QMap<class QString,class complexType>::find(class QString const &))
      184    ?find@?$QMap@VQString@@VcomplexType@@@@QBE?AV?$QMapConstIterator@VQString@@VcomplexType@@@@ABVQString@@@Z (public: class QMapConstIterator<class QString,class complexType> __thiscall QMap<class QString,class complexType>::find(class QString const &)const )
      185    ?find@?$QMap@VQString@@VdeviceTypeInfo@@@@QAE?AV?$QMapIterator@VQString@@VdeviceTypeInfo@@@@ABVQString@@@Z (public: class QMapIterator<class QString,class deviceTypeInfo> __thiscall QMap<class QString,class deviceTypeInfo>::find(class QString const &))
      186    ?find@?$QMap@VQString@@VdeviceTypeInfo@@@@QBE?AV?$QMapConstIterator@VQString@@VdeviceTypeInfo@@@@ABVQString@@@Z (public: class QMapConstIterator<class QString,class deviceTypeInfo> __thiscall QMap<class QString,class deviceTypeInfo>::find(class QString const &)const )
      187    ?find@?$QMap@VQString@@VinstanceInfo@@@@QAE?AV?$QMapIterator@VQString@@VinstanceInfo@@@@ABVQString@@@Z (public: class QMapIterator<class QString,class instanceInfo> __thiscall QMap<class QString,class instanceInfo>::find(class QString const &))
      188    ?find@?$QMap@VQString@@VinstanceInfo@@@@QBE?AV?$QMapConstIterator@VQString@@VinstanceInfo@@@@ABVQString@@@Z (public: class QMapConstIterator<class QString,class instanceInfo> __thiscall QMap<class QString,class instanceInfo>::find(class QString const &)const )
      189    ?find@?$QMap@VQString@@VparamInfo@@@@QAE?AV?$QMapIterator@VQString@@VparamInfo@@@@ABVQString@@@Z (public: class QMapIterator<class QString,class paramInfo> __thiscall QMap<class QString,class paramInfo>::find(class QString const &))
      190    ?find@?$QMap@VQString@@VparamInfo@@@@QBE?AV?$QMapConstIterator@VQString@@VparamInfo@@@@ABVQString@@@Z (public: class QMapConstIterator<class QString,class paramInfo> __thiscall QMap<class QString,class paramInfo>::find(class QString const &)const )
      191    ?find@?$QPtrList@VsignalConnection@@@@QAEHPBVsignalConnection@@@Z (public: int __thiscall QPtrList<class signalConnection>::find(class signalConnection const *))
      192    ?findNext@?$QPtrList@VsignalConnection@@@@QAEHPBVsignalConnection@@@Z (public: int __thiscall QPtrList<class signalConnection>::findNext(class signalConnection const *))
      193    ?findNextRef@?$QPtrList@VsignalConnection@@@@QAEHPBVsignalConnection@@@Z (public: int __thiscall QPtrList<class signalConnection>::findNextRef(class signalConnection const *))
      194    ?findRef@?$QPtrList@VsignalConnection@@@@QAEHPBVsignalConnection@@@Z (public: int __thiscall QPtrList<class signalConnection>::findRef(class signalConnection const *))
      195    ?first@?$QPtrList@VsignalConnection@@@@QAEPAVsignalConnection@@XZ (public: class signalConnection * __thiscall QPtrList<class signalConnection>::first(void))
      196    ?getFirst@?$QPtrList@VsignalConnection@@@@QBEPAVsignalConnection@@XZ (public: class signalConnection * __thiscall QPtrList<class signalConnection>::getFirst(void)const )
      197    ?getLast@?$QPtrList@VsignalConnection@@@@QBEPAVsignalConnection@@XZ (public: class signalConnection * __thiscall QPtrList<class signalConnection>::getLast(void)const )
      198    ?inSort@?$QPtrList@VsignalConnection@@@@QAEXPBVsignalConnection@@@Z (public: void __thiscall QPtrList<class signalConnection>::inSort(class signalConnection const *))
      199    ?insert@?$QMap@VQString@@VcomplexInstance@@@@QAE?AU?$QPair@V?$QMapIterator@VQString@@VcomplexInstance@@@@_N@@ABU?$QPair@$$CBVQString@@VcomplexInstance@@@@@Z (public: struct QPair<class QMapIterator<class QString,class complexInstance>,bool> __thiscall QMap<class QString,class complexInstance>::insert(struct QPair<class QString const ,class complexInstance> const &))
      200    ?insert@?$QMap@VQString@@VcomplexInstance@@@@QAE?AV?$QMapIterator@VQString@@VcomplexInstance@@@@ABVQString@@ABVcomplexInstance@@_N@Z (public: class QMapIterator<class QString,class complexInstance> __thiscall QMap<class QString,class complexInstance>::insert(class QString const &,class complexInstance const &,bool))
      201    ?insert@?$QMap@VQString@@VcomplexParam@@@@QAE?AU?$QPair@V?$QMapIterator@VQString@@VcomplexParam@@@@_N@@ABU?$QPair@$$CBVQString@@VcomplexParam@@@@@Z (public: struct QPair<class QMapIterator<class QString,class complexParam>,bool> __thiscall QMap<class QString,class complexParam>::insert(struct QPair<class QString const ,class complexParam> const &))
      202    ?insert@?$QMap@VQString@@VcomplexParam@@@@QAE?AV?$QMapIterator@VQString@@VcomplexParam@@@@ABVQString@@ABVcomplexParam@@_N@Z (public: class QMapIterator<class QString,class complexParam> __thiscall QMap<class QString,class complexParam>::insert(class QString const &,class complexParam const &,bool))
      203    ?insert@?$QMap@VQString@@VcomplexType@@@@QAE?AU?$QPair@V?$QMapIterator@VQString@@VcomplexType@@@@_N@@ABU?$QPair@$$CBVQString@@VcomplexType@@@@@Z (public: struct QPair<class QMapIterator<class QString,class complexType>,bool> __thiscall QMap<class QString,class complexType>::insert(struct QPair<class QString const ,class complexType> const &))
      204    ?insert@?$QMap@VQString@@VcomplexType@@@@QAE?AV?$QMapIterator@VQString@@VcomplexType@@@@ABVQString@@ABVcomplexType@@_N@Z (public: class QMapIterator<class QString,class complexType> __thiscall QMap<class QString,class complexType>::insert(class QString const &,class complexType const &,bool))
      205    ?insert@?$QMap@VQString@@VdeviceTypeInfo@@@@QAE?AU?$QPair@V?$QMapIterator@VQString@@VdeviceTypeInfo@@@@_N@@ABU?$QPair@$$CBVQString@@VdeviceTypeInfo@@@@@Z (public: struct QPair<class QMapIterator<class QString,class deviceTypeInfo>,bool> __thiscall QMap<class QString,class deviceTypeInfo>::insert(struct QPair<class QString const ,class deviceTypeInfo> const &))
      206    ?insert@?$QMap@VQString@@VdeviceTypeInfo@@@@QAE?AV?$QMapIterator@VQString@@VdeviceTypeInfo@@@@ABVQString@@ABVdeviceTypeInfo@@_N@Z (public: class QMapIterator<class QString,class deviceTypeInfo> __thiscall QMap<class QString,class deviceTypeInfo>::insert(class QString const &,class deviceTypeInfo const &,bool))
      207    ?insert@?$QMap@VQString@@VinstanceInfo@@@@QAE?AU?$QPair@V?$QMapIterator@VQString@@VinstanceInfo@@@@_N@@ABU?$QPair@$$CBVQString@@VinstanceInfo@@@@@Z (public: struct QPair<class QMapIterator<class QString,class instanceInfo>,bool> __thiscall QMap<class QString,class instanceInfo>::insert(struct QPair<class QString const ,class instanceInfo> const &))
      208    ?insert@?$QMap@VQString@@VinstanceInfo@@@@QAE?AV?$QMapIterator@VQString@@VinstanceInfo@@@@ABVQString@@ABVinstanceInfo@@_N@Z (public: class QMapIterator<class QString,class instanceInfo> __thiscall QMap<class QString,class instanceInfo>::insert(class QString const &,class instanceInfo const &,bool))
      209    ?insert@?$QMap@VQString@@VparamInfo@@@@QAE?AU?$QPair@V?$QMapIterator@VQString@@VparamInfo@@@@_N@@ABU?$QPair@$$CBVQString@@VparamInfo@@@@@Z (public: struct QPair<class QMapIterator<class QString,class paramInfo>,bool> __thiscall QMap<class QString,class paramInfo>::insert(struct QPair<class QString const ,class paramInfo> const &))
      210    ?insert@?$QMap@VQString@@VparamInfo@@@@QAE?AV?$QMapIterator@VQString@@VparamInfo@@@@ABVQString@@ABVparamInfo@@_N@Z (public: class QMapIterator<class QString,class paramInfo> __thiscall QMap<class QString,class paramInfo>::insert(class QString const &,class paramInfo const &,bool))
      211    ?insert@?$QPtrList@VsignalConnection@@@@QAE_NIPBVsignalConnection@@@Z (public: bool __thiscall QPtrList<class signalConnection>::insert(unsigned int,class signalConnection const *))
      212    ?isEmpty@?$QMap@VQString@@VcomplexInstance@@@@QBE_NXZ (public: bool __thiscall QMap<class QString,class complexInstance>::isEmpty(void)const )
      213    ?isEmpty@?$QMap@VQString@@VcomplexParam@@@@QBE_NXZ (public: bool __thiscall QMap<class QString,class complexParam>::isEmpty(void)const )
      214    ?isEmpty@?$QMap@VQString@@VcomplexType@@@@QBE_NXZ (public: bool __thiscall QMap<class QString,class complexType>::isEmpty(void)const )
      215    ?isEmpty@?$QMap@VQString@@VdeviceTypeInfo@@@@QBE_NXZ (public: bool __thiscall QMap<class QString,class deviceTypeInfo>::isEmpty(void)const )
      216    ?isEmpty@?$QMap@VQString@@VinstanceInfo@@@@QBE_NXZ (public: bool __thiscall QMap<class QString,class instanceInfo>::isEmpty(void)const )
      217    ?isEmpty@?$QMap@VQString@@VparamInfo@@@@QBE_NXZ (public: bool __thiscall QMap<class QString,class paramInfo>::isEmpty(void)const )
      218    ?isEmpty@?$QPtrList@VsignalConnection@@@@QBE_NXZ (public: bool __thiscall QPtrList<class signalConnection>::isEmpty(void)const )
      219    ?isEmpty@?$QPtrListIterator@VsignalConnection@@@@QBE_NXZ (public: bool __thiscall QPtrListIterator<class signalConnection>::isEmpty(void)const )
      220    ?keys@?$QMap@VQString@@VcomplexInstance@@@@QBE?AV?$QValueList@VQString@@@@XZ (public: class QValueList<class QString> __thiscall QMap<class QString,class complexInstance>::keys(void)const )
      221    ?keys@?$QMap@VQString@@VcomplexParam@@@@QBE?AV?$QValueList@VQString@@@@XZ (public: class QValueList<class QString> __thiscall QMap<class QString,class complexParam>::keys(void)const )
      222    ?keys@?$QMap@VQString@@VcomplexType@@@@QBE?AV?$QValueList@VQString@@@@XZ (public: class QValueList<class QString> __thiscall QMap<class QString,class complexType>::keys(void)const )
      223    ?keys@?$QMap@VQString@@VdeviceTypeInfo@@@@QBE?AV?$QValueList@VQString@@@@XZ (public: class QValueList<class QString> __thiscall QMap<class QString,class deviceTypeInfo>::keys(void)const )
      224    ?keys@?$QMap@VQString@@VinstanceInfo@@@@QBE?AV?$QValueList@VQString@@@@XZ (public: class QValueList<class QString> __thiscall QMap<class QString,class instanceInfo>::keys(void)const )
      225    ?keys@?$QMap@VQString@@VparamInfo@@@@QBE?AV?$QValueList@VQString@@@@XZ (public: class QValueList<class QString> __thiscall QMap<class QString,class paramInfo>::keys(void)const )
      226    ?last@?$QPtrList@VsignalConnection@@@@QAEPAVsignalConnection@@XZ (public: class signalConnection * __thiscall QPtrList<class signalConnection>::last(void))
      227    ?next@?$QPtrList@VsignalConnection@@@@QAEPAVsignalConnection@@XZ (public: class signalConnection * __thiscall QPtrList<class signalConnection>::next(void))
      228    ?prepend@?$QPtrList@VsignalConnection@@@@QAEXPBVsignalConnection@@@Z (public: void __thiscall QPtrList<class signalConnection>::prepend(class signalConnection const *))
      229    ?prev@?$QPtrList@VsignalConnection@@@@QAEPAVsignalConnection@@XZ (public: class signalConnection * __thiscall QPtrList<class signalConnection>::prev(void))
      230    ?remove@?$QMap@VQString@@VcomplexInstance@@@@QAEXABVQString@@@Z (public: void __thiscall QMap<class QString,class complexInstance>::remove(class QString const &))
      231    ?remove@?$QMap@VQString@@VcomplexInstance@@@@QAEXV?$QMapIterator@VQString@@VcomplexInstance@@@@@Z (public: void __thiscall QMap<class QString,class complexInstance>::remove(class QMapIterator<class QString,class complexInstance>))
      232    ?remove@?$QMap@VQString@@VcomplexParam@@@@QAEXABVQString@@@Z (public: void __thiscall QMap<class QString,class complexParam>::remove(class QString const &))
      233    ?remove@?$QMap@VQString@@VcomplexParam@@@@QAEXV?$QMapIterator@VQString@@VcomplexParam@@@@@Z (public: void __thiscall QMap<class QString,class complexParam>::remove(class QMapIterator<class QString,class complexParam>))
      234    ?remove@?$QMap@VQString@@VcomplexType@@@@QAEXABVQString@@@Z (public: void __thiscall QMap<class QString,class complexType>::remove(class QString const &))
      235    ?remove@?$QMap@VQString@@VcomplexType@@@@QAEXV?$QMapIterator@VQString@@VcomplexType@@@@@Z (public: void __thiscall QMap<class QString,class complexType>::remove(class QMapIterator<class QString,class complexType>))
      236    ?remove@?$QMap@VQString@@VdeviceTypeInfo@@@@QAEXABVQString@@@Z (public: void __thiscall QMap<class QString,class deviceTypeInfo>::remove(class QString const &))
      237    ?remove@?$QMap@VQString@@VdeviceTypeInfo@@@@QAEXV?$QMapIterator@VQString@@VdeviceTypeInfo@@@@@Z (public: void __thiscall QMap<class QString,class deviceTypeInfo>::remove(class QMapIterator<class QString,class deviceTypeInfo>))
      238    ?remove@?$QMap@VQString@@VinstanceInfo@@@@QAEXABVQString@@@Z (public: void __thiscall QMap<class QString,class instanceInfo>::remove(class QString const &))
      239    ?remove@?$QMap@VQString@@VinstanceInfo@@@@QAEXV?$QMapIterator@VQString@@VinstanceInfo@@@@@Z (public: void __thiscall QMap<class QString,class instanceInfo>::remove(class QMapIterator<class QString,class instanceInfo>))
      240    ?remove@?$QMap@VQString@@VparamInfo@@@@QAEXABVQString@@@Z (public: void __thiscall QMap<class QString,class paramInfo>::remove(class QString const &))
      241    ?remove@?$QMap@VQString@@VparamInfo@@@@QAEXV?$QMapIterator@VQString@@VparamInfo@@@@@Z (public: void __thiscall QMap<class QString,class paramInfo>::remove(class QMapIterator<class QString,class paramInfo>))
      242    ?remove@?$QPtrList@VsignalConnection@@@@QAE_NI@Z (public: bool __thiscall QPtrList<class signalConnection>::remove(unsigned int))
      243    ?remove@?$QPtrList@VsignalConnection@@@@QAE_NPBVsignalConnection@@@Z (public: bool __thiscall QPtrList<class signalConnection>::remove(class signalConnection const *))
      244    ?remove@?$QPtrList@VsignalConnection@@@@QAE_NXZ (public: bool __thiscall QPtrList<class signalConnection>::remove(void))
      245    ?removeFirst@?$QPtrList@VsignalConnection@@@@QAE_NXZ (public: bool __thiscall QPtrList<class signalConnection>::removeFirst(void))
      246    ?removeLast@?$QPtrList@VsignalConnection@@@@QAE_NXZ (public: bool __thiscall QPtrList<class signalConnection>::removeLast(void))
      247    ?removeNode@?$QPtrList@VsignalConnection@@@@QAEXPAVQLNode@@@Z (public: void __thiscall QPtrList<class signalConnection>::removeNode(class QLNode *))
      248    ?removeRef@?$QPtrList@VsignalConnection@@@@QAE_NPBVsignalConnection@@@Z (public: bool __thiscall QPtrList<class signalConnection>::removeRef(class signalConnection const *))
      249    ?replace@?$QMap@VQString@@VcomplexInstance@@@@QAE?AV?$QMapIterator@VQString@@VcomplexInstance@@@@ABVQString@@ABVcomplexInstance@@@Z (public: class QMapIterator<class QString,class complexInstance> __thiscall QMap<class QString,class complexInstance>::replace(class QString const &,class complexInstance const &))
      250    ?replace@?$QMap@VQString@@VcomplexParam@@@@QAE?AV?$QMapIterator@VQString@@VcomplexParam@@@@ABVQString@@ABVcomplexParam@@@Z (public: class QMapIterator<class QString,class complexParam> __thiscall QMap<class QString,class complexParam>::replace(class QString const &,class complexParam const &))
      251    ?replace@?$QMap@VQString@@VcomplexType@@@@QAE?AV?$QMapIterator@VQString@@VcomplexType@@@@ABVQString@@ABVcomplexType@@@Z (public: class QMapIterator<class QString,class complexType> __thiscall QMap<class QString,class complexType>::replace(class QString const &,class complexType const &))
      252    ?replace@?$QMap@VQString@@VdeviceTypeInfo@@@@QAE?AV?$QMapIterator@VQString@@VdeviceTypeInfo@@@@ABVQString@@ABVdeviceTypeInfo@@@Z (public: class QMapIterator<class QString,class deviceTypeInfo> __thiscall QMap<class QString,class deviceTypeInfo>::replace(class QString const &,class deviceTypeInfo const &))
      253    ?replace@?$QMap@VQString@@VinstanceInfo@@@@QAE?AV?$QMapIterator@VQString@@VinstanceInfo@@@@ABVQString@@ABVinstanceInfo@@@Z (public: class QMapIterator<class QString,class instanceInfo> __thiscall QMap<class QString,class instanceInfo>::replace(class QString const &,class instanceInfo const &))
      254    ?replace@?$QMap@VQString@@VparamInfo@@@@QAE?AV?$QMapIterator@VQString@@VparamInfo@@@@ABVQString@@ABVparamInfo@@@Z (public: class QMapIterator<class QString,class paramInfo> __thiscall QMap<class QString,class paramInfo>::replace(class QString const &,class paramInfo const &))
      255    ?replace@?$QPtrList@VsignalConnection@@@@QAE_NIPBVsignalConnection@@@Z (public: bool __thiscall QPtrList<class signalConnection>::replace(unsigned int,class signalConnection const *))
      256    ?size@?$QMap@VQString@@VcomplexInstance@@@@QBEIXZ (public: unsigned int __thiscall QMap<class QString,class complexInstance>::size(void)const )
      257    ?size@?$QMap@VQString@@VcomplexParam@@@@QBEIXZ (public: unsigned int __thiscall QMap<class QString,class complexParam>::size(void)const )
      258    ?size@?$QMap@VQString@@VcomplexType@@@@QBEIXZ (public: unsigned int __thiscall QMap<class QString,class complexType>::size(void)const )
      259    ?size@?$QMap@VQString@@VdeviceTypeInfo@@@@QBEIXZ (public: unsigned int __thiscall QMap<class QString,class deviceTypeInfo>::size(void)const )
      260    ?size@?$QMap@VQString@@VinstanceInfo@@@@QBEIXZ (public: unsigned int __thiscall QMap<class QString,class instanceInfo>::size(void)const )
      261    ?size@?$QMap@VQString@@VparamInfo@@@@QBEIXZ (public: unsigned int __thiscall QMap<class QString,class paramInfo>::size(void)const )
      262    ?sort@?$QPtrList@VsignalConnection@@@@QAEXXZ (public: void __thiscall QPtrList<class signalConnection>::sort(void))
      263    ?take@?$QPtrList@VsignalConnection@@@@QAEPAVsignalConnection@@I@Z (public: class signalConnection * __thiscall QPtrList<class signalConnection>::take(unsigned int))
      264    ?take@?$QPtrList@VsignalConnection@@@@QAEPAVsignalConnection@@XZ (public: class signalConnection * __thiscall QPtrList<class signalConnection>::take(void))
      265    ?takeNode@?$QPtrList@VsignalConnection@@@@QAEPAVsignalConnection@@PAVQLNode@@@Z (public: class signalConnection * __thiscall QPtrList<class signalConnection>::takeNode(class QLNode *))
      266    ?toFirst@?$QPtrListIterator@VsignalConnection@@@@QAEPAVsignalConnection@@XZ (public: class signalConnection * __thiscall QPtrListIterator<class signalConnection>::toFirst(void))
      267    ?toLast@?$QPtrListIterator@VsignalConnection@@@@QAEPAVsignalConnection@@XZ (public: class signalConnection * __thiscall QPtrListIterator<class signalConnection>::toLast(void))
      268    ?toVector@?$QPtrList@VsignalConnection@@@@QBEXPAVQGVector@@@Z (public: void __thiscall QPtrList<class signalConnection>::toVector(class QGVector *)const )
      269    ?values@?$QMap@VQString@@VcomplexInstance@@@@QBE?AV?$QValueList@VcomplexInstance@@@@XZ (public: class QValueList<class complexInstance> __thiscall QMap<class QString,class complexInstance>::values(void)const )
      270    ?values@?$QMap@VQString@@VcomplexParam@@@@QBE?AV?$QValueList@VcomplexParam@@@@XZ (public: class QValueList<class complexParam> __thiscall QMap<class QString,class complexParam>::values(void)const )
      271    ?values@?$QMap@VQString@@VcomplexType@@@@QBE?AV?$QValueList@VcomplexType@@@@XZ (public: class QValueList<class complexType> __thiscall QMap<class QString,class complexType>::values(void)const )
      272    ?values@?$QMap@VQString@@VdeviceTypeInfo@@@@QBE?AV?$QValueList@VdeviceTypeInfo@@@@XZ (public: class QValueList<class deviceTypeInfo> __thiscall QMap<class QString,class deviceTypeInfo>::values(void)const )
      273    ?values@?$QMap@VQString@@VinstanceInfo@@@@QBE?AV?$QValueList@VinstanceInfo@@@@XZ (public: class QValueList<class instanceInfo> __thiscall QMap<class QString,class instanceInfo>::values(void)const )
      274    ?values@?$QMap@VQString@@VparamInfo@@@@QBE?AV?$QValueList@VparamInfo@@@@XZ (public: class QValueList<class paramInfo> __thiscall QMap<class QString,class paramInfo>::values(void)const )
