 PanelMan

 Timestamp is 56de0011 (Mon Mar 07 22:26:25 2016)

 Preferred load address is 00400000

 Start         Length     Name                   Class
 0001:00000000 00018e34H .text                   CODE
 0001:00018e34 0000360bH .text$x                 CODE
 0002:00000000 00007e34H .rdata                  DATA
 0002:00007e38 00000044H .rdata$r                DATA
 0002:00007e80 00004060H .xdata$x                DATA
 0002:0000bee0 000043d1H .edata                  DATA
 0003:00000000 00000004H .CRT$XCA                DATA
 0003:00000004 00000054H .CRT$XCU                DATA
 0003:00000058 00000004H .CRT$XCZ                DATA
 0003:0000005c 00000004H .CRT$XIA                DATA
 0003:00000060 00000004H .CRT$XIZ                DATA
 0003:00000070 0000380cH .data                   DATA
 0003:00003880 00000144H .bss                    DATA
 0004:00000000 00000118H .idata$2                DATA
 0004:00000118 00000014H .idata$3                DATA
 0004:0000012c 00001ef8H .idata$4                DATA
 0004:00002024 00001ef8H .idata$5                DATA
 0004:00003f1c 00013cf6H .idata$6                DATA
 0005:00000000 00000118H .rsrc$01                DATA
 0005:00000120 00002e00H .rsrc$02                DATA

  Address         Publics by Value              Rva+Base     Lib:Object

 0001:00000000       ??0CAdjustMon@@QAE@PAVQWidget@@@Z 00401000 f   AdjustMon.obj
 0001:00000125       ?path@global@@SA?AVQString@@XZ 00401125 f i AdjustMon.obj
 0001:000001b0       ??_GCAdjustMon@@UAEPAXI@Z  004011b0 f i AdjustMon.obj
 0001:000001b0       ??_ECAdjustMon@@UAEPAXI@Z  004011b0 f i AdjustMon.obj
 0001:000001cc       ??1CAdjustMon@@UAE@XZ      004011cc f   AdjustMon.obj
 0001:00000226       ?adjust@CAdjustMon@@AAEXVQString@@@Z 00401226 f   AdjustMon.obj
 0001:0000084a       ?checkAdjust@CAdjustMon@@AAE?AVQString@@V2@@Z 0040184a f   AdjustMon.obj
 0001:000009ab       ?adjustRev@CAdjustMon@@QAEXPBD@Z 004019ab f   AdjustMon.obj
 0001:0000105d       ?textCallback@CAdjustMon@@EAEXPBDH@Z 0040205d f   AdjustMon.obj
 0001:000017f3       ?addToNavigationStack@CAdjustMon@@QAEXABVQString@@@Z 004027f3 f   AdjustMon.obj
 0001:0000185f       ?navigateBack@CAdjustMon@@QAEXXZ 0040285f f   AdjustMon.obj
 0001:000018c3       ?setToolTip@CAdjustMon@@AAEXVQString@@@Z 004028c3 f   AdjustMon.obj
 0001:00001904       ?clearAdjustStringStack@CAdjustMon@@QAEXXZ 00402904 f   AdjustMon.obj
 0001:0000190d       ??1?$QPtrList@VQString@@@@UAE@XZ 0040290d f i AdjustMon.obj
 0001:00001947       ?clear@?$QPtrList@VQWidgetFactory@@@@UAEXXZ 00402947 f i AdjustMon.obj
 0001:00001947       ?clear@?$QPtrList@VsignalConnection@@@@UAEXXZ 00402947 f i AdjustMon.obj
 0001:00001947       ?clear@?$QPtrList@VQAction@@@@UAEXXZ 00402947 f i AdjustMon.obj
 0001:00001947       ?clear@?$QPtrList@VQString@@@@UAEXXZ 00402947 f i AdjustMon.obj
 0001:0000194d       ??0?$QMap@VQString@@VparamInfo@@@@QAE@XZ 0040294d f i AdjustMon.obj
 0001:00001987       ??1?$QMap@VQString@@VparamInfo@@@@QAE@XZ 00402987 f i AdjustMon.obj
 0001:000019a4       ?begin@?$QMap@VQString@@VparamInfo@@@@QAE?AV?$QMapIterator@VQString@@VparamInfo@@@@XZ 004029a4 f i AdjustMon.obj
 0001:000019c4       ?end@?$QMap@VQString@@VparamInfo@@@@QAE?AV?$QMapIterator@VQString@@VparamInfo@@@@XZ 004029c4 f i AdjustMon.obj
 0001:000019e2       ?replace@?$QMap@VQString@@VparamInfo@@@@QAE?AV?$QMapIterator@VQString@@VparamInfo@@@@ABVQString@@ABVparamInfo@@@Z 004029e2 f i AdjustMon.obj
 0001:00001a0a       ?remove@?$QMap@VQString@@VparamInfo@@@@QAEXV?$QMapIterator@VQString@@VparamInfo@@@@@Z 00402a0a f i AdjustMon.obj
 0001:00001a0a       ?erase@?$QMap@VQString@@VparamInfo@@@@QAEXV?$QMapIterator@VQString@@VparamInfo@@@@@Z 00402a0a f i AdjustMon.obj
 0001:00001a2d       ?find@?$QMap@VQString@@VparamInfo@@@@QAE?AV?$QMapIterator@VQString@@VparamInfo@@@@ABVQString@@@Z 00402a2d f i AdjustMon.obj
 0001:00001a59       ?keys@?$QMap@VQString@@VparamInfo@@@@QBE?AV?$QValueList@VQString@@@@XZ 00402a59 f i AdjustMon.obj
 0001:00001ade       ?values@?$QMap@VQString@@VparamInfo@@@@QBE?AV?$QValueList@VparamInfo@@@@XZ 00402ade f i AdjustMon.obj
 0001:00001b61       ?detach@?$QMap@VQString@@VparamInfo@@@@IAEXXZ 00402b61 f i AdjustMon.obj
 0001:00001b6e       ??0?$QMap@VQString@@VcomplexParam@@@@QAE@XZ 00402b6e f i AdjustMon.obj
 0001:00001ba8       ??1?$QMap@VQString@@VcomplexParam@@@@QAE@XZ 00402ba8 f i AdjustMon.obj
 0001:00001bc5       ?begin@?$QMap@VQString@@VcomplexParam@@@@QAE?AV?$QMapIterator@VQString@@VcomplexParam@@@@XZ 00402bc5 f i AdjustMon.obj
 0001:00001be5       ?end@?$QMap@VQString@@VcomplexParam@@@@QAE?AV?$QMapIterator@VQString@@VcomplexParam@@@@XZ 00402be5 f i AdjustMon.obj
 0001:00001c03       ?constEnd@?$QMap@VQString@@VcomplexInstance@@@@QBE?AV?$QMapConstIterator@VQString@@VcomplexInstance@@@@XZ 00402c03 f i AdjustMon.obj
 0001:00001c03       ?end@?$QMap@VQString@@VinstanceInfo@@@@QBE?AV?$QMapConstIterator@VQString@@VinstanceInfo@@@@XZ 00402c03 f i AdjustMon.obj
 0001:00001c03       ?constEnd@?$QMap@VQString@@VcomplexType@@@@QBE?AV?$QMapConstIterator@VQString@@VcomplexType@@@@XZ 00402c03 f i AdjustMon.obj
 0001:00001c03       ?end@?$QMap@VQString@@VcomplexType@@@@QBE?AV?$QMapConstIterator@VQString@@VcomplexType@@@@XZ 00402c03 f i AdjustMon.obj
 0001:00001c03       ?end@?$QMap@VQString@@VdeviceTypeInfo@@@@QBE?AV?$QMapConstIterator@VQString@@VdeviceTypeInfo@@@@XZ 00402c03 f i AdjustMon.obj
 0001:00001c03       ?constEnd@?$QMap@VQString@@VparamInfo@@@@QBE?AV?$QMapConstIterator@VQString@@VparamInfo@@@@XZ 00402c03 f i AdjustMon.obj
 0001:00001c03       ?end@?$QMap@VQString@@VparamInfo@@@@QBE?AV?$QMapConstIterator@VQString@@VparamInfo@@@@XZ 00402c03 f i AdjustMon.obj
 0001:00001c03       ?constEnd@?$QMap@VQString@@VcomplexParam@@@@QBE?AV?$QMapConstIterator@VQString@@VcomplexParam@@@@XZ 00402c03 f i AdjustMon.obj
 0001:00001c03       ?end@?$QMap@VQString@@VcomplexParam@@@@QBE?AV?$QMapConstIterator@VQString@@VcomplexParam@@@@XZ 00402c03 f i AdjustMon.obj
 0001:00001c03       ?constEnd@?$QMap@VQString@@VdeviceTypeInfo@@@@QBE?AV?$QMapConstIterator@VQString@@VdeviceTypeInfo@@@@XZ 00402c03 f i AdjustMon.obj
 0001:00001c03       ?constEnd@?$QMap@VQString@@VinstanceInfo@@@@QBE?AV?$QMapConstIterator@VQString@@VinstanceInfo@@@@XZ 00402c03 f i AdjustMon.obj
 0001:00001c03       ?end@?$QMap@VQString@@VcomplexInstance@@@@QBE?AV?$QMapConstIterator@VQString@@VcomplexInstance@@@@XZ 00402c03 f i AdjustMon.obj
 0001:00001c11       ?replace@?$QMap@VQString@@VcomplexParam@@@@QAE?AV?$QMapIterator@VQString@@VcomplexParam@@@@ABVQString@@ABVcomplexParam@@@Z 00402c11 f i AdjustMon.obj
 0001:00001c39       ?erase@?$QMap@VQString@@VcomplexParam@@@@QAEXV?$QMapIterator@VQString@@VcomplexParam@@@@@Z 00402c39 f i AdjustMon.obj
 0001:00001c39       ?remove@?$QMap@VQString@@VcomplexParam@@@@QAEXV?$QMapIterator@VQString@@VcomplexParam@@@@@Z 00402c39 f i AdjustMon.obj
 0001:00001c5c       ?find@?$QMap@VQString@@VcomplexParam@@@@QAE?AV?$QMapIterator@VQString@@VcomplexParam@@@@ABVQString@@@Z 00402c5c f i AdjustMon.obj
 0001:00001c88       ?find@?$QMap@VQString@@VcomplexParam@@@@QBE?AV?$QMapConstIterator@VQString@@VcomplexParam@@@@ABVQString@@@Z 00402c88 f i AdjustMon.obj
 0001:00001c9e       ??A?$QMap@VQString@@VcomplexParam@@@@QBEABVcomplexParam@@ABVQString@@@Z 00402c9e f i AdjustMon.obj
 0001:00001cb8       ?contains@?$QMap@VQString@@VcomplexParam@@@@QBE_NABVQString@@@Z 00402cb8 f i AdjustMon.obj
 0001:00001cda       ?keys@?$QMap@VQString@@VcomplexParam@@@@QBE?AV?$QValueList@VQString@@@@XZ 00402cda f i AdjustMon.obj
 0001:00001d5f       ?values@?$QMap@VQString@@VcomplexParam@@@@QBE?AV?$QValueList@VcomplexParam@@@@XZ 00402d5f f i AdjustMon.obj
 0001:00001de2       ?detach@?$QMap@VQString@@VcomplexParam@@@@IAEXXZ 00402de2 f i AdjustMon.obj
 0001:00001def       ??0?$QMap@VQString@@VcomplexInstance@@@@QAE@XZ 00402def f i AdjustMon.obj
 0001:00001e29       ??1?$QMap@VQString@@VcomplexInstance@@@@QAE@XZ 00402e29 f i AdjustMon.obj
 0001:00001e46       ?begin@?$QMap@VQString@@VcomplexInstance@@@@QAE?AV?$QMapIterator@VQString@@VcomplexInstance@@@@XZ 00402e46 f i AdjustMon.obj
 0001:00001e66       ?end@?$QMap@VQString@@VcomplexInstance@@@@QAE?AV?$QMapIterator@VQString@@VcomplexInstance@@@@XZ 00402e66 f i AdjustMon.obj
 0001:00001e84       ?replace@?$QMap@VQString@@VcomplexInstance@@@@QAE?AV?$QMapIterator@VQString@@VcomplexInstance@@@@ABVQString@@ABVcomplexInstance@@@Z 00402e84 f i AdjustMon.obj
 0001:00001eac       ?find@?$QMap@VQString@@VcomplexInstance@@@@QAE?AV?$QMapIterator@VQString@@VcomplexInstance@@@@ABVQString@@@Z 00402eac f i AdjustMon.obj
 0001:00001ed8       ??A?$QMap@VQString@@VcomplexType@@@@QBEABVcomplexType@@ABVQString@@@Z 00402ed8 f i AdjustMon.obj
 0001:00001ed8       ??A?$QMap@VQString@@VcomplexInstance@@@@QBEABVcomplexInstance@@ABVQString@@@Z 00402ed8 f i AdjustMon.obj
 0001:00001ed8       ??A?$QMap@VQString@@VparamInfo@@@@QBEABVparamInfo@@ABVQString@@@Z 00402ed8 f i AdjustMon.obj
 0001:00001ef2       ?keys@?$QMap@VQString@@VcomplexInstance@@@@QBE?AV?$QValueList@VQString@@@@XZ 00402ef2 f i AdjustMon.obj
 0001:00001f77       ?values@?$QMap@VQString@@VcomplexInstance@@@@QBE?AV?$QValueList@VcomplexInstance@@@@XZ 00402f77 f i AdjustMon.obj
 0001:00001ffa       ?remove@?$QMap@VQString@@VcomplexInstance@@@@QAEXV?$QMapIterator@VQString@@VcomplexInstance@@@@@Z 00402ffa f i AdjustMon.obj
 0001:00001ffa       ?erase@?$QMap@VQString@@VcomplexInstance@@@@QAEXV?$QMapIterator@VQString@@VcomplexInstance@@@@@Z 00402ffa f i AdjustMon.obj
 0001:0000201d       ?detach@?$QMap@VQString@@VcomplexInstance@@@@IAEXXZ 0040301d f i AdjustMon.obj
 0001:0000202a       ??0?$QMap@VQString@@VinstanceInfo@@@@QAE@XZ 0040302a f i AdjustMon.obj
 0001:00002064       ??0?$QMap@VQString@@VparamInfo@@@@QAE@ABV0@@Z 00403064 f i AdjustMon.obj
 0001:00002064       ??0?$QMap@VQString@@VcomplexParam@@@@QAE@ABV0@@Z 00403064 f i AdjustMon.obj
 0001:00002064       ??0?$QMap@VQString@@VinstanceInfo@@@@QAE@ABV0@@Z 00403064 f i AdjustMon.obj
 0001:00002064       ??0?$QMap@VQString@@VcomplexInstance@@@@QAE@ABV0@@Z 00403064 f i AdjustMon.obj
 0001:00002064       ??0?$QMap@VQString@@VcomplexType@@@@QAE@ABV0@@Z 00403064 f i AdjustMon.obj
 0001:00002064       ??0?$QMap@VQString@@VdeviceTypeInfo@@@@QAE@ABV0@@Z 00403064 f i AdjustMon.obj
 0001:00002073       ??1?$QMap@VQString@@VinstanceInfo@@@@QAE@XZ 00403073 f i AdjustMon.obj
 0001:00002090       ?begin@?$QMap@VQString@@VinstanceInfo@@@@QAE?AV?$QMapIterator@VQString@@VinstanceInfo@@@@XZ 00403090 f i AdjustMon.obj
 0001:000020b0       ?end@?$QMap@VQString@@VinstanceInfo@@@@QAE?AV?$QMapIterator@VQString@@VinstanceInfo@@@@XZ 004030b0 f i AdjustMon.obj
 0001:000020ce       ?replace@?$QMap@VQString@@VinstanceInfo@@@@QAE?AV?$QMapIterator@VQString@@VinstanceInfo@@@@ABVQString@@ABVinstanceInfo@@@Z 004030ce f i AdjustMon.obj
 0001:000020f6       ?remove@?$QMap@VQString@@VinstanceInfo@@@@QAEXV?$QMapIterator@VQString@@VinstanceInfo@@@@@Z 004030f6 f i AdjustMon.obj
 0001:000020f6       ?erase@?$QMap@VQString@@VinstanceInfo@@@@QAEXV?$QMapIterator@VQString@@VinstanceInfo@@@@@Z 004030f6 f i AdjustMon.obj
 0001:00002119       ?find@?$QMap@VQString@@VinstanceInfo@@@@QAE?AV?$QMapIterator@VQString@@VinstanceInfo@@@@ABVQString@@@Z 00403119 f i AdjustMon.obj
 0001:00002145       ?find@?$QMap@VQString@@VinstanceInfo@@@@QBE?AV?$QMapConstIterator@VQString@@VinstanceInfo@@@@ABVQString@@@Z 00403145 f i AdjustMon.obj
 0001:0000215b       ??A?$QMap@VQString@@VinstanceInfo@@@@QBEABVinstanceInfo@@ABVQString@@@Z 0040315b f i AdjustMon.obj
 0001:00002175       ?contains@?$QMap@VQString@@VinstanceInfo@@@@QBE_NABVQString@@@Z 00403175 f i AdjustMon.obj
 0001:00002197       ?keys@?$QMap@VQString@@VinstanceInfo@@@@QBE?AV?$QValueList@VQString@@@@XZ 00403197 f i AdjustMon.obj
 0001:0000221c       ?values@?$QMap@VQString@@VinstanceInfo@@@@QBE?AV?$QValueList@VinstanceInfo@@@@XZ 0040321c f i AdjustMon.obj
 0001:0000229f       ?detach@?$QMap@VQString@@VinstanceInfo@@@@IAEXXZ 0040329f f i AdjustMon.obj
 0001:000022ac       ??0?$QMap@VQString@@VdeviceTypeInfo@@@@QAE@XZ 004032ac f i AdjustMon.obj
 0001:000022e6       ??1?$QMap@VQString@@VdeviceTypeInfo@@@@QAE@XZ 004032e6 f i AdjustMon.obj
 0001:00002303       ?begin@?$QMap@VQString@@VdeviceTypeInfo@@@@QAE?AV?$QMapIterator@VQString@@VdeviceTypeInfo@@@@XZ 00403303 f i AdjustMon.obj
 0001:00002323       ?end@?$QMap@VQString@@VdeviceTypeInfo@@@@QAE?AV?$QMapIterator@VQString@@VdeviceTypeInfo@@@@XZ 00403323 f i AdjustMon.obj
 0001:00002341       ?replace@?$QMap@VQString@@VdeviceTypeInfo@@@@QAE?AV?$QMapIterator@VQString@@VdeviceTypeInfo@@@@ABVQString@@ABVdeviceTypeInfo@@@Z 00403341 f i AdjustMon.obj
 0001:00002369       ?find@?$QMap@VQString@@VdeviceTypeInfo@@@@QAE?AV?$QMapIterator@VQString@@VdeviceTypeInfo@@@@ABVQString@@@Z 00403369 f i AdjustMon.obj
 0001:00002395       ?find@?$QMap@VQString@@VdeviceTypeInfo@@@@QBE?AV?$QMapConstIterator@VQString@@VdeviceTypeInfo@@@@ABVQString@@@Z 00403395 f i AdjustMon.obj
 0001:000023ab       ??A?$QMap@VQString@@VdeviceTypeInfo@@@@QBEABVdeviceTypeInfo@@ABVQString@@@Z 004033ab f i AdjustMon.obj
 0001:000023c5       ?contains@?$QMap@VQString@@VdeviceTypeInfo@@@@QBE_NABVQString@@@Z 004033c5 f i AdjustMon.obj
 0001:000023e7       ?size@?$QMap@VQString@@VcomplexType@@@@QBEIXZ 004033e7 f i AdjustMon.obj
 0001:000023e7       ?count@?$QMap@VQString@@VdeviceTypeInfo@@@@QBEIXZ 004033e7 f i AdjustMon.obj
 0001:000023e7       ?count@?$QMap@VQString@@VcomplexParam@@@@QBEIXZ 004033e7 f i AdjustMon.obj
 0001:000023e7       ?count@?$QMap@VQString@@VparamInfo@@@@QBEIXZ 004033e7 f i AdjustMon.obj
 0001:000023e7       ?size@?$QMap@VQString@@VcomplexInstance@@@@QBEIXZ 004033e7 f i AdjustMon.obj
 0001:000023e7       ?count@?$QMap@VQString@@VcomplexInstance@@@@QBEIXZ 004033e7 f i AdjustMon.obj
 0001:000023e7       ?size@?$QMap@VQString@@VinstanceInfo@@@@QBEIXZ 004033e7 f i AdjustMon.obj
 0001:000023e7       ?size@?$QMap@VQString@@VcomplexParam@@@@QBEIXZ 004033e7 f i AdjustMon.obj
 0001:000023e7       ?count@?$QMap@VQString@@VcomplexType@@@@QBEIXZ 004033e7 f i AdjustMon.obj
 0001:000023e7       ?size@?$QMap@VQString@@VdeviceTypeInfo@@@@QBEIXZ 004033e7 f i AdjustMon.obj
 0001:000023e7       ?count@?$QMap@VQString@@VinstanceInfo@@@@QBEIXZ 004033e7 f i AdjustMon.obj
 0001:000023e7       ?size@?$QMap@VQString@@VparamInfo@@@@QBEIXZ 004033e7 f i AdjustMon.obj
 0001:000023ed       ?keys@?$QMap@VQString@@VdeviceTypeInfo@@@@QBE?AV?$QValueList@VQString@@@@XZ 004033ed f i AdjustMon.obj
 0001:00002472       ?values@?$QMap@VQString@@VdeviceTypeInfo@@@@QBE?AV?$QValueList@VdeviceTypeInfo@@@@XZ 00403472 f i AdjustMon.obj
 0001:000024f5       ?remove@?$QMap@VQString@@VdeviceTypeInfo@@@@QAEXV?$QMapIterator@VQString@@VdeviceTypeInfo@@@@@Z 004034f5 f i AdjustMon.obj
 0001:000024f5       ?erase@?$QMap@VQString@@VdeviceTypeInfo@@@@QAEXV?$QMapIterator@VQString@@VdeviceTypeInfo@@@@@Z 004034f5 f i AdjustMon.obj
 0001:00002518       ?detach@?$QMap@VQString@@VdeviceTypeInfo@@@@IAEXXZ 00403518 f i AdjustMon.obj
 0001:00002525       ??0?$QMap@VQString@@VcomplexType@@@@QAE@XZ 00403525 f i AdjustMon.obj
 0001:0000255f       ??1?$QMap@VQString@@VcomplexType@@@@QAE@XZ 0040355f f i AdjustMon.obj
 0001:0000257c       ?begin@?$QMap@VQString@@VcomplexType@@@@QAE?AV?$QMapIterator@VQString@@VcomplexType@@@@XZ 0040357c f i AdjustMon.obj
 0001:0000259c       ?end@?$QMap@VQString@@VcomplexType@@@@QAE?AV?$QMapIterator@VQString@@VcomplexType@@@@XZ 0040359c f i AdjustMon.obj
 0001:000025ba       ?begin@?$QMap@VQString@@VcomplexType@@@@QBE?AV?$QMapConstIterator@VQString@@VcomplexType@@@@XZ 004035ba f i AdjustMon.obj
 0001:000025ba       ?begin@?$QMap@VQString@@VcomplexInstance@@@@QBE?AV?$QMapConstIterator@VQString@@VcomplexInstance@@@@XZ 004035ba f i AdjustMon.obj
 0001:000025ba       ?begin@?$QMap@VQString@@VinstanceInfo@@@@QBE?AV?$QMapConstIterator@VQString@@VinstanceInfo@@@@XZ 004035ba f i AdjustMon.obj
 0001:000025ba       ?constBegin@?$QMap@VQString@@VinstanceInfo@@@@QBE?AV?$QMapConstIterator@VQString@@VinstanceInfo@@@@XZ 004035ba f i AdjustMon.obj
 0001:000025ba       ?begin@?$QMap@VQString@@VparamInfo@@@@QBE?AV?$QMapConstIterator@VQString@@VparamInfo@@@@XZ 004035ba f i AdjustMon.obj
 0001:000025ba       ?constBegin@?$QMap@VQString@@VparamInfo@@@@QBE?AV?$QMapConstIterator@VQString@@VparamInfo@@@@XZ 004035ba f i AdjustMon.obj
 0001:000025ba       ?begin@?$QMap@VQString@@VcomplexParam@@@@QBE?AV?$QMapConstIterator@VQString@@VcomplexParam@@@@XZ 004035ba f i AdjustMon.obj
 0001:000025ba       ?constBegin@?$QMap@VQString@@VcomplexInstance@@@@QBE?AV?$QMapConstIterator@VQString@@VcomplexInstance@@@@XZ 004035ba f i AdjustMon.obj
 0001:000025ba       ?constBegin@?$QMap@VQString@@VcomplexType@@@@QBE?AV?$QMapConstIterator@VQString@@VcomplexType@@@@XZ 004035ba f i AdjustMon.obj
 0001:000025ba       ?constBegin@?$QMap@VQString@@VcomplexParam@@@@QBE?AV?$QMapConstIterator@VQString@@VcomplexParam@@@@XZ 004035ba f i AdjustMon.obj
 0001:000025ba       ?constBegin@?$QMap@VQString@@VdeviceTypeInfo@@@@QBE?AV?$QMapConstIterator@VQString@@VdeviceTypeInfo@@@@XZ 004035ba f i AdjustMon.obj
 0001:000025ba       ?begin@?$QMap@VQString@@VdeviceTypeInfo@@@@QBE?AV?$QMapConstIterator@VQString@@VdeviceTypeInfo@@@@XZ 004035ba f i AdjustMon.obj
 0001:000025ca       ?replace@?$QMap@VQString@@VcomplexType@@@@QAE?AV?$QMapIterator@VQString@@VcomplexType@@@@ABVQString@@ABVcomplexType@@@Z 004035ca f i AdjustMon.obj
 0001:000025f2       ?remove@?$QMap@VQString@@VcomplexType@@@@QAEXV?$QMapIterator@VQString@@VcomplexType@@@@@Z 004035f2 f i AdjustMon.obj
 0001:000025f2       ?erase@?$QMap@VQString@@VcomplexType@@@@QAEXV?$QMapIterator@VQString@@VcomplexType@@@@@Z 004035f2 f i AdjustMon.obj
 0001:00002615       ?find@?$QMap@VQString@@VcomplexType@@@@QAE?AV?$QMapIterator@VQString@@VcomplexType@@@@ABVQString@@@Z 00403615 f i AdjustMon.obj
 0001:00002641       ?find@?$QMap@VQString@@VparamInfo@@@@QBE?AV?$QMapConstIterator@VQString@@VparamInfo@@@@ABVQString@@@Z 00403641 f i AdjustMon.obj
 0001:00002641       ?find@?$QMap@VQString@@VcomplexInstance@@@@QBE?AV?$QMapConstIterator@VQString@@VcomplexInstance@@@@ABVQString@@@Z 00403641 f i AdjustMon.obj
 0001:00002641       ?find@?$QMap@VQString@@VcomplexType@@@@QBE?AV?$QMapConstIterator@VQString@@VcomplexType@@@@ABVQString@@@Z 00403641 f i AdjustMon.obj
 0001:00002657       ?contains@?$QMap@VQString@@VcomplexInstance@@@@QBE_NABVQString@@@Z 00403657 f i AdjustMon.obj
 0001:00002657       ?contains@?$QMap@VQString@@VcomplexType@@@@QBE_NABVQString@@@Z 00403657 f i AdjustMon.obj
 0001:00002657       ?contains@?$QMap@VQString@@VparamInfo@@@@QBE_NABVQString@@@Z 00403657 f i AdjustMon.obj
 0001:00002679       ?keys@?$QMap@VQString@@VcomplexType@@@@QBE?AV?$QValueList@VQString@@@@XZ 00403679 f i AdjustMon.obj
 0001:000026fe       ?values@?$QMap@VQString@@VcomplexType@@@@QBE?AV?$QValueList@VcomplexType@@@@XZ 004036fe f i AdjustMon.obj
 0001:00002781       ?empty@?$QMap@VQString@@VcomplexParam@@@@QBE_NXZ 00403781 f i AdjustMon.obj
 0001:00002781       ?isEmpty@?$QMap@VQString@@VcomplexInstance@@@@QBE_NXZ 00403781 f i AdjustMon.obj
 0001:00002781       ?empty@?$QMap@VQString@@VdeviceTypeInfo@@@@QBE_NXZ 00403781 f i AdjustMon.obj
 0001:00002781       ?isEmpty@?$QMap@VQString@@VinstanceInfo@@@@QBE_NXZ 00403781 f i AdjustMon.obj
 0001:00002781       ?isEmpty@?$QMap@VQString@@VcomplexType@@@@QBE_NXZ 00403781 f i AdjustMon.obj
 0001:00002781       ?isEmpty@?$QMap@VQString@@VdeviceTypeInfo@@@@QBE_NXZ 00403781 f i AdjustMon.obj
 0001:00002781       ?isEmpty@?$QMap@VQString@@VcomplexParam@@@@QBE_NXZ 00403781 f i AdjustMon.obj
 0001:00002781       ?isEmpty@?$QMap@VQString@@VparamInfo@@@@QBE_NXZ 00403781 f i AdjustMon.obj
 0001:00002781       ?empty@?$QMap@VQString@@VinstanceInfo@@@@QBE_NXZ 00403781 f i AdjustMon.obj
 0001:00002781       ?empty@?$QMap@VQString@@VparamInfo@@@@QBE_NXZ 00403781 f i AdjustMon.obj
 0001:00002781       ?empty@?$QMap@VQString@@VcomplexInstance@@@@QBE_NXZ 00403781 f i AdjustMon.obj
 0001:00002781       ?empty@?$QMap@VQString@@VcomplexType@@@@QBE_NXZ 00403781 f i AdjustMon.obj
 0001:0000278e       ?detach@?$QMap@VQString@@VcomplexType@@@@IAEXXZ 0040378e f i AdjustMon.obj
 0001:0000279b       ??_E?$QPtrList@VQString@@@@UAEPAXI@Z 0040379b f i AdjustMon.obj
 0001:0000279b       ??_G?$QPtrList@VQString@@@@UAEPAXI@Z 0040379b f i AdjustMon.obj
 0001:000027b7       ?derefAndDelete@?$QValueListPrivate@VcomplexInstance@@@@QAEXXZ 004037b7 f i AdjustMon.obj
 0001:000027b7       ?derefAndDelete@?$QValueListPrivate@UImage@QWidgetFactory@@@@QAEXXZ 004037b7 f i AdjustMon.obj
 0001:000027b7       ?derefAndDelete@?$QValueListPrivate@UField@QWidgetFactory@@@@QAEXXZ 004037b7 f i AdjustMon.obj
 0001:000027b7       ?derefAndDelete@?$QValueListPrivate@VparamInfo@@@@QAEXXZ 004037b7 f i AdjustMon.obj
 0001:000027b7       ?derefAndDelete@?$QValueListPrivate@VcomplexParam@@@@QAEXXZ 004037b7 f i AdjustMon.obj
 0001:000027b7       ?derefAndDelete@?$QValueListPrivate@VinstanceInfo@@@@QAEXXZ 004037b7 f i AdjustMon.obj
 0001:000027b7       ?derefAndDelete@?$QValueListPrivate@VdeviceTypeInfo@@@@QAEXXZ 004037b7 f i AdjustMon.obj
 0001:000027b7       ?derefAndDelete@?$QValueListPrivate@VQString@@@@QAEXXZ 004037b7 f i AdjustMon.obj
 0001:000027b7       ?derefAndDelete@?$QValueListPrivate@VcomplexType@@@@QAEXXZ 004037b7 f i AdjustMon.obj
 0001:000027c7       ??1?$QMapPrivate@VQString@@VparamInfo@@@@QAE@XZ 004037c7 f i AdjustMon.obj
 0001:000027e6       ?remove@?$QMapPrivate@VQString@@VparamInfo@@@@QAEXV?$QMapIterator@VQString@@VparamInfo@@@@@Z 004037e6 f i AdjustMon.obj
 0001:0000281e       ??0?$QValueList@VparamInfo@@@@QAE@XZ 0040381e f i AdjustMon.obj
 0001:00002858       ??1?$QValueList@VcomplexType@@@@QAE@XZ 00403858 f i AdjustMon.obj
 0001:00002858       ??1?$QValueList@VparamInfo@@@@QAE@XZ 00403858 f i AdjustMon.obj
 0001:00002858       ??1?$QValueList@VcomplexInstance@@@@QAE@XZ 00403858 f i AdjustMon.obj
 0001:00002858       ??1?$QValueList@VdeviceTypeInfo@@@@QAE@XZ 00403858 f i AdjustMon.obj
 0001:00002858       ??1?$QValueList@VinstanceInfo@@@@QAE@XZ 00403858 f i AdjustMon.obj
 0001:00002858       ??1?$QValueList@VcomplexParam@@@@QAE@XZ 00403858 f i AdjustMon.obj
 0001:0000285f       ?append@?$QValueList@VparamInfo@@@@QAE?AV?$QValueListIterator@VparamInfo@@@@ABVparamInfo@@@Z 0040385f f i AdjustMon.obj
 0001:0000288f       ??1?$QMapPrivate@VQString@@VcomplexParam@@@@QAE@XZ 0040388f f i AdjustMon.obj
 0001:000028ae       ?remove@?$QMapPrivate@VQString@@VcomplexParam@@@@QAEXV?$QMapIterator@VQString@@VcomplexParam@@@@@Z 004038ae f i AdjustMon.obj
 0001:000028e6       ??0?$QValueList@VcomplexParam@@@@QAE@XZ 004038e6 f i AdjustMon.obj
 0001:00002920       ?append@?$QValueList@VcomplexParam@@@@QAE?AV?$QValueListIterator@VcomplexParam@@@@ABVcomplexParam@@@Z 00403920 f i AdjustMon.obj
 0001:00002950       ??1?$QMapPrivate@VQString@@VcomplexInstance@@@@QAE@XZ 00403950 f i AdjustMon.obj
 0001:0000296f       ?remove@?$QMapPrivate@VQString@@VcomplexInstance@@@@QAEXV?$QMapIterator@VQString@@VcomplexInstance@@@@@Z 0040396f f i AdjustMon.obj
 0001:000029a7       ??0?$QValueList@VcomplexInstance@@@@QAE@XZ 004039a7 f i AdjustMon.obj
 0001:000029e1       ?append@?$QValueList@VcomplexInstance@@@@QAE?AV?$QValueListIterator@VcomplexInstance@@@@ABVcomplexInstance@@@Z 004039e1 f i AdjustMon.obj
 0001:00002a11       ??1?$QMapPrivate@VQString@@VinstanceInfo@@@@QAE@XZ 00403a11 f i AdjustMon.obj
 0001:00002a30       ?remove@?$QMapPrivate@VQString@@VinstanceInfo@@@@QAEXV?$QMapIterator@VQString@@VinstanceInfo@@@@@Z 00403a30 f i AdjustMon.obj
 0001:00002a68       ??0?$QValueList@VinstanceInfo@@@@QAE@XZ 00403a68 f i AdjustMon.obj
 0001:00002aa2       ?append@?$QValueList@VinstanceInfo@@@@QAE?AV?$QValueListIterator@VinstanceInfo@@@@ABVinstanceInfo@@@Z 00403aa2 f i AdjustMon.obj
 0001:00002ad2       ??1?$QMapPrivate@VQString@@VdeviceTypeInfo@@@@QAE@XZ 00403ad2 f i AdjustMon.obj
 0001:00002af1       ?remove@?$QMapPrivate@VQString@@VdeviceTypeInfo@@@@QAEXV?$QMapIterator@VQString@@VdeviceTypeInfo@@@@@Z 00403af1 f i AdjustMon.obj
 0001:00002b29       ??0?$QValueList@VdeviceTypeInfo@@@@QAE@XZ 00403b29 f i AdjustMon.obj
 0001:00002b63       ?append@?$QValueList@VdeviceTypeInfo@@@@QAE?AV?$QValueListIterator@VdeviceTypeInfo@@@@ABVdeviceTypeInfo@@@Z 00403b63 f i AdjustMon.obj
 0001:00002b93       ??1?$QMapPrivate@VQString@@VcomplexType@@@@QAE@XZ 00403b93 f i AdjustMon.obj
 0001:00002bb2       ?remove@?$QMapPrivate@VQString@@VcomplexType@@@@QAEXV?$QMapIterator@VQString@@VcomplexType@@@@@Z 00403bb2 f i AdjustMon.obj
 0001:00002bea       ??0?$QValueList@VcomplexType@@@@QAE@XZ 00403bea f i AdjustMon.obj
 0001:00002c24       ?append@?$QValueList@VcomplexType@@@@QAE?AV?$QValueListIterator@VcomplexType@@@@ABVcomplexType@@@Z 00403c24 f i AdjustMon.obj
 0001:00002c54       ??1?$QMapNode@VQString@@VparamInfo@@@@QAE@XZ 00403c54 f i AdjustMon.obj
 0001:00002c8c       ??1?$QMapNode@VQString@@VcomplexParam@@@@QAE@XZ 00403c8c f i AdjustMon.obj
 0001:00002cc4       ??1?$QMapNode@VQString@@VcomplexInstance@@@@QAE@XZ 00403cc4 f i AdjustMon.obj
 0001:00002cfc       ??1?$QMapNode@VQString@@VinstanceInfo@@@@QAE@XZ 00403cfc f i AdjustMon.obj
 0001:00002d34       ??1?$QMapNode@VQString@@VdeviceTypeInfo@@@@QAE@XZ 00403d34 f i AdjustMon.obj
 0001:00002d6c       ??1?$QMapNode@VQString@@VcomplexType@@@@QAE@XZ 00403d6c f i AdjustMon.obj
 0001:00002da4       ?end@?$QValueList@VparamInfo@@@@QAE?AV?$QValueListIterator@VparamInfo@@@@XZ 00403da4 f i AdjustMon.obj
 0001:00002dc3       ?end@?$QValueList@VcomplexParam@@@@QAE?AV?$QValueListIterator@VcomplexParam@@@@XZ 00403dc3 f i AdjustMon.obj
 0001:00002de2       ?end@?$QValueList@VcomplexInstance@@@@QAE?AV?$QValueListIterator@VcomplexInstance@@@@XZ 00403de2 f i AdjustMon.obj
 0001:00002e01       ?end@?$QValueList@VinstanceInfo@@@@QAE?AV?$QValueListIterator@VinstanceInfo@@@@XZ 00403e01 f i AdjustMon.obj
 0001:00002e20       ?end@?$QValueList@VdeviceTypeInfo@@@@QAE?AV?$QValueListIterator@VdeviceTypeInfo@@@@XZ 00403e20 f i AdjustMon.obj
 0001:00002e3f       ?end@?$QValueList@VcomplexType@@@@QAE?AV?$QValueListIterator@VcomplexType@@@@XZ 00403e3f f i AdjustMon.obj
 0001:00002e5e       ?deleteItem@?$QPtrList@VQString@@@@EAEXPAX@Z 00403e5e f i AdjustMon.obj
 0001:00002e80       ??4?$QMap@VQString@@VparamInfo@@@@QAEAAV0@ABV0@@Z 00403e80 f i AdjustMon.obj
 0001:00002eb3       ?insert@?$QMap@VQString@@VparamInfo@@@@QAE?AV?$QMapIterator@VQString@@VparamInfo@@@@ABVQString@@ABVparamInfo@@_N@Z 00403eb3 f i AdjustMon.obj
 0001:00002eff       ?insert@?$QMap@VQString@@VparamInfo@@@@QAE?AU?$QPair@V?$QMapIterator@VQString@@VparamInfo@@@@_N@@ABU?$QPair@$$CBVQString@@VparamInfo@@@@@Z 00403eff f i AdjustMon.obj
 0001:00002f4c       ?remove@?$QMap@VQString@@VparamInfo@@@@QAEXABVQString@@@Z 00403f4c f i AdjustMon.obj
 0001:00002f4c       ?erase@?$QMap@VQString@@VparamInfo@@@@QAEXABVQString@@@Z 00403f4c f i AdjustMon.obj
 0001:00002f96       ?count@?$QMap@VQString@@VcomplexInstance@@@@QBEIABVQString@@@Z 00403f96 f i AdjustMon.obj
 0001:00002f96       ?count@?$QMap@VQString@@VcomplexType@@@@QBEIABVQString@@@Z 00403f96 f i AdjustMon.obj
 0001:00002f96       ?count@?$QMap@VQString@@VparamInfo@@@@QBEIABVQString@@@Z 00403f96 f i AdjustMon.obj
 0001:00002fd9       ??A?$QMap@VQString@@VparamInfo@@@@QAEAAVparamInfo@@ABVQString@@@Z 00403fd9 f i AdjustMon.obj
 0001:00003052       ?clear@?$QMap@VQString@@VparamInfo@@@@QAEXXZ 00404052 f i AdjustMon.obj
 0001:0000309a       ?detachInternal@?$QMap@VQString@@VparamInfo@@@@AAEXXZ 0040409a f i AdjustMon.obj
 0001:000030d8       ??4?$QMap@VQString@@VcomplexParam@@@@QAEAAV0@ABV0@@Z 004040d8 f i AdjustMon.obj
 0001:0000310b       ?insert@?$QMap@VQString@@VcomplexParam@@@@QAE?AV?$QMapIterator@VQString@@VcomplexParam@@@@ABVQString@@ABVcomplexParam@@_N@Z 0040410b f i AdjustMon.obj
 0001:0000316e       ?insert@?$QMap@VQString@@VcomplexParam@@@@QAE?AU?$QPair@V?$QMapIterator@VQString@@VcomplexParam@@@@_N@@ABU?$QPair@$$CBVQString@@VcomplexParam@@@@@Z 0040416e f i AdjustMon.obj
 0001:000031d5       ?count@?$QMap@VQString@@VcomplexParam@@@@QBEIABVQString@@@Z 004041d5 f i AdjustMon.obj
 0001:00003218       ??A?$QMap@VQString@@VcomplexParam@@@@QAEAAVcomplexParam@@ABVQString@@@Z 00404218 f i AdjustMon.obj
 0001:00003291       ?clear@?$QMap@VQString@@VcomplexParam@@@@QAEXXZ 00404291 f i AdjustMon.obj
 0001:000032d9       ?remove@?$QMap@VQString@@VcomplexParam@@@@QAEXABVQString@@@Z 004042d9 f i AdjustMon.obj
 0001:000032d9       ?erase@?$QMap@VQString@@VcomplexParam@@@@QAEXABVQString@@@Z 004042d9 f i AdjustMon.obj
 0001:00003323       ?detachInternal@?$QMap@VQString@@VcomplexParam@@@@AAEXXZ 00404323 f i AdjustMon.obj
 0001:00003361       ??4?$QMap@VQString@@VcomplexInstance@@@@QAEAAV0@ABV0@@Z 00404361 f i AdjustMon.obj
 0001:00003394       ?insert@?$QMap@VQString@@VcomplexInstance@@@@QAE?AV?$QMapIterator@VQString@@VcomplexInstance@@@@ABVQString@@ABVcomplexInstance@@_N@Z 00404394 f i AdjustMon.obj
 0001:000033e6       ?insert@?$QMap@VQString@@VcomplexInstance@@@@QAE?AU?$QPair@V?$QMapIterator@VQString@@VcomplexInstance@@@@_N@@ABU?$QPair@$$CBVQString@@VcomplexInstance@@@@@Z 004043e6 f i AdjustMon.obj
 0001:0000343e       ?remove@?$QMap@VQString@@VcomplexInstance@@@@QAEXABVQString@@@Z 0040443e f i AdjustMon.obj
 0001:0000343e       ?erase@?$QMap@VQString@@VcomplexInstance@@@@QAEXABVQString@@@Z 0040443e f i AdjustMon.obj
 0001:00003488       ??A?$QMap@VQString@@VcomplexInstance@@@@QAEAAVcomplexInstance@@ABVQString@@@Z 00404488 f i AdjustMon.obj
 0001:00003501       ?clear@?$QMap@VQString@@VcomplexInstance@@@@QAEXXZ 00404501 f i AdjustMon.obj
 0001:00003549       ?detachInternal@?$QMap@VQString@@VcomplexInstance@@@@AAEXXZ 00404549 f i AdjustMon.obj
 0001:00003587       ??4?$QMap@VQString@@VinstanceInfo@@@@QAEAAV0@ABV0@@Z 00404587 f i AdjustMon.obj
 0001:000035ba       ?insert@?$QMap@VQString@@VinstanceInfo@@@@QAE?AV?$QMapIterator@VQString@@VinstanceInfo@@@@ABVQString@@ABVinstanceInfo@@_N@Z 004045ba f i AdjustMon.obj
 0001:00003609       ?insert@?$QMap@VQString@@VinstanceInfo@@@@QAE?AU?$QPair@V?$QMapIterator@VQString@@VinstanceInfo@@@@_N@@ABU?$QPair@$$CBVQString@@VinstanceInfo@@@@@Z 00404609 f i AdjustMon.obj
 0001:00003662       ?count@?$QMap@VQString@@VinstanceInfo@@@@QBEIABVQString@@@Z 00404662 f i AdjustMon.obj
 0001:000036a5       ??A?$QMap@VQString@@VinstanceInfo@@@@QAEAAVinstanceInfo@@ABVQString@@@Z 004046a5 f i AdjustMon.obj
 0001:0000371e       ?clear@?$QMap@VQString@@VinstanceInfo@@@@QAEXXZ 0040471e f i AdjustMon.obj
 0001:00003766       ?remove@?$QMap@VQString@@VinstanceInfo@@@@QAEXABVQString@@@Z 00404766 f i AdjustMon.obj
 0001:00003766       ?erase@?$QMap@VQString@@VinstanceInfo@@@@QAEXABVQString@@@Z 00404766 f i AdjustMon.obj
 0001:000037b0       ?detachInternal@?$QMap@VQString@@VinstanceInfo@@@@AAEXXZ 004047b0 f i AdjustMon.obj
 0001:000037ee       ??4?$QMap@VQString@@VdeviceTypeInfo@@@@QAEAAV0@ABV0@@Z 004047ee f i AdjustMon.obj
 0001:00003821       ?insert@?$QMap@VQString@@VdeviceTypeInfo@@@@QAE?AV?$QMapIterator@VQString@@VdeviceTypeInfo@@@@ABVQString@@ABVdeviceTypeInfo@@_N@Z 00404821 f i AdjustMon.obj
 0001:00003882       ?insert@?$QMap@VQString@@VdeviceTypeInfo@@@@QAE?AU?$QPair@V?$QMapIterator@VQString@@VdeviceTypeInfo@@@@_N@@ABU?$QPair@$$CBVQString@@VdeviceTypeInfo@@@@@Z 00404882 f i AdjustMon.obj
 0001:000038e9       ?count@?$QMap@VQString@@VdeviceTypeInfo@@@@QBEIABVQString@@@Z 004048e9 f i AdjustMon.obj
 0001:0000392c       ??A?$QMap@VQString@@VdeviceTypeInfo@@@@QAEAAVdeviceTypeInfo@@ABVQString@@@Z 0040492c f i AdjustMon.obj
 0001:000039a5       ?clear@?$QMap@VQString@@VdeviceTypeInfo@@@@QAEXXZ 004049a5 f i AdjustMon.obj
 0001:000039ed       ?remove@?$QMap@VQString@@VdeviceTypeInfo@@@@QAEXABVQString@@@Z 004049ed f i AdjustMon.obj
 0001:000039ed       ?erase@?$QMap@VQString@@VdeviceTypeInfo@@@@QAEXABVQString@@@Z 004049ed f i AdjustMon.obj
 0001:00003a37       ?detachInternal@?$QMap@VQString@@VdeviceTypeInfo@@@@AAEXXZ 00404a37 f i AdjustMon.obj
 0001:00003a75       ??4?$QMap@VQString@@VcomplexType@@@@QAEAAV0@ABV0@@Z 00404a75 f i AdjustMon.obj
 0001:00003aa8       ?insert@?$QMap@VQString@@VcomplexType@@@@QAE?AV?$QMapIterator@VQString@@VcomplexType@@@@ABVQString@@ABVcomplexType@@_N@Z 00404aa8 f i AdjustMon.obj
 0001:00003afa       ?insert@?$QMap@VQString@@VcomplexType@@@@QAE?AU?$QPair@V?$QMapIterator@VQString@@VcomplexType@@@@_N@@ABU?$QPair@$$CBVQString@@VcomplexType@@@@@Z 00404afa f i AdjustMon.obj
 0001:00003b52       ?erase@?$QMap@VQString@@VcomplexType@@@@QAEXABVQString@@@Z 00404b52 f i AdjustMon.obj
 0001:00003b52       ?remove@?$QMap@VQString@@VcomplexType@@@@QAEXABVQString@@@Z 00404b52 f i AdjustMon.obj
 0001:00003b9c       ??A?$QMap@VQString@@VcomplexType@@@@QAEAAVcomplexType@@ABVQString@@@Z 00404b9c f i AdjustMon.obj
 0001:00003c15       ?clear@?$QMap@VQString@@VcomplexType@@@@QAEXXZ 00404c15 f i AdjustMon.obj
 0001:00003c5d       ?detachInternal@?$QMap@VQString@@VcomplexType@@@@AAEXXZ 00404c5d f i AdjustMon.obj
 0001:00003c9b       ??0?$QMapPrivate@VQString@@VparamInfo@@@@QAE@XZ 00404c9b f i AdjustMon.obj
 0001:00003d10       ?clear@?$QMapPrivate@VQString@@VparamInfo@@@@QAEXXZ 00404d10 f i AdjustMon.obj
 0001:00003d3f       ?find@?$QMapPrivate@VQString@@VcomplexInstance@@@@QBE?AV?$QMapConstIterator@VQString@@VcomplexInstance@@@@ABVQString@@@Z 00404d3f f i AdjustMon.obj
 0001:00003d3f       ?find@?$QMapPrivate@VQString@@VparamInfo@@@@QBE?AV?$QMapConstIterator@VQString@@VparamInfo@@@@ABVQString@@@Z 00404d3f f i AdjustMon.obj
 0001:00003d3f       ?find@?$QMapPrivate@VQString@@VcomplexType@@@@QBE?AV?$QMapConstIterator@VQString@@VcomplexType@@@@ABVQString@@@Z 00404d3f f i AdjustMon.obj
 0001:00003d9d       ?detachInternal@?$QValueList@VparamInfo@@@@AAEXXZ 00404d9d f i AdjustMon.obj
 0001:00003dde       ??0?$QMapPrivate@VQString@@VcomplexParam@@@@QAE@XZ 00404dde f i AdjustMon.obj
 0001:00003e53       ?clear@?$QMapPrivate@VQString@@VcomplexParam@@@@QAEXXZ 00404e53 f i AdjustMon.obj
 0001:00003e82       ?find@?$QMapPrivate@VQString@@VcomplexParam@@@@QBE?AV?$QMapConstIterator@VQString@@VcomplexParam@@@@ABVQString@@@Z 00404e82 f i AdjustMon.obj
 0001:00003ee0       ?detachInternal@?$QValueList@VcomplexParam@@@@AAEXXZ 00404ee0 f i AdjustMon.obj
 0001:00003f21       ??0?$QMapPrivate@VQString@@VcomplexInstance@@@@QAE@XZ 00404f21 f i AdjustMon.obj
 0001:00003f96       ?clear@?$QMapPrivate@VQString@@VcomplexInstance@@@@QAEXXZ 00404f96 f i AdjustMon.obj
 0001:00003fc5       ?detachInternal@?$QValueList@VcomplexInstance@@@@AAEXXZ 00404fc5 f i AdjustMon.obj
 0001:00004006       ??0?$QMapPrivate@VQString@@VinstanceInfo@@@@QAE@XZ 00405006 f i AdjustMon.obj
 0001:0000407b       ?clear@?$QMapPrivate@VQString@@VinstanceInfo@@@@QAEXXZ 0040507b f i AdjustMon.obj
 0001:000040aa       ?find@?$QMapPrivate@VQString@@VinstanceInfo@@@@QBE?AV?$QMapConstIterator@VQString@@VinstanceInfo@@@@ABVQString@@@Z 004050aa f i AdjustMon.obj
 0001:00004108       ?detachInternal@?$QValueList@VinstanceInfo@@@@AAEXXZ 00405108 f i AdjustMon.obj
 0001:00004149       ??0?$QMapPrivate@VQString@@VdeviceTypeInfo@@@@QAE@XZ 00405149 f i AdjustMon.obj
 0001:000041be       ?clear@?$QMapPrivate@VQString@@VdeviceTypeInfo@@@@QAEXXZ 004051be f i AdjustMon.obj
 0001:000041ed       ?find@?$QMapPrivate@VQString@@VdeviceTypeInfo@@@@QBE?AV?$QMapConstIterator@VQString@@VdeviceTypeInfo@@@@ABVQString@@@Z 004051ed f i AdjustMon.obj
 0001:0000424b       ?detachInternal@?$QValueList@VdeviceTypeInfo@@@@AAEXXZ 0040524b f i AdjustMon.obj
 0001:0000428c       ??0?$QMapPrivate@VQString@@VcomplexType@@@@QAE@XZ 0040528c f i AdjustMon.obj
 0001:00004301       ?clear@?$QMapPrivate@VQString@@VcomplexType@@@@QAEXXZ 00405301 f i AdjustMon.obj
 0001:00004330       ?inc@?$QMapConstIterator@VQString@@VcomplexInstance@@@@AAEHXZ 00405330 f i AdjustMon.obj
 0001:00004330       ?inc@?$QMapConstIterator@VQString@@VcomplexType@@@@AAEHXZ 00405330 f i AdjustMon.obj
 0001:00004330       ?inc@?$QMapConstIterator@VQString@@VinstanceInfo@@@@AAEHXZ 00405330 f i AdjustMon.obj
 0001:00004330       ?inc@?$QMapConstIterator@VQString@@VcomplexParam@@@@AAEHXZ 00405330 f i AdjustMon.obj
 0001:00004330       ?inc@?$QMapConstIterator@VQString@@VparamInfo@@@@AAEHXZ 00405330 f i AdjustMon.obj
 0001:00004330       ?inc@?$QMapConstIterator@VQString@@VdeviceTypeInfo@@@@AAEHXZ 00405330 f i AdjustMon.obj
 0001:0000435e       ?detachInternal@?$QValueList@VcomplexType@@@@AAEXXZ 0040535e f i AdjustMon.obj
 0001:0000439f       ??0?$QValueListPrivate@VparamInfo@@@@QAE@XZ 0040539f f i AdjustMon.obj
 0001:00004408       ?insert@?$QValueListPrivate@VparamInfo@@@@QAE?AV?$QValueListIterator@VparamInfo@@@@V2@ABVparamInfo@@@Z 00405408 f i AdjustMon.obj
 0001:00004459       ??0?$QValueListPrivate@VcomplexParam@@@@QAE@XZ 00405459 f i AdjustMon.obj
 0001:000044c2       ?insert@?$QValueListPrivate@VcomplexParam@@@@QAE?AV?$QValueListIterator@VcomplexParam@@@@V2@ABVcomplexParam@@@Z 004054c2 f i AdjustMon.obj
 0001:00004528       ??0?$QValueListPrivate@VcomplexInstance@@@@QAE@XZ 00405528 f i AdjustMon.obj
 0001:00004591       ?insert@?$QValueListPrivate@VcomplexInstance@@@@QAE?AV?$QValueListIterator@VcomplexInstance@@@@V2@ABVcomplexInstance@@@Z 00405591 f i AdjustMon.obj
 0001:000045e4       ??0?$QValueListPrivate@VinstanceInfo@@@@QAE@XZ 004055e4 f i AdjustMon.obj
 0001:0000464d       ?insert@?$QValueListPrivate@VinstanceInfo@@@@QAE?AV?$QValueListIterator@VinstanceInfo@@@@V2@ABVinstanceInfo@@@Z 0040564d f i AdjustMon.obj
 0001:000046b3       ??0?$QValueListPrivate@VdeviceTypeInfo@@@@QAE@XZ 004056b3 f i AdjustMon.obj
 0001:0000471c       ?insert@?$QValueListPrivate@VdeviceTypeInfo@@@@QAE?AV?$QValueListIterator@VdeviceTypeInfo@@@@V2@ABVdeviceTypeInfo@@@Z 0040571c f i AdjustMon.obj
 0001:0000477b       ??0?$QValueListPrivate@VcomplexType@@@@QAE@XZ 0040577b f i AdjustMon.obj
 0001:000047e4       ?insert@?$QValueListPrivate@VcomplexType@@@@QAE?AV?$QValueListIterator@VcomplexType@@@@V2@ABVcomplexType@@@Z 004057e4 f i AdjustMon.obj
 0001:00004837       ??_G?$QValueListPrivate@VparamInfo@@@@UAEPAXI@Z 00405837 f i AdjustMon.obj
 0001:00004837       ??_E?$QValueListPrivate@VparamInfo@@@@UAEPAXI@Z 00405837 f i AdjustMon.obj
 0001:00004853       ??1?$QValueListPrivate@VparamInfo@@@@UAE@XZ 00405853 f i AdjustMon.obj
 0001:0000488b       ??_E?$QValueListPrivate@VcomplexParam@@@@UAEPAXI@Z 0040588b f i AdjustMon.obj
 0001:0000488b       ??_G?$QValueListPrivate@VcomplexParam@@@@UAEPAXI@Z 0040588b f i AdjustMon.obj
 0001:000048a7       ??1?$QValueListPrivate@VcomplexParam@@@@UAE@XZ 004058a7 f i AdjustMon.obj
 0001:000048df       ??_E?$QValueListPrivate@VcomplexInstance@@@@UAEPAXI@Z 004058df f i AdjustMon.obj
 0001:000048df       ??_G?$QValueListPrivate@VcomplexInstance@@@@UAEPAXI@Z 004058df f i AdjustMon.obj
 0001:000048fb       ??1?$QValueListPrivate@VcomplexInstance@@@@UAE@XZ 004058fb f i AdjustMon.obj
 0001:00004933       ??_E?$QValueListPrivate@VinstanceInfo@@@@UAEPAXI@Z 00405933 f i AdjustMon.obj
 0001:00004933       ??_G?$QValueListPrivate@VinstanceInfo@@@@UAEPAXI@Z 00405933 f i AdjustMon.obj
 0001:0000494f       ??1?$QValueListPrivate@VinstanceInfo@@@@UAE@XZ 0040594f f i AdjustMon.obj
 0001:00004987       ??_G?$QValueListPrivate@VdeviceTypeInfo@@@@UAEPAXI@Z 00405987 f i AdjustMon.obj
 0001:00004987       ??_E?$QValueListPrivate@VdeviceTypeInfo@@@@UAEPAXI@Z 00405987 f i AdjustMon.obj
 0001:000049a3       ??1?$QValueListPrivate@VdeviceTypeInfo@@@@UAE@XZ 004059a3 f i AdjustMon.obj
 0001:000049db       ??_E?$QValueListPrivate@VcomplexType@@@@UAEPAXI@Z 004059db f i AdjustMon.obj
 0001:000049db       ??_G?$QValueListPrivate@VcomplexType@@@@UAEPAXI@Z 004059db f i AdjustMon.obj
 0001:000049f7       ??1?$QValueListPrivate@VcomplexType@@@@UAE@XZ 004059f7 f i AdjustMon.obj
 0001:00004a2f       ??_E?$QValueListNode@VparamInfo@@@@UAEPAXI@Z 00405a2f f i AdjustMon.obj
 0001:00004a2f       ??_G?$QValueListNode@VparamInfo@@@@UAEPAXI@Z 00405a2f f i AdjustMon.obj
 0001:00004a4b       ??1?$QValueListNode@VparamInfo@@@@UAE@XZ 00405a4b f i AdjustMon.obj
 0001:00004a5a       ??_E?$QValueListNode@VcomplexParam@@@@UAEPAXI@Z 00405a5a f i AdjustMon.obj
 0001:00004a5a       ??_G?$QValueListNode@VcomplexParam@@@@UAEPAXI@Z 00405a5a f i AdjustMon.obj
 0001:00004a76       ??1?$QValueListNode@VcomplexParam@@@@UAE@XZ 00405a76 f i AdjustMon.obj
 0001:00004a85       ??_G?$QValueListNode@VcomplexInstance@@@@UAEPAXI@Z 00405a85 f i AdjustMon.obj
 0001:00004a85       ??_E?$QValueListNode@VcomplexInstance@@@@UAEPAXI@Z 00405a85 f i AdjustMon.obj
 0001:00004aa1       ??1?$QValueListNode@VcomplexInstance@@@@UAE@XZ 00405aa1 f i AdjustMon.obj
 0001:00004ab0       ??_E?$QValueListNode@VinstanceInfo@@@@UAEPAXI@Z 00405ab0 f i AdjustMon.obj
 0001:00004ab0       ??_G?$QValueListNode@VinstanceInfo@@@@UAEPAXI@Z 00405ab0 f i AdjustMon.obj
 0001:00004acc       ??1?$QValueListNode@VinstanceInfo@@@@UAE@XZ 00405acc f i AdjustMon.obj
 0001:00004adb       ??_E?$QValueListNode@VdeviceTypeInfo@@@@UAEPAXI@Z 00405adb f i AdjustMon.obj
 0001:00004adb       ??_G?$QValueListNode@VdeviceTypeInfo@@@@UAEPAXI@Z 00405adb f i AdjustMon.obj
 0001:00004af7       ??1?$QValueListNode@VdeviceTypeInfo@@@@UAE@XZ 00405af7 f i AdjustMon.obj
 0001:00004b06       ??_E?$QValueListNode@VcomplexType@@@@UAEPAXI@Z 00405b06 f i AdjustMon.obj
 0001:00004b06       ??_G?$QValueListNode@VcomplexType@@@@UAEPAXI@Z 00405b06 f i AdjustMon.obj
 0001:00004b22       ??1?$QValueListNode@VcomplexType@@@@UAE@XZ 00405b22 f i AdjustMon.obj
 0001:00004b31       ??0?$QMapPrivate@VQString@@VparamInfo@@@@QAE@PBV0@@Z 00405b31 f i AdjustMon.obj
 0001:00004bf9       ?clear@?$QMapPrivate@VQString@@VparamInfo@@@@QAEXPAU?$QMapNode@VQString@@VparamInfo@@@@@Z 00405bf9 f i AdjustMon.obj
 0001:00004c30       ?insertSingle@?$QMapPrivate@VQString@@VparamInfo@@@@QAE?AV?$QMapIterator@VQString@@VparamInfo@@@@ABVQString@@@Z 00405c30 f i AdjustMon.obj
 0001:00004cb2       ??0?$QMapPrivate@VQString@@VcomplexParam@@@@QAE@PBV0@@Z 00405cb2 f i AdjustMon.obj
 0001:00004d7a       ?clear@?$QMapPrivate@VQString@@VcomplexParam@@@@QAEXPAU?$QMapNode@VQString@@VcomplexParam@@@@@Z 00405d7a f i AdjustMon.obj
 0001:00004db1       ?insertSingle@?$QMapPrivate@VQString@@VcomplexParam@@@@QAE?AV?$QMapIterator@VQString@@VcomplexParam@@@@ABVQString@@@Z 00405db1 f i AdjustMon.obj
 0001:00004e33       ??0?$QMapPrivate@VQString@@VcomplexInstance@@@@QAE@PBV0@@Z 00405e33 f i AdjustMon.obj
 0001:00004efb       ?clear@?$QMapPrivate@VQString@@VcomplexInstance@@@@QAEXPAU?$QMapNode@VQString@@VcomplexInstance@@@@@Z 00405efb f i AdjustMon.obj
 0001:00004f32       ?insertSingle@?$QMapPrivate@VQString@@VcomplexInstance@@@@QAE?AV?$QMapIterator@VQString@@VcomplexInstance@@@@ABVQString@@@Z 00405f32 f i AdjustMon.obj
 0001:00004fb4       ??0?$QMapPrivate@VQString@@VinstanceInfo@@@@QAE@PBV0@@Z 00405fb4 f i AdjustMon.obj
 0001:0000507c       ?clear@?$QMapPrivate@VQString@@VinstanceInfo@@@@QAEXPAU?$QMapNode@VQString@@VinstanceInfo@@@@@Z 0040607c f i AdjustMon.obj
 0001:000050b3       ?insertSingle@?$QMapPrivate@VQString@@VinstanceInfo@@@@QAE?AV?$QMapIterator@VQString@@VinstanceInfo@@@@ABVQString@@@Z 004060b3 f i AdjustMon.obj
 0001:00005135       ??0?$QMapPrivate@VQString@@VdeviceTypeInfo@@@@QAE@PBV0@@Z 00406135 f i AdjustMon.obj
 0001:000051fd       ?clear@?$QMapPrivate@VQString@@VdeviceTypeInfo@@@@QAEXPAU?$QMapNode@VQString@@VdeviceTypeInfo@@@@@Z 004061fd f i AdjustMon.obj
 0001:00005234       ?insertSingle@?$QMapPrivate@VQString@@VdeviceTypeInfo@@@@QAE?AV?$QMapIterator@VQString@@VdeviceTypeInfo@@@@ABVQString@@@Z 00406234 f i AdjustMon.obj
 0001:000052b6       ??0?$QMapPrivate@VQString@@VcomplexType@@@@QAE@PBV0@@Z 004062b6 f i AdjustMon.obj
 0001:0000537e       ?clear@?$QMapPrivate@VQString@@VcomplexType@@@@QAEXPAU?$QMapNode@VQString@@VcomplexType@@@@@Z 0040637e f i AdjustMon.obj
 0001:000053b5       ?insertSingle@?$QMapPrivate@VQString@@VcomplexType@@@@QAE?AV?$QMapIterator@VQString@@VcomplexType@@@@ABVQString@@@Z 004063b5 f i AdjustMon.obj
 0001:00005437       ??0?$QValueListPrivate@VparamInfo@@@@QAE@ABV0@@Z 00406437 f i AdjustMon.obj
 0001:000054e1       ??0?$QValueListPrivate@VcomplexParam@@@@QAE@ABV0@@Z 004064e1 f i AdjustMon.obj
 0001:0000558b       ??0?$QValueListPrivate@VcomplexInstance@@@@QAE@ABV0@@Z 0040658b f i AdjustMon.obj
 0001:00005635       ??0?$QValueListPrivate@VinstanceInfo@@@@QAE@ABV0@@Z 00406635 f i AdjustMon.obj
 0001:000056df       ??0?$QValueListPrivate@VdeviceTypeInfo@@@@QAE@ABV0@@Z 004066df f i AdjustMon.obj
 0001:00005789       ??0?$QValueListPrivate@VcomplexType@@@@QAE@ABV0@@Z 00406789 f i AdjustMon.obj
 0001:00005833       ??0?$QValueListIterator@VcomplexInstance@@@@QAE@ABV0@@Z 00406833 f i AdjustMon.obj
 0001:00005833       ??0?$QValueListIterator@VcomplexType@@@@QAE@ABV0@@Z 00406833 f i AdjustMon.obj
 0001:00005833       ??0?$QValueListIterator@VcomplexParam@@@@QAE@ABV0@@Z 00406833 f i AdjustMon.obj
 0001:00005833       ??0?$QValueListIterator@VparamInfo@@@@QAE@ABV0@@Z 00406833 f i AdjustMon.obj
 0001:00005833       ??0?$QValueListIterator@VinstanceInfo@@@@QAE@ABV0@@Z 00406833 f i AdjustMon.obj
 0001:00005833       ??0?$QValueListIterator@VdeviceTypeInfo@@@@QAE@ABV0@@Z 00406833 f i AdjustMon.obj
 0001:00005840       ?copy@?$QMapPrivate@VQString@@VparamInfo@@@@QAEPAU?$QMapNode@VQString@@VparamInfo@@@@PAU2@@Z 00406840 f i AdjustMon.obj
 0001:000058cd       ?insert@?$QMapPrivate@VQString@@VparamInfo@@@@QAE?AV?$QMapIterator@VQString@@VparamInfo@@@@PAUQMapNodeBase@@0ABVQString@@@Z 004068cd f i AdjustMon.obj
 0001:0000597c       ?copy@?$QMapPrivate@VQString@@VcomplexParam@@@@QAEPAU?$QMapNode@VQString@@VcomplexParam@@@@PAU2@@Z 0040697c f i AdjustMon.obj
 0001:00005a09       ?insert@?$QMapPrivate@VQString@@VcomplexParam@@@@QAE?AV?$QMapIterator@VQString@@VcomplexParam@@@@PAUQMapNodeBase@@0ABVQString@@@Z 00406a09 f i AdjustMon.obj
 0001:00005ab8       ?copy@?$QMapPrivate@VQString@@VcomplexInstance@@@@QAEPAU?$QMapNode@VQString@@VcomplexInstance@@@@PAU2@@Z 00406ab8 f i AdjustMon.obj
 0001:00005b45       ?insert@?$QMapPrivate@VQString@@VcomplexInstance@@@@QAE?AV?$QMapIterator@VQString@@VcomplexInstance@@@@PAUQMapNodeBase@@0ABVQString@@@Z 00406b45 f i AdjustMon.obj
 0001:00005bf4       ?dec@?$QMapIterator@VQString@@VcomplexInstance@@@@AAEHXZ 00406bf4 f i AdjustMon.obj
 0001:00005bf4       ?dec@?$QMapIterator@VQString@@VinstanceInfo@@@@AAEHXZ 00406bf4 f i AdjustMon.obj
 0001:00005bf4       ?dec@?$QMapIterator@VQString@@VdeviceTypeInfo@@@@AAEHXZ 00406bf4 f i AdjustMon.obj
 0001:00005bf4       ?dec@?$QMapIterator@VQString@@VcomplexParam@@@@AAEHXZ 00406bf4 f i AdjustMon.obj
 0001:00005bf4       ?dec@?$QMapIterator@VQString@@VparamInfo@@@@AAEHXZ 00406bf4 f i AdjustMon.obj
 0001:00005bf4       ?dec@?$QMapIterator@VQString@@VcomplexType@@@@AAEHXZ 00406bf4 f i AdjustMon.obj
 0001:00005c2b       ?copy@?$QMapPrivate@VQString@@VinstanceInfo@@@@QAEPAU?$QMapNode@VQString@@VinstanceInfo@@@@PAU2@@Z 00406c2b f i AdjustMon.obj
 0001:00005cb8       ?insert@?$QMapPrivate@VQString@@VinstanceInfo@@@@QAE?AV?$QMapIterator@VQString@@VinstanceInfo@@@@PAUQMapNodeBase@@0ABVQString@@@Z 00406cb8 f i AdjustMon.obj
 0001:00005d67       ?copy@?$QMapPrivate@VQString@@VdeviceTypeInfo@@@@QAEPAU?$QMapNode@VQString@@VdeviceTypeInfo@@@@PAU2@@Z 00406d67 f i AdjustMon.obj
 0001:00005df4       ?insert@?$QMapPrivate@VQString@@VdeviceTypeInfo@@@@QAE?AV?$QMapIterator@VQString@@VdeviceTypeInfo@@@@PAUQMapNodeBase@@0ABVQString@@@Z 00406df4 f i AdjustMon.obj
 0001:00005ea3       ?copy@?$QMapPrivate@VQString@@VcomplexType@@@@QAEPAU?$QMapNode@VQString@@VcomplexType@@@@PAU2@@Z 00406ea3 f i AdjustMon.obj
 0001:00005f30       ?insert@?$QMapPrivate@VQString@@VcomplexType@@@@QAE?AV?$QMapIterator@VQString@@VcomplexType@@@@PAUQMapNodeBase@@0ABVQString@@@Z 00406f30 f i AdjustMon.obj
 0001:00005fdf       ??0?$QMapNode@VQString@@VparamInfo@@@@QAE@ABVQString@@@Z 00406fdf f i AdjustMon.obj
 0001:0000602a       ??0?$QMapNode@VQString@@VparamInfo@@@@QAE@ABU0@@Z 0040702a f i AdjustMon.obj
 0001:00006081       ??0?$QMapNode@VQString@@VcomplexParam@@@@QAE@ABVQString@@@Z 00407081 f i AdjustMon.obj
 0001:000060cc       ??0?$QMapNode@VQString@@VcomplexParam@@@@QAE@ABU0@@Z 004070cc f i AdjustMon.obj
 0001:00006134       ??0?$QMapNode@VQString@@VcomplexInstance@@@@QAE@ABVQString@@@Z 00407134 f i AdjustMon.obj
 0001:0000617f       ??0?$QMapNode@VQString@@VcomplexInstance@@@@QAE@ABU0@@Z 0040717f f i AdjustMon.obj
 0001:000061dc       ??0?$QMapNode@VQString@@VinstanceInfo@@@@QAE@ABVQString@@@Z 004071dc f i AdjustMon.obj
 0001:00006227       ??0?$QMapNode@VQString@@VinstanceInfo@@@@QAE@ABU0@@Z 00407227 f i AdjustMon.obj
 0001:00006285       ??0?$QMapNode@VQString@@VdeviceTypeInfo@@@@QAE@ABVQString@@@Z 00407285 f i AdjustMon.obj
 0001:000062d0       ??0?$QMapNode@VQString@@VdeviceTypeInfo@@@@QAE@ABU0@@Z 004072d0 f i AdjustMon.obj
 0001:0000633a       ??0?$QMapNode@VQString@@VcomplexType@@@@QAE@ABVQString@@@Z 0040733a f i AdjustMon.obj
 0001:00006385       ??0?$QMapNode@VQString@@VcomplexType@@@@QAE@ABU0@@Z 00407385 f i AdjustMon.obj
 0001:000063e2       ??0signalConnection@@QAE@ABVQString@@0000@Z 004073e2 f i AppBar.obj
 0001:00006474       ??0signalConnection@@QAE@ABV0@@Z 00407474 f i AppBar.obj
 0001:000064da       ??4signalConnection@@QAEAAV0@ABV0@@Z 004074da f i AppBar.obj
 0001:00006518       ??1signalConnection@@QAE@XZ 00407518 f i AppBar.obj
 0001:00006579       ??0signalConnectionRefList@@QAE@XZ 00407579 f i AppBar.obj
 0001:0000658c       ??0signalConnectionRefList@@QAE@ABV0@@Z 0040758c f i AppBar.obj
 0001:000065a5       ??1signalConnectionRefList@@UAE@XZ 004075a5 f i AppBar.obj
 0001:000065f4       ??4signalConnectionRefList@@QAEAAV0@ABV0@@Z 004075f4 f i AppBar.obj
 0001:00006601       ??_EsignalConnectionRefList@@UAEPAXI@Z 00407601 f i AppBar.obj
 0001:0000664c       ??0signalConnectionRefListIt@@QAE@ABVsignalConnectionRefList@@@Z 0040764c f i AppBar.obj
 0001:0000665f       ??4signalConnectionRefListIt@@QAEAAV0@ABV0@@Z 0040765f f i AppBar.obj
 0001:00006672       ??0signalConnectionRefListIt@@QAE@ABV0@@Z 00407672 f i AppBar.obj
 0001:00006685       ??1signalConnectionRefListIt@@QAE@XZ 00407685 f i AppBar.obj
 0001:0000668b       ??0CAppBar@@QAE@PAVQWidget@@ABVQString@@_N@Z 0040768b f   AppBar.obj
 0001:0000679e       ?metaObject@CAppBar@@UBEPAVQMetaObject@@XZ 0040779e f i AppBar.obj
 0001:000067a3       ??_ECAppBar@@UAEPAXI@Z     004077a3 f i AppBar.obj
 0001:000067a3       ??_GCAppBar@@UAEPAXI@Z     004077a3 f i AppBar.obj
 0001:000067bf       ??1CAppBar@@UAE@XZ         004077bf f   AppBar.obj
 0001:00006899       ?initButtons@CAppBar@@QAEXXZ 00407899 f   AppBar.obj
 0001:000069ad       ?notify@CAppBar@@UAEXAAVQString@@@Z 004079ad f   AppBar.obj
 0001:00006b90       ??_GQKeyEvent@@UAEPAXI@Z   00407b90 f i AppBar.obj
 0001:00006b90       ??_EQKeyEvent@@UAEPAXI@Z   00407b90 f i AppBar.obj
 0001:00006bad       ?popupDestroyed@CAppBar@@QAEXXZ 00407bad f   AppBar.obj
 0001:00006bd1       ?slotPressed@CAppBar@@QAEXXZ 00407bd1 f   AppBar.obj
 0001:00006cc1       ?showInstancesGrid@CAppBar@@AAEXPAVQPoint@@VQString@@1@Z 00407cc1 f   AppBar.obj
 0001:0000708f       ??_EQGrid@@UAEPAXI@Z       0040808f f i AppBar.obj
 0001:0000708f       ??_GQGrid@@UAEPAXI@Z       0040808f f i AppBar.obj
 0001:000070ac       ?clearHighlight@CAppBar@@QAEXXZ 004080ac f   AppBar.obj
 0001:00007116       ?appItem@CAppBar@@AAEXHPAVQPoint@@@Z 00408116 f   AppBar.obj
 0001:0000784c       ?setUser@CAppBar@@QAE?AVQString@@V2@@Z 0040884c f   AppBar.obj
 0001:00007bef       ?ws@global@@SAHXZ          00408bef f i AppBar.obj
 0001:00007c3f       ?setPanelSet@CAppBar@@QAEXVQString@@@Z 00408c3f f   AppBar.obj
 0001:00008ed0       ?getPanelSetSize@CAppBar@@AAEHVQString@@@Z 00409ed0 f   AppBar.obj
 0001:00008f87       ?getAppItemCount@CAppBar@@AAEHXZ 00409f87 f   AppBar.obj
 0001:0000901b       ?showPanelSet@CAppBar@@AAEXXZ 0040a01b f   AppBar.obj
 0001:0000938d       ?nextPage@CAppBar@@AAEXXZ  0040a38d f   AppBar.obj
 0001:0000945c       ?switchMenu@CAppBar@@QAEHXZ 0040a45c f   AppBar.obj
 0001:000094c5       ?resetPanelSet@CAppBar@@QAEXXZ 0040a4c5 f   AppBar.obj
 0001:000094e4       ?getCurrentMenu@CAppBar@@QAEHXZ 0040a4e4 f   AppBar.obj
 0001:000094eb       ?popupAppExtension@CAppBar@@AAEXXZ 0040a4eb f   AppBar.obj
 0001:00009b30       ??1?$QDict@VCAppItem@@@@UAE@XZ 0040ab30 f i AppBar.obj
 0001:00009b6a       ??A?$QDict@VCAppItem@@@@QBEPAVCAppItem@@ABVQString@@@Z 0040ab6a f i AppBar.obj
 0001:00009b7b       ??1?$QPtrList@VsignalConnection@@@@UAE@XZ 0040ab7b f i AppBar.obj
 0001:00009bb5       ??_G?$QDict@VCAppItem@@@@UAEPAXI@Z 0040abb5 f i AppBar.obj
 0001:00009bb5       ??_E?$QDict@VCAppItem@@@@UAEPAXI@Z 0040abb5 f i AppBar.obj
 0001:00009bd1       ??_G?$QPtrList@VsignalConnection@@@@UAEPAXI@Z 0040abd1 f i AppBar.obj
 0001:00009bd1       ??_E?$QPtrList@VsignalConnection@@@@UAEPAXI@Z 0040abd1 f i AppBar.obj
 0001:00009bed       ?deleteItem@?$QDict@VCAppItem@@@@EAEXPAX@Z 0040abed f i AppBar.obj
 0001:00009bed       ?deleteItem@?$QPtrList@VQWidgetFactory@@@@EAEXPAX@Z 0040abed f i AppBar.obj
 0001:00009c04       ?deleteItem@?$QPtrList@VsignalConnection@@@@EAEXPAX@Z 0040ac04 f i AppBar.obj
 0001:00009c25       ??_EQGrid@@WCI@AEPAXI@Z    0040ac25 f i AppBar.obj
 0001:00009c2d       ??_ECAppBar@@WCI@AEPAXI@Z  0040ac2d f i AppBar.obj
 0001:00009c35       ??0CAppItem@@QAE@VQString@@0000@Z 0040ac35 f   AppItem.obj
 0001:00009d1f       ??_ECAppItem@@UAEPAXI@Z    0040ad1f f i AppItem.obj
 0001:00009d1f       ??_GCAppItem@@UAEPAXI@Z    0040ad1f f i AppItem.obj
 0001:00009d3b       ??1CAppItem@@UAE@XZ        0040ad3b f   AppItem.obj
 0001:00009da3       ??0CAppSwitch@@QAE@PAVQWidget@@@Z 0040ada3 f   AppSwitch.obj
 0001:00009e96       ?metaObject@CAppSwitch@@UBEPAVQMetaObject@@XZ 0040ae96 f i AppSwitch.obj
 0001:00009e9b       ??_GCAppSwitch@@UAEPAXI@Z  0040ae9b f i AppSwitch.obj
 0001:00009e9b       ??_ECAppSwitch@@UAEPAXI@Z  0040ae9b f i AppSwitch.obj
 0001:00009eb7       ??1CAppSwitch@@UAE@XZ      0040aeb7 f   AppSwitch.obj
 0001:00009f52       ?dummy@CStartPop@@QAEXXZ   0040af52 f   AppSwitch.obj
 0001:00009f52       ?dummy@CAppSwitch@@QAEXXZ  0040af52 f   AppSwitch.obj
 0001:00009f52       __setargv                  0040af52 f   AppSwitch.obj
 0001:00009f52       ?dummy@CAppBar@@QAEXXZ     0040af52 f   AppSwitch.obj
 0001:00009f52       ?dummy@CPanelMan@@QAEXXZ   0040af52 f   AppSwitch.obj
 0001:00009f53       ?appExitNotify@CAppSwitch@@QAEXXZ 0040af53 f   AppSwitch.obj
 0001:0000a06e       ?execApp@CAppSwitch@@QAE_NVQString@@00_N@Z 0040b06e f   AppSwitch.obj
 0001:0000b382       ?terminateApps@CAppSwitch@@QAEXXZ 0040c382 f   AppSwitch.obj
 0001:0000b3e7       ?knobsOn@CAppSwitch@@QAEXXZ 0040c3e7 f   AppSwitch.obj
 0001:0000b4dd       ?knobsOff@CAppSwitch@@QAEXXZ 0040c4dd f   AppSwitch.obj
 0001:0000b53b       ??1?$QDict@VCExtProcess@@@@UAE@XZ 0040c53b f i AppSwitch.obj
 0001:0000b575       ??1?$QDictIterator@VQWidget@@@@QAE@XZ 0040c575 f i AppSwitch.obj
 0001:0000b575       ??1?$QDictIterator@VCExtProcess@@@@QAE@XZ 0040c575 f i AppSwitch.obj
 0001:0000b57b       ??_E?$QDict@VCExtProcess@@@@UAEPAXI@Z 0040c57b f i AppSwitch.obj
 0001:0000b57b       ??_G?$QDict@VCExtProcess@@@@UAEPAXI@Z 0040c57b f i AppSwitch.obj
 0001:0000b597       ??0CAppView@@QAE@PAVQWidget@@ABVQString@@@Z 0040c597 f   AppView.obj
 0001:0000b70f       ??_GCAppView@@UAEPAXI@Z    0040c70f f i AppView.obj
 0001:0000b70f       ??_ECAppView@@UAEPAXI@Z    0040c70f f i AppView.obj
 0001:0000b72b       ??1CAppView@@UAE@XZ        0040c72b f   AppView.obj
 0001:0000b7d7       ?showView@CAppView@@QAE_NVQString@@0_N@Z 0040c7d7 f   AppView.obj
 0001:0000c481       ?hideLast@CAppView@@QAEXXZ 0040d481 f   AppView.obj
 0001:0000c51d       ?clearPanels@CAppView@@QAEXXZ 0040d51d f   AppView.obj
 0001:0000c8af       ?deleteOldestPanel@CAppView@@AAEXXZ 0040d8af f   AppView.obj
 0001:0000c9d3       ?getObjectCounts@CAppView@@AAEXPAVQWidget@@QBDAAKAAH@Z 0040d9d3 f   AppView.obj
 0001:0000caa1       ??1?$QDict@VQWidget@@@@UAE@XZ 0040daa1 f i AppView.obj
 0001:0000cadb       ?currentKey@?$QDictIterator@VCExtProcess@@@@QBE?AVQString@@XZ 0040dadb f i AppView.obj
 0001:0000cadb       ?currentKey@?$QDictIterator@VQWidget@@@@QBE?AVQString@@XZ 0040dadb f i AppView.obj
 0001:0000caf3       ??_G?$QDict@VQWidget@@@@UAEPAXI@Z 0040daf3 f i AppView.obj
 0001:0000caf3       ??_E?$QDict@VQWidget@@@@UAEPAXI@Z 0040daf3 f i AppView.obj
 0001:0000cb0f       ??_ECAppView@@WCI@AEPAXI@Z 0040db0f f i AppView.obj
 0001:0000cb17       ??0bncs_mcComms@@QAE@W4mcCommsType@0@@Z 0040db17 f   bncs_mcComms.obj
 0001:0000cc13       ??_Gbncs_mcComms@@UAEPAXI@Z 0040dc13 f i bncs_mcComms.obj
 0001:0000cc13       ??_Ebncs_mcComms@@UAEPAXI@Z 0040dc13 f i bncs_mcComms.obj
 0001:0000cc2f       ??1bncs_mcComms@@UAE@XZ    0040dc2f f   bncs_mcComms.obj
 0001:0000cc44       ?textCallback@bncs_mcComms@@UAEXPBDH@Z 0040dc44 f   bncs_mcComms.obj
 0001:0000cc47       ??0bncs_multicast@@QAE@XZ  0040dc47 f   bncs_multicast.obj
 0001:0000cc9b       ?metaObject@bncs_multicast@@UBEPAVQMetaObject@@XZ 0040dc9b f i bncs_multicast.obj
 0001:0000cca0       ??_Gbncs_multicast@@UAEPAXI@Z 0040dca0 f i bncs_multicast.obj
 0001:0000cca0       ??_Ebncs_multicast@@UAEPAXI@Z 0040dca0 f i bncs_multicast.obj
 0001:0000ccbc       ?setMulticastParams@bncs_multicast@@QAEXABVQString@@H0@Z 0040dcbc f   bncs_multicast.obj
 0001:0000cd7a       ??_GQSocketDevice@@UAEPAXI@Z 0040dd7a f i bncs_multicast.obj
 0001:0000cd7a       ??_EQSocketDevice@@UAEPAXI@Z 0040dd7a f i bncs_multicast.obj
 0001:0000cd97       ?setCallback@bncs_multicast@@QAEXPAVbncs_textCallback@@@Z 0040dd97 f   bncs_multicast.obj
 0001:0000cda1       ?enableRx@bncs_multicast@@QAE_N_N@Z 0040dda1 f   bncs_multicast.obj
 0001:0000cfce       ??_EQSocketNotifier@@UAEPAXI@Z 0040dfce f i bncs_multicast.obj
 0001:0000cfce       ??_GQSocketNotifier@@UAEPAXI@Z 0040dfce f i bncs_multicast.obj
 0001:0000cfeb       ??1bncs_multicast@@UAE@XZ  0040dfeb f   bncs_multicast.obj
 0001:0000d050       ?rxdata@bncs_multicast@@QAEXH@Z 0040e050 f   bncs_multicast.obj
 0001:0000d0a3       ?rx@bncs_multicast@@UAEXPBDH@Z 0040e0a3 f   bncs_multicast.obj
 0001:0000d120       ??0CClient@@QAE@PAVQWidget@@@Z 0040e120 f   Client.obj
 0001:0000d197       ?cccConnected@IccClientCallback@@MAEXXZ 0040e197 f i Client.obj
 0001:0000d197       ?cccDisconnected@IccClientCallback@@MAEXXZ 0040e197 f i Client.obj
 0001:0000d198       ?cccDeviceMode@IccClientCallback@@MAEXHHW4redundancyState@cc@@@Z 0040e198 f i Client.obj
 0001:0000d198       ?cccGpiRevertive@IccClientCallback@@MAEXHH_N@Z 0040e198 f i Client.obj
 0001:0000d198       ?cccInfoRevertive@IccClientCallback@@MAEXHHABV?$basic_string@DU?$char_traits@D@std@@V?$allocator@D@2@@std@@@Z 0040e198 f i Client.obj
 0001:0000d198       ?cccRtrRevertive@IccClientCallback@@MAEXHHH@Z 0040e198 f i Client.obj
 0001:0000d198       ?cccDatabaseChange@IccClientCallback@@MAEXHHH@Z 0040e198 f i Client.obj
 0001:0000d19b       ?cccDeviceMessage@IccClientCallback@@MAEXHHABV?$basic_string@DU?$char_traits@D@std@@V?$allocator@D@2@@std@@H@Z 0040e19b f i Client.obj
 0001:0000d19e       ?cccPollError@IccClientCallback@@MAEXHH@Z 0040e19e f i Client.obj
 0001:0000d19e       ?cccSerialNumberError@IccClientCallback@@MAEXHH@Z 0040e19e f i Client.obj
 0001:0000d1a1       ?cccConfigChangeMessage@IccClientCallback@@MAEXABV?$basic_string@DU?$char_traits@D@std@@V?$allocator@D@2@@std@@@Z 0040e1a1 f i Client.obj
 0001:0000d1a4       ??_GCClient@@UAEPAXI@Z     0040e1a4 f i Client.obj
 0001:0000d1a4       ??_ECClient@@UAEPAXI@Z     0040e1a4 f i Client.obj
 0001:0000d1c0       ??1CClient@@UAE@XZ         0040e1c0 f   Client.obj
 0001:0000d237       ?cccInfoRevertive@CClient@@EAEXHHABV?$basic_string@DU?$char_traits@D@std@@V?$allocator@D@2@@std@@@Z 0040e237 f   Client.obj
 0001:0000d290       ?cccDisconnected@CClient@@EAEXXZ 0040e290 f   Client.obj
 0001:0000d2a2       ?sendMsg@CClient@@QAEXHPBDH@Z 0040e2a2 f   Client.obj
 0001:0000d34a       ?registerClient@CClient@@QAE_NXZ 0040e34a f   Client.obj
 0001:0000d3bf       ?CClearCache@CClient@@QAEXXZ 0040e3bf f   Client.obj
 0001:0000d3e4       ??_ECClient@@WCI@AEPAXI@Z  0040e3e4 f i Client.obj
 0001:0000d3ec       ??0CConfirm_Exit@@QAE@XZ   0040e3ec f   Confirm_Exit.obj
 0001:0000d4ef       ?metaObject@CConfirm_Exit@@UBEPAVQMetaObject@@XZ 0040e4ef f i Confirm_Exit.obj
 0001:0000d4f4       ??_ECConfirm_Exit@@UAEPAXI@Z 0040e4f4 f i Confirm_Exit.obj
 0001:0000d4f4       ??_GCConfirm_Exit@@UAEPAXI@Z 0040e4f4 f i Confirm_Exit.obj
 0001:0000d510       ??1CConfirm_Exit@@UAE@XZ   0040e510 f   Confirm_Exit.obj
 0001:0000d523       ?confirm@CConfirm_Exit@@IAEXAAVQString@@@Z 0040e523 f   Confirm_Exit.obj
 0001:0000d52e       ?cancel@CConfirm_Exit@@IAEXAAVQString@@@Z 0040e52e f   Confirm_Exit.obj
 0001:0000d539       ?exec@CConfirm_Exit@@QAEHXZ 0040e539 f   Confirm_Exit.obj
 0001:0000d549       ??_ECConfirm_Exit@@WCI@AEPAXI@Z 0040e549 f i Confirm_Exit.obj
 0001:0000d5a9       ??0structured_exception@@QAE@ABU_EXCEPTION_POINTERS@@@Z 0040e5a9 f   except.obj
 0001:0000d5d2       ?install@structured_exception@@SAXXZ 0040e5d2 f   except.obj
 0001:0000d60a       ?what@structured_exception@@QBEIXZ 0040e60a f   except.obj
 0001:0000d60e       ?where@structured_exception@@QBEPBXXZ 0040e60e f   except.obj
 0001:0000d611       ?more@structured_exception@@QBEKXZ 0040e611 f   except.obj
 0001:0000d615       ??0CExtProcess@@QAE@PAVQObject@@PBD@Z 0040e615 f   ExtProcess.obj
 0001:0000d65a       ??_ECExtProcess@@UAEPAXI@Z 0040e65a f i ExtProcess.obj
 0001:0000d65a       ??_GCExtProcess@@UAEPAXI@Z 0040e65a f i ExtProcess.obj
 0001:0000d676       ??1CExtProcess@@UAE@XZ     0040e676 f   ExtProcess.obj
 0001:0000d6c0       ?toBack@CExtProcess@@QAEXXZ 0040e6c0 f   ExtProcess.obj
 0001:0000d6ea       ?toFront@CExtProcess@@QAEXXZ 0040e6ea f   ExtProcess.obj
 0001:0000d701       ?timerEvent@CExtProcess@@UAEXPAVQTimerEvent@@@Z 0040e701 f   ExtProcess.obj
 0001:0000d835       ?at@?$QValueListPrivate@VQString@@@@QBEPAV?$QValueListNode@VQString@@@@I@Z 0040e835 f i ExtProcess.obj
 0001:0000d874       ??0CLookUp@@QAE@XZ         0040e874 f   LookUp.obj
 0001:0000d87d       ??_GCLookUp@@UAEPAXI@Z     0040e87d f i LookUp.obj
 0001:0000d87d       ??_ECLookUp@@UAEPAXI@Z     0040e87d f i LookUp.obj
 0001:0000d899       ??1CLookUp@@UAE@XZ         0040e899 f   LookUp.obj
 0001:0000d8a0       ?getInstancesOfType@CLookUp@@QAE?AVQStringList@@VQString@@@Z 0040e8a0 f   LookUp.obj
 0001:0000dada       _main                      0040eada f   main.obj
 0001:0000e19f       _md5_init                  0040f19f f   md5.obj
 0001:0000e1c7       _md5_append                0040f1c7 f   md5.obj
 0001:0000ebfc       _md5_finish                0040fbfc f   md5.obj
 0001:0000ecad       ??0CPanelMan@@QAE@ABVQString@@00@Z 0040fcad f   PanelMan.obj
 0001:0000f28f       ?metaObject@CPanelMan@@UBEPAVQMetaObject@@XZ 0041028f f i PanelMan.obj
 0001:0000f294       ??_ECPanelMan@@UAEPAXI@Z   00410294 f i PanelMan.obj
 0001:0000f294       ??_GCPanelMan@@UAEPAXI@Z   00410294 f i PanelMan.obj
 0001:0000f2b0       ??_GQVBoxLayout@@UAEPAXI@Z 004102b0 f i PanelMan.obj
 0001:0000f2b0       ??_EQVBoxLayout@@UAEPAXI@Z 004102b0 f i PanelMan.obj
 0001:0000f2cd       ??_GQListBox@@UAEPAXI@Z    004102cd f i PanelMan.obj
 0001:0000f2cd       ??_EQListBox@@UAEPAXI@Z    004102cd f i PanelMan.obj
 0001:0000f2ea       ??1CPanelMan@@UAE@XZ       004102ea f   PanelMan.obj
 0001:0000f471       ?pmQuit@CPanelMan@@QAEXXZ  00410471 f   PanelMan.obj
 0001:0000f479       ?debug@CPanelMan@@QAEXVQString@@@Z 00410479 f   PanelMan.obj
 0001:0000f4b4       ?getSettings@CPanelMan@@AAEXXZ 004104b4 f   PanelMan.obj
 0001:0000fa04       ?getAttribute@CPanelMan@@QAE?AVQString@@V2@00@Z 00410a04 f   PanelMan.obj
 0001:0000fdc8       ?shutDown@CPanelMan@@QAEXXZ 00410dc8 f   PanelMan.obj
 0001:0000fe34       ?defaultTitle@CPanelMan@@SA?AVQString@@XZ 00410e34 f   PanelMan.obj
 0001:0000fe4f       ??_EQVBoxLayout@@WCI@AEPAXI@Z 00410e4f f i PanelMan.obj
 0001:0000fe57       ??_ECPanelMan@@WCI@AEPAXI@Z 00410e57 f i PanelMan.obj
 0001:0000fe5f       ??_EQListBox@@WCI@AEPAXI@Z 00410e5f f i PanelMan.obj
 0001:0000fe67       ??0CSimpleBar@@QAE@PAVQWidget@@@Z 00410e67 f   SimpleBar.obj
 0001:0000fe91       ?metaObject@CSimpleBar@@UBEPAVQMetaObject@@XZ 00410e91 f i SimpleBar.obj
 0001:0000fe96       ??_GCSimpleBar@@UAEPAXI@Z  00410e96 f i SimpleBar.obj
 0001:0000fe96       ??_ECSimpleBar@@UAEPAXI@Z  00410e96 f i SimpleBar.obj
 0001:0000feb2       ??1CSimpleBar@@UAE@XZ      00410eb2 f   SimpleBar.obj
 0001:0000fec5       ?init@CSimpleBar@@QAE_NVQString@@ABV2@_N@Z 00410ec5 f   SimpleBar.obj
 0001:0001011b       ?widgetList@dCW@@QAE?AVQWidgetList@@XZ 0041111b f i SimpleBar.obj
 0001:00010148       ?notify@CSimpleBar@@UAEXAAVQString@@@Z 00411148 f   SimpleBar.obj
 0001:000101bf       ?setProperty@CSimpleBar@@IAEXVQString@@00@Z 004111bf f   SimpleBar.obj
 0001:00010279       ?setProperty@CSimpleBar@@IAEXHVQString@@0@Z 00411279 f   SimpleBar.obj
 0001:00010369       ?getProperty@CSimpleBar@@IAE?AVQString@@V2@0@Z 00411369 f   SimpleBar.obj
 0001:000104c8       ??_ECSimpleBar@@WCI@AEPAXI@Z 004114c8 f i SimpleBar.obj
 0001:000104d0       ??0CStartPop@@QAE@PAVQWidget@@@Z 004114d0 f   StartPop.obj
 0001:00010527       ?metaObject@CStartPop@@UBEPAVQMetaObject@@XZ 00411527 f i StartPop.obj
 0001:0001052c       ??_ECStartPop@@UAEPAXI@Z   0041152c f i StartPop.obj
 0001:0001052c       ??_GCStartPop@@UAEPAXI@Z   0041152c f i StartPop.obj
 0001:00010548       ??1CStartPop@@UAE@XZ       00411548 f   StartPop.obj
 0001:0001058c       ?notify@CStartPop@@QAEXAAVQString@@@Z 0041158c f   StartPop.obj
 0001:00010d5e       ?timerEvent@CStartPop@@EAEXPAVQTimerEvent@@@Z 00411d5e f   StartPop.obj
 0001:00010dc2       ?showStart@CStartPop@@QAEXPAVQPoint@@@Z 00411dc2 f   StartPop.obj
 0001:000115df       ?getAddress@CStartPop@@AAE?AVQString@@XZ 004125df f   StartPop.obj
 0001:00011727       ?showPopupPin@CStartPop@@AAEXABVQPoint@@@Z 00412727 f   StartPop.obj
 0001:00011980       ?showCleanScreen@CStartPop@@AAEXXZ 00412980 f   StartPop.obj
 0001:00011c47       ??_GQPopupMenu@@UAEPAXI@Z  00412c47 f i StartPop.obj
 0001:00011c47       ??_EQPopupMenu@@UAEPAXI@Z  00412c47 f i StartPop.obj
 0001:00011c64       ??_EQLabel@@UAEPAXI@Z      00412c64 f i StartPop.obj
 0001:00011c64       ??_GQLabel@@UAEPAXI@Z      00412c64 f i StartPop.obj
 0001:00011c81       ??_GQTimer@@UAEPAXI@Z      00412c81 f i StartPop.obj
 0001:00011c81       ??_EQTimer@@UAEPAXI@Z      00412c81 f i StartPop.obj
 0001:00011c9e       ?slotCleanCount@CStartPop@@QAEXXZ 00412c9e f   StartPop.obj
 0001:00011da8       ?startCalibrate@CStartPop@@AAEXXZ 00412da8 f   StartPop.obj
 0001:000121fb       ??_EQLabel@@WCI@AEPAXI@Z   004131fb f i StartPop.obj
 0001:00012203       ??_ECStartPop@@WCI@AEPAXI@Z 00413203 f i StartPop.obj
 0001:0001220b       ??_EQPopupMenu@@WCI@AEPAXI@Z 0041320b f i StartPop.obj
 0001:00012213       ??_EQPopupMenu@@WIM@AEPAXI@Z 00413213 f i StartPop.obj
 0001:0001221e       ??0CStatusBar@@QAE@PAVQWidget@@@Z 0041321e f   StatusBar.obj
 0001:0001223d       ?metaObject@CStatusBar@@UBEPAVQMetaObject@@XZ 0041323d f i StatusBar.obj
 0001:00012242       ??_GCStatusBar@@UAEPAXI@Z  00413242 f i StatusBar.obj
 0001:00012242       ??_ECStatusBar@@UAEPAXI@Z  00413242 f i StatusBar.obj
 0001:0001225e       ??1CStatusBar@@UAE@XZ      0041325e f   StatusBar.obj
 0001:00012270       ?notify@CStatusBar@@UAEXAAVQString@@@Z 00413270 f   StatusBar.obj
 0001:000122e7       ??_ECStatusBar@@WCI@AEPAXI@Z 004132e7 f i StatusBar.obj
 0001:000122ef       ??0CTitleBar@@QAE@PAVQWidget@@@Z 004132ef f   TitleBar.obj
 0001:000123a0       ?metaObject@CTitleBar@@UBEPAVQMetaObject@@XZ 004133a0 f i TitleBar.obj
 0001:000123a5       ??_GCTitleBar@@UAEPAXI@Z   004133a5 f i TitleBar.obj
 0001:000123a5       ??_ECTitleBar@@UAEPAXI@Z   004133a5 f i TitleBar.obj
 0001:000123c1       ??1CTitleBar@@UAE@XZ       004133c1 f   TitleBar.obj
 0001:00012474       ?startClock@CTitleBar@@QAEXXZ 00413474 f   TitleBar.obj
 0001:00012628       ?notify@CTitleBar@@UAEXAAVQString@@@Z 00413628 f   TitleBar.obj
 0001:000126de       ?updateClock@CTitleBar@@QAEXXZ 004136de f   TitleBar.obj
 0001:0001294d       ?setTitle@CTitleBar@@QAEXABVQString@@@Z 0041394d f   TitleBar.obj
 0001:000129af       ?setTitle@CTitleBar@@QAEXABVQString@@0@Z 004139af f   TitleBar.obj
 0001:00012a0e       ??_ECTitleBar@@WCI@AEPAXI@Z 00413a0e f i TitleBar.obj
 0001:00012a16       ??0wait@@QAE@PAVQWidget@@PBDI@Z 00413a16 f   waitimpl.obj
 0001:00012b8e       ?metaObject@wait@@UBEPAVQMetaObject@@XZ 00413b8e f i waitimpl.obj
 0001:00012b93       ??_Gwait@@UAEPAXI@Z        00413b93 f i waitimpl.obj
 0001:00012b93       ??_Ewait@@UAEPAXI@Z        00413b93 f i waitimpl.obj
 0001:00012baf       ??1wait@@UAE@XZ            00413baf f   waitimpl.obj
 0001:00012bc2       ?paintEvent@wait@@UAEXPAVQPaintEvent@@@Z 00413bc2 f   waitimpl.obj
 0001:00012c72       ?resizeEvent@wait@@UAEXPAVQResizeEvent@@@Z 00413c72 f   waitimpl.obj
 0001:00012d53       ??_Ewait@@WCI@AEPAXI@Z     00413d53 f i waitimpl.obj
 0001:00012d5b       ?className@CAppBar@@UBEPBDXZ 00413d5b f   moc_AppBar.obj
 0001:00012d98       ?staticMetaObject@CAppBar@@SAPAVQMetaObject@@XZ 00413d98 f   moc_AppBar.obj
 0001:00012e3c       ?qt_cast@CAppBar@@UAEPAXPBD@Z 00413e3c f   moc_AppBar.obj
 0001:00012e77       ?qt_invoke@CAppBar@@UAE_NHPAUQUObject@@@Z 00413e77 f   moc_AppBar.obj
 0001:00012ef3       ?className@CAppSwitch@@UBEPBDXZ 00413ef3 f   moc_AppSwitch.obj
 0001:00012f30       ?staticMetaObject@CAppSwitch@@SAPAVQMetaObject@@XZ 00413f30 f   moc_AppSwitch.obj
 0001:00012f7c       ?qt_cast@CAppSwitch@@UAEPAXPBD@Z 00413f7c f   moc_AppSwitch.obj
 0001:00012fb8       ?qt_invoke@CAppSwitch@@UAE_NHPAUQUObject@@@Z 00413fb8 f   moc_AppSwitch.obj
 0001:00012ff7       ?qt_property@bncs_multicast@@UAE_NHHPAVQVariant@@@Z 00413ff7 f   moc_AppSwitch.obj
 0001:00012ff7       ?qt_property@CAppSwitch@@UAE_NHHPAVQVariant@@@Z 00413ff7 f   moc_AppSwitch.obj
 0001:0001300c       ?className@bncs_multicast@@UBEPBDXZ 0041400c f   moc_bncs_multicast.obj
 0001:00013049       ?staticMetaObject@bncs_multicast@@SAPAVQMetaObject@@XZ 00414049 f   moc_bncs_multicast.obj
 0001:000130bd       ?qt_cast@bncs_multicast@@UAEPAXPBD@Z 004140bd f   moc_bncs_multicast.obj
 0001:000130f9       ?qt_invoke@bncs_multicast@@UAE_NHPAUQUObject@@@Z 004140f9 f   moc_bncs_multicast.obj
 0001:00013130       ?qt_emit@bncs_multicast@@UAE_NHPAUQUObject@@@Z 00414130 f   moc_bncs_multicast.obj
 0001:00013130       ?qt_emit@CAppSwitch@@UAE_NHPAUQUObject@@@Z 00414130 f   moc_bncs_multicast.obj
 0001:00013141       ?className@CConfirm_Exit@@UBEPBDXZ 00414141 f   moc_Confirm_Exit.obj
 0001:0001317e       ?staticMetaObject@CConfirm_Exit@@SAPAVQMetaObject@@XZ 0041417e f   moc_Confirm_Exit.obj
 0001:0001321f       ?qt_cast@CConfirm_Exit@@UAEPAXPBD@Z 0041421f f   moc_Confirm_Exit.obj
 0001:0001325b       ?qt_invoke@CConfirm_Exit@@UAE_NHPAUQUObject@@@Z 0041425b f   moc_Confirm_Exit.obj
 0001:000132a7       ?qt_emit@CConfirm_Exit@@UAE_NHPAUQUObject@@@Z 004142a7 f   moc_Confirm_Exit.obj
 0001:000132b8       ?qt_property@CConfirm_Exit@@UAE_NHHPAVQVariant@@@Z 004142b8 f   moc_Confirm_Exit.obj
 0001:000132cd       ?className@CPanelMan@@UBEPBDXZ 004142cd f   moc_PanelMan.obj
 0001:0001330a       ?staticMetaObject@CPanelMan@@SAPAVQMetaObject@@XZ 0041430a f   moc_PanelMan.obj
 0001:00013356       ?qt_cast@CPanelMan@@UAEPAXPBD@Z 00414356 f   moc_PanelMan.obj
 0001:00013392       ?qt_invoke@CPanelMan@@UAE_NHPAUQUObject@@@Z 00414392 f   moc_PanelMan.obj
 0001:000133d1       ?className@CSimpleBar@@UBEPBDXZ 004143d1 f   moc_SimpleBar.obj
 0001:0001340e       ?staticMetaObject@CSimpleBar@@SAPAVQMetaObject@@XZ 0041440e f   moc_SimpleBar.obj
 0001:00013486       ?qt_cast@CSimpleBar@@UAEPAXPBD@Z 00414486 f   moc_SimpleBar.obj
 0001:000134c2       ?qt_invoke@CSimpleBar@@UAE_NHPAUQUObject@@@Z 004144c2 f   moc_SimpleBar.obj
 0001:000134fc       ?className@CStartPop@@UBEPBDXZ 004144fc f   moc_StartPop.obj
 0001:00013539       ?staticMetaObject@CStartPop@@SAPAVQMetaObject@@XZ 00414539 f   moc_StartPop.obj
 0001:000135af       ?qt_cast@CStartPop@@UAEPAXPBD@Z 004145af f   moc_StartPop.obj
 0001:000135eb       ?qt_invoke@CStartPop@@UAE_NHPAUQUObject@@@Z 004145eb f   moc_StartPop.obj
 0001:0001363d       ?qt_emit@CStartPop@@UAE_NHPAUQUObject@@@Z 0041463d f   moc_StartPop.obj
 0001:0001363d       ?qt_emit@wait@@UAE_NHPAUQUObject@@@Z 0041463d f   moc_StartPop.obj
 0001:0001363d       ?qt_emit@CPanelMan@@UAE_NHPAUQUObject@@@Z 0041463d f   moc_StartPop.obj
 0001:0001363d       ?qt_emit@CSimpleBar@@UAE_NHPAUQUObject@@@Z 0041463d f   moc_StartPop.obj
 0001:0001364e       ?qt_property@CStartPop@@UAE_NHHPAVQVariant@@@Z 0041464e f   moc_StartPop.obj
 0001:0001364e       ?qt_property@wait@@UAE_NHHPAVQVariant@@@Z 0041464e f   moc_StartPop.obj
 0001:0001364e       ?qt_property@CPanelMan@@UAE_NHHPAVQVariant@@@Z 0041464e f   moc_StartPop.obj
 0001:0001364e       ?qt_property@CSimpleBar@@UAE_NHHPAVQVariant@@@Z 0041464e f   moc_StartPop.obj
 0001:00013663       ?className@CStatusBar@@UBEPBDXZ 00414663 f   moc_StatusBar.obj
 0001:000136a0       ?staticMetaObject@CStatusBar@@SAPAVQMetaObject@@XZ 004146a0 f   moc_StatusBar.obj
 0001:00013717       ?qt_cast@CStatusBar@@UAEPAXPBD@Z 00414717 f   moc_StatusBar.obj
 0001:00013752       ?qt_invoke@CStatusBar@@UAE_NHPAUQUObject@@@Z 00414752 f   moc_StatusBar.obj
 0001:0001378b       ?qt_emit@CAppBar@@UAE_NHPAUQUObject@@@Z 0041478b f   moc_StatusBar.obj
 0001:0001378b       ?qt_emit@CTitleBar@@UAE_NHPAUQUObject@@@Z 0041478b f   moc_StatusBar.obj
 0001:0001378b       ?qt_emit@CStatusBar@@UAE_NHPAUQUObject@@@Z 0041478b f   moc_StatusBar.obj
 0001:0001379b       ?qt_property@CStatusBar@@UAE_NHHPAVQVariant@@@Z 0041479b f   moc_StatusBar.obj
 0001:0001379b       ?qt_property@CTitleBar@@UAE_NHHPAVQVariant@@@Z 0041479b f   moc_StatusBar.obj
 0001:0001379b       ?qt_property@CAppBar@@UAE_NHHPAVQVariant@@@Z 0041479b f   moc_StatusBar.obj
 0001:000137af       ?className@CTitleBar@@UBEPBDXZ 004147af f   moc_TitleBar.obj
 0001:000137ec       ?staticMetaObject@CTitleBar@@SAPAVQMetaObject@@XZ 004147ec f   moc_TitleBar.obj
 0001:00013863       ?qt_cast@CTitleBar@@UAEPAXPBD@Z 00414863 f   moc_TitleBar.obj
 0001:0001389e       ?qt_invoke@CTitleBar@@UAE_NHPAUQUObject@@@Z 0041489e f   moc_TitleBar.obj
 0001:000138e6       ?className@wait@@UBEPBDXZ  004148e6 f   moc_waitimpl.obj
 0001:00013923       ?staticMetaObject@wait@@SAPAVQMetaObject@@XZ 00414923 f   moc_waitimpl.obj
 0001:0001396a       ?qt_cast@wait@@UAEPAXPBD@Z 0041496a f   moc_waitimpl.obj
 0001:000139a6       ?qt_invoke@wait@@UAE_NHPAUQUObject@@@Z 004149a6 f   moc_waitimpl.obj
 0001:000139b8       _WSAGetLastError@0         004149b8 f   wsock32:WSOCK32.dll
 0001:000139be       _htonl@4                   004149be f   wsock32:WSOCK32.dll
 0001:000139c4       _inet_addr@4               004149c4 f   wsock32:WSOCK32.dll
 0001:000139ca       _setsockopt@20             004149ca f   wsock32:WSOCK32.dll
 0001:000139d0       _gethostbyname@4           004149d0 f   wsock32:WSOCK32.dll
 0001:000139d6       _gethostname@8             004149d6 f   wsock32:WSOCK32.dll
 0001:000139dc       ?compareItems@QGList@@MAEHPAX0@Z 004149dc f   qt-mt323:qt-mt323.dll
 0001:000139e2       ?write@QGList@@MBEAAVQDataStream@@AAV2@PAX@Z 004149e2 f   qt-mt323:qt-mt323.dll
 0001:000139e8       ?read@QGList@@MAEAAVQDataStream@@AAV2@AAPAX@Z 004149e8 f   qt-mt323:qt-mt323.dll
 0001:000139ee       ?newItem@QPtrCollection@@MAEPAXPAX@Z 004149ee f   qt-mt323:qt-mt323.dll
 0001:000139f4       ?fontInf@QPaintDevice@@MBEHPAVQFont@@H@Z 004149f4 f   qt-mt323:qt-mt323.dll
 0001:000139fa       ?fontMet@QPaintDevice@@MBEHPAVQFont@@HPBDH@Z 004149fa f   qt-mt323:qt-mt323.dll
 0001:00013a00       ?metric@QWidget@@MBEHH@Z   00414a00 f   qt-mt323:qt-mt323.dll
 0001:00013a06       ?cmd@QPaintDevice@@MAE_NHPAVQPainter@@PATQPDevCmdParam@@@Z 00414a06 f   qt-mt323:qt-mt323.dll
 0001:00013a0c       ?handle@QPaintDevice@@UBEPAUHDC__@@XZ 00414a0c f   qt-mt323:qt-mt323.dll
 0001:00013a12       ?resolution@QPaintDevice@@UBEHXZ 00414a12 f   qt-mt323:qt-mt323.dll
 0001:00013a18       ?setResolution@QPaintDevice@@UAEXH@Z 00414a18 f   qt-mt323:qt-mt323.dll
 0001:00013a1e       ?setMicroFocusHint@QWidget@@MAEXHHHH_NPAVQFont@@@Z 00414a1e f   qt-mt323:qt-mt323.dll
 0001:00013a24       ?setKeyCompression@QWidget@@MAEX_N@Z 00414a24 f   qt-mt323:qt-mt323.dll
 0001:00013a2a       ?focusNextPrevChild@QWidget@@MAE_N_N@Z 00414a2a f   qt-mt323:qt-mt323.dll
 0001:00013a30       ?setWFlags@QWidget@@MAEXI@Z 00414a30 f   qt-mt323:qt-mt323.dll
 0001:00013a36       ?setWState@QWidget@@MAEXI@Z 00414a36 f   qt-mt323:qt-mt323.dll
 0001:00013a3c       ?destroy@QWidget@@MAEX_N0@Z 00414a3c f   qt-mt323:qt-mt323.dll
 0001:00013a42       ?create@QWidget@@MAEXPAUHWND__@@_N1@Z 00414a42 f   qt-mt323:qt-mt323.dll
 0001:00013a48       ?windowActivationChange@QWidget@@MAEX_N@Z 00414a48 f   qt-mt323:qt-mt323.dll
 0001:00013a4e       ?fontChange@QWidget@@MAEXABVQFont@@@Z 00414a4e f   qt-mt323:qt-mt323.dll
 0001:00013a54       ?paletteChange@QWidget@@MAEXABVQPalette@@@Z 00414a54 f   qt-mt323:qt-mt323.dll
 0001:00013a5a       ?enabledChange@QWidget@@MAEX_N@Z 00414a5a f   qt-mt323:qt-mt323.dll
 0001:00013a60       ?styleChange@QWidget@@MAEXAAVQStyle@@@Z 00414a60 f   qt-mt323:qt-mt323.dll
 0001:00013a66       ?updateMask@QWidget@@MAEXXZ 00414a66 f   qt-mt323:qt-mt323.dll
 0001:00013a6c       ?winEvent@QWidget@@MAE_NPAUtagMSG@@@Z 00414a6c f   qt-mt323:qt-mt323.dll
 0001:00013a72       ?hideEvent@QWidget@@MAEXPAVQHideEvent@@@Z 00414a72 f   qt-mt323:qt-mt323.dll
 0001:00013a78       ?showEvent@QWidget@@MAEXPAVQShowEvent@@@Z 00414a78 f   qt-mt323:qt-mt323.dll
 0001:00013a7e       ?dropEvent@QWidget@@MAEXPAVQDropEvent@@@Z 00414a7e f   qt-mt323:qt-mt323.dll
 0001:00013a84       ?dragLeaveEvent@QWidget@@MAEXPAVQDragLeaveEvent@@@Z 00414a84 f   qt-mt323:qt-mt323.dll
 0001:00013a8a       ?dragMoveEvent@QWidget@@MAEXPAVQDragMoveEvent@@@Z 00414a8a f   qt-mt323:qt-mt323.dll
 0001:00013a90       ?dragEnterEvent@QWidget@@MAEXPAVQDragEnterEvent@@@Z 00414a90 f   qt-mt323:qt-mt323.dll
 0001:00013a96       ?tabletEvent@QWidget@@MAEXPAVQTabletEvent@@@Z 00414a96 f   qt-mt323:qt-mt323.dll
 0001:00013a9c       ?imEndEvent@QWidget@@MAEXPAVQIMEvent@@@Z 00414a9c f   qt-mt323:qt-mt323.dll
 0001:00013aa2       ?imComposeEvent@QWidget@@MAEXPAVQIMEvent@@@Z 00414aa2 f   qt-mt323:qt-mt323.dll
 0001:00013aa8       ?imStartEvent@QWidget@@MAEXPAVQIMEvent@@@Z 00414aa8 f   qt-mt323:qt-mt323.dll
 0001:00013aae       ?contextMenuEvent@QWidget@@MAEXPAVQContextMenuEvent@@@Z 00414aae f   qt-mt323:qt-mt323.dll
 0001:00013ab4       ?closeEvent@QWidget@@MAEXPAVQCloseEvent@@@Z 00414ab4 f   qt-mt323:qt-mt323.dll
 0001:00013aba       ?resizeEvent@QWidget@@MAEXPAVQResizeEvent@@@Z 00414aba f   qt-mt323:qt-mt323.dll
 0001:00013ac0       ?moveEvent@QWidget@@MAEXPAVQMoveEvent@@@Z 00414ac0 f   qt-mt323:qt-mt323.dll
 0001:00013ac6       ?paintEvent@QWidget@@MAEXPAVQPaintEvent@@@Z 00414ac6 f   qt-mt323:qt-mt323.dll
 0001:00013acc       ?leaveEvent@QWidget@@MAEXPAVQEvent@@@Z 00414acc f   qt-mt323:qt-mt323.dll
 0001:00013ad2       ?enterEvent@QWidget@@MAEXPAVQEvent@@@Z 00414ad2 f   qt-mt323:qt-mt323.dll
 0001:00013ad8       ?focusOutEvent@QWidget@@MAEXPAVQFocusEvent@@@Z 00414ad8 f   qt-mt323:qt-mt323.dll
 0001:00013ade       ?focusInEvent@QWidget@@MAEXPAVQFocusEvent@@@Z 00414ade f   qt-mt323:qt-mt323.dll
 0001:00013ae4       ?keyReleaseEvent@QWidget@@MAEXPAVQKeyEvent@@@Z 00414ae4 f   qt-mt323:qt-mt323.dll
 0001:00013aea       ?keyPressEvent@QWidget@@MAEXPAVQKeyEvent@@@Z 00414aea f   qt-mt323:qt-mt323.dll
 0001:00013af0       ?wheelEvent@QWidget@@MAEXPAVQWheelEvent@@@Z 00414af0 f   qt-mt323:qt-mt323.dll
 0001:00013af6       ?mouseMoveEvent@QWidget@@MAEXPAVQMouseEvent@@@Z 00414af6 f   qt-mt323:qt-mt323.dll
 0001:00013afc       ?mouseDoubleClickEvent@QWidget@@MAEXPAVQMouseEvent@@@Z 00414afc f   qt-mt323:qt-mt323.dll
 0001:00013b02       ?mouseReleaseEvent@QWidget@@MAEXPAVQMouseEvent@@@Z 00414b02 f   qt-mt323:qt-mt323.dll
 0001:00013b08       ?mousePressEvent@QWidget@@MAEXPAVQMouseEvent@@@Z 00414b08 f   qt-mt323:qt-mt323.dll
 0001:00013b0e       ?customWhatsThis@QWidget@@UBE_NXZ 00414b0e f   qt-mt323:qt-mt323.dll
 0001:00013b14       ?setBackgroundOrigin@QWidget@@UAEXW4BackgroundOrigin@1@@Z 00414b14 f   qt-mt323:qt-mt323.dll
 0001:00013b1a       ?setAutoMask@QWidget@@UAEX_N@Z 00414b1a f   qt-mt323:qt-mt323.dll
 0001:00013b20       ?setAcceptDrops@QWidget@@UAEX_N@Z 00414b20 f   qt-mt323:qt-mt323.dll
 0001:00013b26       ?reparent@QWidget@@UAEXPAV1@IABVQPoint@@_N@Z 00414b26 f   qt-mt323:qt-mt323.dll
 0001:00013b2c       ?adjustSize@QWidget@@UAEXXZ 00414b2c f   qt-mt323:qt-mt323.dll
 0001:00013b32       ?heightForWidth@QWidget@@UBEHH@Z 00414b32 f   qt-mt323:qt-mt323.dll
 0001:00013b38       ?setSizePolicy@QWidget@@UAEXVQSizePolicy@@@Z 00414b38 f   qt-mt323:qt-mt323.dll
 0001:00013b3e       ?sizePolicy@QWidget@@UBE?AVQSizePolicy@@XZ 00414b3e f   qt-mt323:qt-mt323.dll
 0001:00013b44       ?minimumSizeHint@QWidget@@UBE?AVQSize@@XZ 00414b44 f   qt-mt323:qt-mt323.dll
 0001:00013b4a       ?sizeHint@QWidget@@UBE?AVQSize@@XZ 00414b4a f   qt-mt323:qt-mt323.dll
 0001:00013b50       ?setGeometry@QWidget@@UAEXHHHH@Z 00414b50 f   qt-mt323:qt-mt323.dll
 0001:00013b56       ?setGeometry@QWidget@@UAEXABVQRect@@@Z 00414b56 f   qt-mt323:qt-mt323.dll
 0001:00013b5c       ?resize@QWidget@@UAEXHH@Z  00414b5c f   qt-mt323:qt-mt323.dll
 0001:00013b62       ?move@QWidget@@UAEXHH@Z    00414b62 f   qt-mt323:qt-mt323.dll
 0001:00013b68       ?close@QWidget@@UAE_N_N@Z  00414b68 f   qt-mt323:qt-mt323.dll
 0001:00013b6e       ?polish@QWidget@@UAEXXZ    00414b6e f   qt-mt323:qt-mt323.dll
 0001:00013b74       ?showNormal@QWidget@@UAEXXZ 00414b74 f   qt-mt323:qt-mt323.dll
 0001:00013b7a       ?showMaximized@QWidget@@UAEXXZ 00414b7a f   qt-mt323:qt-mt323.dll
 0001:00013b80       ?showMinimized@QWidget@@UAEXXZ 00414b80 f   qt-mt323:qt-mt323.dll
 0001:00013b86       ?hide@QWidget@@UAEXXZ      00414b86 f   qt-mt323:qt-mt323.dll
 0001:00013b8c       ?show@QWidget@@UAEXXZ      00414b8c f   qt-mt323:qt-mt323.dll
 0001:00013b92       ?setUpdatesEnabled@QWidget@@UAEX_N@Z 00414b92 f   qt-mt323:qt-mt323.dll
 0001:00013b98       ?setFocusProxy@QWidget@@UAEXPAV1@@Z 00414b98 f   qt-mt323:qt-mt323.dll
 0001:00013b9e       ?setFocusPolicy@QWidget@@UAEXW4FocusPolicy@1@@Z 00414b9e f   qt-mt323:qt-mt323.dll
 0001:00013ba4       ?setActiveWindow@QWidget@@UAEXXZ 00414ba4 f   qt-mt323:qt-mt323.dll
 0001:00013baa       ?setFocus@QWidget@@UAEXXZ  00414baa f   qt-mt323:qt-mt323.dll
 0001:00013bb0       ?setMouseTracking@QWidget@@UAEX_N@Z 00414bb0 f   qt-mt323:qt-mt323.dll
 0001:00013bb6       ?setIconText@QWidget@@UAEXABVQString@@@Z 00414bb6 f   qt-mt323:qt-mt323.dll
 0001:00013bbc       ?setIcon@QWidget@@UAEXABVQPixmap@@@Z 00414bbc f   qt-mt323:qt-mt323.dll
 0001:00013bc2       ?setCaption@QWidget@@UAEXABVQString@@@Z 00414bc2 f   qt-mt323:qt-mt323.dll
 0001:00013bc8       ?setBackgroundPixmap@QWidget@@UAEXABVQPixmap@@@Z 00414bc8 f   qt-mt323:qt-mt323.dll
 0001:00013bce       ?setBackgroundColor@QWidget@@UAEXABVQColor@@@Z 00414bce f   qt-mt323:qt-mt323.dll
 0001:00013bd4       ?setMask@QWidget@@UAEXABVQBitmap@@@Z 00414bd4 f   qt-mt323:qt-mt323.dll
 0001:00013bda       ?setMask@QWidget@@UAEXABVQRegion@@@Z 00414bda f   qt-mt323:qt-mt323.dll
 0001:00013be0       ?unsetCursor@QWidget@@UAEXXZ 00414be0 f   qt-mt323:qt-mt323.dll
 0001:00013be6       ?setCursor@QWidget@@UAEXABVQCursor@@@Z 00414be6 f   qt-mt323:qt-mt323.dll
 0001:00013bec       ?setFont@QWidget@@UAEXABVQFont@@@Z 00414bec f   qt-mt323:qt-mt323.dll
 0001:00013bf2       ?setPaletteBackgroundPixmap@QWidget@@UAEXABVQPixmap@@@Z 00414bf2 f   qt-mt323:qt-mt323.dll
 0001:00013bf8       ?setPaletteBackgroundColor@QWidget@@UAEXABVQColor@@@Z 00414bf8 f   qt-mt323:qt-mt323.dll
 0001:00013bfe       ?setPalette@QWidget@@UAEXABVQPalette@@@Z 00414bfe f   qt-mt323:qt-mt323.dll
 0001:00013c04       ?setErasePixmap@QWidget@@UAEXABVQPixmap@@@Z 00414c04 f   qt-mt323:qt-mt323.dll
 0001:00013c0a       ?setEraseColor@QWidget@@UAEXABVQColor@@@Z 00414c0a f   qt-mt323:qt-mt323.dll
 0001:00013c10       ?setBackgroundMode@QWidget@@UAEXW4BackgroundMode@Qt@@@Z 00414c10 f   qt-mt323:qt-mt323.dll
 0001:00013c16       ?setSizeIncrement@QWidget@@UAEXHH@Z 00414c16 f   qt-mt323:qt-mt323.dll
 0001:00013c1c       ?setMaximumSize@QWidget@@UAEXHH@Z 00414c1c f   qt-mt323:qt-mt323.dll
 0001:00013c22       ?setMinimumSize@QWidget@@UAEXHH@Z 00414c22 f   qt-mt323:qt-mt323.dll
 0001:00013c28       ?setEnabled@QWidget@@UAEX_N@Z 00414c28 f   qt-mt323:qt-mt323.dll
 0001:00013c2e       ?checkConnectArgs@QObject@@MAE_NPBDPBV1@0@Z 00414c2e f   qt-mt323:qt-mt323.dll
 0001:00013c34       ?disconnectNotify@QObject@@MAEXPBD@Z 00414c34 f   qt-mt323:qt-mt323.dll
 0001:00013c3a       ?connectNotify@QObject@@MAEXPBD@Z 00414c3a f   qt-mt323:qt-mt323.dll
 0001:00013c40       ?customEvent@QObject@@MAEXPAVQCustomEvent@@@Z 00414c40 f   qt-mt323:qt-mt323.dll
 0001:00013c46       ?childEvent@QObject@@MAEXPAVQChildEvent@@@Z 00414c46 f   qt-mt323:qt-mt323.dll
 0001:00013c4c       ?timerEvent@QObject@@MAEXPAVQTimerEvent@@@Z 00414c4c f   qt-mt323:qt-mt323.dll
 0001:00013c52       ?property@QObject@@UBE?AVQVariant@@PBD@Z 00414c52 f   qt-mt323:qt-mt323.dll
 0001:00013c58       ?setProperty@QObject@@UAE_NPBDABVQVariant@@@Z 00414c58 f   qt-mt323:qt-mt323.dll
 0001:00013c5e       ?removeChild@QObject@@UAEXPAV1@@Z 00414c5e f   qt-mt323:qt-mt323.dll
 0001:00013c64       ?insertChild@QObject@@UAEXPAV1@@Z 00414c64 f   qt-mt323:qt-mt323.dll
 0001:00013c6a       ?setName@QWidget@@UAEXPBD@Z 00414c6a f   qt-mt323:qt-mt323.dll
 0001:00013c70       ?eventFilter@QObject@@UAE_NPAV1@PAVQEvent@@@Z 00414c70 f   qt-mt323:qt-mt323.dll
 0001:00013c76       ?event@QWidget@@MAE_NPAVQEvent@@@Z 00414c76 f   qt-mt323:qt-mt323.dll
 0001:00013c7c       ?write@QGDict@@MBEAAVQDataStream@@AAV2@PAX@Z 00414c7c f   qt-mt323:qt-mt323.dll
 0001:00013c82       ?read@QGDict@@MAEAAVQDataStream@@AAV2@AAPAX@Z 00414c82 f   qt-mt323:qt-mt323.dll
 0001:00013c88       ?frameChanged@QGrid@@MAEXXZ 00414c88 f   qt-mt323:qt-mt323.dll
 0001:00013c8e       ?drawContents@QFrame@@MAEXPAVQPainter@@@Z 00414c8e f   qt-mt323:qt-mt323.dll
 0001:00013c94       ?drawFrame@QFrame@@MAEXPAVQPainter@@@Z 00414c94 f   qt-mt323:qt-mt323.dll
 0001:00013c9a       ?setFrameRect@QFrame@@UAEXABVQRect@@@Z 00414c9a f   qt-mt323:qt-mt323.dll
 0001:00013ca0       ?setMidLineWidth@QFrame@@UAEXH@Z 00414ca0 f   qt-mt323:qt-mt323.dll
 0001:00013ca6       ?setMargin@QFrame@@UAEXH@Z 00414ca6 f   qt-mt323:qt-mt323.dll
 0001:00013cac       ?setLineWidth@QFrame@@UAEXH@Z 00414cac f   qt-mt323:qt-mt323.dll
 0001:00013cb2       ?setFrameStyle@QFrame@@UAEXH@Z 00414cb2 f   qt-mt323:qt-mt323.dll
 0001:00013cb8       ?styleChange@QFrame@@MAEXAAVQStyle@@@Z 00414cb8 f   qt-mt323:qt-mt323.dll
 0001:00013cbe       ?resizeEvent@QFrame@@MAEXPAVQResizeEvent@@@Z 00414cbe f   qt-mt323:qt-mt323.dll
 0001:00013cc4       ?paintEvent@QFrame@@MAEXPAVQPaintEvent@@@Z 00414cc4 f   qt-mt323:qt-mt323.dll
 0001:00013cca       ?sizeHint@QGrid@@UBE?AVQSize@@XZ 00414cca f   qt-mt323:qt-mt323.dll
 0001:00013cd0       ?qt_property@QGrid@@UAE_NHHPAVQVariant@@@Z 00414cd0 f   qt-mt323:qt-mt323.dll
 0001:00013cd6       ?qt_emit@QGrid@@UAE_NHPAUQUObject@@@Z 00414cd6 f   qt-mt323:qt-mt323.dll
 0001:00013cdc       ?qt_invoke@QGrid@@UAE_NHPAUQUObject@@@Z 00414cdc f   qt-mt323:qt-mt323.dll
 0001:00013ce2       ?qt_cast@QGrid@@UAEPAXPBD@Z 00414ce2 f   qt-mt323:qt-mt323.dll
 0001:00013ce8       ?className@QGrid@@UBEPBDXZ 00414ce8 f   qt-mt323:qt-mt323.dll
 0001:00013cee       ?metaObject@QGrid@@UBEPAVQMetaObject@@XZ 00414cee f   qt-mt323:qt-mt323.dll
 0001:00013cf4       ?setName@QObject@@UAEXPBD@Z 00414cf4 f   qt-mt323:qt-mt323.dll
 0001:00013cfa       ?event@QObject@@UAE_NPAVQEvent@@@Z 00414cfa f   qt-mt323:qt-mt323.dll
 0001:00013d00       ?setChildGeometries@QWidgetStack@@MAEXXZ 00414d00 f   qt-mt323:qt-mt323.dll
 0001:00013d06       ?frameChanged@QWidgetStack@@MAEXXZ 00414d06 f   qt-mt323:qt-mt323.dll
 0001:00013d0c       ?setFrameRect@QWidgetStack@@UAEXABVQRect@@@Z 00414d0c f   qt-mt323:qt-mt323.dll
 0001:00013d12       ?resizeEvent@QWidgetStack@@MAEXPAVQResizeEvent@@@Z 00414d12 f   qt-mt323:qt-mt323.dll
 0001:00013d18       ?minimumSizeHint@QWidgetStack@@UBE?AVQSize@@XZ 00414d18 f   qt-mt323:qt-mt323.dll
 0001:00013d1e       ?sizeHint@QWidgetStack@@UBE?AVQSize@@XZ 00414d1e f   qt-mt323:qt-mt323.dll
 0001:00013d24       ?show@QWidgetStack@@UAEXXZ 00414d24 f   qt-mt323:qt-mt323.dll
 0001:00013d2a       ?childEvent@QWidgetStack@@MAEXPAVQChildEvent@@@Z 00414d2a f   qt-mt323:qt-mt323.dll
 0001:00013d30       ?qt_property@QWidgetStack@@UAE_NHHPAVQVariant@@@Z 00414d30 f   qt-mt323:qt-mt323.dll
 0001:00013d36       ?qt_emit@QWidgetStack@@UAE_NHPAUQUObject@@@Z 00414d36 f   qt-mt323:qt-mt323.dll
 0001:00013d3c       ?qt_invoke@QWidgetStack@@UAE_NHPAUQUObject@@@Z 00414d3c f   qt-mt323:qt-mt323.dll
 0001:00013d42       ?qt_cast@QWidgetStack@@UAEPAXPBD@Z 00414d42 f   qt-mt323:qt-mt323.dll
 0001:00013d48       ?className@QWidgetStack@@UBEPBDXZ 00414d48 f   qt-mt323:qt-mt323.dll
 0001:00013d4e       ?metaObject@QWidgetStack@@UBEPAVQMetaObject@@XZ 00414d4e f   qt-mt323:qt-mt323.dll
 0001:00013d54       ?qt_property@QWidget@@UAE_NHHPAVQVariant@@@Z 00414d54 f   qt-mt323:qt-mt323.dll
 0001:00013d5a       ?qt_emit@QWidget@@UAE_NHPAUQUObject@@@Z 00414d5a f   qt-mt323:qt-mt323.dll
 0001:00013d60       ?qt_invoke@QWidget@@UAE_NHPAUQUObject@@@Z 00414d60 f   qt-mt323:qt-mt323.dll
 0001:00013d66       ?qt_cast@QWidget@@UAEPAXPBD@Z 00414d66 f   qt-mt323:qt-mt323.dll
 0001:00013d6c       ?className@QWidget@@UBEPBDXZ 00414d6c f   qt-mt323:qt-mt323.dll
 0001:00013d72       ?metaObject@QWidget@@UBEPAVQMetaObject@@XZ 00414d72 f   qt-mt323:qt-mt323.dll
 0001:00013d78       ?setOption@QSocketDevice@@EAEXW4Option@1@H@Z 00414d78 f   qt-mt323:qt-mt323.dll
 0001:00013d7e       ?writeBlock@QSocketDevice@@UAEJPBDKABVQHostAddress@@G@Z 00414d7e f   qt-mt323:qt-mt323.dll
 0001:00013d84       ?accept@QSocketDevice@@UAEHXZ 00414d84 f   qt-mt323:qt-mt323.dll
 0001:00013d8a       ?listen@QSocketDevice@@UAE_NH@Z 00414d8a f   qt-mt323:qt-mt323.dll
 0001:00013d90       ?bind@QSocketDevice@@UAE_NABVQHostAddress@@G@Z 00414d90 f   qt-mt323:qt-mt323.dll
 0001:00013d96       ?connect@QSocketDevice@@UAE_NABVQHostAddress@@G@Z 00414d96 f   qt-mt323:qt-mt323.dll
 0001:00013d9c       ?setSendBufferSize@QSocketDevice@@UAEXI@Z 00414d9c f   qt-mt323:qt-mt323.dll
 0001:00013da2       ?setReceiveBufferSize@QSocketDevice@@UAEXI@Z 00414da2 f   qt-mt323:qt-mt323.dll
 0001:00013da8       ?setAddressReusable@QSocketDevice@@UAEX_N@Z 00414da8 f   qt-mt323:qt-mt323.dll
 0001:00013dae       ?setBlocking@QSocketDevice@@UAEX_N@Z 00414dae f   qt-mt323:qt-mt323.dll
 0001:00013db4       ?setSocket@QSocketDevice@@UAEXHW4Type@1@@Z 00414db4 f   qt-mt323:qt-mt323.dll
 0001:00013dba       ?ungetch@QSocketDevice@@UAEHH@Z 00414dba f   qt-mt323:qt-mt323.dll
 0001:00013dc0       ?putch@QSocketDevice@@UAEHH@Z 00414dc0 f   qt-mt323:qt-mt323.dll
 0001:00013dc6       ?getch@QSocketDevice@@UAEHXZ 00414dc6 f   qt-mt323:qt-mt323.dll
 0001:00013dcc       ?readAll@QIODevice@@UAE?AV?$QMemArray@D@@XZ 00414dcc f   qt-mt323:qt-mt323.dll
 0001:00013dd2       ?readLine@QIODevice@@UAEJPADK@Z 00414dd2 f   qt-mt323:qt-mt323.dll
 0001:00013dd8       ?writeBlock@QSocketDevice@@UAEJPBDK@Z 00414dd8 f   qt-mt323:qt-mt323.dll
 0001:00013dde       ?readBlock@QSocketDevice@@UAEJPADK@Z 00414dde f   qt-mt323:qt-mt323.dll
 0001:00013de4       ?atEnd@QSocketDevice@@UBE_NXZ 00414de4 f   qt-mt323:qt-mt323.dll
 0001:00013dea       ?at@QSocketDevice@@UBEKXZ  00414dea f   qt-mt323:qt-mt323.dll
 0001:00013df0       ?at@QSocketDevice@@UAE_NK@Z 00414df0 f   qt-mt323:qt-mt323.dll
 0001:00013df6       ?size@QSocketDevice@@UBEKXZ 00414df6 f   qt-mt323:qt-mt323.dll
 0001:00013dfc       ?flush@QSocketDevice@@UAEXXZ 00414dfc f   qt-mt323:qt-mt323.dll
 0001:00013e02       ?close@QSocketDevice@@UAEXXZ 00414e02 f   qt-mt323:qt-mt323.dll
 0001:00013e08       ?open@QSocketDevice@@UAE_NH@Z 00414e08 f   qt-mt323:qt-mt323.dll
 0001:00013e0e       ?setEnabled@QSocketNotifier@@UAEX_N@Z 00414e0e f   qt-mt323:qt-mt323.dll
 0001:00013e14       ?event@QSocketNotifier@@MAE_NPAVQEvent@@@Z 00414e14 f   qt-mt323:qt-mt323.dll
 0001:00013e1a       ?qt_property@QSocketNotifier@@UAE_NHHPAVQVariant@@@Z 00414e1a f   qt-mt323:qt-mt323.dll
 0001:00013e20       ?qt_emit@QSocketNotifier@@UAE_NHPAUQUObject@@@Z 00414e20 f   qt-mt323:qt-mt323.dll
 0001:00013e26       ?qt_invoke@QSocketNotifier@@UAE_NHPAUQUObject@@@Z 00414e26 f   qt-mt323:qt-mt323.dll
 0001:00013e2c       ?qt_cast@QSocketNotifier@@UAEPAXPBD@Z 00414e2c f   qt-mt323:qt-mt323.dll
 0001:00013e32       ?className@QSocketNotifier@@UBEPBDXZ 00414e32 f   qt-mt323:qt-mt323.dll
 0001:00013e38       ?metaObject@QSocketNotifier@@UBEPAVQMetaObject@@XZ 00414e38 f   qt-mt323:qt-mt323.dll
 0001:00013e3e       ?reject@QDialog@@MAEXXZ    00414e3e f   qt-mt323:qt-mt323.dll
 0001:00013e44       ?accept@QDialog@@MAEXXZ    00414e44 f   qt-mt323:qt-mt323.dll
 0001:00013e4a       ?done@QDialog@@MAEXH@Z     00414e4a f   qt-mt323:qt-mt323.dll
 0001:00013e50       ?contextMenuEvent@QDialog@@MAEXPAVQContextMenuEvent@@@Z 00414e50 f   qt-mt323:qt-mt323.dll
 0001:00013e56       ?closeEvent@QDialog@@MAEXPAVQCloseEvent@@@Z 00414e56 f   qt-mt323:qt-mt323.dll
 0001:00013e5c       ?resizeEvent@QDialog@@MAEXPAVQResizeEvent@@@Z 00414e5c f   qt-mt323:qt-mt323.dll
 0001:00013e62       ?keyPressEvent@QDialog@@MAEXPAVQKeyEvent@@@Z 00414e62 f   qt-mt323:qt-mt323.dll
 0001:00013e68       ?minimumSizeHint@QDialog@@UBE?AVQSize@@XZ 00414e68 f   qt-mt323:qt-mt323.dll
 0001:00013e6e       ?sizeHint@QDialog@@UBE?AVQSize@@XZ 00414e6e f   qt-mt323:qt-mt323.dll
 0001:00013e74       ?setGeometry@QDialog@@UAEXHHHH@Z 00414e74 f   qt-mt323:qt-mt323.dll
 0001:00013e7a       ?setGeometry@QDialog@@UAEXABVQRect@@@Z 00414e7a f   qt-mt323:qt-mt323.dll
 0001:00013e80       ?resize@QDialog@@UAEXHH@Z  00414e80 f   qt-mt323:qt-mt323.dll
 0001:00013e86       ?move@QDialog@@UAEXHH@Z    00414e86 f   qt-mt323:qt-mt323.dll
 0001:00013e8c       ?hide@QDialog@@UAEXXZ      00414e8c f   qt-mt323:qt-mt323.dll
 0001:00013e92       ?show@QDialog@@UAEXXZ      00414e92 f   qt-mt323:qt-mt323.dll
 0001:00013e98       ?eventFilter@QDialog@@MAE_NPAVQObject@@PAVQEvent@@@Z 00414e98 f   qt-mt323:qt-mt323.dll
 0001:00013e9e       ?closeStdin@QProcess@@UAEXXZ 00414e9e f   qt-mt323:qt-mt323.dll
 0001:00013ea4       ?writeToStdin@QProcess@@UAEXABV?$QMemArray@D@@@Z 00414ea4 f   qt-mt323:qt-mt323.dll
 0001:00013eaa       ?writeToStdin@QProcess@@UAEXABVQString@@@Z 00414eaa f   qt-mt323:qt-mt323.dll
 0001:00013eb0       ?readLineStderr@QProcess@@UAE?AVQString@@XZ 00414eb0 f   qt-mt323:qt-mt323.dll
 0001:00013eb6       ?readLineStdout@QProcess@@UAE?AVQString@@XZ 00414eb6 f   qt-mt323:qt-mt323.dll
 0001:00013ebc       ?readStderr@QProcess@@UAE?AV?$QMemArray@D@@XZ 00414ebc f   qt-mt323:qt-mt323.dll
 0001:00013ec2       ?readStdout@QProcess@@UAE?AV?$QMemArray@D@@XZ 00414ec2 f   qt-mt323:qt-mt323.dll
 0001:00013ec8       ?launch@QProcess@@UAE_NABVQString@@PAVQStringList@@@Z 00414ec8 f   qt-mt323:qt-mt323.dll
 0001:00013ece       ?launch@QProcess@@UAE_NABV?$QMemArray@D@@PAVQStringList@@@Z 00414ece f   qt-mt323:qt-mt323.dll
 0001:00013ed4       ?start@QProcess@@UAE_NPAVQStringList@@@Z 00414ed4 f   qt-mt323:qt-mt323.dll
 0001:00013eda       ?setWorkingDirectory@QProcess@@UAEXABVQDir@@@Z 00414eda f   qt-mt323:qt-mt323.dll
 0001:00013ee0       ?addArgument@QProcess@@UAEXABVQString@@@Z 00414ee0 f   qt-mt323:qt-mt323.dll
 0001:00013ee6       ?setArguments@QProcess@@UAEXABVQStringList@@@Z 00414ee6 f   qt-mt323:qt-mt323.dll
 0001:00013eec       ?disconnectNotify@QProcess@@MAEXPBD@Z 00414eec f   qt-mt323:qt-mt323.dll
 0001:00013ef2       ?connectNotify@QProcess@@MAEXPBD@Z 00414ef2 f   qt-mt323:qt-mt323.dll
 0001:00013ef8       ?qt_property@QProcess@@UAE_NHHPAVQVariant@@@Z 00414ef8 f   qt-mt323:qt-mt323.dll
 0001:00013efe       ?qt_emit@QProcess@@UAE_NHPAUQUObject@@@Z 00414efe f   qt-mt323:qt-mt323.dll
 0001:00013f04       ?qt_invoke@QProcess@@UAE_NHPAUQUObject@@@Z 00414f04 f   qt-mt323:qt-mt323.dll
 0001:00013f0a       ?qt_cast@QProcess@@UAEPAXPBD@Z 00414f0a f   qt-mt323:qt-mt323.dll
 0001:00013f10       ?className@QProcess@@UBEPBDXZ 00414f10 f   qt-mt323:qt-mt323.dll
 0001:00013f16       ?metaObject@QProcess@@UBEPAVQMetaObject@@XZ 00414f16 f   qt-mt323:qt-mt323.dll
 0001:00013f1c       ?paintCell@QListBox@@MAEXPAVQPainter@@HH@Z 00414f1c f   qt-mt323:qt-mt323.dll
 0001:00013f22       ?invertSelection@QListBox@@UAEXXZ 00414f22 f   qt-mt323:qt-mt323.dll
 0001:00013f28       ?selectAll@QListBox@@UAEX_N@Z 00414f28 f   qt-mt323:qt-mt323.dll
 0001:00013f2e       ?clearSelection@QListBox@@UAEXXZ 00414f2e f   qt-mt323:qt-mt323.dll
 0001:00013f34       ?ensureCurrentVisible@QListBox@@UAEXXZ 00414f34 f   qt-mt323:qt-mt323.dll
 0001:00013f3a       ?setVariableHeight@QListBox@@UAEX_N@Z 00414f3a f   qt-mt323:qt-mt323.dll
 0001:00013f40       ?setVariableWidth@QListBox@@UAEX_N@Z 00414f40 f   qt-mt323:qt-mt323.dll
 0001:00013f46       ?setRowMode@QListBox@@UAEXW4LayoutMode@1@@Z 00414f46 f   qt-mt323:qt-mt323.dll
 0001:00013f4c       ?setRowMode@QListBox@@UAEXH@Z 00414f4c f   qt-mt323:qt-mt323.dll
 0001:00013f52       ?setColumnMode@QListBox@@UAEXW4LayoutMode@1@@Z 00414f52 f   qt-mt323:qt-mt323.dll
 0001:00013f58       ?setColumnMode@QListBox@@UAEXH@Z 00414f58 f   qt-mt323:qt-mt323.dll
 0001:00013f5e       ?setSelected@QListBox@@UAEXPAVQListBoxItem@@_N@Z 00414f5e f   qt-mt323:qt-mt323.dll
 0001:00013f64       ?setSelectionMode@QListBox@@UAEXW4SelectionMode@1@@Z 00414f64 f   qt-mt323:qt-mt323.dll
 0001:00013f6a       ?setBottomItem@QListBox@@UAEXH@Z 00414f6a f   qt-mt323:qt-mt323.dll
 0001:00013f70       ?setTopItem@QListBox@@UAEXH@Z 00414f70 f   qt-mt323:qt-mt323.dll
 0001:00013f76       ?setCurrentItem@QListBox@@UAEXH@Z 00414f76 f   qt-mt323:qt-mt323.dll
 0001:00013f7c       ?setCurrentItem@QListBox@@UAEXPAVQListBoxItem@@@Z 00414f7c f   qt-mt323:qt-mt323.dll
 0001:00013f82       ?setVBarGeometry@QScrollView@@MAEXAAVQScrollBar@@HHHH@Z 00414f82 f   qt-mt323:qt-mt323.dll
 0001:00013f88       ?setHBarGeometry@QScrollView@@MAEXAAVQScrollBar@@HHHH@Z 00414f88 f   qt-mt323:qt-mt323.dll
 0001:00013f8e       ?setMargins@QScrollView@@MAEXHHHH@Z 00414f8e f   qt-mt323:qt-mt323.dll
 0001:00013f94       ?viewportContextMenuEvent@QScrollView@@MAEXPAVQContextMenuEvent@@@Z 00414f94 f   qt-mt323:qt-mt323.dll
 0001:00013f9a       ?viewportWheelEvent@QScrollView@@MAEXPAVQWheelEvent@@@Z 00414f9a f   qt-mt323:qt-mt323.dll
 0001:00013fa0       ?viewportDropEvent@QScrollView@@MAEXPAVQDropEvent@@@Z 00414fa0 f   qt-mt323:qt-mt323.dll
 0001:00013fa6       ?viewportDragLeaveEvent@QScrollView@@MAEXPAVQDragLeaveEvent@@@Z 00414fa6 f   qt-mt323:qt-mt323.dll
 0001:00013fac       ?viewportDragMoveEvent@QScrollView@@MAEXPAVQDragMoveEvent@@@Z 00414fac f   qt-mt323:qt-mt323.dll
 0001:00013fb2       ?viewportDragEnterEvent@QScrollView@@MAEXPAVQDragEnterEvent@@@Z 00414fb2 f   qt-mt323:qt-mt323.dll
 0001:00013fb8       ?viewportMouseMoveEvent@QScrollView@@MAEXPAVQMouseEvent@@@Z 00414fb8 f   qt-mt323:qt-mt323.dll
 0001:00013fbe       ?viewportMouseDoubleClickEvent@QScrollView@@MAEXPAVQMouseEvent@@@Z 00414fbe f   qt-mt323:qt-mt323.dll
 0001:00013fc4       ?viewportMouseReleaseEvent@QScrollView@@MAEXPAVQMouseEvent@@@Z 00414fc4 f   qt-mt323:qt-mt323.dll
 0001:00013fca       ?viewportMousePressEvent@QScrollView@@MAEXPAVQMouseEvent@@@Z 00414fca f   qt-mt323:qt-mt323.dll
 0001:00013fd0       ?viewportResizeEvent@QScrollView@@MAEXPAVQResizeEvent@@@Z 00414fd0 f   qt-mt323:qt-mt323.dll
 0001:00013fd6       ?viewportPaintEvent@QListBox@@UAEXPAVQPaintEvent@@@Z 00414fd6 f   qt-mt323:qt-mt323.dll
 0001:00013fdc       ?contentsContextMenuEvent@QListBox@@MAEXPAVQContextMenuEvent@@@Z 00414fdc f   qt-mt323:qt-mt323.dll
 0001:00013fe2       ?contentsWheelEvent@QScrollView@@MAEXPAVQWheelEvent@@@Z 00414fe2 f   qt-mt323:qt-mt323.dll
 0001:00013fe8       ?contentsDropEvent@QScrollView@@MAEXPAVQDropEvent@@@Z 00414fe8 f   qt-mt323:qt-mt323.dll
 0001:00013fee       ?contentsDragLeaveEvent@QScrollView@@MAEXPAVQDragLeaveEvent@@@Z 00414fee f   qt-mt323:qt-mt323.dll
 0001:00013ff4       ?contentsDragMoveEvent@QScrollView@@MAEXPAVQDragMoveEvent@@@Z 00414ff4 f   qt-mt323:qt-mt323.dll
 0001:00013ffa       ?contentsDragEnterEvent@QScrollView@@MAEXPAVQDragEnterEvent@@@Z 00414ffa f   qt-mt323:qt-mt323.dll
 0001:00014000       ?contentsMouseMoveEvent@QScrollView@@MAEXPAVQMouseEvent@@@Z 00415000 f   qt-mt323:qt-mt323.dll
 0001:00014006       ?contentsMouseDoubleClickEvent@QScrollView@@MAEXPAVQMouseEvent@@@Z 00415006 f   qt-mt323:qt-mt323.dll
 0001:0001400c       ?contentsMouseReleaseEvent@QScrollView@@MAEXPAVQMouseEvent@@@Z 0041500c f   qt-mt323:qt-mt323.dll
 0001:00014012       ?contentsMousePressEvent@QScrollView@@MAEXPAVQMouseEvent@@@Z 00415012 f   qt-mt323:qt-mt323.dll
 0001:00014018       ?drawContentsOffset@QScrollView@@MAEXPAVQPainter@@HHHHHH@Z 00415018 f   qt-mt323:qt-mt323.dll
 0001:0001401e       ?drawContents@QScrollView@@MAEXPAVQPainter@@HHHH@Z 0041501e f   qt-mt323:qt-mt323.dll
 0001:00014024       ?setContentsPos@QScrollView@@UAEXHH@Z 00415024 f   qt-mt323:qt-mt323.dll
 0001:0001402a       ?resizeContents@QScrollView@@UAEXHH@Z 0041502a f   qt-mt323:qt-mt323.dll
 0001:00014030       ?setDragAutoScroll@QScrollView@@UAEX_N@Z 00415030 f   qt-mt323:qt-mt323.dll
 0001:00014036       ?setCornerWidget@QScrollView@@UAEXPAVQWidget@@@Z 00415036 f   qt-mt323:qt-mt323.dll
 0001:0001403c       ?setHScrollBarMode@QScrollView@@UAEXW4ScrollBarMode@1@@Z 0041503c f   qt-mt323:qt-mt323.dll
 0001:00014042       ?setVScrollBarMode@QScrollView@@UAEXW4ScrollBarMode@1@@Z 00415042 f   qt-mt323:qt-mt323.dll
 0001:00014048       ?moveChild@QScrollView@@UAEXPAVQWidget@@HH@Z 00415048 f   qt-mt323:qt-mt323.dll
 0001:0001404e       ?addChild@QScrollView@@UAEXPAVQWidget@@HH@Z 0041504e f   qt-mt323:qt-mt323.dll
 0001:00014054       ?setResizePolicy@QScrollView@@UAEXW4ResizePolicy@1@@Z 00415054 f   qt-mt323:qt-mt323.dll
 0001:0001405a       ?frameChanged@QScrollView@@MAEXXZ 0041505a f   qt-mt323:qt-mt323.dll
 0001:00014060       ?drawContents@QScrollView@@EAEXPAVQPainter@@@Z 00415060 f   qt-mt323:qt-mt323.dll
 0001:00014066       ?focusNextPrevChild@QScrollView@@MAE_N_N@Z 00415066 f   qt-mt323:qt-mt323.dll
 0001:0001406c       ?windowActivationChange@QListBox@@MAEX_N@Z 0041506c f   qt-mt323:qt-mt323.dll
 0001:00014072       ?fontChange@QScrollView@@MAEXABVQFont@@@Z 00415072 f   qt-mt323:qt-mt323.dll
 0001:00014078       ?styleChange@QScrollView@@UAEXAAVQStyle@@@Z 00415078 f   qt-mt323:qt-mt323.dll
 0001:0001407e       ?showEvent@QListBox@@MAEXPAVQShowEvent@@@Z 0041507e f   qt-mt323:qt-mt323.dll
 0001:00014084       ?contextMenuEvent@QScrollView@@MAEXPAVQContextMenuEvent@@@Z 00415084 f   qt-mt323:qt-mt323.dll
 0001:0001408a       ?resizeEvent@QListBox@@MAEXPAVQResizeEvent@@@Z 0041508a f   qt-mt323:qt-mt323.dll
 0001:00014090       ?focusOutEvent@QListBox@@MAEXPAVQFocusEvent@@@Z 00415090 f   qt-mt323:qt-mt323.dll
 0001:00014096       ?focusInEvent@QListBox@@MAEXPAVQFocusEvent@@@Z 00415096 f   qt-mt323:qt-mt323.dll
 0001:0001409c       ?keyPressEvent@QListBox@@MAEXPAVQKeyEvent@@@Z 0041509c f   qt-mt323:qt-mt323.dll
 0001:000140a2       ?wheelEvent@QScrollView@@MAEXPAVQWheelEvent@@@Z 004150a2 f   qt-mt323:qt-mt323.dll
 0001:000140a8       ?mouseMoveEvent@QListBox@@MAEXPAVQMouseEvent@@@Z 004150a8 f   qt-mt323:qt-mt323.dll
 0001:000140ae       ?mouseDoubleClickEvent@QListBox@@MAEXPAVQMouseEvent@@@Z 004150ae f   qt-mt323:qt-mt323.dll
 0001:000140b4       ?mouseReleaseEvent@QListBox@@MAEXPAVQMouseEvent@@@Z 004150b4 f   qt-mt323:qt-mt323.dll
 0001:000140ba       ?mousePressEvent@QListBox@@MAEXPAVQMouseEvent@@@Z 004150ba f   qt-mt323:qt-mt323.dll
 0001:000140c0       ?minimumSizeHint@QListBox@@UBE?AVQSize@@XZ 004150c0 f   qt-mt323:qt-mt323.dll
 0001:000140c6       ?sizeHint@QListBox@@UBE?AVQSize@@XZ 004150c6 f   qt-mt323:qt-mt323.dll
 0001:000140cc       ?resize@QScrollView@@UAEXHH@Z 004150cc f   qt-mt323:qt-mt323.dll
 0001:000140d2       ?show@QScrollView@@UAEXXZ  004150d2 f   qt-mt323:qt-mt323.dll
 0001:000140d8       ?setFont@QListBox@@UAEXABVQFont@@@Z 004150d8 f   qt-mt323:qt-mt323.dll
 0001:000140de       ?setEnabled@QScrollView@@UAEX_N@Z 004150de f   qt-mt323:qt-mt323.dll
 0001:000140e4       ?removeChild@QScrollView@@UAEXPAVQObject@@@Z 004150e4 f   qt-mt323:qt-mt323.dll
 0001:000140ea       ?eventFilter@QListBox@@MAE_NPAVQObject@@PAVQEvent@@@Z 004150ea f   qt-mt323:qt-mt323.dll
 0001:000140f0       ?qt_property@QListBox@@UAE_NHHPAVQVariant@@@Z 004150f0 f   qt-mt323:qt-mt323.dll
 0001:000140f6       ?qt_emit@QListBox@@UAE_NHPAUQUObject@@@Z 004150f6 f   qt-mt323:qt-mt323.dll
 0001:000140fc       ?qt_invoke@QListBox@@UAE_NHPAUQUObject@@@Z 004150fc f   qt-mt323:qt-mt323.dll
 0001:00014102       ?qt_cast@QListBox@@UAEPAXPBD@Z 00415102 f   qt-mt323:qt-mt323.dll
 0001:00014108       ?className@QListBox@@UBEPBDXZ 00415108 f   qt-mt323:qt-mt323.dll
 0001:0001410e       ?metaObject@QListBox@@UBEPAVQMetaObject@@XZ 0041510e f   qt-mt323:qt-mt323.dll
 0001:00014114       ?setAlignment@QLayoutItem@@UAEXH@Z 00415114 f   qt-mt323:qt-mt323.dll
 0001:0001411a       ?spacerItem@QLayoutItem@@UAEPAVQSpacerItem@@XZ 0041511a f   qt-mt323:qt-mt323.dll
 0001:00014120       ?layout@QLayout@@UAEPAV1@XZ 00415120 f   qt-mt323:qt-mt323.dll
 0001:00014126       ?iterator@QBoxLayout@@UAE?AVQLayoutIterator@@XZ 00415126 f   qt-mt323:qt-mt323.dll
 0001:0001412c       ?widget@QLayoutItem@@UAEPAVQWidget@@XZ 0041512c f   qt-mt323:qt-mt323.dll
 0001:00014132       ?invalidate@QBoxLayout@@UAEXXZ 00415132 f   qt-mt323:qt-mt323.dll
 0001:00014138       ?heightForWidth@QBoxLayout@@UBEHH@Z 00415138 f   qt-mt323:qt-mt323.dll
 0001:0001413e       ?hasHeightForWidth@QBoxLayout@@UBE_NXZ 0041513e f   qt-mt323:qt-mt323.dll
 0001:00014144       ?isEmpty@QLayout@@UBE_NXZ  00415144 f   qt-mt323:qt-mt323.dll
 0001:0001414a       ?geometry@QLayout@@UBE?AVQRect@@XZ 0041514a f   qt-mt323:qt-mt323.dll
 0001:00014150       ?setGeometry@QBoxLayout@@UAEXABVQRect@@@Z 00415150 f   qt-mt323:qt-mt323.dll
 0001:00014156       ?expanding@QBoxLayout@@UBE?AW4ExpandData@QSizePolicy@@XZ 00415156 f   qt-mt323:qt-mt323.dll
 0001:0001415c       ?maximumSize@QBoxLayout@@UBE?AVQSize@@XZ 0041515c f   qt-mt323:qt-mt323.dll
 0001:00014162       ?minimumSize@QBoxLayout@@UBE?AVQSize@@XZ 00415162 f   qt-mt323:qt-mt323.dll
 0001:00014168       ?sizeHint@QBoxLayout@@UBE?AVQSize@@XZ 00415168 f   qt-mt323:qt-mt323.dll
 0001:0001416e       ?addItem@QBoxLayout@@UAEXPAVQLayoutItem@@@Z 0041516e f   qt-mt323:qt-mt323.dll
 0001:00014174       ?setAutoAdd@QLayout@@UAEX_N@Z 00415174 f   qt-mt323:qt-mt323.dll
 0001:0001417a       ?setMenuBar@QLayout@@UAEXPAVQMenuBar@@@Z 0041517a f   qt-mt323:qt-mt323.dll
 0001:00014180       ?setSpacing@QLayout@@UAEXH@Z 00415180 f   qt-mt323:qt-mt323.dll
 0001:00014186       ?setMargin@QLayout@@UAEXH@Z 00415186 f   qt-mt323:qt-mt323.dll
 0001:0001418c       ?childEvent@QLayout@@MAEXPAVQChildEvent@@@Z 0041518c f   qt-mt323:qt-mt323.dll
 0001:00014192       ?eventFilter@QLayout@@MAE_NPAVQObject@@PAVQEvent@@@Z 00415192 f   qt-mt323:qt-mt323.dll
 0001:00014198       ?qt_property@QVBoxLayout@@UAE_NHHPAVQVariant@@@Z 00415198 f   qt-mt323:qt-mt323.dll
 0001:0001419e       ?qt_emit@QVBoxLayout@@UAE_NHPAUQUObject@@@Z 0041519e f   qt-mt323:qt-mt323.dll
 0001:000141a4       ?qt_invoke@QVBoxLayout@@UAE_NHPAUQUObject@@@Z 004151a4 f   qt-mt323:qt-mt323.dll
 0001:000141aa       ?qt_cast@QVBoxLayout@@UAEPAXPBD@Z 004151aa f   qt-mt323:qt-mt323.dll
 0001:000141b0       ?className@QVBoxLayout@@UBEPBDXZ 004151b0 f   qt-mt323:qt-mt323.dll
 0001:000141b6       ?metaObject@QVBoxLayout@@UBEPAVQMetaObject@@XZ 004151b6 f   qt-mt323:qt-mt323.dll
 0001:000141bc       ?menuDelPopup@QPopupMenu@@EAEXPAV1@@Z 004151bc f   qt-mt323:qt-mt323.dll
 0001:000141c2       ?menuInsPopup@QPopupMenu@@EAEXPAV1@@Z 004151c2 f   qt-mt323:qt-mt323.dll
 0001:000141c8       ?menuStateChanged@QPopupMenu@@EAEXXZ 004151c8 f   qt-mt323:qt-mt323.dll
 0001:000141ce       ?menuContentsChanged@QPopupMenu@@EAEXXZ 004151ce f   qt-mt323:qt-mt323.dll
 0001:000141d4       ?activateItemAt@QPopupMenu@@UAEXH@Z 004151d4 f   qt-mt323:qt-mt323.dll
 0001:000141da       ?setId@QMenuData@@UAEXHH@Z 004151da f   qt-mt323:qt-mt323.dll
 0001:000141e0       ?updateItem@QPopupMenu@@UAEXH@Z 004151e0 f   qt-mt323:qt-mt323.dll
 0001:000141e6       ?setFirstItemActive@QPopupMenu@@EAEXXZ 004151e6 f   qt-mt323:qt-mt323.dll
 0001:000141ec       ?setActiveItem@QPopupMenu@@UAEXH@Z 004151ec f   qt-mt323:qt-mt323.dll
 0001:000141f2       ?setCheckable@QPopupMenu@@UAEX_N@Z 004151f2 f   qt-mt323:qt-mt323.dll
 0001:000141f8       ?frameChanged@QPopupMenu@@EAEXXZ 004151f8 f   qt-mt323:qt-mt323.dll
 0001:000141fe       ?drawContents@QPopupMenu@@MAEXPAVQPainter@@@Z 004151fe f   qt-mt323:qt-mt323.dll
 0001:00014204       ?focusNextPrevChild@QPopupMenu@@MAE_N_N@Z 00415204 f   qt-mt323:qt-mt323.dll
 0001:0001420a       ?enabledChange@QPopupMenu@@MAEX_N@Z 0041520a f   qt-mt323:qt-mt323.dll
 0001:00014210       ?styleChange@QPopupMenu@@MAEXAAVQStyle@@@Z 00415210 f   qt-mt323:qt-mt323.dll
 0001:00014216       ?closeEvent@QPopupMenu@@MAEXPAVQCloseEvent@@@Z 00415216 f   qt-mt323:qt-mt323.dll
 0001:0001421c       ?paintEvent@QPopupMenu@@MAEXPAVQPaintEvent@@@Z 0041521c f   qt-mt323:qt-mt323.dll
 0001:00014222       ?leaveEvent@QPopupMenu@@MAEXPAVQEvent@@@Z 00415222 f   qt-mt323:qt-mt323.dll
 0001:00014228       ?focusOutEvent@QPopupMenu@@MAEXPAVQFocusEvent@@@Z 00415228 f   qt-mt323:qt-mt323.dll
 0001:0001422e       ?focusInEvent@QPopupMenu@@MAEXPAVQFocusEvent@@@Z 0041522e f   qt-mt323:qt-mt323.dll
 0001:00014234       ?keyPressEvent@QPopupMenu@@MAEXPAVQKeyEvent@@@Z 00415234 f   qt-mt323:qt-mt323.dll
 0001:0001423a       ?mouseMoveEvent@QPopupMenu@@MAEXPAVQMouseEvent@@@Z 0041523a f   qt-mt323:qt-mt323.dll
 0001:00014240       ?mouseReleaseEvent@QPopupMenu@@MAEXPAVQMouseEvent@@@Z 00415240 f   qt-mt323:qt-mt323.dll
 0001:00014246       ?mousePressEvent@QPopupMenu@@MAEXPAVQMouseEvent@@@Z 00415246 f   qt-mt323:qt-mt323.dll
 0001:0001424c       ?customWhatsThis@QPopupMenu@@UBE_NXZ 0041524c f   qt-mt323:qt-mt323.dll
 0001:00014252       ?sizeHint@QPopupMenu@@UBE?AVQSize@@XZ 00415252 f   qt-mt323:qt-mt323.dll
 0001:00014258       ?hide@QPopupMenu@@UAEXXZ   00415258 f   qt-mt323:qt-mt323.dll
 0001:0001425e       ?show@QPopupMenu@@UAEXXZ   0041525e f   qt-mt323:qt-mt323.dll
 0001:00014264       ?setFont@QPopupMenu@@UAEXABVQFont@@@Z 00415264 f   qt-mt323:qt-mt323.dll
 0001:0001426a       ?timerEvent@QPopupMenu@@MAEXPAVQTimerEvent@@@Z 0041526a f   qt-mt323:qt-mt323.dll
 0001:00014270       ?qt_property@QPopupMenu@@UAE_NHHPAVQVariant@@@Z 00415270 f   qt-mt323:qt-mt323.dll
 0001:00014276       ?qt_emit@QPopupMenu@@UAE_NHPAUQUObject@@@Z 00415276 f   qt-mt323:qt-mt323.dll
 0001:0001427c       ?qt_invoke@QPopupMenu@@UAE_NHPAUQUObject@@@Z 0041527c f   qt-mt323:qt-mt323.dll
 0001:00014282       ?qt_cast@QPopupMenu@@UAEPAXPBD@Z 00415282 f   qt-mt323:qt-mt323.dll
 0001:00014288       ?className@QPopupMenu@@UBEPBDXZ 00415288 f   qt-mt323:qt-mt323.dll
 0001:0001428e       ?metaObject@QPopupMenu@@UBEPAVQMetaObject@@XZ 0041528e f   qt-mt323:qt-mt323.dll
 0001:00014294       ?event@QTimer@@MAE_NPAVQEvent@@@Z 00415294 f   qt-mt323:qt-mt323.dll
 0001:0001429a       ?qt_property@QTimer@@UAE_NHHPAVQVariant@@@Z 0041529a f   qt-mt323:qt-mt323.dll
 0001:000142a0       ?qt_emit@QTimer@@UAE_NHPAUQUObject@@@Z 004152a0 f   qt-mt323:qt-mt323.dll
 0001:000142a6       ?qt_invoke@QTimer@@UAE_NHPAUQUObject@@@Z 004152a6 f   qt-mt323:qt-mt323.dll
 0001:000142ac       ?qt_cast@QTimer@@UAEPAXPBD@Z 004152ac f   qt-mt323:qt-mt323.dll
 0001:000142b2       ?className@QTimer@@UBEPBDXZ 004152b2 f   qt-mt323:qt-mt323.dll
 0001:000142b8       ?metaObject@QTimer@@UBEPAVQMetaObject@@XZ 004152b8 f   qt-mt323:qt-mt323.dll
 0001:000142be       ?setNum@QLabel@@UAEXH@Z    004152be f   qt-mt323:qt-mt323.dll
 0001:000142c4       ?setNum@QLabel@@UAEXN@Z    004152c4 f   qt-mt323:qt-mt323.dll
 0001:000142ca       ?setMovie@QLabel@@UAEXABVQMovie@@@Z 004152ca f   qt-mt323:qt-mt323.dll
 0001:000142d0       ?setPicture@QLabel@@UAEXABVQPicture@@@Z 004152d0 f   qt-mt323:qt-mt323.dll
 0001:000142d6       ?setPixmap@QLabel@@UAEXABVQPixmap@@@Z 004152d6 f   qt-mt323:qt-mt323.dll
 0001:000142dc       ?setText@QLabel@@UAEXABVQString@@@Z 004152dc f   qt-mt323:qt-mt323.dll
 0001:000142e2       ?setBuddy@QLabel@@UAEXPAVQWidget@@@Z 004152e2 f   qt-mt323:qt-mt323.dll
 0001:000142e8       ?setAutoResize@QLabel@@UAEX_N@Z 004152e8 f   qt-mt323:qt-mt323.dll
 0001:000142ee       ?setAlignment@QLabel@@UAEXH@Z 004152ee f   qt-mt323:qt-mt323.dll
 0001:000142f4       ?frameChanged@QFrame@@MAEXXZ 004152f4 f   qt-mt323:qt-mt323.dll
 0001:000142fa       ?drawContents@QLabel@@MAEXPAVQPainter@@@Z 004152fa f   qt-mt323:qt-mt323.dll
 0001:00014300       ?fontChange@QLabel@@MAEXABVQFont@@@Z 00415300 f   qt-mt323:qt-mt323.dll
 0001:00014306       ?resizeEvent@QLabel@@MAEXPAVQResizeEvent@@@Z 00415306 f   qt-mt323:qt-mt323.dll
 0001:0001430c       ?heightForWidth@QLabel@@UBEHH@Z 0041530c f   qt-mt323:qt-mt323.dll
 0001:00014312       ?minimumSizeHint@QLabel@@UBE?AVQSize@@XZ 00415312 f   qt-mt323:qt-mt323.dll
 0001:00014318       ?sizeHint@QLabel@@UBE?AVQSize@@XZ 00415318 f   qt-mt323:qt-mt323.dll
 0001:0001431e       ?setFont@QLabel@@UAEXABVQFont@@@Z 0041531e f   qt-mt323:qt-mt323.dll
 0001:00014324       ?qt_property@QLabel@@UAE_NHHPAVQVariant@@@Z 00415324 f   qt-mt323:qt-mt323.dll
 0001:0001432a       ?qt_emit@QLabel@@UAE_NHPAUQUObject@@@Z 0041532a f   qt-mt323:qt-mt323.dll
 0001:00014330       ?qt_invoke@QLabel@@UAE_NHPAUQUObject@@@Z 00415330 f   qt-mt323:qt-mt323.dll
 0001:00014336       ?qt_cast@QLabel@@UAEPAXPBD@Z 00415336 f   qt-mt323:qt-mt323.dll
 0001:0001433c       ?className@QLabel@@UBEPBDXZ 0041533c f   qt-mt323:qt-mt323.dll
 0001:00014342       ?metaObject@QLabel@@UBEPAVQMetaObject@@XZ 00415342 f   qt-mt323:qt-mt323.dll
 0001:00014348       ?qt_cast@QDialog@@UAEPAXPBD@Z 00415348 f   qt-mt323:qt-mt323.dll
 0001:0001434e       ?qt_invoke@QDialog@@UAE_NHPAUQUObject@@@Z 0041534e f   qt-mt323:qt-mt323.dll
 0001:00014354       ?qt_emit@QDialog@@UAE_NHPAUQUObject@@@Z 00415354 f   qt-mt323:qt-mt323.dll
 0001:0001435a       ?qt_property@QDialog@@UAE_NHHPAVQVariant@@@Z 0041535a f   qt-mt323:qt-mt323.dll
 0001:000143e0       ??0QWidgetFactory@@QAE@XZ  004153e0 f   qui:qwidgetfactory.obj
 0001:00014482       ??0QWidgetFactoryPrivate@@QAE@XZ 00415482 f i qui:qwidgetfactory.obj
 0001:000144b8       ??_GQWidgetFactory@@UAEPAXI@Z 004154b8 f i qui:qwidgetfactory.obj
 0001:000144b8       ??_EQWidgetFactory@@UAEPAXI@Z 004154b8 f i qui:qwidgetfactory.obj
 0001:000144d4       ??1QWidgetFactory@@UAE@XZ  004154d4 f   qui:qwidgetfactory.obj
 0001:0001458b       ??_GQSqlCursor@@UAEPAXI@Z  0041558b f i qui:qwidgetfactory.obj
 0001:0001458b       ??_EQSqlCursor@@UAEPAXI@Z  0041558b f i qui:qwidgetfactory.obj
 0001:000145a8       ?createWidget@QWidgetFactory@@UBEPAVQWidget@@ABVQString@@PAV2@PBD@Z 004155a8 f   qui:qwidgetfactory.obj
 0001:0001535d       ??_EQPushButton@@UAEPAXI@Z 0041635d f i qui:qwidgetfactory.obj
 0001:0001535d       ??_GQPushButton@@UAEPAXI@Z 0041635d f i qui:qwidgetfactory.obj
 0001:0001537a       ??_EQToolButton@@UAEPAXI@Z 0041637a f i qui:qwidgetfactory.obj
 0001:0001537a       ??_GQToolButton@@UAEPAXI@Z 0041637a f i qui:qwidgetfactory.obj
 0001:00015397       ??_GQCheckBox@@UAEPAXI@Z   00416397 f i qui:qwidgetfactory.obj
 0001:00015397       ??_EQCheckBox@@UAEPAXI@Z   00416397 f i qui:qwidgetfactory.obj
 0001:00015397       ??_EQRadioButton@@UAEPAXI@Z 00416397 f i qui:qwidgetfactory.obj
 0001:00015397       ??_GQRadioButton@@UAEPAXI@Z 00416397 f i qui:qwidgetfactory.obj
 0001:000153b4       ??_GQGroupBox@@UAEPAXI@Z   004163b4 f i qui:qwidgetfactory.obj
 0001:000153b4       ??_EQGroupBox@@UAEPAXI@Z   004163b4 f i qui:qwidgetfactory.obj
 0001:000153d1       ??_GQButtonGroup@@UAEPAXI@Z 004163d1 f i qui:qwidgetfactory.obj
 0001:000153d1       ??_EQButtonGroup@@UAEPAXI@Z 004163d1 f i qui:qwidgetfactory.obj
 0001:000153ee       ??_GQIconView@@UAEPAXI@Z   004163ee f i qui:qwidgetfactory.obj
 0001:000153ee       ??_EQIconView@@UAEPAXI@Z   004163ee f i qui:qwidgetfactory.obj
 0001:0001540b       ??_GQTable@@UAEPAXI@Z      0041640b f i qui:qwidgetfactory.obj
 0001:0001540b       ??_EQTable@@UAEPAXI@Z      0041640b f i qui:qwidgetfactory.obj
 0001:00015428       ??_GQListView@@UAEPAXI@Z   00416428 f i qui:qwidgetfactory.obj
 0001:00015428       ??_EQListView@@UAEPAXI@Z   00416428 f i qui:qwidgetfactory.obj
 0001:00015445       ??_EQLineEdit@@UAEPAXI@Z   00416445 f i qui:qwidgetfactory.obj
 0001:00015445       ??_GQLineEdit@@UAEPAXI@Z   00416445 f i qui:qwidgetfactory.obj
 0001:00015462       ??_EQSpinBox@@UAEPAXI@Z    00416462 f i qui:qwidgetfactory.obj
 0001:00015462       ??_GQSpinBox@@UAEPAXI@Z    00416462 f i qui:qwidgetfactory.obj
 0001:0001547f       ??_EQMultiLineEdit@@UAEPAXI@Z 0041647f f i qui:qwidgetfactory.obj
 0001:0001547f       ??_GQMultiLineEdit@@UAEPAXI@Z 0041647f f i qui:qwidgetfactory.obj
 0001:0001549c       ??_GQTabWidget@@UAEPAXI@Z  0041649c f i qui:qwidgetfactory.obj
 0001:0001549c       ??_EQTabWidget@@UAEPAXI@Z  0041649c f i qui:qwidgetfactory.obj
 0001:000154b9       ??_EQComboBox@@UAEPAXI@Z   004164b9 f i qui:qwidgetfactory.obj
 0001:000154b9       ??_GQComboBox@@UAEPAXI@Z   004164b9 f i qui:qwidgetfactory.obj
 0001:000154d6       ??_EQDialog@@UAEPAXI@Z     004164d6 f i qui:qwidgetfactory.obj
 0001:000154d6       ??_GQDialog@@UAEPAXI@Z     004164d6 f i qui:qwidgetfactory.obj
 0001:000154f3       ??_GQWizard@@UAEPAXI@Z     004164f3 f i qui:qwidgetfactory.obj
 0001:000154f3       ??_EQWizard@@UAEPAXI@Z     004164f3 f i qui:qwidgetfactory.obj
 0001:00015510       ??_GQLCDNumber@@UAEPAXI@Z  00416510 f i qui:qwidgetfactory.obj
 0001:00015510       ??_EQLCDNumber@@UAEPAXI@Z  00416510 f i qui:qwidgetfactory.obj
 0001:0001552d       ??_EQProgressBar@@UAEPAXI@Z 0041652d f i qui:qwidgetfactory.obj
 0001:0001552d       ??_GQProgressBar@@UAEPAXI@Z 0041652d f i qui:qwidgetfactory.obj
 0001:00015558       ??_EQTextView@@UAEPAXI@Z   00416558 f i qui:qwidgetfactory.obj
 0001:00015558       ??_GQTextView@@UAEPAXI@Z   00416558 f i qui:qwidgetfactory.obj
 0001:00015575       ??_EQTextBrowser@@UAEPAXI@Z 00416575 f i qui:qwidgetfactory.obj
 0001:00015575       ??_GQTextBrowser@@UAEPAXI@Z 00416575 f i qui:qwidgetfactory.obj
 0001:00015592       ??_EQDial@@UAEPAXI@Z       00416592 f i qui:qwidgetfactory.obj
 0001:00015592       ??_GQDial@@UAEPAXI@Z       00416592 f i qui:qwidgetfactory.obj
 0001:000155af       ??_GQSlider@@UAEPAXI@Z     004165af f i qui:qwidgetfactory.obj
 0001:000155af       ??_EQSlider@@UAEPAXI@Z     004165af f i qui:qwidgetfactory.obj
 0001:000155cc       ??_GQSplitter@@UAEPAXI@Z   004165cc f i qui:qwidgetfactory.obj
 0001:000155cc       ??_EQSplitter@@UAEPAXI@Z   004165cc f i qui:qwidgetfactory.obj
 0001:000155e9       ??_GQTextEdit@@UAEPAXI@Z   004165e9 f i qui:qwidgetfactory.obj
 0001:000155e9       ??_EQTextEdit@@UAEPAXI@Z   004165e9 f i qui:qwidgetfactory.obj
 0001:00015606       ??_GQDateEdit@@UAEPAXI@Z   00416606 f i qui:qwidgetfactory.obj
 0001:00015606       ??_EQDateEdit@@UAEPAXI@Z   00416606 f i qui:qwidgetfactory.obj
 0001:00015623       ??_EQTimeEdit@@UAEPAXI@Z   00416623 f i qui:qwidgetfactory.obj
 0001:00015623       ??_GQTimeEdit@@UAEPAXI@Z   00416623 f i qui:qwidgetfactory.obj
 0001:00015640       ??_EQDateTimeEdit@@UAEPAXI@Z 00416640 f i qui:qwidgetfactory.obj
 0001:00015640       ??_GQDateTimeEdit@@UAEPAXI@Z 00416640 f i qui:qwidgetfactory.obj
 0001:0001565d       ??_GQScrollBar@@UAEPAXI@Z  0041665d f i qui:qwidgetfactory.obj
 0001:0001565d       ??_EQScrollBar@@UAEPAXI@Z  0041665d f i qui:qwidgetfactory.obj
 0001:0001567a       ??_EQWidgetStack@@UAEPAXI@Z 0041667a f i qui:qwidgetfactory.obj
 0001:0001567a       ??_GQWidgetStack@@UAEPAXI@Z 0041667a f i qui:qwidgetfactory.obj
 0001:00015697       ??_GQToolBox@@UAEPAXI@Z    00416697 f i qui:qwidgetfactory.obj
 0001:00015697       ??_EQToolBox@@UAEPAXI@Z    00416697 f i qui:qwidgetfactory.obj
 0001:000156b4       ??_EQVBox@@UAEPAXI@Z       004166b4 f i qui:qwidgetfactory.obj
 0001:000156b4       ??_EQHBox@@UAEPAXI@Z       004166b4 f i qui:qwidgetfactory.obj
 0001:000156b4       ??_GQFrame@@UAEPAXI@Z      004166b4 f i qui:qwidgetfactory.obj
 0001:000156b4       ??_GQHBox@@UAEPAXI@Z       004166b4 f i qui:qwidgetfactory.obj
 0001:000156b4       ??_GQWidget@@UAEPAXI@Z     004166b4 f i qui:qwidgetfactory.obj
 0001:000156b4       ??_EQFrame@@UAEPAXI@Z      004166b4 f i qui:qwidgetfactory.obj
 0001:000156b4       ??_EQWidget@@UAEPAXI@Z     004166b4 f i qui:qwidgetfactory.obj
 0001:000156b4       ??_GQVBox@@UAEPAXI@Z       004166b4 f i qui:qwidgetfactory.obj
 0001:000156d1       ??_EQMainWindow@@UAEPAXI@Z 004166d1 f i qui:qwidgetfactory.obj
 0001:000156d1       ??_GQMainWindow@@UAEPAXI@Z 004166d1 f i qui:qwidgetfactory.obj
 0001:000156ee       ??_GQDataTable@@UAEPAXI@Z  004166ee f i qui:qwidgetfactory.obj
 0001:000156ee       ??_EQDataTable@@UAEPAXI@Z  004166ee f i qui:qwidgetfactory.obj
 0001:0001570b       ??1Field@QWidgetFactory@@QAE@XZ 0041670b f i qui:qwidgetfactory.obj
 0001:0001572a       ??0?$QValueList@UImage@QWidgetFactory@@@@QAE@XZ 0041672a f i qui:qwidgetfactory.obj
 0001:0001574a       ??0?$QMap@VQString@@VQStringList@@@@QAE@XZ 0041674a f i qui:qwidgetfactory.obj
 0001:0001576a       ??1?$QMap@VQString@@VQStringList@@@@QAE@XZ 0041676a f i qui:qwidgetfactory.obj
 0001:00015787       ??0?$QMap@PAVQWidget@@USqlWidgetConnection@QWidgetFactory@@@@QAE@XZ 00416787 f i qui:qwidgetfactory.obj
 0001:000157a7       ??1?$QMap@PAVQWidget@@USqlWidgetConnection@QWidgetFactory@@@@QAE@XZ 004167a7 f i qui:qwidgetfactory.obj
 0001:000157c4       ??0?$QMap@PAVQTable@@V?$QValueList@UField@QWidgetFactory@@@@@@QAE@XZ 004167c4 f i qui:qwidgetfactory.obj
 0001:000157e4       ??1?$QMap@PAVQTable@@V?$QValueList@UField@QWidgetFactory@@@@@@QAE@XZ 004167e4 f i qui:qwidgetfactory.obj
 0001:00015801       ?count@?$QPtrList@VsignalConnection@@@@UBEIXZ 00416801 f i qui:qwidgetfactory.obj
 0001:00015801       ?count@?$QPtrList@VQAction@@@@UBEIXZ 00416801 f i qui:qwidgetfactory.obj
 0001:00015801       ?count@?$QPtrList@VQWidgetFactory@@@@UBEIXZ 00416801 f i qui:qwidgetfactory.obj
 0001:00015801       ?count@?$QPtrList@VQString@@@@UBEIXZ 00416801 f i qui:qwidgetfactory.obj
 0001:00015805       ??1?$QDict@_N@@UAE@XZ      00416805 f i qui:qwidgetfactory.obj
 0001:0001581e       ?count@?$QDict@VQWidget@@@@UBEIXZ 0041681e f i qui:qwidgetfactory.obj
 0001:0001581e       ?count@?$QDict@_N@@UBEIXZ  0041681e f i qui:qwidgetfactory.obj
 0001:0001581e       ?count@?$QDict@VCAppItem@@@@UBEIXZ 0041681e f i qui:qwidgetfactory.obj
 0001:0001581e       ?count@?$QDict@VCExtProcess@@@@UBEIXZ 0041681e f i qui:qwidgetfactory.obj
 0001:00015822       ?clear@?$QDict@VCExtProcess@@@@UAEXXZ 00416822 f i qui:qwidgetfactory.obj
 0001:00015822       ?clear@?$QDict@VQWidget@@@@UAEXXZ 00416822 f i qui:qwidgetfactory.obj
 0001:00015822       ?clear@?$QDict@VCAppItem@@@@UAEXXZ 00416822 f i qui:qwidgetfactory.obj
 0001:00015822       ?clear@?$QDict@_N@@UAEXXZ  00416822 f i qui:qwidgetfactory.obj
 0001:00015828       ??0?$QValueList@UField@QWidgetFactory@@@@QAE@XZ 00416828 f i qui:qwidgetfactory.obj
 0001:00015848       ??_G?$QPtrList@VQAction@@@@UAEPAXI@Z 00416848 f i qui:qwidgetfactory.obj
 0001:00015848       ??_E?$QPtrList@VQAction@@@@UAEPAXI@Z 00416848 f i qui:qwidgetfactory.obj
 0001:00015873       ??_G?$QDict@_N@@UAEPAXI@Z  00416873 f i qui:qwidgetfactory.obj
 0001:00015873       ??_E?$QDict@_N@@UAEPAXI@Z  00416873 f i qui:qwidgetfactory.obj
 0001:0001589e       ??_E?$QPtrList@VQWidgetFactory@@@@UAEPAXI@Z 0041689e f i qui:qwidgetfactory.obj
 0001:0001589e       ??_G?$QPtrList@VQWidgetFactory@@@@UAEPAXI@Z 0041689e f i qui:qwidgetfactory.obj
 0001:000158c9       ??1?$QMapPrivate@VQString@@VQStringList@@@@QAE@XZ 004168c9 f i qui:qwidgetfactory.obj
 0001:000158e1       ??1?$QMapPrivate@PAVQWidget@@USqlWidgetConnection@QWidgetFactory@@@@QAE@XZ 004168e1 f i qui:qwidgetfactory.obj
 0001:000158f9       ??1?$QMapPrivate@PAVQTable@@V?$QValueList@UField@QWidgetFactory@@@@@@QAE@XZ 004168f9 f i qui:qwidgetfactory.obj
 0001:00015919       ??_G?$QMapNode@VQString@@VQStringList@@@@QAEPAXI@Z 00416919 f i qui:qwidgetfactory.obj
 0001:00015941       ??_G?$QMapNode@PAVQWidget@@USqlWidgetConnection@QWidgetFactory@@@@QAEPAXI@Z 00416941 f i qui:qwidgetfactory.obj
 0001:0001596e       ?deleteItem@?$QDict@VCExtProcess@@@@EAEXPAX@Z 0041696e f i qui:qwidgetfactory.obj
 0001:0001596e       ?deleteItem@?$QPtrList@VQAction@@@@EAEXPAX@Z 0041696e f i qui:qwidgetfactory.obj
 0001:0001596e       ?deleteItem@?$QDict@VQWidget@@@@EAEXPAX@Z 0041696e f i qui:qwidgetfactory.obj
 0001:00015986       ?deleteItem@?$QDict@_N@@EAEXPAX@Z 00416986 f i qui:qwidgetfactory.obj
 0001:00015999       ??0?$QValueListPrivate@UImage@QWidgetFactory@@@@QAE@XZ 00416999 f i qui:qwidgetfactory.obj
 0001:000159d7       ??0?$QMapPrivate@VQString@@VQStringList@@@@QAE@XZ 004169d7 f i qui:qwidgetfactory.obj
 0001:00015a2b       ?clear@?$QMapPrivate@VQString@@VQStringList@@@@QAEXXZ 00416a2b f i qui:qwidgetfactory.obj
 0001:00015a5a       ??0?$QMapPrivate@PAVQWidget@@USqlWidgetConnection@QWidgetFactory@@@@QAE@XZ 00416a5a f i qui:qwidgetfactory.obj
 0001:00015ab2       ?clear@?$QMapPrivate@PAVQWidget@@USqlWidgetConnection@QWidgetFactory@@@@QAEXXZ 00416ab2 f i qui:qwidgetfactory.obj
 0001:00015ae1       ??0?$QMapPrivate@PAVQTable@@V?$QValueList@UField@QWidgetFactory@@@@@@QAE@XZ 00416ae1 f i qui:qwidgetfactory.obj
 0001:00015b2b       ?clear@?$QMapPrivate@PAVQTable@@V?$QValueList@UField@QWidgetFactory@@@@@@QAEXXZ 00416b2b f i qui:qwidgetfactory.obj
 0001:00015b5a       ??0?$QValueListPrivate@UField@QWidgetFactory@@@@QAE@XZ 00416b5a f i qui:qwidgetfactory.obj
 0001:00015ba5       ??0Field@QWidgetFactory@@QAE@XZ 00416ba5 f i qui:qwidgetfactory.obj
 0001:00015bc4       ??_G?$QValueListPrivate@UImage@QWidgetFactory@@@@UAEPAXI@Z 00416bc4 f i qui:qwidgetfactory.obj
 0001:00015bc4       ??_E?$QValueListPrivate@UImage@QWidgetFactory@@@@UAEPAXI@Z 00416bc4 f i qui:qwidgetfactory.obj
 0001:00015be0       ??1?$QValueListPrivate@UImage@QWidgetFactory@@@@UAE@XZ 00416be0 f i qui:qwidgetfactory.obj
 0001:00015c18       ??_E?$QValueListPrivate@UField@QWidgetFactory@@@@UAEPAXI@Z 00416c18 f i qui:qwidgetfactory.obj
 0001:00015c18       ??_G?$QValueListPrivate@UField@QWidgetFactory@@@@UAEPAXI@Z 00416c18 f i qui:qwidgetfactory.obj
 0001:00015c34       ??1?$QValueListPrivate@UField@QWidgetFactory@@@@UAE@XZ 00416c34 f i qui:qwidgetfactory.obj
 0001:00015c6c       ??_G?$QValueListNode@UImage@QWidgetFactory@@@@UAEPAXI@Z 00416c6c f i qui:qwidgetfactory.obj
 0001:00015c6c       ??_E?$QValueListNode@UImage@QWidgetFactory@@@@UAEPAXI@Z 00416c6c f i qui:qwidgetfactory.obj
 0001:00015c88       ??1?$QValueListNode@UImage@QWidgetFactory@@@@UAE@XZ 00416c88 f i qui:qwidgetfactory.obj
 0001:00015ca5       ??0?$QValueListNode@UImage@QWidgetFactory@@@@QAE@XZ 00416ca5 f i qui:qwidgetfactory.obj
 0001:00015cc8       ??_E?$QValueListNode@UField@QWidgetFactory@@@@UAEPAXI@Z 00416cc8 f i qui:qwidgetfactory.obj
 0001:00015cc8       ??_G?$QValueListNode@UField@QWidgetFactory@@@@UAEPAXI@Z 00416cc8 f i qui:qwidgetfactory.obj
 0001:00015ced       ?clear@?$QMapPrivate@VQString@@VQStringList@@@@QAEXPAU?$QMapNode@VQString@@VQStringList@@@@@Z 00416ced f i qui:qwidgetfactory.obj
 0001:00015d1f       ?clear@?$QMapPrivate@PAVQWidget@@USqlWidgetConnection@QWidgetFactory@@@@QAEXPAU?$QMapNode@PAVQWidget@@USqlWidgetConnection@QWidgetFactory@@@@@Z 00416d1f f i qui:qwidgetfactory.obj
 0001:00015d51       ?clear@?$QMapPrivate@PAVQTable@@V?$QValueList@UField@QWidgetFactory@@@@@@QAEXPAU?$QMapNode@PAVQTable@@V?$QValueList@UField@QWidgetFactory@@@@@@@Z 00416d51 f i qui:qwidgetfactory.obj
 0001:00015d89       ??_EQTimeEdit@@WCI@AEPAXI@Z 00416d89 f i qui:qwidgetfactory.obj
 0001:00015d91       ??_EQSpinBox@@WCI@AEPAXI@Z 00416d91 f i qui:qwidgetfactory.obj
 0001:00015d99       ??_EQSpinBox@@WGM@AEPAXI@Z 00416d99 f i qui:qwidgetfactory.obj
 0001:00015da1       ??_EQGroupBox@@WCI@AEPAXI@Z 00416da1 f i qui:qwidgetfactory.obj
 0001:00015da9       ??_EQLineEdit@@WCI@AEPAXI@Z 00416da9 f i qui:qwidgetfactory.obj
 0001:00015db1       ??_EQToolButton@@WCI@AEPAXI@Z 00416db1 f i qui:qwidgetfactory.obj
 0001:00015db9       ??_EQDateEdit@@WCI@AEPAXI@Z 00416db9 f i qui:qwidgetfactory.obj
 0001:00015dc1       ??_EQListView@@WCI@AEPAXI@Z 00416dc1 f i qui:qwidgetfactory.obj
 0001:00015dc9       ??_EQTable@@WCI@AEPAXI@Z   00416dc9 f i qui:qwidgetfactory.obj
 0001:00015dd1       ??_EQDataTable@@WCI@AEPAXI@Z 00416dd1 f i qui:qwidgetfactory.obj
 0001:00015dd9       ??_EQSqlCursor@@W7AEPAXI@Z 00416dd9 f i qui:qwidgetfactory.obj
 0001:00015de1       ?value@QSqlCursor@@W7BE?AVQVariant@@H@Z 00416de1 f i qui:qwidgetfactory.obj
 0001:00015dea       ??_EQDialog@@WCI@AEPAXI@Z  00416dea f i qui:qwidgetfactory.obj
 0001:00015df2       ??_EQWizard@@WCI@AEPAXI@Z  00416df2 f i qui:qwidgetfactory.obj
 0001:00015dfa       ??_EQScrollBar@@WCI@AEPAXI@Z 00416dfa f i qui:qwidgetfactory.obj
 0001:00015e02       ??_EQScrollBar@@WGM@AEPAXI@Z 00416e02 f i qui:qwidgetfactory.obj
 0001:00015e0a       ??_EQSplitter@@WCI@AEPAXI@Z 00416e0a f i qui:qwidgetfactory.obj
 0001:00015e12       ??_EQSlider@@WCI@AEPAXI@Z  00416e12 f i qui:qwidgetfactory.obj
 0001:00015e1a       ??_EQSlider@@WGM@AEPAXI@Z  00416e1a f i qui:qwidgetfactory.obj
 0001:00015e22       ??_EQProgressBar@@WCI@AEPAXI@Z 00416e22 f i qui:qwidgetfactory.obj
 0001:00015e2a       ??_EQHBox@@WCI@AEPAXI@Z    00416e2a f i qui:qwidgetfactory.obj
 0001:00015e2a       ??_EQVBox@@WCI@AEPAXI@Z    00416e2a f i qui:qwidgetfactory.obj
 0001:00015e2a       ??_EQFrame@@WCI@AEPAXI@Z   00416e2a f i qui:qwidgetfactory.obj
 0001:00015e2a       ??_EQWidget@@WCI@AEPAXI@Z  00416e2a f i qui:qwidgetfactory.obj
 0001:00015e32       ??_EQDateTimeEdit@@WCI@AEPAXI@Z 00416e32 f i qui:qwidgetfactory.obj
 0001:00015e3a       ??_EQTextEdit@@WCI@AEPAXI@Z 00416e3a f i qui:qwidgetfactory.obj
 0001:00015e42       ??_EQTextBrowser@@WCI@AEPAXI@Z 00416e42 f i qui:qwidgetfactory.obj
 0001:00015e4a       ??_EQMainWindow@@WCI@AEPAXI@Z 00416e4a f i qui:qwidgetfactory.obj
 0001:00015e52       ??_EQWidgetStack@@WCI@AEPAXI@Z 00416e52 f i qui:qwidgetfactory.obj
 0001:00015e5a       ??_EQTabWidget@@WCI@AEPAXI@Z 00416e5a f i qui:qwidgetfactory.obj
 0001:00015e62       ??_EQCheckBox@@WCI@AEPAXI@Z 00416e62 f i qui:qwidgetfactory.obj
 0001:00015e62       ??_EQRadioButton@@WCI@AEPAXI@Z 00416e62 f i qui:qwidgetfactory.obj
 0001:00015e6a       ??_EQToolBox@@WCI@AEPAXI@Z 00416e6a f i qui:qwidgetfactory.obj
 0001:00015e72       ??_EQLCDNumber@@WCI@AEPAXI@Z 00416e72 f i qui:qwidgetfactory.obj
 0001:00015e7a       ??_EQIconView@@WCI@AEPAXI@Z 00416e7a f i qui:qwidgetfactory.obj
 0001:00015e82       ??_EQDial@@WCI@AEPAXI@Z    00416e82 f i qui:qwidgetfactory.obj
 0001:00015e8a       ??_EQDial@@WGM@AEPAXI@Z    00416e8a f i qui:qwidgetfactory.obj
 0001:00015e92       ??_EQButtonGroup@@WCI@AEPAXI@Z 00416e92 f i qui:qwidgetfactory.obj
 0001:00015e9a       ??_EQMultiLineEdit@@WCI@AEPAXI@Z 00416e9a f i qui:qwidgetfactory.obj
 0001:00015ea2       ??_EQTextView@@WCI@AEPAXI@Z 00416ea2 f i qui:qwidgetfactory.obj
 0001:00015eaa       ??_EQPushButton@@WCI@AEPAXI@Z 00416eaa f i qui:qwidgetfactory.obj
 0001:00015eb2       ??_EQComboBox@@WCI@AEPAXI@Z 00416eb2 f i qui:qwidgetfactory.obj
 0001:00015eba       ??0DatabaseSupport2@@QAE@XZ 00416eba f   qui:database.obj
 0001:00015ee4       ??_EDatabaseSupport2@@UAEPAXI@Z 00416ee4 f i qui:database.obj
 0001:00015ee4       ??_GDatabaseSupport2@@UAEPAXI@Z 00416ee4 f i qui:database.obj
 0001:00015f13       ??0QDesignerDataBrowser2@@QAE@PAVQWidget@@PBD@Z 00416f13 f   qui:database.obj
 0001:00015f4b       ?metaObject@QDesignerDataBrowser2@@UBEPAVQMetaObject@@XZ 00416f4b f i qui:database.obj
 0001:00015f50       ??_GQDesignerDataBrowser2@@UAEPAXI@Z 00416f50 f i qui:database.obj
 0001:00015f50       ??_EQDesignerDataBrowser2@@UAEPAXI@Z 00416f50 f i qui:database.obj
 0001:00015f6c       ??1QDesignerDataBrowser2@@UAE@XZ 00416f6c f i qui:database.obj
 0001:00015f9e       ?event@QDesignerDataBrowser2@@MAE_NPAVQEvent@@@Z 00416f9e f   qui:database.obj
 0001:0001601e       ??0QDesignerDataView2@@QAE@PAVQWidget@@PBD@Z 0041701e f   qui:database.obj
 0001:00016056       ?metaObject@QDesignerDataView2@@UBEPAVQMetaObject@@XZ 00417056 f i qui:database.obj
 0001:0001605b       ??_GQDesignerDataView2@@UAEPAXI@Z 0041705b f i qui:database.obj
 0001:0001605b       ??_EQDesignerDataView2@@UAEPAXI@Z 0041705b f i qui:database.obj
 0001:00016077       ??1QDesignerDataView2@@UAE@XZ 00417077 f i qui:database.obj
 0001:000160a9       ?event@QDesignerDataView2@@MAE_NPAVQEvent@@@Z 004170a9 f   qui:database.obj
 0001:000160dc       ??_EQDesignerDataView2@@WCI@AEPAXI@Z 004170dc f i qui:database.obj
 0001:000160e4       ??_EQDesignerDataView2@@WHA@AEPAXI@Z 004170e4 f i qui:database.obj
 0001:000160ec       ??_EQDesignerDataBrowser2@@WCI@AEPAXI@Z 004170ec f i qui:database.obj
 0001:000160f4       ??_EQDesignerDataBrowser2@@WHA@AEPAXI@Z 004170f4 f i qui:database.obj
 0001:000160fc       ?className@QDesignerDataBrowser2@@UBEPBDXZ 004170fc f   qui:moc_database2.obj
 0001:00016139       ?staticMetaObject@QDesignerDataBrowser2@@SAPAVQMetaObject@@XZ 00417139 f   qui:moc_database2.obj
 0001:00016180       ?qt_cast@QDesignerDataBrowser2@@UAEPAXPBD@Z 00417180 f   qui:moc_database2.obj
 0001:000161eb       ?qt_invoke@QDesignerDataBrowser2@@UAE_NHPAUQUObject@@@Z 004171eb f   qui:moc_database2.obj
 0001:000161fc       ?qt_emit@QDesignerDataBrowser2@@UAE_NHPAUQUObject@@@Z 004171fc f   qui:moc_database2.obj
 0001:0001620d       ?qt_property@QDesignerDataBrowser2@@UAE_NHHPAVQVariant@@@Z 0041720d f   qui:moc_database2.obj
 0001:00016222       ?className@QDesignerDataView2@@UBEPBDXZ 00417222 f   qui:moc_database2.obj
 0001:0001625f       ?staticMetaObject@QDesignerDataView2@@SAPAVQMetaObject@@XZ 0041725f f   qui:moc_database2.obj
 0001:000162a6       ?qt_cast@QDesignerDataView2@@UAEPAXPBD@Z 004172a6 f   qui:moc_database2.obj
 0001:00016311       ?qt_invoke@QDesignerDataView2@@UAE_NHPAUQUObject@@@Z 00417311 f   qui:moc_database2.obj
 0001:00016322       ?qt_emit@QDesignerDataView2@@UAE_NHPAUQUObject@@@Z 00417322 f   qui:moc_database2.obj
 0001:00016333       ?qt_property@QDesignerDataView2@@UAE_NHHPAVQVariant@@@Z 00417333 f   qui:moc_database2.obj
 0001:00016348       ??1dCW@@UAE@XZ             00417348 f   dcw:dcw.dll
 0001:0001634e       ?create@dCW@@QAEPAVQWidget@@ABVQString@@PAVQObject@@PAV2@PBD_N4NN44@Z 0041734e f   dcw:dcw.dll
 0001:00016354       ??0dCW@@QAE@XZ             00417354 f   dcw:dcw.dll
 0001:0001635a       ?clearCache@dCW@@SAXXZ     0041735a f   dcw:dcw.dll
 0001:00016360       ?infoWrite@ccClient@@QAEXHHABV?$basic_string@DU?$char_traits@D@std@@V?$allocator@D@2@@std@@_N@Z 00417360 f   bncs_shim_loader:bncs_shim_loader.dll
 0001:00016366       ?cacheEnable@ccClient@@QAEX_N@Z 00417366 f   bncs_shim_loader:bncs_shim_loader.dll
 0001:0001636c       ?isCacheEnabled@ccClient@@QAE_NXZ 0041736c f   bncs_shim_loader:bncs_shim_loader.dll
 0001:00016380       ??0bncs_disklog@@QAE@PBDW4filetype@0@000000@Z 00417380 f   bncs_disklog:bncs_disklog.obj
 0001:000163d0       ??_Ebncs_disklog@@UAEPAXI@Z 004173d0 f i bncs_disklog:bncs_disklog.obj
 0001:000163d0       ??_Gbncs_disklog@@UAEPAXI@Z 004173d0 f i bncs_disklog:bncs_disklog.obj
 0001:000163f0       ?initVars@bncs_disklog@@AAEXXZ 004173f0 f   bncs_disklog:bncs_disklog.obj
 0001:00016400       ?openLogFile@bncs_disklog@@AAEXPBDW4filetype@1@@Z 00417400 f   bncs_disklog:bncs_disklog.obj
 0001:00016610       ?cleanup@bncs_disklog@@AAEXXZ 00417610 f   bncs_disklog:bncs_disklog.obj
 0001:00016630       ??1bncs_disklog@@UAE@XZ    00417630 f   bncs_disklog:bncs_disklog.obj
 0001:00016640       ?write@bncs_disklog@@QAEXPBD00000@Z 00417640 f   bncs_disklog:bncs_disklog.obj
 0001:00016870       ?createDirectory@bncs_disklog@@AAEXPBD@Z 00417870 f   bncs_disklog:bncs_disklog.obj
 0001:00016990       ??0cBncsVersion@@QAE@PBD@Z 00417990 f   bncsversioninfo:cBncsVersion.obj
 0001:00016ea0       ??_EcBncsVersion@@UAEPAXI@Z 00417ea0 f i bncsversioninfo:cBncsVersion.obj
 0001:00016ea0       ??_GcBncsVersion@@UAEPAXI@Z 00417ea0 f i bncsversioninfo:cBncsVersion.obj
 0001:00016ec0       ??1cBncsVersion@@UAE@XZ    00417ec0 f   bncsversioninfo:cBncsVersion.obj
 0001:00016fd7       ?staticMetaObject@config_mb4@@SAPAVQMetaObject@@XZ 00417fd7 f   cfg_widgets001:moc_config_mb4impl.obj
 0001:0001704b       ??3@YAXPAX@Z               0041804b f   msvcprt:delop_s.obj
 0001:00017056       ___CxxFrameHandler         00418056 f   MSVCRT:MSVCRT.dll
 0001:00017060       __EH_prolog                00418060 f   MSVCRT:ehprolog.obj
 0001:00017080       _getenv                    00418080 f   MSVCRT:MSVCRT.dll
 0001:00017086       ??2@YAPAXI@Z               00418086 f   MSVCRT:MSVCRT.dll
 0001:0001708c       _strcpy                    0041808c f   MSVCRT:MSVCRT.dll
 0001:00017092       ??_M@YGXPAXIHP6EX0@Z@Z     00418092 f   MSVCRT:ehvecdtr.obj
 0001:00017112       ?__ArrayUnwind@@YGXPAXIHP6EX0@Z@Z 00418112 f   MSVCRT:ehvecdtr.obj
 0001:00017186       _strlen                    00418186 f   MSVCRT:MSVCRT.dll
 0001:0001718c       _sprintf                   0041818c f   MSVCRT:MSVCRT.dll
 0001:00017192       __onexit                   00418192 f   MSVCRT:atonexit.obj
 0001:000171be       _atexit                    004181be f   MSVCRT:atonexit.obj
 0001:000171d0       ??_Gtype_info@@UAEPAXI@Z   004181d0 f i MSVCRT:ti_inst.obj
 0001:000171d0       ??_Etype_info@@UAEPAXI@Z   004181d0 f i MSVCRT:ti_inst.obj
 0001:000171ec       __CxxThrowException@8      004181ec f   MSVCRT:MSVCRT.dll
 0001:000171f2       _memcpy                    004181f2 f   MSVCRT:MSVCRT.dll
 0001:000171f8       _strcmp                    004181f8 f   MSVCRT:MSVCRT.dll
 0001:000171fe       _WinMainCRTStartup         004181fe f   MSVCRT:crtexew.obj
 0001:0001735c       _localtime                 0041835c f   MSVCRT:MSVCRT.dll
 0001:00017362       _time                      00418362 f   MSVCRT:MSVCRT.dll
 0001:00017368       _strncpy                   00418368 f   MSVCRT:MSVCRT.dll
 0001:0001736e       __mkdir                    0041836e f   MSVCRT:MSVCRT.dll
 0001:00017374       _strtok                    00418374 f   MSVCRT:MSVCRT.dll
 0001:0001737a       _free                      0041837a f   MSVCRT:MSVCRT.dll
 0001:00017380       _strpbrk                   00418380 f   MSVCRT:MSVCRT.dll
 0001:00017386       _malloc                    00418386 f   MSVCRT:MSVCRT.dll
 0001:0001738c       __except_handler3          0041838c f   MSVCRT:MSVCRT.dll
 0001:00017392       ?terminate@@YAXXZ          00418392 f   MSVCRT:MSVCRT.dll
 0001:00017398       ___dllonexit               00418398 f   MSVCRT:MSVCRT.dll
 0001:0001739e       ??1type_info@@UAE@XZ       0041839e f   MSVCRT:MSVCRT.dll
 0001:000173a4       __XcptFilter               004183a4 f   MSVCRT:MSVCRT.dll
 0001:000173aa       __initterm                 004183aa f   MSVCRT:MSVCRT.dll
 0001:000173b0       __setdefaultprecision      004183b0 f   MSVCRT:fp8.obj
 0001:000173c2       __matherr                  004183c2 f   MSVCRT:merr.obj
 0001:000173c6       __controlfp                004183c6 f   MSVCRT:MSVCRT.dll
 0001:000173cc       _VerQueryValueA@16         004183cc f   version:VERSION.dll
 0001:000173d2       _GetFileVersionInfoA@16    004183d2 f   version:VERSION.dll
 0001:000173d8       _GetFileVersionInfoSizeA@8 004183d8 f   version:VERSION.dll
 0001:000173de       ?afterSeek@QSqlCursor@@MAEXXZ 004183de f   qt-mt323:qt-mt323.dll
 0001:000173e4       ?beforeSeek@QSqlQuery@@MAEXXZ 004183e4 f   qt-mt323:qt-mt323.dll
 0001:000173ea       ?last@QSqlQuery@@UAE_NXZ   004183ea f   qt-mt323:qt-mt323.dll
 0001:000173f0       ?first@QSqlQuery@@UAE_NXZ  004183f0 f   qt-mt323:qt-mt323.dll
 0001:000173f6       ?prev@QSqlQuery@@UAE_NXZ   004183f6 f   qt-mt323:qt-mt323.dll
 0001:000173fc       ?next@QSqlQuery@@UAE_NXZ   004183fc f   qt-mt323:qt-mt323.dll
 0001:00017402       ?seek@QSqlQuery@@UAE_NH_N@Z 00418402 f   qt-mt323:qt-mt323.dll
 0001:00017408       ?exec@QSqlCursor@@MAE_NABVQString@@@Z 00418408 f   qt-mt323:qt-mt323.dll
 0001:0001740e       ?calculateField@QSqlCursor@@MAE?AVQVariant@@ABVQString@@@Z 0041840e f   qt-mt323:qt-mt323.dll
 0001:00017414       ?toString@QSqlCursor@@MBE?AVQString@@ABV2@PAVQSqlField@@0@Z 00418414 f   qt-mt323:qt-mt323.dll
 0001:0001741a       ?toString@QSqlCursor@@MBE?AVQString@@PAVQSqlRecord@@ABV2@11@Z 0041841a f   qt-mt323:qt-mt323.dll
 0001:00017420       ?toString@QSqlCursor@@MBE?AVQString@@ABVQSqlIndex@@PAVQSqlRecord@@ABV2@22@Z 00418420 f   qt-mt323:qt-mt323.dll
 0001:00017426       ?setName@QSqlCursor@@UAEXABVQString@@_N@Z 00418426 f   qt-mt323:qt-mt323.dll
 0001:0001742c       ?setFilter@QSqlCursor@@UAEXABVQString@@@Z 0041842c f   qt-mt323:qt-mt323.dll
 0001:00017432       ?setSort@QSqlCursor@@UAEXABVQSqlIndex@@@Z 00418432 f   qt-mt323:qt-mt323.dll
 0001:00017438       ?select@QSqlCursor@@UAE_NABVQString@@ABVQSqlIndex@@@Z 00418438 f   qt-mt323:qt-mt323.dll
 0001:0001743e       ?setTrimmed@QSqlCursor@@UAEXABVQString@@_N@Z 0041843e f   qt-mt323:qt-mt323.dll
 0001:00017444       ?setCalculated@QSqlCursor@@UAEXABVQString@@_N@Z 00418444 f   qt-mt323:qt-mt323.dll
 0001:0001744a       ?setMode@QSqlCursor@@UAEXH@Z 0041844a f   qt-mt323:qt-mt323.dll
 0001:00017450       ?del@QSqlCursor@@UAEH_N@Z  00418450 f   qt-mt323:qt-mt323.dll
 0001:00017456       ?del@QSqlCursor@@MAEHABVQString@@_N@Z 00418456 f   qt-mt323:qt-mt323.dll
 0001:0001745c       ?update@QSqlCursor@@UAEH_N@Z 0041845c f   qt-mt323:qt-mt323.dll
 0001:00017462       ?update@QSqlCursor@@MAEHABVQString@@_N@Z 00418462 f   qt-mt323:qt-mt323.dll
 0001:00017468       ?primeDelete@QSqlCursor@@UAEPAVQSqlRecord@@XZ 00418468 f   qt-mt323:qt-mt323.dll
 0001:0001746e       ?primeUpdate@QSqlCursor@@UAEPAVQSqlRecord@@XZ 0041846e f   qt-mt323:qt-mt323.dll
 0001:00017474       ?primeInsert@QSqlCursor@@UAEPAVQSqlRecord@@XZ 00418474 f   qt-mt323:qt-mt323.dll
 0001:0001747a       ?editBuffer@QSqlCursor@@UAEPAVQSqlRecord@@_N@Z 0041847a f   qt-mt323:qt-mt323.dll
 0001:00017480       ?insert@QSqlCursor@@UAEXHABVQSqlFieldInfo@@@Z 00418480 f   qt-mt323:qt-mt323.dll
 0001:00017486       ?insert@QSqlCursor@@UAEH_N@Z 00418486 f   qt-mt323:qt-mt323.dll
 0001:0001748c       ?append@QSqlCursor@@UAEXABVQSqlFieldInfo@@@Z 0041848c f   qt-mt323:qt-mt323.dll
 0001:00017492       ?setPrimaryIndex@QSqlCursor@@UAEXABVQSqlIndex@@@Z 00418492 f   qt-mt323:qt-mt323.dll
 0001:00017498       ?index@QSqlCursor@@UBE?AVQSqlIndex@@ABVQStringList@@@Z 00418498 f   qt-mt323:qt-mt323.dll
 0001:0001749e       ?primaryIndex@QSqlCursor@@UBE?AVQSqlIndex@@_N@Z 0041849e f   qt-mt323:qt-mt323.dll
 0001:000174a4       ?toStringList@QSqlRecord@@UBE?AVQStringList@@ABVQString@@@Z 004184a4 f   qt-mt323:qt-mt323.dll
 0001:000174aa       ?toString@QSqlCursor@@UBE?AVQString@@ABV2@0@Z 004184aa f   qt-mt323:qt-mt323.dll
 0001:000174b0       ?clearValues@QSqlRecord@@UAEX_N@Z 004184b0 f   qt-mt323:qt-mt323.dll
 0001:000174b6       ?clear@QSqlCursor@@UAEXXZ  004184b6 f   qt-mt323:qt-mt323.dll
 0001:000174bc       ?remove@QSqlCursor@@UAEXH@Z 004184bc f   qt-mt323:qt-mt323.dll
 0001:000174c2       ?insert@QSqlCursor@@EAEXHABVQSqlField@@@Z 004184c2 f   qt-mt323:qt-mt323.dll
 0001:000174c8       ?append@QSqlCursor@@EAEXABVQSqlField@@@Z 004184c8 f   qt-mt323:qt-mt323.dll
 0001:000174ce       ?setNull@QSqlRecord@@UAEXH@Z 004184ce f   qt-mt323:qt-mt323.dll
 0001:000174d4       ?setNull@QSqlRecord@@UAEXABVQString@@@Z 004184d4 f   qt-mt323:qt-mt323.dll
 0001:000174da       ?setGenerated@QSqlCursor@@UAEXABVQString@@_N@Z 004184da f   qt-mt323:qt-mt323.dll
 0001:000174e0       ?setGenerated@QSqlCursor@@UAEXH_N@Z 004184e0 f   qt-mt323:qt-mt323.dll
 0001:000174e6       ?setValue@QSqlCursor@@UAEXHABVQVariant@@@Z 004184e6 f   qt-mt323:qt-mt323.dll
 0001:000174ec       ?setValue@QSqlCursor@@UAEXABVQString@@ABVQVariant@@@Z 004184ec f   qt-mt323:qt-mt323.dll
 0001:000174f2       ?value@QSqlCursor@@UBE?AVQVariant@@H@Z 004184f2 f   qt-mt323:qt-mt323.dll
 0001:000174f8       ?value@QSqlCursor@@UBE?AVQVariant@@ABVQString@@@Z 004184f8 f   qt-mt323:qt-mt323.dll
 0001:000174fe       ?drawButtonLabel@QCheckBox@@MAEXPAVQPainter@@@Z 004184fe f   qt-mt323:qt-mt323.dll
 0001:00017504       ?drawButton@QCheckBox@@MAEXPAVQPainter@@@Z 00418504 f   qt-mt323:qt-mt323.dll
 0001:0001750a       ?hitButton@QCheckBox@@MBE_NABVQPoint@@@Z 0041850a f   qt-mt323:qt-mt323.dll
 0001:00017510       ?updateMask@QCheckBox@@MAEXXZ 00418510 f   qt-mt323:qt-mt323.dll
 0001:00017516       ?resizeEvent@QCheckBox@@MAEXPAVQResizeEvent@@@Z 00418516 f   qt-mt323:qt-mt323.dll
 0001:0001751c       ?sizeHint@QCheckBox@@UBE?AVQSize@@XZ 0041851c f   qt-mt323:qt-mt323.dll
 0001:00017522       ?qt_property@QCheckBox@@UAE_NHHPAVQVariant@@@Z 00418522 f   qt-mt323:qt-mt323.dll
 0001:00017528       ?qt_emit@QCheckBox@@UAE_NHPAUQUObject@@@Z 00418528 f   qt-mt323:qt-mt323.dll
 0001:0001752e       ?qt_invoke@QCheckBox@@UAE_NHPAUQUObject@@@Z 0041852e f   qt-mt323:qt-mt323.dll
 0001:00017534       ?qt_cast@QCheckBox@@UAEPAXPBD@Z 00418534 f   qt-mt323:qt-mt323.dll
 0001:0001753a       ?className@QCheckBox@@UBEPBDXZ 0041853a f   qt-mt323:qt-mt323.dll
 0001:00017540       ?metaObject@QCheckBox@@UBEPAVQMetaObject@@XZ 00418540 f   qt-mt323:qt-mt323.dll
 0001:00017546       ?setEditText@QComboBox@@UAEXABVQString@@@Z 00418546 f   qt-mt323:qt-mt323.dll
 0001:0001754c       ?popup@QComboBox@@UAEXXZ   0041854c f   qt-mt323:qt-mt323.dll
 0001:00017552       ?setAutoCompletion@QComboBox@@UAEX_N@Z 00418552 f   qt-mt323:qt-mt323.dll
 0001:00017558       ?setLineEdit@QComboBox@@UAEXPAVQLineEdit@@@Z 00418558 f   qt-mt323:qt-mt323.dll
 0001:0001755e       ?setListBox@QComboBox@@UAEXPAVQListBox@@@Z 0041855e f   qt-mt323:qt-mt323.dll
 0001:00017564       ?setValidator@QComboBox@@UAEXPBVQValidator@@@Z 00418564 f   qt-mt323:qt-mt323.dll
 0001:0001756a       ?setInsertionPolicy@QComboBox@@UAEXW4Policy@1@@Z 0041856a f   qt-mt323:qt-mt323.dll
 0001:00017570       ?setMaxCount@QComboBox@@UAEXH@Z 00418570 f   qt-mt323:qt-mt323.dll
 0001:00017576       ?setSizeLimit@QComboBox@@UAEXH@Z 00418576 f   qt-mt323:qt-mt323.dll
 0001:0001757c       ?setAutoResize@QComboBox@@UAEX_N@Z 0041857c f   qt-mt323:qt-mt323.dll
 0001:00017582       ?setCurrentText@QComboBox@@UAEXABVQString@@@Z 00418582 f   qt-mt323:qt-mt323.dll
 0001:00017588       ?setCurrentItem@QComboBox@@UAEXH@Z 00418588 f   qt-mt323:qt-mt323.dll
 0001:0001758e       ?styleChange@QComboBox@@MAEXAAVQStyle@@@Z 0041858e f   qt-mt323:qt-mt323.dll
 0001:00017594       ?updateMask@QComboBox@@MAEXXZ 00418594 f   qt-mt323:qt-mt323.dll
 0001:0001759a       ?resizeEvent@QComboBox@@MAEXPAVQResizeEvent@@@Z 0041859a f   qt-mt323:qt-mt323.dll
 0001:000175a0       ?paintEvent@QComboBox@@MAEXPAVQPaintEvent@@@Z 004185a0 f   qt-mt323:qt-mt323.dll
 0001:000175a6       ?focusOutEvent@QComboBox@@MAEXPAVQFocusEvent@@@Z 004185a6 f   qt-mt323:qt-mt323.dll
 0001:000175ac       ?focusInEvent@QComboBox@@MAEXPAVQFocusEvent@@@Z 004185ac f   qt-mt323:qt-mt323.dll
 0001:000175b2       ?keyPressEvent@QComboBox@@MAEXPAVQKeyEvent@@@Z 004185b2 f   qt-mt323:qt-mt323.dll
 0001:000175b8       ?wheelEvent@QComboBox@@MAEXPAVQWheelEvent@@@Z 004185b8 f   qt-mt323:qt-mt323.dll
 0001:000175be       ?mouseMoveEvent@QComboBox@@MAEXPAVQMouseEvent@@@Z 004185be f   qt-mt323:qt-mt323.dll
 0001:000175c4       ?mouseDoubleClickEvent@QComboBox@@MAEXPAVQMouseEvent@@@Z 004185c4 f   qt-mt323:qt-mt323.dll
 0001:000175ca       ?mouseReleaseEvent@QComboBox@@MAEXPAVQMouseEvent@@@Z 004185ca f   qt-mt323:qt-mt323.dll
 0001:000175d0       ?mousePressEvent@QComboBox@@MAEXPAVQMouseEvent@@@Z 004185d0 f   qt-mt323:qt-mt323.dll
 0001:000175d6       ?sizeHint@QComboBox@@UBE?AVQSize@@XZ 004185d6 f   qt-mt323:qt-mt323.dll
 0001:000175dc       ?setFont@QComboBox@@UAEXABVQFont@@@Z 004185dc f   qt-mt323:qt-mt323.dll
 0001:000175e2       ?setPalette@QComboBox@@UAEXABVQPalette@@@Z 004185e2 f   qt-mt323:qt-mt323.dll
 0001:000175e8       ?setEnabled@QComboBox@@UAEX_N@Z 004185e8 f   qt-mt323:qt-mt323.dll
 0001:000175ee       ?eventFilter@QComboBox@@UAE_NPAVQObject@@PAVQEvent@@@Z 004185ee f   qt-mt323:qt-mt323.dll
 0001:000175f4       ?qt_property@QComboBox@@UAE_NHHPAVQVariant@@@Z 004185f4 f   qt-mt323:qt-mt323.dll
 0001:000175fa       ?qt_emit@QComboBox@@UAE_NHPAUQUObject@@@Z 004185fa f   qt-mt323:qt-mt323.dll
 0001:00017600       ?qt_invoke@QComboBox@@UAE_NHPAUQUObject@@@Z 00418600 f   qt-mt323:qt-mt323.dll
 0001:00017606       ?qt_cast@QComboBox@@UAEPAXPBD@Z 00418606 f   qt-mt323:qt-mt323.dll
 0001:0001760c       ?className@QComboBox@@UBEPBDXZ 0041860c f   qt-mt323:qt-mt323.dll
 0001:00017612       ?metaObject@QComboBox@@UBEPAVQMetaObject@@XZ 00418612 f   qt-mt323:qt-mt323.dll
 0001:00017618       ?setOn@QPushButton@@UAEX_N@Z 00418618 f   qt-mt323:qt-mt323.dll
 0001:0001761e       ?setIsMenuButton@QPushButton@@UAEX_N@Z 0041861e f   qt-mt323:qt-mt323.dll
 0001:00017624       ?setDefault@QPushButton@@UAEX_N@Z 00418624 f   qt-mt323:qt-mt323.dll
 0001:0001762a       ?setAutoDefault@QPushButton@@UAEX_N@Z 0041862a f   qt-mt323:qt-mt323.dll
 0001:00017630       ?drawButtonLabel@QPushButton@@MAEXPAVQPainter@@@Z 00418630 f   qt-mt323:qt-mt323.dll
 0001:00017636       ?drawButton@QPushButton@@MAEXPAVQPainter@@@Z 00418636 f   qt-mt323:qt-mt323.dll
 0001:0001763c       ?updateMask@QPushButton@@MAEXXZ 0041863c f   qt-mt323:qt-mt323.dll
 0001:00017642       ?resizeEvent@QPushButton@@MAEXPAVQResizeEvent@@@Z 00418642 f   qt-mt323:qt-mt323.dll
 0001:00017648       ?focusOutEvent@QPushButton@@MAEXPAVQFocusEvent@@@Z 00418648 f   qt-mt323:qt-mt323.dll
 0001:0001764e       ?focusInEvent@QPushButton@@MAEXPAVQFocusEvent@@@Z 0041864e f   qt-mt323:qt-mt323.dll
 0001:00017654       ?sizeHint@QPushButton@@UBE?AVQSize@@XZ 00418654 f   qt-mt323:qt-mt323.dll
 0001:0001765a       ?setGeometry@QPushButton@@UAEXHHHH@Z 0041865a f   qt-mt323:qt-mt323.dll
 0001:00017660       ?setGeometry@QPushButton@@UAEXABVQRect@@@Z 00418660 f   qt-mt323:qt-mt323.dll
 0001:00017666       ?resize@QPushButton@@UAEXHH@Z 00418666 f   qt-mt323:qt-mt323.dll
 0001:0001766c       ?move@QPushButton@@UAEXHH@Z 0041866c f   qt-mt323:qt-mt323.dll
 0001:00017672       ?qt_property@QPushButton@@UAE_NHHPAVQVariant@@@Z 00418672 f   qt-mt323:qt-mt323.dll
 0001:00017678       ?qt_emit@QPushButton@@UAE_NHPAUQUObject@@@Z 00418678 f   qt-mt323:qt-mt323.dll
 0001:0001767e       ?qt_invoke@QPushButton@@UAE_NHPAUQUObject@@@Z 0041867e f   qt-mt323:qt-mt323.dll
 0001:00017684       ?qt_cast@QPushButton@@UAEPAXPBD@Z 00418684 f   qt-mt323:qt-mt323.dll
 0001:0001768a       ?className@QPushButton@@UBEPBDXZ 0041868a f   qt-mt323:qt-mt323.dll
 0001:00017690       ?metaObject@QPushButton@@UBEPAVQMetaObject@@XZ 00418690 f   qt-mt323:qt-mt323.dll
 0001:00017696       ?qt_property@QTextView@@UAE_NHHPAVQVariant@@@Z 00418696 f   qt-mt323:qt-mt323.dll
 0001:0001769c       ?qt_emit@QTextView@@UAE_NHPAUQUObject@@@Z 0041869c f   qt-mt323:qt-mt323.dll
 0001:000176a2       ?qt_invoke@QTextView@@UAE_NHPAUQUObject@@@Z 004186a2 f   qt-mt323:qt-mt323.dll
 0001:000176a8       ?qt_cast@QTextView@@UAEPAXPBD@Z 004186a8 f   qt-mt323:qt-mt323.dll
 0001:000176ae       ?className@QTextView@@UBEPBDXZ 004186ae f   qt-mt323:qt-mt323.dll
 0001:000176b4       ?metaObject@QTextView@@UBEPAVQMetaObject@@XZ 004186b4 f   qt-mt323:qt-mt323.dll
 0001:000176ba       ?end@QMultiLineEdit@@MAEX_N@Z 004186ba f   qt-mt323:qt-mt323.dll
 0001:000176c0       ?home@QMultiLineEdit@@MAEX_N@Z 004186c0 f   qt-mt323:qt-mt323.dll
 0001:000176c6       ?backspace@QMultiLineEdit@@MAEXXZ 004186c6 f   qt-mt323:qt-mt323.dll
 0001:000176cc       ?cursorDown@QMultiLineEdit@@MAEX_N@Z 004186cc f   qt-mt323:qt-mt323.dll
 0001:000176d2       ?cursorUp@QMultiLineEdit@@MAEX_N@Z 004186d2 f   qt-mt323:qt-mt323.dll
 0001:000176d8       ?cursorRight@QMultiLineEdit@@MAEX_N0@Z 004186d8 f   qt-mt323:qt-mt323.dll
 0001:000176de       ?cursorLeft@QMultiLineEdit@@MAEX_N0@Z 004186de f   qt-mt323:qt-mt323.dll
 0001:000176e4       ?pageDown@QMultiLineEdit@@MAEX_N@Z 004186e4 f   qt-mt323:qt-mt323.dll
 0001:000176ea       ?pageUp@QMultiLineEdit@@MAEX_N@Z 004186ea f   qt-mt323:qt-mt323.dll
 0001:000176f0       ?killLine@QMultiLineEdit@@MAEXXZ 004186f0 f   qt-mt323:qt-mt323.dll
 0001:000176f6       ?newLine@QMultiLineEdit@@MAEXXZ 004186f6 f   qt-mt323:qt-mt323.dll
 0001:000176fc       ?insertAndMark@QMultiLineEdit@@MAEXABVQString@@_N@Z 004186fc f   qt-mt323:qt-mt323.dll
 0001:00017702       ?setAutoUpdate@QMultiLineEdit@@UAEX_N@Z 00418702 f   qt-mt323:qt-mt323.dll
 0001:00017708       ?setCursorPosition@QMultiLineEdit@@UAEXHH_N@Z 00418708 f   qt-mt323:qt-mt323.dll
 0001:0001770e       ?removeLine@QMultiLineEdit@@UAEXH@Z 0041870e f   qt-mt323:qt-mt323.dll
 0001:00017714       ?insertAt@QMultiLineEdit@@UAEXABVQString@@HH_N@Z 00418714 f   qt-mt323:qt-mt323.dll
 0001:0001771a       ?insertLine@QMultiLineEdit@@UAEXABVQString@@H@Z 0041871a f   qt-mt323:qt-mt323.dll
 0001:00017720       ?insertAt@QMultiLineEdit@@UAEXABVQString@@HH@Z 00418720 f   qt-mt323:qt-mt323.dll
 0001:00017726       ?setCursorPosition@QMultiLineEdit@@UAEXHH@Z 00418726 f   qt-mt323:qt-mt323.dll
 0001:0001772c       ?setAlignment@QMultiLineEdit@@UAEXH@Z 0041872c f   qt-mt323:qt-mt323.dll
 0001:00017732       ?qt_property@QMultiLineEdit@@UAE_NHHPAVQVariant@@@Z 00418732 f   qt-mt323:qt-mt323.dll
 0001:00017738       ?qt_emit@QMultiLineEdit@@UAE_NHPAUQUObject@@@Z 00418738 f   qt-mt323:qt-mt323.dll
 0001:0001773e       ?qt_invoke@QMultiLineEdit@@UAE_NHPAUQUObject@@@Z 0041873e f   qt-mt323:qt-mt323.dll
 0001:00017744       ?qt_cast@QMultiLineEdit@@UAEPAXPBD@Z 00418744 f   qt-mt323:qt-mt323.dll
 0001:0001774a       ?className@QMultiLineEdit@@UBEPBDXZ 0041874a f   qt-mt323:qt-mt323.dll
 0001:00017750       ?metaObject@QMultiLineEdit@@UBEPAVQMetaObject@@XZ 00418750 f   qt-mt323:qt-mt323.dll
 0001:00017756       ?moveFocus@QButtonGroup@@UAEXH@Z 00418756 f   qt-mt323:qt-mt323.dll
 0001:0001775c       ?setButton@QButtonGroup@@UAEXH@Z 0041875c f   qt-mt323:qt-mt323.dll
 0001:00017762       ?setRadioButtonExclusive@QButtonGroup@@UAEX_N@Z 00418762 f   qt-mt323:qt-mt323.dll
 0001:00017768       ?setExclusive@QButtonGroup@@UAEX_N@Z 00418768 f   qt-mt323:qt-mt323.dll
 0001:0001776e       ?event@QButtonGroup@@MAE_NPAVQEvent@@@Z 0041876e f   qt-mt323:qt-mt323.dll
 0001:00017774       ?qt_property@QButtonGroup@@UAE_NHHPAVQVariant@@@Z 00418774 f   qt-mt323:qt-mt323.dll
 0001:0001777a       ?qt_emit@QButtonGroup@@UAE_NHPAUQUObject@@@Z 0041877a f   qt-mt323:qt-mt323.dll
 0001:00017780       ?qt_invoke@QButtonGroup@@UAE_NHPAUQUObject@@@Z 00418780 f   qt-mt323:qt-mt323.dll
 0001:00017786       ?qt_cast@QButtonGroup@@UAEPAXPBD@Z 00418786 f   qt-mt323:qt-mt323.dll
 0001:0001778c       ?className@QButtonGroup@@UBEPBDXZ 0041878c f   qt-mt323:qt-mt323.dll
 0001:00017792       ?metaObject@QButtonGroup@@UBEPAVQMetaObject@@XZ 00418792 f   qt-mt323:qt-mt323.dll
 0001:00017798       ?rangeChange@QDial@@MAEXXZ 00418798 f   qt-mt323:qt-mt323.dll
 0001:0001779e       ?valueChange@QDial@@MAEXXZ 0041879e f   qt-mt323:qt-mt323.dll
 0001:000177a4       ?repaintScreen@QDial@@MAEXPBVQRect@@@Z 004187a4 f   qt-mt323:qt-mt323.dll
 0001:000177aa       ?setTracking@QDial@@UAEX_N@Z 004187aa f   qt-mt323:qt-mt323.dll
 0001:000177b0       ?setWrapping@QDial@@UAEX_N@Z 004187b0 f   qt-mt323:qt-mt323.dll
 0001:000177b6       ?setNotchesVisible@QDial@@UAEX_N@Z 004187b6 f   qt-mt323:qt-mt323.dll
 0001:000177bc       ?setValue@QDial@@UAEXH@Z   004187bc f   qt-mt323:qt-mt323.dll
 0001:000177c2       ?setNotchTarget@QDial@@UAEXN@Z 004187c2 f   qt-mt323:qt-mt323.dll
 0001:000177c8       ?resizeEvent@QDial@@MAEXPAVQResizeEvent@@@Z 004187c8 f   qt-mt323:qt-mt323.dll
 0001:000177ce       ?paintEvent@QDial@@MAEXPAVQPaintEvent@@@Z 004187ce f   qt-mt323:qt-mt323.dll
 0001:000177d4       ?focusOutEvent@QDial@@MAEXPAVQFocusEvent@@@Z 004187d4 f   qt-mt323:qt-mt323.dll
 0001:000177da       ?focusInEvent@QDial@@MAEXPAVQFocusEvent@@@Z 004187da f   qt-mt323:qt-mt323.dll
 0001:000177e0       ?keyPressEvent@QDial@@MAEXPAVQKeyEvent@@@Z 004187e0 f   qt-mt323:qt-mt323.dll
 0001:000177e6       ?wheelEvent@QDial@@MAEXPAVQWheelEvent@@@Z 004187e6 f   qt-mt323:qt-mt323.dll
 0001:000177ec       ?mouseMoveEvent@QDial@@MAEXPAVQMouseEvent@@@Z 004187ec f   qt-mt323:qt-mt323.dll
 0001:000177f2       ?mouseReleaseEvent@QDial@@MAEXPAVQMouseEvent@@@Z 004187f2 f   qt-mt323:qt-mt323.dll
 0001:000177f8       ?mousePressEvent@QDial@@MAEXPAVQMouseEvent@@@Z 004187f8 f   qt-mt323:qt-mt323.dll
 0001:000177fe       ?minimumSizeHint@QDial@@UBE?AVQSize@@XZ 004187fe f   qt-mt323:qt-mt323.dll
 0001:00017804       ?sizeHint@QDial@@UBE?AVQSize@@XZ 00418804 f   qt-mt323:qt-mt323.dll
 0001:0001780a       ?qt_property@QDial@@UAE_NHHPAVQVariant@@@Z 0041880a f   qt-mt323:qt-mt323.dll
 0001:00017810       ?qt_emit@QDial@@UAE_NHPAUQUObject@@@Z 00418810 f   qt-mt323:qt-mt323.dll
 0001:00017816       ?qt_invoke@QDial@@UAE_NHPAUQUObject@@@Z 00418816 f   qt-mt323:qt-mt323.dll
 0001:0001781c       ?qt_cast@QDial@@UAEPAXPBD@Z 0041881c f   qt-mt323:qt-mt323.dll
 0001:00017822       ?className@QDial@@UBEPBDXZ 00418822 f   qt-mt323:qt-mt323.dll
 0001:00017828       ?metaObject@QDial@@UBEPAVQMetaObject@@XZ 00418828 f   qt-mt323:qt-mt323.dll
 0001:0001782e       ?initDragEnter@QIconView@@EAEXPAVQDropEvent@@@Z 0041882e f   qt-mt323:qt-mt323.dll
 0001:00017834       ?drawDragShapes@QIconView@@EAEXABVQPoint@@@Z 00418834 f   qt-mt323:qt-mt323.dll
 0001:0001783a       ?drawBackground@QIconView@@MAEXPAVQPainter@@ABVQRect@@@Z 0041883a f   qt-mt323:qt-mt323.dll
 0001:00017840       ?insertInGrid@QIconView@@MAEXPAVQIconViewItem@@@Z 00418840 f   qt-mt323:qt-mt323.dll
 0001:00017846       ?startDrag@QIconView@@MAEXXZ 00418846 f   qt-mt323:qt-mt323.dll
 0001:0001784c       ?dragObject@QIconView@@MAEPAVQDragObject@@XZ 0041884c f   qt-mt323:qt-mt323.dll
 0001:00017852       ?drawRubber@QIconView@@MAEXPAVQPainter@@@Z 00418852 f   qt-mt323:qt-mt323.dll
 0001:00017858       ?slotUpdate@QIconView@@MAEXXZ 00418858 f   qt-mt323:qt-mt323.dll
 0001:0001785e       ?adjustItems@QIconView@@MAEXXZ 0041885e f   qt-mt323:qt-mt323.dll
 0001:00017864       ?doAutoScroll@QIconView@@MAEXXZ 00418864 f   qt-mt323:qt-mt323.dll
 0001:0001786a       ?updateContents@QIconView@@UAEXXZ 0041886a f   qt-mt323:qt-mt323.dll
 0001:00017870       ?arrangeItemsInGrid@QIconView@@UAEXABVQSize@@_N@Z 00418870 f   qt-mt323:qt-mt323.dll
 0001:00017876       ?arrangeItemsInGrid@QIconView@@UAEX_N@Z 00418876 f   qt-mt323:qt-mt323.dll
 0001:0001787c       ?sort@QIconView@@UAEX_N@Z  0041887c f   qt-mt323:qt-mt323.dll
 0001:00017882       ?setWordWrapIconText@QIconView@@UAEX_N@Z 00418882 f   qt-mt323:qt-mt323.dll
 0001:00017888       ?setItemsMovable@QIconView@@UAEX_N@Z 00418888 f   qt-mt323:qt-mt323.dll
 0001:0001788e       ?setShowToolTips@QIconView@@UAEX_N@Z 0041888e f   qt-mt323:qt-mt323.dll
 0001:00017894       ?setAutoArrange@QIconView@@UAEX_N@Z 00418894 f   qt-mt323:qt-mt323.dll
 0001:0001789a       ?setMaxItemTextLength@QIconView@@UAEXH@Z 0041889a f   qt-mt323:qt-mt323.dll
 0001:000178a0       ?setMaxItemWidth@QIconView@@UAEXH@Z 004188a0 f   qt-mt323:qt-mt323.dll
 0001:000178a6       ?setResizeMode@QIconView@@UAEXW4ResizeMode@1@@Z 004188a6 f   qt-mt323:qt-mt323.dll
 0001:000178ac       ?setArrangement@QIconView@@UAEXW4Arrangement@1@@Z 004188ac f   qt-mt323:qt-mt323.dll
 0001:000178b2       ?setItemTextBackground@QIconView@@UAEXABVQBrush@@@Z 004188b2 f   qt-mt323:qt-mt323.dll
 0001:000178b8       ?setItemTextPos@QIconView@@UAEXW4ItemTextPos@1@@Z 004188b8 f   qt-mt323:qt-mt323.dll
 0001:000178be       ?setSpacing@QIconView@@UAEXH@Z 004188be f   qt-mt323:qt-mt323.dll
 0001:000178c4       ?setGridY@QIconView@@UAEXH@Z 004188c4 f   qt-mt323:qt-mt323.dll
 0001:000178ca       ?setGridX@QIconView@@UAEXH@Z 004188ca f   qt-mt323:qt-mt323.dll
 0001:000178d0       ?clear@QIconView@@UAEXXZ   004188d0 f   qt-mt323:qt-mt323.dll
 0001:000178d6       ?repaintItem@QIconView@@UAEXPAVQIconViewItem@@@Z 004188d6 f   qt-mt323:qt-mt323.dll
 0001:000178dc       ?invertSelection@QIconView@@UAEXXZ 004188dc f   qt-mt323:qt-mt323.dll
 0001:000178e2       ?clearSelection@QIconView@@UAEXXZ 004188e2 f   qt-mt323:qt-mt323.dll
 0001:000178e8       ?selectAll@QIconView@@UAEX_N@Z 004188e8 f   qt-mt323:qt-mt323.dll
 0001:000178ee       ?setSelectionMode@QIconView@@UAEXW4SelectionMode@1@@Z 004188ee f   qt-mt323:qt-mt323.dll
 0001:000178f4       ?setSelected@QIconView@@UAEXPAVQIconViewItem@@_N1@Z 004188f4 f   qt-mt323:qt-mt323.dll
 0001:000178fa       ?setCurrentItem@QIconView@@UAEXPAVQIconViewItem@@@Z 004188fa f   qt-mt323:qt-mt323.dll
 0001:00017900       ?takeItem@QIconView@@UAEXPAVQIconViewItem@@@Z 00418900 f   qt-mt323:qt-mt323.dll
 0001:00017906       ?insertItem@QIconView@@UAEXPAVQIconViewItem@@0@Z 00418906 f   qt-mt323:qt-mt323.dll
 0001:0001790c       ?contentsContextMenuEvent@QIconView@@MAEXPAVQContextMenuEvent@@@Z 0041890c f   qt-mt323:qt-mt323.dll
 0001:00017912       ?contentsDropEvent@QIconView@@MAEXPAVQDropEvent@@@Z 00418912 f   qt-mt323:qt-mt323.dll
 0001:00017918       ?contentsDragLeaveEvent@QIconView@@MAEXPAVQDragLeaveEvent@@@Z 00418918 f   qt-mt323:qt-mt323.dll
 0001:0001791e       ?contentsDragMoveEvent@QIconView@@MAEXPAVQDragMoveEvent@@@Z 0041891e f   qt-mt323:qt-mt323.dll
 0001:00017924       ?contentsDragEnterEvent@QIconView@@MAEXPAVQDragEnterEvent@@@Z 00418924 f   qt-mt323:qt-mt323.dll
 0001:0001792a       ?contentsMouseMoveEvent@QIconView@@MAEXPAVQMouseEvent@@@Z 0041892a f   qt-mt323:qt-mt323.dll
 0001:00017930       ?contentsMouseDoubleClickEvent@QIconView@@MAEXPAVQMouseEvent@@@Z 00418930 f   qt-mt323:qt-mt323.dll
 0001:00017936       ?contentsMouseReleaseEvent@QIconView@@MAEXPAVQMouseEvent@@@Z 00418936 f   qt-mt323:qt-mt323.dll
 0001:0001793c       ?contentsMousePressEvent@QIconView@@MAEXPAVQMouseEvent@@@Z 0041893c f   qt-mt323:qt-mt323.dll
 0001:00017942       ?drawContents@QIconView@@MAEXPAVQPainter@@HHHH@Z 00418942 f   qt-mt323:qt-mt323.dll
 0001:00017948       ?setContentsPos@QIconView@@UAEXHH@Z 00418948 f   qt-mt323:qt-mt323.dll
 0001:0001794e       ?drawContents@QIconView@@EAEXPAVQPainter@@@Z 0041894e f   qt-mt323:qt-mt323.dll
 0001:00017954       ?windowActivationChange@QIconView@@MAEX_N@Z 00418954 f   qt-mt323:qt-mt323.dll
 0001:0001795a       ?styleChange@QIconView@@MAEXAAVQStyle@@@Z 0041895a f   qt-mt323:qt-mt323.dll
 0001:00017960       ?showEvent@QIconView@@UAEXPAVQShowEvent@@@Z 00418960 f   qt-mt323:qt-mt323.dll
 0001:00017966       ?resizeEvent@QIconView@@MAEXPAVQResizeEvent@@@Z 00418966 f   qt-mt323:qt-mt323.dll
 0001:0001796c       ?enterEvent@QIconView@@MAEXPAVQEvent@@@Z 0041896c f   qt-mt323:qt-mt323.dll
 0001:00017972       ?focusOutEvent@QIconView@@MAEXPAVQFocusEvent@@@Z 00418972 f   qt-mt323:qt-mt323.dll
 0001:00017978       ?focusInEvent@QIconView@@MAEXPAVQFocusEvent@@@Z 00418978 f   qt-mt323:qt-mt323.dll
 0001:0001797e       ?keyPressEvent@QIconView@@MAEXPAVQKeyEvent@@@Z 0041897e f   qt-mt323:qt-mt323.dll
 0001:00017984       ?minimumSizeHint@QIconView@@UBE?AVQSize@@XZ 00418984 f   qt-mt323:qt-mt323.dll
 0001:0001798a       ?sizeHint@QIconView@@UBE?AVQSize@@XZ 0041898a f   qt-mt323:qt-mt323.dll
 0001:00017990       ?setFont@QIconView@@UAEXABVQFont@@@Z 00418990 f   qt-mt323:qt-mt323.dll
 0001:00017996       ?setPalette@QIconView@@UAEXABVQPalette@@@Z 00418996 f   qt-mt323:qt-mt323.dll
 0001:0001799c       ?eventFilter@QIconView@@UAE_NPAVQObject@@PAVQEvent@@@Z 0041899c f   qt-mt323:qt-mt323.dll
 0001:000179a2       ?qt_property@QIconView@@UAE_NHHPAVQVariant@@@Z 004189a2 f   qt-mt323:qt-mt323.dll
 0001:000179a8       ?qt_emit@QIconView@@UAE_NHPAUQUObject@@@Z 004189a8 f   qt-mt323:qt-mt323.dll
 0001:000179ae       ?qt_invoke@QIconView@@UAE_NHPAUQUObject@@@Z 004189ae f   qt-mt323:qt-mt323.dll
 0001:000179b4       ?qt_cast@QIconView@@UAEPAXPBD@Z 004189b4 f   qt-mt323:qt-mt323.dll
 0001:000179ba       ?className@QIconView@@UBEPBDXZ 004189ba f   qt-mt323:qt-mt323.dll
 0001:000179c0       ?metaObject@QIconView@@UBEPAVQMetaObject@@XZ 004189c0 f   qt-mt323:qt-mt323.dll
 0001:000179c6       ?setSmallDecimalPoint@QLCDNumber@@UAEX_N@Z 004189c6 f   qt-mt323:qt-mt323.dll
 0001:000179cc       ?setBinMode@QLCDNumber@@UAEXXZ 004189cc f   qt-mt323:qt-mt323.dll
 0001:000179d2       ?setOctMode@QLCDNumber@@UAEXXZ 004189d2 f   qt-mt323:qt-mt323.dll
 0001:000179d8       ?setDecMode@QLCDNumber@@UAEXXZ 004189d8 f   qt-mt323:qt-mt323.dll
 0001:000179de       ?setHexMode@QLCDNumber@@UAEXXZ 004189de f   qt-mt323:qt-mt323.dll
 0001:000179e4       ?setSegmentStyle@QLCDNumber@@UAEXW4SegmentStyle@1@@Z 004189e4 f   qt-mt323:qt-mt323.dll
 0001:000179ea       ?setMode@QLCDNumber@@UAEXW4Mode@1@@Z 004189ea f   qt-mt323:qt-mt323.dll
 0001:000179f0       ?setNumDigits@QLCDNumber@@UAEXH@Z 004189f0 f   qt-mt323:qt-mt323.dll
 0001:000179f6       ?drawContents@QLCDNumber@@MAEXPAVQPainter@@@Z 004189f6 f   qt-mt323:qt-mt323.dll
 0001:000179fc       ?sizeHint@QLCDNumber@@UBE?AVQSize@@XZ 004189fc f   qt-mt323:qt-mt323.dll
 0001:00017a02       ?qt_property@QLCDNumber@@UAE_NHHPAVQVariant@@@Z 00418a02 f   qt-mt323:qt-mt323.dll
 0001:00017a08       ?qt_emit@QLCDNumber@@UAE_NHPAUQUObject@@@Z 00418a08 f   qt-mt323:qt-mt323.dll
 0001:00017a0e       ?qt_invoke@QLCDNumber@@UAE_NHPAUQUObject@@@Z 00418a0e f   qt-mt323:qt-mt323.dll
 0001:00017a14       ?qt_cast@QLCDNumber@@UAEPAXPBD@Z 00418a14 f   qt-mt323:qt-mt323.dll
 0001:00017a1a       ?className@QLCDNumber@@UBEPBDXZ 00418a1a f   qt-mt323:qt-mt323.dll
 0001:00017a20       ?metaObject@QLCDNumber@@UBEPAVQMetaObject@@XZ 00418a20 f   qt-mt323:qt-mt323.dll
 0001:00017a26       ?itemRemoved@QToolBox@@MAEXH@Z 00418a26 f   qt-mt323:qt-mt323.dll
 0001:00017a2c       ?itemInserted@QToolBox@@MAEXH@Z 00418a2c f   qt-mt323:qt-mt323.dll
 0001:00017a32       ?frameChanged@QToolBox@@MAEXXZ 00418a32 f   qt-mt323:qt-mt323.dll
 0001:00017a38       ?styleChange@QToolBox@@MAEXAAVQStyle@@@Z 00418a38 f   qt-mt323:qt-mt323.dll
 0001:00017a3e       ?showEvent@QToolBox@@MAEXPAVQShowEvent@@@Z 00418a3e f   qt-mt323:qt-mt323.dll
 0001:00017a44       ?qt_property@QToolBox@@UAE_NHHPAVQVariant@@@Z 00418a44 f   qt-mt323:qt-mt323.dll
 0001:00017a4a       ?qt_emit@QToolBox@@UAE_NHPAUQUObject@@@Z 00418a4a f   qt-mt323:qt-mt323.dll
 0001:00017a50       ?qt_invoke@QToolBox@@UAE_NHPAUQUObject@@@Z 00418a50 f   qt-mt323:qt-mt323.dll
 0001:00017a56       ?qt_cast@QToolBox@@UAEPAXPBD@Z 00418a56 f   qt-mt323:qt-mt323.dll
 0001:00017a5c       ?className@QToolBox@@UBEPBDXZ 00418a5c f   qt-mt323:qt-mt323.dll
 0001:00017a62       ?metaObject@QToolBox@@UBEPAVQMetaObject@@XZ 00418a62 f   qt-mt323:qt-mt323.dll
 0001:00017a68       ?setChecked@QRadioButton@@UAEX_N@Z 00418a68 f   qt-mt323:qt-mt323.dll
 0001:00017a6e       ?drawButtonLabel@QRadioButton@@MAEXPAVQPainter@@@Z 00418a6e f   qt-mt323:qt-mt323.dll
 0001:00017a74       ?drawButton@QRadioButton@@MAEXPAVQPainter@@@Z 00418a74 f   qt-mt323:qt-mt323.dll
 0001:00017a7a       ?hitButton@QRadioButton@@MBE_NABVQPoint@@@Z 00418a7a f   qt-mt323:qt-mt323.dll
 0001:00017a80       ?setText@QButton@@UAEXABVQString@@@Z 00418a80 f   qt-mt323:qt-mt323.dll
 0001:00017a86       ?updateMask@QRadioButton@@MAEXXZ 00418a86 f   qt-mt323:qt-mt323.dll
 0001:00017a8c       ?resizeEvent@QRadioButton@@MAEXPAVQResizeEvent@@@Z 00418a8c f   qt-mt323:qt-mt323.dll
 0001:00017a92       ?mousePressEvent@QButton@@MAEXPAVQMouseEvent@@@Z 00418a92 f   qt-mt323:qt-mt323.dll
 0001:00017a98       ?sizeHint@QRadioButton@@UBE?AVQSize@@XZ 00418a98 f   qt-mt323:qt-mt323.dll
 0001:00017a9e       ?qt_property@QRadioButton@@UAE_NHHPAVQVariant@@@Z 00418a9e f   qt-mt323:qt-mt323.dll
 0001:00017aa4       ?qt_emit@QRadioButton@@UAE_NHPAUQUObject@@@Z 00418aa4 f   qt-mt323:qt-mt323.dll
 0001:00017aaa       ?qt_invoke@QRadioButton@@UAE_NHPAUQUObject@@@Z 00418aaa f   qt-mt323:qt-mt323.dll
 0001:00017ab0       ?qt_cast@QRadioButton@@UAEPAXPBD@Z 00418ab0 f   qt-mt323:qt-mt323.dll
 0001:00017ab6       ?className@QRadioButton@@UBEPBDXZ 00418ab6 f   qt-mt323:qt-mt323.dll
 0001:00017abc       ?metaObject@QRadioButton@@UBEPAVQMetaObject@@XZ 00418abc f   qt-mt323:qt-mt323.dll
 0001:00017ac2       ?removePage@QTabWidget@@UAEXPAVQWidget@@@Z 00418ac2 f   qt-mt323:qt-mt323.dll
 0001:00017ac8       ?showPage@QTabWidget@@UAEXPAVQWidget@@@Z 00418ac8 f   qt-mt323:qt-mt323.dll
 0001:00017ace       ?insertTab@QTabWidget@@UAEXPAVQWidget@@ABVQString@@H@Z 00418ace f   qt-mt323:qt-mt323.dll
 0001:00017ad4       ?insertTab@QTabWidget@@UAEXPAVQWidget@@ABVQIconSet@@ABVQString@@H@Z 00418ad4 f   qt-mt323:qt-mt323.dll
 0001:00017ada       ?insertTab@QTabWidget@@UAEXPAVQWidget@@PAVQTab@@H@Z 00418ada f   qt-mt323:qt-mt323.dll
 0001:00017ae0       ?addTab@QTabWidget@@UAEXPAVQWidget@@ABVQString@@@Z 00418ae0 f   qt-mt323:qt-mt323.dll
 0001:00017ae6       ?addTab@QTabWidget@@UAEXPAVQWidget@@ABVQIconSet@@ABVQString@@@Z 00418ae6 f   qt-mt323:qt-mt323.dll
 0001:00017aec       ?addTab@QTabWidget@@UAEXPAVQWidget@@PAVQTab@@@Z 00418aec f   qt-mt323:qt-mt323.dll
 0001:00017af2       ?styleChange@QTabWidget@@MAEXAAVQStyle@@@Z 00418af2 f   qt-mt323:qt-mt323.dll
 0001:00017af8       ?updateMask@QTabWidget@@MAEXXZ 00418af8 f   qt-mt323:qt-mt323.dll
 0001:00017afe       ?showEvent@QTabWidget@@MAEXPAVQShowEvent@@@Z 00418afe f   qt-mt323:qt-mt323.dll
 0001:00017b04       ?resizeEvent@QTabWidget@@MAEXPAVQResizeEvent@@@Z 00418b04 f   qt-mt323:qt-mt323.dll
 0001:00017b0a       ?minimumSizeHint@QTabWidget@@UBE?AVQSize@@XZ 00418b0a f   qt-mt323:qt-mt323.dll
 0001:00017b10       ?sizeHint@QTabWidget@@UBE?AVQSize@@XZ 00418b10 f   qt-mt323:qt-mt323.dll
 0001:00017b16       ?eventFilter@QTabWidget@@MAE_NPAVQObject@@PAVQEvent@@@Z 00418b16 f   qt-mt323:qt-mt323.dll
 0001:00017b1c       ?qt_property@QTabWidget@@UAE_NHHPAVQVariant@@@Z 00418b1c f   qt-mt323:qt-mt323.dll
 0001:00017b22       ?qt_emit@QTabWidget@@UAE_NHPAUQUObject@@@Z 00418b22 f   qt-mt323:qt-mt323.dll
 0001:00017b28       ?qt_invoke@QTabWidget@@UAE_NHPAUQUObject@@@Z 00418b28 f   qt-mt323:qt-mt323.dll
 0001:00017b2e       ?qt_cast@QTabWidget@@UAEPAXPBD@Z 00418b2e f   qt-mt323:qt-mt323.dll
 0001:00017b34       ?className@QTabWidget@@UBEPBDXZ 00418b34 f   qt-mt323:qt-mt323.dll
 0001:00017b3a       ?metaObject@QTabWidget@@UBEPAVQMetaObject@@XZ 00418b3a f   qt-mt323:qt-mt323.dll
 0001:00017b40       ?setToolTipGroup@QMainWindow@@EAEXPAVQToolTipGroup@@@Z 00418b40 f   qt-mt323:qt-mt323.dll
 0001:00017b46       ?setStatusBar@QMainWindow@@EAEXPAVQStatusBar@@@Z 00418b46 f   qt-mt323:qt-mt323.dll
 0001:00017b4c       ?setMenuBar@QMainWindow@@EAEXPAVQMenuBar@@@Z 00418b4c f   qt-mt323:qt-mt323.dll
 0001:00017b52       ?showDockMenu@QMainWindow@@MAE_NABVQPoint@@@Z 00418b52 f   qt-mt323:qt-mt323.dll
 0001:00017b58       ?setUpLayout@QMainWindow@@MAEXXZ 00418b58 f   qt-mt323:qt-mt323.dll
 0001:00017b5e       ?customize@QMainWindow@@UAEXXZ 00418b5e f   qt-mt323:qt-mt323.dll
 0001:00017b64       ?setAppropriate@QMainWindow@@UAEXPAVQDockWindow@@_N@Z 00418b64 f   qt-mt323:qt-mt323.dll
 0001:00017b6a       ?whatsThis@QMainWindow@@UAEXXZ 00418b6a f   qt-mt323:qt-mt323.dll
 0001:00017b70       ?setDockMenuEnabled@QMainWindow@@UAEX_N@Z 00418b70 f   qt-mt323:qt-mt323.dll
 0001:00017b76       ?setOpaqueMoving@QMainWindow@@UAEX_N@Z 00418b76 f   qt-mt323:qt-mt323.dll
 0001:00017b7c       ?setDockWindowsMovable@QMainWindow@@UAEX_N@Z 00418b7c f   qt-mt323:qt-mt323.dll
 0001:00017b82       ?setUsesTextLabel@QMainWindow@@UAEX_N@Z 00418b82 f   qt-mt323:qt-mt323.dll
 0001:00017b88       ?setUsesBigPixmaps@QMainWindow@@UAEX_N@Z 00418b88 f   qt-mt323:qt-mt323.dll
 0001:00017b8e       ?setRightJustification@QMainWindow@@UAEX_N@Z 00418b8e f   qt-mt323:qt-mt323.dll
 0001:00017b94       ?isCustomizable@QMainWindow@@UBE_NXZ 00418b94 f   qt-mt323:qt-mt323.dll
 0001:00017b9a       ?dockingArea@QMainWindow@@UAEPAVQDockArea@@ABVQPoint@@@Z 00418b9a f   qt-mt323:qt-mt323.dll
 0001:00017ba0       ?removeDockWindow@QMainWindow@@UAEXPAVQDockWindow@@@Z 00418ba0 f   qt-mt323:qt-mt323.dll
 0001:00017ba6       ?moveDockWindow@QMainWindow@@UAEXPAVQDockWindow@@W4Dock@Qt@@@Z 00418ba6 f   qt-mt323:qt-mt323.dll
 0001:00017bac       ?moveDockWindow@QMainWindow@@UAEXPAVQDockWindow@@W4Dock@Qt@@_NHH@Z 00418bac f   qt-mt323:qt-mt323.dll
 0001:00017bb2       ?addDockWindow@QMainWindow@@UAEXPAVQDockWindow@@W4Dock@Qt@@_N@Z 00418bb2 f   qt-mt323:qt-mt323.dll
 0001:00017bb8       ?addDockWindow@QMainWindow@@UAEXPAVQDockWindow@@ABVQString@@W4Dock@Qt@@_N@Z 00418bb8 f   qt-mt323:qt-mt323.dll
 0001:00017bbe       ?setDockEnabled@QMainWindow@@UAEXW4Dock@Qt@@_N@Z 00418bbe f   qt-mt323:qt-mt323.dll
 0001:00017bc4       ?setDockEnabled@QMainWindow@@UAEXPAVQDockWindow@@W4Dock@Qt@@_N@Z 00418bc4 f   qt-mt323:qt-mt323.dll
 0001:00017bca       ?setCentralWidget@QMainWindow@@UAEXPAVQWidget@@@Z 00418bca f   qt-mt323:qt-mt323.dll
 0001:00017bd0       ?styleChange@QMainWindow@@MAEXAAVQStyle@@@Z 00418bd0 f   qt-mt323:qt-mt323.dll
 0001:00017bd6       ?paintEvent@QMainWindow@@MAEXPAVQPaintEvent@@@Z 00418bd6 f   qt-mt323:qt-mt323.dll
 0001:00017bdc       ?minimumSizeHint@QMainWindow@@UBE?AVQSize@@XZ 00418bdc f   qt-mt323:qt-mt323.dll
 0001:00017be2       ?sizeHint@QMainWindow@@UBE?AVQSize@@XZ 00418be2 f   qt-mt323:qt-mt323.dll
 0001:00017be8       ?hide@QMainWindow@@UAEXXZ  00418be8 f   qt-mt323:qt-mt323.dll
 0001:00017bee       ?show@QMainWindow@@UAEXXZ  00418bee f   qt-mt323:qt-mt323.dll
 0001:00017bf4       ?childEvent@QMainWindow@@MAEXPAVQChildEvent@@@Z 00418bf4 f   qt-mt323:qt-mt323.dll
 0001:00017bfa       ?eventFilter@QMainWindow@@UAE_NPAVQObject@@PAVQEvent@@@Z 00418bfa f   qt-mt323:qt-mt323.dll
 0001:00017c00       ?event@QMainWindow@@MAE_NPAVQEvent@@@Z 00418c00 f   qt-mt323:qt-mt323.dll
 0001:00017c06       ?qt_property@QMainWindow@@UAE_NHHPAVQVariant@@@Z 00418c06 f   qt-mt323:qt-mt323.dll
 0001:00017c0c       ?qt_emit@QMainWindow@@UAE_NHPAUQUObject@@@Z 00418c0c f   qt-mt323:qt-mt323.dll
 0001:00017c12       ?qt_invoke@QMainWindow@@UAE_NHPAUQUObject@@@Z 00418c12 f   qt-mt323:qt-mt323.dll
 0001:00017c18       ?qt_cast@QMainWindow@@UAEPAXPBD@Z 00418c18 f   qt-mt323:qt-mt323.dll
 0001:00017c1e       ?className@QMainWindow@@UBEPBDXZ 00418c1e f   qt-mt323:qt-mt323.dll
 0001:00017c24       ?metaObject@QMainWindow@@UBEPAVQMetaObject@@XZ 00418c24 f   qt-mt323:qt-mt323.dll
 0001:00017c2a       ?qt_property@QVBox@@UAE_NHHPAVQVariant@@@Z 00418c2a f   qt-mt323:qt-mt323.dll
 0001:00017c30       ?qt_emit@QVBox@@UAE_NHPAUQUObject@@@Z 00418c30 f   qt-mt323:qt-mt323.dll
 0001:00017c36       ?qt_invoke@QVBox@@UAE_NHPAUQUObject@@@Z 00418c36 f   qt-mt323:qt-mt323.dll
 0001:00017c3c       ?qt_cast@QVBox@@UAEPAXPBD@Z 00418c3c f   qt-mt323:qt-mt323.dll
 0001:00017c42       ?className@QVBox@@UBEPBDXZ 00418c42 f   qt-mt323:qt-mt323.dll
 0001:00017c48       ?metaObject@QVBox@@UBEPAVQMetaObject@@XZ 00418c48 f   qt-mt323:qt-mt323.dll
 0001:00017c4e       ?reload@QTextBrowser@@UAEXXZ 00418c4e f   qt-mt323:qt-mt323.dll
 0001:00017c54       ?home@QTextBrowser@@UAEXXZ 00418c54 f   qt-mt323:qt-mt323.dll
 0001:00017c5a       ?forward@QTextBrowser@@UAEXXZ 00418c5a f   qt-mt323:qt-mt323.dll
 0001:00017c60       ?backward@QTextBrowser@@UAEXXZ 00418c60 f   qt-mt323:qt-mt323.dll
 0001:00017c66       ?setSource@QTextBrowser@@UAEXABVQString@@@Z 00418c66 f   qt-mt323:qt-mt323.dll
 0001:00017c6c       ?emitLinkClicked@QTextBrowser@@EAEXABVQString@@@Z 00418c6c f   qt-mt323:qt-mt323.dll
 0001:00017c72       ?emitHighlighted@QTextBrowser@@EAEXABVQString@@@Z 00418c72 f   qt-mt323:qt-mt323.dll
 0001:00017c78       ?linksEnabled@QTextBrowser@@EBE_NXZ 00418c78 f   qt-mt323:qt-mt323.dll
 0001:00017c7e       ?setText@QTextBrowser@@UAEXABVQString@@0@Z 00418c7e f   qt-mt323:qt-mt323.dll
 0001:00017c84       ?keyPressEvent@QTextBrowser@@MAEXPAVQKeyEvent@@@Z 00418c84 f   qt-mt323:qt-mt323.dll
 0001:00017c8a       ?qt_property@QTextBrowser@@UAE_NHHPAVQVariant@@@Z 00418c8a f   qt-mt323:qt-mt323.dll
 0001:00017c90       ?qt_emit@QTextBrowser@@UAE_NHPAUQUObject@@@Z 00418c90 f   qt-mt323:qt-mt323.dll
 0001:00017c96       ?qt_invoke@QTextBrowser@@UAE_NHPAUQUObject@@@Z 00418c96 f   qt-mt323:qt-mt323.dll
 0001:00017c9c       ?qt_cast@QTextBrowser@@UAEPAXPBD@Z 00418c9c f   qt-mt323:qt-mt323.dll
 0001:00017ca2       ?className@QTextBrowser@@UBEPBDXZ 00418ca2 f   qt-mt323:qt-mt323.dll
 0001:00017ca8       ?metaObject@QTextBrowser@@UBEPAVQMetaObject@@XZ 00418ca8 f   qt-mt323:qt-mt323.dll
 0001:00017cae       ?emitLinkClicked@QTextEdit@@EAEXABVQString@@@Z 00418cae f   qt-mt323:qt-mt323.dll
 0001:00017cb4       ?emitHighlighted@QTextEdit@@EAEXABVQString@@@Z 00418cb4 f   qt-mt323:qt-mt323.dll
 0001:00017cba       ?linksEnabled@QTextEdit@@EBE_NXZ 00418cba f   qt-mt323:qt-mt323.dll
 0001:00017cc0       ?doChangeInterval@QTextEdit@@MAEXXZ 00418cc0 f   qt-mt323:qt-mt323.dll
 0001:00017cc6       ?createPopupMenu@QTextEdit@@MAEPAVQPopupMenu@@ABVQPoint@@@Z 00418cc6 f   qt-mt323:qt-mt323.dll
 0001:00017ccc       ?createPopupMenu@QTextEdit@@MAEPAVQPopupMenu@@XZ 00418ccc f   qt-mt323:qt-mt323.dll
 0001:00017cd2       ?setUndoRedoEnabled@QTextEdit@@UAEX_N@Z 00418cd2 f   qt-mt323:qt-mt323.dll
 0001:00017cd8       ?clearParagraphBackground@QTextEdit@@UAEXH@Z 00418cd8 f   qt-mt323:qt-mt323.dll
 0001:00017cde       ?setParagraphBackgroundColor@QTextEdit@@UAEXHABVQColor@@@Z 00418cde f   qt-mt323:qt-mt323.dll
 0001:00017ce4       ?insertParagraph@QTextEdit@@UAEXABVQString@@H@Z 00418ce4 f   qt-mt323:qt-mt323.dll
 0001:00017cea       ?removeParagraph@QTextEdit@@UAEXH@Z 00418cea f   qt-mt323:qt-mt323.dll
 0001:00017cf0       ?insertAt@QTextEdit@@UAEXABVQString@@HH@Z 00418cf0 f   qt-mt323:qt-mt323.dll
 0001:00017cf6       ?insert@QTextEdit@@UAEXABVQString@@_N11@Z 00418cf6 f   qt-mt323:qt-mt323.dll
 0001:00017cfc       ?scrollToBottom@QTextEdit@@UAEXXZ 00418cfc f   qt-mt323:qt-mt323.dll
 0001:00017d02       ?setOverwriteMode@QTextEdit@@UAEX_N@Z 00418d02 f   qt-mt323:qt-mt323.dll
 0001:00017d08       ?setCurrentFont@QTextEdit@@UAEXABVQFont@@@Z 00418d08 f   qt-mt323:qt-mt323.dll
 0001:00017d0e       ?removeSelection@QTextEdit@@UAEXH@Z 00418d0e f   qt-mt323:qt-mt323.dll
 0001:00017d14       ?removeSelectedText@QTextEdit@@UAEXH@Z 00418d14 f   qt-mt323:qt-mt323.dll
 0001:00017d1a       ?doKeyboardAction@QTextEdit@@UAEXW4KeyboardAction@1@@Z 00418d1a f   qt-mt323:qt-mt323.dll
 0001:00017d20       ?moveCursor@QTextEdit@@UAEXW4CursorAction@1@_N@Z 00418d20 f   qt-mt323:qt-mt323.dll
 0001:00017d26       ?placeCursor@QTextEdit@@UAEXABVQPoint@@PAVQTextCursor@@@Z 00418d26 f   qt-mt323:qt-mt323.dll
 0001:00017d2c       ?ensureCursorVisible@QTextEdit@@UAEXXZ 00418d2c f   qt-mt323:qt-mt323.dll
 0001:00017d32       ?setFormat@QTextEdit@@UAEXPAVQTextFormat@@H@Z 00418d32 f   qt-mt323:qt-mt323.dll
 0001:00017d38       ?setUndoDepth@QTextEdit@@UAEXH@Z 00418d38 f   qt-mt323:qt-mt323.dll
 0001:00017d3e       ?resetFormat@QTextEdit@@UAEXXZ 00418d3e f   qt-mt323:qt-mt323.dll
 0001:00017d44       ?setModified@QTextEdit@@UAEX_N@Z 00418d44 f   qt-mt323:qt-mt323.dll
 0001:00017d4a       ?setSelectionAttributes@QTextEdit@@UAEXHABVQColor@@_N@Z 00418d4a f   qt-mt323:qt-mt323.dll
 0001:00017d50       ?setSelection@QTextEdit@@UAEXHHHHH@Z 00418d50 f   qt-mt323:qt-mt323.dll
 0001:00017d56       ?setCursorPosition@QTextEdit@@UAEXHH@Z 00418d56 f   qt-mt323:qt-mt323.dll
 0001:00017d5c       ?setParagType@QTextEdit@@UAEXW4DisplayMode@QStyleSheetItem@@W4ListStyle@3@@Z 00418d5c f   qt-mt323:qt-mt323.dll
 0001:00017d62       ?setAlignment@QTextEdit@@UAEXH@Z 00418d62 f   qt-mt323:qt-mt323.dll
 0001:00017d68       ?setVerticalAlignment@QTextEdit@@UAEXW4VerticalAlignment@1@@Z 00418d68 f   qt-mt323:qt-mt323.dll
 0001:00017d6e       ?setColor@QTextEdit@@UAEXABVQColor@@@Z 00418d6e f   qt-mt323:qt-mt323.dll
 0001:00017d74       ?setPointSize@QTextEdit@@UAEXH@Z 00418d74 f   qt-mt323:qt-mt323.dll
 0001:00017d7a       ?setFamily@QTextEdit@@UAEXABVQString@@@Z 00418d7a f   qt-mt323:qt-mt323.dll
 0001:00017d80       ?setUnderline@QTextEdit@@UAEX_N@Z 00418d80 f   qt-mt323:qt-mt323.dll
 0001:00017d86       ?setBold@QTextEdit@@UAEX_N@Z 00418d86 f   qt-mt323:qt-mt323.dll
 0001:00017d8c       ?setItalic@QTextEdit@@UAEX_N@Z 00418d8c f   qt-mt323:qt-mt323.dll
 0001:00017d92       ?indent@QTextEdit@@UAEXXZ  00418d92 f   qt-mt323:qt-mt323.dll
 0001:00017d98       ?del@QTextEdit@@UAEXXZ     00418d98 f   qt-mt323:qt-mt323.dll
 0001:00017d9e       ?clear@QTextEdit@@UAEXXZ   00418d9e f   qt-mt323:qt-mt323.dll
 0001:00017da4       ?pasteSubType@QTextEdit@@UAEXABVQCString@@@Z 00418da4 f   qt-mt323:qt-mt323.dll
 0001:00017daa       ?paste@QTextEdit@@UAEXXZ   00418daa f   qt-mt323:qt-mt323.dll
 0001:00017db0       ?cut@QTextEdit@@UAEXXZ     00418db0 f   qt-mt323:qt-mt323.dll
 0001:00017db6       ?redo@QTextEdit@@UAEXXZ    00418db6 f   qt-mt323:qt-mt323.dll
 0001:00017dbc       ?undo@QTextEdit@@UAEXXZ    00418dbc f   qt-mt323:qt-mt323.dll
 0001:00017dc2       ?setReadOnly@QTextEdit@@UAEX_N@Z 00418dc2 f   qt-mt323:qt-mt323.dll
 0001:00017dc8       ?sync@QTextEdit@@UAEXXZ    00418dc8 f   qt-mt323:qt-mt323.dll
 0001:00017dce       ?zoomTo@QTextEdit@@UAEXH@Z 00418dce f   qt-mt323:qt-mt323.dll
 0001:00017dd4       ?zoomOut@QTextEdit@@UAEXH@Z 00418dd4 f   qt-mt323:qt-mt323.dll
 0001:00017dda       ?zoomOut@QTextEdit@@UAEXXZ 00418dda f   qt-mt323:qt-mt323.dll
 0001:00017de0       ?zoomIn@QTextEdit@@UAEXH@Z 00418de0 f   qt-mt323:qt-mt323.dll
 0001:00017de6       ?zoomIn@QTextEdit@@UAEXXZ  00418de6 f   qt-mt323:qt-mt323.dll
 0001:00017dec       ?setTabStopWidth@QTextEdit@@UAEXH@Z 00418dec f   qt-mt323:qt-mt323.dll
 0001:00017df2       ?selectAll@QTextEdit@@UAEX_N@Z 00418df2 f   qt-mt323:qt-mt323.dll
 0001:00017df8       ?setTextFormat@QTextEdit@@UAEXW4TextFormat@Qt@@@Z 00418df8 f   qt-mt323:qt-mt323.dll
 0001:00017dfe       ?setText@QTextEdit@@UAEXABVQString@@0@Z 00418dfe f   qt-mt323:qt-mt323.dll
 0001:00017e04       ?append@QTextEdit@@UAEXABVQString@@@Z 00418e04 f   qt-mt323:qt-mt323.dll
 0001:00017e0a       ?copy@QTextEdit@@UAEXXZ    00418e0a f   qt-mt323:qt-mt323.dll
 0001:00017e10       ?setWrapPolicy@QTextEdit@@UAEXW4WrapPolicy@1@@Z 00418e10 f   qt-mt323:qt-mt323.dll
 0001:00017e16       ?setWrapColumnOrWidth@QTextEdit@@UAEXH@Z 00418e16 f   qt-mt323:qt-mt323.dll
 0001:00017e1c       ?setWordWrap@QTextEdit@@UAEXW4WordWrap@1@@Z 00418e1c f   qt-mt323:qt-mt323.dll
 0001:00017e22       ?setLinkUnderline@QTextEdit@@UAEX_N@Z 00418e22 f   qt-mt323:qt-mt323.dll
 0001:00017e28       ?setPaper@QTextEdit@@UAEXABVQBrush@@@Z 00418e28 f   qt-mt323:qt-mt323.dll
 0001:00017e2e       ?scrollToAnchor@QTextEdit@@UAEXABVQString@@@Z 00418e2e f   qt-mt323:qt-mt323.dll
 0001:00017e34       ?setStyleSheet@QTextEdit@@UAEXPAVQStyleSheet@@@Z 00418e34 f   qt-mt323:qt-mt323.dll
 0001:00017e3a       ?setMimeSourceFactory@QTextEdit@@UAEXPAVQMimeSourceFactory@@@Z 00418e3a f   qt-mt323:qt-mt323.dll
 0001:00017e40       ?getParagraphFormat@QTextEdit@@UAE_NHPAVQFont@@PAVQColor@@PAW4VerticalAlignment@1@PAHPAW4DisplayMode@QStyleSheetItem@@PAW4ListStyle@6@3@Z 00418e40 f   qt-mt323:qt-mt323.dll
 0001:00017e46       ?getFormat@QTextEdit@@UAE_NHHPAVQFont@@PAVQColor@@PAW4VerticalAlignment@1@@Z 00418e46 f   qt-mt323:qt-mt323.dll
 0001:00017e4c       ?find@QTextEdit@@UAE_NABVQString@@_N11PAH2@Z 00418e4c f   qt-mt323:qt-mt323.dll
 0001:00017e52       ?viewportResizeEvent@QTextEdit@@MAEXPAVQResizeEvent@@@Z 00418e52 f   qt-mt323:qt-mt323.dll
 0001:00017e58       ?contentsContextMenuEvent@QTextEdit@@MAEXPAVQContextMenuEvent@@@Z 00418e58 f   qt-mt323:qt-mt323.dll
 0001:00017e5e       ?contentsWheelEvent@QTextEdit@@MAEXPAVQWheelEvent@@@Z 00418e5e f   qt-mt323:qt-mt323.dll
 0001:00017e64       ?contentsDropEvent@QTextEdit@@MAEXPAVQDropEvent@@@Z 00418e64 f   qt-mt323:qt-mt323.dll
 0001:00017e6a       ?contentsDragLeaveEvent@QTextEdit@@MAEXPAVQDragLeaveEvent@@@Z 00418e6a f   qt-mt323:qt-mt323.dll
 0001:00017e70       ?contentsDragMoveEvent@QTextEdit@@MAEXPAVQDragMoveEvent@@@Z 00418e70 f   qt-mt323:qt-mt323.dll
 0001:00017e76       ?contentsDragEnterEvent@QTextEdit@@MAEXPAVQDragEnterEvent@@@Z 00418e76 f   qt-mt323:qt-mt323.dll
 0001:00017e7c       ?contentsMouseMoveEvent@QTextEdit@@MAEXPAVQMouseEvent@@@Z 00418e7c f   qt-mt323:qt-mt323.dll
 0001:00017e82       ?contentsMouseDoubleClickEvent@QTextEdit@@MAEXPAVQMouseEvent@@@Z 00418e82 f   qt-mt323:qt-mt323.dll
 0001:00017e88       ?contentsMouseReleaseEvent@QTextEdit@@MAEXPAVQMouseEvent@@@Z 00418e88 f   qt-mt323:qt-mt323.dll
 0001:00017e8e       ?contentsMousePressEvent@QTextEdit@@MAEXPAVQMouseEvent@@@Z 00418e8e f   qt-mt323:qt-mt323.dll
 0001:00017e94       ?drawContents@QTextEdit@@MAEXPAVQPainter@@HHHH@Z 00418e94 f   qt-mt323:qt-mt323.dll
 0001:00017e9a       ?drawContents@QTextEdit@@EAEXPAVQPainter@@@Z 00418e9a f   qt-mt323:qt-mt323.dll
 0001:00017ea0       ?focusNextPrevChild@QTextEdit@@MAE_N_N@Z 00418ea0 f   qt-mt323:qt-mt323.dll
 0001:00017ea6       ?windowActivationChange@QTextEdit@@MAEX_N@Z 00418ea6 f   qt-mt323:qt-mt323.dll
 0001:00017eac       ?imEndEvent@QTextEdit@@MAEXPAVQIMEvent@@@Z 00418eac f   qt-mt323:qt-mt323.dll
 0001:00017eb2       ?imComposeEvent@QTextEdit@@MAEXPAVQIMEvent@@@Z 00418eb2 f   qt-mt323:qt-mt323.dll
 0001:00017eb8       ?imStartEvent@QTextEdit@@MAEXPAVQIMEvent@@@Z 00418eb8 f   qt-mt323:qt-mt323.dll
 0001:00017ebe       ?resizeEvent@QTextEdit@@MAEXPAVQResizeEvent@@@Z 00418ebe f   qt-mt323:qt-mt323.dll
 0001:00017ec4       ?keyPressEvent@QTextEdit@@MAEXPAVQKeyEvent@@@Z 00418ec4 f   qt-mt323:qt-mt323.dll
 0001:00017eca       ?heightForWidth@QTextEdit@@UBEHH@Z 00418eca f   qt-mt323:qt-mt323.dll
 0001:00017ed0       ?sizeHint@QTextEdit@@UBE?AVQSize@@XZ 00418ed0 f   qt-mt323:qt-mt323.dll
 0001:00017ed6       ?polish@QTextEdit@@UAEXXZ  00418ed6 f   qt-mt323:qt-mt323.dll
 0001:00017edc       ?setFont@QTextEdit@@UAEXABVQFont@@@Z 00418edc f   qt-mt323:qt-mt323.dll
 0001:00017ee2       ?setPalette@QTextEdit@@UAEXABVQPalette@@@Z 00418ee2 f   qt-mt323:qt-mt323.dll
 0001:00017ee8       ?setEnabled@QTextEdit@@UAEX_N@Z 00418ee8 f   qt-mt323:qt-mt323.dll
 0001:00017eee       ?eventFilter@QTextEdit@@UAE_NPAVQObject@@PAVQEvent@@@Z 00418eee f   qt-mt323:qt-mt323.dll
 0001:00017ef4       ?event@QTextEdit@@MAE_NPAVQEvent@@@Z 00418ef4 f   qt-mt323:qt-mt323.dll
 0001:00017efa       ?qt_property@QTextEdit@@UAE_NHHPAVQVariant@@@Z 00418efa f   qt-mt323:qt-mt323.dll
 0001:00017f00       ?qt_emit@QTextEdit@@UAE_NHPAUQUObject@@@Z 00418f00 f   qt-mt323:qt-mt323.dll
 0001:00017f06       ?qt_invoke@QTextEdit@@UAE_NHPAUQUObject@@@Z 00418f06 f   qt-mt323:qt-mt323.dll
 0001:00017f0c       ?qt_cast@QTextEdit@@UAEPAXPBD@Z 00418f0c f   qt-mt323:qt-mt323.dll
 0001:00017f12       ?className@QTextEdit@@UBEPBDXZ 00418f12 f   qt-mt323:qt-mt323.dll
 0001:00017f18       ?metaObject@QTextEdit@@UBEPAVQMetaObject@@XZ 00418f18 f   qt-mt323:qt-mt323.dll
 0001:00017f1e       ?setAutoAdvance@QDateTimeEdit@@UAEX_N@Z 00418f1e f   qt-mt323:qt-mt323.dll
 0001:00017f24       ?setDateTime@QDateTimeEdit@@UAEXABVQDateTime@@@Z 00418f24 f   qt-mt323:qt-mt323.dll
 0001:00017f2a       ?resizeEvent@QDateTimeEdit@@MAEXPAVQResizeEvent@@@Z 00418f2a f   qt-mt323:qt-mt323.dll
 0001:00017f30       ?minimumSizeHint@QDateTimeEdit@@UBE?AVQSize@@XZ 00418f30 f   qt-mt323:qt-mt323.dll
 0001:00017f36       ?sizeHint@QDateTimeEdit@@UBE?AVQSize@@XZ 00418f36 f   qt-mt323:qt-mt323.dll
 0001:00017f3c       ?qt_property@QDateTimeEdit@@UAE_NHHPAVQVariant@@@Z 00418f3c f   qt-mt323:qt-mt323.dll
 0001:00017f42       ?qt_emit@QDateTimeEdit@@UAE_NHPAUQUObject@@@Z 00418f42 f   qt-mt323:qt-mt323.dll
 0001:00017f48       ?qt_invoke@QDateTimeEdit@@UAE_NHPAUQUObject@@@Z 00418f48 f   qt-mt323:qt-mt323.dll
 0001:00017f4e       ?qt_cast@QDateTimeEdit@@UAEPAXPBD@Z 00418f4e f   qt-mt323:qt-mt323.dll
 0001:00017f54       ?className@QDateTimeEdit@@UBEPBDXZ 00418f54 f   qt-mt323:qt-mt323.dll
 0001:00017f5a       ?metaObject@QDateTimeEdit@@UBEPAVQMetaObject@@XZ 00418f5a f   qt-mt323:qt-mt323.dll
 0001:00017f60       ?sizeHint@QFrame@@UBE?AVQSize@@XZ 00418f60 f   qt-mt323:qt-mt323.dll
 0001:00017f66       ?qt_property@QFrame@@UAE_NHHPAVQVariant@@@Z 00418f66 f   qt-mt323:qt-mt323.dll
 0001:00017f6c       ?qt_emit@QFrame@@UAE_NHPAUQUObject@@@Z 00418f6c f   qt-mt323:qt-mt323.dll
 0001:00017f72       ?qt_invoke@QFrame@@UAE_NHPAUQUObject@@@Z 00418f72 f   qt-mt323:qt-mt323.dll
 0001:00017f78       ?qt_cast@QFrame@@UAEPAXPBD@Z 00418f78 f   qt-mt323:qt-mt323.dll
 0001:00017f7e       ?className@QFrame@@UBEPBDXZ 00418f7e f   qt-mt323:qt-mt323.dll
 0001:00017f84       ?metaObject@QFrame@@UBEPAVQMetaObject@@XZ 00418f84 f   qt-mt323:qt-mt323.dll
 0001:00017f8a       ?setIndicator@QProgressBar@@MAE_NAAVQString@@HH@Z 00418f8a f   qt-mt323:qt-mt323.dll
 0001:00017f90       ?setProgress@QProgressBar@@UAEXH@Z 00418f90 f   qt-mt323:qt-mt323.dll
 0001:00017f96       ?setTotalSteps@QProgressBar@@UAEXH@Z 00418f96 f   qt-mt323:qt-mt323.dll
 0001:00017f9c       ?drawContents@QProgressBar@@MAEXPAVQPainter@@@Z 00418f9c f   qt-mt323:qt-mt323.dll
 0001:00017fa2       ?styleChange@QProgressBar@@MAEXAAVQStyle@@@Z 00418fa2 f   qt-mt323:qt-mt323.dll
 0001:00017fa8       ?minimumSizeHint@QProgressBar@@UBE?AVQSize@@XZ 00418fa8 f   qt-mt323:qt-mt323.dll
 0001:00017fae       ?sizeHint@QProgressBar@@UBE?AVQSize@@XZ 00418fae f   qt-mt323:qt-mt323.dll
 0001:00017fb4       ?show@QProgressBar@@UAEXXZ 00418fb4 f   qt-mt323:qt-mt323.dll
 0001:00017fba       ?qt_property@QProgressBar@@UAE_NHHPAVQVariant@@@Z 00418fba f   qt-mt323:qt-mt323.dll
 0001:00017fc0       ?qt_emit@QProgressBar@@UAE_NHPAUQUObject@@@Z 00418fc0 f   qt-mt323:qt-mt323.dll
 0001:00017fc6       ?qt_invoke@QProgressBar@@UAE_NHPAUQUObject@@@Z 00418fc6 f   qt-mt323:qt-mt323.dll
 0001:00017fcc       ?qt_cast@QProgressBar@@UAEPAXPBD@Z 00418fcc f   qt-mt323:qt-mt323.dll
 0001:00017fd2       ?className@QProgressBar@@UBEPBDXZ 00418fd2 f   qt-mt323:qt-mt323.dll
 0001:00017fd8       ?metaObject@QProgressBar@@UBEPAVQMetaObject@@XZ 00418fd8 f   qt-mt323:qt-mt323.dll
 0001:00017fde       ?rangeChange@QSlider@@MAEXXZ 00418fde f   qt-mt323:qt-mt323.dll
 0001:00017fe4       ?valueChange@QSlider@@MAEXXZ 00418fe4 f   qt-mt323:qt-mt323.dll
 0001:00017fea       ?setValue@QSlider@@UAEXH@Z 00418fea f   qt-mt323:qt-mt323.dll
 0001:00017ff0       ?setTickInterval@QSlider@@UAEXH@Z 00418ff0 f   qt-mt323:qt-mt323.dll
 0001:00017ff6       ?setTickmarks@QSlider@@UAEXW4TickSetting@1@@Z 00418ff6 f   qt-mt323:qt-mt323.dll
 0001:00017ffc       ?setTracking@QSlider@@UAEX_N@Z 00418ffc f   qt-mt323:qt-mt323.dll
 0001:00018002       ?setOrientation@QSlider@@UAEXW4Orientation@Qt@@@Z 00419002 f   qt-mt323:qt-mt323.dll
 0001:00018008       ?styleChange@QSlider@@MAEXAAVQStyle@@@Z 00419008 f   qt-mt323:qt-mt323.dll
 0001:0001800e       ?resizeEvent@QSlider@@MAEXPAVQResizeEvent@@@Z 0041900e f   qt-mt323:qt-mt323.dll
 0001:00018014       ?paintEvent@QSlider@@MAEXPAVQPaintEvent@@@Z 00419014 f   qt-mt323:qt-mt323.dll
 0001:0001801a       ?focusOutEvent@QSlider@@MAEXPAVQFocusEvent@@@Z 0041901a f   qt-mt323:qt-mt323.dll
 0001:00018020       ?focusInEvent@QSlider@@MAEXPAVQFocusEvent@@@Z 00419020 f   qt-mt323:qt-mt323.dll
 0001:00018026       ?keyPressEvent@QSlider@@MAEXPAVQKeyEvent@@@Z 00419026 f   qt-mt323:qt-mt323.dll
 0001:0001802c       ?wheelEvent@QSlider@@MAEXPAVQWheelEvent@@@Z 0041902c f   qt-mt323:qt-mt323.dll
 0001:00018032       ?mouseMoveEvent@QSlider@@MAEXPAVQMouseEvent@@@Z 00419032 f   qt-mt323:qt-mt323.dll
 0001:00018038       ?mouseReleaseEvent@QSlider@@MAEXPAVQMouseEvent@@@Z 00419038 f   qt-mt323:qt-mt323.dll
 0001:0001803e       ?mousePressEvent@QSlider@@MAEXPAVQMouseEvent@@@Z 0041903e f   qt-mt323:qt-mt323.dll
 0001:00018044       ?setSizePolicy@QSlider@@UAEXVQSizePolicy@@@Z 00419044 f   qt-mt323:qt-mt323.dll
 0001:0001804a       ?sizePolicy@QSlider@@UBE?AVQSizePolicy@@XZ 0041904a f   qt-mt323:qt-mt323.dll
 0001:00018050       ?minimumSizeHint@QSlider@@UBE?AVQSize@@XZ 00419050 f   qt-mt323:qt-mt323.dll
 0001:00018056       ?sizeHint@QSlider@@UBE?AVQSize@@XZ 00419056 f   qt-mt323:qt-mt323.dll
 0001:0001805c       ?setPalette@QSlider@@UAEXABVQPalette@@@Z 0041905c f   qt-mt323:qt-mt323.dll
 0001:00018062       ?qt_property@QSlider@@UAE_NHHPAVQVariant@@@Z 00419062 f   qt-mt323:qt-mt323.dll
 0001:00018068       ?qt_emit@QSlider@@UAE_NHPAUQUObject@@@Z 00419068 f   qt-mt323:qt-mt323.dll
 0001:0001806e       ?qt_invoke@QSlider@@UAE_NHPAUQUObject@@@Z 0041906e f   qt-mt323:qt-mt323.dll
 0001:00018074       ?qt_cast@QSlider@@UAEPAXPBD@Z 00419074 f   qt-mt323:qt-mt323.dll
 0001:0001807a       ?className@QSlider@@UBEPBDXZ 0041907a f   qt-mt323:qt-mt323.dll
 0001:00018080       ?metaObject@QSlider@@UBEPAVQMetaObject@@XZ 00419080 f   qt-mt323:qt-mt323.dll
 0001:00018086       ?setRubberband@QSplitter@@MAEXH@Z 00419086 f   qt-mt323:qt-mt323.dll
 0001:0001808c       ?drawSplitter@QSplitter@@MAEXPAVQPainter@@HHHH@Z 0041908c f   qt-mt323:qt-mt323.dll
 0001:00018092       ?setOpaqueResize@QSplitter@@UAEX_N@Z 00419092 f   qt-mt323:qt-mt323.dll
 0001:00018098       ?setResizeMode@QSplitter@@UAEXPAVQWidget@@W4ResizeMode@1@@Z 00419098 f   qt-mt323:qt-mt323.dll
 0001:0001809e       ?setOrientation@QSplitter@@UAEXW4Orientation@Qt@@@Z 0041909e f   qt-mt323:qt-mt323.dll
 0001:000180a4       ?styleChange@QSplitter@@MAEXAAVQStyle@@@Z 004190a4 f   qt-mt323:qt-mt323.dll
 0001:000180aa       ?resizeEvent@QSplitter@@MAEXPAVQResizeEvent@@@Z 004190aa f   qt-mt323:qt-mt323.dll
 0001:000180b0       ?minimumSizeHint@QSplitter@@UBE?AVQSize@@XZ 004190b0 f   qt-mt323:qt-mt323.dll
 0001:000180b6       ?sizeHint@QSplitter@@UBE?AVQSize@@XZ 004190b6 f   qt-mt323:qt-mt323.dll
 0001:000180bc       ?childEvent@QSplitter@@MAEXPAVQChildEvent@@@Z 004190bc f   qt-mt323:qt-mt323.dll
 0001:000180c2       ?event@QSplitter@@MAE_NPAVQEvent@@@Z 004190c2 f   qt-mt323:qt-mt323.dll
 0001:000180c8       ?qt_property@QSplitter@@UAE_NHHPAVQVariant@@@Z 004190c8 f   qt-mt323:qt-mt323.dll
 0001:000180ce       ?qt_emit@QSplitter@@UAE_NHPAUQUObject@@@Z 004190ce f   qt-mt323:qt-mt323.dll
 0001:000180d4       ?qt_invoke@QSplitter@@UAE_NHPAUQUObject@@@Z 004190d4 f   qt-mt323:qt-mt323.dll
 0001:000180da       ?qt_cast@QSplitter@@UAEPAXPBD@Z 004190da f   qt-mt323:qt-mt323.dll
 0001:000180e0       ?className@QSplitter@@UBEPBDXZ 004190e0 f   qt-mt323:qt-mt323.dll
 0001:000180e6       ?metaObject@QSplitter@@UBEPAVQMetaObject@@XZ 004190e6 f   qt-mt323:qt-mt323.dll
 0001:000180ec       ?stepChange@QScrollBar@@MAEXXZ 004190ec f   qt-mt323:qt-mt323.dll
 0001:000180f2       ?rangeChange@QScrollBar@@MAEXXZ 004190f2 f   qt-mt323:qt-mt323.dll
 0001:000180f8       ?valueChange@QScrollBar@@MAEXXZ 004190f8 f   qt-mt323:qt-mt323.dll
 0001:000180fe       ?setTracking@QScrollBar@@UAEX_N@Z 004190fe f   qt-mt323:qt-mt323.dll
 0001:00018104       ?setOrientation@QScrollBar@@UAEXW4Orientation@Qt@@@Z 00419104 f   qt-mt323:qt-mt323.dll
 0001:0001810a       ?styleChange@QScrollBar@@MAEXAAVQStyle@@@Z 0041910a f   qt-mt323:qt-mt323.dll
 0001:00018110       ?hideEvent@QScrollBar@@MAEXPAVQHideEvent@@@Z 00419110 f   qt-mt323:qt-mt323.dll
 0001:00018116       ?contextMenuEvent@QScrollBar@@MAEXPAVQContextMenuEvent@@@Z 00419116 f   qt-mt323:qt-mt323.dll
 0001:0001811c       ?resizeEvent@QScrollBar@@MAEXPAVQResizeEvent@@@Z 0041911c f   qt-mt323:qt-mt323.dll
 0001:00018122       ?paintEvent@QScrollBar@@MAEXPAVQPaintEvent@@@Z 00419122 f   qt-mt323:qt-mt323.dll
 0001:00018128       ?keyPressEvent@QScrollBar@@MAEXPAVQKeyEvent@@@Z 00419128 f   qt-mt323:qt-mt323.dll
 0001:0001812e       ?wheelEvent@QScrollBar@@MAEXPAVQWheelEvent@@@Z 0041912e f   qt-mt323:qt-mt323.dll
 0001:00018134       ?mouseMoveEvent@QScrollBar@@MAEXPAVQMouseEvent@@@Z 00419134 f   qt-mt323:qt-mt323.dll
 0001:0001813a       ?mouseReleaseEvent@QScrollBar@@MAEXPAVQMouseEvent@@@Z 0041913a f   qt-mt323:qt-mt323.dll
 0001:00018140       ?mousePressEvent@QScrollBar@@MAEXPAVQMouseEvent@@@Z 00419140 f   qt-mt323:qt-mt323.dll
 0001:00018146       ?setSizePolicy@QScrollBar@@UAEXVQSizePolicy@@@Z 00419146 f   qt-mt323:qt-mt323.dll
 0001:0001814c       ?sizeHint@QScrollBar@@UBE?AVQSize@@XZ 0041914c f   qt-mt323:qt-mt323.dll
 0001:00018152       ?setPalette@QScrollBar@@UAEXABVQPalette@@@Z 00419152 f   qt-mt323:qt-mt323.dll
 0001:00018158       ?qt_property@QScrollBar@@UAE_NHHPAVQVariant@@@Z 00419158 f   qt-mt323:qt-mt323.dll
 0001:0001815e       ?qt_emit@QScrollBar@@UAE_NHPAUQUObject@@@Z 0041915e f   qt-mt323:qt-mt323.dll
 0001:00018164       ?qt_invoke@QScrollBar@@UAE_NHPAUQUObject@@@Z 00419164 f   qt-mt323:qt-mt323.dll
 0001:0001816a       ?qt_cast@QScrollBar@@UAEPAXPBD@Z 0041916a f   qt-mt323:qt-mt323.dll
 0001:00018170       ?className@QScrollBar@@UBEPBDXZ 00419170 f   qt-mt323:qt-mt323.dll
 0001:00018176       ?metaObject@QScrollBar@@UBEPAVQMetaObject@@XZ 00419176 f   qt-mt323:qt-mt323.dll
 0001:0001817c       ?layOutTitleRow@QWizard@@MAEXPAVQHBoxLayout@@ABVQString@@@Z 0041917c f   qt-mt323:qt-mt323.dll
 0001:00018182       ?layOutButtonRow@QWizard@@MAEXPAVQHBoxLayout@@@Z 00419182 f   qt-mt323:qt-mt323.dll
 0001:00018188       ?help@QWizard@@MAEXXZ      00419188 f   qt-mt323:qt-mt323.dll
 0001:0001818e       ?next@QWizard@@MAEXXZ      0041918e f   qt-mt323:qt-mt323.dll
 0001:00018194       ?back@QWizard@@MAEXXZ      00419194 f   qt-mt323:qt-mt323.dll
 0001:0001819a       ?setFinish@QWizard@@UAEXPAVQWidget@@_N@Z 0041919a f   qt-mt323:qt-mt323.dll
 0001:000181a0       ?setHelpEnabled@QWizard@@UAEXPAVQWidget@@_N@Z 004191a0 f   qt-mt323:qt-mt323.dll
 0001:000181a6       ?setFinishEnabled@QWizard@@UAEXPAVQWidget@@_N@Z 004191a6 f   qt-mt323:qt-mt323.dll
 0001:000181ac       ?setNextEnabled@QWizard@@UAEXPAVQWidget@@_N@Z 004191ac f   qt-mt323:qt-mt323.dll
 0001:000181b2       ?setBackEnabled@QWizard@@UAEXPAVQWidget@@_N@Z 004191b2 f   qt-mt323:qt-mt323.dll
 0001:000181b8       ?setAppropriate@QWizard@@UAEXPAVQWidget@@_N@Z 004191b8 f   qt-mt323:qt-mt323.dll
 0001:000181be       ?appropriate@QWizard@@UBE_NPAVQWidget@@@Z 004191be f   qt-mt323:qt-mt323.dll
 0001:000181c4       ?showPage@QWizard@@UAEXPAVQWidget@@@Z 004191c4 f   qt-mt323:qt-mt323.dll
 0001:000181ca       ?removePage@QWizard@@UAEXPAVQWidget@@@Z 004191ca f   qt-mt323:qt-mt323.dll
 0001:000181d0       ?insertPage@QWizard@@UAEXPAVQWidget@@ABVQString@@H@Z 004191d0 f   qt-mt323:qt-mt323.dll
 0001:000181d6       ?addPage@QWizard@@UAEXPAVQWidget@@ABVQString@@@Z 004191d6 f   qt-mt323:qt-mt323.dll
 0001:000181dc       ?show@QWizard@@UAEXXZ      004191dc f   qt-mt323:qt-mt323.dll
 0001:000181e2       ?setFont@QWizard@@UAEXABVQFont@@@Z 004191e2 f   qt-mt323:qt-mt323.dll
 0001:000181e8       ?eventFilter@QWizard@@UAE_NPAVQObject@@PAVQEvent@@@Z 004191e8 f   qt-mt323:qt-mt323.dll
 0001:000181ee       ?qt_property@QWizard@@UAE_NHHPAVQVariant@@@Z 004191ee f   qt-mt323:qt-mt323.dll
 0001:000181f4       ?qt_emit@QWizard@@UAE_NHPAUQUObject@@@Z 004191f4 f   qt-mt323:qt-mt323.dll
 0001:000181fa       ?qt_invoke@QWizard@@UAE_NHPAUQUObject@@@Z 004191fa f   qt-mt323:qt-mt323.dll
 0001:00018200       ?qt_cast@QWizard@@UAEPAXPBD@Z 00419200 f   qt-mt323:qt-mt323.dll
 0001:00018206       ?className@QWizard@@UBEPBDXZ 00419206 f   qt-mt323:qt-mt323.dll
 0001:0001820c       ?metaObject@QWizard@@UBEPAVQMetaObject@@XZ 0041920c f   qt-mt323:qt-mt323.dll
 0001:00018212       ?className@QDialog@@UBEPBDXZ 00419212 f   qt-mt323:qt-mt323.dll
 0001:00018218       ?metaObject@QDialog@@UBEPAVQMetaObject@@XZ 00419218 f   qt-mt323:qt-mt323.dll
 0001:0001821e       ?frameChanged@QHBox@@MAEXXZ 0041921e f   qt-mt323:qt-mt323.dll
 0001:00018224       ?sizeHint@QHBox@@UBE?AVQSize@@XZ 00419224 f   qt-mt323:qt-mt323.dll
 0001:0001822a       ?qt_property@QHBox@@UAE_NHHPAVQVariant@@@Z 0041922a f   qt-mt323:qt-mt323.dll
 0001:00018230       ?qt_emit@QHBox@@UAE_NHPAUQUObject@@@Z 00419230 f   qt-mt323:qt-mt323.dll
 0001:00018236       ?qt_invoke@QHBox@@UAE_NHPAUQUObject@@@Z 00419236 f   qt-mt323:qt-mt323.dll
 0001:0001823c       ?qt_cast@QHBox@@UAEPAXPBD@Z 0041923c f   qt-mt323:qt-mt323.dll
 0001:00018242       ?className@QHBox@@UBEPBDXZ 00419242 f   qt-mt323:qt-mt323.dll
 0001:00018248       ?metaObject@QHBox@@UBEPAVQMetaObject@@XZ 00419248 f   qt-mt323:qt-mt323.dll
 0001:0001824e       ?fieldAlignment@QDataTable@@MAEHPBVQSqlField@@@Z 0041924e f   qt-mt323:qt-mt323.dll
 0001:00018254       ?paintField@QDataTable@@MAEXPAVQPainter@@PBVQSqlField@@ABVQRect@@_N@Z 00419254 f   qt-mt323:qt-mt323.dll
 0001:0001825a       ?beginUpdate@QDataTable@@MAEPAVQWidget@@HH_N@Z 0041925a f   qt-mt323:qt-mt323.dll
 0001:00018260       ?beginInsert@QDataTable@@MAE_NXZ 00419260 f   qt-mt323:qt-mt323.dll
 0001:00018266       ?handleError@QDataTable@@MAEXABVQSqlError@@@Z 00419266 f   qt-mt323:qt-mt323.dll
 0001:0001826c       ?confirmCancel@QDataTable@@MAE?AW4Confirm@QSql@@W4Op@3@@Z 0041926c f   qt-mt323:qt-mt323.dll
 0001:00018272       ?confirmEdit@QDataTable@@MAE?AW4Confirm@QSql@@W4Op@3@@Z 00419272 f   qt-mt323:qt-mt323.dll
 0001:00018278       ?deleteCurrent@QDataTable@@MAE_NXZ 00419278 f   qt-mt323:qt-mt323.dll
 0001:0001827e       ?updateCurrent@QDataTable@@MAE_NXZ 0041927e f   qt-mt323:qt-mt323.dll
 0001:00018284       ?insertCurrent@QDataTable@@MAE_NXZ 00419284 f   qt-mt323:qt-mt323.dll
 0001:0001828a       ?sortDescending@QDataTable@@UAEXH@Z 0041928a f   qt-mt323:qt-mt323.dll
 0001:00018290       ?sortAscending@QDataTable@@UAEXH@Z 00419290 f   qt-mt323:qt-mt323.dll
 0001:00018296       ?find@QDataTable@@UAEXABVQString@@_N1@Z 00419296 f   qt-mt323:qt-mt323.dll
 0001:0001829c       ?refresh@QDataTable@@UAEXXZ 0041929c f   qt-mt323:qt-mt323.dll
 0001:000182a2       ?setSort@QDataTable@@UAEXABVQStringList@@@Z 004192a2 f   qt-mt323:qt-mt323.dll
 0001:000182a8       ?setSort@QDataTable@@UAEXABVQSqlIndex@@@Z 004192a8 f   qt-mt323:qt-mt323.dll
 0001:000182ae       ?setFilter@QDataTable@@UAEXABVQString@@@Z 004192ae f   qt-mt323:qt-mt323.dll
 0001:000182b4       ?setAutoEdit@QDataTable@@UAEX_N@Z 004192b4 f   qt-mt323:qt-mt323.dll
 0001:000182ba       ?setAutoDelete@QDataTable@@UAEX_N@Z 004192ba f   qt-mt323:qt-mt323.dll
 0001:000182c0       ?setConfirmCancels@QDataTable@@UAEX_N@Z 004192c0 f   qt-mt323:qt-mt323.dll
 0001:000182c6       ?setConfirmDelete@QDataTable@@UAEX_N@Z 004192c6 f   qt-mt323:qt-mt323.dll
 0001:000182cc       ?setConfirmUpdate@QDataTable@@UAEX_N@Z 004192cc f   qt-mt323:qt-mt323.dll
 0001:000182d2       ?setConfirmInsert@QDataTable@@UAEX_N@Z 004192d2 f   qt-mt323:qt-mt323.dll
 0001:000182d8       ?setConfirmEdits@QDataTable@@UAEX_N@Z 004192d8 f   qt-mt323:qt-mt323.dll
 0001:000182de       ?setDateFormat@QDataTable@@UAEXW4DateFormat@Qt@@@Z 004192de f   qt-mt323:qt-mt323.dll
 0001:000182e4       ?setFalseText@QDataTable@@UAEXABVQString@@@Z 004192e4 f   qt-mt323:qt-mt323.dll
 0001:000182ea       ?setTrueText@QDataTable@@UAEXABVQString@@@Z 004192ea f   qt-mt323:qt-mt323.dll
 0001:000182f0       ?setNullText@QDataTable@@UAEXABVQString@@@Z 004192f0 f   qt-mt323:qt-mt323.dll
 0001:000182f6       ?setSqlCursor@QDataTable@@UAEXPAVQSqlCursor@@_N1@Z 004192f6 f   qt-mt323:qt-mt323.dll
 0001:000182fc       ?setColumn@QDataTable@@UAEXIABVQString@@0HABVQIconSet@@@Z 004192fc f   qt-mt323:qt-mt323.dll
 0001:00018302       ?removeColumn@QDataTable@@UAEXI@Z 00419302 f   qt-mt323:qt-mt323.dll
 0001:00018308       ?addColumn@QDataTable@@UAEXABVQString@@0HABVQIconSet@@@Z 00419308 f   qt-mt323:qt-mt323.dll
 0001:0001830e       ?columnClicked@QDataTable@@MAEXH@Z 0041930e f   qt-mt323:qt-mt323.dll
 0001:00018314       ?resizeData@QDataTable@@MAEXH@Z 00419314 f   qt-mt323:qt-mt323.dll
 0001:0001831a       ?endEdit@QDataTable@@MAEXHH_N0@Z 0041931a f   qt-mt323:qt-mt323.dll
 0001:00018320       ?beginEdit@QDataTable@@EAEPAVQWidget@@HH_N@Z 00419320 f   qt-mt323:qt-mt323.dll
 0001:00018326       ?createEditor@QDataTable@@MBEPAVQWidget@@HH_N@Z 00419326 f   qt-mt323:qt-mt323.dll
 0001:0001832c       ?activateNextCell@QDataTable@@MAEXXZ 0041932c f   qt-mt323:qt-mt323.dll
 0001:00018332       ?swapColumns@QDataTable@@UAEXHH_N@Z 00419332 f   qt-mt323:qt-mt323.dll
 0001:00018338       ?setColumnStretchable@QDataTable@@UAEXH_N@Z 00419338 f   qt-mt323:qt-mt323.dll
 0001:0001833e       ?adjustColumn@QDataTable@@UAEXH@Z 0041933e f   qt-mt323:qt-mt323.dll
 0001:00018344       ?setColumnWidth@QDataTable@@UAEXHH@Z 00419344 f   qt-mt323:qt-mt323.dll
 0001:0001834a       ?showColumn@QDataTable@@UAEXH@Z 0041934a f   qt-mt323:qt-mt323.dll
 0001:00018350       ?hideColumn@QDataTable@@UAEXH@Z 00419350 f   qt-mt323:qt-mt323.dll
 0001:00018356       ?setNumCols@QDataTable@@UAEXH@Z 00419356 f   qt-mt323:qt-mt323.dll
 0001:0001835c       ?setNumRows@QDataTable@@UAEXH@Z 0041935c f   qt-mt323:qt-mt323.dll
 0001:00018362       ?paintCell@QDataTable@@MAEXPAVQPainter@@HHABVQRect@@_NABVQColorGroup@@@Z 00419362 f   qt-mt323:qt-mt323.dll
 0001:00018368       ?takeItem@QDataTable@@MAEXPAVQTableItem@@@Z 00419368 f   qt-mt323:qt-mt323.dll
 0001:0001836e       ?sortColumn@QDataTable@@UAEXH_N0@Z 0041936e f   qt-mt323:qt-mt323.dll
 0001:00018374       ?numCols@QDataTable@@UBEHXZ 00419374 f   qt-mt323:qt-mt323.dll
 0001:0001837a       ?numRows@QDataTable@@UBEHXZ 0041937a f   qt-mt323:qt-mt323.dll
 0001:00018380       ?clearCell@QDataTable@@MAEXHH@Z 00419380 f   qt-mt323:qt-mt323.dll
 0001:00018386       ?text@QDataTable@@UBE?AVQString@@HH@Z 00419386 f   qt-mt323:qt-mt323.dll
 0001:0001838c       ?item@QDataTable@@MBEPAVQTableItem@@HH@Z 0041938c f   qt-mt323:qt-mt323.dll
 0001:00018392       ?setPixmap@QDataTable@@MAEXHHABVQPixmap@@@Z 00419392 f   qt-mt323:qt-mt323.dll
 0001:00018398       ?setItem@QDataTable@@MAEXHHPAVQTableItem@@@Z 00419398 f   qt-mt323:qt-mt323.dll
 0001:0001839e       ?contentsContextMenuEvent@QDataTable@@MAEXPAVQContextMenuEvent@@@Z 0041939e f   qt-mt323:qt-mt323.dll
 0001:000183a4       ?contentsMousePressEvent@QDataTable@@MAEXPAVQMouseEvent@@@Z 004193a4 f   qt-mt323:qt-mt323.dll
 0001:000183aa       ?drawContents@QDataTable@@MAEXPAVQPainter@@HHHH@Z 004193aa f   qt-mt323:qt-mt323.dll
 0001:000183b0       ?resizeEvent@QDataTable@@MAEXPAVQResizeEvent@@@Z 004193b0 f   qt-mt323:qt-mt323.dll
 0001:000183b6       ?keyPressEvent@QDataTable@@MAEXPAVQKeyEvent@@@Z 004193b6 f   qt-mt323:qt-mt323.dll
 0001:000183bc       ?eventFilter@QDataTable@@MAE_NPAVQObject@@PAVQEvent@@@Z 004193bc f   qt-mt323:qt-mt323.dll
 0001:000183c2       ?qt_property@QDataTable@@UAE_NHHPAVQVariant@@@Z 004193c2 f   qt-mt323:qt-mt323.dll
 0001:000183c8       ?qt_emit@QDataTable@@UAE_NHPAUQUObject@@@Z 004193c8 f   qt-mt323:qt-mt323.dll
 0001:000183ce       ?qt_invoke@QDataTable@@UAE_NHPAUQUObject@@@Z 004193ce f   qt-mt323:qt-mt323.dll
 0001:000183d4       ?qt_cast@QDataTable@@UAEPAXPBD@Z 004193d4 f   qt-mt323:qt-mt323.dll
 0001:000183da       ?className@QDataTable@@UBEPBDXZ 004193da f   qt-mt323:qt-mt323.dll
 0001:000183e0       ?metaObject@QDataTable@@UBEPAVQMetaObject@@XZ 004193e0 f   qt-mt323:qt-mt323.dll
 0001:000183e6       ?columnClicked@QTable@@MAEXH@Z 004193e6 f   qt-mt323:qt-mt323.dll
 0001:000183ec       ?rowIndexChanged@QTable@@MAEXHHH@Z 004193ec f   qt-mt323:qt-mt323.dll
 0001:000183f2       ?columnIndexChanged@QTable@@MAEXHHH@Z 004193f2 f   qt-mt323:qt-mt323.dll
 0001:000183f8       ?rowHeightChanged@QTable@@MAEXH@Z 004193f8 f   qt-mt323:qt-mt323.dll
 0001:000183fe       ?columnWidthChanged@QTable@@MAEXH@Z 004193fe f   qt-mt323:qt-mt323.dll
 0001:00018404       ?insertWidget@QTable@@MAEXHHPAVQWidget@@@Z 00419404 f   qt-mt323:qt-mt323.dll
 0001:0001840a       ?resizeData@QTable@@MAEXH@Z 0041940a f   qt-mt323:qt-mt323.dll
 0001:00018410       ?endEdit@QTable@@MAEXHH_N0@Z 00419410 f   qt-mt323:qt-mt323.dll
 0001:00018416       ?beginEdit@QTable@@MAEPAVQWidget@@HH_N@Z 00419416 f   qt-mt323:qt-mt323.dll
 0001:0001841c       ?setCellContentFromEditor@QTable@@MAEXHH@Z 0041941c f   qt-mt323:qt-mt323.dll
 0001:00018422       ?createEditor@QTable@@MBEPAVQWidget@@HH_N@Z 00419422 f   qt-mt323:qt-mt323.dll
 0001:00018428       ?activateNextCell@QTable@@MAEXXZ 00419428 f   qt-mt323:qt-mt323.dll
 0001:0001842e       ?paintEmptyArea@QTable@@MAEXPAVQPainter@@HHHH@Z 0041942e f   qt-mt323:qt-mt323.dll
 0001:00018434       ?startDrag@QTable@@MAEXXZ  00419434 f   qt-mt323:qt-mt323.dll
 0001:0001843a       ?dragObject@QTable@@MAEPAVQDragObject@@XZ 0041943a f   qt-mt323:qt-mt323.dll
 0001:00018440       ?editCell@QTable@@UAEXHH_N@Z 00419440 f   qt-mt323:qt-mt323.dll
 0001:00018446       ?removeColumns@QTable@@UAEXABV?$QMemArray@H@@@Z 00419446 f   qt-mt323:qt-mt323.dll
 0001:0001844c       ?removeColumn@QTable@@UAEXH@Z 0041944c f   qt-mt323:qt-mt323.dll
 0001:00018452       ?removeRows@QTable@@UAEXABV?$QMemArray@H@@@Z 00419452 f   qt-mt323:qt-mt323.dll
 0001:00018458       ?removeRow@QTable@@UAEXH@Z 00419458 f   qt-mt323:qt-mt323.dll
 0001:0001845e       ?insertColumns@QTable@@UAEXHH@Z 0041945e f   qt-mt323:qt-mt323.dll
 0001:00018464       ?insertRows@QTable@@UAEXHH@Z 00419464 f   qt-mt323:qt-mt323.dll
 0001:0001846a       ?setDragEnabled@QTable@@UAEX_N@Z 0041946a f   qt-mt323:qt-mt323.dll
 0001:00018470       ?setColumnReadOnly@QTable@@UAEXH_N@Z 00419470 f   qt-mt323:qt-mt323.dll
 0001:00018476       ?setRowReadOnly@QTable@@UAEXH_N@Z 00419476 f   qt-mt323:qt-mt323.dll
 0001:0001847c       ?setReadOnly@QTable@@UAEX_N@Z 0041947c f   qt-mt323:qt-mt323.dll
 0001:00018482       ?setRowMovingEnabled@QTable@@UAEX_N@Z 00419482 f   qt-mt323:qt-mt323.dll
 0001:00018488       ?setColumnMovingEnabled@QTable@@UAEX_N@Z 00419488 f   qt-mt323:qt-mt323.dll
 0001:0001848e       ?setCurrentCell@QTable@@UAEXHH@Z 0041948e f   qt-mt323:qt-mt323.dll
 0001:00018494       ?setTopMargin@QTable@@UAEXH@Z 00419494 f   qt-mt323:qt-mt323.dll
 0001:0001849a       ?setLeftMargin@QTable@@UAEXH@Z 0041949a f   qt-mt323:qt-mt323.dll
 0001:000184a0       ?swapCells@QTable@@UAEXHHHH@Z 004194a0 f   qt-mt323:qt-mt323.dll
 0001:000184a6       ?swapColumns@QTable@@UAEXHH_N@Z 004194a6 f   qt-mt323:qt-mt323.dll
 0001:000184ac       ?swapRows@QTable@@UAEXHH_N@Z 004194ac f   qt-mt323:qt-mt323.dll
 0001:000184b2       ?setSorting@QTable@@UAEX_N@Z 004194b2 f   qt-mt323:qt-mt323.dll
 0001:000184b8       ?setRowStretchable@QTable@@UAEXH_N@Z 004194b8 f   qt-mt323:qt-mt323.dll
 0001:000184be       ?setColumnStretchable@QTable@@UAEXH_N@Z 004194be f   qt-mt323:qt-mt323.dll
 0001:000184c4       ?adjustRow@QTable@@UAEXH@Z 004194c4 f   qt-mt323:qt-mt323.dll
 0001:000184ca       ?adjustColumn@QTable@@UAEXH@Z 004194ca f   qt-mt323:qt-mt323.dll
 0001:000184d0       ?setRowHeight@QTable@@UAEXHH@Z 004194d0 f   qt-mt323:qt-mt323.dll
 0001:000184d6       ?setColumnWidth@QTable@@UAEXHH@Z 004194d6 f   qt-mt323:qt-mt323.dll
 0001:000184dc       ?showColumn@QTable@@UAEXH@Z 004194dc f   qt-mt323:qt-mt323.dll
 0001:000184e2       ?showRow@QTable@@UAEXH@Z   004194e2 f   qt-mt323:qt-mt323.dll
 0001:000184e8       ?hideColumn@QTable@@UAEXH@Z 004194e8 f   qt-mt323:qt-mt323.dll
 0001:000184ee       ?hideRow@QTable@@UAEXH@Z   004194ee f   qt-mt323:qt-mt323.dll
 0001:000184f4       ?setShowGrid@QTable@@UAEX_N@Z 004194f4 f   qt-mt323:qt-mt323.dll
 0001:000184fa       ?setNumCols@QTable@@UAEXH@Z 004194fa f   qt-mt323:qt-mt323.dll
 0001:00018500       ?setNumRows@QTable@@UAEXH@Z 00419500 f   qt-mt323:qt-mt323.dll
 0001:00018506       ?setFocusStyle@QTable@@UAEXW4FocusStyle@1@@Z 00419506 f   qt-mt323:qt-mt323.dll
 0001:0001850c       ?paintFocus@QTable@@UAEXPAVQPainter@@ABVQRect@@@Z 0041950c f   qt-mt323:qt-mt323.dll
 0001:00018512       ?paintCell@QTable@@UAEXPAVQPainter@@HHABVQRect@@_N@Z 00419512 f   qt-mt323:qt-mt323.dll
 0001:00018518       ?paintCell@QTable@@UAEXPAVQPainter@@HHABVQRect@@_NABVQColorGroup@@@Z 00419518 f   qt-mt323:qt-mt323.dll
 0001:0001851e       ?cellRect@QTable@@UBE?AVQRect@@HH@Z 0041951e f   qt-mt323:qt-mt323.dll
 0001:00018524       ?clearCellWidget@QTable@@UAEXHH@Z 00419524 f   qt-mt323:qt-mt323.dll
 0001:0001852a       ?cellWidget@QTable@@UBEPAVQWidget@@HH@Z 0041952a f   qt-mt323:qt-mt323.dll
 0001:00018530       ?setCellWidget@QTable@@UAEXHHPAVQWidget@@@Z 00419530 f   qt-mt323:qt-mt323.dll
 0001:00018536       ?takeItem@QTable@@UAEXPAVQTableItem@@@Z 00419536 f   qt-mt323:qt-mt323.dll
 0001:0001853c       ?sortColumn@QTable@@UAEXH_N0@Z 0041953c f   qt-mt323:qt-mt323.dll
 0001:00018542       ?currentSelection@QTable@@UBEHXZ 00419542 f   qt-mt323:qt-mt323.dll
 0001:00018548       ?removeSelection@QTable@@UAEXABVQTableSelection@@@Z 00419548 f   qt-mt323:qt-mt323.dll
 0001:0001854e       ?removeSelection@QTable@@UAEXH@Z 0041954e f   qt-mt323:qt-mt323.dll
 0001:00018554       ?addSelection@QTable@@UAEHABVQTableSelection@@@Z 00419554 f   qt-mt323:qt-mt323.dll
 0001:0001855a       ?numCols@QTable@@UBEHXZ    0041955a f   qt-mt323:qt-mt323.dll
 0001:00018560       ?numRows@QTable@@UBEHXZ    00419560 f   qt-mt323:qt-mt323.dll
 0001:00018566       ?rowAt@QTable@@UBEHH@Z     00419566 f   qt-mt323:qt-mt323.dll
 0001:0001856c       ?columnAt@QTable@@UBEHH@Z  0041956c f   qt-mt323:qt-mt323.dll
 0001:00018572       ?rowPos@QTable@@UBEHH@Z    00419572 f   qt-mt323:qt-mt323.dll
 0001:00018578       ?columnPos@QTable@@UBEHH@Z 00419578 f   qt-mt323:qt-mt323.dll
 0001:0001857e       ?rowHeight@QTable@@UBEHH@Z 0041957e f   qt-mt323:qt-mt323.dll
 0001:00018584       ?columnWidth@QTable@@UBEHH@Z 00419584 f   qt-mt323:qt-mt323.dll
 0001:0001858a       ?cellGeometry@QTable@@UBE?AVQRect@@HH@Z 0041958a f   qt-mt323:qt-mt323.dll
 0001:00018590       ?clearCell@QTable@@UAEXHH@Z 00419590 f   qt-mt323:qt-mt323.dll
 0001:00018596       ?pixmap@QTable@@UBE?AVQPixmap@@HH@Z 00419596 f   qt-mt323:qt-mt323.dll
 0001:0001859c       ?text@QTable@@UBE?AVQString@@HH@Z 0041959c f   qt-mt323:qt-mt323.dll
 0001:000185a2       ?item@QTable@@UBEPAVQTableItem@@HH@Z 004195a2 f   qt-mt323:qt-mt323.dll
 0001:000185a8       ?setPixmap@QTable@@UAEXHHABVQPixmap@@@Z 004195a8 f   qt-mt323:qt-mt323.dll
 0001:000185ae       ?setText@QTable@@UAEXHHABVQString@@@Z 004195ae f   qt-mt323:qt-mt323.dll
 0001:000185b4       ?setItem@QTable@@UAEXHHPAVQTableItem@@@Z 004195b4 f   qt-mt323:qt-mt323.dll
 0001:000185ba       ?setSelectionMode@QTable@@UAEXW4SelectionMode@1@@Z 004195ba f   qt-mt323:qt-mt323.dll
 0001:000185c0       ?viewportResizeEvent@QTable@@MAEXPAVQResizeEvent@@@Z 004195c0 f   qt-mt323:qt-mt323.dll
 0001:000185c6       ?contentsContextMenuEvent@QTable@@MAEXPAVQContextMenuEvent@@@Z 004195c6 f   qt-mt323:qt-mt323.dll
 0001:000185cc       ?contentsDropEvent@QTable@@MAEXPAVQDropEvent@@@Z 004195cc f   qt-mt323:qt-mt323.dll
 0001:000185d2       ?contentsDragLeaveEvent@QTable@@MAEXPAVQDragLeaveEvent@@@Z 004195d2 f   qt-mt323:qt-mt323.dll
 0001:000185d8       ?contentsDragMoveEvent@QTable@@MAEXPAVQDragMoveEvent@@@Z 004195d8 f   qt-mt323:qt-mt323.dll
 0001:000185de       ?contentsDragEnterEvent@QTable@@MAEXPAVQDragEnterEvent@@@Z 004195de f   qt-mt323:qt-mt323.dll
 0001:000185e4       ?contentsMouseMoveEvent@QTable@@MAEXPAVQMouseEvent@@@Z 004195e4 f   qt-mt323:qt-mt323.dll
 0001:000185ea       ?contentsMouseDoubleClickEvent@QTable@@MAEXPAVQMouseEvent@@@Z 004195ea f   qt-mt323:qt-mt323.dll
 0001:000185f0       ?contentsMouseReleaseEvent@QTable@@MAEXPAVQMouseEvent@@@Z 004195f0 f   qt-mt323:qt-mt323.dll
 0001:000185f6       ?contentsMousePressEvent@QTable@@MAEXPAVQMouseEvent@@@Z 004195f6 f   qt-mt323:qt-mt323.dll
 0001:000185fc       ?drawContents@QTable@@MAEXPAVQPainter@@HHHH@Z 004195fc f   qt-mt323:qt-mt323.dll
 0001:00018602       ?drawContents@QTable@@EAEXPAVQPainter@@@Z 00419602 f   qt-mt323:qt-mt323.dll
 0001:00018608       ?windowActivationChange@QTable@@MAEX_N@Z 00419608 f   qt-mt323:qt-mt323.dll
 0001:0001860e       ?showEvent@QTable@@MAEXPAVQShowEvent@@@Z 0041960e f   qt-mt323:qt-mt323.dll
 0001:00018614       ?resizeEvent@QScrollView@@MAEXPAVQResizeEvent@@@Z 00419614 f   qt-mt323:qt-mt323.dll
 0001:0001861a       ?paintEvent@QTable@@MAEXPAVQPaintEvent@@@Z 0041961a f   qt-mt323:qt-mt323.dll
 0001:00018620       ?focusOutEvent@QTable@@MAEXPAVQFocusEvent@@@Z 00419620 f   qt-mt323:qt-mt323.dll
 0001:00018626       ?focusInEvent@QTable@@MAEXPAVQFocusEvent@@@Z 00419626 f   qt-mt323:qt-mt323.dll
 0001:0001862c       ?keyPressEvent@QTable@@MAEXPAVQKeyEvent@@@Z 0041962c f   qt-mt323:qt-mt323.dll
 0001:00018632       ?minimumSizeHint@QScrollView@@UBE?AVQSize@@XZ 00419632 f   qt-mt323:qt-mt323.dll
 0001:00018638       ?sizeHint@QTable@@UBE?AVQSize@@XZ 00419638 f   qt-mt323:qt-mt323.dll
 0001:0001863e       ?setEnabled@QTable@@UAEX_N@Z 0041963e f   qt-mt323:qt-mt323.dll
 0001:00018644       ?eventFilter@QTable@@UAE_NPAVQObject@@PAVQEvent@@@Z 00419644 f   qt-mt323:qt-mt323.dll
 0001:0001864a       ?qt_property@QTable@@UAE_NHHPAVQVariant@@@Z 0041964a f   qt-mt323:qt-mt323.dll
 0001:00018650       ?qt_emit@QTable@@UAE_NHPAUQUObject@@@Z 00419650 f   qt-mt323:qt-mt323.dll
 0001:00018656       ?qt_invoke@QTable@@UAE_NHPAUQUObject@@@Z 00419656 f   qt-mt323:qt-mt323.dll
 0001:0001865c       ?qt_cast@QTable@@UAEPAXPBD@Z 0041965c f   qt-mt323:qt-mt323.dll
 0001:00018662       ?className@QTable@@UBEPBDXZ 00419662 f   qt-mt323:qt-mt323.dll
 0001:00018668       ?metaObject@QTable@@UBEPAVQMetaObject@@XZ 00419668 f   qt-mt323:qt-mt323.dll
 0001:0001866e       ?paintEmptyArea@QListView@@MAEXPAVQPainter@@ABVQRect@@@Z 0041966e f   qt-mt323:qt-mt323.dll
 0001:00018674       ?startDrag@QListView@@MAEXXZ 00419674 f   qt-mt323:qt-mt323.dll
 0001:0001867a       ?dragObject@QListView@@MAEPAVQDragObject@@XZ 0041967a f   qt-mt323:qt-mt323.dll
 0001:00018680       ?selectAll@QListView@@UAEX_N@Z 00419680 f   qt-mt323:qt-mt323.dll
 0001:00018686       ?invertSelection@QListView@@UAEXXZ 00419686 f   qt-mt323:qt-mt323.dll
 0001:0001868c       ?clear@QListView@@UAEXXZ   0041968c f   qt-mt323:qt-mt323.dll
 0001:00018692       ?setDefaultRenameAction@QListView@@UAEXW4RenameAction@1@@Z 00419692 f   qt-mt323:qt-mt323.dll
 0001:00018698       ?setResizeMode@QListView@@UAEXW4ResizeMode@1@@Z 00419698 f   qt-mt323:qt-mt323.dll
 0001:0001869e       ?setShowToolTips@QListView@@UAEX_N@Z 0041969e f   qt-mt323:qt-mt323.dll
 0001:000186a4       ?setShowSortIndicator@QListView@@UAEX_N@Z 004196a4 f   qt-mt323:qt-mt323.dll
 0001:000186aa       ?sort@QListView@@UAEXXZ    004196aa f   qt-mt323:qt-mt323.dll
 0001:000186b0       ?setSorting@QListView@@UAEXH_N@Z 004196b0 f   qt-mt323:qt-mt323.dll
 0001:000186b6       ?setRootIsDecorated@QListView@@UAEX_N@Z 004196b6 f   qt-mt323:qt-mt323.dll
 0001:000186bc       ?setItemMargin@QListView@@UAEXH@Z 004196bc f   qt-mt323:qt-mt323.dll
 0001:000186c2       ?setAllColumnsShowFocus@QListView@@UAEX_N@Z 004196c2 f   qt-mt323:qt-mt323.dll
 0001:000186c8       ?setCurrentItem@QListView@@UAEXPAVQListViewItem@@@Z 004196c8 f   qt-mt323:qt-mt323.dll
 0001:000186ce       ?setOpen@QListView@@UAEXPAVQListViewItem@@_N@Z 004196ce f   qt-mt323:qt-mt323.dll
 0001:000186d4       ?setSelected@QListView@@UAEXPAVQListViewItem@@_N@Z 004196d4 f   qt-mt323:qt-mt323.dll
 0001:000186da       ?clearSelection@QListView@@UAEXXZ 004196da f   qt-mt323:qt-mt323.dll
 0001:000186e0       ?setMultiSelection@QListView@@UAEX_N@Z 004196e0 f   qt-mt323:qt-mt323.dll
 0001:000186e6       ?setColumnAlignment@QListView@@UAEXHH@Z 004196e6 f   qt-mt323:qt-mt323.dll
 0001:000186ec       ?setColumnWidthMode@QListView@@UAEXHW4WidthMode@1@@Z 004196ec f   qt-mt323:qt-mt323.dll
 0001:000186f2       ?setColumnWidth@QListView@@UAEXHH@Z 004196f2 f   qt-mt323:qt-mt323.dll
 0001:000186f8       ?setColumnText@QListView@@UAEXHABVQString@@@Z 004196f8 f   qt-mt323:qt-mt323.dll
 0001:000186fe       ?setColumnText@QListView@@UAEXHABVQIconSet@@ABVQString@@@Z 004196fe f   qt-mt323:qt-mt323.dll
 0001:00018704       ?removeColumn@QListView@@UAEXH@Z 00419704 f   qt-mt323:qt-mt323.dll
 0001:0001870a       ?addColumn@QListView@@UAEHABVQString@@H@Z 0041970a f   qt-mt323:qt-mt323.dll
 0001:00018710       ?addColumn@QListView@@UAEHABVQIconSet@@ABVQString@@H@Z 00419710 f   qt-mt323:qt-mt323.dll
 0001:00018716       ?removeItem@QListView@@UAEXPAVQListViewItem@@@Z 00419716 f   qt-mt323:qt-mt323.dll
 0001:0001871c       ?takeItem@QListView@@UAEXPAVQListViewItem@@@Z 0041971c f   qt-mt323:qt-mt323.dll
 0001:00018722       ?insertItem@QListView@@UAEXPAVQListViewItem@@@Z 00419722 f   qt-mt323:qt-mt323.dll
 0001:00018728       ?setTreeStepSize@QListView@@UAEXH@Z 00419728 f   qt-mt323:qt-mt323.dll
 0001:0001872e       ?viewportResizeEvent@QListView@@MAEXPAVQResizeEvent@@@Z 0041972e f   qt-mt323:qt-mt323.dll
 0001:00018734       ?viewportPaintEvent@QScrollView@@MAEXPAVQPaintEvent@@@Z 00419734 f   qt-mt323:qt-mt323.dll
 0001:0001873a       ?contentsContextMenuEvent@QListView@@MAEXPAVQContextMenuEvent@@@Z 0041973a f   qt-mt323:qt-mt323.dll
 0001:00018740       ?contentsDropEvent@QListView@@MAEXPAVQDropEvent@@@Z 00419740 f   qt-mt323:qt-mt323.dll
 0001:00018746       ?contentsDragLeaveEvent@QListView@@MAEXPAVQDragLeaveEvent@@@Z 00419746 f   qt-mt323:qt-mt323.dll
 0001:0001874c       ?contentsDragMoveEvent@QListView@@MAEXPAVQDragMoveEvent@@@Z 0041974c f   qt-mt323:qt-mt323.dll
 0001:00018752       ?contentsDragEnterEvent@QListView@@MAEXPAVQDragEnterEvent@@@Z 00419752 f   qt-mt323:qt-mt323.dll
 0001:00018758       ?contentsMouseMoveEvent@QListView@@MAEXPAVQMouseEvent@@@Z 00419758 f   qt-mt323:qt-mt323.dll
 0001:0001875e       ?contentsMouseDoubleClickEvent@QListView@@MAEXPAVQMouseEvent@@@Z 0041975e f   qt-mt323:qt-mt323.dll
 0001:00018764       ?contentsMouseReleaseEvent@QListView@@MAEXPAVQMouseEvent@@@Z 00419764 f   qt-mt323:qt-mt323.dll
 0001:0001876a       ?contentsMousePressEvent@QListView@@MAEXPAVQMouseEvent@@@Z 0041976a f   qt-mt323:qt-mt323.dll
 0001:00018770       ?drawContentsOffset@QListView@@MAEXPAVQPainter@@HHHHHH@Z 00419770 f   qt-mt323:qt-mt323.dll
 0001:00018776       ?setContentsPos@QListView@@UAEXHH@Z 00419776 f   qt-mt323:qt-mt323.dll
 0001:0001877c       ?windowActivationChange@QListView@@MAEX_N@Z 0041977c f   qt-mt323:qt-mt323.dll
 0001:00018782       ?styleChange@QListView@@MAEXAAVQStyle@@@Z 00419782 f   qt-mt323:qt-mt323.dll
 0001:00018788       ?showEvent@QListView@@MAEXPAVQShowEvent@@@Z 00419788 f   qt-mt323:qt-mt323.dll
 0001:0001878e       ?resizeEvent@QListView@@MAEXPAVQResizeEvent@@@Z 0041978e f   qt-mt323:qt-mt323.dll
 0001:00018794       ?focusOutEvent@QListView@@MAEXPAVQFocusEvent@@@Z 00419794 f   qt-mt323:qt-mt323.dll
 0001:0001879a       ?focusInEvent@QListView@@MAEXPAVQFocusEvent@@@Z 0041979a f   qt-mt323:qt-mt323.dll
 0001:000187a0       ?keyPressEvent@QListView@@MAEXPAVQKeyEvent@@@Z 004197a0 f   qt-mt323:qt-mt323.dll
 0001:000187a6       ?mouseMoveEvent@QScrollView@@MAEXPAVQMouseEvent@@@Z 004197a6 f   qt-mt323:qt-mt323.dll
 0001:000187ac       ?mouseDoubleClickEvent@QScrollView@@MAEXPAVQMouseEvent@@@Z 004197ac f   qt-mt323:qt-mt323.dll
 0001:000187b2       ?mouseReleaseEvent@QScrollView@@MAEXPAVQMouseEvent@@@Z 004197b2 f   qt-mt323:qt-mt323.dll
 0001:000187b8       ?mousePressEvent@QScrollView@@MAEXPAVQMouseEvent@@@Z 004197b8 f   qt-mt323:qt-mt323.dll
 0001:000187be       ?minimumSizeHint@QListView@@UBE?AVQSize@@XZ 004197be f   qt-mt323:qt-mt323.dll
 0001:000187c4       ?sizeHint@QListView@@UBE?AVQSize@@XZ 004197c4 f   qt-mt323:qt-mt323.dll
 0001:000187ca       ?show@QListView@@UAEXXZ    004197ca f   qt-mt323:qt-mt323.dll
 0001:000187d0       ?setFont@QListView@@UAEXABVQFont@@@Z 004197d0 f   qt-mt323:qt-mt323.dll
 0001:000187d6       ?setPalette@QListView@@UAEXABVQPalette@@@Z 004197d6 f   qt-mt323:qt-mt323.dll
 0001:000187dc       ?eventFilter@QListView@@UAE_NPAVQObject@@PAVQEvent@@@Z 004197dc f   qt-mt323:qt-mt323.dll
 0001:000187e2       ?qt_property@QListView@@UAE_NHHPAVQVariant@@@Z 004197e2 f   qt-mt323:qt-mt323.dll
 0001:000187e8       ?qt_emit@QListView@@UAE_NHPAUQUObject@@@Z 004197e8 f   qt-mt323:qt-mt323.dll
 0001:000187ee       ?qt_invoke@QListView@@UAE_NHPAUQUObject@@@Z 004197ee f   qt-mt323:qt-mt323.dll
 0001:000187f4       ?qt_cast@QListView@@UAEPAXPBD@Z 004197f4 f   qt-mt323:qt-mt323.dll
 0001:000187fa       ?className@QListView@@UBEPBDXZ 004197fa f   qt-mt323:qt-mt323.dll
 0001:00018800       ?metaObject@QListView@@UBEPAVQMetaObject@@XZ 00419800 f   qt-mt323:qt-mt323.dll
 0001:00018806       ?outOfRange@QDateEdit@@MBE_NHHH@Z 00419806 f   qt-mt323:qt-mt323.dll
 0001:0001880c       ?fix@QDateEdit@@MAEXXZ     0041980c f   qt-mt323:qt-mt323.dll
 0001:00018812       ?setDay@QDateEdit@@MAEXH@Z 00419812 f   qt-mt323:qt-mt323.dll
 0001:00018818       ?setMonth@QDateEdit@@MAEXH@Z 00419818 f   qt-mt323:qt-mt323.dll
 0001:0001881e       ?setYear@QDateEdit@@MAEXH@Z 0041981e f   qt-mt323:qt-mt323.dll
 0001:00018824       ?setSeparator@QDateEdit@@UAEXABVQString@@@Z 00419824 f   qt-mt323:qt-mt323.dll
 0001:0001882a       ?setRange@QDateEdit@@UAEXABVQDate@@0@Z 0041982a f   qt-mt323:qt-mt323.dll
 0001:00018830       ?setMaxValue@QDateEdit@@UAEXABVQDate@@@Z 00419830 f   qt-mt323:qt-mt323.dll
 0001:00018836       ?setMinValue@QDateEdit@@UAEXABVQDate@@@Z 00419836 f   qt-mt323:qt-mt323.dll
 0001:0001883c       ?setAutoAdvance@QDateEdit@@UAEX_N@Z 0041983c f   qt-mt323:qt-mt323.dll
 0001:00018842       ?setOrder@QDateEdit@@UAEXW4Order@1@@Z 00419842 f   qt-mt323:qt-mt323.dll
 0001:00018848       ?setDate@QDateEdit@@UAEXABVQDate@@@Z 00419848 f   qt-mt323:qt-mt323.dll
 0001:0001884e       ?stepDown@QDateEdit@@MAEXXZ 0041984e f   qt-mt323:qt-mt323.dll
 0001:00018854       ?stepUp@QDateEdit@@MAEXXZ  00419854 f   qt-mt323:qt-mt323.dll
 0001:0001885a       ?removeLastNumber@QDateEdit@@MAEXH@Z 0041985a f   qt-mt323:qt-mt323.dll
 0001:00018860       ?addNumber@QDateEdit@@MAEXHH@Z 00419860 f   qt-mt323:qt-mt323.dll
 0001:00018866       ?sectionFormattedText@QDateEdit@@MAE?AVQString@@H@Z 00419866 f   qt-mt323:qt-mt323.dll
 0001:0001886c       ?setFocusSection@QDateEdit@@MAE_NH@Z 0041986c f   qt-mt323:qt-mt323.dll
 0001:00018872       ?resizeEvent@QDateEdit@@MAEXPAVQResizeEvent@@@Z 00419872 f   qt-mt323:qt-mt323.dll
 0001:00018878       ?minimumSizeHint@QDateEdit@@UBE?AVQSize@@XZ 00419878 f   qt-mt323:qt-mt323.dll
 0001:0001887e       ?sizeHint@QDateEdit@@UBE?AVQSize@@XZ 0041987e f   qt-mt323:qt-mt323.dll
 0001:00018884       ?timerEvent@QDateEdit@@MAEXPAVQTimerEvent@@@Z 00419884 f   qt-mt323:qt-mt323.dll
 0001:0001888a       ?event@QDateEdit@@MAE_NPAVQEvent@@@Z 0041988a f   qt-mt323:qt-mt323.dll
 0001:00018890       ?qt_property@QDateEdit@@UAE_NHHPAVQVariant@@@Z 00419890 f   qt-mt323:qt-mt323.dll
 0001:00018896       ?qt_emit@QDateEdit@@UAE_NHPAUQUObject@@@Z 00419896 f   qt-mt323:qt-mt323.dll
 0001:0001889c       ?qt_invoke@QDateEdit@@UAE_NHPAUQUObject@@@Z 0041989c f   qt-mt323:qt-mt323.dll
 0001:000188a2       ?qt_cast@QDateEdit@@UAEPAXPBD@Z 004198a2 f   qt-mt323:qt-mt323.dll
 0001:000188a8       ?className@QDateEdit@@UBEPBDXZ 004198a8 f   qt-mt323:qt-mt323.dll
 0001:000188ae       ?metaObject@QDateEdit@@UBEPAVQMetaObject@@XZ 004198ae f   qt-mt323:qt-mt323.dll
 0001:000188b4       ?setOn@QToolButton@@UAEX_N@Z 004198b4 f   qt-mt323:qt-mt323.dll
 0001:000188ba       ?setToggleButton@QToolButton@@UAEX_N@Z 004198ba f   qt-mt323:qt-mt323.dll
 0001:000188c0       ?setTextLabel@QToolButton@@UAEXABVQString@@_N@Z 004198c0 f   qt-mt323:qt-mt323.dll
 0001:000188c6       ?setUsesTextLabel@QToolButton@@UAEX_N@Z 004198c6 f   qt-mt323:qt-mt323.dll
 0001:000188cc       ?setUsesBigPixmap@QToolButton@@UAEX_N@Z 004198cc f   qt-mt323:qt-mt323.dll
 0001:000188d2       ?setIconSet@QToolButton@@UAEXABVQIconSet@@@Z 004198d2 f   qt-mt323:qt-mt323.dll
 0001:000188d8       ?setGroup@QButton@@EAEXPAVQButtonGroup@@@Z 004198d8 f   qt-mt323:qt-mt323.dll
 0001:000188de       ?drawButtonLabel@QToolButton@@MAEXPAVQPainter@@@Z 004198de f   qt-mt323:qt-mt323.dll
 0001:000188e4       ?drawButton@QToolButton@@MAEXPAVQPainter@@@Z 004198e4 f   qt-mt323:qt-mt323.dll
 0001:000188ea       ?hitButton@QButton@@MBE_NABVQPoint@@@Z 004198ea f   qt-mt323:qt-mt323.dll
 0001:000188f0       ?setState@QButton@@MAEXW4ToggleState@1@@Z 004198f0 f   qt-mt323:qt-mt323.dll
 0001:000188f6       ?setToggleType@QButton@@MAEXW4ToggleType@1@@Z 004198f6 f   qt-mt323:qt-mt323.dll
 0001:000188fc       ?setAutoRepeat@QButton@@UAEX_N@Z 004198fc f   qt-mt323:qt-mt323.dll
 0001:00018902       ?setDown@QButton@@UAEX_N@Z 00419902 f   qt-mt323:qt-mt323.dll
 0001:00018908       ?setAccel@QButton@@UAEXABVQKeySequence@@@Z 00419908 f   qt-mt323:qt-mt323.dll
 0001:0001890e       ?setPixmap@QButton@@UAEXABVQPixmap@@@Z 0041990e f   qt-mt323:qt-mt323.dll
 0001:00018914       ?setText@QToolButton@@UAEXABVQString@@@Z 00419914 f   qt-mt323:qt-mt323.dll
 0001:0001891a       ?paletteChange@QToolButton@@MAEXABVQPalette@@@Z 0041991a f   qt-mt323:qt-mt323.dll
 0001:00018920       ?enabledChange@QButton@@MAEX_N@Z 00419920 f   qt-mt323:qt-mt323.dll
 0001:00018926       ?moveEvent@QToolButton@@MAEXPAVQMoveEvent@@@Z 00419926 f   qt-mt323:qt-mt323.dll
 0001:0001892c       ?paintEvent@QButton@@MAEXPAVQPaintEvent@@@Z 0041992c f   qt-mt323:qt-mt323.dll
 0001:00018932       ?leaveEvent@QToolButton@@MAEXPAVQEvent@@@Z 00419932 f   qt-mt323:qt-mt323.dll
 0001:00018938       ?enterEvent@QToolButton@@MAEXPAVQEvent@@@Z 00419938 f   qt-mt323:qt-mt323.dll
 0001:0001893e       ?focusOutEvent@QButton@@MAEXPAVQFocusEvent@@@Z 0041993e f   qt-mt323:qt-mt323.dll
 0001:00018944       ?focusInEvent@QButton@@MAEXPAVQFocusEvent@@@Z 00419944 f   qt-mt323:qt-mt323.dll
 0001:0001894a       ?keyReleaseEvent@QButton@@MAEXPAVQKeyEvent@@@Z 0041994a f   qt-mt323:qt-mt323.dll
 0001:00018950       ?keyPressEvent@QButton@@MAEXPAVQKeyEvent@@@Z 00419950 f   qt-mt323:qt-mt323.dll
 0001:00018956       ?mouseMoveEvent@QButton@@MAEXPAVQMouseEvent@@@Z 00419956 f   qt-mt323:qt-mt323.dll
 0001:0001895c       ?mouseReleaseEvent@QButton@@MAEXPAVQMouseEvent@@@Z 0041995c f   qt-mt323:qt-mt323.dll
 0001:00018962       ?mousePressEvent@QToolButton@@MAEXPAVQMouseEvent@@@Z 00419962 f   qt-mt323:qt-mt323.dll
 0001:00018968       ?minimumSizeHint@QToolButton@@UBE?AVQSize@@XZ 00419968 f   qt-mt323:qt-mt323.dll
 0001:0001896e       ?sizeHint@QToolButton@@UBE?AVQSize@@XZ 0041996e f   qt-mt323:qt-mt323.dll
 0001:00018974       ?eventFilter@QToolButton@@MAE_NPAVQObject@@PAVQEvent@@@Z 00419974 f   qt-mt323:qt-mt323.dll
 0001:0001897a       ?qt_property@QToolButton@@UAE_NHHPAVQVariant@@@Z 0041997a f   qt-mt323:qt-mt323.dll
 0001:00018980       ?qt_emit@QToolButton@@UAE_NHPAUQUObject@@@Z 00419980 f   qt-mt323:qt-mt323.dll
 0001:00018986       ?qt_invoke@QToolButton@@UAE_NHPAUQUObject@@@Z 00419986 f   qt-mt323:qt-mt323.dll
 0001:0001898c       ?qt_cast@QToolButton@@UAEPAXPBD@Z 0041998c f   qt-mt323:qt-mt323.dll
 0001:00018992       ?className@QToolButton@@UBEPBDXZ 00419992 f   qt-mt323:qt-mt323.dll
 0001:00018998       ?metaObject@QToolButton@@UBEPAVQMetaObject@@XZ 00419998 f   qt-mt323:qt-mt323.dll
 0001:0001899e       ?createPopupMenu@QLineEdit@@MAEPAVQPopupMenu@@XZ 0041999e f   qt-mt323:qt-mt323.dll
 0001:000189a4       ?setDragEnabled@QLineEdit@@UAEX_N@Z 004199a4 f   qt-mt323:qt-mt323.dll
 0001:000189aa       ?paste@QLineEdit@@UAEXXZ   004199aa f   qt-mt323:qt-mt323.dll
 0001:000189b0       ?copy@QLineEdit@@UBEXXZ    004199b0 f   qt-mt323:qt-mt323.dll
 0001:000189b6       ?cut@QLineEdit@@UAEXXZ     004199b6 f   qt-mt323:qt-mt323.dll
 0001:000189bc       ?setAlignment@QLineEdit@@UAEXH@Z 004199bc f   qt-mt323:qt-mt323.dll
 0001:000189c2       ?setCursorPosition@QLineEdit@@UAEXH@Z 004199c2 f   qt-mt323:qt-mt323.dll
 0001:000189c8       ?setSelection@QLineEdit@@UAEXHH@Z 004199c8 f   qt-mt323:qt-mt323.dll
 0001:000189ce       ?setValidator@QLineEdit@@UAEXPBVQValidator@@@Z 004199ce f   qt-mt323:qt-mt323.dll
 0001:000189d4       ?setReadOnly@QLineEdit@@UAEX_N@Z 004199d4 f   qt-mt323:qt-mt323.dll
 0001:000189da       ?setEchoMode@QLineEdit@@UAEXW4EchoMode@1@@Z 004199da f   qt-mt323:qt-mt323.dll
 0001:000189e0       ?setFrame@QLineEdit@@UAEX_N@Z 004199e0 f   qt-mt323:qt-mt323.dll
 0001:000189e6       ?setMaxLength@QLineEdit@@UAEXH@Z 004199e6 f   qt-mt323:qt-mt323.dll
 0001:000189ec       ?redo@QLineEdit@@UAEXXZ    004199ec f   qt-mt323:qt-mt323.dll
 0001:000189f2       ?undo@QLineEdit@@UAEXXZ    004199f2 f   qt-mt323:qt-mt323.dll
 0001:000189f8       ?clear@QLineEdit@@UAEXXZ   004199f8 f   qt-mt323:qt-mt323.dll
 0001:000189fe       ?insert@QLineEdit@@UAEXABVQString@@@Z 004199fe f   qt-mt323:qt-mt323.dll
 0001:00018a04       ?clearValidator@QLineEdit@@UAEXXZ 00419a04 f   qt-mt323:qt-mt323.dll
 0001:00018a0a       ?deselect@QLineEdit@@UAEXXZ 00419a0a f   qt-mt323:qt-mt323.dll
 0001:00018a10       ?selectAll@QLineEdit@@UAEXXZ 00419a10 f   qt-mt323:qt-mt323.dll
 0001:00018a16       ?setText@QLineEdit@@UAEXABVQString@@@Z 00419a16 f   qt-mt323:qt-mt323.dll
 0001:00018a1c       ?drawContents@QLineEdit@@MAEXPAVQPainter@@@Z 00419a1c f   qt-mt323:qt-mt323.dll
 0001:00018a22       ?windowActivationChange@QLineEdit@@MAEX_N@Z 00419a22 f   qt-mt323:qt-mt323.dll
 0001:00018a28       ?dropEvent@QLineEdit@@MAEXPAVQDropEvent@@@Z 00419a28 f   qt-mt323:qt-mt323.dll
 0001:00018a2e       ?dragLeaveEvent@QLineEdit@@MAEXPAVQDragLeaveEvent@@@Z 00419a2e f   qt-mt323:qt-mt323.dll
 0001:00018a34       ?dragMoveEvent@QLineEdit@@MAEXPAVQDragMoveEvent@@@Z 00419a34 f   qt-mt323:qt-mt323.dll
 0001:00018a3a       ?dragEnterEvent@QLineEdit@@MAEXPAVQDragEnterEvent@@@Z 00419a3a f   qt-mt323:qt-mt323.dll
 0001:00018a40       ?imEndEvent@QLineEdit@@MAEXPAVQIMEvent@@@Z 00419a40 f   qt-mt323:qt-mt323.dll
 0001:00018a46       ?imComposeEvent@QLineEdit@@MAEXPAVQIMEvent@@@Z 00419a46 f   qt-mt323:qt-mt323.dll
 0001:00018a4c       ?imStartEvent@QLineEdit@@MAEXPAVQIMEvent@@@Z 00419a4c f   qt-mt323:qt-mt323.dll
 0001:00018a52       ?contextMenuEvent@QLineEdit@@MAEXPAVQContextMenuEvent@@@Z 00419a52 f   qt-mt323:qt-mt323.dll
 0001:00018a58       ?resizeEvent@QLineEdit@@MAEXPAVQResizeEvent@@@Z 00419a58 f   qt-mt323:qt-mt323.dll
 0001:00018a5e       ?focusOutEvent@QLineEdit@@MAEXPAVQFocusEvent@@@Z 00419a5e f   qt-mt323:qt-mt323.dll
 0001:00018a64       ?focusInEvent@QLineEdit@@MAEXPAVQFocusEvent@@@Z 00419a64 f   qt-mt323:qt-mt323.dll
 0001:00018a6a       ?keyPressEvent@QLineEdit@@MAEXPAVQKeyEvent@@@Z 00419a6a f   qt-mt323:qt-mt323.dll
 0001:00018a70       ?mouseMoveEvent@QLineEdit@@MAEXPAVQMouseEvent@@@Z 00419a70 f   qt-mt323:qt-mt323.dll
 0001:00018a76       ?mouseDoubleClickEvent@QLineEdit@@MAEXPAVQMouseEvent@@@Z 00419a76 f   qt-mt323:qt-mt323.dll
 0001:00018a7c       ?mouseReleaseEvent@QLineEdit@@MAEXPAVQMouseEvent@@@Z 00419a7c f   qt-mt323:qt-mt323.dll
 0001:00018a82       ?mousePressEvent@QLineEdit@@MAEXPAVQMouseEvent@@@Z 00419a82 f   qt-mt323:qt-mt323.dll
 0001:00018a88       ?minimumSizeHint@QLineEdit@@UBE?AVQSize@@XZ 00419a88 f   qt-mt323:qt-mt323.dll
 0001:00018a8e       ?sizeHint@QLineEdit@@UBE?AVQSize@@XZ 00419a8e f   qt-mt323:qt-mt323.dll
 0001:00018a94       ?setFont@QLineEdit@@UAEXABVQFont@@@Z 00419a94 f   qt-mt323:qt-mt323.dll
 0001:00018a9a       ?setPalette@QLineEdit@@UAEXABVQPalette@@@Z 00419a9a f   qt-mt323:qt-mt323.dll
 0001:00018aa0       ?event@QLineEdit@@MAE_NPAVQEvent@@@Z 00419aa0 f   qt-mt323:qt-mt323.dll
 0001:00018aa6       ?qt_property@QLineEdit@@UAE_NHHPAVQVariant@@@Z 00419aa6 f   qt-mt323:qt-mt323.dll
 0001:00018aac       ?qt_emit@QLineEdit@@UAE_NHPAUQUObject@@@Z 00419aac f   qt-mt323:qt-mt323.dll
 0001:00018ab2       ?qt_invoke@QLineEdit@@UAE_NHPAUQUObject@@@Z 00419ab2 f   qt-mt323:qt-mt323.dll
 0001:00018ab8       ?qt_cast@QLineEdit@@UAEPAXPBD@Z 00419ab8 f   qt-mt323:qt-mt323.dll
 0001:00018abe       ?className@QLineEdit@@UBEPBDXZ 00419abe f   qt-mt323:qt-mt323.dll
 0001:00018ac4       ?metaObject@QLineEdit@@UBEPAVQMetaObject@@XZ 00419ac4 f   qt-mt323:qt-mt323.dll
 0001:00018aca       ?setAlignment@QGroupBox@@UAEXH@Z 00419aca f   qt-mt323:qt-mt323.dll
 0001:00018ad0       ?setTitle@QGroupBox@@UAEXABVQString@@@Z 00419ad0 f   qt-mt323:qt-mt323.dll
 0001:00018ad6       ?setColumnLayout@QGroupBox@@UAEXHW4Orientation@Qt@@@Z 00419ad6 f   qt-mt323:qt-mt323.dll
 0001:00018adc       ?fontChange@QGroupBox@@MAEXABVQFont@@@Z 00419adc f   qt-mt323:qt-mt323.dll
 0001:00018ae2       ?resizeEvent@QGroupBox@@MAEXPAVQResizeEvent@@@Z 00419ae2 f   qt-mt323:qt-mt323.dll
 0001:00018ae8       ?paintEvent@QGroupBox@@MAEXPAVQPaintEvent@@@Z 00419ae8 f   qt-mt323:qt-mt323.dll
 0001:00018aee       ?focusInEvent@QGroupBox@@MAEXPAVQFocusEvent@@@Z 00419aee f   qt-mt323:qt-mt323.dll
 0001:00018af4       ?sizeHint@QGroupBox@@UBE?AVQSize@@XZ 00419af4 f   qt-mt323:qt-mt323.dll
 0001:00018afa       ?setEnabled@QGroupBox@@UAEX_N@Z 00419afa f   qt-mt323:qt-mt323.dll
 0001:00018b00       ?childEvent@QGroupBox@@MAEXPAVQChildEvent@@@Z 00419b00 f   qt-mt323:qt-mt323.dll
 0001:00018b06       ?event@QGroupBox@@MAE_NPAVQEvent@@@Z 00419b06 f   qt-mt323:qt-mt323.dll
 0001:00018b0c       ?qt_property@QGroupBox@@UAE_NHHPAVQVariant@@@Z 00419b0c f   qt-mt323:qt-mt323.dll
 0001:00018b12       ?qt_emit@QGroupBox@@UAE_NHPAUQUObject@@@Z 00419b12 f   qt-mt323:qt-mt323.dll
 0001:00018b18       ?qt_invoke@QGroupBox@@UAE_NHPAUQUObject@@@Z 00419b18 f   qt-mt323:qt-mt323.dll
 0001:00018b1e       ?qt_cast@QGroupBox@@UAEPAXPBD@Z 00419b1e f   qt-mt323:qt-mt323.dll
 0001:00018b24       ?className@QGroupBox@@UBEPBDXZ 00419b24 f   qt-mt323:qt-mt323.dll
 0001:00018b2a       ?metaObject@QGroupBox@@UBEPAVQMetaObject@@XZ 00419b2a f   qt-mt323:qt-mt323.dll
 0001:00018b30       ?stepChange@QRangeControl@@MAEXXZ 00419b30 f   qt-mt323:qt-mt323.dll
 0001:00018b36       ?rangeChange@QSpinBox@@MAEXXZ 00419b36 f   qt-mt323:qt-mt323.dll
 0001:00018b3c       ?valueChange@QSpinBox@@MAEXXZ 00419b3c f   qt-mt323:qt-mt323.dll
 0001:00018b42       ?interpretText@QSpinBox@@MAEXXZ 00419b42 f   qt-mt323:qt-mt323.dll
 0001:00018b48       ?updateDisplay@QSpinBox@@MAEXXZ 00419b48 f   qt-mt323:qt-mt323.dll
 0001:00018b4e       ?mapTextToValue@QSpinBox@@MAEHPA_N@Z 00419b4e f   qt-mt323:qt-mt323.dll
 0001:00018b54       ?mapValueToText@QSpinBox@@MAE?AVQString@@H@Z 00419b54 f   qt-mt323:qt-mt323.dll
 0001:00018b5a       ?selectAll@QSpinBox@@UAEXXZ 00419b5a f   qt-mt323:qt-mt323.dll
 0001:00018b60       ?stepDown@QSpinBox@@UAEXXZ 00419b60 f   qt-mt323:qt-mt323.dll
 0001:00018b66       ?stepUp@QSpinBox@@UAEXXZ   00419b66 f   qt-mt323:qt-mt323.dll
 0001:00018b6c       ?setSuffix@QSpinBox@@UAEXABVQString@@@Z 00419b6c f   qt-mt323:qt-mt323.dll
 0001:00018b72       ?setPrefix@QSpinBox@@UAEXABVQString@@@Z 00419b72 f   qt-mt323:qt-mt323.dll
 0001:00018b78       ?setValue@QSpinBox@@UAEXH@Z 00419b78 f   qt-mt323:qt-mt323.dll
 0001:00018b7e       ?setValidator@QSpinBox@@UAEXPBVQValidator@@@Z 00419b7e f   qt-mt323:qt-mt323.dll
 0001:00018b84       ?setButtonSymbols@QSpinBox@@UAEXW4ButtonSymbols@1@@Z 00419b84 f   qt-mt323:qt-mt323.dll
 0001:00018b8a       ?setWrapping@QSpinBox@@UAEX_N@Z 00419b8a f   qt-mt323:qt-mt323.dll
 0001:00018b90       ?setSpecialValueText@QSpinBox@@UAEXABVQString@@@Z 00419b90 f   qt-mt323:qt-mt323.dll
 0001:00018b96       ?cleanText@QSpinBox@@UBE?AVQString@@XZ 00419b96 f   qt-mt323:qt-mt323.dll
 0001:00018b9c       ?suffix@QSpinBox@@UBE?AVQString@@XZ 00419b9c f   qt-mt323:qt-mt323.dll
 0001:00018ba2       ?prefix@QSpinBox@@UBE?AVQString@@XZ 00419ba2 f   qt-mt323:qt-mt323.dll
 0001:00018ba8       ?styleChange@QSpinBox@@MAEXAAVQStyle@@@Z 00419ba8 f   qt-mt323:qt-mt323.dll
 0001:00018bae       ?resizeEvent@QSpinBox@@MAEXPAVQResizeEvent@@@Z 00419bae f   qt-mt323:qt-mt323.dll
 0001:00018bb4       ?leaveEvent@QSpinBox@@MAEXPAVQEvent@@@Z 00419bb4 f   qt-mt323:qt-mt323.dll
 0001:00018bba       ?wheelEvent@QSpinBox@@MAEXPAVQWheelEvent@@@Z 00419bba f   qt-mt323:qt-mt323.dll
 0001:00018bc0       ?minimumSizeHint@QSpinBox@@UBE?AVQSize@@XZ 00419bc0 f   qt-mt323:qt-mt323.dll
 0001:00018bc6       ?sizeHint@QSpinBox@@UBE?AVQSize@@XZ 00419bc6 f   qt-mt323:qt-mt323.dll
 0001:00018bcc       ?setEnabled@QSpinBox@@UAEX_N@Z 00419bcc f   qt-mt323:qt-mt323.dll
 0001:00018bd2       ?eventFilter@QSpinBox@@MAE_NPAVQObject@@PAVQEvent@@@Z 00419bd2 f   qt-mt323:qt-mt323.dll
 0001:00018bd8       ?qt_property@QSpinBox@@UAE_NHHPAVQVariant@@@Z 00419bd8 f   qt-mt323:qt-mt323.dll
 0001:00018bde       ?qt_emit@QSpinBox@@UAE_NHPAUQUObject@@@Z 00419bde f   qt-mt323:qt-mt323.dll
 0001:00018be4       ?qt_invoke@QSpinBox@@UAE_NHPAUQUObject@@@Z 00419be4 f   qt-mt323:qt-mt323.dll
 0001:00018bea       ?qt_cast@QSpinBox@@UAEPAXPBD@Z 00419bea f   qt-mt323:qt-mt323.dll
 0001:00018bf0       ?className@QSpinBox@@UBEPBDXZ 00419bf0 f   qt-mt323:qt-mt323.dll
 0001:00018bf6       ?metaObject@QSpinBox@@UBEPAVQMetaObject@@XZ 00419bf6 f   qt-mt323:qt-mt323.dll
 0001:00018bfc       ?setSecond@QTimeEdit@@MAEXH@Z 00419bfc f   qt-mt323:qt-mt323.dll
 0001:00018c02       ?setMinute@QTimeEdit@@MAEXH@Z 00419c02 f   qt-mt323:qt-mt323.dll
 0001:00018c08       ?setHour@QTimeEdit@@MAEXH@Z 00419c08 f   qt-mt323:qt-mt323.dll
 0001:00018c0e       ?outOfRange@QTimeEdit@@MBE_NHHH@Z 00419c0e f   qt-mt323:qt-mt323.dll
 0001:00018c14       ?setSeparator@QTimeEdit@@UAEXABVQString@@@Z 00419c14 f   qt-mt323:qt-mt323.dll
 0001:00018c1a       ?setRange@QTimeEdit@@UAEXABVQTime@@0@Z 00419c1a f   qt-mt323:qt-mt323.dll
 0001:00018c20       ?setMaxValue@QTimeEdit@@UAEXABVQTime@@@Z 00419c20 f   qt-mt323:qt-mt323.dll
 0001:00018c26       ?setMinValue@QTimeEdit@@UAEXABVQTime@@@Z 00419c26 f   qt-mt323:qt-mt323.dll
 0001:00018c2c       ?setAutoAdvance@QTimeEdit@@UAEX_N@Z 00419c2c f   qt-mt323:qt-mt323.dll
 0001:00018c32       ?setTime@QTimeEdit@@UAEXABVQTime@@@Z 00419c32 f   qt-mt323:qt-mt323.dll
 0001:00018c38       ?stepDown@QTimeEdit@@MAEXXZ 00419c38 f   qt-mt323:qt-mt323.dll
 0001:00018c3e       ?stepUp@QTimeEdit@@MAEXXZ  00419c3e f   qt-mt323:qt-mt323.dll
 0001:00018c44       ?removeLastNumber@QTimeEdit@@MAEXH@Z 00419c44 f   qt-mt323:qt-mt323.dll
 0001:00018c4a       ?addNumber@QTimeEdit@@MAEXHH@Z 00419c4a f   qt-mt323:qt-mt323.dll
 0001:00018c50       ?sectionFormattedText@QTimeEdit@@MAE?AVQString@@H@Z 00419c50 f   qt-mt323:qt-mt323.dll
 0001:00018c56       ?setFocusSection@QTimeEdit@@MAE_NH@Z 00419c56 f   qt-mt323:qt-mt323.dll
 0001:00018c5c       ?resizeEvent@QTimeEdit@@MAEXPAVQResizeEvent@@@Z 00419c5c f   qt-mt323:qt-mt323.dll
 0001:00018c62       ?minimumSizeHint@QTimeEdit@@UBE?AVQSize@@XZ 00419c62 f   qt-mt323:qt-mt323.dll
 0001:00018c68       ?sizeHint@QTimeEdit@@UBE?AVQSize@@XZ 00419c68 f   qt-mt323:qt-mt323.dll
 0001:00018c6e       ?timerEvent@QTimeEdit@@MAEXPAVQTimerEvent@@@Z 00419c6e f   qt-mt323:qt-mt323.dll
 0001:00018c74       ?event@QTimeEdit@@MAE_NPAVQEvent@@@Z 00419c74 f   qt-mt323:qt-mt323.dll
 0001:00018c7a       ?qt_property@QTimeEdit@@UAE_NHHPAVQVariant@@@Z 00419c7a f   qt-mt323:qt-mt323.dll
 0001:00018c80       ?qt_emit@QTimeEdit@@UAE_NHPAUQUObject@@@Z 00419c80 f   qt-mt323:qt-mt323.dll
 0001:00018c86       ?qt_invoke@QTimeEdit@@UAE_NHPAUQUObject@@@Z 00419c86 f   qt-mt323:qt-mt323.dll
 0001:00018c8c       ?qt_cast@QTimeEdit@@UAEPAXPBD@Z 00419c8c f   qt-mt323:qt-mt323.dll
 0001:00018c92       ?className@QTimeEdit@@UBEPBDXZ 00419c92 f   qt-mt323:qt-mt323.dll
 0001:00018c98       ?metaObject@QTimeEdit@@UBEPAVQMetaObject@@XZ 00419c98 f   qt-mt323:qt-mt323.dll
 0001:00018c9e       ?handleError@QDataBrowser@@MAEXABVQSqlError@@@Z 00419c9e f   qt-mt323:qt-mt323.dll
 0001:00018ca4       ?confirmCancel@QDataBrowser@@MAE?AW4Confirm@QSql@@W4Op@3@@Z 00419ca4 f   qt-mt323:qt-mt323.dll
 0001:00018caa       ?confirmEdit@QDataBrowser@@MAE?AW4Confirm@QSql@@W4Op@3@@Z 00419caa f   qt-mt323:qt-mt323.dll
 0001:00018cb0       ?currentEdited@QDataBrowser@@MAE_NXZ 00419cb0 f   qt-mt323:qt-mt323.dll
 0001:00018cb6       ?deleteCurrent@QDataBrowser@@MAE_NXZ 00419cb6 f   qt-mt323:qt-mt323.dll
 0001:00018cbc       ?updateCurrent@QDataBrowser@@MAE_NXZ 00419cbc f   qt-mt323:qt-mt323.dll
 0001:00018cc2       ?insertCurrent@QDataBrowser@@MAE_NXZ 00419cc2 f   qt-mt323:qt-mt323.dll
 0001:00018cc8       ?clearValues@QDataBrowser@@UAEXXZ 00419cc8 f   qt-mt323:qt-mt323.dll
 0001:00018cce       ?writeFields@QDataBrowser@@UAEXXZ 00419cce f   qt-mt323:qt-mt323.dll
 0001:00018cd4       ?readFields@QDataBrowser@@UAEXXZ 00419cd4 f   qt-mt323:qt-mt323.dll
 0001:00018cda       ?prev@QDataBrowser@@UAEXXZ 00419cda f   qt-mt323:qt-mt323.dll
 0001:00018ce0       ?next@QDataBrowser@@UAEXXZ 00419ce0 f   qt-mt323:qt-mt323.dll
 0001:00018ce6       ?last@QDataBrowser@@UAEXXZ 00419ce6 f   qt-mt323:qt-mt323.dll
 0001:00018cec       ?first@QDataBrowser@@UAEXXZ 00419cec f   qt-mt323:qt-mt323.dll
 0001:00018cf2       ?del@QDataBrowser@@UAEXXZ  00419cf2 f   qt-mt323:qt-mt323.dll
 0001:00018cf8       ?update@QDataBrowser@@UAEXXZ 00419cf8 f   qt-mt323:qt-mt323.dll
 0001:00018cfe       ?insert@QDataBrowser@@UAEXXZ 00419cfe f   qt-mt323:qt-mt323.dll
 0001:00018d04       ?refresh@QDataBrowser@@UAEXXZ 00419d04 f   qt-mt323:qt-mt323.dll
 0001:00018d0a       ?seek@QDataBrowser@@UAE_NH_N@Z 00419d0a f   qt-mt323:qt-mt323.dll
 0001:00018d10       ?setAutoEdit@QDataBrowser@@UAEX_N@Z 00419d10 f   qt-mt323:qt-mt323.dll
 0001:00018d16       ?setReadOnly@QDataBrowser@@UAEX_N@Z 00419d16 f   qt-mt323:qt-mt323.dll
 0001:00018d1c       ?setConfirmCancels@QDataBrowser@@UAEX_N@Z 00419d1c f   qt-mt323:qt-mt323.dll
 0001:00018d22       ?setConfirmDelete@QDataBrowser@@UAEX_N@Z 00419d22 f   qt-mt323:qt-mt323.dll
 0001:00018d28       ?setConfirmUpdate@QDataBrowser@@UAEX_N@Z 00419d28 f   qt-mt323:qt-mt323.dll
 0001:00018d2e       ?setConfirmInsert@QDataBrowser@@UAEX_N@Z 00419d2e f   qt-mt323:qt-mt323.dll
 0001:00018d34       ?setConfirmEdits@QDataBrowser@@UAEX_N@Z 00419d34 f   qt-mt323:qt-mt323.dll
 0001:00018d3a       ?setForm@QDataBrowser@@UAEXPAVQSqlForm@@@Z 00419d3a f   qt-mt323:qt-mt323.dll
 0001:00018d40       ?setSqlCursor@QDataBrowser@@UAEXPAVQSqlCursor@@_N@Z 00419d40 f   qt-mt323:qt-mt323.dll
 0001:00018d46       ?clearValues@QDataView@@UAEXXZ 00419d46 f   qt-mt323:qt-mt323.dll
 0001:00018d4c       ?writeFields@QDataView@@UAEXXZ 00419d4c f   qt-mt323:qt-mt323.dll
 0001:00018d52       ?readFields@QDataView@@UAEXXZ 00419d52 f   qt-mt323:qt-mt323.dll
 0001:00018d58       ?refresh@QDataView@@UAEXPAVQSqlRecord@@@Z 00419d58 f   qt-mt323:qt-mt323.dll
 0001:00018d5e       ?setRecord@QDataView@@UAEXPAVQSqlRecord@@@Z 00419d5e f   qt-mt323:qt-mt323.dll
 0001:00018d64       ?setForm@QDataView@@UAEXPAVQSqlForm@@@Z 00419d64 f   qt-mt323:qt-mt323.dll
 0001:00018d6a       _WinMain@16                00419d6a f   qtmain:qtmain_win.obj
 0001:00018df7       ?detach@?$QMemArray@PAD@@UAEXXZ 00419df7 f i qtmain:qtmain_win.obj
 0001:00018dff       ??_G?$QMemArray@PAD@@UAEPAXI@Z 00419dff f i qtmain:qtmain_win.obj
 0001:00018dff       ??_E?$QMemArray@PAD@@UAEPAXI@Z 00419dff f i qtmain:qtmain_win.obj
 0001:00018e22       ?deleteData@QGArray@@MAEXPAUarray_data@1@@Z 00419e22 f   qt-mt323:qt-mt323.dll
 0001:00018e28       ?newData@QGArray@@MAEPAUarray_data@1@XZ 00419e28 f   qt-mt323:qt-mt323.dll
 0001:00018e2e       ?qWinMain@@YAXPAUHINSTANCE__@@0PADHAAHAAV?$QMemArray@PAD@@@Z 00419e2e f   qt-mt323:qt-mt323.dll
 0002:00000000       ??_7CAdjustMon@@6B@        0041e000     AdjustMon.obj
 0002:00000008       ??_7?$QPtrList@VQString@@@@6B@ 0041e008     AdjustMon.obj
 0002:00000028       ??_7?$QValueListNode@VparamInfo@@@@6B@ 0041e028     AdjustMon.obj
 0002:0000002c       ??_7?$QValueListPrivate@VparamInfo@@@@6B@ 0041e02c     AdjustMon.obj
 0002:00000030       ??_7?$QValueListNode@VcomplexParam@@@@6B@ 0041e030     AdjustMon.obj
 0002:00000034       ??_7?$QValueListPrivate@VcomplexParam@@@@6B@ 0041e034     AdjustMon.obj
 0002:00000038       ??_7?$QValueListNode@VcomplexInstance@@@@6B@ 0041e038     AdjustMon.obj
 0002:0000003c       ??_7?$QValueListPrivate@VcomplexInstance@@@@6B@ 0041e03c     AdjustMon.obj
 0002:00000040       ??_7?$QValueListNode@VinstanceInfo@@@@6B@ 0041e040     AdjustMon.obj
 0002:00000044       ??_7?$QValueListPrivate@VinstanceInfo@@@@6B@ 0041e044     AdjustMon.obj
 0002:00000048       ??_7?$QValueListNode@VdeviceTypeInfo@@@@6B@ 0041e048     AdjustMon.obj
 0002:0000004c       ??_7?$QValueListPrivate@VdeviceTypeInfo@@@@6B@ 0041e04c     AdjustMon.obj
 0002:00000050       ??_7?$QValueListNode@VcomplexType@@@@6B@ 0041e050     AdjustMon.obj
 0002:00000054       ??_7?$QValueListPrivate@VcomplexType@@@@6B@ 0041e054     AdjustMon.obj
 0002:00000058       ??_7signalConnectionRefList@@6B@ 0041e058     AppBar.obj
 0002:00000078       ??_7?$QPtrList@VsignalConnection@@@@6B@ 0041e078     AppBar.obj
 0002:00000098       ??_7CAppBar@@6BQPaintDevice@@@ 0041e098     AppBar.obj
 0002:000000b8       ??_7CAppBar@@6BQObject@@@  0041e0b8     AppBar.obj
 0002:0000026c       ??_7?$QDict@VCAppItem@@@@6B@ 0041e26c     AppBar.obj
 0002:00000288       ??_SQKeyEvent@@6B@         0041e288     AppBar.obj
 0002:0000028c       ??_SQGrid@@6BQPaintDevice@@@ 0041e28c     AppBar.obj
 0002:000002ac       ??_SQGrid@@6BQObject@@@    0041e2ac     AppBar.obj
 0002:0000047c       ??_7CAppItem@@6B@          0041e47c     AppItem.obj
 0002:00000480       ??_7CAppSwitch@@6B@        0041e480     AppSwitch.obj
 0002:000004d0       ??_7?$QDict@VCExtProcess@@@@6B@ 0041e4d0     AppSwitch.obj
 0002:000004ec       ??_7CAppView@@6BQPaintDevice@@@ 0041e4ec     AppView.obj
 0002:0000050c       ??_7CAppView@@6BQObject@@@ 0041e50c     AppView.obj
 0002:000006e0       ??_7?$QDict@VQWidget@@@@6B@ 0041e6e0     AppView.obj
 0002:000006fc       ??_7bncs_mcComms@@6B@      0041e6fc     bncs_mcComms.obj
 0002:00000704       ??_7bncs_multicast@@6B@    0041e704     bncs_multicast.obj
 0002:00000758       ??_SQSocketDevice@@6B@     0041e758     bncs_multicast.obj
 0002:000007c0       ??_SQSocketNotifier@@6B@   0041e7c0     bncs_multicast.obj
 0002:00000814       ??_7CClient@@6B@           0041e814     Client.obj
 0002:00000840       ??_7CClient@@6BQPaintDevice@@@ 0041e840     Client.obj
 0002:00000860       ??_7CClient@@6BQObject@@@  0041e860     Client.obj
 0002:00000a10       ??_7IccClientCallback@@6B@ 0041ea10     Client.obj
 0002:00000a3c       ??_7CConfirm_Exit@@6BQPaintDevice@@@ 0041ea3c     Confirm_Exit.obj
 0002:00000a5c       ??_7CConfirm_Exit@@6BQObject@@@ 0041ea5c     Confirm_Exit.obj
 0002:00000c18       ??_7CExtProcess@@6B@       0041ec18     ExtProcess.obj
 0002:00000c9c       ??_7CLookUp@@6B@           0041ec9c     LookUp.obj
 0002:00000ce4       ??_SQListBox@@6BQPaintDevice@@@ 0041ece4     PanelMan.obj
 0002:00000d04       ??_SQListBox@@6BQObject@@@ 0041ed04     PanelMan.obj
 0002:00000fa8       ??_SQVBoxLayout@@6BQLayoutItem@@@ 0041efa8     PanelMan.obj
 0002:00000fe8       ??_SQVBoxLayout@@6BQObject@@@ 0041efe8     PanelMan.obj
 0002:0000104c       ??_7CPanelMan@@6BQPaintDevice@@@ 0041f04c     PanelMan.obj
 0002:0000106c       ??_7CPanelMan@@6BQObject@@@ 0041f06c     PanelMan.obj
 0002:0000121c       ??_7CSimpleBar@@6BQPaintDevice@@@ 0041f21c     SimpleBar.obj
 0002:0000123c       ??_7CSimpleBar@@6BQObject@@@ 0041f23c     SimpleBar.obj
 0002:000013f0       ??_7CStartPop@@6BQPaintDevice@@@ 0041f3f0     StartPop.obj
 0002:00001410       ??_7CStartPop@@6BQObject@@@ 0041f410     StartPop.obj
 0002:000015c0       ??_SQTimer@@6B@            0041f5c0     StartPop.obj
 0002:00001610       ??_SQLabel@@6BQPaintDevice@@@ 0041f610     StartPop.obj
 0002:00001630       ??_SQLabel@@6BQObject@@@   0041f630     StartPop.obj
 0002:00001824       ??_SQWidget@@6BQPaintDevice@@@ 0041f824     StartPop.obj
 0002:00001844       ??_SQWidget@@6BQObject@@@  0041f844     StartPop.obj
 0002:000019f4       ??_SQPopupMenu@@6B@        0041f9f4     StartPop.obj
 0002:00001a14       ??_SQPopupMenu@@6BQPaintDevice@@@ 0041fa14     StartPop.obj
 0002:00001a34       ??_SQPopupMenu@@6BQObject@@@ 0041fa34     StartPop.obj
 0002:00001c10       ??_7CStatusBar@@6BQPaintDevice@@@ 0041fc10     StatusBar.obj
 0002:00001c30       ??_7CStatusBar@@6BQObject@@@ 0041fc30     StatusBar.obj
 0002:00001de4       ??_7CTitleBar@@6BQPaintDevice@@@ 0041fde4     TitleBar.obj
 0002:00001e04       ??_7CTitleBar@@6BQObject@@@ 0041fe04     TitleBar.obj
 0002:00001fb8       ??_7wait@@6BQPaintDevice@@@ 0041ffb8     waitimpl.obj
 0002:00001fd8       ??_7wait@@6BQObject@@@     0041ffd8     waitimpl.obj
 0002:000023b4       ??_7?$QPtrList@VQWidgetFactory@@@@6B@ 004203b4     qui:qwidgetfactory.obj
 0002:000023d4       ??_7QWidgetFactory@@6B@    004203d4     qui:qwidgetfactory.obj
 0002:000023dc       ??_7?$QPtrList@VQAction@@@@6B@ 004203dc     qui:qwidgetfactory.obj
 0002:000023fc       ??_7?$QDict@_N@@6B@        004203fc     qui:qwidgetfactory.obj
 0002:00002418       ??_SQSqlCursor@@6BQSqlQuery@@@ 00420418     qui:qwidgetfactory.obj
 0002:00002440       ??_SQSqlCursor@@6BQSqlRecord@@@ 00420440     qui:qwidgetfactory.obj
 0002:000024e4       ??_SQDataTable@@6BQPaintDevice@@@ 004204e4     qui:qwidgetfactory.obj
 0002:00002504       ??_SQDataTable@@6BQObject@@@ 00420504     qui:qwidgetfactory.obj
 0002:00002920       ??_SQMainWindow@@6BQPaintDevice@@@ 00420920     qui:qwidgetfactory.obj
 0002:00002940       ??_SQMainWindow@@6BQObject@@@ 00420940     qui:qwidgetfactory.obj
 0002:00002b50       ??_SQHBox@@6BQPaintDevice@@@ 00420b50     qui:qwidgetfactory.obj
 0002:00002b70       ??_SQHBox@@6BQObject@@@    00420b70     qui:qwidgetfactory.obj
 0002:00002d40       ??_SQVBox@@6BQPaintDevice@@@ 00420d40     qui:qwidgetfactory.obj
 0002:00002d60       ??_SQVBox@@6BQObject@@@    00420d60     qui:qwidgetfactory.obj
 0002:00002f30       ??_SQToolBox@@6BQPaintDevice@@@ 00420f30     qui:qwidgetfactory.obj
 0002:00002f50       ??_SQToolBox@@6BQObject@@@ 00420f50     qui:qwidgetfactory.obj
 0002:00003128       ??_SQWidgetStack@@6BQPaintDevice@@@ 00421128     qui:qwidgetfactory.obj
 0002:00003148       ??_SQWidgetStack@@6BQObject@@@ 00421148     qui:qwidgetfactory.obj
 0002:0000331c       ??_SQScrollBar@@6B@        0042131c     qui:qwidgetfactory.obj
 0002:0000332c       ??_SQScrollBar@@6BQPaintDevice@@@ 0042132c     qui:qwidgetfactory.obj
 0002:0000334c       ??_SQScrollBar@@6BQObject@@@ 0042134c     qui:qwidgetfactory.obj
 0002:00003504       ??_SQDateTimeEdit@@6BQPaintDevice@@@ 00421504     qui:qwidgetfactory.obj
 0002:00003524       ??_SQDateTimeEdit@@6BQObject@@@ 00421524     qui:qwidgetfactory.obj
 0002:000036dc       ??_SQTimeEdit@@6BQPaintDevice@@@ 004216dc     qui:qwidgetfactory.obj
 0002:000036fc       ??_SQTimeEdit@@6BQObject@@@ 004216fc     qui:qwidgetfactory.obj
 0002:000038ec       ??_SQDateEdit@@6BQPaintDevice@@@ 004218ec     qui:qwidgetfactory.obj
 0002:0000390c       ??_SQDateEdit@@6BQObject@@@ 0042190c     qui:qwidgetfactory.obj
 0002:00003b04       ??_SQTextEdit@@6BQPaintDevice@@@ 00421b04     qui:qwidgetfactory.obj
 0002:00003b24       ??_SQTextEdit@@6BQObject@@@ 00421b24     qui:qwidgetfactory.obj
 0002:00003e9c       ??_SQSplitter@@6BQPaintDevice@@@ 00421e9c     qui:qwidgetfactory.obj
 0002:00003ebc       ??_SQSplitter@@6BQObject@@@ 00421ebc     qui:qwidgetfactory.obj
 0002:000040a0       ??_SQFrame@@6BQPaintDevice@@@ 004220a0     qui:qwidgetfactory.obj
 0002:000040c0       ??_SQFrame@@6BQObject@@@   004220c0     qui:qwidgetfactory.obj
 0002:00004290       ??_SQSlider@@6B@           00422290     qui:qwidgetfactory.obj
 0002:000042a0       ??_SQSlider@@6BQPaintDevice@@@ 004222a0     qui:qwidgetfactory.obj
 0002:000042c0       ??_SQSlider@@6BQObject@@@  004222c0     qui:qwidgetfactory.obj
 0002:00004484       ??_SQDial@@6B@             00422484     qui:qwidgetfactory.obj
 0002:00004494       ??_SQDial@@6BQPaintDevice@@@ 00422494     qui:qwidgetfactory.obj
 0002:000044b4       ??_SQDial@@6BQObject@@@    004224b4     qui:qwidgetfactory.obj
 0002:0000467c       ??_SQTextBrowser@@6BQPaintDevice@@@ 0042267c     qui:qwidgetfactory.obj
 0002:0000469c       ??_SQTextBrowser@@6BQObject@@@ 0042269c     qui:qwidgetfactory.obj
 0002:00004a28       ??_SQTextView@@6BQPaintDevice@@@ 00422a28     qui:qwidgetfactory.obj
 0002:00004a48       ??_SQTextView@@6BQObject@@@ 00422a48     qui:qwidgetfactory.obj
 0002:00004dc0       ??_SQProgressBar@@6BQPaintDevice@@@ 00422dc0     qui:qwidgetfactory.obj
 0002:00004de0       ??_SQProgressBar@@6BQObject@@@ 00422de0     qui:qwidgetfactory.obj
 0002:00004fbc       ??_SQLCDNumber@@6BQPaintDevice@@@ 00422fbc     qui:qwidgetfactory.obj
 0002:00004fdc       ??_SQLCDNumber@@6BQObject@@@ 00422fdc     qui:qwidgetfactory.obj
 0002:000051cc       ??_SQWizard@@6BQPaintDevice@@@ 004231cc     qui:qwidgetfactory.obj
 0002:000051ec       ??_SQWizard@@6BQObject@@@  004231ec     qui:qwidgetfactory.obj
 0002:000053e8       ??_SQDialog@@6BQPaintDevice@@@ 004233e8     qui:qwidgetfactory.obj
 0002:00005408       ??_SQDialog@@6BQObject@@@  00423408     qui:qwidgetfactory.obj
 0002:000055c4       ??_SQComboBox@@6BQPaintDevice@@@ 004235c4     qui:qwidgetfactory.obj
 0002:000055e4       ??_SQComboBox@@6BQObject@@@ 004235e4     qui:qwidgetfactory.obj
 0002:000057c4       ??_SQTabWidget@@6BQPaintDevice@@@ 004237c4     qui:qwidgetfactory.obj
 0002:000057e4       ??_SQTabWidget@@6BQObject@@@ 004237e4     qui:qwidgetfactory.obj
 0002:000059b4       ??_SQMultiLineEdit@@6BQPaintDevice@@@ 004239b4     qui:qwidgetfactory.obj
 0002:000059d4       ??_SQMultiLineEdit@@6BQObject@@@ 004239d4     qui:qwidgetfactory.obj
 0002:00005d90       ??_SQSpinBox@@6B@          00423d90     qui:qwidgetfactory.obj
 0002:00005da0       ??_SQSpinBox@@6BQPaintDevice@@@ 00423da0     qui:qwidgetfactory.obj
 0002:00005dc0       ??_SQSpinBox@@6BQObject@@@ 00423dc0     qui:qwidgetfactory.obj
 0002:00005fb4       ??_SQLineEdit@@6BQPaintDevice@@@ 00423fb4     qui:qwidgetfactory.obj
 0002:00005fd4       ??_SQLineEdit@@6BQObject@@@ 00423fd4     qui:qwidgetfactory.obj
 0002:000061f8       ??_SQListView@@6BQPaintDevice@@@ 004241f8     qui:qwidgetfactory.obj
 0002:00006218       ??_SQListView@@6BQObject@@@ 00424218     qui:qwidgetfactory.obj
 0002:000064f8       ??_SQTable@@6BQPaintDevice@@@ 004244f8     qui:qwidgetfactory.obj
 0002:00006518       ??_SQTable@@6BQObject@@@   00424518     qui:qwidgetfactory.obj
 0002:000068b4       ??_SQIconView@@6BQPaintDevice@@@ 004248b4     qui:qwidgetfactory.obj
 0002:000068d4       ??_SQIconView@@6BQObject@@@ 004248d4     qui:qwidgetfactory.obj
 0002:00006bc8       ??_SQButtonGroup@@6BQPaintDevice@@@ 00424bc8     qui:qwidgetfactory.obj
 0002:00006be8       ??_SQButtonGroup@@6BQObject@@@ 00424be8     qui:qwidgetfactory.obj
 0002:00006dd4       ??_SQGroupBox@@6BQPaintDevice@@@ 00424dd4     qui:qwidgetfactory.obj
 0002:00006df4       ??_SQGroupBox@@6BQObject@@@ 00424df4     qui:qwidgetfactory.obj
 0002:00006fd0       ??_SQRadioButton@@6BQPaintDevice@@@ 00424fd0     qui:qwidgetfactory.obj
 0002:00006ff0       ??_SQRadioButton@@6BQObject@@@ 00424ff0     qui:qwidgetfactory.obj
 0002:000071d0       ??_SQCheckBox@@6BQPaintDevice@@@ 004251d0     qui:qwidgetfactory.obj
 0002:000071f0       ??_SQCheckBox@@6BQObject@@@ 004251f0     qui:qwidgetfactory.obj
 0002:000073cc       ??_SQToolButton@@6BQPaintDevice@@@ 004253cc     qui:qwidgetfactory.obj
 0002:000073ec       ??_SQToolButton@@6BQObject@@@ 004253ec     qui:qwidgetfactory.obj
 0002:000075e0       ??_SQPushButton@@6BQPaintDevice@@@ 004255e0     qui:qwidgetfactory.obj
 0002:00007600       ??_SQPushButton@@6BQObject@@@ 00425600     qui:qwidgetfactory.obj
 0002:000077ec       ??_7?$QValueListPrivate@UImage@QWidgetFactory@@@@6B@ 004257ec     qui:qwidgetfactory.obj
 0002:000077f0       ??_7?$QValueListNode@UField@QWidgetFactory@@@@6B@ 004257f0     qui:qwidgetfactory.obj
 0002:000077f4       ??_7?$QValueListPrivate@UField@QWidgetFactory@@@@6B@ 004257f4     qui:qwidgetfactory.obj
 0002:000077f8       ??_7?$QValueListNode@UImage@QWidgetFactory@@@@6B@ 004257f8     qui:qwidgetfactory.obj
 0002:000077fc       ??_7DatabaseSupport2@@6B@  004257fc     qui:database.obj
 0002:00007800       ??_7QDesignerDataBrowser2@@6BQPaintDevice@@@ 00425800     qui:database.obj
 0002:00007820       ??_7QDesignerDataBrowser2@@6BQObject@@@ 00425820     qui:database.obj
 0002:00007a40       ??_7QDesignerDataBrowser2@@6B@ 00425a40     qui:database.obj
 0002:00007a44       ??_7QDesignerDataView2@@6BQPaintDevice@@@ 00425a44     qui:database.obj
 0002:00007a64       ??_7QDesignerDataView2@@6BQObject@@@ 00425a64     qui:database.obj
 0002:00007c2c       ??_7QDesignerDataView2@@6B@ 00425c2c     qui:database.obj
 0002:00007dc4       ??_7bncs_disklog@@6B@      00425dc4     bncs_disklog:bncs_disklog.obj
 0002:00007dc8       ??_7cBncsVersion@@6B@      00425dc8     bncsversioninfo:cBncsVersion.obj
 0002:00007e10       ??_7type_info@@6B@         00425e10     MSVCRT:ti_inst.obj
 0002:00007e24       ??_7?$QMemArray@PAD@@6B@   00425e24     qtmain:qtmain_win.obj
 0002:00007e38       ??_R1A@?0A@A@type_info@@8  00425e38     MSVCRT:ti_inst.obj
 0002:00007e50       ??_R2type_info@@8          00425e50     MSVCRT:ti_inst.obj
 0002:00007e58       ??_R3type_info@@8          00425e58     MSVCRT:ti_inst.obj
 0002:00007e68       ??_R4type_info@@6B@        00425e68     MSVCRT:ti_inst.obj
 0002:0000ae80       __CT??_R0?AVstructured_exception@@@812 00428e80     except.obj
 0002:0000aea0       __CTA1?AVstructured_exception@@ 00428ea0     except.obj
 0002:0000aea8       __TI1?AVstructured_exception@@ 00428ea8     except.obj
 0003:00000000       ___xc_a                    0042f000     MSVCRT:cinitexe.obj
 0003:00000058       ___xc_z                    0042f058     MSVCRT:cinitexe.obj
 0003:0000005c       ___xi_a                    0042f05c     MSVCRT:cinitexe.obj
 0003:00000060       ___xi_z                    0042f060     MSVCRT:cinitexe.obj
 0003:00000070       ??_C@_04LNAG@TRUE?$AA@     0042f070     AdjustMon.obj
 0003:00000078       ??_C@_05FPNF@Debug?$AA@    0042f078     AdjustMon.obj
 0003:00000080       ??_C@_08PJIH@Tooltips?$AA@ 0042f080     AdjustMon.obj
 0003:0000008c       ??_C@_0BF@PBCH@?2config?2g_pnlman?4ini?$AA@ 0042f08c     AdjustMon.obj
 0003:000000a4       ??_C@_0BL@IMDN@PM?3?5CAdjustMon?3?3CAdjustMon?$AA@ 0042f0a4     AdjustMon.obj
 0003:000000c0       ??_C@_09EFEJ@CC_SYSTEM?$AA@ 0042f0c0     AdjustMon.obj
 0003:000000cc       ??_C@_01PCFE@?2?$AA@       0042f0cc     AdjustMon.obj
 0003:000000d0       ??_C@_07FCNI@CC_ROOT?$AA@  0042f0d0     AdjustMon.obj
 0003:000000d8       ??_C@_07FMEP@default?$AA@  0042f0d8     AdjustMon.obj
 0003:000000e0       ??_C@_02IBHF@id?$AA@       0042f0e0     AdjustMon.obj
 0003:000000e4       ??_C@_0N@ODC@Handler?5for?5?$AA@ 0042f0e4     AdjustMon.obj
 0003:000000f4       ??_C@_0BH@GFDA@Panel?$DN?$CF1?5?5?5Instance?$DN?$CF2?$AA@ 0042f0f4     AdjustMon.obj
 0003:0000010c       ??_C@_03EKCP@PA?5?$AA@     0042f10c     AdjustMon.obj
 0003:00000110       ??_C@_05LHJG@title?$AA@    0042f110     AdjustMon.obj
 0003:00000118       ??_C@_08PABM@?$FLtitle?$DP?$FN?$AA@ 0042f118     AdjustMon.obj
 0003:00000124       ??_C@_0O@JHCP@applications?4?$AA@ 0042f124     AdjustMon.obj
 0003:00000134       ??_C@_0O@GKBG@typehandlers?4?$AA@ 0042f134     AdjustMon.obj
 0003:00000144       ??_C@_01PKMN@?$DP?$AA@     0042f144     AdjustMon.obj
 0003:00000148       ??_C@_07FLCI@Adjust?5?$AA@ 0042f148     AdjustMon.obj
 0003:00000150       ??_C@_07EGH@CMD?5?$CD?$CD?$CD?$AA@ 0042f150     AdjustMon.obj
 0003:00000158       ??_C@_01KNFJ@?$CD?$AA@     0042f158     AdjustMon.obj
 0003:0000015c       ??_C@_09CFLN@CMD?5CLEAR?$AA@ 0042f15c     AdjustMon.obj
 0003:00000168       ??_C@_05BDJO@clear?$AA@    0042f168     AdjustMon.obj
 0003:00000170       ??_C@_09MLMD@CMD?5KNOBS?$AA@ 0042f170     AdjustMon.obj
 0003:0000017c       ??_C@_05PNOA@knobs?$AA@    0042f17c     AdjustMon.obj
 0003:00000184       ??_C@_09KKEM@CMD?5CLOSE?$AA@ 0042f184     AdjustMon.obj
 0003:00000190       ??_C@_05JMGP@close?$AA@    0042f190     AdjustMon.obj
 0003:00000198       ??_C@_01FDLN@?1?$AA@       0042f198     AdjustMon.obj
 0003:0000019c       ??_C@_02BDA@?$HM0?$AA@     0042f19c     AdjustMon.obj
 0003:000001a0       ??_C@_02KLKH@?$HM1?$AA@    0042f1a0     AdjustMon.obj
 0003:000001a4       ??_C@_03NCP@PI?$HM?$AA@    0042f1a4     AdjustMon.obj
 0003:000001a8       ??_C@_06LJPN@?$DO?$DO?$DOPA?5?$AA@ 0042f1a8     AdjustMon.obj
 0003:000001b0       ??_C@_03OOCB@?$DM?$DM?$DM?$AA@ 0042f1b0     AdjustMon.obj
 0003:000001b4       ??_C@_06MKJ@?$DO?$DO?$DOPI?5?$AA@ 0042f1b4     AdjustMon.obj
 0003:000001bc       ??_C@_08NIHC@browser?5?$AA@ 0042f1bc     AdjustMon.obj
 0003:000001c8       ??_C@_07EANN@Browser?$AA@  0042f1c8     AdjustMon.obj
 0003:000001d0       ??_C@_06GNPM@?$DO?$DO?$DOPN?5?$AA@ 0042f1d0     AdjustMon.obj
 0003:000001d8       ??_C@_06MFPO@?$DO?$DO?$DOPP?5?$AA@ 0042f1d8     AdjustMon.obj
 0003:000001e0       ??_C@_06JPFE@?$DO?$DO?$DOPT?5?$AA@ 0042f1e0     AdjustMon.obj
 0003:000001e8       ??_C@_08JBIL@Panel?$DN?$CF1?$AA@ 0042f1e8     AdjustMon.obj
 0003:000001f4       ??_C@_0BA@HBBM@applications?4?$CF1?$AA@ 0042f1f4     AdjustMon.obj
 0003:00000204       ??_C@_01KMAE@?0?$AA@       0042f204     AdjustMon.obj
 0003:00000208       ??_C@_03IDHI@PX?5?$AA@     0042f208     AdjustMon.obj
 0003:0000020c       ??_C@_06HAKK@?$DO?$DO?$DOPX?5?$AA@ 0042f20c     AdjustMon.obj
 0003:00000214       ??_C@_0N@KDIH@adjustRev?5?9?5?$AA@ 0042f214     AdjustMon.obj
 0003:00000224       ??_C@_0DA@PNDO@PM?3?5CAdjustMon?5originator?$DN?8?$CF1?8?5u@ 0042f224     AdjustMon.obj
 0003:00000254       ??_C@_0EM@GGED@PM?3?5CAdjustMon?5originator?$DN?8?$CF1?8?5m@ 0042f254     AdjustMon.obj
 0003:000002a0       ??_C@_0M@FCPB@application?$AA@ 0042f2a0     AdjustMon.obj
 0003:000002ac       ??_C@_05FMAI@param?$AA@    0042f2ac     AdjustMon.obj
 0003:000002b4       ??_C@_0O@KPIG@cc_navExecute?$AA@ 0042f2b4     AdjustMon.obj
 0003:000002c4       ??_C@_0DN@KAJP@PM?3?5CAdjustMon?5originator?$DN?8?$CF1?8?5m@ 0042f2c4     AdjustMon.obj
 0003:00000304       ??_C@_0N@IDDD@originatorid?$AA@ 0042f304     AdjustMon.obj
 0003:00000314       ??_C@_08IHDL@instance?$AA@ 0042f314     AdjustMon.obj
 0003:00000320       ??_C@_0N@NCCG@cc_navAdjust?$AA@ 0042f320     AdjustMon.obj
 0003:00000330       ??_C@_0BG@GCMI@can?8t?5set?5dom?5content?$AA@ 0042f330     AdjustMon.obj
 0003:00000348       ??_C@_0L@LAAL@mydocument?$AA@ 0042f348     AdjustMon.obj
 0003:00000354       ??_C@_0CI@KKKB@PM?3?5setting?5button?5?8?$CF1?8to?5pm_des@ 0042f354     AppBar.obj
 0003:0000037c       ??_C@_0L@JAIA@stylesheet?$AA@ 0042f37c     AppBar.obj
 0003:00000388       ??_C@_0O@BDFD@pm_deselected?$AA@ 0042f388     AppBar.obj
 0003:00000398       ??_C@_04LHJL@text?$AA@     0042f398     AppBar.obj
 0003:000003a0       ??_C@_03DMDD@?5?9?5?$AA@   0042f3a0     AppBar.obj
 0003:000003a4       ??_C@_09GAGK@instance_?$AA@ 0042f3a4     AppBar.obj
 0003:000003b0       ??_C@_05IIAE@start?$AA@    0042f3b0     AppBar.obj
 0003:000003b8       ??_C@_0P@EMGC@popupDestroyed?$AA@ 0042f3b8     AppBar.obj
 0003:000003c8       ??_C@_0BI@BDGD@CAppBar?3?3slotPressed?5?$CF1?$AA@ 0042f3c8     AppBar.obj
 0003:000003e0       ??_C@_0BE@EMKO@2notify?$CI?5QString?5?$CG?$CJ?$AA@ 0042f3e0     AppBar.obj
 0003:000003f4       ??_C@_0BE@EOJA@1notify?$CI?5QString?5?$CG?$CJ?$AA@ 0042f3f4     AppBar.obj
 0003:00000408       ??_C@_0BK@FKAM@colour?4background?$DN?$CDc0c0c0?$AA@ 0042f408     AppBar.obj
 0003:00000424       ??_C@_07CKMB@text?$DN?$CF1?$AA@ 0042f424     AppBar.obj
 0003:0000042c       ??_C@_0N@FLOI@bncs_control?$AA@ 0042f42c     AppBar.obj
 0003:0000043c       ??_C@_0M@LLEF@instance_?$CF1?$AA@ 0042f43c     AppBar.obj
 0003:00000448       ??_C@_04OEEJ@ARC3?$AA@     0042f448     AppBar.obj
 0003:00000450       ??_C@_04EONO@ARC2?$AA@     0042f450     AppBar.obj
 0003:00000458       ??_C@_04LBGH@ARC1?$AA@     0042f458     AppBar.obj
 0003:00000460       ??_C@_07OFHO@devtype?$AA@  0042f460     AppBar.obj
 0003:00000468       ??_C@_0BA@JDJC@Unknown?5type?5?9?5?$AA@ 0042f468     AppBar.obj
 0003:00000478       ??_C@_06FNPB@family?$AA@   0042f478     AppBar.obj
 0003:00000480       ??_C@_0M@JLAD@pm_selected?$AA@ 0042f480     AppBar.obj
 0003:0000048c       ??_C@_01HAF@?8?$AA@        0042f48c     AppBar.obj
 0003:00000490       ??_C@_02NCFH@?5?8?$AA@     0042f490     AppBar.obj
 0003:00000494       ??_C@_0L@FCIL@execApp?5?9?5?$AA@ 0042f494     AppBar.obj
 0003:000004a0       ??_C@_02MIFF@?$CF1?$AA@    0042f4a0     AppBar.obj
 0003:000004a4       ??_C@_06IK@engset?$AA@     0042f4a4     AppBar.obj
 0003:000004ac       ??_C@_08GCJP@panelset?$AA@ 0042f4ac     AppBar.obj
 0003:000004b8       ??_C@_0CM@HHEJ@PM?3?5CAppBar?3?3setUser?$CI?$CJ?5?9?5strRetu@ 0042f4b8     AppBar.obj
 0003:000004e4       ??_C@_04DDFL@user?$AA@     0042f4e4     AppBar.obj
 0003:000004ec       ??_C@_0O@GENH@workstations?4?$AA@ 0042f4ec     AppBar.obj
 0003:000004fc       ??_C@_06HBIF@users?4?$AA@  0042f4fc     AppBar.obj
 0003:00000504       ??_C@_0BL@BFAI@PM?3?5CAppBar?3?3setUser?$CI?8?$CF1?8?$CJ?$AA@ 0042f504     AppBar.obj
 0003:00000520       ??_C@_0P@NIEE@CC_WORKSTATION?$AA@ 0042f520     AppBar.obj
 0003:00000530       ??_C@_0DE@BIPL@PM?3?5dicItems?4insert?5item?$DN?8?$CF1?8?5cl@ 0042f530     AppBar.obj
 0003:00000564       ??_C@_0N@FIGC@?4?4?1?$CF1?1?$CF2?4png?$AA@ 0042f564     AppBar.obj
 0003:00000574       ??_C@_0BB@GIBB@?4?4?1images?1?$CF1?4png?$AA@ 0042f574     AppBar.obj
 0003:00000588       ??_C@_08JPBL@v4_panel?$AA@ 0042f588     AppBar.obj
 0003:00000594       ??_C@_0BA@EPDJ@?4?4?1?4?4?1?$CF1?1?$CF2?4png?$AA@ 0042f594     AppBar.obj
 0003:000005a4       ??_C@_0BE@NKLC@?4?4?1?4?4?1images?1?$CF1?4png?$AA@ 0042f5a4     AppBar.obj
 0003:000005b8       ??_C@_08CKCK@?1images?1?$AA@ 0042f5b8     AppBar.obj
 0003:000005c4       ??_C@_0BB@IFBF@icon_default?4png?$AA@ 0042f5c4     AppBar.obj
 0003:000005d8       ??_C@_04DHFN@icon?$AA@     0042f5d8     AppBar.obj
 0003:000005e0       ??_C@_07IOAK@caption?$AA@  0042f5e0     AppBar.obj
 0003:000005e8       ??_C@_05LGKP@class?$AA@    0042f5e8     AppBar.obj
 0003:000005f0       ??_C@_04NCCD@true?$AA@     0042f5f0     AppBar.obj
 0003:000005f8       ??_C@_05MAFJ@popup?$AA@    0042f5f8     AppBar.obj
 0003:00000600       ??_C@_0P@EEAE@__PANELSET_END?$AA@ 0042f600     AppBar.obj
 0003:00000610       ??_C@_0BB@ECBB@panelsetLocation?$AA@ 0042f610     AppBar.obj
 0003:00000624       ??_C@_08KGHI@location?$AA@ 0042f624     AppBar.obj
 0003:00000630       ??_C@_05PCMN@level?$AA@    0042f630     AppBar.obj
 0003:00000638       ??_C@_0BB@JMFG@__PANELSET_START?$AA@ 0042f638     AppBar.obj
 0003:0000064c       ??_C@_0L@OBD@panelsets?4?$AA@ 0042f64c     AppBar.obj
 0003:00000658       ??_C@_0CK@IKBO@PM?3?5CAppBar?3?3setPanelSet?$CI?$CJ?5m_pag@ 0042f658     AppBar.obj
 0003:00000684       ??_C@_0CL@HCCP@PM?3?5CAppBar?3?3setPanelSet?$CI?$CJ?5intSe@ 0042f684     AppBar.obj
 0003:000006b0       ??_C@_0BP@EJNA@PM?3?5CAppBar?3?3setPanelSet?$CI?8?$CF1?8?$CJ?$AA@ 0042f6b0     AppBar.obj
 0003:000006d0       ??_C@_01FCOA@?5?$AA@       0042f6d0     AppBar.obj
 0003:000006d4       ??_C@_0O@KILG@page?5?$CF1?5of?5?$CF2?$AA@ 0042f6d4     AppBar.obj
 0003:000006e4       ??_C@_0O@JIBI@icon_more?4png?$AA@ 0042f6e4     AppBar.obj
 0003:000006f4       ??_C@_04OIEE@More?$AA@     0042f6f4     AppBar.obj
 0003:000006fc       ??_C@_06NBAD@pixmap?$AA@   0042f6fc     AppBar.obj
 0003:00000704       ??_C@_0O@KJMD@icon_grid?4png?$AA@ 0042f704     AppBar.obj
 0003:00000714       ??_C@_0CP@ILLA@PM?3?5CAppBar?3?3nextPage?$CI?$CJ?5switchin@ 0042f714     AppBar.obj
 0003:00000744       ??_C@_0CK@ECFE@Can?8t?5create?5panelman?5app?5bar?5ex@ 0042f744     AppBar.obj
 0003:00000770       ??_C@_05BLHB@Ooops?$AA@    0042f770     AppBar.obj
 0003:00000778       ??_C@_0BJ@GJEG@stylesheet?$DNpm_deselected?$AA@ 0042f778     AppBar.obj
 0003:00000794       ??_C@_0BH@LHOF@stylesheet?$DNpm_selected?$AA@ 0042f794     AppBar.obj
 0003:000007ac       ??_C@_05FHFE@text?$DN?$AA@ 0042f7ac     AppBar.obj
 0003:000007b4       ??_C@_07DPDC@pixmap?$DN?$AA@ 0042f7b4     AppBar.obj
 0003:000007bc       ??_C@_09DEKI@text?$DNLess?$AA@ 0042f7bc     AppBar.obj
 0003:000007c8       ??_C@_0BF@PBEL@pixmap?$DNicon_less?4png?$AA@ 0042f7c8     AppBar.obj
 0003:000007e0       ??_C@_0BF@HPHN@2notify?$CI?5QString?5?$CG?5?$CJ?$AA@ 0042f7e0     AppBar.obj
 0003:000007f8       ??_C@_0BF@LLHP@1notify?$CI?5QString?5?$CG?5?$CJ?$AA@ 0042f7f8     AppBar.obj
 0003:00000810       ??_C@_0CB@FMPP@panelman?2?$CF1?2pm_app_ext?$CF2?4bncs_ui@ 0042f810     AppBar.obj
 0003:00000834       ??_C@_0CE@NJOP@panelman?2?$CF1?2pm_app_popup_?$CF2?4bncs@ 0042f834     AppBar.obj
 0003:00000858       ??_C@_0CI@LMCG@AppSwitch?5?9?5current?5application?5@ 0042f858     AppSwitch.obj
 0003:00000880       ??_C@_0M@JIED@?5has?5exited?$AA@ 0042f880     AppSwitch.obj
 0003:0000088c       ??_C@_0CC@FOKP@AppSwitch?5?9?5an?5application?5exite@ 0042f88c     AppSwitch.obj
 0003:000008b0       ??_C@_0CC@OMOP@External?5not?5found?0?5showing?5blan@ 0042f8b0     AppSwitch.obj
 0003:000008d4       ??_C@_08BEPJ@pm_blank?$AA@ 0042f8d4     AppSwitch.obj
 0003:000008e0       ??_C@_0BB@FAKK@2processExited?$CI?$CJ?$AA@ 0042f8e0     AppSwitch.obj
 0003:000008f4       ??_C@_0BB@GEDA@1appExitNotify?$CI?$CJ?$AA@ 0042f8f4     AppSwitch.obj
 0003:00000908       ??_C@_06EIBL@?9style?$AA@  0042f908     AppSwitch.obj
 0003:00000910       ??_C@_0N@EGBN@ctl_applcore?$AA@ 0042f910     AppSwitch.obj
 0003:00000920       ??_C@_05LIGP@qtgui?$AA@    0042f920     AppSwitch.obj
 0003:00000928       ??_C@_0CA@MPCK@?8?5not?5found?0?5will?5start?5new?5one?$AA@ 0042f928     AppSwitch.obj
 0003:00000948       ??_C@_0BO@KCPK@CAppSwitch?3?3execApp?5process?5?8?$AA@ 0042f948     AppSwitch.obj
 0003:00000968       ??_C@_0CI@JMOM@CAppSwitch?3?3execApp?5can?8t?5find?5w@ 0042f968     AppSwitch.obj
 0003:00000990       ??_C@_0BC@BALK@?8?5in?5process?5dict?$AA@ 0042f990     AppSwitch.obj
 0003:000009a4       ??_C@_0BM@NOIP@CAppSwitch?3?3execApp?5found?5?8?$AA@ 0042f9a4     AppSwitch.obj
 0003:000009c0       ??_C@_0P@OIDH@PreviousTitle?$DN?$AA@ 0042f9c0     AppSwitch.obj
 0003:000009d0       ??_C@_0L@KNKC@LastTitle?$DN?$AA@ 0042f9d0     AppSwitch.obj
 0003:000009dc       ??_C@_0M@NFPD@_TARGET_END?$AA@ 0042f9dc     AppSwitch.obj
 0003:000009e8       ??_C@_0BE@EOG@applicationLocation?$AA@ 0042f9e8     AppSwitch.obj
 0003:000009fc       ??_C@_06KCLD@offset?$AA@   0042f9fc     AppSwitch.obj
 0003:00000a04       ??_C@_06GFPG@device?$AA@   0042fa04     AppSwitch.obj
 0003:00000a0c       ??_C@_07FPEB@offset?$DN?$AA@ 0042fa0c     AppSwitch.obj
 0003:00000a14       ??_C@_07EBIG@device?$DN?$AA@ 0042fa14     AppSwitch.obj
 0003:00000a1c       ??_C@_0BA@IDDN@the?5bits?5are?5?$CFs?$AA@ 0042fa1c     AppSwitch.obj
 0003:00000a2c       ??_C@_04PIKN@type?$AA@     0042fa2c     AppSwitch.obj
 0003:00000a34       ??_C@_0BB@IHNE@instanceLocation?$AA@ 0042fa34     AppSwitch.obj
 0003:00000a48       ??_C@_05BGKM@altId?$AA@    0042fa48     AppSwitch.obj
 0003:00000a50       ??_C@_09JMFK@panelType?$AA@ 0042fa50     AppSwitch.obj
 0003:00000a5c       ??_C@_04BJAP@V4?45?$AA@    0042fa5c     AppSwitch.obj
 0003:00000a64       ??_C@_0O@OFGB@_TARGET_START?$AA@ 0042fa64     AppSwitch.obj
 0003:00000a74       ??_C@_0L@JDGN@Type?5is?5?9?5?$AA@ 0042fa74     AppSwitch.obj
 0003:00000a80       ??_C@_04CHLA@kill?$AA@     0042fa80     AppSwitch.obj
 0003:00000a88       ??_C@_08ELGP@external?$AA@ 0042fa88     AppSwitch.obj
 0003:00000a94       ??_C@_04LDEN@v4?45?$AA@    0042fa94     AppSwitch.obj
 0003:00000a9c       ??_C@_04EJNG@?4dll?$AA@    0042fa9c     AppSwitch.obj
 0003:00000aa4       ??_C@_08CBLO@?4bncs_ui?$AA@ 0042faa4     AppSwitch.obj
 0003:00000ab0       ??_C@_02DDGN@v4?$AA@       0042fab0     AppSwitch.obj
 0003:00000ab4       ??_C@_0CH@EMHF@CAppSwitch?3?3execApp?5?9?5checking?5f@ 0042fab4     AppSwitch.obj
 0003:00000adc       ??_C@_04CPLG@?4acs?$AA@    0042fadc     AppSwitch.obj
 0003:00000ae4       ??_C@_08HOBK@?2panels?2?$AA@ 0042fae4     AppSwitch.obj
 0003:00000af0       ??_C@_06GCP@vknobs?$AA@    0042faf0     AppSwitch.obj
 0003:00000af8       ??_C@_07OKEC@circuit?$AA@  0042faf8     AppSwitch.obj
 0003:00000b00       ??_C@_01PLJA@0?$AA@        0042fb00     AppSwitch.obj
 0003:00000b04       ??_C@_0ED@INLG@Microsoft?1Windows?5NT?1CurrentVers@ 0042fb04     AppView.obj
 0003:00000b48       ??_C@_0BH@GLND@PM?3?5CAppView?3?3CAppView?$AA@ 0042fb48     AppView.obj
 0003:00000b60       ??_C@_0BI@CLHN@PM?3?5CAppView?3?3?$HOCAppView?$AA@ 0042fb60     AppView.obj
 0003:00000b78       ??_C@_0BA@JLAA@raw_parameters?$DN?$AA@ 0042fb78     AppView.obj
 0003:00000b88       ??_C@_0EC@JOBE@PM?3?5CAppView?3?3showView?5switching@ 0042fb88     AppView.obj
 0003:00000bcc       ??_C@_09MCGE@instance?$DN?$AA@ 0042fbcc     AppView.obj
 0003:00000bd8       ??_C@_0FE@GIPD@PM?3?5CAppView?3?3showView?5setting?5a@ 0042fbd8     AppView.obj
 0003:00000c2c       ??_C@_0BF@HCPN@PM?3?5adding?5widget?5?$CF1?$AA@ 0042fc2c     AppView.obj
 0003:00000c44       ??_C@_0BI@IHAO@delete?5panel?5took?5?$CFd?5ms?$AA@ 0042fc44     AppView.obj
 0003:00000c5c       ??_C@_0FK@NLLJ@PM?3?5CAppView?3?3showView?5?9?5realloc@ 0042fc5c     AppView.obj
 0003:00000cb8       ??_C@_0FM@OEKA@PM?3?5CAppView?3?3showView?5?9?5realloc@ 0042fcb8     AppView.obj
 0003:00000d14       ??_C@_0L@KLOM@after?5load?$AA@ 0042fd14     AppView.obj
 0003:00000d20       ??_C@_0BG@IPHE@dcw?5create?5took?5?$CFd?5ms?$AA@ 0042fd20     AppView.obj
 0003:00000d38       ??_C@_0O@OME@after?5removal?$AA@ 0042fd38     AppView.obj
 0003:00000d48       ??_C@_0EF@EPCM@PM?3?5CAppView?3?3showView?5?9?5removin@ 0042fd48     AppView.obj
 0003:00000d90       ??_C@_0EH@IOOK@PM?3?5CAppView?3?3showView?5?9?5removin@ 0042fd90     AppView.obj
 0003:00000dd8       ??_C@_0N@LHHK@before?5check?$AA@ 0042fdd8     AppView.obj
 0003:00000de8       ??_C@_0BK@FJGM@PM?3?5file?5doesn?8t?5exist?5?9?5?$AA@ 0042fde8     AppView.obj
 0003:00000e04       ??_C@_03GOEG@?4ui?$AA@     0042fe04     AppView.obj
 0003:00000e08       ??_C@_09NBHA@panelman?1?$AA@ 0042fe08     AppView.obj
 0003:00000e14       ??_C@_0BH@PCHF@panelman?1?$CF1?1?$CF2?4bncs_ui?$AA@ 0042fe14     AppView.obj
 0003:00000e2c       ??_C@_0CE@PPEF@PM?3?5CAppView?3?3showView?5key?$DN?8?$CF1?8?5@ 0042fe2c     AppView.obj
 0003:00000e50       ??_C@_0CG@KKPD@PM?3?5CAppView?3?3showView?5key?$DN?8?$CF1?8?5@ 0042fe50     AppView.obj
 0003:00000e78       ??_C@_01KNJC@?$CG?$AA@     0042fe78     AppView.obj
 0003:00000e7c       ??_C@_0CH@ELCM@CAppView?3?3hideLast?$CI?$CJ?5Close?5?9?5not@ 0042fe7c     AppView.obj
 0003:00000ea4       ??_C@_0CP@EOA@CAppView?3?3hideLast?$CI?$CJ?5Close?5?9?5fou@ 0042fea4     AppView.obj
 0003:00000ed4       ??_C@_0BF@PPHK@CAppView?3?3hideLast?$CI?$CJ?$AA@ 0042fed4     AppView.obj
 0003:00000eec       ??_C@_07POAM@__CLEAR?$AA@  0042feec     AppView.obj
 0003:00000ef4       ??_C@_0EB@LDDL@PM?3?5CAppView?3?3clearPanels?$CI?$CJ?5?9?5id@ 0042fef4     AppView.obj
 0003:00000f38       ??_C@_0EA@OJDM@PM?3?5CAppView?3?3clearPanels?$CI?$CJ?5?9?5id@ 0042ff38     AppView.obj
 0003:00000f78       ??_C@_0BJ@PJAB@qt_invisible_widgetstack?$AA@ 0042ff78     AppView.obj
 0003:00000f94       ??_C@_0DB@DNAL@PM?3?5CAppView?3?3clearPanels?$CI?$CJ?5?9?5?$CF1@ 0042ff94     AppView.obj
 0003:00000fc8       ??_C@_0DA@PPIN@PM?3?5CAppView?3?3clearPanels?$CI?$CJ?5?9?5?$CF1@ 0042ffc8     AppView.obj
 0003:00000ff8       ??_C@_0DB@LMOM@PM?3?5CAppView?3?3clearPanels?$CI?$CJ?5?$DN?$DN?$DN?$DN@ 0042fff8     AppView.obj
 0003:0000102c       ??_C@_0BP@HAOP@delete?5oldest?5panel?5took?5?$CFd?5ms?$AA@ 0043002c     AppView.obj
 0003:0000104c       ??_C@_0DG@KFDG@PM?3?5CAppView?3?3deleteOldestPanel?5@ 0043004c     AppView.obj
 0003:00001084       ??_C@_0FI@NJDI@PM?3?5CAppView?3?3showView?5?9?5Windows@ 00430084     AppView.obj
 0003:000010dc       ??_C@_0DP@HODE@PM?3?5CAppView?3?3showView?5?9?5Qt?5Coun@ 004300dc     AppView.obj
 0003:0000111c       ??_C@_07MBFH@QWidget?$AA@  0043011c     AppView.obj
 0003:00001124       ??_C@_07PBLP@QObject?$AA@  00430124     AppView.obj
 0003:0000112c       ??_C@_0BB@LKHH@type?5is?5panelman?$AA@ 0043012c     bncs_mcComms.obj
 0003:00001140       ??_C@_0L@OENJ@225?40?40?410?$AA@ 00430140     bncs_mcComms.obj
 0003:0000114c       ??_C@_0P@PCLG@type?5is?5update?$AA@ 0043014c     bncs_mcComms.obj
 0003:0000115c       ??_C@_0BJ@FIPO@unknown?5type?5is?5panelman?$AA@ 0043015c     bncs_mcComms.obj
 0003:00001178       ??_C@_0BO@LDLN@Can?8t?5reset?5socket?5options?5mc?$AA@ 00430178     bncs_multicast.obj
 0003:00001198       ??_C@_0BA@IGJB@2activated?$CIint?$CJ?$AA@ 00430198     bncs_multicast.obj
 0003:000011a8       ??_C@_0N@FOBM@1rxdata?$CIint?$CJ?$AA@ 004301a8     bncs_multicast.obj
 0003:000011b8       ??_C@_0BC@MNEP@invalid?5socket?5?$CFs?$AA@ 004301b8     bncs_multicast.obj
 0003:000011cc       ??_C@_0BP@CJMH@Can?8t?5set?5socket?5options?5mc?5?$CFd?$AA@ 004301cc     bncs_multicast.obj
 0003:000011ec       ??_C@_0BJ@IEJO@setting?5address?5to?5?$CFx?5?$CFx?$AA@ 004301ec     bncs_multicast.obj
 0003:00001208       ??_C@_0BG@MOLM@Can?8t?5set?5TTL?5options?$AA@ 00430208     bncs_multicast.obj
 0003:00001220       ??_C@_0N@PBFL@not?5bound?5OK?$AA@ 00430220     bncs_multicast.obj
 0003:00001230       ??_C@_0BJ@EOHH@Can?8t?5set?5socket?5options?$AA@ 00430230     bncs_multicast.obj
 0003:0000124c       ??_C@_0BP@EIKH@bncs_multicast?3?3rx?5?$CIdefault?$CJ?5?3?$AA@ 0043024c     bncs_multicast.obj
 0003:0000126c       ??_C@_0BH@MMOM@PM?3?5unregistering?5shim?$AA@ 0043026c     Client.obj
 0003:00001284       ??_C@_0BB@PLHL@Adjust?5Revertive?$AA@ 00430284     Client.obj
 0003:00001298       ??_C@_0O@LPNL@IW?5?$CFd?5?8?$CFs?8?5?$CFd?$AA@ 00430298     Client.obj
 0003:000012a8       ??_C@_0CL@LHKD@PM?3?5CClient?3?3CClient?5?9?5shim?5wasn@ 004302a8     Client.obj
 0003:000012d4       ??_C@_0BN@BLKN@PM?3?5getting?5shim?5from?5loader?$AA@ 004302d4     Client.obj
 0003:000012f4       ??_C@_0BE@BJNA@1cancel?$CI?5QString?5?$CG?$CJ?$AA@ 004302f4     Confirm_Exit.obj
 0003:00001308       ??_C@_0P@GHNA@confirm_cancel?$AA@ 00430308     Confirm_Exit.obj
 0003:00001318       ??_C@_0BF@LMAE@1confirm?$CI?5QString?5?$CG?$CJ?$AA@ 00430318     Confirm_Exit.obj
 0003:00001330       ??_C@_0M@CFJM@confirm_yes?$AA@ 00430330     Confirm_Exit.obj
 0003:0000133c       ??_C@_0CB@GKOG@panelman?1pm_confirm_exit?4bncs_ui@ 0043033c     Confirm_Exit.obj
 0003:00001360       ??_R0?AVstructured_exception@@@8 00430360     except.obj
 0003:00001384       ??_C@_0BI@PHJO@ASSERT?3?5?$CC?$CFs?$CC?5in?5?$CFs?5?$CI?$CFd?$CJ?$AA@ 00430384     ExtProcess.obj
 0003:0000139c       ??_C@_0L@MGKG@i?5?$DM?$DN?5nodes?$AA@ 0043039c     ExtProcess.obj
 0003:000013a8       ??_C@_0CB@GILJ@C?3?2Qt?23?42?43?2include?2qvaluelist?4h@ 004303a8     ExtProcess.obj
 0003:000013cc       ??_C@_09MMGO@instances?$AA@ 004303cc     LookUp.obj
 0003:000013d8       ??_C@_0CF@DPHK@bncs_config?5cfgInstances?$CIinstanc@ 004303d8     LookUp.obj
 0003:00001400       ??_C@_0BM@POGE@Fatal?5Error?6Last?5panel?5was?5?$AA@ 00430400     main.obj
 0003:0000141c       ??_C@_0P@DHCG@Panelman?5Error?$AA@ 0043041c     main.obj
 0003:0000142c       ??_C@_0FM@IEFP@Fatal?5Error?6Last?5panel?5was?3?5?$CF1?6?6@ 0043042c     main.obj
 0003:00001488       ??_C@_0HD@PINI@Fatal?5Error?6Last?5panel?5was?3?5?$CF1?6?6@ 00430488     main.obj
 0003:000014fc       ??_C@_08MNHL@panelman?$AA@ 004304fc     main.obj
 0003:00001508       ??_C@_0BK@EKMG@?$CK?$CK?5Exception?5?$CK?$CK?5?$CFx?5at?5?$CFx?5?$AA@ 00430508     main.obj
 0003:00001524       ??_C@_0CG@MIMI@?$CK?$CK?5Exception?5?$CK?$CK?5?$CFx?5at?5?$CFx?5accessi@ 00430524     main.obj
 0003:0000154c       ??_C@_0N@GLMG@now?5return?5?6?$AA@ 0043054c     main.obj
 0003:0000155c       ??_C@_0P@INAJ@2aboutToQuit?$CI?$CJ?$AA@ 0043055c     main.obj
 0003:0000156c       ??_C@_09KPNA@1pmQuit?$CI?$CJ?$AA@ 0043056c     main.obj
 0003:00001578       ??_C@_07EOHF@?2panels?$AA@ 00430578     main.obj
 0003:00001580       ??_C@_0BI@OAIA@?2windows?2lib?2qt_plugins?$AA@ 00430580     main.obj
 0003:00001598       ??_C@_0L@OLHA@?1instance?$DN?$AA@ 00430598     main.obj
 0003:000015a4       ??_C@_07COJD@?1silent?$AA@ 004305a4     main.obj
 0003:000015ac       ??_C@_0N@EEKI@PM?3?5?1load?$DN?$CF1?$AA@ 004305ac     main.obj
 0003:000015bc       ??_C@_06EMBK@?1load?$DN?$AA@ 004305bc     main.obj
 0003:000015c4       ??_C@_0N@KLDF@PM?3?5?1size?$DN?$CF1?$AA@ 004305c4     main.obj
 0003:000015d4       ??_C@_06KBDN@?1size?$DN?$AA@ 004305d4     main.obj
 0003:000015dc       ??_C@_04HKOM@1024?$AA@     004305dc     main.obj
 0003:00001868       ??_C@_0EB@BDMI@a?5w?5q?5q?59?59?58?58?58?55?55?5?$DM?5?9?5?9?5?$CK?5?$CK?5@ 00430868     PanelMan.obj
 0003:000018ac       ??_C@_0EB@CACF@n?5D?5C?5C?5Z?5Z?5Z?5Z?5Z?5Z?5Z?5G?5C?5Z?5Z?5Z?5@ 004308ac     PanelMan.obj
 0003:000018f0       ??_C@_0EB@OJHL@M?5C?5?8?5X?4X?4X?4o?4o?4o?4o?4O?4O?4?0?4?0?4?$DM?4?$DM?4@ 004308f0     PanelMan.obj
 0003:00001934       ??_C@_0EB@PEMK@P?5C?5X?4?0?4?0?4?$DM?4?$DM?4?$DM?42?4?$DM?42?43?43?43?49?49?4@ 00430934     PanelMan.obj
 0003:00001978       ??_C@_0EB@KCFK@P?5C?5?$GA?5?$FN?5?$FN?5?$FN?5?$FN?5?$FN?5?5?4?5?4?4?4X?4?$DM?42?4O?4O?4@ 00430978     PanelMan.obj
 0003:000019bc       ??_C@_0EB@BIHL@I?5A?5o?5?$CD?5$?5?$DL?5?$DL?5?$DO?5?0?51?52?5r?5?0?42?4?$GA?5f?5@ 004309bc     PanelMan.obj
 0003:00001a00       ??_C@_0EB@CDPG@U?5A?5?4?5X?5o?5o?5$?5?$DL?5?$DL?5?$DO?5?$DO?5e?5?$FN?5?5?4u?5p?5@ 00430a00     PanelMan.obj
 0003:00001a44       ??_C@_0EB@PKJL@T?5A?5?4?5?4?5X?5X?5X?5o?5o?5?$DL?5?$DL?5?$DO?5?$DO?5?0?51?53?5@ 00430a44     PanelMan.obj
 0003:00001a88       ??_C@_0EB@MPJD@T?5B?5?4?5?4?5?4?5?4?5?4?5X?5X?5o?5o?5o?5$?5?$DL?5?3?5?$DO?5@ 00430a88     PanelMan.obj
 0003:00001acc       ??_C@_0EB@KPAB@R?5A?5?4?5?4?5?4?5z?5z?5s?5X?5X?5X?5X?5o?5$?5$?5?$DL?5@ 00430acc     PanelMan.obj
 0003:00001b10       ??_C@_0EB@ECLD@?$HO?5A?5?4?5?4?5?4?5y?4y?4?$DL?4?4?5?4?5?4?5?4?5?4?5X?5o?5o?5@ 00430b10     PanelMan.obj
 0003:00001b54       ??_C@_0EB@DIHI@?$HO?5A?5?4?5?4?5X?5y?4y?4?$DL?4?4?5?4?5?4?5?4?5?4?5?4?5?4?5X?5@ 00430b54     PanelMan.obj
 0003:00001b98       ??_C@_0EB@HFKP@?$HO?5A?5?4?5?4?5X?5y?4y?4?$DL?4?4?5?4?5?4?5?4?5?4?5?4?5?4?5?4?5@ 00430b98     PanelMan.obj
 0003:00001bdc       ??_C@_0EB@CJON@?1?5A?5?4?5?4?5?4?5y?4y?4?$DL?4?4?5?4?5?4?5?4?5?4?5?4?5?4?5?4?5@ 00430bdc     PanelMan.obj
 0003:00001c20       ??_C@_0EB@CFPI@?$CJ?5A?5?4?5?4?5?4?5y?4y?4r?48?48?4?3?4?$HL?5?$CF?5?4?5?4?5?4?5@ 00430c20     PanelMan.obj
 0003:00001c64       ??_C@_0EB@BMCH@?$CJ?5A?5?4?5?4?5X?5y?4y?4y?4y?4y?4y?4y?4r?4d?5?4?5?4?5@ 00430c64     PanelMan.obj
 0003:00001ca8       ??_C@_0EB@GNBH@_?5A?5?4?5?4?5X?5y?4y?46?4h?5k?5?$CG?4y?4y?4y?43?5?4?5@ 00430ca8     PanelMan.obj
 0003:00001cec       ??_C@_0EB@LKAE@_?5A?5?4?5?4?5?4?5y?4y?4?$DL?4?4?5?4?5?4?5h?5y?4y?4?$CG?4?4?5@ 00430cec     PanelMan.obj
 0003:00001d30       ??_C@_0EB@OLAF@_?5A?5?4?5?4?5?4?5y?4y?4?$DL?4?4?5?4?5?4?5X?5t?4y?48?4?4?5@ 00430d30     PanelMan.obj
 0003:00001d74       ??_C@_0EB@BNCJ@_?5A?5?4?5?4?5?4?5y?4y?4?$DL?4?4?5?4?5?4?5?4?5t?4y?4w?4?4?5@ 00430d74     PanelMan.obj
 0003:00001db8       ??_C@_0EB@HIBO@_?5B?5?4?5?4?5X?5y?4y?4?$DL?4?4?5?4?5?4?5d?5y?4y?44?4?4?5@ 00430db8     PanelMan.obj
 0003:00001dfc       ??_C@_0EB@KEGN@_?5A?5?4?5?4?5?4?5y?4y?45?4d?5k?5?$CG?4t?4y?4y?4h?5?4?5@ 00430dfc     PanelMan.obj
 0003:00001e40       ??_C@_0EB@LOKM@_?5A?5?4?5?4?5?4?5y?4y?4y?4y?4y?4y?4y?4y?4$?4?4?5?4?5@ 00430e40     PanelMan.obj
 0003:00001e84       ??_C@_0EB@POKI@_?5A?5?4?5?4?5?$CD?5w?48?48?48?46?44?4$?4t?5?4?5?4?5?$CL?5@ 00430e84     PanelMan.obj
 0003:00001ec8       ??_C@_0EB@NDPE@_?5D?5?$EA?5?4?5?$CL?5?$CD?5?$CL?5X?5?$CL?5?$CD?5?$CL?5?$CD?5?$CD?5?4?5?4?5?$CL?5@ 00430ec8     PanelMan.obj
 0003:00001f0c       ??_C@_0EB@MCPO@?$DO?4H?5A?5?$EA?5X?5?$CD?5?$CL?5?4?5?4?5?$CD?5?$CD?5?$CL?5?$CD?5?4?5?4?5?$CD?5@ 00430f0c     PanelMan.obj
 0003:00001f50       ??_C@_0EB@LEGM@u?4?$DO?4H?5A?5?$CG?5?$CD?5?$CD?5X?5?$CL?5?$CD?5?$CL?5?$CL?5?$CD?5?$CL?5?$CL?5?$CD?5@ 00430f50     PanelMan.obj
 0003:00001f94       ??_C@_0EB@KIBO@u?4u?4?$DO?4J?5A?5?9?5?$CD?5?$CD?5?$CD?5?$CD?5?$CL?5?4?5?$CD?5?$CL?5?$CD?5?$CD?5@ 00430f94     PanelMan.obj
 0003:00001fd8       ??_C@_0EB@BOIH@u?4u?4u?4?$DO?4J?5S?5?9?5X?5?4?5?$CD?5?$CD?5?4?5?$CD?5?$CD?5?$CD?5?$CD?5@ 00430fd8     PanelMan.obj
 0003:0000201c       ??_C@_0EB@CPEB@u?4u?4u?4u?4?$DO?4K?5H?5?9?5?$CL?5?$CD?5?$CL?5?$CL?5?$CL?5?$CD?5?$CD?5?$CL?5@ 0043101c     PanelMan.obj
 0003:00002060       ??_C@_0EB@HKED@u?4u?4u?4u?4u?4?$DO?4L?5F?5Z?5V?5S?5B?5B?5Z?5V?5B?5@ 00431060     PanelMan.obj
 0003:000020a4       ??_C@_0EB@EENK@u?4u?4u?4u?4u?4u?4?$DO?4_?5?$CI?5_?5_?5?$CI?5_?5?$CI?5_?5?$CI?5@ 004310a4     PanelMan.obj
 0003:000020e8       ??_C@_09HGLD@u?4?5c?5None?$AA@ 004310e8     PanelMan.obj
 0003:000020f4       ??_C@_0N@OPCA@y?4?5c?5?$CDFFFEFF?$AA@ 004310f4     PanelMan.obj
 0003:00002104       ??_C@_0N@IJDO@t?4?5c?5?$CDFAF5FA?$AA@ 00431104     PanelMan.obj
 0003:00002114       ??_C@_0N@GNNC@r?4?5c?5?$CDF6F3F6?$AA@ 00431114     PanelMan.obj
 0003:00002124       ??_C@_0N@CENK@e?4?5c?5?$CDF5ECF5?$AA@ 00431124     PanelMan.obj
 0003:00002134       ??_C@_0N@OIOB@w?4?5c?5?$CDF2E6F2?$AA@ 00431134     PanelMan.obj
 0003:00002144       ??_C@_0N@KGJB@q?4?5c?5?$CDECECEC?$AA@ 00431144     PanelMan.obj
 0003:00002154       ??_C@_0N@IBIN@0?4?5c?5?$CDEFE0EF?$AA@ 00431154     PanelMan.obj
 0003:00002164       ??_C@_0N@IPPG@9?4?5c?5?$CDE4E4E4?$AA@ 00431164     PanelMan.obj
 0003:00002174       ??_C@_0N@HAKA@8?4?5c?5?$CDEDDDED?$AA@ 00431174     PanelMan.obj
 0003:00002184       ??_C@_0N@NMGG@7?4?5c?5?$CDE9D4E9?$AA@ 00431184     PanelMan.obj
 0003:00002194       ??_C@_0N@MBPP@6?4?5c?5?$CDE7D1E7?$AA@ 00431194     PanelMan.obj
 0003:000021a4       ??_C@_0N@NAJA@5?4?5c?5?$CDE4CCE4?$AA@ 004311a4     PanelMan.obj
 0003:000021b4       ??_C@_0N@JHGD@4?4?5c?5?$CDE1C5E1?$AA@ 004311b4     PanelMan.obj
 0003:000021c4       ??_C@_0N@PJBL@3?4?5c?5?$CDDBDBDB?$AA@ 004311c4     PanelMan.obj
 0003:000021d4       ??_C@_0N@PAMF@2?4?5c?5?$CDD4D4D4?$AA@ 004311d4     PanelMan.obj
 0003:000021e4       ??_C@_0N@BEKM@1?4?5c?5?$CDDFC2DF?$AA@ 004311e4     PanelMan.obj
 0003:000021f4       ??_C@_0N@OOOD@?$DM?4?5c?5?$CDCCCBCC?$AA@ 004311f4     PanelMan.obj
 0003:00002204       ??_C@_0N@FOMN@?0?4?5c?5?$CDC4C4C4?$AA@ 00431204     PanelMan.obj
 0003:00002214       ??_C@_0N@KEAK@?$DO?4?5c?5?$CDF183F1?$AA@ 00431214     PanelMan.obj
 0003:00002224       ??_C@_0N@HGFP@?3?4?5c?5?$CDDBBCDB?$AA@ 00431224     PanelMan.obj
 0003:00002234       ??_C@_0N@FCMM@?$DL?4?5c?5?$CDD8B4D8?$AA@ 00431234     PanelMan.obj
 0003:00002244       ??_C@_0N@NHEJ@?9?4?5c?5?$CDD9A5D9?$AA@ 00431244     PanelMan.obj
 0003:00002254       ??_C@_0N@PCDM@?$DN?4?5c?5?$CDD1AAD1?$AA@ 00431254     PanelMan.obj
 0003:00002264       ??_C@_0N@HKFN@?$CK?4?5c?5?$CDD3A3D3?$AA@ 00431264     PanelMan.obj
 0003:00002274       ??_C@_0N@OBON@?$CG?4?5c?5?$CDCEA1CE?$AA@ 00431274     PanelMan.obj
 0003:00002284       ??_C@_0N@CLFL@?$CF?4?5c?5?$CDD29BD2?$AA@ 00431284     PanelMan.obj
 0003:00002294       ??_C@_0N@HHJC@$?4?5c?5?$CDCA9ACA?$AA@ 00431294     PanelMan.obj
 0003:000022a4       ??_C@_0N@HDEN@?$CD?4?5c?5?$CDCC92CC?$AA@ 004312a4     PanelMan.obj
 0003:000022b4       ??_C@_0N@PHDF@?$EA?4?5c?5?$CDC48CC4?$AA@ 004312b4     PanelMan.obj
 0003:000022c4       ??_C@_0N@MDLF@?$CL?4?5c?5?$CDC185C1?$AA@ 004312c4     PanelMan.obj
 0003:000022d4       ??_C@_0N@ONGM@O?4?5c?5?$CDBBBBBB?$AA@ 004312d4     PanelMan.obj
 0003:000022e4       ??_C@_0N@GMKN@o?4?5c?5?$CDB5B5B5?$AA@ 004312e4     PanelMan.obj
 0003:000022f4       ??_C@_0N@NILI@X?4?5c?5?$CDABABAB?$AA@ 004312f4     PanelMan.obj
 0003:00002304       ??_C@_0N@EKHL@?4?4?5c?5?$CDA9A7A9?$AA@ 00431304     PanelMan.obj
 0003:00002314       ??_C@_0N@HEOD@?5?4?5c?5?$CDA4A3A4?$AA@ 00431314     PanelMan.obj
 0003:00002324       ??_C@_0N@GDLO@?$HM?5?5c?5?$CDBF93BF?$AA@ 00431324     PanelMan.obj
 0003:00002334       ??_C@_0N@DPOF@?$HN?5?5c?5?$CDBC89BC?$AA@ 00431334     PanelMan.obj
 0003:00002344       ??_C@_0N@DFBE@?$HL?5?5c?5?$CDBC82BC?$AA@ 00431344     PanelMan.obj
 0003:00002354       ??_C@_0N@JPEL@?$FL?5?5c?5?$CDB689B6?$AA@ 00431354     PanelMan.obj
 0003:00002364       ??_C@_0N@BMHJ@?$FN?5?5c?5?$CD9D9B9D?$AA@ 00431364     PanelMan.obj
 0003:00002374       ??_C@_0M@DEA@?8?5?5c?5gray59?$AA@ 00431374     PanelMan.obj
 0003:00002380       ??_C@_0N@LAOO@?$GA?5?5c?5?$CD8A878A?$AA@ 00431380     PanelMan.obj
 0003:00002390       ??_C@_0N@EOCK@_?5?5c?5?$CDF464F4?$AA@ 00431390     PanelMan.obj
 0003:000023a0       ??_C@_0N@KHLB@?$CJ?5?5c?5?$CDED60ED?$AA@ 004313a0     PanelMan.obj
 0003:000023b0       ??_C@_0N@PPHN@?$CI?5?5c?5?$CDF15DF1?$AA@ 004313b0     PanelMan.obj
 0003:000023c0       ??_C@_0N@NDBP@?1?5?5c?5?$CDEC5BEC?$AA@ 004313c0     PanelMan.obj
 0003:000023d0       ??_C@_0N@OONG@?$FO?5?5c?5?$CDE955E9?$AA@ 004313d0     PanelMan.obj
 0003:000023e0       ??_C@_0N@KGCF@?$HO?5?5c?5?$CDE558E5?$AA@ 004313e0     PanelMan.obj
 0003:000023f0       ??_C@_0N@LOLC@?$CB?5?5c?5?$CDE454E4?$AA@ 004313f0     PanelMan.obj
 0003:00002400       ??_C@_0N@JBE@Q?5?5c?5?$CDE24EE2?$AA@ 00431400     PanelMan.obj
 0003:00002410       ??_C@_0N@EDIP@W?5?5c?5?$CDDC64DC?$AA@ 00431410     PanelMan.obj
 0003:00002420       ??_C@_0N@EFBP@E?5?5c?5?$CDD365D3?$AA@ 00431420     PanelMan.obj
 0003:00002430       ??_C@_0N@NDNI@R?5?5c?5?$CDDE51DE?$AA@ 00431430     PanelMan.obj
 0003:00002440       ??_C@_0N@OHGA@T?5?5c?5?$CDDC4CDC?$AA@ 00431440     PanelMan.obj
 0003:00002450       ??_C@_0N@LLEJ@Y?5?5c?5?$CDDA46DA?$AA@ 00431450     PanelMan.obj
 0003:00002460       ??_C@_0N@CJIH@U?5?5c?5?$CDD649D6?$AA@ 00431460     PanelMan.obj
 0003:00002470       ??_C@_0N@IFFD@I?5?5c?5?$CDD344D3?$AA@ 00431470     PanelMan.obj
 0003:00002480       ??_C@_0N@PMMO@P?5?5c?5?$CDCD40CD?$AA@ 00431480     PanelMan.obj
 0003:00002490       ??_C@_0N@KKOH@L?5?5c?5?$CDFB35FB?$AA@ 00431490     PanelMan.obj
 0003:000024a0       ??_C@_0N@OGL@K?5?5c?5?$CDFC28FC?$AA@ 004314a0     PanelMan.obj
 0003:000024b0       ??_C@_0N@IMOM@J?5?5c?5?$CDFC1CFC?$AA@ 004314b0     PanelMan.obj
 0003:000024c0       ??_C@_0N@LBCM@H?5?5c?5?$CDFC13FC?$AA@ 004314c0     PanelMan.obj
 0003:000024d0       ??_C@_0N@OJBP@G?5?5c?5?$CDF412F4?$AA@ 004314d0     PanelMan.obj
 0003:000024e0       ??_C@_0N@GLAM@F?5?5c?5?$CDFC0FFC?$AA@ 004314e0     PanelMan.obj
 0003:000024f0       ??_C@_0N@NHAA@D?5?5c?5?$CDFE01FE?$AA@ 004314f0     PanelMan.obj
 0003:00002500       ??_C@_0N@KKLH@S?5?5c?5?$CDF70AF7?$AA@ 00431500     PanelMan.obj
 0003:00002510       ??_C@_0N@GDBG@A?5?5c?5?$CDF301F3?$AA@ 00431510     PanelMan.obj
 0003:00002520       ??_C@_0N@DBEO@Z?5?5c?5?$CDEC13EC?$AA@ 00431520     PanelMan.obj
 0003:00002530       ??_C@_0N@DCEH@C?5?5c?5?$CDE711E7?$AA@ 00431530     PanelMan.obj
 0003:00002540       ??_C@_0N@CAEF@V?5?5c?5?$CDEB0CEB?$AA@ 00431540     PanelMan.obj
 0003:00002550       ??_C@_0N@KPFC@B?5?5c?5?$CDEB03EB?$AA@ 00431550     PanelMan.obj
 0003:00002560       ??_C@_0N@MAMJ@N?5?5c?5?$CDD23ED2?$AA@ 00431560     PanelMan.obj
 0003:00002570       ??_C@_0N@EIPN@M?5?5c?5?$CDCC3CCC?$AA@ 00431570     PanelMan.obj
 0003:00002580       ??_C@_0N@FBFB@m?5?5c?5?$CDCB37CB?$AA@ 00431580     PanelMan.obj
 0003:00002590       ??_C@_0N@IDFK@n?5?5c?5?$CDC43AC4?$AA@ 00431590     PanelMan.obj
 0003:000025a0       ??_C@_0N@HIOE@b?5?5c?5?$CDDA00DA?$AA@ 004315a0     PanelMan.obj
 0003:000025b0       ??_C@_0N@LCBK@v?5?5c?5?$CDCE00CE?$AA@ 004315b0     PanelMan.obj
 0003:000025c0       ??_C@_0N@OHAJ@c?5?5c?5?$CDC500C5?$AA@ 004315c0     PanelMan.obj
 0003:000025d0       ??_C@_0N@LFBA@x?5?5c?5?$CDBC7BBC?$AA@ 004315d0     PanelMan.obj
 0003:000025e0       ??_C@_0N@NLDF@z?5?5c?5?$CDB876B8?$AA@ 004315e0     PanelMan.obj
 0003:000025f0       ??_C@_0N@JNMH@l?5?5c?5?$CDB371B3?$AA@ 004315f0     PanelMan.obj
 0003:00002600       ??_C@_0N@PBIK@k?5?5c?5?$CDB26CB2?$AA@ 00431600     PanelMan.obj
 0003:00002610       ??_C@_0N@OCNG@j?5?5c?5?$CDAF68AF?$AA@ 00431610     PanelMan.obj
 0003:00002620       ??_C@_0N@PEII@h?5?5c?5?$CDAD64AD?$AA@ 00431620     PanelMan.obj
 0003:00002630       ??_C@_0N@NCJJ@g?5?5c?5?$CDB04AB0?$AA@ 00431630     PanelMan.obj
 0003:00002640       ??_C@_0N@FODL@f?5?5c?5?$CDAA5DAA?$AA@ 00431640     PanelMan.obj
 0003:00002650       ??_C@_0N@HMP@d?5?5c?5?$CDA75BA7?$AA@ 00431650     PanelMan.obj
 0003:00002660       ??_C@_0N@MNEG@s?5?5c?5?$CDA454A4?$AA@ 00431660     PanelMan.obj
 0003:00002670       ??_C@_0N@OOFE@a?5?5c?5?$CDAE4CAE?$AA@ 00431670     PanelMan.obj
 0003:00002680       ??_C@_0N@ICAJ@p?5?5c?5?$CDA14AA1?$AA@ 00431680     PanelMan.obj
 0003:00002690       ??_C@_0N@EBOA@i?5?5c?5?$CD987C98?$AA@ 00431690     PanelMan.obj
 0003:000026a0       ??_C@_0N@JNFI@u?5?5c?5?$CD8D6B8D?$AA@ 004316a0     PanelMan.obj
 0003:000026b0       ??_C@_0N@NEKM@y?5?5c?5?$CD9E4C9E?$AA@ 004316b0     PanelMan.obj
 0003:000026c0       ??_C@_0N@BDAF@t?5?5c?5?$CD9A449A?$AA@ 004316c0     PanelMan.obj
 0003:000026d0       ??_C@_0N@PJFJ@r?5?5c?5?$CD8D548D?$AA@ 004316d0     PanelMan.obj
 0003:000026e0       ??_C@_0N@PFHJ@e?5?5c?5?$CD884888?$AA@ 004316e0     PanelMan.obj
 0003:000026f0       ??_C@_0N@CDCC@w?5?5c?5?$CDBE3CBE?$AA@ 004316f0     PanelMan.obj
 0003:00002700       ??_C@_0N@JMFH@q?5?5c?5?$CDBB33BB?$AA@ 00431700     PanelMan.obj
 0003:00002710       ??_C@_0N@FDOG@0?5?5c?5?$CDB92CB9?$AA@ 00431710     PanelMan.obj
 0003:00002720       ??_C@_0N@HGKH@9?5?5c?5?$CDB42BB4?$AA@ 00431720     PanelMan.obj
 0003:00002730       ??_C@_0N@HLKK@8?5?5c?5?$CDAD23AD?$AA@ 00431730     PanelMan.obj
 0003:00002740       ??_C@_0N@MJA@7?5?5c?5?$CDBA00BA?$AA@ 00431740     PanelMan.obj
 0003:00002750       ??_C@_0N@GPHI@6?5?5c?5?$CDAA1DAA?$AA@ 00431750     PanelMan.obj
 0003:00002760       ??_C@_0N@EELA@5?5?5c?5?$CDA41BA4?$AA@ 00431760     PanelMan.obj
 0003:00002770       ??_C@_0N@LCAK@4?5?5c?5?$CDA316A3?$AA@ 00431770     PanelMan.obj
 0003:00002780       ??_C@_0N@BGKP@3?5?5c?5?$CD983998?$AA@ 00431780     PanelMan.obj
 0003:00002790       ??_C@_0N@IODH@2?5?5c?5?$CD953B95?$AA@ 00431790     PanelMan.obj
 0003:000027a0       ??_C@_0N@HHF@1?5?5c?5?$CD923492?$AA@ 004317a0     PanelMan.obj
 0003:000027b0       ??_C@_0N@NAJB@?$DM?5?5c?5?$CD912C91?$AA@ 004317b0     PanelMan.obj
 0003:000027c0       ??_C@_0N@HIIG@?0?5?5c?5?$CD8F328F?$AA@ 004317c0     PanelMan.obj
 0003:000027d0       ??_C@_0N@JEHF@?$DO?5?5c?5?$CD8B2B8B?$AA@ 004317d0     PanelMan.obj
 0003:000027e0       ??_C@_0N@IIAK@?3?5?5c?5?$CD8A238A?$AA@ 004317e0     PanelMan.obj
 0003:000027f0       ??_C@_0N@NJKA@?$DL?5?5c?5?$CD872287?$AA@ 004317f0     PanelMan.obj
 0003:00002800       ??_C@_0N@PMLJ@?9?5?5c?5?$CD9C129C?$AA@ 00431800     PanelMan.obj
 0003:00002810       ??_C@_0N@BIEF@?$DN?5?5c?5?$CD9A0D9A?$AA@ 00431810     PanelMan.obj
 0003:00002820       ??_C@_0N@FKIP@?$CK?5?5c?5?$CD940B94?$AA@ 00431820     PanelMan.obj
 0003:00002830       ??_C@_0N@LHLO@?$CG?5?5c?5?$CD920492?$AA@ 00431830     PanelMan.obj
 0003:00002840       ??_C@_0N@FNPH@?$CF?5?5c?5?$CD8A1E8A?$AA@ 00431840     PanelMan.obj
 0003:00002850       ??_C@_0N@KNOK@$?5?5c?5?$CD841C84?$AA@ 00431850     PanelMan.obj
 0003:00002860       ??_C@_0N@HPHF@?$CD?5?5c?5?$CD831383?$AA@ 00431860     PanelMan.obj
 0003:00002870       ??_C@_0N@NEIO@?$EA?5?5c?5?$CD8B018B?$AA@ 00431870     PanelMan.obj
 0003:00002880       ??_C@_0N@HIGD@?$CL?5?5c?5?$CD810D81?$AA@ 00431880     PanelMan.obj
 0003:00002890       ??_C@_0N@LDBA@O?5?5c?5?$CD830083?$AA@ 00431890     PanelMan.obj
 0003:000028a0       ??_C@_0N@JJOF@o?5?5c?5?$CD7F117F?$AA@ 004318a0     PanelMan.obj
 0003:000028b0       ??_C@_0N@CHBI@X?5?5c?5?$CD7E0A7E?$AA@ 004318b0     PanelMan.obj
 0003:000028c0       ??_C@_0N@IBDH@?4?5?5c?5?$CD7B017B?$AA@ 004318c0     PanelMan.obj
 0003:000028d0       ??_C@_0N@FJLC@?5?5?5c?5?$CD6C006C?$AA@ 004318d0     PanelMan.obj
 0003:000028e0       ??_C@_0N@IFGC@32?532?5128?52?5?$AA@ 004318e0     PanelMan.obj
 0003:000028f0       ??_C@_0BI@LODM@PM?3?5PanelMan?5Started?5OK?$AA@ 004318f0     PanelMan.obj
 0003:00002908       ??_C@_0CH@GCIM@PM?3?5Failed?5to?5load?5a?5pm?5bncs_ui?5@ 00431908     PanelMan.obj
 0003:00002930       ??_C@_0CF@MIHA@PM?3?5CPanelMan?5calling?5pba?9?$DOsetUs@ 00431930     PanelMan.obj
 0003:00002958       ??_C@_06KFIG@pm_app?$AA@   00431958     PanelMan.obj
 0003:00002960       ??_C@_09BDNA@pm_status?$AA@ 00431960     PanelMan.obj
 0003:0000296c       ??_C@_08NLNA@pm_title?$AA@ 0043196c     PanelMan.obj
 0003:00002978       ??_C@_0BP@JPGF@PM?3?5PanelMan?5setting?5style?5to?5?$AA@ 00431978     PanelMan.obj
 0003:00002998       ??_C@_0O@PPKI@PM?3?5size?5?$DN?5?$CF1?$AA@ 00431998     PanelMan.obj
 0003:000029a8       ??_C@_0BG@HEJJ@PM?3?5PanelMan?5Starting?$AA@ 004319a8     PanelMan.obj
 0003:000029c0       ??_C@_0BG@BLDE@PM?3?5?1?1?1?1?1?1?1?1?1?1?1?1?1?1?1?1?1?$AA@ 004319c0     PanelMan.obj
 0003:000029d8       ??_C@_0BK@JMHH@PM?3?5Deleting?5Client?5Class?$AA@ 004319d8     PanelMan.obj
 0003:000029f4       ??_C@_0BK@FMBH@PM?3?5CPanelMan?3?3?$HOCPanelMan?$AA@ 004319f4     PanelMan.obj
 0003:00002a10       ??_C@_08HILK@05c85bca?$AA@ 00431a10     PanelMan.obj
 0003:00002a1c       ??_C@_03KDJB@PIN?$AA@      00431a1c     PanelMan.obj
 0003:00002a20       ??_C@_0M@LLH@Engineering?$AA@ 00431a20     PanelMan.obj
 0003:00002a2c       ??_C@_09FGPH@WSTracker?$AA@ 00431a2c     PanelMan.obj
 0003:00002a38       ??_C@_0M@OJKL@WS_Man_Text?$AA@ 00431a38     PanelMan.obj
 0003:00002a44       ??_C@_0BA@MPAI@?2config?2system?2?$AA@ 00431a44     PanelMan.obj
 0003:00002a54       ??_C@_0N@JIDG@dev_?$CF03d?4ini?$AA@ 00431a54     PanelMan.obj
 0003:00002a64       ??_C@_0BE@BEFF@workstation_tracker?$AA@ 00431a64     PanelMan.obj
 0003:00002a78       ??_C@_04IFBK@BNCS?$AA@     00431a78     PanelMan.obj
 0003:00002a80       ??_C@_05LDDM@Title?$AA@    00431a80     PanelMan.obj
 0003:00002a88       ??_C@_0N@HADP@DefaultTitle?$AA@ 00431a88     PanelMan.obj
 0003:00002a98       ??_C@_07KELH@NUFFINK?$AA@  00431a98     PanelMan.obj
 0003:00002aa0       ??_C@_0M@HCKE@bncs_style3?$AA@ 00431aa0     PanelMan.obj
 0003:00002aac       ??_C@_06CKHP@Styles?$AA@   00431aac     PanelMan.obj
 0003:00002ab4       ??_C@_05JGJE@Style?$AA@    00431ab4     PanelMan.obj
 0003:00002abc       ??_C@_04OPJK@name?$AA@     00431abc     PanelMan.obj
 0003:00002ac4       ??_C@_0BB@BJLF@PM?3?5CC_SYSTEM?$DN?$CF1?$AA@ 00431ac4     PanelMan.obj
 0003:00002ad8       ??_C@_0N@GCNA@CC_DEVELOPER?$AA@ 00431ad8     PanelMan.obj
 0003:00002ae8       ??_C@_04KGPJ@?4xml?$AA@    00431ae8     PanelMan.obj
 0003:00002af0       ??_C@_08HBIG@?2config?2?$AA@ 00431af0     PanelMan.obj
 0003:00002afc       ??_C@_0BK@FIOK@PM?3?5closing?5Panel?5Manager?$AA@ 00431afc     PanelMan.obj
 0003:00002b18       ??_C@_0BC@CHDI@SystemExclamation?$AA@ 00431b18     SimpleBar.obj
 0003:00002b2c       ??_C@_0BF@EJKN@pm?3?5init?5?$CF1?5using?5?$CF2?$AA@ 00431b2c     SimpleBar.obj
 0003:00002b44       ??_C@_0BH@CFBJ@PM?3?5eventSimpleBar?5id?$DN?$AA@ 00431b44     SimpleBar.obj
 0003:00002b5c       ??_C@_01KPOD@?$DN?$AA@     00431b5c     SimpleBar.obj
 0003:00002b60       ??_C@_09KKNC@NOT_FOUND?$AA@ 00431b60     SimpleBar.obj
 0003:00002b6c       ??_C@_07BIMF@return?$DN?$AA@ 00431b6c     SimpleBar.obj
 0003:00002b74       ??_C@_0CG@IBJJ@PM?3?5CStartPop?3?3notify?$CI?$CJ?5?9?5switch@ 00431b74     StartPop.obj
 0003:00002b9c       ??_C@_0O@NAJA@start_engmenu?$AA@ 00431b9c     StartPop.obj
 0003:00002bac       ??_C@_0BF@HLGO@strPINBufferMD5?5?$DN?5?$CFs?$AA@ 00431bac     StartPop.obj
 0003:00002bc4       ??_C@_0CG@GLEN@PM?3?5CStartPop?3?3?5widPINDisplay?5no@ 00431bc4     StartPop.obj
 0003:00002bec       ??_C@_01NON@_?$AA@         00431bec     StartPop.obj
 0003:00002bf0       ??_C@_01FDHG@?$CK?$AA@     00431bf0     StartPop.obj
 0003:00002bf4       ??_C@_0BP@MPMN@PM?3?5CStartPop?3?3?5pin?5entry?5?8?$CF1?8?$AA@ 00431bf4     StartPop.obj
 0003:00002c14       ??_C@_04BOIL@pin_?$AA@     00431c14     StartPop.obj
 0003:00002c1c       ??_C@_0P@KNEL@cancel_eng_pin?$AA@ 00431c1c     StartPop.obj
 0003:00002c2c       ??_C@_0BA@MEFP@start_calibrate?$AA@ 00431c2c     StartPop.obj
 0003:00002c3c       ??_C@_0BD@DINI@start_clean_screen?$AA@ 00431c3c     StartPop.obj
 0003:00002c50       ??_C@_0O@FMHK@start_restart?$AA@ 00431c50     StartPop.obj
 0003:00002c60       ??_C@_0L@PHFH@start_quit?$AA@ 00431c60     StartPop.obj
 0003:00002c6c       ??_C@_0CH@NIAH@PM?3?5CStartPop?3?3notify?$DN?8?$CF1?8?5sende@ 00431c6c     StartPop.obj
 0003:00002c94       ??_C@_0BO@ILLE@Colledia?5Control?5?9?5Registered?$AA@ 00431c94     StartPop.obj
 0003:00002cb4       ??_C@_0BI@LOGN@text?$DNSwitch?5to?5Eng?5Menu?$AA@ 00431cb4     StartPop.obj
 0003:00002ccc       ??_C@_0BJ@EOHA@text?$DNReturn?5to?5Main?5Menu?$AA@ 00431ccc     StartPop.obj
 0003:00002ce8       ??_C@_0O@OFGI@start_address?$AA@ 00431ce8     StartPop.obj
 0003:00002cf8       ??_C@_0O@LFOM@text?$DNClear?5?5?5?$AA@ 00431cf8     StartPop.obj
 0003:00002d08       ??_C@_0M@OPIK@ws_man_text?$AA@ 00431d08     StartPop.obj
 0003:00002d14       ??_C@_09OFPL@text?$DN?5v?$CF1?$AA@ 00431d14     StartPop.obj
 0003:00002d20       ??_C@_0O@BHBJ@start_version?$AA@ 00431d20     StartPop.obj
 0003:00002d30       ??_C@_0M@BCFM@start_wsnum?$AA@ 00431d30     StartPop.obj
 0003:00002d3c       ??_C@_0N@JAMJ@start_wsname?$AA@ 00431d3c     StartPop.obj
 0003:00002d4c       ??_C@_0L@JOOE@start_user?$AA@ 00431d4c     StartPop.obj
 0003:00002d58       ??_C@_0BK@EDEG@colour?4background?$DN?$CD000000?$AA@ 00431d58     StartPop.obj
 0003:00002d74       ??_C@_0BE@BDHC@colour?4text?$DN?$CDffffff?$AA@ 00431d74     StartPop.obj
 0003:00002d88       ??_C@_0P@LJJH@start_panelset?$AA@ 00431d88     StartPop.obj
 0003:00002d98       ??_C@_0N@OKIN@pm_start?4png?$AA@ 00431d98     StartPop.obj
 0003:00002da8       ??_C@_0BK@CCIL@panelman?1pm_start?4bncs_ui?$AA@ 00431da8     StartPop.obj
 0003:00002dc4       ??_C@_0BL@LEMO@PM?3?5CStartPop?3?3showStart?$CI?$CJ?$AA@ 00431dc4     StartPop.obj
 0003:00002de0       ??_C@_03BBGG@?5?1?5?$AA@   00431de0     StartPop.obj
 0003:00002de4       ??_C@_0BN@PNPM@PM?3?5Failed?5to?5load?5popup?5pin?$AA@ 00431de4     StartPop.obj
 0003:00002e04       ??_C@_0M@HNKE@display_pin?$AA@ 00431e04     StartPop.obj
 0003:00002e10       ??_C@_0BG@HIOO@PM?3?5Initialising?5?8?$CF1?8?$AA@ 00431e10     StartPop.obj
 0003:00002e28       ??_C@_0BO@ODBH@panelman?1pm_popup_pin?4bncs_ui?$AA@ 00431e28     StartPop.obj
 0003:00002e48       ??_C@_0BN@FONF@?$DMcenter?$DO?$DMh1?$DO?$CF1?$DM?1h1?$DO?$DM?1center?$DO?$AA@ 00431e48     StartPop.obj
 0003:00002e68       ??_C@_0L@HHKD@2timeout?$CI?$CJ?$AA@ 00431e68     StartPop.obj
 0003:00002e74       ??_C@_0BC@CIBH@1slotCleanCount?$CI?$CJ?$AA@ 00431e74     StartPop.obj
 0003:00002e88       ??_C@_0BO@JJKG@panelman?1clean_background?4png?$AA@ 00431e88     StartPop.obj
 0003:00002ea8       ??_C@_0BP@JJGI@PM?3?5CStartPop?3?3?5slotCleanCount?$AA@ 00431ea8     StartPop.obj
 0003:00002ec8       ??_C@_0EG@EINN@PM?3?5Cannot?5start?5rundll32?4exe?5sh@ 00431ec8     StartPop.obj
 0003:00002f10       ??_C@_0DF@GIDK@rundll32?4exe?5shell32?4dll?0Control@ 00431f10     StartPop.obj
 0003:00002f48       ??_C@_0EG@FKCC@PM?3?5Cannot?5start?5rundll32?4exe?5sh@ 00431f48     StartPop.obj
 0003:00002f90       ??_C@_0DF@BGMG@rundll32?4exe?5shell32?4dll?0Control@ 00431f90     StartPop.obj
 0003:00002fc8       ??_C@_0CM@COJJ@PM?3?5Cannot?5start?5touch?5screen?5so@ 00431fc8     StartPop.obj
 0003:00002ff4       ??_C@_0BF@DMFC@touchscreen_work_dir?$AA@ 00431ff4     StartPop.obj
 0003:0000300c       ??_C@_05KFME@value?$AA@    0043200c     StartPop.obj
 0003:00003014       ??_C@_0M@EOMO@touchscreen?$AA@ 00432014     StartPop.obj
 0003:00003020       ??_C@_0BI@OAMO@workstation_settings?4?$CF1?$AA@ 00432020     StartPop.obj
 0003:00003038       ??_C@_0BH@EJGI@PM?3?5eventStatusBar?5id?$DN?$AA@ 00432038     StatusBar.obj
 0003:00003050       ??_C@_0P@OMOP@1updateClock?$CI?$CJ?$AA@ 00432050     TitleBar.obj
 0003:00003060       ??_C@_0BB@OIIF@title_date_local?$AA@ 00432060     TitleBar.obj
 0003:00003074       ??_C@_0P@CHIC@title_date_utc?$AA@ 00432074     TitleBar.obj
 0003:00003084       ??_C@_0BB@INFD@title_time_local?$AA@ 00432084     TitleBar.obj
 0003:00003098       ??_C@_0P@LDGF@title_time_utc?$AA@ 00432098     TitleBar.obj
 0003:000030a8       ??_C@_0CD@FNIA@PM?3?5sender?$CI?$CJ?9?$DOname?$CI?$CJ?$DN?$CF1?5message?$DN@ 004320a8     TitleBar.obj
 0003:000030cc       ??_C@_0O@PHHE@title_caption?$AA@ 004320cc     TitleBar.obj
 0003:000030dc       ??_C@_0BJ@BEFF@panelman?1pm_wait?4bncs_ui?$AA@ 004320dc     waitimpl.obj
 0003:000030f8       ??_C@_0O@OHMD@slotPressed?$CI?$CJ?$AA@ 004320f8     moc_AppBar.obj
 0003:00003108       ??_C@_0BB@NLKJ@popupDestroyed?$CI?$CJ?$AA@ 00432108     moc_AppBar.obj
 0003:0000311c       ??_C@_0BB@KFHP@notify?$CIQString?$CG?$CJ?$AA@ 0043211c     moc_AppBar.obj
 0003:00003130       ??_C@_07CIPD@dummy?$CI?$CJ?$AA@ 00432130     moc_AppBar.obj
 0003:00003138       ??_C@_0BB@NHPC@getCurrentMenu?$CI?$CJ?$AA@ 00432138     moc_AppBar.obj
 0003:0000314c       ??_C@_0M@HALB@slotPressed?$AA@ 0043214c     moc_AppBar.obj
 0003:00003158       ??_C@_06PDOH@notify?$AA@   00432158     moc_AppBar.obj
 0003:00003170       ??_C@_07NPGL@message?$AA@  00432170     moc_AppBar.obj
 0003:00003178       ??_C@_05PNMN@dummy?$AA@    00432178     moc_AppBar.obj
 0003:00003180       ??_C@_0P@JMLA@getCurrentMenu?$AA@ 00432180     moc_AppBar.obj
 0003:00003190       ??_C@_07MMJG@CAppBar?$AA@  00432190     moc_AppBar.obj
 0003:00003198       ??_C@_0BA@GBIM@appExitNotify?$CI?$CJ?$AA@ 00432198     moc_AppSwitch.obj
 0003:000031a8       ??_C@_0O@KNIO@appExitNotify?$AA@ 004321a8     moc_AppSwitch.obj
 0003:000031b8       ??_C@_0L@HJOP@CAppSwitch?$AA@ 004321b8     moc_AppSwitch.obj
 0003:000031c4       ??_C@_0M@FAAP@rxdata?$CIint?$CJ?$AA@ 004321c4     moc_bncs_multicast.obj
 0003:000031d0       ??_C@_06EPGL@rxdata?$AA@   004321d0     moc_bncs_multicast.obj
 0003:000031e8       ??_C@_01JAP@i?$AA@         004321e8     moc_bncs_multicast.obj
 0003:000031ec       ??_C@_0P@HAND@bncs_multicast?$AA@ 004321ec     moc_bncs_multicast.obj
 0003:000031fc       ??_C@_0BC@PIEC@confirm?$CIQString?$CG?$CJ?$AA@ 004321fc     moc_Confirm_Exit.obj
 0003:00003210       ??_C@_0BB@KHJJ@cancel?$CIQString?$CG?$CJ?$AA@ 00432210     moc_Confirm_Exit.obj
 0003:00003224       ??_C@_07OOKK@confirm?$AA@  00432224     moc_Confirm_Exit.obj
 0003:0000322c       ??_C@_06MPPK@cancel?$AA@   0043222c     moc_Confirm_Exit.obj
 0003:00003234       ??_C@_0O@PBDE@CConfirm_Exit?$AA@ 00432234     moc_Confirm_Exit.obj
 0003:00003244       ??_C@_08BP@pmQuit?$CI?$CJ?$AA@ 00432244     moc_PanelMan.obj
 0003:00003250       ??_C@_06FKMB@pmQuit?$AA@   00432250     moc_PanelMan.obj
 0003:00003258       ??_C@_09FOKP@CPanelMan?$AA@ 00432258     moc_PanelMan.obj
 0003:00003278       ??_C@_0L@HCN@CSimpleBar?$AA@ 00432278     moc_SimpleBar.obj
 0003:00003284       ??_C@_0BB@BKBC@slotCleanCount?$CI?$CJ?$AA@ 00432284     moc_StartPop.obj
 0003:00003298       ??_C@_0P@PLHC@slotCleanCount?$AA@ 00432298     moc_StartPop.obj
 0003:000032b8       ??_C@_09MILI@CStartPop?$AA@ 004322b8     moc_StartPop.obj
 0003:000032d8       ??_C@_0L@BNMI@CStatusBar?$AA@ 004322d8     moc_StatusBar.obj
 0003:000032e4       ??_C@_0O@EDIF@updateClock?$CI?$CJ?$AA@ 004322e4     moc_TitleBar.obj
 0003:000032f4       ??_C@_0M@BIJH@updateClock?$AA@ 004322f4     moc_TitleBar.obj
 0003:00003310       ??_C@_09BHG@CTitleBar?$AA@ 00432310     moc_TitleBar.obj
 0003:0000331c       ??_C@_04OMDE@wait?$AA@     0043231c     moc_waitimpl.obj
 0003:00003324       ?qwf_execute_code@@3_NA    00432324     qui:qwidgetfactory.obj
 0003:00003328       ??_C@_09MKDN@?1designer?$AA@ 00432328     qui:qwidgetfactory.obj
 0003:00003334       ??_C@_06KNLE@QLabel?$AA@   00432334     qui:qwidgetfactory.obj
 0003:0000333c       ??_C@_0L@GHMK@QDataTable?$AA@ 0043233c     qui:qwidgetfactory.obj
 0003:00003348       ??_C@_0BD@PMKE@QDesignerDataView2?$AA@ 00432348     qui:qwidgetfactory.obj
 0003:0000335c       ??_C@_0BG@FOMG@QDesignerDataBrowser2?$AA@ 0043235c     qui:qwidgetfactory.obj
 0003:00003374       ??_C@_06PDBK@QTable?$AA@   00432374     qui:qwidgetfactory.obj
 0003:0000337c       ??_C@_09GHEJ@QListView?$AA@ 0043237c     qui:qwidgetfactory.obj
 0003:00003388       ??_C@_09MEON@QIconView?$AA@ 00432388     qui:qwidgetfactory.obj
 0003:00003394       ??_C@_08BPKO@QListBox?$AA@ 00432394     qui:qwidgetfactory.obj
 0003:000033a0       ??_C@_09DMGG@QComboBox?$AA@ 004323a0     qui:qwidgetfactory.obj
 0003:000033ac       ??_C@_0N@OBMJ@QWidgetStack?$AA@ 004323ac     qui:qwidgetfactory.obj
 0003:000033bc       ??_C@_07CPPB@QWizard?$AA@  004323bc     qui:qwidgetfactory.obj
 0003:000033c4       ??_C@_0L@PDID@QTabWidget?$AA@ 004323c4     qui:qwidgetfactory.obj
 0003:000033d0       ??_C@_0M@HHOI@QMainWindow?$AA@ 004323d0     qui:qwidgetfactory.obj
 0003:000033dc       ??_C@_09JIBF@QDataView?$AA@ 004323dc     qui:qwidgetfactory.obj
 0003:000033e8       ??_C@_0N@LHBP@QDataBrowser?$AA@ 004323e8     qui:qwidgetfactory.obj
 0003:000033f8       ??_C@_0BC@OAFG@qt_central_widget?$AA@ 004323f8     qui:qwidgetfactory.obj
 0003:0000340c       ??_C@_05MGFC@QGrid?$AA@    0043240c     qui:qwidgetfactory.obj
 0003:00003414       ??_C@_05FFKI@QHBox?$AA@    00432414     qui:qwidgetfactory.obj
 0003:0000341c       ??_C@_05PFPF@QVBox?$AA@    0043241c     qui:qwidgetfactory.obj
 0003:00003424       ??_C@_08DMC@QToolBox?$AA@  00432424     qui:qwidgetfactory.obj
 0003:00003430       ??_C@_0L@KGMO@QPopupMenu?$AA@ 00432430     qui:qwidgetfactory.obj
 0003:0000343c       ??_C@_0L@HBBK@QScrollBar?$AA@ 0043243c     qui:qwidgetfactory.obj
 0003:00003448       ??_C@_0O@EKBI@QDateTimeEdit?$AA@ 00432448     qui:qwidgetfactory.obj
 0003:00003458       ??_C@_09CMAO@QTimeEdit?$AA@ 00432458     qui:qwidgetfactory.obj
 0003:00003464       ??_C@_09LIOJ@QDateEdit?$AA@ 00432464     qui:qwidgetfactory.obj
 0003:00003470       ??_C@_09NJKH@QTextEdit?$AA@ 00432470     qui:qwidgetfactory.obj
 0003:0000347c       ??_C@_04KEDG@Line?$AA@     0043247c     qui:qwidgetfactory.obj
 0003:00003484       ??_C@_09JIGN@QSplitter?$AA@ 00432484     qui:qwidgetfactory.obj
 0003:00003490       ??_C@_06GLED@QFrame?$AA@   00432490     qui:qwidgetfactory.obj
 0003:00003498       ??_C@_07CEKE@QSlider?$AA@  00432498     qui:qwidgetfactory.obj
 0003:000034a0       ??_C@_05PKM@QDial?$AA@     004324a0     qui:qwidgetfactory.obj
 0003:000034a8       ??_C@_0N@NBPG@QTextBrowser?$AA@ 004324a8     qui:qwidgetfactory.obj
 0003:000034b8       ??_C@_09HJMO@QTextView?$AA@ 004324b8     qui:qwidgetfactory.obj
 0003:000034c4       ??_C@_0N@ONGP@QProgressBar?$AA@ 004324c4     qui:qwidgetfactory.obj
 0003:000034d4       ??_C@_0L@GOLD@QLCDNumber?$AA@ 004324d4     qui:qwidgetfactory.obj
 0003:000034e0       ??_C@_07DNOJ@QDialog?$AA@  004324e0     qui:qwidgetfactory.obj
 0003:000034e8       ??_C@_0O@EGKB@QLayoutWidget?$AA@ 004324e8     qui:qwidgetfactory.obj
 0003:000034f8       ??_C@_0M@ONAE@PixmapLabel?$AA@ 004324f8     qui:qwidgetfactory.obj
 0003:00003504       ??_C@_09OJPB@TextLabel?$AA@ 00432504     qui:qwidgetfactory.obj
 0003:00003510       ??_C@_0P@FPMD@QMultiLineEdit?$AA@ 00432510     qui:qwidgetfactory.obj
 0003:00003520       ??_C@_08FPDC@QSpinBox?$AA@ 00432520     qui:qwidgetfactory.obj
 0003:0000352c       ??_C@_09FBHD@QLineEdit?$AA@ 0043252c     qui:qwidgetfactory.obj
 0003:00003538       ??_C@_0N@BKO@QButtonGroup?$AA@ 00432538     qui:qwidgetfactory.obj
 0003:00003548       ??_C@_09NJAI@QGroupBox?$AA@ 00432548     qui:qwidgetfactory.obj
 0003:00003554       ??_C@_0N@IENO@QRadioButton?$AA@ 00432554     qui:qwidgetfactory.obj
 0003:00003564       ??_C@_09GNOC@QCheckBox?$AA@ 00432564     qui:qwidgetfactory.obj
 0003:00003570       ??_C@_0M@FBMJ@QToolButton?$AA@ 00432570     qui:qwidgetfactory.obj
 0003:0000357c       ??_C@_0M@IFOC@QPushButton?$AA@ 0043257c     qui:qwidgetfactory.obj
 0003:00003588       ??_C@_0BB@FLKJ@DatabaseSupport2?$AA@ 00432588     qui:moc_database2.obj
 0003:0000359c       ??_C@_01BJG@?6?$AA@        0043259c     bncs_disklog:bncs_disklog.obj
 0003:000035a0       ??_C@_0CE@MPPH@bncs_disklog?3?5Can?8t?5open?5log?5fil@ 004325a0     bncs_disklog:bncs_disklog.obj
 0003:000035c4       ??_C@_0N@MKOM@?$CFs?2?$CFs?2?$CFs?4log?$AA@ 004325c4     bncs_disklog:bncs_disklog.obj
 0003:000035d4       ??_C@_0BH@JOFC@?$CFs?2?$CFs?2?$CF04d?$CF02d?$CF02d?4log?$AA@ 004325d4     bncs_disklog:bncs_disklog.obj
 0003:000035ec       ??_C@_0BM@GACA@?$CFs?2?$CFs?2?$CF04d?$CF02d?$CF02d?9?$CF02d?4log?$AA@ 004325ec     bncs_disklog:bncs_disklog.obj
 0003:00003608       ??_C@_0BG@KLKP@localtime?5has?5failed?6?$AA@ 00432608     bncs_disklog:bncs_disklog.obj
 0003:00003620       ??_C@_0M@OFHL@c?3?2bncslogs?$AA@ 00432620     bncs_disklog:bncs_disklog.obj
 0003:0000362c       ??_C@_0L@PKIN@?$CFs?2?$CFs?2logs?$AA@ 0043262c     bncs_disklog:bncs_disklog.obj
 0003:00003638       ??_C@_02PIMC@?$AN?6?$AA@   00432638     bncs_disklog:bncs_disklog.obj
 0003:0000363c       ??_C@_02GIEM@?0?5?$AA@     0043263c     bncs_disklog:bncs_disklog.obj
 0003:00003640       ??_C@_0BP@LJGD@?$CF02d?1?$CF02d?1?$CF04d?5?$CF02d?3?$CF02d?3?$CF02d?5?$AA@ 00432640     bncs_disklog:bncs_disklog.obj
 0003:00003660       ??_C@_0CA@NIKF@?2StringFileInfo?2?$CFs?2SpecialBuild?$AA@ 00432660     bncsversioninfo:cBncsVersion.obj
 0003:00003680       ??_C@_0CE@CKA@?2StringFileInfo?2?$CFs?2OriginalFileN@ 00432680     bncsversioninfo:cBncsVersion.obj
 0003:000036a4       ??_C@_0CA@BBDI@?2StringFileInfo?2?$CFs?2PrivateBuild?$AA@ 004326a4     bncsversioninfo:cBncsVersion.obj
 0003:000036c4       ??_C@_0CD@GCNL@?2StringFileInfo?2?$CFs?2LegalTradeMar@ 004326c4     bncsversioninfo:cBncsVersion.obj
 0003:000036e8       ??_C@_0CC@KILK@?2StringFileInfo?2?$CFs?2ProductVersio@ 004326e8     bncsversioninfo:cBncsVersion.obj
 0003:0000370c       ??_C@_0CC@OKGI@?2StringFileInfo?2?$CFs?2LegalCopyrigh@ 0043270c     bncsversioninfo:cBncsVersion.obj
 0003:00003730       ??_C@_0BP@HFNO@?2StringFileInfo?2?$CFs?2CompanyName?$AA@ 00432730     bncsversioninfo:cBncsVersion.obj
 0003:00003750       ??_C@_0BP@OKDL@?2StringFileInfo?2?$CFs?2ProductName?$AA@ 00432750     bncsversioninfo:cBncsVersion.obj
 0003:00003770       ??_C@_0CA@FECA@?2StringFileInfo?2?$CFs?2InternalName?$AA@ 00432770     bncsversioninfo:cBncsVersion.obj
 0003:00003790       ??_C@_0BM@IIGK@?2StringFileInfo?2?$CFs?2Comments?$AA@ 00432790     bncsversioninfo:cBncsVersion.obj
 0003:000037ac       ??_C@_0CD@LFKN@?2StringFileInfo?2?$CFs?2FileDescripti@ 004327ac     bncsversioninfo:cBncsVersion.obj
 0003:000037d0       ??_C@_0BP@EOHM@?2StringFileInfo?2?$CFs?2FileVersion?$AA@ 004327d0     bncsversioninfo:cBncsVersion.obj
 0003:000037f0       ??_C@_08CALL@?$CF04X?$CF04X?$AA@ 004327f0     bncsversioninfo:cBncsVersion.obj
 0003:000037fc       ??_C@_0BJ@KCFH@?2VarFileInfo?2Translation?$AA@ 004327fc     bncsversioninfo:cBncsVersion.obj
 0003:00003818       ??_C@_0BD@JMLG@buttonClicked?$CIint?$CJ?$AA@ 00432818     cfg_widgets001:moc_config_mb4impl.obj
 0003:0000382c       ??_C@_0O@FGII@buttonClicked?$AA@ 0043282c     cfg_widgets001:moc_config_mb4impl.obj
 0003:00003850       ??_C@_0L@GHKF@config_mb4?$AA@ 00432850     cfg_widgets001:moc_config_mb4impl.obj
 0003:00003860       ??_R0?AVtype_info@@@8      00432860     MSVCRT:ti_inst.obj
 0003:00003878       ___defaultmatherr          00432878     MSVCRT:merr.obj
 0003:00003880       ??_C@_00A@?$AA@            00432880     AdjustMon.obj
 0003:0000388c       ?strLastPanel@@3VQString@@A 0043288c     main.obj
 0003:00003894       ?m_defaultTitle@CPanelMan@@0VQString@@A 00432894     PanelMan.obj
 0003:000038a0       ?metaObj@CAppBar@@0PAVQMetaObject@@A 004328a0     moc_AppBar.obj
 0003:000038bc       ?metaObj@CAppSwitch@@0PAVQMetaObject@@A 004328bc     moc_AppSwitch.obj
 0003:000038c8       ?metaObj@bncs_multicast@@0PAVQMetaObject@@A 004328c8     moc_bncs_multicast.obj
 0003:000038d8       ?metaObj@CConfirm_Exit@@0PAVQMetaObject@@A 004328d8     moc_Confirm_Exit.obj
 0003:00003904       ?metaObj@CPanelMan@@0PAVQMetaObject@@A 00432904     moc_PanelMan.obj
 0003:00003910       ?metaObj@CSimpleBar@@0PAVQMetaObject@@A 00432910     moc_SimpleBar.obj
 0003:0000391c       ?metaObj@CStartPop@@0PAVQMetaObject@@A 0043291c     moc_StartPop.obj
 0003:00003928       ?metaObj@CStatusBar@@0PAVQMetaObject@@A 00432928     moc_StatusBar.obj
 0003:00003934       ?metaObj@CTitleBar@@0PAVQMetaObject@@A 00432934     moc_TitleBar.obj
 0003:0000393c       ?metaObj@wait@@0PAVQMetaObject@@A 0043293c     moc_waitimpl.obj
 0003:00003940       ?qwf_currFileName@@3VQString@@A 00432940     qui:qwidgetfactory.obj
 0003:00003978       ?qwf_forms@@3PAV?$QMap@PAVQWidget@@VQString@@@@A 00432978     qui:qwidgetfactory.obj
 0003:0000397c       ?qwf_language@@3PAVQString@@A 0043297c     qui:qwidgetfactory.obj
 0003:00003980       ?qwf_stays_on_top@@3_NA    00432980     qui:qwidgetfactory.obj
 0003:00003984       ?qwf_form_object@@3PAVQObject@@A 00432984     qui:qwidgetfactory.obj
 0003:00003988       ?qwf_plugin_dir@@3PAVQString@@A 00432988     qui:qwidgetfactory.obj
 0003:00003994       ?metaObj@QDesignerDataBrowser2@@0PAVQMetaObject@@A 00432994     qui:moc_database2.obj
 0003:00003998       ?metaObj@QDesignerDataView2@@0PAVQMetaObject@@A 00432998     qui:moc_database2.obj
 0003:000039a4       ?metaObj@config_mb4@@0PAVQMetaObject@@A 004329a4     cfg_widgets001:moc_config_mb4impl.obj
 0003:000039a8       __dowildcard               004329a8     MSVCRT:wildcard.obj
 0003:000039ac       __newmode                  004329ac     MSVCRT:_newmode.obj
 0003:000039b0       __commode                  004329b0     MSVCRT:xncommod.obj
 0003:000039b4       __fmode                    004329b4     MSVCRT:xtxtmode.obj
 0003:000039b8       __adjust_fdiv              004329b8     <common>
 0003:000039bc       ___onexitend               004329bc     <common>
 0003:000039c0       ___onexitbegin             004329c0     <common>
 0004:00000000       __IMPORT_DESCRIPTOR_bncs_cachedData 00433000     bncs_cachedData:bncs_cachedData.dll
 0004:00000014       __IMPORT_DESCRIPTOR_USER32 00433014     user32:USER32.dll
 0004:00000028       __IMPORT_DESCRIPTOR_WSOCK32 00433028     wsock32:WSOCK32.dll
 0004:0000003c       __IMPORT_DESCRIPTOR_WINMM  0043303c     winmm:WINMM.dll
 0004:00000050       __IMPORT_DESCRIPTOR_qt-mt323 00433050     qt-mt323:qt-mt323.dll
 0004:00000064       __IMPORT_DESCRIPTOR_bncs_config 00433064     bncs_config:bncs_config.dll
 0004:00000078       __IMPORT_DESCRIPTOR_bncs_string 00433078     bncs_string:bncs_string.dll
 0004:0000008c       __IMPORT_DESCRIPTOR_dcw    0043308c     dcw:dcw.dll
 0004:000000a0       __IMPORT_DESCRIPTOR_bncs_shim_loader 004330a0     bncs_shim_loader:bncs_shim_loader.dll
 0004:000000b4       __IMPORT_DESCRIPTOR_WindowsInfo 004330b4     WindowsInfo:WindowsInfo.dll
 0004:000000c8       __IMPORT_DESCRIPTOR_MSVCP60 004330c8     msvcprt:MSVCP60.dll
 0004:000000dc       __IMPORT_DESCRIPTOR_MSVCRT 004330dc     MSVCRT:MSVCRT.dll
 0004:000000f0       __IMPORT_DESCRIPTOR_KERNEL32 004330f0     kernel32:KERNEL32.dll
 0004:00000104       __IMPORT_DESCRIPTOR_VERSION 00433104     version:VERSION.dll
 0004:00000118       __NULL_IMPORT_DESCRIPTOR   00433118     bncs_cachedData:bncs_cachedData.dll
 0004:00002024       __imp__GetModuleFileNameA@12 00435024     kernel32:KERNEL32.dll
 0004:00002028       __imp__OutputDebugStringA@4 00435028     kernel32:KERNEL32.dll
 0004:0000202c       __imp__WritePrivateProfileStringA@16 0043502c     kernel32:KERNEL32.dll
 0004:00002030       __imp__SetFilePointer@16   00435030     kernel32:KERNEL32.dll
 0004:00002034       __imp__GetLastError@0      00435034     kernel32:KERNEL32.dll
 0004:00002038       __imp__CreateFileA@28      00435038     kernel32:KERNEL32.dll
 0004:0000203c       __imp__CloseHandle@4       0043503c     kernel32:KERNEL32.dll
 0004:00002040       __imp__WriteFile@20        00435040     kernel32:KERNEL32.dll
 0004:00002044       __imp__lstrcpynA@12        00435044     kernel32:KERNEL32.dll
 0004:00002048       __imp__GetModuleHandleA@4  00435048     kernel32:KERNEL32.dll
 0004:0000204c       __imp__GetStartupInfoA@4   0043504c     kernel32:KERNEL32.dll
 0004:00002050       __imp__GetPrivateProfileStringA@24 00435050     kernel32:KERNEL32.dll
 0004:00002054       \177KERNEL32_NULL_THUNK_DATA 00435054     kernel32:KERNEL32.dll
 0004:00002058       __imp_?_C@?1??_Nullstr@?$basic_string@DU?$char_traits@D@std@@V?$allocator@D@2@@std@@CAPBDXZ@4DB 00435058     msvcprt:MSVCP60.dll
 0004:0000205c       __imp_?assign@?$basic_string@DU?$char_traits@D@std@@V?$allocator@D@2@@std@@QAEAAV12@PBDI@Z 0043505c     msvcprt:MSVCP60.dll
 0004:00002060       __imp_?_Tidy@?$basic_string@DU?$char_traits@D@std@@V?$allocator@D@2@@std@@AAEX_N@Z 00435060     msvcprt:MSVCP60.dll
 0004:00002064       __imp_??0Init@ios_base@std@@QAE@XZ 00435064     msvcprt:MSVCP60.dll
 0004:00002068       __imp_??1Init@ios_base@std@@QAE@XZ 00435068     msvcprt:MSVCP60.dll
 0004:0000206c       __imp_??0_Winit@std@@QAE@XZ 0043506c     msvcprt:MSVCP60.dll
 0004:00002070       __imp_??1_Winit@std@@QAE@XZ 00435070     msvcprt:MSVCP60.dll
 0004:00002074       __imp_??1?$basic_string@DU?$char_traits@D@std@@V?$allocator@D@2@@std@@QAE@XZ 00435074     msvcprt:MSVCP60.dll
 0004:00002078       \177MSVCP60_NULL_THUNK_DATA 00435078     msvcprt:MSVCP60.dll
 0004:0000207c       __imp_??1type_info@@UAE@XZ 0043507c     MSVCRT:MSVCRT.dll
 0004:00002080       __imp___exit               00435080     MSVCRT:MSVCRT.dll
 0004:00002084       __imp___XcptFilter         00435084     MSVCRT:MSVCRT.dll
 0004:00002088       __imp__exit                00435088     MSVCRT:MSVCRT.dll
 0004:0000208c       __imp___acmdln             0043508c     MSVCRT:MSVCRT.dll
 0004:00002090       __imp____getmainargs       00435090     MSVCRT:MSVCRT.dll
 0004:00002094       __imp____setusermatherr    00435094     MSVCRT:MSVCRT.dll
 0004:00002098       __imp___adjust_fdiv        00435098     MSVCRT:MSVCRT.dll
 0004:0000209c       __imp__time                0043509c     MSVCRT:MSVCRT.dll
 0004:000020a0       __imp__strncpy             004350a0     MSVCRT:MSVCRT.dll
 0004:000020a4       __imp___mkdir              004350a4     MSVCRT:MSVCRT.dll
 0004:000020a8       __imp__strtok              004350a8     MSVCRT:MSVCRT.dll
 0004:000020ac       __imp___onexit             004350ac     MSVCRT:MSVCRT.dll
 0004:000020b0       __imp__strpbrk             004350b0     MSVCRT:MSVCRT.dll
 0004:000020b4       __imp__malloc              004350b4     MSVCRT:MSVCRT.dll
 0004:000020b8       __imp___except_handler3    004350b8     MSVCRT:MSVCRT.dll
 0004:000020bc       __imp_?terminate@@YAXXZ    004350bc     MSVCRT:MSVCRT.dll
 0004:000020c0       __imp____p__commode        004350c0     MSVCRT:MSVCRT.dll
 0004:000020c4       __imp____p__fmode          004350c4     MSVCRT:MSVCRT.dll
 0004:000020c8       __imp____set_app_type      004350c8     MSVCRT:MSVCRT.dll
 0004:000020cc       __imp__strcpy              004350cc     MSVCRT:MSVCRT.dll
 0004:000020d0       __imp_??2@YAPAXI@Z         004350d0     MSVCRT:MSVCRT.dll
 0004:000020d4       __imp__getenv              004350d4     MSVCRT:MSVCRT.dll
 0004:000020d8       __imp____CxxFrameHandler   004350d8     MSVCRT:MSVCRT.dll
 0004:000020dc       __imp__localtime           004350dc     MSVCRT:MSVCRT.dll
 0004:000020e0       __imp__strcmp              004350e0     MSVCRT:MSVCRT.dll
 0004:000020e4       __imp__memcpy              004350e4     MSVCRT:MSVCRT.dll
 0004:000020e8       __imp___chdir              004350e8     MSVCRT:MSVCRT.dll
 0004:000020ec       __imp___CxxThrowException@8 004350ec     MSVCRT:MSVCRT.dll
 0004:000020f0       __imp_?_set_se_translator@@YAP6AXIPAU_EXCEPTION_POINTERS@@@ZP6AXI0@Z@Z 004350f0     MSVCRT:MSVCRT.dll
 0004:000020f4       __imp__sprintf             004350f4     MSVCRT:MSVCRT.dll
 0004:000020f8       __imp___controlfp          004350f8     MSVCRT:MSVCRT.dll
 0004:000020fc       __imp__free                004350fc     MSVCRT:MSVCRT.dll
 0004:00002100       __imp__strlen              00435100     MSVCRT:MSVCRT.dll
 0004:00002104       __imp___initterm           00435104     MSVCRT:MSVCRT.dll
 0004:00002108       __imp____dllonexit         00435108     MSVCRT:MSVCRT.dll
 0004:0000210c       \177MSVCRT_NULL_THUNK_DATA 0043510c     MSVCRT:MSVCRT.dll
 0004:00002110       __imp__wsprintfA           00435110     user32:USER32.dll
 0004:00002114       __imp__SetForegroundWindow@4 00435114     user32:USER32.dll
 0004:00002118       __imp__ShowWindow@8        00435118     user32:USER32.dll
 0004:0000211c       __imp__IsIconic@4          0043511c     user32:USER32.dll
 0004:00002120       __imp__MessageBoxA@16      00435120     user32:USER32.dll
 0004:00002124       __imp__FindWindowA@8       00435124     user32:USER32.dll
 0004:00002128       __imp__GetForegroundWindow@0 00435128     user32:USER32.dll
 0004:0000212c       __imp__GetWindowThreadProcessId@8 0043512c     user32:USER32.dll
 0004:00002130       __imp__AttachThreadInput@12 00435130     user32:USER32.dll
 0004:00002134       __imp__SystemParametersInfoA@16 00435134     user32:USER32.dll
 0004:00002138       \177USER32_NULL_THUNK_DATA 00435138     user32:USER32.dll
 0004:0000213c       __imp__GetFileVersionInfoA@16 0043513c     version:VERSION.dll
 0004:00002140       __imp__VerQueryValueA@16   00435140     version:VERSION.dll
 0004:00002144       __imp__GetFileVersionInfoSizeA@8 00435144     version:VERSION.dll
 0004:00002148       \177VERSION_NULL_THUNK_DATA 00435148     version:VERSION.dll
 0004:0000214c       __imp__PlaySoundA@12       0043514c     winmm:WINMM.dll
 0004:00002150       \177WINMM_NULL_THUNK_DATA  00435150     winmm:WINMM.dll
 0004:00002154       __imp__gethostname@8       00435154     wsock32:WSOCK32.dll
 0004:00002158       __imp__gethostbyname@4     00435158     wsock32:WSOCK32.dll
 0004:0000215c       __imp__setsockopt@20       0043515c     wsock32:WSOCK32.dll
 0004:00002160       __imp__inet_addr@4         00435160     wsock32:WSOCK32.dll
 0004:00002164       __imp__htonl@4             00435164     wsock32:WSOCK32.dll
 0004:00002168       __imp__WSAGetLastError@0   00435168     wsock32:WSOCK32.dll
 0004:0000216c       \177WSOCK32_NULL_THUNK_DATA 0043516c     wsock32:WSOCK32.dll
 0004:00002170       __imp_?getUserObjectsPeak@WindowsInfo@@QBEKXZ 00435170     WindowsInfo:WindowsInfo.dll
 0004:00002174       __imp_?getUserObjects@WindowsInfo@@QBEKXZ 00435174     WindowsInfo:WindowsInfo.dll
 0004:00002178       __imp_?getGdiObjectsPeak@WindowsInfo@@QBEKXZ 00435178     WindowsInfo:WindowsInfo.dll
 0004:0000217c       __imp_?getGdiObjects@WindowsInfo@@QBEKXZ 0043517c     WindowsInfo:WindowsInfo.dll
 0004:00002180       __imp_??0WindowsInfo@@QAE@XZ 00435180     WindowsInfo:WindowsInfo.dll
 0004:00002184       __imp_??1WindowsInfo@@UAE@XZ 00435184     WindowsInfo:WindowsInfo.dll
 0004:00002188       \177WindowsInfo_NULL_THUNK_DATA 00435188     WindowsInfo:WindowsInfo.dll
 0004:0000218c       __imp_??0complexParam@@QAE@ABV0@@Z 0043518c     bncs_cachedData:bncs_cachedData.dll
 0004:00002190       __imp_??_7paramInfo@@6B@   00435190     bncs_cachedData:bncs_cachedData.dll
 0004:00002194       __imp_??0complexType@@QAE@XZ 00435194     bncs_cachedData:bncs_cachedData.dll
 0004:00002198       __imp_??_7complexInstance@@6B@ 00435198     bncs_cachedData:bncs_cachedData.dll
 0004:0000219c       __imp_??0instanceInfo@@QAE@XZ 0043519c     bncs_cachedData:bncs_cachedData.dll
 0004:000021a0       __imp_??4instanceInfo@@QAEAAV0@ABV0@@Z 004351a0     bncs_cachedData:bncs_cachedData.dll
 0004:000021a4       __imp_??0complexInstance@@QAE@XZ 004351a4     bncs_cachedData:bncs_cachedData.dll
 0004:000021a8       __imp_??0complexParam@@QAE@XZ 004351a8     bncs_cachedData:bncs_cachedData.dll
 0004:000021ac       __imp_??0paramInfo@@QAE@XZ 004351ac     bncs_cachedData:bncs_cachedData.dll
 0004:000021b0       __imp_??1complexType@@UAE@XZ 004351b0     bncs_cachedData:bncs_cachedData.dll
 0004:000021b4       __imp_??1deviceTypeInfo@@UAE@XZ 004351b4     bncs_cachedData:bncs_cachedData.dll
 0004:000021b8       __imp_??1instanceInfo@@UAE@XZ 004351b8     bncs_cachedData:bncs_cachedData.dll
 0004:000021bc       __imp_??1complexInstance@@UAE@XZ 004351bc     bncs_cachedData:bncs_cachedData.dll
 0004:000021c0       __imp_??1complexParam@@UAE@XZ 004351c0     bncs_cachedData:bncs_cachedData.dll
 0004:000021c4       __imp_??1paramInfo@@UAE@XZ 004351c4     bncs_cachedData:bncs_cachedData.dll
 0004:000021c8       __imp_??0instanceInfo@@QAE@ABV0@@Z 004351c8     bncs_cachedData:bncs_cachedData.dll
 0004:000021cc       __imp_??_7deviceTypeInfo@@6B@ 004351cc     bncs_cachedData:bncs_cachedData.dll
 0004:000021d0       __imp_??_7complexType@@6B@ 004351d0     bncs_cachedData:bncs_cachedData.dll
 0004:000021d4       __imp_?lookup@bncs_instance_lookup@@SA_NABVQString@@AAV2@111AA_N@Z 004351d4     bncs_cachedData:bncs_cachedData.dll
 0004:000021d8       __imp_?lookup@bncs_instance_lookup@@SA_NABVQString@@AAV2@PAH2PAD@Z 004351d8     bncs_cachedData:bncs_cachedData.dll
 0004:000021dc       __imp_??0deviceTypeInfo@@QAE@XZ 004351dc     bncs_cachedData:bncs_cachedData.dll
 0004:000021e0       __imp_?lookupType@bncs_instance_lookup@@SA_NABVQString@@AAV2@@Z 004351e0     bncs_cachedData:bncs_cachedData.dll
 0004:000021e4       \177bncs_cachedData_NULL_THUNK_DATA 004351e4     bncs_cachedData:bncs_cachedData.dll
 0004:000021e8       __imp_?clearCache@bncs_config@@SAXXZ 004351e8     bncs_config:bncs_config.dll
 0004:000021ec       __imp_?attr@bncs_config@@QAE?AVbncs_string@@ABV2@@Z 004351ec     bncs_config:bncs_config.dll
 0004:000021f0       __imp_?isValid@bncs_config@@QAE_NXZ 004351f0     bncs_config:bncs_config.dll
 0004:000021f4       __imp_??0bncs_config@@QAE@ABVbncs_string@@@Z 004351f4     bncs_config:bncs_config.dll
 0004:000021f8       __imp_?nextChild@bncs_config@@QAE_NXZ 004351f8     bncs_config:bncs_config.dll
 0004:000021fc       __imp_?childAttr@bncs_config@@QAE?AVbncs_string@@ABV2@@Z 004351fc     bncs_config:bncs_config.dll
 0004:00002200       __imp_?isChildValid@bncs_config@@QAE_NXZ 00435200     bncs_config:bncs_config.dll
 0004:00002204       __imp_??1bncs_config@@UAE@XZ 00435204     bncs_config:bncs_config.dll
 0004:00002208       \177bncs_config_NULL_THUNK_DATA 00435208     bncs_config:bncs_config.dll
 0004:0000220c       __imp_?unreg@bncs_dll_client_shim@@QAEXPAVIccClientCallback@@HH@Z 0043520c     bncs_shim_loader:bncs_shim_loader.dll
 0004:00002210       __imp_?infoWrite@ccClient@@QAEXHHABV?$basic_string@DU?$char_traits@D@std@@V?$allocator@D@2@@std@@_N@Z 00435210     bncs_shim_loader:bncs_shim_loader.dll
 0004:00002214       __imp_?reg@bncs_dll_client_shim@@QAE_NPAVIccClientCallback@@HHHH@Z 00435214     bncs_shim_loader:bncs_shim_loader.dll
 0004:00002218       __imp_?csiShim@bncs_shim_loader@@SAPAVbncs_dll_client_shim@@XZ 00435218     bncs_shim_loader:bncs_shim_loader.dll
 0004:0000221c       __imp_?cacheEnable@ccClient@@QAEX_N@Z 0043521c     bncs_shim_loader:bncs_shim_loader.dll
 0004:00002220       __imp_?cleanupIfRequired@bncs_dll_client_shim@@QAEXXZ 00435220     bncs_shim_loader:bncs_shim_loader.dll
 0004:00002224       __imp_?isCacheEnabled@ccClient@@QAE_NXZ 00435224     bncs_shim_loader:bncs_shim_loader.dll
 0004:00002228       \177bncs_shim_loader_NULL_THUNK_DATA 00435228     bncs_shim_loader:bncs_shim_loader.dll
 0004:0000222c       __imp_?toInt@bncs_string@@QBEHXZ 0043522c     bncs_string:bncs_string.dll
 0004:00002230       __imp_??1bncs_string@@UAE@XZ 00435230     bncs_string:bncs_string.dll
 0004:00002234       __imp_??0bncs_string@@QAE@PBD@Z 00435234     bncs_string:bncs_string.dll
 0004:00002238       __imp_?arg@bncs_string@@QBE?AV1@ABV1@@Z 00435238     bncs_string:bncs_string.dll
 0004:0000223c       __imp_??H@YA?BVbncs_string@@PBDABV0@@Z 0043523c     bncs_string:bncs_string.dll
 0004:00002240       __imp_??0bncs_string@@QAE@XZ 00435240     bncs_string:bncs_string.dll
 0004:00002244       __imp_??Bbncs_string@@QBEHXZ 00435244     bncs_string:bncs_string.dll
 0004:00002248       __imp_??Bbncs_string@@QBEPBDXZ 00435248     bncs_string:bncs_string.dll
 0004:0000224c       __imp_?lower@bncs_string@@QBE?AV1@XZ 0043524c     bncs_string:bncs_string.dll
 0004:00002250       __imp_??8@YA_NABVbncs_string@@PBD@Z 00435250     bncs_string:bncs_string.dll
 0004:00002254       __imp_??0bncs_string@@QAE@HDIH@Z 00435254     bncs_string:bncs_string.dll
 0004:00002258       __imp_?arg@bncs_string@@QBE?AV1@PBD@Z 00435258     bncs_string:bncs_string.dll
 0004:0000225c       \177bncs_string_NULL_THUNK_DATA 0043525c     bncs_string:bncs_string.dll
 0004:00002260       __imp_?create@dCW@@QAEPAVQWidget@@ABVQString@@PAVQObject@@PAV2@PBD_N4NN44@Z 00435260     dcw:dcw.dll
 0004:00002264       __imp_??0dCW@@QAE@XZ       00435264     dcw:dcw.dll
 0004:00002268       __imp_??1dCW@@UAE@XZ       00435268     dcw:dcw.dll
 0004:0000226c       __imp_?clearCache@dCW@@SAXXZ 0043526c     dcw:dcw.dll
 0004:00002270       \177dcw_NULL_THUNK_DATA    00435270     dcw:dcw.dll
 0004:00002274       __imp_?imComposeEvent@QWidget@@MAEXPAVQIMEvent@@@Z 00435274     qt-mt323:qt-mt323.dll
 0004:00002278       __imp_?imStartEvent@QWidget@@MAEXPAVQIMEvent@@@Z 00435278     qt-mt323:qt-mt323.dll
 0004:0000227c       __imp_?contextMenuEvent@QWidget@@MAEXPAVQContextMenuEvent@@@Z 0043527c     qt-mt323:qt-mt323.dll
 0004:00002280       __imp_?closeEvent@QWidget@@MAEXPAVQCloseEvent@@@Z 00435280     qt-mt323:qt-mt323.dll
 0004:00002284       __imp_?resizeEvent@QWidget@@MAEXPAVQResizeEvent@@@Z 00435284     qt-mt323:qt-mt323.dll
 0004:00002288       __imp_?moveEvent@QWidget@@MAEXPAVQMoveEvent@@@Z 00435288     qt-mt323:qt-mt323.dll
 0004:0000228c       __imp_?paintEvent@QWidget@@MAEXPAVQPaintEvent@@@Z 0043528c     qt-mt323:qt-mt323.dll
 0004:00002290       __imp_?leaveEvent@QWidget@@MAEXPAVQEvent@@@Z 00435290     qt-mt323:qt-mt323.dll
 0004:00002294       __imp_?enterEvent@QWidget@@MAEXPAVQEvent@@@Z 00435294     qt-mt323:qt-mt323.dll
 0004:00002298       __imp_?focusOutEvent@QWidget@@MAEXPAVQFocusEvent@@@Z 00435298     qt-mt323:qt-mt323.dll
 0004:0000229c       __imp_?focusInEvent@QWidget@@MAEXPAVQFocusEvent@@@Z 0043529c     qt-mt323:qt-mt323.dll
 0004:000022a0       __imp_?keyReleaseEvent@QWidget@@MAEXPAVQKeyEvent@@@Z 004352a0     qt-mt323:qt-mt323.dll
 0004:000022a4       __imp_?keyPressEvent@QWidget@@MAEXPAVQKeyEvent@@@Z 004352a4     qt-mt323:qt-mt323.dll
 0004:000022a8       __imp_?wheelEvent@QWidget@@MAEXPAVQWheelEvent@@@Z 004352a8     qt-mt323:qt-mt323.dll
 0004:000022ac       __imp_?mouseMoveEvent@QWidget@@MAEXPAVQMouseEvent@@@Z 004352ac     qt-mt323:qt-mt323.dll
 0004:000022b0       __imp_?mouseDoubleClickEvent@QWidget@@MAEXPAVQMouseEvent@@@Z 004352b0     qt-mt323:qt-mt323.dll
 0004:000022b4       __imp_?mouseReleaseEvent@QWidget@@MAEXPAVQMouseEvent@@@Z 004352b4     qt-mt323:qt-mt323.dll
 0004:000022b8       __imp_?mousePressEvent@QWidget@@MAEXPAVQMouseEvent@@@Z 004352b8     qt-mt323:qt-mt323.dll
 0004:000022bc       __imp_?customWhatsThis@QWidget@@UBE_NXZ 004352bc     qt-mt323:qt-mt323.dll
 0004:000022c0       __imp_?setBackgroundOrigin@QWidget@@UAEXW4BackgroundOrigin@1@@Z 004352c0     qt-mt323:qt-mt323.dll
 0004:000022c4       __imp_?setAutoMask@QWidget@@UAEX_N@Z 004352c4     qt-mt323:qt-mt323.dll
 0004:000022c8       __imp_?setAcceptDrops@QWidget@@UAEX_N@Z 004352c8     qt-mt323:qt-mt323.dll
 0004:000022cc       __imp_?reparent@QWidget@@UAEXPAV1@IABVQPoint@@_N@Z 004352cc     qt-mt323:qt-mt323.dll
 0004:000022d0       __imp_?adjustSize@QWidget@@UAEXXZ 004352d0     qt-mt323:qt-mt323.dll
 0004:000022d4       __imp_?heightForWidth@QWidget@@UBEHH@Z 004352d4     qt-mt323:qt-mt323.dll
 0004:000022d8       __imp_?setSizePolicy@QWidget@@UAEXVQSizePolicy@@@Z 004352d8     qt-mt323:qt-mt323.dll
 0004:000022dc       __imp_?sizePolicy@QWidget@@UBE?AVQSizePolicy@@XZ 004352dc     qt-mt323:qt-mt323.dll
 0004:000022e0       __imp_?minimumSizeHint@QWidget@@UBE?AVQSize@@XZ 004352e0     qt-mt323:qt-mt323.dll
 0004:000022e4       __imp_?sizeHint@QWidget@@UBE?AVQSize@@XZ 004352e4     qt-mt323:qt-mt323.dll
 0004:000022e8       __imp_?setGeometry@QWidget@@UAEXHHHH@Z 004352e8     qt-mt323:qt-mt323.dll
 0004:000022ec       __imp_?setGeometry@QWidget@@UAEXABVQRect@@@Z 004352ec     qt-mt323:qt-mt323.dll
 0004:000022f0       __imp_?resize@QWidget@@UAEXHH@Z 004352f0     qt-mt323:qt-mt323.dll
 0004:000022f4       __imp_?move@QWidget@@UAEXHH@Z 004352f4     qt-mt323:qt-mt323.dll
 0004:000022f8       __imp_?close@QWidget@@UAE_N_N@Z 004352f8     qt-mt323:qt-mt323.dll
 0004:000022fc       __imp_?polish@QWidget@@UAEXXZ 004352fc     qt-mt323:qt-mt323.dll
 0004:00002300       __imp_?showNormal@QWidget@@UAEXXZ 00435300     qt-mt323:qt-mt323.dll
 0004:00002304       __imp_?showMaximized@QWidget@@UAEXXZ 00435304     qt-mt323:qt-mt323.dll
 0004:00002308       __imp_?showMinimized@QWidget@@UAEXXZ 00435308     qt-mt323:qt-mt323.dll
 0004:0000230c       __imp_?hide@QWidget@@UAEXXZ 0043530c     qt-mt323:qt-mt323.dll
 0004:00002310       __imp_?show@QWidget@@UAEXXZ 00435310     qt-mt323:qt-mt323.dll
 0004:00002314       __imp_?setUpdatesEnabled@QWidget@@UAEX_N@Z 00435314     qt-mt323:qt-mt323.dll
 0004:00002318       __imp_?setFocusProxy@QWidget@@UAEXPAV1@@Z 00435318     qt-mt323:qt-mt323.dll
 0004:0000231c       __imp_?setFocusPolicy@QWidget@@UAEXW4FocusPolicy@1@@Z 0043531c     qt-mt323:qt-mt323.dll
 0004:00002320       __imp_?setActiveWindow@QWidget@@UAEXXZ 00435320     qt-mt323:qt-mt323.dll
 0004:00002324       __imp_?setFocus@QWidget@@UAEXXZ 00435324     qt-mt323:qt-mt323.dll
 0004:00002328       __imp_?setMouseTracking@QWidget@@UAEX_N@Z 00435328     qt-mt323:qt-mt323.dll
 0004:0000232c       __imp_?setIconText@QWidget@@UAEXABVQString@@@Z 0043532c     qt-mt323:qt-mt323.dll
 0004:00002330       __imp_?setIcon@QWidget@@UAEXABVQPixmap@@@Z 00435330     qt-mt323:qt-mt323.dll
 0004:00002334       __imp_?setCaption@QWidget@@UAEXABVQString@@@Z 00435334     qt-mt323:qt-mt323.dll
 0004:00002338       __imp_?setBackgroundPixmap@QWidget@@UAEXABVQPixmap@@@Z 00435338     qt-mt323:qt-mt323.dll
 0004:0000233c       __imp_?setBackgroundColor@QWidget@@UAEXABVQColor@@@Z 0043533c     qt-mt323:qt-mt323.dll
 0004:00002340       __imp_?setMask@QWidget@@UAEXABVQBitmap@@@Z 00435340     qt-mt323:qt-mt323.dll
 0004:00002344       __imp_?setMask@QWidget@@UAEXABVQRegion@@@Z 00435344     qt-mt323:qt-mt323.dll
 0004:00002348       __imp_?unsetCursor@QWidget@@UAEXXZ 00435348     qt-mt323:qt-mt323.dll
 0004:0000234c       __imp_?setCursor@QWidget@@UAEXABVQCursor@@@Z 0043534c     qt-mt323:qt-mt323.dll
 0004:00002350       __imp_?setFont@QWidget@@UAEXABVQFont@@@Z 00435350     qt-mt323:qt-mt323.dll
 0004:00002354       __imp_?setPaletteBackgroundPixmap@QWidget@@UAEXABVQPixmap@@@Z 00435354     qt-mt323:qt-mt323.dll
 0004:00002358       __imp_?setPaletteBackgroundColor@QWidget@@UAEXABVQColor@@@Z 00435358     qt-mt323:qt-mt323.dll
 0004:0000235c       __imp_?setPalette@QWidget@@UAEXABVQPalette@@@Z 0043535c     qt-mt323:qt-mt323.dll
 0004:00002360       __imp_?setErasePixmap@QWidget@@UAEXABVQPixmap@@@Z 00435360     qt-mt323:qt-mt323.dll
 0004:00002364       __imp_?setEraseColor@QWidget@@UAEXABVQColor@@@Z 00435364     qt-mt323:qt-mt323.dll
 0004:00002368       __imp_?setBackgroundMode@QWidget@@UAEXW4BackgroundMode@Qt@@@Z 00435368     qt-mt323:qt-mt323.dll
 0004:0000236c       __imp_?setSizeIncrement@QWidget@@UAEXHH@Z 0043536c     qt-mt323:qt-mt323.dll
 0004:00002370       __imp_?setMaximumSize@QWidget@@UAEXHH@Z 00435370     qt-mt323:qt-mt323.dll
 0004:00002374       __imp_?setMinimumSize@QWidget@@UAEXHH@Z 00435374     qt-mt323:qt-mt323.dll
 0004:00002378       __imp_?setEnabled@QWidget@@UAEX_N@Z 00435378     qt-mt323:qt-mt323.dll
 0004:0000237c       __imp_?checkConnectArgs@QObject@@MAE_NPBDPBV1@0@Z 0043537c     qt-mt323:qt-mt323.dll
 0004:00002380       __imp_?disconnectNotify@QObject@@MAEXPBD@Z 00435380     qt-mt323:qt-mt323.dll
 0004:00002384       __imp_?connectNotify@QObject@@MAEXPBD@Z 00435384     qt-mt323:qt-mt323.dll
 0004:00002388       __imp_?customEvent@QObject@@MAEXPAVQCustomEvent@@@Z 00435388     qt-mt323:qt-mt323.dll
 0004:0000238c       __imp_?childEvent@QObject@@MAEXPAVQChildEvent@@@Z 0043538c     qt-mt323:qt-mt323.dll
 0004:00002390       __imp_?timerEvent@QObject@@MAEXPAVQTimerEvent@@@Z 00435390     qt-mt323:qt-mt323.dll
 0004:00002394       __imp_?property@QObject@@UBE?AVQVariant@@PBD@Z 00435394     qt-mt323:qt-mt323.dll
 0004:00002398       __imp_?setProperty@QObject@@UAE_NPBDABVQVariant@@@Z 00435398     qt-mt323:qt-mt323.dll
 0004:0000239c       __imp_?removeChild@QObject@@UAEXPAV1@@Z 0043539c     qt-mt323:qt-mt323.dll
 0004:000023a0       __imp_?insertChild@QObject@@UAEXPAV1@@Z 004353a0     qt-mt323:qt-mt323.dll
 0004:000023a4       __imp_?setName@QWidget@@UAEXPBD@Z 004353a4     qt-mt323:qt-mt323.dll
 0004:000023a8       __imp_?eventFilter@QObject@@UAE_NPAV1@PAVQEvent@@@Z 004353a8     qt-mt323:qt-mt323.dll
 0004:000023ac       __imp_?event@QWidget@@MAE_NPAVQEvent@@@Z 004353ac     qt-mt323:qt-mt323.dll
 0004:000023b0       __imp_?write@QGDict@@MBEAAVQDataStream@@AAV2@PAX@Z 004353b0     qt-mt323:qt-mt323.dll
 0004:000023b4       __imp_?read@QGDict@@MAEAAVQDataStream@@AAV2@AAPAX@Z 004353b4     qt-mt323:qt-mt323.dll
 0004:000023b8       __imp_??0QGDict@@IAE@IW4KeyType@0@_N1@Z 004353b8     qt-mt323:qt-mt323.dll
 0004:000023bc       __imp_??1QGDict@@MAE@XZ    004353bc     qt-mt323:qt-mt323.dll
 0004:000023c0       __imp_?clear@QGDict@@MAEXXZ 004353c0     qt-mt323:qt-mt323.dll
 0004:000023c4       __imp_?arg@QString@@QBE?AV1@HHH@Z 004353c4     qt-mt323:qt-mt323.dll
 0004:000023c8       __imp_?toInt@QString@@QBEHPA_NH@Z 004353c8     qt-mt323:qt-mt323.dll
 0004:000023cc       __imp_?postEvent@QApplication@@SAXPAVQObject@@PAVQEvent@@@Z 004353cc     qt-mt323:qt-mt323.dll
 0004:000023d0       __imp_??0QKeyEvent@@QAE@W4Type@QEvent@@HHHABVQString@@_NG@Z 004353d0     qt-mt323:qt-mt323.dll
 0004:000023d4       __imp_?activePopupWidget@QApplication@@SAPAVQWidget@@XZ 004353d4     qt-mt323:qt-mt323.dll
 0004:000023d8       __imp_?startsWith@QString@@QBE_NABV1@@Z 004353d8     qt-mt323:qt-mt323.dll
 0004:000023dc       __imp_?mapToGlobal@QWidget@@QBE?AVQPoint@@ABV2@@Z 004353dc     qt-mt323:qt-mt323.dll
 0004:000023e0       __imp_?name@QObject@@QBEPBDXZ 004353e0     qt-mt323:qt-mt323.dll
 0004:000023e4       __imp_?sender@QObject@@IAEPBV1@XZ 004353e4     qt-mt323:qt-mt323.dll
 0004:000023e8       __imp_??1QKeyEvent@@UAE@XZ 004353e8     qt-mt323:qt-mt323.dll
 0004:000023ec       __imp_?frameChanged@QGrid@@MAEXXZ 004353ec     qt-mt323:qt-mt323.dll
 0004:000023f0       __imp_?drawContents@QFrame@@MAEXPAVQPainter@@@Z 004353f0     qt-mt323:qt-mt323.dll
 0004:000023f4       __imp_?drawFrame@QFrame@@MAEXPAVQPainter@@@Z 004353f4     qt-mt323:qt-mt323.dll
 0004:000023f8       __imp_?setFrameRect@QFrame@@UAEXABVQRect@@@Z 004353f8     qt-mt323:qt-mt323.dll
 0004:000023fc       __imp_?setMidLineWidth@QFrame@@UAEXH@Z 004353fc     qt-mt323:qt-mt323.dll
 0004:00002400       __imp_?setMargin@QFrame@@UAEXH@Z 00435400     qt-mt323:qt-mt323.dll
 0004:00002404       __imp_?setLineWidth@QFrame@@UAEXH@Z 00435404     qt-mt323:qt-mt323.dll
 0004:00002408       __imp_?setFrameStyle@QFrame@@UAEXH@Z 00435408     qt-mt323:qt-mt323.dll
 0004:0000240c       __imp_?styleChange@QFrame@@MAEXAAVQStyle@@@Z 0043540c     qt-mt323:qt-mt323.dll
 0004:00002410       __imp_?resizeEvent@QFrame@@MAEXPAVQResizeEvent@@@Z 00435410     qt-mt323:qt-mt323.dll
 0004:00002414       __imp_?paintEvent@QFrame@@MAEXPAVQPaintEvent@@@Z 00435414     qt-mt323:qt-mt323.dll
 0004:00002418       __imp_?sizeHint@QGrid@@UBE?AVQSize@@XZ 00435418     qt-mt323:qt-mt323.dll
 0004:0000241c       __imp_?qt_property@QGrid@@UAE_NHHPAVQVariant@@@Z 0043541c     qt-mt323:qt-mt323.dll
 0004:00002420       __imp_?qt_emit@QGrid@@UAE_NHPAUQUObject@@@Z 00435420     qt-mt323:qt-mt323.dll
 0004:00002424       __imp_?qt_invoke@QGrid@@UAE_NHPAUQUObject@@@Z 00435424     qt-mt323:qt-mt323.dll
 0004:00002428       __imp_?qt_cast@QGrid@@UAEPAXPBD@Z 00435428     qt-mt323:qt-mt323.dll
 0004:0000242c       __imp_?className@QGrid@@UBEPBDXZ 0043542c     qt-mt323:qt-mt323.dll
 0004:00002430       __imp_?metaObject@QGrid@@UBEPAVQMetaObject@@XZ 00435430     qt-mt323:qt-mt323.dll
 0004:00002434       __imp_??1QPopupMenu@@UAE@XZ 00435434     qt-mt323:qt-mt323.dll
 0004:00002438       __imp_?exec@QPopupMenu@@QAEHABVQPoint@@H@Z 00435438     qt-mt323:qt-mt323.dll
 0004:0000243c       __imp_?insertItem@QMenuData@@QAEHPAVQWidget@@HH@Z 0043543c     qt-mt323:qt-mt323.dll
 0004:00002440       __imp_?connect@QObject@@SA_NPBV1@PBD01@Z 00435440     qt-mt323:qt-mt323.dll
 0004:00002444       __imp_?setMinimumHeight@QWidget@@QAEXH@Z 00435444     qt-mt323:qt-mt323.dll
 0004:00002448       __imp_?setMinimumWidth@QWidget@@QAEXH@Z 00435448     qt-mt323:qt-mt323.dll
 0004:0000244c       __imp_?detachInternal@?$QValueList@VQString@@@@AAEXXZ 0043544c     qt-mt323:qt-mt323.dll
 0004:00002450       __imp_?setSpacing@QGrid@@QAEXH@Z 00435450     qt-mt323:qt-mt323.dll
 0004:00002454       __imp_??0QGrid@@QAE@HPAVQWidget@@PBDI@Z 00435454     qt-mt323:qt-mt323.dll
 0004:00002458       __imp_??0QPopupMenu@@QAE@PAVQWidget@@PBD@Z 00435458     qt-mt323:qt-mt323.dll
 0004:0000245c       __imp_??4?$QValueList@VQString@@@@QAEAAV0@ABV0@@Z 0043545c     qt-mt323:qt-mt323.dll
 0004:00002460       __imp_??1QGrid@@UAE@XZ     00435460     qt-mt323:qt-mt323.dll
 0004:00002464       __imp_??H@YA?BVQString@@ABV0@0@Z 00435464     qt-mt323:qt-mt323.dll
 0004:00002468       __imp_?look_string@QGDict@@QAEPAXABVQString@@PAXH@Z 00435468     qt-mt323:qt-mt323.dll
 0004:0000246c       __imp_??YQString@@QAEAAV0@PBD@Z 0043546c     qt-mt323:qt-mt323.dll
 0004:00002470       __imp_?right@QString@@QBE?AV1@I@Z 00435470     qt-mt323:qt-mt323.dll
 0004:00002474       __imp_?replace@QString@@QAEAAV1@VQChar@@0@Z 00435474     qt-mt323:qt-mt323.dll
 0004:00002478       __imp_??0QChar@@QAE@D@Z    00435478     qt-mt323:qt-mt323.dll
 0004:0000247c       __imp_?child@QObject@@QAEPAV1@PBD0_N@Z 0043547c     qt-mt323:qt-mt323.dll
 0004:00002480       __imp_?information@QMessageBox@@SAHPAVQWidget@@ABVQString@@1111HH@Z 00435480     qt-mt323:qt-mt323.dll
 0004:00002484       __imp_?y@QWidget@@QBEHXZ   00435484     qt-mt323:qt-mt323.dll
 0004:00002488       __imp_?x@QWidget@@QBEHXZ   00435488     qt-mt323:qt-mt323.dll
 0004:0000248c       __imp_?exists@QFile@@QBE_NXZ 0043548c     qt-mt323:qt-mt323.dll
 0004:00002490       __imp_?setName@QObject@@UAEXPBD@Z 00435490     qt-mt323:qt-mt323.dll
 0004:00002494       __imp_?event@QObject@@UAE_NPAVQEvent@@@Z 00435494     qt-mt323:qt-mt323.dll
 0004:00002498       __imp_??1QObject@@UAE@XZ   00435498     qt-mt323:qt-mt323.dll
 0004:0000249c       __imp_??0QObject@@QAE@PAV0@PBD@Z 0043549c     qt-mt323:qt-mt323.dll
 0004:000024a0       __imp_??1QGDictIterator@@QAE@XZ 004354a0     qt-mt323:qt-mt323.dll
 0004:000024a4       __imp_??EQGDictIterator@@QAEPAXXZ 004354a4     qt-mt323:qt-mt323.dll
 0004:000024a8       __imp_?remove_string@QGDict@@IAE_NABVQString@@PAX@Z 004354a8     qt-mt323:qt-mt323.dll
 0004:000024ac       __imp_?isRunning@QProcess@@QBE_NXZ 004354ac     qt-mt323:qt-mt323.dll
 0004:000024b0       __imp_??0QGDictIterator@@QAE@ABVQGDict@@@Z 004354b0     qt-mt323:qt-mt323.dll
 0004:000024b4       __imp_?take_string@QGDict@@IAEPAXABVQString@@@Z 004354b4     qt-mt323:qt-mt323.dll
 0004:000024b8       __imp_?contains@QString@@QBEHVQChar@@_N@Z 004354b8     qt-mt323:qt-mt323.dll
 0004:000024bc       __imp_?remove@QString@@QAEAAV1@II@Z 004354bc     qt-mt323:qt-mt323.dll
 0004:000024c0       __imp_?latin1@QString@@QBEPBDXZ 004354c0     qt-mt323:qt-mt323.dll
 0004:000024c4       __imp_?split@QStringList@@SA?AV1@ABVQString@@0_N@Z 004354c4     qt-mt323:qt-mt323.dll
 0004:000024c8       __imp_?section@QString@@QBE?AV1@DHHH@Z 004354c8     qt-mt323:qt-mt323.dll
 0004:000024cc       __imp_?exists@QFile@@SA_NABVQString@@@Z 004354cc     qt-mt323:qt-mt323.dll
 0004:000024d0       __imp_??0QFile@@QAE@XZ     004354d0     qt-mt323:qt-mt323.dll
 0004:000024d4       __imp_?tryTerminate@QProcess@@QBEXXZ 004354d4     qt-mt323:qt-mt323.dll
 0004:000024d8       __imp_??9@YA_NABVQString@@PBD@Z 004354d8     qt-mt323:qt-mt323.dll
 0004:000024dc       __imp_?getKeyString@QGDictIterator@@QBE?AVQString@@XZ 004354dc     qt-mt323:qt-mt323.dll
 0004:000024e0       __imp_?setChildGeometries@QWidgetStack@@MAEXXZ 004354e0     qt-mt323:qt-mt323.dll
 0004:000024e4       __imp_?frameChanged@QWidgetStack@@MAEXXZ 004354e4     qt-mt323:qt-mt323.dll
 0004:000024e8       __imp_?setFrameRect@QWidgetStack@@UAEXABVQRect@@@Z 004354e8     qt-mt323:qt-mt323.dll
 0004:000024ec       __imp_?resizeEvent@QWidgetStack@@MAEXPAVQResizeEvent@@@Z 004354ec     qt-mt323:qt-mt323.dll
 0004:000024f0       __imp_?minimumSizeHint@QWidgetStack@@UBE?AVQSize@@XZ 004354f0     qt-mt323:qt-mt323.dll
 0004:000024f4       __imp_?sizeHint@QWidgetStack@@UBE?AVQSize@@XZ 004354f4     qt-mt323:qt-mt323.dll
 0004:000024f8       __imp_?show@QWidgetStack@@UAEXXZ 004354f8     qt-mt323:qt-mt323.dll
 0004:000024fc       __imp_?childEvent@QWidgetStack@@MAEXPAVQChildEvent@@@Z 004354fc     qt-mt323:qt-mt323.dll
 0004:00002500       __imp_?qt_property@QWidgetStack@@UAE_NHHPAVQVariant@@@Z 00435500     qt-mt323:qt-mt323.dll
 0004:00002504       __imp_?qt_emit@QWidgetStack@@UAE_NHPAUQUObject@@@Z 00435504     qt-mt323:qt-mt323.dll
 0004:00002508       __imp_?qt_invoke@QWidgetStack@@UAE_NHPAUQUObject@@@Z 00435508     qt-mt323:qt-mt323.dll
 0004:0000250c       __imp_?qt_cast@QWidgetStack@@UAEPAXPBD@Z 0043550c     qt-mt323:qt-mt323.dll
 0004:00002510       __imp_?className@QWidgetStack@@UBEPBDXZ 00435510     qt-mt323:qt-mt323.dll
 0004:00002514       __imp_?metaObject@QWidgetStack@@UBEPAVQMetaObject@@XZ 00435514     qt-mt323:qt-mt323.dll
 0004:00002518       __imp_??1QWidgetStack@@UAE@XZ 00435518     qt-mt323:qt-mt323.dll
 0004:0000251c       __imp_??1QSettings@@QAE@XZ 0043551c     qt-mt323:qt-mt323.dll
 0004:00002520       __imp_?readNumEntry@QSettings@@QAEHABVQString@@HPA_N@Z 00435520     qt-mt323:qt-mt323.dll
 0004:00002524       __imp_??0QSettings@@QAE@XZ 00435524     qt-mt323:qt-mt323.dll
 0004:00002528       __imp_??_7?$QPtrList@VQWidget@@@@6B@ 00435528     qt-mt323:qt-mt323.dll
 0004:0000252c       __imp_??0QWidgetStack@@QAE@PAVQWidget@@PBDI@Z 0043552c     qt-mt323:qt-mt323.dll
 0004:00002530       __imp_?addWidget@QWidgetStack@@QAEHPAVQWidget@@H@Z 00435530     qt-mt323:qt-mt323.dll
 0004:00002534       __imp_?msecsTo@QTime@@QBEHABV1@@Z 00435534     qt-mt323:qt-mt323.dll
 0004:00002538       __imp_?currentTime@QTime@@SA?AV1@XZ 00435538     qt-mt323:qt-mt323.dll
 0004:0000253c       __imp_?main_widget@QApplication@@0PAVQWidget@@A 0043553c     qt-mt323:qt-mt323.dll
 0004:00002540       __imp_?insertAt@QGList@@IAE_NIPAX@Z 00435540     qt-mt323:qt-mt323.dll
 0004:00002544       __imp_?raiseWidget@QWidgetStack@@QAEXPAVQWidget@@@Z 00435544     qt-mt323:qt-mt323.dll
 0004:00002548       __imp_?visibleWidget@QWidgetStack@@QBEPAVQWidget@@XZ 00435548     qt-mt323:qt-mt323.dll
 0004:0000254c       __imp_??1QObjectListIt@@QAE@XZ 0043554c     qt-mt323:qt-mt323.dll
 0004:00002550       __imp_??EQGListIterator@@IAEPAXXZ 00435550     qt-mt323:qt-mt323.dll
 0004:00002554       __imp_??0?$QPtrListIterator@VQObject@@@@QAE@ABV?$QPtrList@VQObject@@@@@Z 00435554     qt-mt323:qt-mt323.dll
 0004:00002558       __imp_?removeWidget@QWidgetStack@@QAEXPAVQWidget@@@Z 00435558     qt-mt323:qt-mt323.dll
 0004:0000255c       __imp_?queryList@QObject@@QBEPAVQObjectList@@PBD0_N1@Z 0043555c     qt-mt323:qt-mt323.dll
 0004:00002560       __imp_?qt_property@QWidget@@UAE_NHHPAVQVariant@@@Z 00435560     qt-mt323:qt-mt323.dll
 0004:00002564       __imp_?qt_emit@QWidget@@UAE_NHPAUQUObject@@@Z 00435564     qt-mt323:qt-mt323.dll
 0004:00002568       __imp_?qt_invoke@QWidget@@UAE_NHPAUQUObject@@@Z 00435568     qt-mt323:qt-mt323.dll
 0004:0000256c       __imp_?qt_cast@QWidget@@UAEPAXPBD@Z 0043556c     qt-mt323:qt-mt323.dll
 0004:00002570       __imp_?className@QWidget@@UBEPBDXZ 00435570     qt-mt323:qt-mt323.dll
 0004:00002574       __imp_?metaObject@QWidget@@UBEPAVQMetaObject@@XZ 00435574     qt-mt323:qt-mt323.dll
 0004:00002578       __imp_??0QWidget@@QAE@PAV0@PBDI@Z 00435578     qt-mt323:qt-mt323.dll
 0004:0000257c       __imp_??1QWidget@@UAE@XZ   0043557c     qt-mt323:qt-mt323.dll
 0004:00002580       __imp_??1QHostAddress@@UAE@XZ 00435580     qt-mt323:qt-mt323.dll
 0004:00002584       __imp_??0QHostAddress@@QAE@XZ 00435584     qt-mt323:qt-mt323.dll
 0004:00002588       __imp_?setOption@QSocketDevice@@EAEXW4Option@1@H@Z 00435588     qt-mt323:qt-mt323.dll
 0004:0000258c       __imp_?writeBlock@QSocketDevice@@UAEJPBDKABVQHostAddress@@G@Z 0043558c     qt-mt323:qt-mt323.dll
 0004:00002590       __imp_?accept@QSocketDevice@@UAEHXZ 00435590     qt-mt323:qt-mt323.dll
 0004:00002594       __imp_?listen@QSocketDevice@@UAE_NH@Z 00435594     qt-mt323:qt-mt323.dll
 0004:00002598       __imp_?bind@QSocketDevice@@UAE_NABVQHostAddress@@G@Z 00435598     qt-mt323:qt-mt323.dll
 0004:0000259c       __imp_?connect@QSocketDevice@@UAE_NABVQHostAddress@@G@Z 0043559c     qt-mt323:qt-mt323.dll
 0004:000025a0       __imp_?setSendBufferSize@QSocketDevice@@UAEXI@Z 004355a0     qt-mt323:qt-mt323.dll
 0004:000025a4       __imp_?setReceiveBufferSize@QSocketDevice@@UAEXI@Z 004355a4     qt-mt323:qt-mt323.dll
 0004:000025a8       __imp_?setAddressReusable@QSocketDevice@@UAEX_N@Z 004355a8     qt-mt323:qt-mt323.dll
 0004:000025ac       __imp_?setBlocking@QSocketDevice@@UAEX_N@Z 004355ac     qt-mt323:qt-mt323.dll
 0004:000025b0       __imp_?setSocket@QSocketDevice@@UAEXHW4Type@1@@Z 004355b0     qt-mt323:qt-mt323.dll
 0004:000025b4       __imp_?ungetch@QSocketDevice@@UAEHH@Z 004355b4     qt-mt323:qt-mt323.dll
 0004:000025b8       __imp_?putch@QSocketDevice@@UAEHH@Z 004355b8     qt-mt323:qt-mt323.dll
 0004:000025bc       __imp_?getch@QSocketDevice@@UAEHXZ 004355bc     qt-mt323:qt-mt323.dll
 0004:000025c0       __imp_?readAll@QIODevice@@UAE?AV?$QMemArray@D@@XZ 004355c0     qt-mt323:qt-mt323.dll
 0004:000025c4       __imp_?readLine@QIODevice@@UAEJPADK@Z 004355c4     qt-mt323:qt-mt323.dll
 0004:000025c8       __imp_?writeBlock@QSocketDevice@@UAEJPBDK@Z 004355c8     qt-mt323:qt-mt323.dll
 0004:000025cc       __imp_?readBlock@QSocketDevice@@UAEJPADK@Z 004355cc     qt-mt323:qt-mt323.dll
 0004:000025d0       __imp_?atEnd@QSocketDevice@@UBE_NXZ 004355d0     qt-mt323:qt-mt323.dll
 0004:000025d4       __imp_?at@QSocketDevice@@UBEKXZ 004355d4     qt-mt323:qt-mt323.dll
 0004:000025d8       __imp_?at@QSocketDevice@@UAE_NK@Z 004355d8     qt-mt323:qt-mt323.dll
 0004:000025dc       __imp_?size@QSocketDevice@@UBEKXZ 004355dc     qt-mt323:qt-mt323.dll
 0004:000025e0       __imp_?flush@QSocketDevice@@UAEXXZ 004355e0     qt-mt323:qt-mt323.dll
 0004:000025e4       __imp_?close@QSocketDevice@@UAEXXZ 004355e4     qt-mt323:qt-mt323.dll
 0004:000025e8       __imp_?open@QSocketDevice@@UAE_NH@Z 004355e8     qt-mt323:qt-mt323.dll
 0004:000025ec       __imp_??0QSocketDevice@@QAE@W4Type@0@@Z 004355ec     qt-mt323:qt-mt323.dll
 0004:000025f0       __imp_?setAddress@QHostAddress@@QAEXI@Z 004355f0     qt-mt323:qt-mt323.dll
 0004:000025f4       __imp_??4QHostAddress@@QAEAAV0@ABV0@@Z 004355f4     qt-mt323:qt-mt323.dll
 0004:000025f8       __imp_?setAddress@QHostAddress@@QAE_NABVQString@@@Z 004355f8     qt-mt323:qt-mt323.dll
 0004:000025fc       __imp_??1QSocketDevice@@UAE@XZ 004355fc     qt-mt323:qt-mt323.dll
 0004:00002600       __imp_?setEnabled@QSocketNotifier@@UAEX_N@Z 00435600     qt-mt323:qt-mt323.dll
 0004:00002604       __imp_?event@QSocketNotifier@@MAE_NPAVQEvent@@@Z 00435604     qt-mt323:qt-mt323.dll
 0004:00002608       __imp_?qt_property@QSocketNotifier@@UAE_NHHPAVQVariant@@@Z 00435608     qt-mt323:qt-mt323.dll
 0004:0000260c       __imp_?qt_emit@QSocketNotifier@@UAE_NHPAUQUObject@@@Z 0043560c     qt-mt323:qt-mt323.dll
 0004:00002610       __imp_?qt_invoke@QSocketNotifier@@UAE_NHPAUQUObject@@@Z 00435610     qt-mt323:qt-mt323.dll
 0004:00002614       __imp_?qt_cast@QSocketNotifier@@UAEPAXPBD@Z 00435614     qt-mt323:qt-mt323.dll
 0004:00002618       __imp_?className@QSocketNotifier@@UBEPBDXZ 00435618     qt-mt323:qt-mt323.dll
 0004:0000261c       __imp_?metaObject@QSocketNotifier@@UBEPAVQMetaObject@@XZ 0043561c     qt-mt323:qt-mt323.dll
 0004:00002620       __imp_??0QSocketNotifier@@QAE@HW4Type@0@PAVQObject@@PBD@Z 00435620     qt-mt323:qt-mt323.dll
 0004:00002624       __imp_?toString@QHostAddress@@QBE?AVQString@@XZ 00435624     qt-mt323:qt-mt323.dll
 0004:00002628       __imp_?isValid@QSocketDevice@@QBE_NXZ 00435628     qt-mt323:qt-mt323.dll
 0004:0000262c       __imp_?ip4Addr@QHostAddress@@QBEIXZ 0043562c     qt-mt323:qt-mt323.dll
 0004:00002630       __imp_?socket@QSocketDevice@@QBEHXZ 00435630     qt-mt323:qt-mt323.dll
 0004:00002634       __imp_?deleteLater@QObject@@QAEXXZ 00435634     qt-mt323:qt-mt323.dll
 0004:00002638       __imp_??1QSocketNotifier@@UAE@XZ 00435638     qt-mt323:qt-mt323.dll
 0004:0000263c       __imp_?bytesAvailable@QSocketDevice@@QBEJXZ 0043563c     qt-mt323:qt-mt323.dll
 0004:00002640       __imp_?reject@QDialog@@MAEXXZ 00435640     qt-mt323:qt-mt323.dll
 0004:00002644       __imp_?accept@QDialog@@MAEXXZ 00435644     qt-mt323:qt-mt323.dll
 0004:00002648       __imp_?done@QDialog@@MAEXH@Z 00435648     qt-mt323:qt-mt323.dll
 0004:0000264c       __imp_?contextMenuEvent@QDialog@@MAEXPAVQContextMenuEvent@@@Z 0043564c     qt-mt323:qt-mt323.dll
 0004:00002650       __imp_?closeEvent@QDialog@@MAEXPAVQCloseEvent@@@Z 00435650     qt-mt323:qt-mt323.dll
 0004:00002654       __imp_?resizeEvent@QDialog@@MAEXPAVQResizeEvent@@@Z 00435654     qt-mt323:qt-mt323.dll
 0004:00002658       __imp_?keyPressEvent@QDialog@@MAEXPAVQKeyEvent@@@Z 00435658     qt-mt323:qt-mt323.dll
 0004:0000265c       __imp_?minimumSizeHint@QDialog@@UBE?AVQSize@@XZ 0043565c     qt-mt323:qt-mt323.dll
 0004:00002660       __imp_?sizeHint@QDialog@@UBE?AVQSize@@XZ 00435660     qt-mt323:qt-mt323.dll
 0004:00002664       __imp_?rebalance@QMapPrivateBase@@QAEXPAUQMapNodeBase@@AAPAU2@@Z 00435664     qt-mt323:qt-mt323.dll
 0004:00002668       __imp_?setGeometry@QDialog@@UAEXABVQRect@@@Z 00435668     qt-mt323:qt-mt323.dll
 0004:0000266c       __imp_?resize@QDialog@@UAEXHH@Z 0043566c     qt-mt323:qt-mt323.dll
 0004:00002670       __imp_?move@QDialog@@UAEXHH@Z 00435670     qt-mt323:qt-mt323.dll
 0004:00002674       __imp_?hide@QDialog@@UAEXXZ 00435674     qt-mt323:qt-mt323.dll
 0004:00002678       __imp_?show@QDialog@@UAEXXZ 00435678     qt-mt323:qt-mt323.dll
 0004:0000267c       __imp_?eventFilter@QDialog@@MAE_NPAVQObject@@PAVQEvent@@@Z 0043567c     qt-mt323:qt-mt323.dll
 0004:00002680       __imp_??1QDialog@@UAE@XZ   00435680     qt-mt323:qt-mt323.dll
 0004:00002684       __imp_??0QDialog@@QAE@PAVQWidget@@PBD_NI@Z 00435684     qt-mt323:qt-mt323.dll
 0004:00002688       __imp_?exec@QDialog@@QAEHXZ 00435688     qt-mt323:qt-mt323.dll
 0004:0000268c       __imp_?closeStdin@QProcess@@UAEXXZ 0043568c     qt-mt323:qt-mt323.dll
 0004:00002690       __imp_?writeToStdin@QProcess@@UAEXABV?$QMemArray@D@@@Z 00435690     qt-mt323:qt-mt323.dll
 0004:00002694       __imp_?writeToStdin@QProcess@@UAEXABVQString@@@Z 00435694     qt-mt323:qt-mt323.dll
 0004:00002698       __imp_?readLineStderr@QProcess@@UAE?AVQString@@XZ 00435698     qt-mt323:qt-mt323.dll
 0004:0000269c       __imp_?readLineStdout@QProcess@@UAE?AVQString@@XZ 0043569c     qt-mt323:qt-mt323.dll
 0004:000026a0       __imp_?readStderr@QProcess@@UAE?AV?$QMemArray@D@@XZ 004356a0     qt-mt323:qt-mt323.dll
 0004:000026a4       __imp_?readStdout@QProcess@@UAE?AV?$QMemArray@D@@XZ 004356a4     qt-mt323:qt-mt323.dll
 0004:000026a8       __imp_?launch@QProcess@@UAE_NABVQString@@PAVQStringList@@@Z 004356a8     qt-mt323:qt-mt323.dll
 0004:000026ac       __imp_?launch@QProcess@@UAE_NABV?$QMemArray@D@@PAVQStringList@@@Z 004356ac     qt-mt323:qt-mt323.dll
 0004:000026b0       __imp_?start@QProcess@@UAE_NPAVQStringList@@@Z 004356b0     qt-mt323:qt-mt323.dll
 0004:000026b4       __imp_?setWorkingDirectory@QProcess@@UAEXABVQDir@@@Z 004356b4     qt-mt323:qt-mt323.dll
 0004:000026b8       __imp_?setWFlags@QWidget@@MAEXI@Z 004356b8     qt-mt323:qt-mt323.dll
 0004:000026bc       __imp_?setArguments@QProcess@@UAEXABVQStringList@@@Z 004356bc     qt-mt323:qt-mt323.dll
 0004:000026c0       __imp_?disconnectNotify@QProcess@@MAEXPBD@Z 004356c0     qt-mt323:qt-mt323.dll
 0004:000026c4       __imp_?connectNotify@QProcess@@MAEXPBD@Z 004356c4     qt-mt323:qt-mt323.dll
 0004:000026c8       __imp_?imEndEvent@QWidget@@MAEXPAVQIMEvent@@@Z 004356c8     qt-mt323:qt-mt323.dll
 0004:000026cc       __imp_?qt_emit@QProcess@@UAE_NHPAUQUObject@@@Z 004356cc     qt-mt323:qt-mt323.dll
 0004:000026d0       __imp_?qt_invoke@QProcess@@UAE_NHPAUQUObject@@@Z 004356d0     qt-mt323:qt-mt323.dll
 0004:000026d4       __imp_?qt_cast@QProcess@@UAEPAXPBD@Z 004356d4     qt-mt323:qt-mt323.dll
 0004:000026d8       __imp_?className@QProcess@@UBEPBDXZ 004356d8     qt-mt323:qt-mt323.dll
 0004:000026dc       __imp_?metaObject@QProcess@@UBEPAVQMetaObject@@XZ 004356dc     qt-mt323:qt-mt323.dll
 0004:000026e0       __imp_??1QProcess@@UAE@XZ  004356e0     qt-mt323:qt-mt323.dll
 0004:000026e4       __imp_??0QProcess@@QAE@PAVQObject@@PBD@Z 004356e4     qt-mt323:qt-mt323.dll
 0004:000026e8       __imp_?startTimer@QObject@@QAEHH@Z 004356e8     qt-mt323:qt-mt323.dll
 0004:000026ec       __imp_?killTimer@QObject@@QAEXH@Z 004356ec     qt-mt323:qt-mt323.dll
 0004:000026f0       __imp_?arguments@QProcess@@QBE?AVQStringList@@XZ 004356f0     qt-mt323:qt-mt323.dll
 0004:000026f4       __imp_?qWarning@@YAXPBDZZ  004356f4     qt-mt323:qt-mt323.dll
 0004:000026f8       __imp_?sort@QStringList@@QAEXXZ 004356f8     qt-mt323:qt-mt323.dll
 0004:000026fc       __imp_?arg@QString@@QBE?AV1@IHH@Z 004356fc     qt-mt323:qt-mt323.dll
 0004:00002700       __imp_??1QApplication@@UAE@XZ 00435700     qt-mt323:qt-mt323.dll
 0004:00002704       __imp_?exec@QApplication@@QAEHXZ 00435704     qt-mt323:qt-mt323.dll
 0004:00002708       __imp_?setMainWidget@QApplication@@UAEXPAVQWidget@@@Z 00435708     qt-mt323:qt-mt323.dll
 0004:0000270c       __imp_?addLibraryPath@QApplication@@SAXABVQString@@@Z 0043570c     qt-mt323:qt-mt323.dll
 0004:00002710       __imp_??0QApplication@@QAE@AAHPAPAD@Z 00435710     qt-mt323:qt-mt323.dll
 0004:00002714       __imp_?paintCell@QListBox@@MAEXPAVQPainter@@HH@Z 00435714     qt-mt323:qt-mt323.dll
 0004:00002718       __imp_?invertSelection@QListBox@@UAEXXZ 00435718     qt-mt323:qt-mt323.dll
 0004:0000271c       __imp_?selectAll@QListBox@@UAEX_N@Z 0043571c     qt-mt323:qt-mt323.dll
 0004:00002720       __imp_?clearSelection@QListBox@@UAEXXZ 00435720     qt-mt323:qt-mt323.dll
 0004:00002724       __imp_?ensureCurrentVisible@QListBox@@UAEXXZ 00435724     qt-mt323:qt-mt323.dll
 0004:00002728       __imp_?setVariableHeight@QListBox@@UAEX_N@Z 00435728     qt-mt323:qt-mt323.dll
 0004:0000272c       __imp_?setVariableWidth@QListBox@@UAEX_N@Z 0043572c     qt-mt323:qt-mt323.dll
 0004:00002730       __imp_?setRowMode@QListBox@@UAEXW4LayoutMode@1@@Z 00435730     qt-mt323:qt-mt323.dll
 0004:00002734       __imp_?setRowMode@QListBox@@UAEXH@Z 00435734     qt-mt323:qt-mt323.dll
 0004:00002738       __imp_?setColumnMode@QListBox@@UAEXW4LayoutMode@1@@Z 00435738     qt-mt323:qt-mt323.dll
 0004:0000273c       __imp_?setColumnMode@QListBox@@UAEXH@Z 0043573c     qt-mt323:qt-mt323.dll
 0004:00002740       __imp_?setSelected@QListBox@@UAEXPAVQListBoxItem@@_N@Z 00435740     qt-mt323:qt-mt323.dll
 0004:00002744       __imp_?setSelectionMode@QListBox@@UAEXW4SelectionMode@1@@Z 00435744     qt-mt323:qt-mt323.dll
 0004:00002748       __imp_?setBottomItem@QListBox@@UAEXH@Z 00435748     qt-mt323:qt-mt323.dll
 0004:0000274c       __imp_?setTopItem@QListBox@@UAEXH@Z 0043574c     qt-mt323:qt-mt323.dll
 0004:00002750       __imp_?setCurrentItem@QListBox@@UAEXH@Z 00435750     qt-mt323:qt-mt323.dll
 0004:00002754       __imp_?setCurrentItem@QListBox@@UAEXPAVQListBoxItem@@@Z 00435754     qt-mt323:qt-mt323.dll
 0004:00002758       __imp_?setVBarGeometry@QScrollView@@MAEXAAVQScrollBar@@HHHH@Z 00435758     qt-mt323:qt-mt323.dll
 0004:0000275c       __imp_?setHBarGeometry@QScrollView@@MAEXAAVQScrollBar@@HHHH@Z 0043575c     qt-mt323:qt-mt323.dll
 0004:00002760       __imp_?setMargins@QScrollView@@MAEXHHHH@Z 00435760     qt-mt323:qt-mt323.dll
 0004:00002764       __imp_?viewportContextMenuEvent@QScrollView@@MAEXPAVQContextMenuEvent@@@Z 00435764     qt-mt323:qt-mt323.dll
 0004:00002768       __imp_?viewportWheelEvent@QScrollView@@MAEXPAVQWheelEvent@@@Z 00435768     qt-mt323:qt-mt323.dll
 0004:0000276c       __imp_?viewportDropEvent@QScrollView@@MAEXPAVQDropEvent@@@Z 0043576c     qt-mt323:qt-mt323.dll
 0004:00002770       __imp_?viewportDragLeaveEvent@QScrollView@@MAEXPAVQDragLeaveEvent@@@Z 00435770     qt-mt323:qt-mt323.dll
 0004:00002774       __imp_?viewportDragMoveEvent@QScrollView@@MAEXPAVQDragMoveEvent@@@Z 00435774     qt-mt323:qt-mt323.dll
 0004:00002778       __imp_?viewportDragEnterEvent@QScrollView@@MAEXPAVQDragEnterEvent@@@Z 00435778     qt-mt323:qt-mt323.dll
 0004:0000277c       __imp_?viewportMouseMoveEvent@QScrollView@@MAEXPAVQMouseEvent@@@Z 0043577c     qt-mt323:qt-mt323.dll
 0004:00002780       __imp_?viewportMouseDoubleClickEvent@QScrollView@@MAEXPAVQMouseEvent@@@Z 00435780     qt-mt323:qt-mt323.dll
 0004:00002784       __imp_?viewportMouseReleaseEvent@QScrollView@@MAEXPAVQMouseEvent@@@Z 00435784     qt-mt323:qt-mt323.dll
 0004:00002788       __imp_?viewportMousePressEvent@QScrollView@@MAEXPAVQMouseEvent@@@Z 00435788     qt-mt323:qt-mt323.dll
 0004:0000278c       __imp_?viewportResizeEvent@QScrollView@@MAEXPAVQResizeEvent@@@Z 0043578c     qt-mt323:qt-mt323.dll
 0004:00002790       __imp_?viewportPaintEvent@QListBox@@UAEXPAVQPaintEvent@@@Z 00435790     qt-mt323:qt-mt323.dll
 0004:00002794       __imp_?contentsContextMenuEvent@QListBox@@MAEXPAVQContextMenuEvent@@@Z 00435794     qt-mt323:qt-mt323.dll
 0004:00002798       __imp_?contentsWheelEvent@QScrollView@@MAEXPAVQWheelEvent@@@Z 00435798     qt-mt323:qt-mt323.dll
 0004:0000279c       __imp_?contentsDropEvent@QScrollView@@MAEXPAVQDropEvent@@@Z 0043579c     qt-mt323:qt-mt323.dll
 0004:000027a0       __imp_?contentsDragLeaveEvent@QScrollView@@MAEXPAVQDragLeaveEvent@@@Z 004357a0     qt-mt323:qt-mt323.dll
 0004:000027a4       __imp_?contentsDragMoveEvent@QScrollView@@MAEXPAVQDragMoveEvent@@@Z 004357a4     qt-mt323:qt-mt323.dll
 0004:000027a8       __imp_?contentsDragEnterEvent@QScrollView@@MAEXPAVQDragEnterEvent@@@Z 004357a8     qt-mt323:qt-mt323.dll
 0004:000027ac       __imp_?contentsMouseMoveEvent@QScrollView@@MAEXPAVQMouseEvent@@@Z 004357ac     qt-mt323:qt-mt323.dll
 0004:000027b0       __imp_?contentsMouseDoubleClickEvent@QScrollView@@MAEXPAVQMouseEvent@@@Z 004357b0     qt-mt323:qt-mt323.dll
 0004:000027b4       __imp_?contentsMouseReleaseEvent@QScrollView@@MAEXPAVQMouseEvent@@@Z 004357b4     qt-mt323:qt-mt323.dll
 0004:000027b8       __imp_?contentsMousePressEvent@QScrollView@@MAEXPAVQMouseEvent@@@Z 004357b8     qt-mt323:qt-mt323.dll
 0004:000027bc       __imp_?drawContentsOffset@QScrollView@@MAEXPAVQPainter@@HHHHHH@Z 004357bc     qt-mt323:qt-mt323.dll
 0004:000027c0       __imp_?drawContents@QScrollView@@MAEXPAVQPainter@@HHHH@Z 004357c0     qt-mt323:qt-mt323.dll
 0004:000027c4       __imp_?setContentsPos@QScrollView@@UAEXHH@Z 004357c4     qt-mt323:qt-mt323.dll
 0004:000027c8       __imp_?resizeContents@QScrollView@@UAEXHH@Z 004357c8     qt-mt323:qt-mt323.dll
 0004:000027cc       __imp_?setDragAutoScroll@QScrollView@@UAEX_N@Z 004357cc     qt-mt323:qt-mt323.dll
 0004:000027d0       __imp_?setCornerWidget@QScrollView@@UAEXPAVQWidget@@@Z 004357d0     qt-mt323:qt-mt323.dll
 0004:000027d4       __imp_?setHScrollBarMode@QScrollView@@UAEXW4ScrollBarMode@1@@Z 004357d4     qt-mt323:qt-mt323.dll
 0004:000027d8       __imp_?setVScrollBarMode@QScrollView@@UAEXW4ScrollBarMode@1@@Z 004357d8     qt-mt323:qt-mt323.dll
 0004:000027dc       __imp_?moveChild@QScrollView@@UAEXPAVQWidget@@HH@Z 004357dc     qt-mt323:qt-mt323.dll
 0004:000027e0       __imp_?addChild@QScrollView@@UAEXPAVQWidget@@HH@Z 004357e0     qt-mt323:qt-mt323.dll
 0004:000027e4       __imp_?setResizePolicy@QScrollView@@UAEXW4ResizePolicy@1@@Z 004357e4     qt-mt323:qt-mt323.dll
 0004:000027e8       __imp_?frameChanged@QScrollView@@MAEXXZ 004357e8     qt-mt323:qt-mt323.dll
 0004:000027ec       __imp_?drawContents@QScrollView@@EAEXPAVQPainter@@@Z 004357ec     qt-mt323:qt-mt323.dll
 0004:000027f0       __imp_?focusNextPrevChild@QScrollView@@MAE_N_N@Z 004357f0     qt-mt323:qt-mt323.dll
 0004:000027f4       __imp_?windowActivationChange@QListBox@@MAEX_N@Z 004357f4     qt-mt323:qt-mt323.dll
 0004:000027f8       __imp_?fontChange@QScrollView@@MAEXABVQFont@@@Z 004357f8     qt-mt323:qt-mt323.dll
 0004:000027fc       __imp_?styleChange@QScrollView@@UAEXAAVQStyle@@@Z 004357fc     qt-mt323:qt-mt323.dll
 0004:00002800       __imp_?showEvent@QListBox@@MAEXPAVQShowEvent@@@Z 00435800     qt-mt323:qt-mt323.dll
 0004:00002804       __imp_?contextMenuEvent@QScrollView@@MAEXPAVQContextMenuEvent@@@Z 00435804     qt-mt323:qt-mt323.dll
 0004:00002808       __imp_?resizeEvent@QListBox@@MAEXPAVQResizeEvent@@@Z 00435808     qt-mt323:qt-mt323.dll
 0004:0000280c       __imp_?focusOutEvent@QListBox@@MAEXPAVQFocusEvent@@@Z 0043580c     qt-mt323:qt-mt323.dll
 0004:00002810       __imp_?focusInEvent@QListBox@@MAEXPAVQFocusEvent@@@Z 00435810     qt-mt323:qt-mt323.dll
 0004:00002814       __imp_?keyPressEvent@QListBox@@MAEXPAVQKeyEvent@@@Z 00435814     qt-mt323:qt-mt323.dll
 0004:00002818       __imp_?wheelEvent@QScrollView@@MAEXPAVQWheelEvent@@@Z 00435818     qt-mt323:qt-mt323.dll
 0004:0000281c       __imp_?mouseMoveEvent@QListBox@@MAEXPAVQMouseEvent@@@Z 0043581c     qt-mt323:qt-mt323.dll
 0004:00002820       __imp_?mouseDoubleClickEvent@QListBox@@MAEXPAVQMouseEvent@@@Z 00435820     qt-mt323:qt-mt323.dll
 0004:00002824       __imp_?mouseReleaseEvent@QListBox@@MAEXPAVQMouseEvent@@@Z 00435824     qt-mt323:qt-mt323.dll
 0004:00002828       __imp_?mousePressEvent@QListBox@@MAEXPAVQMouseEvent@@@Z 00435828     qt-mt323:qt-mt323.dll
 0004:0000282c       __imp_?minimumSizeHint@QListBox@@UBE?AVQSize@@XZ 0043582c     qt-mt323:qt-mt323.dll
 0004:00002830       __imp_?sizeHint@QListBox@@UBE?AVQSize@@XZ 00435830     qt-mt323:qt-mt323.dll
 0004:00002834       __imp_?resize@QScrollView@@UAEXHH@Z 00435834     qt-mt323:qt-mt323.dll
 0004:00002838       __imp_?show@QScrollView@@UAEXXZ 00435838     qt-mt323:qt-mt323.dll
 0004:0000283c       __imp_?setFont@QListBox@@UAEXABVQFont@@@Z 0043583c     qt-mt323:qt-mt323.dll
 0004:00002840       __imp_?setEnabled@QScrollView@@UAEX_N@Z 00435840     qt-mt323:qt-mt323.dll
 0004:00002844       __imp_?removeChild@QScrollView@@UAEXPAVQObject@@@Z 00435844     qt-mt323:qt-mt323.dll
 0004:00002848       __imp_?eventFilter@QListBox@@MAE_NPAVQObject@@PAVQEvent@@@Z 00435848     qt-mt323:qt-mt323.dll
 0004:0000284c       __imp_?qt_property@QListBox@@UAE_NHHPAVQVariant@@@Z 0043584c     qt-mt323:qt-mt323.dll
 0004:00002850       __imp_?qt_emit@QListBox@@UAE_NHPAUQUObject@@@Z 00435850     qt-mt323:qt-mt323.dll
 0004:00002854       __imp_?qt_invoke@QListBox@@UAE_NHPAUQUObject@@@Z 00435854     qt-mt323:qt-mt323.dll
 0004:00002858       __imp_?qt_cast@QListBox@@UAEPAXPBD@Z 00435858     qt-mt323:qt-mt323.dll
 0004:0000285c       __imp_?className@QListBox@@UBEPBDXZ 0043585c     qt-mt323:qt-mt323.dll
 0004:00002860       __imp_?metaObject@QListBox@@UBEPAVQMetaObject@@XZ 00435860     qt-mt323:qt-mt323.dll
 0004:00002864       __imp_?setAlignment@QLayoutItem@@UAEXH@Z 00435864     qt-mt323:qt-mt323.dll
 0004:00002868       __imp_?spacerItem@QLayoutItem@@UAEPAVQSpacerItem@@XZ 00435868     qt-mt323:qt-mt323.dll
 0004:0000286c       __imp_?layout@QLayout@@UAEPAV1@XZ 0043586c     qt-mt323:qt-mt323.dll
 0004:00002870       __imp_?iterator@QBoxLayout@@UAE?AVQLayoutIterator@@XZ 00435870     qt-mt323:qt-mt323.dll
 0004:00002874       __imp_?widget@QLayoutItem@@UAEPAVQWidget@@XZ 00435874     qt-mt323:qt-mt323.dll
 0004:00002878       __imp_?invalidate@QBoxLayout@@UAEXXZ 00435878     qt-mt323:qt-mt323.dll
 0004:0000287c       __imp_?heightForWidth@QBoxLayout@@UBEHH@Z 0043587c     qt-mt323:qt-mt323.dll
 0004:00002880       __imp_?hasHeightForWidth@QBoxLayout@@UBE_NXZ 00435880     qt-mt323:qt-mt323.dll
 0004:00002884       __imp_?isEmpty@QLayout@@UBE_NXZ 00435884     qt-mt323:qt-mt323.dll
 0004:00002888       __imp_?geometry@QLayout@@UBE?AVQRect@@XZ 00435888     qt-mt323:qt-mt323.dll
 0004:0000288c       __imp_?setGeometry@QBoxLayout@@UAEXABVQRect@@@Z 0043588c     qt-mt323:qt-mt323.dll
 0004:00002890       __imp_?expanding@QBoxLayout@@UBE?AW4ExpandData@QSizePolicy@@XZ 00435890     qt-mt323:qt-mt323.dll
 0004:00002894       __imp_?maximumSize@QBoxLayout@@UBE?AVQSize@@XZ 00435894     qt-mt323:qt-mt323.dll
 0004:00002898       __imp_?minimumSize@QBoxLayout@@UBE?AVQSize@@XZ 00435898     qt-mt323:qt-mt323.dll
 0004:0000289c       __imp_?sizeHint@QBoxLayout@@UBE?AVQSize@@XZ 0043589c     qt-mt323:qt-mt323.dll
 0004:000028a0       __imp_?addItem@QBoxLayout@@UAEXPAVQLayoutItem@@@Z 004358a0     qt-mt323:qt-mt323.dll
 0004:000028a4       __imp_?setAutoAdd@QLayout@@UAEX_N@Z 004358a4     qt-mt323:qt-mt323.dll
 0004:000028a8       __imp_?setMenuBar@QLayout@@UAEXPAVQMenuBar@@@Z 004358a8     qt-mt323:qt-mt323.dll
 0004:000028ac       __imp_?setSpacing@QLayout@@UAEXH@Z 004358ac     qt-mt323:qt-mt323.dll
 0004:000028b0       __imp_?setMargin@QLayout@@UAEXH@Z 004358b0     qt-mt323:qt-mt323.dll
 0004:000028b4       __imp_?childEvent@QLayout@@MAEXPAVQChildEvent@@@Z 004358b4     qt-mt323:qt-mt323.dll
 0004:000028b8       __imp_?eventFilter@QLayout@@MAE_NPAVQObject@@PAVQEvent@@@Z 004358b8     qt-mt323:qt-mt323.dll
 0004:000028bc       __imp_?qt_property@QVBoxLayout@@UAE_NHHPAVQVariant@@@Z 004358bc     qt-mt323:qt-mt323.dll
 0004:000028c0       __imp_?qt_emit@QVBoxLayout@@UAE_NHPAUQUObject@@@Z 004358c0     qt-mt323:qt-mt323.dll
 0004:000028c4       __imp_?qt_invoke@QVBoxLayout@@UAE_NHPAUQUObject@@@Z 004358c4     qt-mt323:qt-mt323.dll
 0004:000028c8       __imp_?qt_cast@QVBoxLayout@@UAEPAXPBD@Z 004358c8     qt-mt323:qt-mt323.dll
 0004:000028cc       __imp_?className@QVBoxLayout@@UBEPBDXZ 004358cc     qt-mt323:qt-mt323.dll
 0004:000028d0       __imp_?metaObject@QVBoxLayout@@UBEPAVQMetaObject@@XZ 004358d0     qt-mt323:qt-mt323.dll
 0004:000028d4       __imp_?pos@QWidget@@QBE?AVQPoint@@XZ 004358d4     qt-mt323:qt-mt323.dll
 0004:000028d8       __imp_?addWidget@QBoxLayout@@QAEXPAVQWidget@@HH@Z 004358d8     qt-mt323:qt-mt323.dll
 0004:000028dc       __imp_??0QListBox@@QAE@PAVQWidget@@PBDI@Z 004358dc     qt-mt323:qt-mt323.dll
 0004:000028e0       __imp_??0QVBoxLayout@@QAE@PAVQWidget@@HHPBD@Z 004358e0     qt-mt323:qt-mt323.dll
 0004:000028e4       __imp_?setStyle@QApplication@@SAPAVQStyle@@ABVQString@@@Z 004358e4     qt-mt323:qt-mt323.dll
 0004:000028e8       __imp_??1QPixmap@@UAE@XZ   004358e8     qt-mt323:qt-mt323.dll
 0004:000028ec       __imp_??0QPixmap@@QAE@QAPBD@Z 004358ec     qt-mt323:qt-mt323.dll
 0004:000028f0       __imp_??1QVBoxLayout@@UAE@XZ 004358f0     qt-mt323:qt-mt323.dll
 0004:000028f4       __imp_??1QListBox@@UAE@XZ  004358f4     qt-mt323:qt-mt323.dll
 0004:000028f8       __imp_?insertItem@QListBox@@QAEXABVQString@@H@Z 004358f8     qt-mt323:qt-mt323.dll
 0004:000028fc       __imp_??1QWidgetList@@UAE@XZ 004358fc     qt-mt323:qt-mt323.dll
 0004:00002900       __imp_?next@QGList@@IAEPAXXZ 00435900     qt-mt323:qt-mt323.dll
 0004:00002904       __imp_??_7QWidgetList@@6B@ 00435904     qt-mt323:qt-mt323.dll
 0004:00002908       __imp_?rightJustify@QString@@QBE?AV1@IVQChar@@_N@Z 00435908     qt-mt323:qt-mt323.dll
 0004:0000290c       __imp_?setFixedSize@QWidget@@QAEXABVQSize@@@Z 0043590c     qt-mt323:qt-mt323.dll
 0004:00002910       __imp_?hasAlpha@QPixmap@@QBE_NXZ 00435910     qt-mt323:qt-mt323.dll
 0004:00002914       __imp_??0QPixmap@@QAE@ABVQString@@PBDW4ColorMode@0@@Z 00435914     qt-mt323:qt-mt323.dll
 0004:00002918       __imp_??1QSocket@@UAE@XZ   00435918     qt-mt323:qt-mt323.dll
 0004:0000291c       __imp_??0QSocket@@QAE@PAVQObject@@PBD@Z 0043591c     qt-mt323:qt-mt323.dll
 0004:00002920       __imp_??1QDesktopWidget@@UAE@XZ 00435920     qt-mt323:qt-mt323.dll
 0004:00002924       __imp_?screenGeometry@QDesktopWidget@@QBEABVQRect@@H@Z 00435924     qt-mt323:qt-mt323.dll
 0004:00002928       __imp_??0QDesktopWidget@@QAE@XZ 00435928     qt-mt323:qt-mt323.dll
 0004:0000292c       __imp_?menuDelPopup@QPopupMenu@@EAEXPAV1@@Z 0043592c     qt-mt323:qt-mt323.dll
 0004:00002930       __imp_?menuInsPopup@QPopupMenu@@EAEXPAV1@@Z 00435930     qt-mt323:qt-mt323.dll
 0004:00002934       __imp_?menuStateChanged@QPopupMenu@@EAEXXZ 00435934     qt-mt323:qt-mt323.dll
 0004:00002938       __imp_?menuContentsChanged@QPopupMenu@@EAEXXZ 00435938     qt-mt323:qt-mt323.dll
 0004:0000293c       __imp_?activateItemAt@QPopupMenu@@UAEXH@Z 0043593c     qt-mt323:qt-mt323.dll
 0004:00002940       __imp_?setId@QMenuData@@UAEXHH@Z 00435940     qt-mt323:qt-mt323.dll
 0004:00002944       __imp_?updateItem@QPopupMenu@@UAEXH@Z 00435944     qt-mt323:qt-mt323.dll
 0004:00002948       __imp_?setFirstItemActive@QPopupMenu@@EAEXXZ 00435948     qt-mt323:qt-mt323.dll
 0004:0000294c       __imp_?setActiveItem@QPopupMenu@@UAEXH@Z 0043594c     qt-mt323:qt-mt323.dll
 0004:00002950       __imp_?setCheckable@QPopupMenu@@UAEX_N@Z 00435950     qt-mt323:qt-mt323.dll
 0004:00002954       __imp_?frameChanged@QPopupMenu@@EAEXXZ 00435954     qt-mt323:qt-mt323.dll
 0004:00002958       __imp_?drawContents@QPopupMenu@@MAEXPAVQPainter@@@Z 00435958     qt-mt323:qt-mt323.dll
 0004:0000295c       __imp_?focusNextPrevChild@QPopupMenu@@MAE_N_N@Z 0043595c     qt-mt323:qt-mt323.dll
 0004:00002960       __imp_?enabledChange@QPopupMenu@@MAEX_N@Z 00435960     qt-mt323:qt-mt323.dll
 0004:00002964       __imp_?styleChange@QPopupMenu@@MAEXAAVQStyle@@@Z 00435964     qt-mt323:qt-mt323.dll
 0004:00002968       __imp_?closeEvent@QPopupMenu@@MAEXPAVQCloseEvent@@@Z 00435968     qt-mt323:qt-mt323.dll
 0004:0000296c       __imp_?paintEvent@QPopupMenu@@MAEXPAVQPaintEvent@@@Z 0043596c     qt-mt323:qt-mt323.dll
 0004:00002970       __imp_?leaveEvent@QPopupMenu@@MAEXPAVQEvent@@@Z 00435970     qt-mt323:qt-mt323.dll
 0004:00002974       __imp_?focusOutEvent@QPopupMenu@@MAEXPAVQFocusEvent@@@Z 00435974     qt-mt323:qt-mt323.dll
 0004:00002978       __imp_?focusInEvent@QPopupMenu@@MAEXPAVQFocusEvent@@@Z 00435978     qt-mt323:qt-mt323.dll
 0004:0000297c       __imp_?keyPressEvent@QPopupMenu@@MAEXPAVQKeyEvent@@@Z 0043597c     qt-mt323:qt-mt323.dll
 0004:00002980       __imp_?mouseMoveEvent@QPopupMenu@@MAEXPAVQMouseEvent@@@Z 00435980     qt-mt323:qt-mt323.dll
 0004:00002984       __imp_?mouseReleaseEvent@QPopupMenu@@MAEXPAVQMouseEvent@@@Z 00435984     qt-mt323:qt-mt323.dll
 0004:00002988       __imp_?mousePressEvent@QPopupMenu@@MAEXPAVQMouseEvent@@@Z 00435988     qt-mt323:qt-mt323.dll
 0004:0000298c       __imp_?customWhatsThis@QPopupMenu@@UBE_NXZ 0043598c     qt-mt323:qt-mt323.dll
 0004:00002990       __imp_?sizeHint@QPopupMenu@@UBE?AVQSize@@XZ 00435990     qt-mt323:qt-mt323.dll
 0004:00002994       __imp_?hide@QPopupMenu@@UAEXXZ 00435994     qt-mt323:qt-mt323.dll
 0004:00002998       __imp_?show@QPopupMenu@@UAEXXZ 00435998     qt-mt323:qt-mt323.dll
 0004:0000299c       __imp_?setFont@QPopupMenu@@UAEXABVQFont@@@Z 0043599c     qt-mt323:qt-mt323.dll
 0004:000029a0       __imp_?timerEvent@QPopupMenu@@MAEXPAVQTimerEvent@@@Z 004359a0     qt-mt323:qt-mt323.dll
 0004:000029a4       __imp_?qt_property@QPopupMenu@@UAE_NHHPAVQVariant@@@Z 004359a4     qt-mt323:qt-mt323.dll
 0004:000029a8       __imp_?qt_emit@QPopupMenu@@UAE_NHPAUQUObject@@@Z 004359a8     qt-mt323:qt-mt323.dll
 0004:000029ac       __imp_?qt_invoke@QPopupMenu@@UAE_NHPAUQUObject@@@Z 004359ac     qt-mt323:qt-mt323.dll
 0004:000029b0       __imp_?qt_cast@QPopupMenu@@UAEPAXPBD@Z 004359b0     qt-mt323:qt-mt323.dll
 0004:000029b4       __imp_?className@QPopupMenu@@UBEPBDXZ 004359b4     qt-mt323:qt-mt323.dll
 0004:000029b8       __imp_?metaObject@QPopupMenu@@UBEPAVQMetaObject@@XZ 004359b8     qt-mt323:qt-mt323.dll
 0004:000029bc       __imp_?event@QTimer@@MAE_NPAVQEvent@@@Z 004359bc     qt-mt323:qt-mt323.dll
 0004:000029c0       __imp_?qt_property@QTimer@@UAE_NHHPAVQVariant@@@Z 004359c0     qt-mt323:qt-mt323.dll
 0004:000029c4       __imp_?qt_emit@QTimer@@UAE_NHPAUQUObject@@@Z 004359c4     qt-mt323:qt-mt323.dll
 0004:000029c8       __imp_?qt_invoke@QTimer@@UAE_NHPAUQUObject@@@Z 004359c8     qt-mt323:qt-mt323.dll
 0004:000029cc       __imp_?qt_cast@QTimer@@UAEPAXPBD@Z 004359cc     qt-mt323:qt-mt323.dll
 0004:000029d0       __imp_?className@QTimer@@UBEPBDXZ 004359d0     qt-mt323:qt-mt323.dll
 0004:000029d4       __imp_?metaObject@QTimer@@UBEPAVQMetaObject@@XZ 004359d4     qt-mt323:qt-mt323.dll
 0004:000029d8       __imp_?setNum@QLabel@@UAEXH@Z 004359d8     qt-mt323:qt-mt323.dll
 0004:000029dc       __imp_?setNum@QLabel@@UAEXN@Z 004359dc     qt-mt323:qt-mt323.dll
 0004:000029e0       __imp_?setMovie@QLabel@@UAEXABVQMovie@@@Z 004359e0     qt-mt323:qt-mt323.dll
 0004:000029e4       __imp_?setPicture@QLabel@@UAEXABVQPicture@@@Z 004359e4     qt-mt323:qt-mt323.dll
 0004:000029e8       __imp_?setPixmap@QLabel@@UAEXABVQPixmap@@@Z 004359e8     qt-mt323:qt-mt323.dll
 0004:000029ec       __imp_?setText@QLabel@@UAEXABVQString@@@Z 004359ec     qt-mt323:qt-mt323.dll
 0004:000029f0       __imp_?setBuddy@QLabel@@UAEXPAVQWidget@@@Z 004359f0     qt-mt323:qt-mt323.dll
 0004:000029f4       __imp_?setAutoResize@QLabel@@UAEX_N@Z 004359f4     qt-mt323:qt-mt323.dll
 0004:000029f8       __imp_?setAlignment@QLabel@@UAEXH@Z 004359f8     qt-mt323:qt-mt323.dll
 0004:000029fc       __imp_?frameChanged@QFrame@@MAEXXZ 004359fc     qt-mt323:qt-mt323.dll
 0004:00002a00       __imp_?drawContents@QLabel@@MAEXPAVQPainter@@@Z 00435a00     qt-mt323:qt-mt323.dll
 0004:00002a04       __imp_?fontChange@QLabel@@MAEXABVQFont@@@Z 00435a04     qt-mt323:qt-mt323.dll
 0004:00002a08       __imp_?resizeEvent@QLabel@@MAEXPAVQResizeEvent@@@Z 00435a08     qt-mt323:qt-mt323.dll
 0004:00002a0c       __imp_?heightForWidth@QLabel@@UBEHH@Z 00435a0c     qt-mt323:qt-mt323.dll
 0004:00002a10       __imp_?minimumSizeHint@QLabel@@UBE?AVQSize@@XZ 00435a10     qt-mt323:qt-mt323.dll
 0004:00002a14       __imp_?sizeHint@QLabel@@UBE?AVQSize@@XZ 00435a14     qt-mt323:qt-mt323.dll
 0004:00002a18       __imp_?setFont@QLabel@@UAEXABVQFont@@@Z 00435a18     qt-mt323:qt-mt323.dll
 0004:00002a1c       __imp_?qt_property@QLabel@@UAE_NHHPAVQVariant@@@Z 00435a1c     qt-mt323:qt-mt323.dll
 0004:00002a20       __imp_?qt_emit@QLabel@@UAE_NHPAUQUObject@@@Z 00435a20     qt-mt323:qt-mt323.dll
 0004:00002a24       __imp_?qt_invoke@QLabel@@UAE_NHPAUQUObject@@@Z 00435a24     qt-mt323:qt-mt323.dll
 0004:00002a28       __imp_?qt_cast@QLabel@@UAEPAXPBD@Z 00435a28     qt-mt323:qt-mt323.dll
 0004:00002a2c       __imp_?className@QLabel@@UBEPBDXZ 00435a2c     qt-mt323:qt-mt323.dll
 0004:00002a30       __imp_?metaObject@QLabel@@UBEPAVQMetaObject@@XZ 00435a30     qt-mt323:qt-mt323.dll
 0004:00002a34       __imp_?stop@QTimer@@QAEXXZ 00435a34     qt-mt323:qt-mt323.dll
 0004:00002a38       __imp_?start@QTimer@@QAEHH_N@Z 00435a38     qt-mt323:qt-mt323.dll
 0004:00002a3c       __imp_??0QTimer@@QAE@PAVQObject@@PBD@Z 00435a3c     qt-mt323:qt-mt323.dll
 0004:00002a40       __imp_?setFixedSize@QWidget@@QAEXHH@Z 00435a40     qt-mt323:qt-mt323.dll
 0004:00002a44       __imp_??0QLabel@@QAE@PAVQWidget@@PBDI@Z 00435a44     qt-mt323:qt-mt323.dll
 0004:00002a48       __imp_??1QLabel@@UAE@XZ    00435a48     qt-mt323:qt-mt323.dll
 0004:00002a4c       __imp_??1QTimer@@UAE@XZ    00435a4c     qt-mt323:qt-mt323.dll
 0004:00002a50       __imp_??1QFileInfo@@QAE@XZ 00435a50     qt-mt323:qt-mt323.dll
 0004:00002a54       __imp_?dirPath@QFileInfo@@QBE?AVQString@@_N@Z 00435a54     qt-mt323:qt-mt323.dll
 0004:00002a58       __imp_??0QFileInfo@@QAE@ABVQString@@@Z 00435a58     qt-mt323:qt-mt323.dll
 0004:00002a5c       __imp_??1QDir@@UAE@XZ      00435a5c     qt-mt323:qt-mt323.dll
 0004:00002a60       __imp_??0QDir@@QAE@ABVQString@@0HH@Z 00435a60     qt-mt323:qt-mt323.dll
 0004:00002a64       __imp_?toString@QDate@@QBE?AVQString@@ABV2@@Z 00435a64     qt-mt323:qt-mt323.dll
 0004:00002a68       __imp_?currentDate@QDate@@SA?AV1@W4TimeSpec@Qt@@@Z 00435a68     qt-mt323:qt-mt323.dll
 0004:00002a6c       __imp_??9@YA_NABVQString@@0@Z 00435a6c     qt-mt323:qt-mt323.dll
 0004:00002a70       __imp_?toString@QTime@@QBE?AVQString@@ABV2@@Z 00435a70     qt-mt323:qt-mt323.dll
 0004:00002a74       __imp_?currentTime@QTime@@SA?AV1@W4TimeSpec@Qt@@@Z 00435a74     qt-mt323:qt-mt323.dll
 0004:00002a78       __imp_??1QPainter@@QAE@XZ  00435a78     qt-mt323:qt-mt323.dll
 0004:00002a7c       __imp_??1QColorGroup@@QAE@XZ 00435a7c     qt-mt323:qt-mt323.dll
 0004:00002a80       __imp_?rect@QWidget@@QBE?AVQRect@@XZ 00435a80     qt-mt323:qt-mt323.dll
 0004:00002a84       __imp_?style@QWidget@@QBEAAVQStyle@@XZ 00435a84     qt-mt323:qt-mt323.dll
 0004:00002a88       __imp_??0QColorGroup@@QAE@ABV0@@Z 00435a88     qt-mt323:qt-mt323.dll
 0004:00002a8c       __imp_?colorGroup@QWidget@@QBEABVQColorGroup@@XZ 00435a8c     qt-mt323:qt-mt323.dll
 0004:00002a90       __imp_??0QPainter@@QAE@PBVQPaintDevice@@_N@Z 00435a90     qt-mt323:qt-mt323.dll
 0004:00002a94       __imp_??1QBitmap@@UAE@XZ   00435a94     qt-mt323:qt-mt323.dll
 0004:00002a98       __imp_??0QPainter@@QAE@PBVQPaintDevice@@PBVQWidget@@_N@Z 00435a98     qt-mt323:qt-mt323.dll
 0004:00002a9c       __imp_?fill@QPixmap@@QAEXABVQColor@@@Z 00435a9c     qt-mt323:qt-mt323.dll
 0004:00002aa0       __imp_?white@Qt@@2AAVQColor@@A 00435aa0     qt-mt323:qt-mt323.dll
 0004:00002aa4       __imp_??0QBitmap@@QAE@ABVQSize@@_NW4Optimization@QPixmap@@@Z 00435aa4     qt-mt323:qt-mt323.dll
 0004:00002aa8       __imp_??0QMetaObjectCleanUp@@QAE@PBDP6APAVQMetaObject@@XZ@Z 00435aa8     qt-mt323:qt-mt323.dll
 0004:00002aac       __imp_??1QMetaObjectCleanUp@@QAE@XZ 00435aac     qt-mt323:qt-mt323.dll
 0004:00002ab0       __imp_?setMetaObject@QMetaObjectCleanUp@@QAEXAAPAVQMetaObject@@@Z 00435ab0     qt-mt323:qt-mt323.dll
 0004:00002ab4       __imp_?new_metaobject@QMetaObject@@SAPAV1@PBDPAV1@QBUQMetaData@@H2HQBVQMetaProperty@@HQBUQMetaEnum@@HQBUQClassInfo@@H@Z 00435ab4     qt-mt323:qt-mt323.dll
 0004:00002ab8       __imp_?static_QUType_QString@@3UQUType_QString@@A 00435ab8     qt-mt323:qt-mt323.dll
 0004:00002abc       __imp_?static_QUType_int@@3UQUType_int@@A 00435abc     qt-mt323:qt-mt323.dll
 0004:00002ac0       __imp_?set@QUType_int@@QAEXPAUQUObject@@H@Z 00435ac0     qt-mt323:qt-mt323.dll
 0004:00002ac4       __imp_?staticMetaObject@QObject@@SAPAVQMetaObject@@XZ 00435ac4     qt-mt323:qt-mt323.dll
 0004:00002ac8       __imp_?qt_cast@QObject@@UAEPAXPBD@Z 00435ac8     qt-mt323:qt-mt323.dll
 0004:00002acc       __imp_?qt_invoke@QObject@@UAE_NHPAUQUObject@@@Z 00435acc     qt-mt323:qt-mt323.dll
 0004:00002ad0       __imp_?qt_emit@QObject@@UAE_NHPAUQUObject@@@Z 00435ad0     qt-mt323:qt-mt323.dll
 0004:00002ad4       __imp_?qt_property@QObject@@UAE_NHHPAVQVariant@@@Z 00435ad4     qt-mt323:qt-mt323.dll
 0004:00002ad8       __imp_?staticMetaObject@QDialog@@SAPAVQMetaObject@@XZ 00435ad8     qt-mt323:qt-mt323.dll
 0004:00002adc       __imp_?qt_cast@QDialog@@UAEPAXPBD@Z 00435adc     qt-mt323:qt-mt323.dll
 0004:00002ae0       __imp_?qt_invoke@QDialog@@UAE_NHPAUQUObject@@@Z 00435ae0     qt-mt323:qt-mt323.dll
 0004:00002ae4       __imp_?qt_emit@QDialog@@UAE_NHPAUQUObject@@@Z 00435ae4     qt-mt323:qt-mt323.dll
 0004:00002ae8       __imp_?qt_property@QDialog@@UAE_NHHPAVQVariant@@@Z 00435ae8     qt-mt323:qt-mt323.dll
 0004:00002aec       __imp_?staticMetaObject@QWidget@@SAPAVQMetaObject@@XZ 00435aec     qt-mt323:qt-mt323.dll
 0004:00002af0       __imp_?focusNextPrevChild@QWidget@@MAE_N_N@Z 00435af0     qt-mt323:qt-mt323.dll
 0004:00002af4       __imp_?setKeyCompression@QWidget@@MAEX_N@Z 00435af4     qt-mt323:qt-mt323.dll
 0004:00002af8       __imp_?setMicroFocusHint@QWidget@@MAEXHHHH_NPAVQFont@@@Z 00435af8     qt-mt323:qt-mt323.dll
 0004:00002afc       __imp_?setResolution@QPaintDevice@@UAEXH@Z 00435afc     qt-mt323:qt-mt323.dll
 0004:00002b00       __imp_?resolution@QPaintDevice@@UBEHXZ 00435b00     qt-mt323:qt-mt323.dll
 0004:00002b04       __imp_?handle@QPaintDevice@@UBEPAUHDC__@@XZ 00435b04     qt-mt323:qt-mt323.dll
 0004:00002b08       __imp_?cmd@QPaintDevice@@MAE_NHPAVQPainter@@PATQPDevCmdParam@@@Z 00435b08     qt-mt323:qt-mt323.dll
 0004:00002b0c       __imp_?metric@QWidget@@MBEHH@Z 00435b0c     qt-mt323:qt-mt323.dll
 0004:00002b10       __imp_?fontMet@QPaintDevice@@MBEHPAVQFont@@HPBDH@Z 00435b10     qt-mt323:qt-mt323.dll
 0004:00002b14       __imp_?tabletEvent@QWidget@@MAEXPAVQTabletEvent@@@Z 00435b14     qt-mt323:qt-mt323.dll
 0004:00002b18       __imp_?dragEnterEvent@QWidget@@MAEXPAVQDragEnterEvent@@@Z 00435b18     qt-mt323:qt-mt323.dll
 0004:00002b1c       __imp_?dragMoveEvent@QWidget@@MAEXPAVQDragMoveEvent@@@Z 00435b1c     qt-mt323:qt-mt323.dll
 0004:00002b20       __imp_?dragLeaveEvent@QWidget@@MAEXPAVQDragLeaveEvent@@@Z 00435b20     qt-mt323:qt-mt323.dll
 0004:00002b24       __imp_?dropEvent@QWidget@@MAEXPAVQDropEvent@@@Z 00435b24     qt-mt323:qt-mt323.dll
 0004:00002b28       __imp_?showEvent@QWidget@@MAEXPAVQShowEvent@@@Z 00435b28     qt-mt323:qt-mt323.dll
 0004:00002b2c       __imp_?hideEvent@QWidget@@MAEXPAVQHideEvent@@@Z 00435b2c     qt-mt323:qt-mt323.dll
 0004:00002b30       __imp_?winEvent@QWidget@@MAE_NPAUtagMSG@@@Z 00435b30     qt-mt323:qt-mt323.dll
 0004:00002b34       __imp_?updateMask@QWidget@@MAEXXZ 00435b34     qt-mt323:qt-mt323.dll
 0004:00002b38       __imp_?styleChange@QWidget@@MAEXAAVQStyle@@@Z 00435b38     qt-mt323:qt-mt323.dll
 0004:00002b3c       __imp_?enabledChange@QWidget@@MAEX_N@Z 00435b3c     qt-mt323:qt-mt323.dll
 0004:00002b40       __imp_?paletteChange@QWidget@@MAEXABVQPalette@@@Z 00435b40     qt-mt323:qt-mt323.dll
 0004:00002b44       __imp_?fontChange@QWidget@@MAEXABVQFont@@@Z 00435b44     qt-mt323:qt-mt323.dll
 0004:00002b48       __imp_?windowActivationChange@QWidget@@MAEX_N@Z 00435b48     qt-mt323:qt-mt323.dll
 0004:00002b4c       __imp_?create@QWidget@@MAEXPAUHWND__@@_N1@Z 00435b4c     qt-mt323:qt-mt323.dll
 0004:00002b50       __imp_?destroy@QWidget@@MAEX_N0@Z 00435b50     qt-mt323:qt-mt323.dll
 0004:00002b54       __imp_?qt_property@QProcess@@UAE_NHHPAVQVariant@@@Z 00435b54     qt-mt323:qt-mt323.dll
 0004:00002b58       __imp_?setWState@QWidget@@MAEXI@Z 00435b58     qt-mt323:qt-mt323.dll
 0004:00002b5c       __imp_?fontInf@QPaintDevice@@MBEHPAVQFont@@H@Z 00435b5c     qt-mt323:qt-mt323.dll
 0004:00002b60       __imp_??1QGListIterator@@IAE@XZ 00435b60     qt-mt323:qt-mt323.dll
 0004:00002b64       __imp_??0QGListIterator@@IAE@ABV0@@Z 00435b64     qt-mt323:qt-mt323.dll
 0004:00002b68       __imp_??4QGListIterator@@IAEAAV0@ABV0@@Z 00435b68     qt-mt323:qt-mt323.dll
 0004:00002b6c       __imp_??0QGListIterator@@IAE@ABVQGList@@@Z 00435b6c     qt-mt323:qt-mt323.dll
 0004:00002b70       __imp_??4QGList@@IAEAAV0@ABV0@@Z 00435b70     qt-mt323:qt-mt323.dll
 0004:00002b74       __imp_?addArgument@QProcess@@UAEXABVQString@@@Z 00435b74     qt-mt323:qt-mt323.dll
 0004:00002b78       __imp_??0QGList@@IAE@ABV0@@Z 00435b78     qt-mt323:qt-mt323.dll
 0004:00002b7c       __imp_??M@YA_NABVQString@@0@Z 00435b7c     qt-mt323:qt-mt323.dll
 0004:00002b80       __imp_?removeAndRebalance@QMapPrivateBase@@QAEPAUQMapNodeBase@@PAU2@AAPAU2@11@Z 00435b80     qt-mt323:qt-mt323.dll
 0004:00002b84       __imp_??1?$QPtrList@VQWidget@@@@UAE@XZ 00435b84     qt-mt323:qt-mt323.dll
 0004:00002b88       __imp_?append@?$QValueList@VQString@@@@QAE?AV?$QValueListIterator@VQString@@@@ABVQString@@@Z 00435b88     qt-mt323:qt-mt323.dll
 0004:00002b8c       __imp_??1?$QValueList@VQString@@@@QAE@XZ 00435b8c     qt-mt323:qt-mt323.dll
 0004:00002b90       __imp_?add@QToolTip@@SAXPAVQWidget@@ABVQString@@@Z 00435b90     qt-mt323:qt-mt323.dll
 0004:00002b94       __imp_?last@QGList@@IAEPAXXZ 00435b94     qt-mt323:qt-mt323.dll
 0004:00002b98       __imp_?first@QGList@@IAEPAXXZ 00435b98     qt-mt323:qt-mt323.dll
 0004:00002b9c       __imp_?remove@QGList@@IAE_NPAX@Z 00435b9c     qt-mt323:qt-mt323.dll
 0004:00002ba0       __imp_??0QDomDocument@@QAE@ABVQString@@@Z 00435ba0     qt-mt323:qt-mt323.dll
 0004:00002ba4       __imp_?attribute@QDomElement@@QBE?AVQString@@ABV2@0@Z 00435ba4     qt-mt323:qt-mt323.dll
 0004:00002ba8       __imp_?tagName@QDomElement@@QBE?AVQString@@XZ 00435ba8     qt-mt323:qt-mt323.dll
 0004:00002bac       __imp_?null@QString@@2V1@A 00435bac     qt-mt323:qt-mt323.dll
 0004:00002bb0       __imp_?contains@QString@@QBEHPBD_N@Z 00435bb0     qt-mt323:qt-mt323.dll
 0004:00002bb4       __imp_?section@QString@@QBE?AV1@PBDHHH@Z 00435bb4     qt-mt323:qt-mt323.dll
 0004:00002bb8       __imp_?truncate@QString@@QAEXI@Z 00435bb8     qt-mt323:qt-mt323.dll
 0004:00002bbc       __imp_??0?$QValueList@VQString@@@@QAE@XZ 00435bbc     qt-mt323:qt-mt323.dll
 0004:00002bc0       __imp_?left@QString@@QBE?AV1@I@Z 00435bc0     qt-mt323:qt-mt323.dll
 0004:00002bc4       __imp_?mid@QString@@QBE?AV1@II@Z 00435bc4     qt-mt323:qt-mt323.dll
 0004:00002bc8       __imp_??H@YA?BVQString@@PBDABV0@@Z 00435bc8     qt-mt323:qt-mt323.dll
 0004:00002bcc       __imp_??4QString@@QAEAAV0@PBD@Z 00435bcc     qt-mt323:qt-mt323.dll
 0004:00002bd0       __imp_?append@QGList@@IAEXPAX@Z 00435bd0     qt-mt323:qt-mt323.dll
 0004:00002bd4       __imp_?arg@QString@@QBE?AV1@ABV1@H@Z 00435bd4     qt-mt323:qt-mt323.dll
 0004:00002bd8       __imp_??1QStringList@@QAE@XZ 00435bd8     qt-mt323:qt-mt323.dll
 0004:00002bdc       __imp_??0QString@@QAE@XZ   00435bdc     qt-mt323:qt-mt323.dll
 0004:00002be0       __imp_??0QFile@@QAE@ABVQString@@@Z 00435be0     qt-mt323:qt-mt323.dll
 0004:00002be4       __imp_?open@QFile@@UAE_NH@Z 00435be4     qt-mt323:qt-mt323.dll
 0004:00002be8       __imp_??0QTextStream@@QAE@PAVQIODevice@@@Z 00435be8     qt-mt323:qt-mt323.dll
 0004:00002bec       __imp_?atEnd@QTextStream@@QBE_NXZ 00435bec     qt-mt323:qt-mt323.dll
 0004:00002bf0       __imp_?readLine@QTextStream@@QAE?AVQString@@XZ 00435bf0     qt-mt323:qt-mt323.dll
 0004:00002bf4       __imp_??4QString@@QAEAAV0@ABV0@@Z 00435bf4     qt-mt323:qt-mt323.dll
 0004:00002bf8       __imp_??YQString@@QAEAAV0@ABV0@@Z 00435bf8     qt-mt323:qt-mt323.dll
 0004:00002bfc       __imp_?close@QFile@@UAEXXZ 00435bfc     qt-mt323:qt-mt323.dll
 0004:00002c00       __imp_??1QTextStream@@UAE@XZ 00435c00     qt-mt323:qt-mt323.dll
 0004:00002c04       __imp_??0QDomDocument@@QAE@XZ 00435c04     qt-mt323:qt-mt323.dll
 0004:00002c08       __imp_?setContent@QDomDocument@@QAE_NABVQString@@PAV2@PAH2@Z 00435c08     qt-mt323:qt-mt323.dll
 0004:00002c0c       __imp_?documentElement@QDomDocument@@QBE?AVQDomElement@@XZ 00435c0c     qt-mt323:qt-mt323.dll
 0004:00002c10       __imp_?firstChild@QDomNode@@UBE?AV1@XZ 00435c10     qt-mt323:qt-mt323.dll
 0004:00002c14       __imp_?isNull@QDomNode@@QBE_NXZ 00435c14     qt-mt323:qt-mt323.dll
 0004:00002c18       __imp_?lower@QString@@QBE?AV1@XZ 00435c18     qt-mt323:qt-mt323.dll
 0004:00002c1c       __imp_?attributeNode@QDomElement@@QAE?AVQDomAttr@@ABVQString@@@Z 00435c1c     qt-mt323:qt-mt323.dll
 0004:00002c20       __imp_?toElement@QDomNode@@QAE?AVQDomElement@@XZ 00435c20     qt-mt323:qt-mt323.dll
 0004:00002c24       __imp_??8@YA_NABVQString@@0@Z 00435c24     qt-mt323:qt-mt323.dll
 0004:00002c28       __imp_??1QDomAttr@@UAE@XZ  00435c28     qt-mt323:qt-mt323.dll
 0004:00002c2c       __imp_?nextSibling@QDomNode@@UBE?AV1@XZ 00435c2c     qt-mt323:qt-mt323.dll
 0004:00002c30       __imp_??4QDomNode@@QAEAAV0@ABV0@@Z 00435c30     qt-mt323:qt-mt323.dll
 0004:00002c34       __imp_??1QDomNode@@UAE@XZ  00435c34     qt-mt323:qt-mt323.dll
 0004:00002c38       __imp_??1QDomElement@@UAE@XZ 00435c38     qt-mt323:qt-mt323.dll
 0004:00002c3c       __imp_??0QString@@QAE@ABV0@@Z 00435c3c     qt-mt323:qt-mt323.dll
 0004:00002c40       __imp_??1QDomDocument@@UAE@XZ 00435c40     qt-mt323:qt-mt323.dll
 0004:00002c44       __imp_??1QFile@@UAE@XZ     00435c44     qt-mt323:qt-mt323.dll
 0004:00002c48       __imp_?clear@QGList@@MAEXXZ 00435c48     qt-mt323:qt-mt323.dll
 0004:00002c4c       __imp_??1QGList@@MAE@XZ    00435c4c     qt-mt323:qt-mt323.dll
 0004:00002c50       __imp_??0QGList@@IAE@XZ    00435c50     qt-mt323:qt-mt323.dll
 0004:00002c54       __imp_?qDebug@@YAXPBDZZ    00435c54     qt-mt323:qt-mt323.dll
 0004:00002c58       __imp_??H@YA?BVQString@@ABV0@PBD@Z 00435c58     qt-mt323:qt-mt323.dll
 0004:00002c5c       __imp_??1QString@@QAE@XZ   00435c5c     qt-mt323:qt-mt323.dll
 0004:00002c60       __imp_?ascii@QString@@QBEPBDXZ 00435c60     qt-mt323:qt-mt323.dll
 0004:00002c64       __imp_??0QString@@QAE@PBD@Z 00435c64     qt-mt323:qt-mt323.dll
 0004:00002c68       __imp_?upper@QString@@QBE?AV1@XZ 00435c68     qt-mt323:qt-mt323.dll
 0004:00002c6c       __imp_??8@YA_NABVQString@@PBD@Z 00435c6c     qt-mt323:qt-mt323.dll
 0004:00002c70       __imp_?newItem@QPtrCollection@@MAEPAXPAX@Z 00435c70     qt-mt323:qt-mt323.dll
 0004:00002c74       __imp_?read@QGList@@MAEAAVQDataStream@@AAV2@AAPAX@Z 00435c74     qt-mt323:qt-mt323.dll
 0004:00002c78       __imp_?write@QGList@@MBEAAVQDataStream@@AAV2@PAX@Z 00435c78     qt-mt323:qt-mt323.dll
 0004:00002c7c       __imp_?compareItems@QGList@@MAEHPAX0@Z 00435c7c     qt-mt323:qt-mt323.dll
 0004:00002c80       __imp_?setGeometry@QDialog@@UAEXHHHH@Z 00435c80     qt-mt323:qt-mt323.dll
 0004:00002c84       __imp_??0?$QMap@VQString@@V1@@@QAE@XZ 00435c84     qt-mt323:qt-mt323.dll
 0004:00002c88       __imp_??_7QCString@@6B@    00435c88     qt-mt323:qt-mt323.dll
 0004:00002c8c       __imp_??_7?$QMemArray@D@@6B@ 00435c8c     qt-mt323:qt-mt323.dll
 0004:00002c90       __imp_??0QGArray@@QAE@XZ   00435c90     qt-mt323:qt-mt323.dll
 0004:00002c94       __imp_??1?$QMap@VQString@@V1@@@QAE@XZ 00435c94     qt-mt323:qt-mt323.dll
 0004:00002c98       __imp_??1QCString@@UAE@XZ  00435c98     qt-mt323:qt-mt323.dll
 0004:00002c9c       __imp_?afterSeek@QSqlCursor@@MAEXXZ 00435c9c     qt-mt323:qt-mt323.dll
 0004:00002ca0       __imp_?beforeSeek@QSqlQuery@@MAEXXZ 00435ca0     qt-mt323:qt-mt323.dll
 0004:00002ca4       __imp_?last@QSqlQuery@@UAE_NXZ 00435ca4     qt-mt323:qt-mt323.dll
 0004:00002ca8       __imp_?first@QSqlQuery@@UAE_NXZ 00435ca8     qt-mt323:qt-mt323.dll
 0004:00002cac       __imp_?prev@QSqlQuery@@UAE_NXZ 00435cac     qt-mt323:qt-mt323.dll
 0004:00002cb0       __imp_?next@QSqlQuery@@UAE_NXZ 00435cb0     qt-mt323:qt-mt323.dll
 0004:00002cb4       __imp_?seek@QSqlQuery@@UAE_NH_N@Z 00435cb4     qt-mt323:qt-mt323.dll
 0004:00002cb8       __imp_?exec@QSqlCursor@@MAE_NABVQString@@@Z 00435cb8     qt-mt323:qt-mt323.dll
 0004:00002cbc       __imp_?calculateField@QSqlCursor@@MAE?AVQVariant@@ABVQString@@@Z 00435cbc     qt-mt323:qt-mt323.dll
 0004:00002cc0       __imp_?toString@QSqlCursor@@MBE?AVQString@@ABV2@PAVQSqlField@@0@Z 00435cc0     qt-mt323:qt-mt323.dll
 0004:00002cc4       __imp_?toString@QSqlCursor@@MBE?AVQString@@PAVQSqlRecord@@ABV2@11@Z 00435cc4     qt-mt323:qt-mt323.dll
 0004:00002cc8       __imp_?toString@QSqlCursor@@MBE?AVQString@@ABVQSqlIndex@@PAVQSqlRecord@@ABV2@22@Z 00435cc8     qt-mt323:qt-mt323.dll
 0004:00002ccc       __imp_?setName@QSqlCursor@@UAEXABVQString@@_N@Z 00435ccc     qt-mt323:qt-mt323.dll
 0004:00002cd0       __imp_?setFilter@QSqlCursor@@UAEXABVQString@@@Z 00435cd0     qt-mt323:qt-mt323.dll
 0004:00002cd4       __imp_?setSort@QSqlCursor@@UAEXABVQSqlIndex@@@Z 00435cd4     qt-mt323:qt-mt323.dll
 0004:00002cd8       __imp_?select@QSqlCursor@@UAE_NABVQString@@ABVQSqlIndex@@@Z 00435cd8     qt-mt323:qt-mt323.dll
 0004:00002cdc       __imp_?setTrimmed@QSqlCursor@@UAEXABVQString@@_N@Z 00435cdc     qt-mt323:qt-mt323.dll
 0004:00002ce0       __imp_?setCalculated@QSqlCursor@@UAEXABVQString@@_N@Z 00435ce0     qt-mt323:qt-mt323.dll
 0004:00002ce4       __imp_?setMode@QSqlCursor@@UAEXH@Z 00435ce4     qt-mt323:qt-mt323.dll
 0004:00002ce8       __imp_?del@QSqlCursor@@UAEH_N@Z 00435ce8     qt-mt323:qt-mt323.dll
 0004:00002cec       __imp_?del@QSqlCursor@@MAEHABVQString@@_N@Z 00435cec     qt-mt323:qt-mt323.dll
 0004:00002cf0       __imp_?update@QSqlCursor@@UAEH_N@Z 00435cf0     qt-mt323:qt-mt323.dll
 0004:00002cf4       __imp_?update@QSqlCursor@@MAEHABVQString@@_N@Z 00435cf4     qt-mt323:qt-mt323.dll
 0004:00002cf8       __imp_?primeDelete@QSqlCursor@@UAEPAVQSqlRecord@@XZ 00435cf8     qt-mt323:qt-mt323.dll
 0004:00002cfc       __imp_?primeUpdate@QSqlCursor@@UAEPAVQSqlRecord@@XZ 00435cfc     qt-mt323:qt-mt323.dll
 0004:00002d00       __imp_?primeInsert@QSqlCursor@@UAEPAVQSqlRecord@@XZ 00435d00     qt-mt323:qt-mt323.dll
 0004:00002d04       __imp_?editBuffer@QSqlCursor@@UAEPAVQSqlRecord@@_N@Z 00435d04     qt-mt323:qt-mt323.dll
 0004:00002d08       __imp_?insert@QSqlCursor@@UAEXHABVQSqlFieldInfo@@@Z 00435d08     qt-mt323:qt-mt323.dll
 0004:00002d0c       __imp_?insert@QSqlCursor@@UAEH_N@Z 00435d0c     qt-mt323:qt-mt323.dll
 0004:00002d10       __imp_?append@QSqlCursor@@UAEXABVQSqlFieldInfo@@@Z 00435d10     qt-mt323:qt-mt323.dll
 0004:00002d14       __imp_?setPrimaryIndex@QSqlCursor@@UAEXABVQSqlIndex@@@Z 00435d14     qt-mt323:qt-mt323.dll
 0004:00002d18       __imp_?index@QSqlCursor@@UBE?AVQSqlIndex@@ABVQStringList@@@Z 00435d18     qt-mt323:qt-mt323.dll
 0004:00002d1c       __imp_?primaryIndex@QSqlCursor@@UBE?AVQSqlIndex@@_N@Z 00435d1c     qt-mt323:qt-mt323.dll
 0004:00002d20       __imp_?toStringList@QSqlRecord@@UBE?AVQStringList@@ABVQString@@@Z 00435d20     qt-mt323:qt-mt323.dll
 0004:00002d24       __imp_?toString@QSqlCursor@@UBE?AVQString@@ABV2@0@Z 00435d24     qt-mt323:qt-mt323.dll
 0004:00002d28       __imp_?clearValues@QSqlRecord@@UAEX_N@Z 00435d28     qt-mt323:qt-mt323.dll
 0004:00002d2c       __imp_?clear@QSqlCursor@@UAEXXZ 00435d2c     qt-mt323:qt-mt323.dll
 0004:00002d30       __imp_?remove@QSqlCursor@@UAEXH@Z 00435d30     qt-mt323:qt-mt323.dll
 0004:00002d34       __imp_?insert@QSqlCursor@@EAEXHABVQSqlField@@@Z 00435d34     qt-mt323:qt-mt323.dll
 0004:00002d38       __imp_?append@QSqlCursor@@EAEXABVQSqlField@@@Z 00435d38     qt-mt323:qt-mt323.dll
 0004:00002d3c       __imp_?setNull@QSqlRecord@@UAEXH@Z 00435d3c     qt-mt323:qt-mt323.dll
 0004:00002d40       __imp_?setNull@QSqlRecord@@UAEXABVQString@@@Z 00435d40     qt-mt323:qt-mt323.dll
 0004:00002d44       __imp_?setGenerated@QSqlCursor@@UAEXABVQString@@_N@Z 00435d44     qt-mt323:qt-mt323.dll
 0004:00002d48       __imp_?setGenerated@QSqlCursor@@UAEXH_N@Z 00435d48     qt-mt323:qt-mt323.dll
 0004:00002d4c       __imp_?setValue@QSqlCursor@@UAEXHABVQVariant@@@Z 00435d4c     qt-mt323:qt-mt323.dll
 0004:00002d50       __imp_?setValue@QSqlCursor@@UAEXABVQString@@ABVQVariant@@@Z 00435d50     qt-mt323:qt-mt323.dll
 0004:00002d54       __imp_?value@QSqlCursor@@UBE?AVQVariant@@H@Z 00435d54     qt-mt323:qt-mt323.dll
 0004:00002d58       __imp_?value@QSqlCursor@@UBE?AVQVariant@@ABVQString@@@Z 00435d58     qt-mt323:qt-mt323.dll
 0004:00002d5c       __imp_??0QSqlCursor@@QAE@ABVQString@@_NPAVQSqlDatabase@@@Z 00435d5c     qt-mt323:qt-mt323.dll
 0004:00002d60       __imp_??0QGPluginManager@@QAE@ABUQUuid@@ABVQStringList@@ABVQString@@_N@Z 00435d60     qt-mt323:qt-mt323.dll
 0004:00002d64       __imp_??0QUuid@@QAE@IGGEEEEEEEE@Z 00435d64     qt-mt323:qt-mt323.dll
 0004:00002d68       __imp_?libraryPaths@QApplication@@SA?AVQStringList@@XZ 00435d68     qt-mt323:qt-mt323.dll
 0004:00002d6c       __imp_??1QSqlCursor@@UAE@XZ 00435d6c     qt-mt323:qt-mt323.dll
 0004:00002d70       __imp_??1QImage@@QAE@XZ    00435d70     qt-mt323:qt-mt323.dll
 0004:00002d74       __imp_??0QImage@@QAE@XZ    00435d74     qt-mt323:qt-mt323.dll
 0004:00002d78       __imp_??0QPixmap@@QAE@XZ   00435d78     qt-mt323:qt-mt323.dll
 0004:00002d7c       __imp_?centralWidget@QMainWindow@@QBEPAVQWidget@@XZ 00435d7c     qt-mt323:qt-mt323.dll
 0004:00002d80       __imp_??1QGArray@@MAE@XZ   00435d80     qt-mt323:qt-mt323.dll
 0004:00002d84       __imp_??0QGArray@@IAE@H@Z  00435d84     qt-mt323:qt-mt323.dll
 0004:00002d88       __imp_?drawButtonLabel@QCheckBox@@MAEXPAVQPainter@@@Z 00435d88     qt-mt323:qt-mt323.dll
 0004:00002d8c       __imp_?drawButton@QCheckBox@@MAEXPAVQPainter@@@Z 00435d8c     qt-mt323:qt-mt323.dll
 0004:00002d90       __imp_?hitButton@QCheckBox@@MBE_NABVQPoint@@@Z 00435d90     qt-mt323:qt-mt323.dll
 0004:00002d94       __imp_?updateMask@QCheckBox@@MAEXXZ 00435d94     qt-mt323:qt-mt323.dll
 0004:00002d98       __imp_?resizeEvent@QCheckBox@@MAEXPAVQResizeEvent@@@Z 00435d98     qt-mt323:qt-mt323.dll
 0004:00002d9c       __imp_?sizeHint@QCheckBox@@UBE?AVQSize@@XZ 00435d9c     qt-mt323:qt-mt323.dll
 0004:00002da0       __imp_?qt_property@QCheckBox@@UAE_NHHPAVQVariant@@@Z 00435da0     qt-mt323:qt-mt323.dll
 0004:00002da4       __imp_?qt_emit@QCheckBox@@UAE_NHPAUQUObject@@@Z 00435da4     qt-mt323:qt-mt323.dll
 0004:00002da8       __imp_?qt_invoke@QCheckBox@@UAE_NHPAUQUObject@@@Z 00435da8     qt-mt323:qt-mt323.dll
 0004:00002dac       __imp_?qt_cast@QCheckBox@@UAEPAXPBD@Z 00435dac     qt-mt323:qt-mt323.dll
 0004:00002db0       __imp_?className@QCheckBox@@UBEPBDXZ 00435db0     qt-mt323:qt-mt323.dll
 0004:00002db4       __imp_?metaObject@QCheckBox@@UBEPAVQMetaObject@@XZ 00435db4     qt-mt323:qt-mt323.dll
 0004:00002db8       __imp_?setEditText@QComboBox@@UAEXABVQString@@@Z 00435db8     qt-mt323:qt-mt323.dll
 0004:00002dbc       __imp_?popup@QComboBox@@UAEXXZ 00435dbc     qt-mt323:qt-mt323.dll
 0004:00002dc0       __imp_?setAutoCompletion@QComboBox@@UAEX_N@Z 00435dc0     qt-mt323:qt-mt323.dll
 0004:00002dc4       __imp_?setLineEdit@QComboBox@@UAEXPAVQLineEdit@@@Z 00435dc4     qt-mt323:qt-mt323.dll
 0004:00002dc8       __imp_?setListBox@QComboBox@@UAEXPAVQListBox@@@Z 00435dc8     qt-mt323:qt-mt323.dll
 0004:00002dcc       __imp_?setValidator@QComboBox@@UAEXPBVQValidator@@@Z 00435dcc     qt-mt323:qt-mt323.dll
 0004:00002dd0       __imp_?setInsertionPolicy@QComboBox@@UAEXW4Policy@1@@Z 00435dd0     qt-mt323:qt-mt323.dll
 0004:00002dd4       __imp_?setMaxCount@QComboBox@@UAEXH@Z 00435dd4     qt-mt323:qt-mt323.dll
 0004:00002dd8       __imp_?setSizeLimit@QComboBox@@UAEXH@Z 00435dd8     qt-mt323:qt-mt323.dll
 0004:00002ddc       __imp_?setAutoResize@QComboBox@@UAEX_N@Z 00435ddc     qt-mt323:qt-mt323.dll
 0004:00002de0       __imp_?setCurrentText@QComboBox@@UAEXABVQString@@@Z 00435de0     qt-mt323:qt-mt323.dll
 0004:00002de4       __imp_?setCurrentItem@QComboBox@@UAEXH@Z 00435de4     qt-mt323:qt-mt323.dll
 0004:00002de8       __imp_?styleChange@QComboBox@@MAEXAAVQStyle@@@Z 00435de8     qt-mt323:qt-mt323.dll
 0004:00002dec       __imp_?updateMask@QComboBox@@MAEXXZ 00435dec     qt-mt323:qt-mt323.dll
 0004:00002df0       __imp_?resizeEvent@QComboBox@@MAEXPAVQResizeEvent@@@Z 00435df0     qt-mt323:qt-mt323.dll
 0004:00002df4       __imp_?paintEvent@QComboBox@@MAEXPAVQPaintEvent@@@Z 00435df4     qt-mt323:qt-mt323.dll
 0004:00002df8       __imp_?focusOutEvent@QComboBox@@MAEXPAVQFocusEvent@@@Z 00435df8     qt-mt323:qt-mt323.dll
 0004:00002dfc       __imp_?focusInEvent@QComboBox@@MAEXPAVQFocusEvent@@@Z 00435dfc     qt-mt323:qt-mt323.dll
 0004:00002e00       __imp_?keyPressEvent@QComboBox@@MAEXPAVQKeyEvent@@@Z 00435e00     qt-mt323:qt-mt323.dll
 0004:00002e04       __imp_?wheelEvent@QComboBox@@MAEXPAVQWheelEvent@@@Z 00435e04     qt-mt323:qt-mt323.dll
 0004:00002e08       __imp_?mouseMoveEvent@QComboBox@@MAEXPAVQMouseEvent@@@Z 00435e08     qt-mt323:qt-mt323.dll
 0004:00002e0c       __imp_?mouseDoubleClickEvent@QComboBox@@MAEXPAVQMouseEvent@@@Z 00435e0c     qt-mt323:qt-mt323.dll
 0004:00002e10       __imp_?mouseReleaseEvent@QComboBox@@MAEXPAVQMouseEvent@@@Z 00435e10     qt-mt323:qt-mt323.dll
 0004:00002e14       __imp_?mousePressEvent@QComboBox@@MAEXPAVQMouseEvent@@@Z 00435e14     qt-mt323:qt-mt323.dll
 0004:00002e18       __imp_?sizeHint@QComboBox@@UBE?AVQSize@@XZ 00435e18     qt-mt323:qt-mt323.dll
 0004:00002e1c       __imp_?setFont@QComboBox@@UAEXABVQFont@@@Z 00435e1c     qt-mt323:qt-mt323.dll
 0004:00002e20       __imp_?setPalette@QComboBox@@UAEXABVQPalette@@@Z 00435e20     qt-mt323:qt-mt323.dll
 0004:00002e24       __imp_?setEnabled@QComboBox@@UAEX_N@Z 00435e24     qt-mt323:qt-mt323.dll
 0004:00002e28       __imp_?eventFilter@QComboBox@@UAE_NPAVQObject@@PAVQEvent@@@Z 00435e28     qt-mt323:qt-mt323.dll
 0004:00002e2c       __imp_?qt_property@QComboBox@@UAE_NHHPAVQVariant@@@Z 00435e2c     qt-mt323:qt-mt323.dll
 0004:00002e30       __imp_?qt_emit@QComboBox@@UAE_NHPAUQUObject@@@Z 00435e30     qt-mt323:qt-mt323.dll
 0004:00002e34       __imp_?qt_invoke@QComboBox@@UAE_NHPAUQUObject@@@Z 00435e34     qt-mt323:qt-mt323.dll
 0004:00002e38       __imp_?qt_cast@QComboBox@@UAEPAXPBD@Z 00435e38     qt-mt323:qt-mt323.dll
 0004:00002e3c       __imp_?className@QComboBox@@UBEPBDXZ 00435e3c     qt-mt323:qt-mt323.dll
 0004:00002e40       __imp_?metaObject@QComboBox@@UBEPAVQMetaObject@@XZ 00435e40     qt-mt323:qt-mt323.dll
 0004:00002e44       __imp_?setOn@QPushButton@@UAEX_N@Z 00435e44     qt-mt323:qt-mt323.dll
 0004:00002e48       __imp_?setIsMenuButton@QPushButton@@UAEX_N@Z 00435e48     qt-mt323:qt-mt323.dll
 0004:00002e4c       __imp_?setDefault@QPushButton@@UAEX_N@Z 00435e4c     qt-mt323:qt-mt323.dll
 0004:00002e50       __imp_?setAutoDefault@QPushButton@@UAEX_N@Z 00435e50     qt-mt323:qt-mt323.dll
 0004:00002e54       __imp_?drawButtonLabel@QPushButton@@MAEXPAVQPainter@@@Z 00435e54     qt-mt323:qt-mt323.dll
 0004:00002e58       __imp_?drawButton@QPushButton@@MAEXPAVQPainter@@@Z 00435e58     qt-mt323:qt-mt323.dll
 0004:00002e5c       __imp_?updateMask@QPushButton@@MAEXXZ 00435e5c     qt-mt323:qt-mt323.dll
 0004:00002e60       __imp_?resizeEvent@QPushButton@@MAEXPAVQResizeEvent@@@Z 00435e60     qt-mt323:qt-mt323.dll
 0004:00002e64       __imp_?focusOutEvent@QPushButton@@MAEXPAVQFocusEvent@@@Z 00435e64     qt-mt323:qt-mt323.dll
 0004:00002e68       __imp_?focusInEvent@QPushButton@@MAEXPAVQFocusEvent@@@Z 00435e68     qt-mt323:qt-mt323.dll
 0004:00002e6c       __imp_?sizeHint@QPushButton@@UBE?AVQSize@@XZ 00435e6c     qt-mt323:qt-mt323.dll
 0004:00002e70       __imp_?setGeometry@QPushButton@@UAEXHHHH@Z 00435e70     qt-mt323:qt-mt323.dll
 0004:00002e74       __imp_?setGeometry@QPushButton@@UAEXABVQRect@@@Z 00435e74     qt-mt323:qt-mt323.dll
 0004:00002e78       __imp_?resize@QPushButton@@UAEXHH@Z 00435e78     qt-mt323:qt-mt323.dll
 0004:00002e7c       __imp_?move@QPushButton@@UAEXHH@Z 00435e7c     qt-mt323:qt-mt323.dll
 0004:00002e80       __imp_?qt_property@QPushButton@@UAE_NHHPAVQVariant@@@Z 00435e80     qt-mt323:qt-mt323.dll
 0004:00002e84       __imp_?qt_emit@QPushButton@@UAE_NHPAUQUObject@@@Z 00435e84     qt-mt323:qt-mt323.dll
 0004:00002e88       __imp_?qt_invoke@QPushButton@@UAE_NHPAUQUObject@@@Z 00435e88     qt-mt323:qt-mt323.dll
 0004:00002e8c       __imp_?qt_cast@QPushButton@@UAEPAXPBD@Z 00435e8c     qt-mt323:qt-mt323.dll
 0004:00002e90       __imp_?className@QPushButton@@UBEPBDXZ 00435e90     qt-mt323:qt-mt323.dll
 0004:00002e94       __imp_?metaObject@QPushButton@@UBEPAVQMetaObject@@XZ 00435e94     qt-mt323:qt-mt323.dll
 0004:00002e98       __imp_?qt_property@QTextView@@UAE_NHHPAVQVariant@@@Z 00435e98     qt-mt323:qt-mt323.dll
 0004:00002e9c       __imp_?qt_emit@QTextView@@UAE_NHPAUQUObject@@@Z 00435e9c     qt-mt323:qt-mt323.dll
 0004:00002ea0       __imp_?qt_invoke@QTextView@@UAE_NHPAUQUObject@@@Z 00435ea0     qt-mt323:qt-mt323.dll
 0004:00002ea4       __imp_?qt_cast@QTextView@@UAEPAXPBD@Z 00435ea4     qt-mt323:qt-mt323.dll
 0004:00002ea8       __imp_?className@QTextView@@UBEPBDXZ 00435ea8     qt-mt323:qt-mt323.dll
 0004:00002eac       __imp_?metaObject@QTextView@@UBEPAVQMetaObject@@XZ 00435eac     qt-mt323:qt-mt323.dll
 0004:00002eb0       __imp_?end@QMultiLineEdit@@MAEX_N@Z 00435eb0     qt-mt323:qt-mt323.dll
 0004:00002eb4       __imp_?home@QMultiLineEdit@@MAEX_N@Z 00435eb4     qt-mt323:qt-mt323.dll
 0004:00002eb8       __imp_?backspace@QMultiLineEdit@@MAEXXZ 00435eb8     qt-mt323:qt-mt323.dll
 0004:00002ebc       __imp_?cursorDown@QMultiLineEdit@@MAEX_N@Z 00435ebc     qt-mt323:qt-mt323.dll
 0004:00002ec0       __imp_?cursorUp@QMultiLineEdit@@MAEX_N@Z 00435ec0     qt-mt323:qt-mt323.dll
 0004:00002ec4       __imp_?cursorRight@QMultiLineEdit@@MAEX_N0@Z 00435ec4     qt-mt323:qt-mt323.dll
 0004:00002ec8       __imp_?cursorLeft@QMultiLineEdit@@MAEX_N0@Z 00435ec8     qt-mt323:qt-mt323.dll
 0004:00002ecc       __imp_?pageDown@QMultiLineEdit@@MAEX_N@Z 00435ecc     qt-mt323:qt-mt323.dll
 0004:00002ed0       __imp_?pageUp@QMultiLineEdit@@MAEX_N@Z 00435ed0     qt-mt323:qt-mt323.dll
 0004:00002ed4       __imp_?killLine@QMultiLineEdit@@MAEXXZ 00435ed4     qt-mt323:qt-mt323.dll
 0004:00002ed8       __imp_?newLine@QMultiLineEdit@@MAEXXZ 00435ed8     qt-mt323:qt-mt323.dll
 0004:00002edc       __imp_?insertAndMark@QMultiLineEdit@@MAEXABVQString@@_N@Z 00435edc     qt-mt323:qt-mt323.dll
 0004:00002ee0       __imp_?setAutoUpdate@QMultiLineEdit@@UAEX_N@Z 00435ee0     qt-mt323:qt-mt323.dll
 0004:00002ee4       __imp_?setCursorPosition@QMultiLineEdit@@UAEXHH_N@Z 00435ee4     qt-mt323:qt-mt323.dll
 0004:00002ee8       __imp_?removeLine@QMultiLineEdit@@UAEXH@Z 00435ee8     qt-mt323:qt-mt323.dll
 0004:00002eec       __imp_?insertAt@QMultiLineEdit@@UAEXABVQString@@HH_N@Z 00435eec     qt-mt323:qt-mt323.dll
 0004:00002ef0       __imp_?insertLine@QMultiLineEdit@@UAEXABVQString@@H@Z 00435ef0     qt-mt323:qt-mt323.dll
 0004:00002ef4       __imp_?insertAt@QMultiLineEdit@@UAEXABVQString@@HH@Z 00435ef4     qt-mt323:qt-mt323.dll
 0004:00002ef8       __imp_?setCursorPosition@QMultiLineEdit@@UAEXHH@Z 00435ef8     qt-mt323:qt-mt323.dll
 0004:00002efc       __imp_?setAlignment@QMultiLineEdit@@UAEXH@Z 00435efc     qt-mt323:qt-mt323.dll
 0004:00002f00       __imp_?qt_property@QMultiLineEdit@@UAE_NHHPAVQVariant@@@Z 00435f00     qt-mt323:qt-mt323.dll
 0004:00002f04       __imp_?qt_emit@QMultiLineEdit@@UAE_NHPAUQUObject@@@Z 00435f04     qt-mt323:qt-mt323.dll
 0004:00002f08       __imp_?qt_invoke@QMultiLineEdit@@UAE_NHPAUQUObject@@@Z 00435f08     qt-mt323:qt-mt323.dll
 0004:00002f0c       __imp_?qt_cast@QMultiLineEdit@@UAEPAXPBD@Z 00435f0c     qt-mt323:qt-mt323.dll
 0004:00002f10       __imp_?className@QMultiLineEdit@@UBEPBDXZ 00435f10     qt-mt323:qt-mt323.dll
 0004:00002f14       __imp_?metaObject@QMultiLineEdit@@UBEPAVQMetaObject@@XZ 00435f14     qt-mt323:qt-mt323.dll
 0004:00002f18       __imp_?moveFocus@QButtonGroup@@UAEXH@Z 00435f18     qt-mt323:qt-mt323.dll
 0004:00002f1c       __imp_?setButton@QButtonGroup@@UAEXH@Z 00435f1c     qt-mt323:qt-mt323.dll
 0004:00002f20       __imp_?setRadioButtonExclusive@QButtonGroup@@UAEX_N@Z 00435f20     qt-mt323:qt-mt323.dll
 0004:00002f24       __imp_?setExclusive@QButtonGroup@@UAEX_N@Z 00435f24     qt-mt323:qt-mt323.dll
 0004:00002f28       __imp_?event@QButtonGroup@@MAE_NPAVQEvent@@@Z 00435f28     qt-mt323:qt-mt323.dll
 0004:00002f2c       __imp_?qt_property@QButtonGroup@@UAE_NHHPAVQVariant@@@Z 00435f2c     qt-mt323:qt-mt323.dll
 0004:00002f30       __imp_?qt_emit@QButtonGroup@@UAE_NHPAUQUObject@@@Z 00435f30     qt-mt323:qt-mt323.dll
 0004:00002f34       __imp_?qt_invoke@QButtonGroup@@UAE_NHPAUQUObject@@@Z 00435f34     qt-mt323:qt-mt323.dll
 0004:00002f38       __imp_?qt_cast@QButtonGroup@@UAEPAXPBD@Z 00435f38     qt-mt323:qt-mt323.dll
 0004:00002f3c       __imp_?className@QButtonGroup@@UBEPBDXZ 00435f3c     qt-mt323:qt-mt323.dll
 0004:00002f40       __imp_?metaObject@QButtonGroup@@UBEPAVQMetaObject@@XZ 00435f40     qt-mt323:qt-mt323.dll
 0004:00002f44       __imp_?rangeChange@QDial@@MAEXXZ 00435f44     qt-mt323:qt-mt323.dll
 0004:00002f48       __imp_?valueChange@QDial@@MAEXXZ 00435f48     qt-mt323:qt-mt323.dll
 0004:00002f4c       __imp_?repaintScreen@QDial@@MAEXPBVQRect@@@Z 00435f4c     qt-mt323:qt-mt323.dll
 0004:00002f50       __imp_?setTracking@QDial@@UAEX_N@Z 00435f50     qt-mt323:qt-mt323.dll
 0004:00002f54       __imp_?setWrapping@QDial@@UAEX_N@Z 00435f54     qt-mt323:qt-mt323.dll
 0004:00002f58       __imp_?setNotchesVisible@QDial@@UAEX_N@Z 00435f58     qt-mt323:qt-mt323.dll
 0004:00002f5c       __imp_?setValue@QDial@@UAEXH@Z 00435f5c     qt-mt323:qt-mt323.dll
 0004:00002f60       __imp_?setNotchTarget@QDial@@UAEXN@Z 00435f60     qt-mt323:qt-mt323.dll
 0004:00002f64       __imp_?resizeEvent@QDial@@MAEXPAVQResizeEvent@@@Z 00435f64     qt-mt323:qt-mt323.dll
 0004:00002f68       __imp_?paintEvent@QDial@@MAEXPAVQPaintEvent@@@Z 00435f68     qt-mt323:qt-mt323.dll
 0004:00002f6c       __imp_?focusOutEvent@QDial@@MAEXPAVQFocusEvent@@@Z 00435f6c     qt-mt323:qt-mt323.dll
 0004:00002f70       __imp_?focusInEvent@QDial@@MAEXPAVQFocusEvent@@@Z 00435f70     qt-mt323:qt-mt323.dll
 0004:00002f74       __imp_?keyPressEvent@QDial@@MAEXPAVQKeyEvent@@@Z 00435f74     qt-mt323:qt-mt323.dll
 0004:00002f78       __imp_?wheelEvent@QDial@@MAEXPAVQWheelEvent@@@Z 00435f78     qt-mt323:qt-mt323.dll
 0004:00002f7c       __imp_?mouseMoveEvent@QDial@@MAEXPAVQMouseEvent@@@Z 00435f7c     qt-mt323:qt-mt323.dll
 0004:00002f80       __imp_?mouseReleaseEvent@QDial@@MAEXPAVQMouseEvent@@@Z 00435f80     qt-mt323:qt-mt323.dll
 0004:00002f84       __imp_?mousePressEvent@QDial@@MAEXPAVQMouseEvent@@@Z 00435f84     qt-mt323:qt-mt323.dll
 0004:00002f88       __imp_?minimumSizeHint@QDial@@UBE?AVQSize@@XZ 00435f88     qt-mt323:qt-mt323.dll
 0004:00002f8c       __imp_?sizeHint@QDial@@UBE?AVQSize@@XZ 00435f8c     qt-mt323:qt-mt323.dll
 0004:00002f90       __imp_?qt_property@QDial@@UAE_NHHPAVQVariant@@@Z 00435f90     qt-mt323:qt-mt323.dll
 0004:00002f94       __imp_?qt_emit@QDial@@UAE_NHPAUQUObject@@@Z 00435f94     qt-mt323:qt-mt323.dll
 0004:00002f98       __imp_?qt_invoke@QDial@@UAE_NHPAUQUObject@@@Z 00435f98     qt-mt323:qt-mt323.dll
 0004:00002f9c       __imp_?qt_cast@QDial@@UAEPAXPBD@Z 00435f9c     qt-mt323:qt-mt323.dll
 0004:00002fa0       __imp_?className@QDial@@UBEPBDXZ 00435fa0     qt-mt323:qt-mt323.dll
 0004:00002fa4       __imp_?metaObject@QDial@@UBEPAVQMetaObject@@XZ 00435fa4     qt-mt323:qt-mt323.dll
 0004:00002fa8       __imp_?initDragEnter@QIconView@@EAEXPAVQDropEvent@@@Z 00435fa8     qt-mt323:qt-mt323.dll
 0004:00002fac       __imp_?drawDragShapes@QIconView@@EAEXABVQPoint@@@Z 00435fac     qt-mt323:qt-mt323.dll
 0004:00002fb0       __imp_?drawBackground@QIconView@@MAEXPAVQPainter@@ABVQRect@@@Z 00435fb0     qt-mt323:qt-mt323.dll
 0004:00002fb4       __imp_?insertInGrid@QIconView@@MAEXPAVQIconViewItem@@@Z 00435fb4     qt-mt323:qt-mt323.dll
 0004:00002fb8       __imp_?startDrag@QIconView@@MAEXXZ 00435fb8     qt-mt323:qt-mt323.dll
 0004:00002fbc       __imp_?dragObject@QIconView@@MAEPAVQDragObject@@XZ 00435fbc     qt-mt323:qt-mt323.dll
 0004:00002fc0       __imp_?drawRubber@QIconView@@MAEXPAVQPainter@@@Z 00435fc0     qt-mt323:qt-mt323.dll
 0004:00002fc4       __imp_?slotUpdate@QIconView@@MAEXXZ 00435fc4     qt-mt323:qt-mt323.dll
 0004:00002fc8       __imp_?adjustItems@QIconView@@MAEXXZ 00435fc8     qt-mt323:qt-mt323.dll
 0004:00002fcc       __imp_?doAutoScroll@QIconView@@MAEXXZ 00435fcc     qt-mt323:qt-mt323.dll
 0004:00002fd0       __imp_?updateContents@QIconView@@UAEXXZ 00435fd0     qt-mt323:qt-mt323.dll
 0004:00002fd4       __imp_?arrangeItemsInGrid@QIconView@@UAEXABVQSize@@_N@Z 00435fd4     qt-mt323:qt-mt323.dll
 0004:00002fd8       __imp_?arrangeItemsInGrid@QIconView@@UAEX_N@Z 00435fd8     qt-mt323:qt-mt323.dll
 0004:00002fdc       __imp_?sort@QIconView@@UAEX_N@Z 00435fdc     qt-mt323:qt-mt323.dll
 0004:00002fe0       __imp_?setWordWrapIconText@QIconView@@UAEX_N@Z 00435fe0     qt-mt323:qt-mt323.dll
 0004:00002fe4       __imp_?setItemsMovable@QIconView@@UAEX_N@Z 00435fe4     qt-mt323:qt-mt323.dll
 0004:00002fe8       __imp_?setShowToolTips@QIconView@@UAEX_N@Z 00435fe8     qt-mt323:qt-mt323.dll
 0004:00002fec       __imp_?setAutoArrange@QIconView@@UAEX_N@Z 00435fec     qt-mt323:qt-mt323.dll
 0004:00002ff0       __imp_?setMaxItemTextLength@QIconView@@UAEXH@Z 00435ff0     qt-mt323:qt-mt323.dll
 0004:00002ff4       __imp_?setMaxItemWidth@QIconView@@UAEXH@Z 00435ff4     qt-mt323:qt-mt323.dll
 0004:00002ff8       __imp_?setResizeMode@QIconView@@UAEXW4ResizeMode@1@@Z 00435ff8     qt-mt323:qt-mt323.dll
 0004:00002ffc       __imp_?setArrangement@QIconView@@UAEXW4Arrangement@1@@Z 00435ffc     qt-mt323:qt-mt323.dll
 0004:00003000       __imp_?setItemTextBackground@QIconView@@UAEXABVQBrush@@@Z 00436000     qt-mt323:qt-mt323.dll
 0004:00003004       __imp_?setItemTextPos@QIconView@@UAEXW4ItemTextPos@1@@Z 00436004     qt-mt323:qt-mt323.dll
 0004:00003008       __imp_?setSpacing@QIconView@@UAEXH@Z 00436008     qt-mt323:qt-mt323.dll
 0004:0000300c       __imp_?setGridY@QIconView@@UAEXH@Z 0043600c     qt-mt323:qt-mt323.dll
 0004:00003010       __imp_?setGridX@QIconView@@UAEXH@Z 00436010     qt-mt323:qt-mt323.dll
 0004:00003014       __imp_?clear@QIconView@@UAEXXZ 00436014     qt-mt323:qt-mt323.dll
 0004:00003018       __imp_?repaintItem@QIconView@@UAEXPAVQIconViewItem@@@Z 00436018     qt-mt323:qt-mt323.dll
 0004:0000301c       __imp_?invertSelection@QIconView@@UAEXXZ 0043601c     qt-mt323:qt-mt323.dll
 0004:00003020       __imp_?clearSelection@QIconView@@UAEXXZ 00436020     qt-mt323:qt-mt323.dll
 0004:00003024       __imp_?selectAll@QIconView@@UAEX_N@Z 00436024     qt-mt323:qt-mt323.dll
 0004:00003028       __imp_?setSelectionMode@QIconView@@UAEXW4SelectionMode@1@@Z 00436028     qt-mt323:qt-mt323.dll
 0004:0000302c       __imp_?setSelected@QIconView@@UAEXPAVQIconViewItem@@_N1@Z 0043602c     qt-mt323:qt-mt323.dll
 0004:00003030       __imp_?setCurrentItem@QIconView@@UAEXPAVQIconViewItem@@@Z 00436030     qt-mt323:qt-mt323.dll
 0004:00003034       __imp_?takeItem@QIconView@@UAEXPAVQIconViewItem@@@Z 00436034     qt-mt323:qt-mt323.dll
 0004:00003038       __imp_?insertItem@QIconView@@UAEXPAVQIconViewItem@@0@Z 00436038     qt-mt323:qt-mt323.dll
 0004:0000303c       __imp_?contentsContextMenuEvent@QIconView@@MAEXPAVQContextMenuEvent@@@Z 0043603c     qt-mt323:qt-mt323.dll
 0004:00003040       __imp_?contentsDropEvent@QIconView@@MAEXPAVQDropEvent@@@Z 00436040     qt-mt323:qt-mt323.dll
 0004:00003044       __imp_?contentsDragLeaveEvent@QIconView@@MAEXPAVQDragLeaveEvent@@@Z 00436044     qt-mt323:qt-mt323.dll
 0004:00003048       __imp_?contentsDragMoveEvent@QIconView@@MAEXPAVQDragMoveEvent@@@Z 00436048     qt-mt323:qt-mt323.dll
 0004:0000304c       __imp_?contentsDragEnterEvent@QIconView@@MAEXPAVQDragEnterEvent@@@Z 0043604c     qt-mt323:qt-mt323.dll
 0004:00003050       __imp_?contentsMouseMoveEvent@QIconView@@MAEXPAVQMouseEvent@@@Z 00436050     qt-mt323:qt-mt323.dll
 0004:00003054       __imp_?contentsMouseDoubleClickEvent@QIconView@@MAEXPAVQMouseEvent@@@Z 00436054     qt-mt323:qt-mt323.dll
 0004:00003058       __imp_?contentsMouseReleaseEvent@QIconView@@MAEXPAVQMouseEvent@@@Z 00436058     qt-mt323:qt-mt323.dll
 0004:0000305c       __imp_?contentsMousePressEvent@QIconView@@MAEXPAVQMouseEvent@@@Z 0043605c     qt-mt323:qt-mt323.dll
 0004:00003060       __imp_?drawContents@QIconView@@MAEXPAVQPainter@@HHHH@Z 00436060     qt-mt323:qt-mt323.dll
 0004:00003064       __imp_?setContentsPos@QIconView@@UAEXHH@Z 00436064     qt-mt323:qt-mt323.dll
 0004:00003068       __imp_?drawContents@QIconView@@EAEXPAVQPainter@@@Z 00436068     qt-mt323:qt-mt323.dll
 0004:0000306c       __imp_?windowActivationChange@QIconView@@MAEX_N@Z 0043606c     qt-mt323:qt-mt323.dll
 0004:00003070       __imp_?styleChange@QIconView@@MAEXAAVQStyle@@@Z 00436070     qt-mt323:qt-mt323.dll
 0004:00003074       __imp_?showEvent@QIconView@@UAEXPAVQShowEvent@@@Z 00436074     qt-mt323:qt-mt323.dll
 0004:00003078       __imp_?resizeEvent@QIconView@@MAEXPAVQResizeEvent@@@Z 00436078     qt-mt323:qt-mt323.dll
 0004:0000307c       __imp_?enterEvent@QIconView@@MAEXPAVQEvent@@@Z 0043607c     qt-mt323:qt-mt323.dll
 0004:00003080       __imp_?focusOutEvent@QIconView@@MAEXPAVQFocusEvent@@@Z 00436080     qt-mt323:qt-mt323.dll
 0004:00003084       __imp_?focusInEvent@QIconView@@MAEXPAVQFocusEvent@@@Z 00436084     qt-mt323:qt-mt323.dll
 0004:00003088       __imp_?keyPressEvent@QIconView@@MAEXPAVQKeyEvent@@@Z 00436088     qt-mt323:qt-mt323.dll
 0004:0000308c       __imp_?minimumSizeHint@QIconView@@UBE?AVQSize@@XZ 0043608c     qt-mt323:qt-mt323.dll
 0004:00003090       __imp_?sizeHint@QIconView@@UBE?AVQSize@@XZ 00436090     qt-mt323:qt-mt323.dll
 0004:00003094       __imp_?setFont@QIconView@@UAEXABVQFont@@@Z 00436094     qt-mt323:qt-mt323.dll
 0004:00003098       __imp_?setPalette@QIconView@@UAEXABVQPalette@@@Z 00436098     qt-mt323:qt-mt323.dll
 0004:0000309c       __imp_?eventFilter@QIconView@@UAE_NPAVQObject@@PAVQEvent@@@Z 0043609c     qt-mt323:qt-mt323.dll
 0004:000030a0       __imp_?qt_property@QIconView@@UAE_NHHPAVQVariant@@@Z 004360a0     qt-mt323:qt-mt323.dll
 0004:000030a4       __imp_?qt_emit@QIconView@@UAE_NHPAUQUObject@@@Z 004360a4     qt-mt323:qt-mt323.dll
 0004:000030a8       __imp_?qt_invoke@QIconView@@UAE_NHPAUQUObject@@@Z 004360a8     qt-mt323:qt-mt323.dll
 0004:000030ac       __imp_?qt_cast@QIconView@@UAEPAXPBD@Z 004360ac     qt-mt323:qt-mt323.dll
 0004:000030b0       __imp_?className@QIconView@@UBEPBDXZ 004360b0     qt-mt323:qt-mt323.dll
 0004:000030b4       __imp_?metaObject@QIconView@@UBEPAVQMetaObject@@XZ 004360b4     qt-mt323:qt-mt323.dll
 0004:000030b8       __imp_?setSmallDecimalPoint@QLCDNumber@@UAEX_N@Z 004360b8     qt-mt323:qt-mt323.dll
 0004:000030bc       __imp_?setBinMode@QLCDNumber@@UAEXXZ 004360bc     qt-mt323:qt-mt323.dll
 0004:000030c0       __imp_?setOctMode@QLCDNumber@@UAEXXZ 004360c0     qt-mt323:qt-mt323.dll
 0004:000030c4       __imp_?setDecMode@QLCDNumber@@UAEXXZ 004360c4     qt-mt323:qt-mt323.dll
 0004:000030c8       __imp_?setHexMode@QLCDNumber@@UAEXXZ 004360c8     qt-mt323:qt-mt323.dll
 0004:000030cc       __imp_?setSegmentStyle@QLCDNumber@@UAEXW4SegmentStyle@1@@Z 004360cc     qt-mt323:qt-mt323.dll
 0004:000030d0       __imp_?setMode@QLCDNumber@@UAEXW4Mode@1@@Z 004360d0     qt-mt323:qt-mt323.dll
 0004:000030d4       __imp_?setNumDigits@QLCDNumber@@UAEXH@Z 004360d4     qt-mt323:qt-mt323.dll
 0004:000030d8       __imp_?drawContents@QLCDNumber@@MAEXPAVQPainter@@@Z 004360d8     qt-mt323:qt-mt323.dll
 0004:000030dc       __imp_?sizeHint@QLCDNumber@@UBE?AVQSize@@XZ 004360dc     qt-mt323:qt-mt323.dll
 0004:000030e0       __imp_?qt_property@QLCDNumber@@UAE_NHHPAVQVariant@@@Z 004360e0     qt-mt323:qt-mt323.dll
 0004:000030e4       __imp_?qt_emit@QLCDNumber@@UAE_NHPAUQUObject@@@Z 004360e4     qt-mt323:qt-mt323.dll
 0004:000030e8       __imp_?qt_invoke@QLCDNumber@@UAE_NHPAUQUObject@@@Z 004360e8     qt-mt323:qt-mt323.dll
 0004:000030ec       __imp_?qt_cast@QLCDNumber@@UAEPAXPBD@Z 004360ec     qt-mt323:qt-mt323.dll
 0004:000030f0       __imp_?className@QLCDNumber@@UBEPBDXZ 004360f0     qt-mt323:qt-mt323.dll
 0004:000030f4       __imp_?metaObject@QLCDNumber@@UBEPAVQMetaObject@@XZ 004360f4     qt-mt323:qt-mt323.dll
 0004:000030f8       __imp_?itemRemoved@QToolBox@@MAEXH@Z 004360f8     qt-mt323:qt-mt323.dll
 0004:000030fc       __imp_?itemInserted@QToolBox@@MAEXH@Z 004360fc     qt-mt323:qt-mt323.dll
 0004:00003100       __imp_?frameChanged@QToolBox@@MAEXXZ 00436100     qt-mt323:qt-mt323.dll
 0004:00003104       __imp_?styleChange@QToolBox@@MAEXAAVQStyle@@@Z 00436104     qt-mt323:qt-mt323.dll
 0004:00003108       __imp_?showEvent@QToolBox@@MAEXPAVQShowEvent@@@Z 00436108     qt-mt323:qt-mt323.dll
 0004:0000310c       __imp_?qt_property@QToolBox@@UAE_NHHPAVQVariant@@@Z 0043610c     qt-mt323:qt-mt323.dll
 0004:00003110       __imp_?qt_emit@QToolBox@@UAE_NHPAUQUObject@@@Z 00436110     qt-mt323:qt-mt323.dll
 0004:00003114       __imp_?qt_invoke@QToolBox@@UAE_NHPAUQUObject@@@Z 00436114     qt-mt323:qt-mt323.dll
 0004:00003118       __imp_?qt_cast@QToolBox@@UAEPAXPBD@Z 00436118     qt-mt323:qt-mt323.dll
 0004:0000311c       __imp_?className@QToolBox@@UBEPBDXZ 0043611c     qt-mt323:qt-mt323.dll
 0004:00003120       __imp_?metaObject@QToolBox@@UBEPAVQMetaObject@@XZ 00436120     qt-mt323:qt-mt323.dll
 0004:00003124       __imp_?setChecked@QRadioButton@@UAEX_N@Z 00436124     qt-mt323:qt-mt323.dll
 0004:00003128       __imp_?drawButtonLabel@QRadioButton@@MAEXPAVQPainter@@@Z 00436128     qt-mt323:qt-mt323.dll
 0004:0000312c       __imp_?drawButton@QRadioButton@@MAEXPAVQPainter@@@Z 0043612c     qt-mt323:qt-mt323.dll
 0004:00003130       __imp_?hitButton@QRadioButton@@MBE_NABVQPoint@@@Z 00436130     qt-mt323:qt-mt323.dll
 0004:00003134       __imp_?setText@QButton@@UAEXABVQString@@@Z 00436134     qt-mt323:qt-mt323.dll
 0004:00003138       __imp_?updateMask@QRadioButton@@MAEXXZ 00436138     qt-mt323:qt-mt323.dll
 0004:0000313c       __imp_?resizeEvent@QRadioButton@@MAEXPAVQResizeEvent@@@Z 0043613c     qt-mt323:qt-mt323.dll
 0004:00003140       __imp_?mousePressEvent@QButton@@MAEXPAVQMouseEvent@@@Z 00436140     qt-mt323:qt-mt323.dll
 0004:00003144       __imp_?sizeHint@QRadioButton@@UBE?AVQSize@@XZ 00436144     qt-mt323:qt-mt323.dll
 0004:00003148       __imp_?qt_property@QRadioButton@@UAE_NHHPAVQVariant@@@Z 00436148     qt-mt323:qt-mt323.dll
 0004:0000314c       __imp_?qt_emit@QRadioButton@@UAE_NHPAUQUObject@@@Z 0043614c     qt-mt323:qt-mt323.dll
 0004:00003150       __imp_?qt_invoke@QRadioButton@@UAE_NHPAUQUObject@@@Z 00436150     qt-mt323:qt-mt323.dll
 0004:00003154       __imp_?qt_cast@QRadioButton@@UAEPAXPBD@Z 00436154     qt-mt323:qt-mt323.dll
 0004:00003158       __imp_?className@QRadioButton@@UBEPBDXZ 00436158     qt-mt323:qt-mt323.dll
 0004:0000315c       __imp_?metaObject@QRadioButton@@UBEPAVQMetaObject@@XZ 0043615c     qt-mt323:qt-mt323.dll
 0004:00003160       __imp_?removePage@QTabWidget@@UAEXPAVQWidget@@@Z 00436160     qt-mt323:qt-mt323.dll
 0004:00003164       __imp_?showPage@QTabWidget@@UAEXPAVQWidget@@@Z 00436164     qt-mt323:qt-mt323.dll
 0004:00003168       __imp_?insertTab@QTabWidget@@UAEXPAVQWidget@@ABVQString@@H@Z 00436168     qt-mt323:qt-mt323.dll
 0004:0000316c       __imp_?insertTab@QTabWidget@@UAEXPAVQWidget@@ABVQIconSet@@ABVQString@@H@Z 0043616c     qt-mt323:qt-mt323.dll
 0004:00003170       __imp_?insertTab@QTabWidget@@UAEXPAVQWidget@@PAVQTab@@H@Z 00436170     qt-mt323:qt-mt323.dll
 0004:00003174       __imp_?addTab@QTabWidget@@UAEXPAVQWidget@@ABVQString@@@Z 00436174     qt-mt323:qt-mt323.dll
 0004:00003178       __imp_?addTab@QTabWidget@@UAEXPAVQWidget@@ABVQIconSet@@ABVQString@@@Z 00436178     qt-mt323:qt-mt323.dll
 0004:0000317c       __imp_?addTab@QTabWidget@@UAEXPAVQWidget@@PAVQTab@@@Z 0043617c     qt-mt323:qt-mt323.dll
 0004:00003180       __imp_?styleChange@QTabWidget@@MAEXAAVQStyle@@@Z 00436180     qt-mt323:qt-mt323.dll
 0004:00003184       __imp_?updateMask@QTabWidget@@MAEXXZ 00436184     qt-mt323:qt-mt323.dll
 0004:00003188       __imp_?showEvent@QTabWidget@@MAEXPAVQShowEvent@@@Z 00436188     qt-mt323:qt-mt323.dll
 0004:0000318c       __imp_?resizeEvent@QTabWidget@@MAEXPAVQResizeEvent@@@Z 0043618c     qt-mt323:qt-mt323.dll
 0004:00003190       __imp_?minimumSizeHint@QTabWidget@@UBE?AVQSize@@XZ 00436190     qt-mt323:qt-mt323.dll
 0004:00003194       __imp_?sizeHint@QTabWidget@@UBE?AVQSize@@XZ 00436194     qt-mt323:qt-mt323.dll
 0004:00003198       __imp_?eventFilter@QTabWidget@@MAE_NPAVQObject@@PAVQEvent@@@Z 00436198     qt-mt323:qt-mt323.dll
 0004:0000319c       __imp_?qt_property@QTabWidget@@UAE_NHHPAVQVariant@@@Z 0043619c     qt-mt323:qt-mt323.dll
 0004:000031a0       __imp_?qt_emit@QTabWidget@@UAE_NHPAUQUObject@@@Z 004361a0     qt-mt323:qt-mt323.dll
 0004:000031a4       __imp_?qt_invoke@QTabWidget@@UAE_NHPAUQUObject@@@Z 004361a4     qt-mt323:qt-mt323.dll
 0004:000031a8       __imp_?qt_cast@QTabWidget@@UAEPAXPBD@Z 004361a8     qt-mt323:qt-mt323.dll
 0004:000031ac       __imp_?className@QTabWidget@@UBEPBDXZ 004361ac     qt-mt323:qt-mt323.dll
 0004:000031b0       __imp_?metaObject@QTabWidget@@UBEPAVQMetaObject@@XZ 004361b0     qt-mt323:qt-mt323.dll
 0004:000031b4       __imp_?setToolTipGroup@QMainWindow@@EAEXPAVQToolTipGroup@@@Z 004361b4     qt-mt323:qt-mt323.dll
 0004:000031b8       __imp_?setStatusBar@QMainWindow@@EAEXPAVQStatusBar@@@Z 004361b8     qt-mt323:qt-mt323.dll
 0004:000031bc       __imp_?setMenuBar@QMainWindow@@EAEXPAVQMenuBar@@@Z 004361bc     qt-mt323:qt-mt323.dll
 0004:000031c0       __imp_?showDockMenu@QMainWindow@@MAE_NABVQPoint@@@Z 004361c0     qt-mt323:qt-mt323.dll
 0004:000031c4       __imp_?setUpLayout@QMainWindow@@MAEXXZ 004361c4     qt-mt323:qt-mt323.dll
 0004:000031c8       __imp_?customize@QMainWindow@@UAEXXZ 004361c8     qt-mt323:qt-mt323.dll
 0004:000031cc       __imp_?setAppropriate@QMainWindow@@UAEXPAVQDockWindow@@_N@Z 004361cc     qt-mt323:qt-mt323.dll
 0004:000031d0       __imp_?whatsThis@QMainWindow@@UAEXXZ 004361d0     qt-mt323:qt-mt323.dll
 0004:000031d4       __imp_?setDockMenuEnabled@QMainWindow@@UAEX_N@Z 004361d4     qt-mt323:qt-mt323.dll
 0004:000031d8       __imp_?setOpaqueMoving@QMainWindow@@UAEX_N@Z 004361d8     qt-mt323:qt-mt323.dll
 0004:000031dc       __imp_?setDockWindowsMovable@QMainWindow@@UAEX_N@Z 004361dc     qt-mt323:qt-mt323.dll
 0004:000031e0       __imp_?setUsesTextLabel@QMainWindow@@UAEX_N@Z 004361e0     qt-mt323:qt-mt323.dll
 0004:000031e4       __imp_?setUsesBigPixmaps@QMainWindow@@UAEX_N@Z 004361e4     qt-mt323:qt-mt323.dll
 0004:000031e8       __imp_?setRightJustification@QMainWindow@@UAEX_N@Z 004361e8     qt-mt323:qt-mt323.dll
 0004:000031ec       __imp_?isCustomizable@QMainWindow@@UBE_NXZ 004361ec     qt-mt323:qt-mt323.dll
 0004:000031f0       __imp_?dockingArea@QMainWindow@@UAEPAVQDockArea@@ABVQPoint@@@Z 004361f0     qt-mt323:qt-mt323.dll
 0004:000031f4       __imp_?removeDockWindow@QMainWindow@@UAEXPAVQDockWindow@@@Z 004361f4     qt-mt323:qt-mt323.dll
 0004:000031f8       __imp_?moveDockWindow@QMainWindow@@UAEXPAVQDockWindow@@W4Dock@Qt@@@Z 004361f8     qt-mt323:qt-mt323.dll
 0004:000031fc       __imp_?moveDockWindow@QMainWindow@@UAEXPAVQDockWindow@@W4Dock@Qt@@_NHH@Z 004361fc     qt-mt323:qt-mt323.dll
 0004:00003200       __imp_?addDockWindow@QMainWindow@@UAEXPAVQDockWindow@@W4Dock@Qt@@_N@Z 00436200     qt-mt323:qt-mt323.dll
 0004:00003204       __imp_?addDockWindow@QMainWindow@@UAEXPAVQDockWindow@@ABVQString@@W4Dock@Qt@@_N@Z 00436204     qt-mt323:qt-mt323.dll
 0004:00003208       __imp_?setDockEnabled@QMainWindow@@UAEXW4Dock@Qt@@_N@Z 00436208     qt-mt323:qt-mt323.dll
 0004:0000320c       __imp_?setDockEnabled@QMainWindow@@UAEXPAVQDockWindow@@W4Dock@Qt@@_N@Z 0043620c     qt-mt323:qt-mt323.dll
 0004:00003210       __imp_?setCentralWidget@QMainWindow@@UAEXPAVQWidget@@@Z 00436210     qt-mt323:qt-mt323.dll
 0004:00003214       __imp_?styleChange@QMainWindow@@MAEXAAVQStyle@@@Z 00436214     qt-mt323:qt-mt323.dll
 0004:00003218       __imp_?paintEvent@QMainWindow@@MAEXPAVQPaintEvent@@@Z 00436218     qt-mt323:qt-mt323.dll
 0004:0000321c       __imp_?minimumSizeHint@QMainWindow@@UBE?AVQSize@@XZ 0043621c     qt-mt323:qt-mt323.dll
 0004:00003220       __imp_?sizeHint@QMainWindow@@UBE?AVQSize@@XZ 00436220     qt-mt323:qt-mt323.dll
 0004:00003224       __imp_?hide@QMainWindow@@UAEXXZ 00436224     qt-mt323:qt-mt323.dll
 0004:00003228       __imp_?show@QMainWindow@@UAEXXZ 00436228     qt-mt323:qt-mt323.dll
 0004:0000322c       __imp_?childEvent@QMainWindow@@MAEXPAVQChildEvent@@@Z 0043622c     qt-mt323:qt-mt323.dll
 0004:00003230       __imp_?eventFilter@QMainWindow@@UAE_NPAVQObject@@PAVQEvent@@@Z 00436230     qt-mt323:qt-mt323.dll
 0004:00003234       __imp_?event@QMainWindow@@MAE_NPAVQEvent@@@Z 00436234     qt-mt323:qt-mt323.dll
 0004:00003238       __imp_?qt_property@QMainWindow@@UAE_NHHPAVQVariant@@@Z 00436238     qt-mt323:qt-mt323.dll
 0004:0000323c       __imp_?qt_emit@QMainWindow@@UAE_NHPAUQUObject@@@Z 0043623c     qt-mt323:qt-mt323.dll
 0004:00003240       __imp_?qt_invoke@QMainWindow@@UAE_NHPAUQUObject@@@Z 00436240     qt-mt323:qt-mt323.dll
 0004:00003244       __imp_?qt_cast@QMainWindow@@UAEPAXPBD@Z 00436244     qt-mt323:qt-mt323.dll
 0004:00003248       __imp_?className@QMainWindow@@UBEPBDXZ 00436248     qt-mt323:qt-mt323.dll
 0004:0000324c       __imp_?metaObject@QMainWindow@@UBEPAVQMetaObject@@XZ 0043624c     qt-mt323:qt-mt323.dll
 0004:00003250       __imp_?qt_property@QVBox@@UAE_NHHPAVQVariant@@@Z 00436250     qt-mt323:qt-mt323.dll
 0004:00003254       __imp_?qt_emit@QVBox@@UAE_NHPAUQUObject@@@Z 00436254     qt-mt323:qt-mt323.dll
 0004:00003258       __imp_?qt_invoke@QVBox@@UAE_NHPAUQUObject@@@Z 00436258     qt-mt323:qt-mt323.dll
 0004:0000325c       __imp_?qt_cast@QVBox@@UAEPAXPBD@Z 0043625c     qt-mt323:qt-mt323.dll
 0004:00003260       __imp_?className@QVBox@@UBEPBDXZ 00436260     qt-mt323:qt-mt323.dll
 0004:00003264       __imp_?metaObject@QVBox@@UBEPAVQMetaObject@@XZ 00436264     qt-mt323:qt-mt323.dll
 0004:00003268       __imp_?reload@QTextBrowser@@UAEXXZ 00436268     qt-mt323:qt-mt323.dll
 0004:0000326c       __imp_?home@QTextBrowser@@UAEXXZ 0043626c     qt-mt323:qt-mt323.dll
 0004:00003270       __imp_?forward@QTextBrowser@@UAEXXZ 00436270     qt-mt323:qt-mt323.dll
 0004:00003274       __imp_?backward@QTextBrowser@@UAEXXZ 00436274     qt-mt323:qt-mt323.dll
 0004:00003278       __imp_?setSource@QTextBrowser@@UAEXABVQString@@@Z 00436278     qt-mt323:qt-mt323.dll
 0004:0000327c       __imp_?emitLinkClicked@QTextBrowser@@EAEXABVQString@@@Z 0043627c     qt-mt323:qt-mt323.dll
 0004:00003280       __imp_?emitHighlighted@QTextBrowser@@EAEXABVQString@@@Z 00436280     qt-mt323:qt-mt323.dll
 0004:00003284       __imp_?linksEnabled@QTextBrowser@@EBE_NXZ 00436284     qt-mt323:qt-mt323.dll
 0004:00003288       __imp_?setText@QTextBrowser@@UAEXABVQString@@0@Z 00436288     qt-mt323:qt-mt323.dll
 0004:0000328c       __imp_?keyPressEvent@QTextBrowser@@MAEXPAVQKeyEvent@@@Z 0043628c     qt-mt323:qt-mt323.dll
 0004:00003290       __imp_?qt_property@QTextBrowser@@UAE_NHHPAVQVariant@@@Z 00436290     qt-mt323:qt-mt323.dll
 0004:00003294       __imp_?qt_emit@QTextBrowser@@UAE_NHPAUQUObject@@@Z 00436294     qt-mt323:qt-mt323.dll
 0004:00003298       __imp_?qt_invoke@QTextBrowser@@UAE_NHPAUQUObject@@@Z 00436298     qt-mt323:qt-mt323.dll
 0004:0000329c       __imp_?qt_cast@QTextBrowser@@UAEPAXPBD@Z 0043629c     qt-mt323:qt-mt323.dll
 0004:000032a0       __imp_?className@QTextBrowser@@UBEPBDXZ 004362a0     qt-mt323:qt-mt323.dll
 0004:000032a4       __imp_?metaObject@QTextBrowser@@UBEPAVQMetaObject@@XZ 004362a4     qt-mt323:qt-mt323.dll
 0004:000032a8       __imp_?emitLinkClicked@QTextEdit@@EAEXABVQString@@@Z 004362a8     qt-mt323:qt-mt323.dll
 0004:000032ac       __imp_?emitHighlighted@QTextEdit@@EAEXABVQString@@@Z 004362ac     qt-mt323:qt-mt323.dll
 0004:000032b0       __imp_?linksEnabled@QTextEdit@@EBE_NXZ 004362b0     qt-mt323:qt-mt323.dll
 0004:000032b4       __imp_?doChangeInterval@QTextEdit@@MAEXXZ 004362b4     qt-mt323:qt-mt323.dll
 0004:000032b8       __imp_?createPopupMenu@QTextEdit@@MAEPAVQPopupMenu@@ABVQPoint@@@Z 004362b8     qt-mt323:qt-mt323.dll
 0004:000032bc       __imp_?createPopupMenu@QTextEdit@@MAEPAVQPopupMenu@@XZ 004362bc     qt-mt323:qt-mt323.dll
 0004:000032c0       __imp_?setUndoRedoEnabled@QTextEdit@@UAEX_N@Z 004362c0     qt-mt323:qt-mt323.dll
 0004:000032c4       __imp_?clearParagraphBackground@QTextEdit@@UAEXH@Z 004362c4     qt-mt323:qt-mt323.dll
 0004:000032c8       __imp_?setParagraphBackgroundColor@QTextEdit@@UAEXHABVQColor@@@Z 004362c8     qt-mt323:qt-mt323.dll
 0004:000032cc       __imp_?insertParagraph@QTextEdit@@UAEXABVQString@@H@Z 004362cc     qt-mt323:qt-mt323.dll
 0004:000032d0       __imp_?removeParagraph@QTextEdit@@UAEXH@Z 004362d0     qt-mt323:qt-mt323.dll
 0004:000032d4       __imp_?insertAt@QTextEdit@@UAEXABVQString@@HH@Z 004362d4     qt-mt323:qt-mt323.dll
 0004:000032d8       __imp_?insert@QTextEdit@@UAEXABVQString@@_N11@Z 004362d8     qt-mt323:qt-mt323.dll
 0004:000032dc       __imp_?scrollToBottom@QTextEdit@@UAEXXZ 004362dc     qt-mt323:qt-mt323.dll
 0004:000032e0       __imp_?setOverwriteMode@QTextEdit@@UAEX_N@Z 004362e0     qt-mt323:qt-mt323.dll
 0004:000032e4       __imp_?setCurrentFont@QTextEdit@@UAEXABVQFont@@@Z 004362e4     qt-mt323:qt-mt323.dll
 0004:000032e8       __imp_?removeSelection@QTextEdit@@UAEXH@Z 004362e8     qt-mt323:qt-mt323.dll
 0004:000032ec       __imp_?removeSelectedText@QTextEdit@@UAEXH@Z 004362ec     qt-mt323:qt-mt323.dll
 0004:000032f0       __imp_?doKeyboardAction@QTextEdit@@UAEXW4KeyboardAction@1@@Z 004362f0     qt-mt323:qt-mt323.dll
 0004:000032f4       __imp_?moveCursor@QTextEdit@@UAEXW4CursorAction@1@_N@Z 004362f4     qt-mt323:qt-mt323.dll
 0004:000032f8       __imp_?placeCursor@QTextEdit@@UAEXABVQPoint@@PAVQTextCursor@@@Z 004362f8     qt-mt323:qt-mt323.dll
 0004:000032fc       __imp_?ensureCursorVisible@QTextEdit@@UAEXXZ 004362fc     qt-mt323:qt-mt323.dll
 0004:00003300       __imp_?setFormat@QTextEdit@@UAEXPAVQTextFormat@@H@Z 00436300     qt-mt323:qt-mt323.dll
 0004:00003304       __imp_?setUndoDepth@QTextEdit@@UAEXH@Z 00436304     qt-mt323:qt-mt323.dll
 0004:00003308       __imp_?resetFormat@QTextEdit@@UAEXXZ 00436308     qt-mt323:qt-mt323.dll
 0004:0000330c       __imp_?setModified@QTextEdit@@UAEX_N@Z 0043630c     qt-mt323:qt-mt323.dll
 0004:00003310       __imp_?setSelectionAttributes@QTextEdit@@UAEXHABVQColor@@_N@Z 00436310     qt-mt323:qt-mt323.dll
 0004:00003314       __imp_?setSelection@QTextEdit@@UAEXHHHHH@Z 00436314     qt-mt323:qt-mt323.dll
 0004:00003318       __imp_?setCursorPosition@QTextEdit@@UAEXHH@Z 00436318     qt-mt323:qt-mt323.dll
 0004:0000331c       __imp_?setParagType@QTextEdit@@UAEXW4DisplayMode@QStyleSheetItem@@W4ListStyle@3@@Z 0043631c     qt-mt323:qt-mt323.dll
 0004:00003320       __imp_?setAlignment@QTextEdit@@UAEXH@Z 00436320     qt-mt323:qt-mt323.dll
 0004:00003324       __imp_?setVerticalAlignment@QTextEdit@@UAEXW4VerticalAlignment@1@@Z 00436324     qt-mt323:qt-mt323.dll
 0004:00003328       __imp_?setColor@QTextEdit@@UAEXABVQColor@@@Z 00436328     qt-mt323:qt-mt323.dll
 0004:0000332c       __imp_?setPointSize@QTextEdit@@UAEXH@Z 0043632c     qt-mt323:qt-mt323.dll
 0004:00003330       __imp_?setFamily@QTextEdit@@UAEXABVQString@@@Z 00436330     qt-mt323:qt-mt323.dll
 0004:00003334       __imp_?setUnderline@QTextEdit@@UAEX_N@Z 00436334     qt-mt323:qt-mt323.dll
 0004:00003338       __imp_?setBold@QTextEdit@@UAEX_N@Z 00436338     qt-mt323:qt-mt323.dll
 0004:0000333c       __imp_?setItalic@QTextEdit@@UAEX_N@Z 0043633c     qt-mt323:qt-mt323.dll
 0004:00003340       __imp_?indent@QTextEdit@@UAEXXZ 00436340     qt-mt323:qt-mt323.dll
 0004:00003344       __imp_?del@QTextEdit@@UAEXXZ 00436344     qt-mt323:qt-mt323.dll
 0004:00003348       __imp_?clear@QTextEdit@@UAEXXZ 00436348     qt-mt323:qt-mt323.dll
 0004:0000334c       __imp_?pasteSubType@QTextEdit@@UAEXABVQCString@@@Z 0043634c     qt-mt323:qt-mt323.dll
 0004:00003350       __imp_?paste@QTextEdit@@UAEXXZ 00436350     qt-mt323:qt-mt323.dll
 0004:00003354       __imp_?cut@QTextEdit@@UAEXXZ 00436354     qt-mt323:qt-mt323.dll
 0004:00003358       __imp_?redo@QTextEdit@@UAEXXZ 00436358     qt-mt323:qt-mt323.dll
 0004:0000335c       __imp_?undo@QTextEdit@@UAEXXZ 0043635c     qt-mt323:qt-mt323.dll
 0004:00003360       __imp_?setReadOnly@QTextEdit@@UAEX_N@Z 00436360     qt-mt323:qt-mt323.dll
 0004:00003364       __imp_?sync@QTextEdit@@UAEXXZ 00436364     qt-mt323:qt-mt323.dll
 0004:00003368       __imp_?zoomTo@QTextEdit@@UAEXH@Z 00436368     qt-mt323:qt-mt323.dll
 0004:0000336c       __imp_?zoomOut@QTextEdit@@UAEXH@Z 0043636c     qt-mt323:qt-mt323.dll
 0004:00003370       __imp_?zoomOut@QTextEdit@@UAEXXZ 00436370     qt-mt323:qt-mt323.dll
 0004:00003374       __imp_?zoomIn@QTextEdit@@UAEXH@Z 00436374     qt-mt323:qt-mt323.dll
 0004:00003378       __imp_?zoomIn@QTextEdit@@UAEXXZ 00436378     qt-mt323:qt-mt323.dll
 0004:0000337c       __imp_?setTabStopWidth@QTextEdit@@UAEXH@Z 0043637c     qt-mt323:qt-mt323.dll
 0004:00003380       __imp_?selectAll@QTextEdit@@UAEX_N@Z 00436380     qt-mt323:qt-mt323.dll
 0004:00003384       __imp_?setTextFormat@QTextEdit@@UAEXW4TextFormat@Qt@@@Z 00436384     qt-mt323:qt-mt323.dll
 0004:00003388       __imp_?setText@QTextEdit@@UAEXABVQString@@0@Z 00436388     qt-mt323:qt-mt323.dll
 0004:0000338c       __imp_?append@QTextEdit@@UAEXABVQString@@@Z 0043638c     qt-mt323:qt-mt323.dll
 0004:00003390       __imp_?copy@QTextEdit@@UAEXXZ 00436390     qt-mt323:qt-mt323.dll
 0004:00003394       __imp_?setWrapPolicy@QTextEdit@@UAEXW4WrapPolicy@1@@Z 00436394     qt-mt323:qt-mt323.dll
 0004:00003398       __imp_?setWrapColumnOrWidth@QTextEdit@@UAEXH@Z 00436398     qt-mt323:qt-mt323.dll
 0004:0000339c       __imp_?setWordWrap@QTextEdit@@UAEXW4WordWrap@1@@Z 0043639c     qt-mt323:qt-mt323.dll
 0004:000033a0       __imp_?setLinkUnderline@QTextEdit@@UAEX_N@Z 004363a0     qt-mt323:qt-mt323.dll
 0004:000033a4       __imp_?setPaper@QTextEdit@@UAEXABVQBrush@@@Z 004363a4     qt-mt323:qt-mt323.dll
 0004:000033a8       __imp_?scrollToAnchor@QTextEdit@@UAEXABVQString@@@Z 004363a8     qt-mt323:qt-mt323.dll
 0004:000033ac       __imp_?setStyleSheet@QTextEdit@@UAEXPAVQStyleSheet@@@Z 004363ac     qt-mt323:qt-mt323.dll
 0004:000033b0       __imp_?setMimeSourceFactory@QTextEdit@@UAEXPAVQMimeSourceFactory@@@Z 004363b0     qt-mt323:qt-mt323.dll
 0004:000033b4       __imp_?getParagraphFormat@QTextEdit@@UAE_NHPAVQFont@@PAVQColor@@PAW4VerticalAlignment@1@PAHPAW4DisplayMode@QStyleSheetItem@@PAW4ListStyle@6@3@Z 004363b4     qt-mt323:qt-mt323.dll
 0004:000033b8       __imp_?getFormat@QTextEdit@@UAE_NHHPAVQFont@@PAVQColor@@PAW4VerticalAlignment@1@@Z 004363b8     qt-mt323:qt-mt323.dll
 0004:000033bc       __imp_?find@QTextEdit@@UAE_NABVQString@@_N11PAH2@Z 004363bc     qt-mt323:qt-mt323.dll
 0004:000033c0       __imp_?viewportResizeEvent@QTextEdit@@MAEXPAVQResizeEvent@@@Z 004363c0     qt-mt323:qt-mt323.dll
 0004:000033c4       __imp_?contentsContextMenuEvent@QTextEdit@@MAEXPAVQContextMenuEvent@@@Z 004363c4     qt-mt323:qt-mt323.dll
 0004:000033c8       __imp_?contentsWheelEvent@QTextEdit@@MAEXPAVQWheelEvent@@@Z 004363c8     qt-mt323:qt-mt323.dll
 0004:000033cc       __imp_?contentsDropEvent@QTextEdit@@MAEXPAVQDropEvent@@@Z 004363cc     qt-mt323:qt-mt323.dll
 0004:000033d0       __imp_?contentsDragLeaveEvent@QTextEdit@@MAEXPAVQDragLeaveEvent@@@Z 004363d0     qt-mt323:qt-mt323.dll
 0004:000033d4       __imp_?contentsDragMoveEvent@QTextEdit@@MAEXPAVQDragMoveEvent@@@Z 004363d4     qt-mt323:qt-mt323.dll
 0004:000033d8       __imp_?contentsDragEnterEvent@QTextEdit@@MAEXPAVQDragEnterEvent@@@Z 004363d8     qt-mt323:qt-mt323.dll
 0004:000033dc       __imp_?contentsMouseMoveEvent@QTextEdit@@MAEXPAVQMouseEvent@@@Z 004363dc     qt-mt323:qt-mt323.dll
 0004:000033e0       __imp_?contentsMouseDoubleClickEvent@QTextEdit@@MAEXPAVQMouseEvent@@@Z 004363e0     qt-mt323:qt-mt323.dll
 0004:000033e4       __imp_?contentsMouseReleaseEvent@QTextEdit@@MAEXPAVQMouseEvent@@@Z 004363e4     qt-mt323:qt-mt323.dll
 0004:000033e8       __imp_?contentsMousePressEvent@QTextEdit@@MAEXPAVQMouseEvent@@@Z 004363e8     qt-mt323:qt-mt323.dll
 0004:000033ec       __imp_?drawContents@QTextEdit@@MAEXPAVQPainter@@HHHH@Z 004363ec     qt-mt323:qt-mt323.dll
 0004:000033f0       __imp_?drawContents@QTextEdit@@EAEXPAVQPainter@@@Z 004363f0     qt-mt323:qt-mt323.dll
 0004:000033f4       __imp_?focusNextPrevChild@QTextEdit@@MAE_N_N@Z 004363f4     qt-mt323:qt-mt323.dll
 0004:000033f8       __imp_?windowActivationChange@QTextEdit@@MAEX_N@Z 004363f8     qt-mt323:qt-mt323.dll
 0004:000033fc       __imp_?imEndEvent@QTextEdit@@MAEXPAVQIMEvent@@@Z 004363fc     qt-mt323:qt-mt323.dll
 0004:00003400       __imp_?imComposeEvent@QTextEdit@@MAEXPAVQIMEvent@@@Z 00436400     qt-mt323:qt-mt323.dll
 0004:00003404       __imp_?imStartEvent@QTextEdit@@MAEXPAVQIMEvent@@@Z 00436404     qt-mt323:qt-mt323.dll
 0004:00003408       __imp_?resizeEvent@QTextEdit@@MAEXPAVQResizeEvent@@@Z 00436408     qt-mt323:qt-mt323.dll
 0004:0000340c       __imp_?keyPressEvent@QTextEdit@@MAEXPAVQKeyEvent@@@Z 0043640c     qt-mt323:qt-mt323.dll
 0004:00003410       __imp_?heightForWidth@QTextEdit@@UBEHH@Z 00436410     qt-mt323:qt-mt323.dll
 0004:00003414       __imp_?sizeHint@QTextEdit@@UBE?AVQSize@@XZ 00436414     qt-mt323:qt-mt323.dll
 0004:00003418       __imp_?polish@QTextEdit@@UAEXXZ 00436418     qt-mt323:qt-mt323.dll
 0004:0000341c       __imp_?setFont@QTextEdit@@UAEXABVQFont@@@Z 0043641c     qt-mt323:qt-mt323.dll
 0004:00003420       __imp_?setPalette@QTextEdit@@UAEXABVQPalette@@@Z 00436420     qt-mt323:qt-mt323.dll
 0004:00003424       __imp_?setEnabled@QTextEdit@@UAEX_N@Z 00436424     qt-mt323:qt-mt323.dll
 0004:00003428       __imp_?eventFilter@QTextEdit@@UAE_NPAVQObject@@PAVQEvent@@@Z 00436428     qt-mt323:qt-mt323.dll
 0004:0000342c       __imp_?event@QTextEdit@@MAE_NPAVQEvent@@@Z 0043642c     qt-mt323:qt-mt323.dll
 0004:00003430       __imp_?qt_property@QTextEdit@@UAE_NHHPAVQVariant@@@Z 00436430     qt-mt323:qt-mt323.dll
 0004:00003434       __imp_?qt_emit@QTextEdit@@UAE_NHPAUQUObject@@@Z 00436434     qt-mt323:qt-mt323.dll
 0004:00003438       __imp_?qt_invoke@QTextEdit@@UAE_NHPAUQUObject@@@Z 00436438     qt-mt323:qt-mt323.dll
 0004:0000343c       __imp_?qt_cast@QTextEdit@@UAEPAXPBD@Z 0043643c     qt-mt323:qt-mt323.dll
 0004:00003440       __imp_?className@QTextEdit@@UBEPBDXZ 00436440     qt-mt323:qt-mt323.dll
 0004:00003444       __imp_?metaObject@QTextEdit@@UBEPAVQMetaObject@@XZ 00436444     qt-mt323:qt-mt323.dll
 0004:00003448       __imp_?setAutoAdvance@QDateTimeEdit@@UAEX_N@Z 00436448     qt-mt323:qt-mt323.dll
 0004:0000344c       __imp_?setDateTime@QDateTimeEdit@@UAEXABVQDateTime@@@Z 0043644c     qt-mt323:qt-mt323.dll
 0004:00003450       __imp_?resizeEvent@QDateTimeEdit@@MAEXPAVQResizeEvent@@@Z 00436450     qt-mt323:qt-mt323.dll
 0004:00003454       __imp_?minimumSizeHint@QDateTimeEdit@@UBE?AVQSize@@XZ 00436454     qt-mt323:qt-mt323.dll
 0004:00003458       __imp_?sizeHint@QDateTimeEdit@@UBE?AVQSize@@XZ 00436458     qt-mt323:qt-mt323.dll
 0004:0000345c       __imp_?qt_property@QDateTimeEdit@@UAE_NHHPAVQVariant@@@Z 0043645c     qt-mt323:qt-mt323.dll
 0004:00003460       __imp_?qt_emit@QDateTimeEdit@@UAE_NHPAUQUObject@@@Z 00436460     qt-mt323:qt-mt323.dll
 0004:00003464       __imp_?qt_invoke@QDateTimeEdit@@UAE_NHPAUQUObject@@@Z 00436464     qt-mt323:qt-mt323.dll
 0004:00003468       __imp_?qt_cast@QDateTimeEdit@@UAEPAXPBD@Z 00436468     qt-mt323:qt-mt323.dll
 0004:0000346c       __imp_?className@QDateTimeEdit@@UBEPBDXZ 0043646c     qt-mt323:qt-mt323.dll
 0004:00003470       __imp_?metaObject@QDateTimeEdit@@UBEPAVQMetaObject@@XZ 00436470     qt-mt323:qt-mt323.dll
 0004:00003474       __imp_?sizeHint@QFrame@@UBE?AVQSize@@XZ 00436474     qt-mt323:qt-mt323.dll
 0004:00003478       __imp_?qt_property@QFrame@@UAE_NHHPAVQVariant@@@Z 00436478     qt-mt323:qt-mt323.dll
 0004:0000347c       __imp_?qt_emit@QFrame@@UAE_NHPAUQUObject@@@Z 0043647c     qt-mt323:qt-mt323.dll
 0004:00003480       __imp_?qt_invoke@QFrame@@UAE_NHPAUQUObject@@@Z 00436480     qt-mt323:qt-mt323.dll
 0004:00003484       __imp_?qt_cast@QFrame@@UAEPAXPBD@Z 00436484     qt-mt323:qt-mt323.dll
 0004:00003488       __imp_?className@QFrame@@UBEPBDXZ 00436488     qt-mt323:qt-mt323.dll
 0004:0000348c       __imp_?metaObject@QFrame@@UBEPAVQMetaObject@@XZ 0043648c     qt-mt323:qt-mt323.dll
 0004:00003490       __imp_?setIndicator@QProgressBar@@MAE_NAAVQString@@HH@Z 00436490     qt-mt323:qt-mt323.dll
 0004:00003494       __imp_?setProgress@QProgressBar@@UAEXH@Z 00436494     qt-mt323:qt-mt323.dll
 0004:00003498       __imp_?setTotalSteps@QProgressBar@@UAEXH@Z 00436498     qt-mt323:qt-mt323.dll
 0004:0000349c       __imp_?drawContents@QProgressBar@@MAEXPAVQPainter@@@Z 0043649c     qt-mt323:qt-mt323.dll
 0004:000034a0       __imp_?styleChange@QProgressBar@@MAEXAAVQStyle@@@Z 004364a0     qt-mt323:qt-mt323.dll
 0004:000034a4       __imp_?minimumSizeHint@QProgressBar@@UBE?AVQSize@@XZ 004364a4     qt-mt323:qt-mt323.dll
 0004:000034a8       __imp_?sizeHint@QProgressBar@@UBE?AVQSize@@XZ 004364a8     qt-mt323:qt-mt323.dll
 0004:000034ac       __imp_?show@QProgressBar@@UAEXXZ 004364ac     qt-mt323:qt-mt323.dll
 0004:000034b0       __imp_?qt_property@QProgressBar@@UAE_NHHPAVQVariant@@@Z 004364b0     qt-mt323:qt-mt323.dll
 0004:000034b4       __imp_?qt_emit@QProgressBar@@UAE_NHPAUQUObject@@@Z 004364b4     qt-mt323:qt-mt323.dll
 0004:000034b8       __imp_?qt_invoke@QProgressBar@@UAE_NHPAUQUObject@@@Z 004364b8     qt-mt323:qt-mt323.dll
 0004:000034bc       __imp_?qt_cast@QProgressBar@@UAEPAXPBD@Z 004364bc     qt-mt323:qt-mt323.dll
 0004:000034c0       __imp_?className@QProgressBar@@UBEPBDXZ 004364c0     qt-mt323:qt-mt323.dll
 0004:000034c4       __imp_?metaObject@QProgressBar@@UBEPAVQMetaObject@@XZ 004364c4     qt-mt323:qt-mt323.dll
 0004:000034c8       __imp_?rangeChange@QSlider@@MAEXXZ 004364c8     qt-mt323:qt-mt323.dll
 0004:000034cc       __imp_?valueChange@QSlider@@MAEXXZ 004364cc     qt-mt323:qt-mt323.dll
 0004:000034d0       __imp_?setValue@QSlider@@UAEXH@Z 004364d0     qt-mt323:qt-mt323.dll
 0004:000034d4       __imp_?setTickInterval@QSlider@@UAEXH@Z 004364d4     qt-mt323:qt-mt323.dll
 0004:000034d8       __imp_?setTickmarks@QSlider@@UAEXW4TickSetting@1@@Z 004364d8     qt-mt323:qt-mt323.dll
 0004:000034dc       __imp_?setTracking@QSlider@@UAEX_N@Z 004364dc     qt-mt323:qt-mt323.dll
 0004:000034e0       __imp_?setOrientation@QSlider@@UAEXW4Orientation@Qt@@@Z 004364e0     qt-mt323:qt-mt323.dll
 0004:000034e4       __imp_?styleChange@QSlider@@MAEXAAVQStyle@@@Z 004364e4     qt-mt323:qt-mt323.dll
 0004:000034e8       __imp_?resizeEvent@QSlider@@MAEXPAVQResizeEvent@@@Z 004364e8     qt-mt323:qt-mt323.dll
 0004:000034ec       __imp_?paintEvent@QSlider@@MAEXPAVQPaintEvent@@@Z 004364ec     qt-mt323:qt-mt323.dll
 0004:000034f0       __imp_?focusOutEvent@QSlider@@MAEXPAVQFocusEvent@@@Z 004364f0     qt-mt323:qt-mt323.dll
 0004:000034f4       __imp_?focusInEvent@QSlider@@MAEXPAVQFocusEvent@@@Z 004364f4     qt-mt323:qt-mt323.dll
 0004:000034f8       __imp_?keyPressEvent@QSlider@@MAEXPAVQKeyEvent@@@Z 004364f8     qt-mt323:qt-mt323.dll
 0004:000034fc       __imp_?wheelEvent@QSlider@@MAEXPAVQWheelEvent@@@Z 004364fc     qt-mt323:qt-mt323.dll
 0004:00003500       __imp_?mouseMoveEvent@QSlider@@MAEXPAVQMouseEvent@@@Z 00436500     qt-mt323:qt-mt323.dll
 0004:00003504       __imp_?mouseReleaseEvent@QSlider@@MAEXPAVQMouseEvent@@@Z 00436504     qt-mt323:qt-mt323.dll
 0004:00003508       __imp_?mousePressEvent@QSlider@@MAEXPAVQMouseEvent@@@Z 00436508     qt-mt323:qt-mt323.dll
 0004:0000350c       __imp_?setSizePolicy@QSlider@@UAEXVQSizePolicy@@@Z 0043650c     qt-mt323:qt-mt323.dll
 0004:00003510       __imp_?sizePolicy@QSlider@@UBE?AVQSizePolicy@@XZ 00436510     qt-mt323:qt-mt323.dll
 0004:00003514       __imp_?minimumSizeHint@QSlider@@UBE?AVQSize@@XZ 00436514     qt-mt323:qt-mt323.dll
 0004:00003518       __imp_?sizeHint@QSlider@@UBE?AVQSize@@XZ 00436518     qt-mt323:qt-mt323.dll
 0004:0000351c       __imp_?setPalette@QSlider@@UAEXABVQPalette@@@Z 0043651c     qt-mt323:qt-mt323.dll
 0004:00003520       __imp_?qt_property@QSlider@@UAE_NHHPAVQVariant@@@Z 00436520     qt-mt323:qt-mt323.dll
 0004:00003524       __imp_?qt_emit@QSlider@@UAE_NHPAUQUObject@@@Z 00436524     qt-mt323:qt-mt323.dll
 0004:00003528       __imp_?qt_invoke@QSlider@@UAE_NHPAUQUObject@@@Z 00436528     qt-mt323:qt-mt323.dll
 0004:0000352c       __imp_?qt_cast@QSlider@@UAEPAXPBD@Z 0043652c     qt-mt323:qt-mt323.dll
 0004:00003530       __imp_?className@QSlider@@UBEPBDXZ 00436530     qt-mt323:qt-mt323.dll
 0004:00003534       __imp_?metaObject@QSlider@@UBEPAVQMetaObject@@XZ 00436534     qt-mt323:qt-mt323.dll
 0004:00003538       __imp_?setRubberband@QSplitter@@MAEXH@Z 00436538     qt-mt323:qt-mt323.dll
 0004:0000353c       __imp_?drawSplitter@QSplitter@@MAEXPAVQPainter@@HHHH@Z 0043653c     qt-mt323:qt-mt323.dll
 0004:00003540       __imp_?setOpaqueResize@QSplitter@@UAEX_N@Z 00436540     qt-mt323:qt-mt323.dll
 0004:00003544       __imp_?setResizeMode@QSplitter@@UAEXPAVQWidget@@W4ResizeMode@1@@Z 00436544     qt-mt323:qt-mt323.dll
 0004:00003548       __imp_?setOrientation@QSplitter@@UAEXW4Orientation@Qt@@@Z 00436548     qt-mt323:qt-mt323.dll
 0004:0000354c       __imp_?styleChange@QSplitter@@MAEXAAVQStyle@@@Z 0043654c     qt-mt323:qt-mt323.dll
 0004:00003550       __imp_?resizeEvent@QSplitter@@MAEXPAVQResizeEvent@@@Z 00436550     qt-mt323:qt-mt323.dll
 0004:00003554       __imp_?minimumSizeHint@QSplitter@@UBE?AVQSize@@XZ 00436554     qt-mt323:qt-mt323.dll
 0004:00003558       __imp_?sizeHint@QSplitter@@UBE?AVQSize@@XZ 00436558     qt-mt323:qt-mt323.dll
 0004:0000355c       __imp_?childEvent@QSplitter@@MAEXPAVQChildEvent@@@Z 0043655c     qt-mt323:qt-mt323.dll
 0004:00003560       __imp_?event@QSplitter@@MAE_NPAVQEvent@@@Z 00436560     qt-mt323:qt-mt323.dll
 0004:00003564       __imp_?qt_property@QSplitter@@UAE_NHHPAVQVariant@@@Z 00436564     qt-mt323:qt-mt323.dll
 0004:00003568       __imp_?qt_emit@QSplitter@@UAE_NHPAUQUObject@@@Z 00436568     qt-mt323:qt-mt323.dll
 0004:0000356c       __imp_?qt_invoke@QSplitter@@UAE_NHPAUQUObject@@@Z 0043656c     qt-mt323:qt-mt323.dll
 0004:00003570       __imp_?qt_cast@QSplitter@@UAEPAXPBD@Z 00436570     qt-mt323:qt-mt323.dll
 0004:00003574       __imp_?className@QSplitter@@UBEPBDXZ 00436574     qt-mt323:qt-mt323.dll
 0004:00003578       __imp_?metaObject@QSplitter@@UBEPAVQMetaObject@@XZ 00436578     qt-mt323:qt-mt323.dll
 0004:0000357c       __imp_?stepChange@QScrollBar@@MAEXXZ 0043657c     qt-mt323:qt-mt323.dll
 0004:00003580       __imp_?rangeChange@QScrollBar@@MAEXXZ 00436580     qt-mt323:qt-mt323.dll
 0004:00003584       __imp_?valueChange@QScrollBar@@MAEXXZ 00436584     qt-mt323:qt-mt323.dll
 0004:00003588       __imp_?setTracking@QScrollBar@@UAEX_N@Z 00436588     qt-mt323:qt-mt323.dll
 0004:0000358c       __imp_?setOrientation@QScrollBar@@UAEXW4Orientation@Qt@@@Z 0043658c     qt-mt323:qt-mt323.dll
 0004:00003590       __imp_?styleChange@QScrollBar@@MAEXAAVQStyle@@@Z 00436590     qt-mt323:qt-mt323.dll
 0004:00003594       __imp_?hideEvent@QScrollBar@@MAEXPAVQHideEvent@@@Z 00436594     qt-mt323:qt-mt323.dll
 0004:00003598       __imp_?contextMenuEvent@QScrollBar@@MAEXPAVQContextMenuEvent@@@Z 00436598     qt-mt323:qt-mt323.dll
 0004:0000359c       __imp_?resizeEvent@QScrollBar@@MAEXPAVQResizeEvent@@@Z 0043659c     qt-mt323:qt-mt323.dll
 0004:000035a0       __imp_?paintEvent@QScrollBar@@MAEXPAVQPaintEvent@@@Z 004365a0     qt-mt323:qt-mt323.dll
 0004:000035a4       __imp_?keyPressEvent@QScrollBar@@MAEXPAVQKeyEvent@@@Z 004365a4     qt-mt323:qt-mt323.dll
 0004:000035a8       __imp_?wheelEvent@QScrollBar@@MAEXPAVQWheelEvent@@@Z 004365a8     qt-mt323:qt-mt323.dll
 0004:000035ac       __imp_?mouseMoveEvent@QScrollBar@@MAEXPAVQMouseEvent@@@Z 004365ac     qt-mt323:qt-mt323.dll
 0004:000035b0       __imp_?mouseReleaseEvent@QScrollBar@@MAEXPAVQMouseEvent@@@Z 004365b0     qt-mt323:qt-mt323.dll
 0004:000035b4       __imp_?mousePressEvent@QScrollBar@@MAEXPAVQMouseEvent@@@Z 004365b4     qt-mt323:qt-mt323.dll
 0004:000035b8       __imp_?setSizePolicy@QScrollBar@@UAEXVQSizePolicy@@@Z 004365b8     qt-mt323:qt-mt323.dll
 0004:000035bc       __imp_?sizeHint@QScrollBar@@UBE?AVQSize@@XZ 004365bc     qt-mt323:qt-mt323.dll
 0004:000035c0       __imp_?setPalette@QScrollBar@@UAEXABVQPalette@@@Z 004365c0     qt-mt323:qt-mt323.dll
 0004:000035c4       __imp_?qt_property@QScrollBar@@UAE_NHHPAVQVariant@@@Z 004365c4     qt-mt323:qt-mt323.dll
 0004:000035c8       __imp_?qt_emit@QScrollBar@@UAE_NHPAUQUObject@@@Z 004365c8     qt-mt323:qt-mt323.dll
 0004:000035cc       __imp_?qt_invoke@QScrollBar@@UAE_NHPAUQUObject@@@Z 004365cc     qt-mt323:qt-mt323.dll
 0004:000035d0       __imp_?qt_cast@QScrollBar@@UAEPAXPBD@Z 004365d0     qt-mt323:qt-mt323.dll
 0004:000035d4       __imp_?className@QScrollBar@@UBEPBDXZ 004365d4     qt-mt323:qt-mt323.dll
 0004:000035d8       __imp_?metaObject@QScrollBar@@UBEPAVQMetaObject@@XZ 004365d8     qt-mt323:qt-mt323.dll
 0004:000035dc       __imp_?layOutTitleRow@QWizard@@MAEXPAVQHBoxLayout@@ABVQString@@@Z 004365dc     qt-mt323:qt-mt323.dll
 0004:000035e0       __imp_?layOutButtonRow@QWizard@@MAEXPAVQHBoxLayout@@@Z 004365e0     qt-mt323:qt-mt323.dll
 0004:000035e4       __imp_?help@QWizard@@MAEXXZ 004365e4     qt-mt323:qt-mt323.dll
 0004:000035e8       __imp_?next@QWizard@@MAEXXZ 004365e8     qt-mt323:qt-mt323.dll
 0004:000035ec       __imp_?back@QWizard@@MAEXXZ 004365ec     qt-mt323:qt-mt323.dll
 0004:000035f0       __imp_?setFinish@QWizard@@UAEXPAVQWidget@@_N@Z 004365f0     qt-mt323:qt-mt323.dll
 0004:000035f4       __imp_?setHelpEnabled@QWizard@@UAEXPAVQWidget@@_N@Z 004365f4     qt-mt323:qt-mt323.dll
 0004:000035f8       __imp_?setFinishEnabled@QWizard@@UAEXPAVQWidget@@_N@Z 004365f8     qt-mt323:qt-mt323.dll
 0004:000035fc       __imp_?setNextEnabled@QWizard@@UAEXPAVQWidget@@_N@Z 004365fc     qt-mt323:qt-mt323.dll
 0004:00003600       __imp_?setBackEnabled@QWizard@@UAEXPAVQWidget@@_N@Z 00436600     qt-mt323:qt-mt323.dll
 0004:00003604       __imp_?setAppropriate@QWizard@@UAEXPAVQWidget@@_N@Z 00436604     qt-mt323:qt-mt323.dll
 0004:00003608       __imp_?appropriate@QWizard@@UBE_NPAVQWidget@@@Z 00436608     qt-mt323:qt-mt323.dll
 0004:0000360c       __imp_?showPage@QWizard@@UAEXPAVQWidget@@@Z 0043660c     qt-mt323:qt-mt323.dll
 0004:00003610       __imp_?removePage@QWizard@@UAEXPAVQWidget@@@Z 00436610     qt-mt323:qt-mt323.dll
 0004:00003614       __imp_?insertPage@QWizard@@UAEXPAVQWidget@@ABVQString@@H@Z 00436614     qt-mt323:qt-mt323.dll
 0004:00003618       __imp_?addPage@QWizard@@UAEXPAVQWidget@@ABVQString@@@Z 00436618     qt-mt323:qt-mt323.dll
 0004:0000361c       __imp_?show@QWizard@@UAEXXZ 0043661c     qt-mt323:qt-mt323.dll
 0004:00003620       __imp_?setFont@QWizard@@UAEXABVQFont@@@Z 00436620     qt-mt323:qt-mt323.dll
 0004:00003624       __imp_?eventFilter@QWizard@@UAE_NPAVQObject@@PAVQEvent@@@Z 00436624     qt-mt323:qt-mt323.dll
 0004:00003628       __imp_?qt_property@QWizard@@UAE_NHHPAVQVariant@@@Z 00436628     qt-mt323:qt-mt323.dll
 0004:0000362c       __imp_?qt_emit@QWizard@@UAE_NHPAUQUObject@@@Z 0043662c     qt-mt323:qt-mt323.dll
 0004:00003630       __imp_?qt_invoke@QWizard@@UAE_NHPAUQUObject@@@Z 00436630     qt-mt323:qt-mt323.dll
 0004:00003634       __imp_?qt_cast@QWizard@@UAEPAXPBD@Z 00436634     qt-mt323:qt-mt323.dll
 0004:00003638       __imp_?className@QWizard@@UBEPBDXZ 00436638     qt-mt323:qt-mt323.dll
 0004:0000363c       __imp_?metaObject@QWizard@@UBEPAVQMetaObject@@XZ 0043663c     qt-mt323:qt-mt323.dll
 0004:00003640       __imp_?className@QDialog@@UBEPBDXZ 00436640     qt-mt323:qt-mt323.dll
 0004:00003644       __imp_?metaObject@QDialog@@UBEPAVQMetaObject@@XZ 00436644     qt-mt323:qt-mt323.dll
 0004:00003648       __imp_?frameChanged@QHBox@@MAEXXZ 00436648     qt-mt323:qt-mt323.dll
 0004:0000364c       __imp_?sizeHint@QHBox@@UBE?AVQSize@@XZ 0043664c     qt-mt323:qt-mt323.dll
 0004:00003650       __imp_?qt_property@QHBox@@UAE_NHHPAVQVariant@@@Z 00436650     qt-mt323:qt-mt323.dll
 0004:00003654       __imp_?qt_emit@QHBox@@UAE_NHPAUQUObject@@@Z 00436654     qt-mt323:qt-mt323.dll
 0004:00003658       __imp_?qt_invoke@QHBox@@UAE_NHPAUQUObject@@@Z 00436658     qt-mt323:qt-mt323.dll
 0004:0000365c       __imp_?qt_cast@QHBox@@UAEPAXPBD@Z 0043665c     qt-mt323:qt-mt323.dll
 0004:00003660       __imp_?className@QHBox@@UBEPBDXZ 00436660     qt-mt323:qt-mt323.dll
 0004:00003664       __imp_?metaObject@QHBox@@UBEPAVQMetaObject@@XZ 00436664     qt-mt323:qt-mt323.dll
 0004:00003668       __imp_?fieldAlignment@QDataTable@@MAEHPBVQSqlField@@@Z 00436668     qt-mt323:qt-mt323.dll
 0004:0000366c       __imp_?paintField@QDataTable@@MAEXPAVQPainter@@PBVQSqlField@@ABVQRect@@_N@Z 0043666c     qt-mt323:qt-mt323.dll
 0004:00003670       __imp_?beginUpdate@QDataTable@@MAEPAVQWidget@@HH_N@Z 00436670     qt-mt323:qt-mt323.dll
 0004:00003674       __imp_?beginInsert@QDataTable@@MAE_NXZ 00436674     qt-mt323:qt-mt323.dll
 0004:00003678       __imp_?handleError@QDataTable@@MAEXABVQSqlError@@@Z 00436678     qt-mt323:qt-mt323.dll
 0004:0000367c       __imp_?confirmCancel@QDataTable@@MAE?AW4Confirm@QSql@@W4Op@3@@Z 0043667c     qt-mt323:qt-mt323.dll
 0004:00003680       __imp_?confirmEdit@QDataTable@@MAE?AW4Confirm@QSql@@W4Op@3@@Z 00436680     qt-mt323:qt-mt323.dll
 0004:00003684       __imp_?deleteCurrent@QDataTable@@MAE_NXZ 00436684     qt-mt323:qt-mt323.dll
 0004:00003688       __imp_?updateCurrent@QDataTable@@MAE_NXZ 00436688     qt-mt323:qt-mt323.dll
 0004:0000368c       __imp_?insertCurrent@QDataTable@@MAE_NXZ 0043668c     qt-mt323:qt-mt323.dll
 0004:00003690       __imp_?sortDescending@QDataTable@@UAEXH@Z 00436690     qt-mt323:qt-mt323.dll
 0004:00003694       __imp_?sortAscending@QDataTable@@UAEXH@Z 00436694     qt-mt323:qt-mt323.dll
 0004:00003698       __imp_?find@QDataTable@@UAEXABVQString@@_N1@Z 00436698     qt-mt323:qt-mt323.dll
 0004:0000369c       __imp_?refresh@QDataTable@@UAEXXZ 0043669c     qt-mt323:qt-mt323.dll
 0004:000036a0       __imp_?setSort@QDataTable@@UAEXABVQStringList@@@Z 004366a0     qt-mt323:qt-mt323.dll
 0004:000036a4       __imp_?setSort@QDataTable@@UAEXABVQSqlIndex@@@Z 004366a4     qt-mt323:qt-mt323.dll
 0004:000036a8       __imp_?setFilter@QDataTable@@UAEXABVQString@@@Z 004366a8     qt-mt323:qt-mt323.dll
 0004:000036ac       __imp_?setAutoEdit@QDataTable@@UAEX_N@Z 004366ac     qt-mt323:qt-mt323.dll
 0004:000036b0       __imp_?setAutoDelete@QDataTable@@UAEX_N@Z 004366b0     qt-mt323:qt-mt323.dll
 0004:000036b4       __imp_?setConfirmCancels@QDataTable@@UAEX_N@Z 004366b4     qt-mt323:qt-mt323.dll
 0004:000036b8       __imp_?setConfirmDelete@QDataTable@@UAEX_N@Z 004366b8     qt-mt323:qt-mt323.dll
 0004:000036bc       __imp_?setConfirmUpdate@QDataTable@@UAEX_N@Z 004366bc     qt-mt323:qt-mt323.dll
 0004:000036c0       __imp_?setConfirmInsert@QDataTable@@UAEX_N@Z 004366c0     qt-mt323:qt-mt323.dll
 0004:000036c4       __imp_?setConfirmEdits@QDataTable@@UAEX_N@Z 004366c4     qt-mt323:qt-mt323.dll
 0004:000036c8       __imp_?setDateFormat@QDataTable@@UAEXW4DateFormat@Qt@@@Z 004366c8     qt-mt323:qt-mt323.dll
 0004:000036cc       __imp_?setFalseText@QDataTable@@UAEXABVQString@@@Z 004366cc     qt-mt323:qt-mt323.dll
 0004:000036d0       __imp_?setTrueText@QDataTable@@UAEXABVQString@@@Z 004366d0     qt-mt323:qt-mt323.dll
 0004:000036d4       __imp_?setNullText@QDataTable@@UAEXABVQString@@@Z 004366d4     qt-mt323:qt-mt323.dll
 0004:000036d8       __imp_?setSqlCursor@QDataTable@@UAEXPAVQSqlCursor@@_N1@Z 004366d8     qt-mt323:qt-mt323.dll
 0004:000036dc       __imp_?setColumn@QDataTable@@UAEXIABVQString@@0HABVQIconSet@@@Z 004366dc     qt-mt323:qt-mt323.dll
 0004:000036e0       __imp_?removeColumn@QDataTable@@UAEXI@Z 004366e0     qt-mt323:qt-mt323.dll
 0004:000036e4       __imp_?addColumn@QDataTable@@UAEXABVQString@@0HABVQIconSet@@@Z 004366e4     qt-mt323:qt-mt323.dll
 0004:000036e8       __imp_?columnClicked@QDataTable@@MAEXH@Z 004366e8     qt-mt323:qt-mt323.dll
 0004:000036ec       __imp_?resizeData@QDataTable@@MAEXH@Z 004366ec     qt-mt323:qt-mt323.dll
 0004:000036f0       __imp_?endEdit@QDataTable@@MAEXHH_N0@Z 004366f0     qt-mt323:qt-mt323.dll
 0004:000036f4       __imp_?beginEdit@QDataTable@@EAEPAVQWidget@@HH_N@Z 004366f4     qt-mt323:qt-mt323.dll
 0004:000036f8       __imp_?createEditor@QDataTable@@MBEPAVQWidget@@HH_N@Z 004366f8     qt-mt323:qt-mt323.dll
 0004:000036fc       __imp_?activateNextCell@QDataTable@@MAEXXZ 004366fc     qt-mt323:qt-mt323.dll
 0004:00003700       __imp_?swapColumns@QDataTable@@UAEXHH_N@Z 00436700     qt-mt323:qt-mt323.dll
 0004:00003704       __imp_?setColumnStretchable@QDataTable@@UAEXH_N@Z 00436704     qt-mt323:qt-mt323.dll
 0004:00003708       __imp_?adjustColumn@QDataTable@@UAEXH@Z 00436708     qt-mt323:qt-mt323.dll
 0004:0000370c       __imp_?setColumnWidth@QDataTable@@UAEXHH@Z 0043670c     qt-mt323:qt-mt323.dll
 0004:00003710       __imp_?showColumn@QDataTable@@UAEXH@Z 00436710     qt-mt323:qt-mt323.dll
 0004:00003714       __imp_?hideColumn@QDataTable@@UAEXH@Z 00436714     qt-mt323:qt-mt323.dll
 0004:00003718       __imp_?setNumCols@QDataTable@@UAEXH@Z 00436718     qt-mt323:qt-mt323.dll
 0004:0000371c       __imp_?setNumRows@QDataTable@@UAEXH@Z 0043671c     qt-mt323:qt-mt323.dll
 0004:00003720       __imp_?paintCell@QDataTable@@MAEXPAVQPainter@@HHABVQRect@@_NABVQColorGroup@@@Z 00436720     qt-mt323:qt-mt323.dll
 0004:00003724       __imp_?takeItem@QDataTable@@MAEXPAVQTableItem@@@Z 00436724     qt-mt323:qt-mt323.dll
 0004:00003728       __imp_?sortColumn@QDataTable@@UAEXH_N0@Z 00436728     qt-mt323:qt-mt323.dll
 0004:0000372c       __imp_?numCols@QDataTable@@UBEHXZ 0043672c     qt-mt323:qt-mt323.dll
 0004:00003730       __imp_?numRows@QDataTable@@UBEHXZ 00436730     qt-mt323:qt-mt323.dll
 0004:00003734       __imp_?clearCell@QDataTable@@MAEXHH@Z 00436734     qt-mt323:qt-mt323.dll
 0004:00003738       __imp_?text@QDataTable@@UBE?AVQString@@HH@Z 00436738     qt-mt323:qt-mt323.dll
 0004:0000373c       __imp_?item@QDataTable@@MBEPAVQTableItem@@HH@Z 0043673c     qt-mt323:qt-mt323.dll
 0004:00003740       __imp_?setPixmap@QDataTable@@MAEXHHABVQPixmap@@@Z 00436740     qt-mt323:qt-mt323.dll
 0004:00003744       __imp_?setItem@QDataTable@@MAEXHHPAVQTableItem@@@Z 00436744     qt-mt323:qt-mt323.dll
 0004:00003748       __imp_?contentsContextMenuEvent@QDataTable@@MAEXPAVQContextMenuEvent@@@Z 00436748     qt-mt323:qt-mt323.dll
 0004:0000374c       __imp_?contentsMousePressEvent@QDataTable@@MAEXPAVQMouseEvent@@@Z 0043674c     qt-mt323:qt-mt323.dll
 0004:00003750       __imp_?drawContents@QDataTable@@MAEXPAVQPainter@@HHHH@Z 00436750     qt-mt323:qt-mt323.dll
 0004:00003754       __imp_?resizeEvent@QDataTable@@MAEXPAVQResizeEvent@@@Z 00436754     qt-mt323:qt-mt323.dll
 0004:00003758       __imp_?keyPressEvent@QDataTable@@MAEXPAVQKeyEvent@@@Z 00436758     qt-mt323:qt-mt323.dll
 0004:0000375c       __imp_?eventFilter@QDataTable@@MAE_NPAVQObject@@PAVQEvent@@@Z 0043675c     qt-mt323:qt-mt323.dll
 0004:00003760       __imp_?qt_property@QDataTable@@UAE_NHHPAVQVariant@@@Z 00436760     qt-mt323:qt-mt323.dll
 0004:00003764       __imp_?qt_emit@QDataTable@@UAE_NHPAUQUObject@@@Z 00436764     qt-mt323:qt-mt323.dll
 0004:00003768       __imp_?qt_invoke@QDataTable@@UAE_NHPAUQUObject@@@Z 00436768     qt-mt323:qt-mt323.dll
 0004:0000376c       __imp_?qt_cast@QDataTable@@UAEPAXPBD@Z 0043676c     qt-mt323:qt-mt323.dll
 0004:00003770       __imp_?className@QDataTable@@UBEPBDXZ 00436770     qt-mt323:qt-mt323.dll
 0004:00003774       __imp_?metaObject@QDataTable@@UBEPAVQMetaObject@@XZ 00436774     qt-mt323:qt-mt323.dll
 0004:00003778       __imp_?columnClicked@QTable@@MAEXH@Z 00436778     qt-mt323:qt-mt323.dll
 0004:0000377c       __imp_?rowIndexChanged@QTable@@MAEXHHH@Z 0043677c     qt-mt323:qt-mt323.dll
 0004:00003780       __imp_?columnIndexChanged@QTable@@MAEXHHH@Z 00436780     qt-mt323:qt-mt323.dll
 0004:00003784       __imp_?rowHeightChanged@QTable@@MAEXH@Z 00436784     qt-mt323:qt-mt323.dll
 0004:00003788       __imp_?columnWidthChanged@QTable@@MAEXH@Z 00436788     qt-mt323:qt-mt323.dll
 0004:0000378c       __imp_?insertWidget@QTable@@MAEXHHPAVQWidget@@@Z 0043678c     qt-mt323:qt-mt323.dll
 0004:00003790       __imp_?resizeData@QTable@@MAEXH@Z 00436790     qt-mt323:qt-mt323.dll
 0004:00003794       __imp_?endEdit@QTable@@MAEXHH_N0@Z 00436794     qt-mt323:qt-mt323.dll
 0004:00003798       __imp_?beginEdit@QTable@@MAEPAVQWidget@@HH_N@Z 00436798     qt-mt323:qt-mt323.dll
 0004:0000379c       __imp_?setCellContentFromEditor@QTable@@MAEXHH@Z 0043679c     qt-mt323:qt-mt323.dll
 0004:000037a0       __imp_?createEditor@QTable@@MBEPAVQWidget@@HH_N@Z 004367a0     qt-mt323:qt-mt323.dll
 0004:000037a4       __imp_?activateNextCell@QTable@@MAEXXZ 004367a4     qt-mt323:qt-mt323.dll
 0004:000037a8       __imp_?paintEmptyArea@QTable@@MAEXPAVQPainter@@HHHH@Z 004367a8     qt-mt323:qt-mt323.dll
 0004:000037ac       __imp_?startDrag@QTable@@MAEXXZ 004367ac     qt-mt323:qt-mt323.dll
 0004:000037b0       __imp_?dragObject@QTable@@MAEPAVQDragObject@@XZ 004367b0     qt-mt323:qt-mt323.dll
 0004:000037b4       __imp_?editCell@QTable@@UAEXHH_N@Z 004367b4     qt-mt323:qt-mt323.dll
 0004:000037b8       __imp_?removeColumns@QTable@@UAEXABV?$QMemArray@H@@@Z 004367b8     qt-mt323:qt-mt323.dll
 0004:000037bc       __imp_?removeColumn@QTable@@UAEXH@Z 004367bc     qt-mt323:qt-mt323.dll
 0004:000037c0       __imp_?removeRows@QTable@@UAEXABV?$QMemArray@H@@@Z 004367c0     qt-mt323:qt-mt323.dll
 0004:000037c4       __imp_?removeRow@QTable@@UAEXH@Z 004367c4     qt-mt323:qt-mt323.dll
 0004:000037c8       __imp_?insertColumns@QTable@@UAEXHH@Z 004367c8     qt-mt323:qt-mt323.dll
 0004:000037cc       __imp_?insertRows@QTable@@UAEXHH@Z 004367cc     qt-mt323:qt-mt323.dll
 0004:000037d0       __imp_?setDragEnabled@QTable@@UAEX_N@Z 004367d0     qt-mt323:qt-mt323.dll
 0004:000037d4       __imp_?setColumnReadOnly@QTable@@UAEXH_N@Z 004367d4     qt-mt323:qt-mt323.dll
 0004:000037d8       __imp_?setRowReadOnly@QTable@@UAEXH_N@Z 004367d8     qt-mt323:qt-mt323.dll
 0004:000037dc       __imp_?setReadOnly@QTable@@UAEX_N@Z 004367dc     qt-mt323:qt-mt323.dll
 0004:000037e0       __imp_?setRowMovingEnabled@QTable@@UAEX_N@Z 004367e0     qt-mt323:qt-mt323.dll
 0004:000037e4       __imp_?setColumnMovingEnabled@QTable@@UAEX_N@Z 004367e4     qt-mt323:qt-mt323.dll
 0004:000037e8       __imp_?setCurrentCell@QTable@@UAEXHH@Z 004367e8     qt-mt323:qt-mt323.dll
 0004:000037ec       __imp_?setTopMargin@QTable@@UAEXH@Z 004367ec     qt-mt323:qt-mt323.dll
 0004:000037f0       __imp_?setLeftMargin@QTable@@UAEXH@Z 004367f0     qt-mt323:qt-mt323.dll
 0004:000037f4       __imp_?swapCells@QTable@@UAEXHHHH@Z 004367f4     qt-mt323:qt-mt323.dll
 0004:000037f8       __imp_?swapColumns@QTable@@UAEXHH_N@Z 004367f8     qt-mt323:qt-mt323.dll
 0004:000037fc       __imp_?swapRows@QTable@@UAEXHH_N@Z 004367fc     qt-mt323:qt-mt323.dll
 0004:00003800       __imp_?setSorting@QTable@@UAEX_N@Z 00436800     qt-mt323:qt-mt323.dll
 0004:00003804       __imp_?setRowStretchable@QTable@@UAEXH_N@Z 00436804     qt-mt323:qt-mt323.dll
 0004:00003808       __imp_?setColumnStretchable@QTable@@UAEXH_N@Z 00436808     qt-mt323:qt-mt323.dll
 0004:0000380c       __imp_?adjustRow@QTable@@UAEXH@Z 0043680c     qt-mt323:qt-mt323.dll
 0004:00003810       __imp_?adjustColumn@QTable@@UAEXH@Z 00436810     qt-mt323:qt-mt323.dll
 0004:00003814       __imp_?setRowHeight@QTable@@UAEXHH@Z 00436814     qt-mt323:qt-mt323.dll
 0004:00003818       __imp_?setColumnWidth@QTable@@UAEXHH@Z 00436818     qt-mt323:qt-mt323.dll
 0004:0000381c       __imp_?showColumn@QTable@@UAEXH@Z 0043681c     qt-mt323:qt-mt323.dll
 0004:00003820       __imp_?showRow@QTable@@UAEXH@Z 00436820     qt-mt323:qt-mt323.dll
 0004:00003824       __imp_?hideColumn@QTable@@UAEXH@Z 00436824     qt-mt323:qt-mt323.dll
 0004:00003828       __imp_?hideRow@QTable@@UAEXH@Z 00436828     qt-mt323:qt-mt323.dll
 0004:0000382c       __imp_?setShowGrid@QTable@@UAEX_N@Z 0043682c     qt-mt323:qt-mt323.dll
 0004:00003830       __imp_?setNumCols@QTable@@UAEXH@Z 00436830     qt-mt323:qt-mt323.dll
 0004:00003834       __imp_?setNumRows@QTable@@UAEXH@Z 00436834     qt-mt323:qt-mt323.dll
 0004:00003838       __imp_?setFocusStyle@QTable@@UAEXW4FocusStyle@1@@Z 00436838     qt-mt323:qt-mt323.dll
 0004:0000383c       __imp_?paintFocus@QTable@@UAEXPAVQPainter@@ABVQRect@@@Z 0043683c     qt-mt323:qt-mt323.dll
 0004:00003840       __imp_?paintCell@QTable@@UAEXPAVQPainter@@HHABVQRect@@_N@Z 00436840     qt-mt323:qt-mt323.dll
 0004:00003844       __imp_?paintCell@QTable@@UAEXPAVQPainter@@HHABVQRect@@_NABVQColorGroup@@@Z 00436844     qt-mt323:qt-mt323.dll
 0004:00003848       __imp_?cellRect@QTable@@UBE?AVQRect@@HH@Z 00436848     qt-mt323:qt-mt323.dll
 0004:0000384c       __imp_?clearCellWidget@QTable@@UAEXHH@Z 0043684c     qt-mt323:qt-mt323.dll
 0004:00003850       __imp_?cellWidget@QTable@@UBEPAVQWidget@@HH@Z 00436850     qt-mt323:qt-mt323.dll
 0004:00003854       __imp_?setCellWidget@QTable@@UAEXHHPAVQWidget@@@Z 00436854     qt-mt323:qt-mt323.dll
 0004:00003858       __imp_?takeItem@QTable@@UAEXPAVQTableItem@@@Z 00436858     qt-mt323:qt-mt323.dll
 0004:0000385c       __imp_?sortColumn@QTable@@UAEXH_N0@Z 0043685c     qt-mt323:qt-mt323.dll
 0004:00003860       __imp_?currentSelection@QTable@@UBEHXZ 00436860     qt-mt323:qt-mt323.dll
 0004:00003864       __imp_?removeSelection@QTable@@UAEXABVQTableSelection@@@Z 00436864     qt-mt323:qt-mt323.dll
 0004:00003868       __imp_?removeSelection@QTable@@UAEXH@Z 00436868     qt-mt323:qt-mt323.dll
 0004:0000386c       __imp_?addSelection@QTable@@UAEHABVQTableSelection@@@Z 0043686c     qt-mt323:qt-mt323.dll
 0004:00003870       __imp_?numCols@QTable@@UBEHXZ 00436870     qt-mt323:qt-mt323.dll
 0004:00003874       __imp_?numRows@QTable@@UBEHXZ 00436874     qt-mt323:qt-mt323.dll
 0004:00003878       __imp_?rowAt@QTable@@UBEHH@Z 00436878     qt-mt323:qt-mt323.dll
 0004:0000387c       __imp_?columnAt@QTable@@UBEHH@Z 0043687c     qt-mt323:qt-mt323.dll
 0004:00003880       __imp_?rowPos@QTable@@UBEHH@Z 00436880     qt-mt323:qt-mt323.dll
 0004:00003884       __imp_?columnPos@QTable@@UBEHH@Z 00436884     qt-mt323:qt-mt323.dll
 0004:00003888       __imp_?rowHeight@QTable@@UBEHH@Z 00436888     qt-mt323:qt-mt323.dll
 0004:0000388c       __imp_?columnWidth@QTable@@UBEHH@Z 0043688c     qt-mt323:qt-mt323.dll
 0004:00003890       __imp_?cellGeometry@QTable@@UBE?AVQRect@@HH@Z 00436890     qt-mt323:qt-mt323.dll
 0004:00003894       __imp_?clearCell@QTable@@UAEXHH@Z 00436894     qt-mt323:qt-mt323.dll
 0004:00003898       __imp_?pixmap@QTable@@UBE?AVQPixmap@@HH@Z 00436898     qt-mt323:qt-mt323.dll
 0004:0000389c       __imp_?text@QTable@@UBE?AVQString@@HH@Z 0043689c     qt-mt323:qt-mt323.dll
 0004:000038a0       __imp_?item@QTable@@UBEPAVQTableItem@@HH@Z 004368a0     qt-mt323:qt-mt323.dll
 0004:000038a4       __imp_?setPixmap@QTable@@UAEXHHABVQPixmap@@@Z 004368a4     qt-mt323:qt-mt323.dll
 0004:000038a8       __imp_?setText@QTable@@UAEXHHABVQString@@@Z 004368a8     qt-mt323:qt-mt323.dll
 0004:000038ac       __imp_?setItem@QTable@@UAEXHHPAVQTableItem@@@Z 004368ac     qt-mt323:qt-mt323.dll
 0004:000038b0       __imp_?setSelectionMode@QTable@@UAEXW4SelectionMode@1@@Z 004368b0     qt-mt323:qt-mt323.dll
 0004:000038b4       __imp_?viewportResizeEvent@QTable@@MAEXPAVQResizeEvent@@@Z 004368b4     qt-mt323:qt-mt323.dll
 0004:000038b8       __imp_?contentsContextMenuEvent@QTable@@MAEXPAVQContextMenuEvent@@@Z 004368b8     qt-mt323:qt-mt323.dll
 0004:000038bc       __imp_?contentsDropEvent@QTable@@MAEXPAVQDropEvent@@@Z 004368bc     qt-mt323:qt-mt323.dll
 0004:000038c0       __imp_?contentsDragLeaveEvent@QTable@@MAEXPAVQDragLeaveEvent@@@Z 004368c0     qt-mt323:qt-mt323.dll
 0004:000038c4       __imp_?contentsDragMoveEvent@QTable@@MAEXPAVQDragMoveEvent@@@Z 004368c4     qt-mt323:qt-mt323.dll
 0004:000038c8       __imp_?contentsDragEnterEvent@QTable@@MAEXPAVQDragEnterEvent@@@Z 004368c8     qt-mt323:qt-mt323.dll
 0004:000038cc       __imp_?contentsMouseMoveEvent@QTable@@MAEXPAVQMouseEvent@@@Z 004368cc     qt-mt323:qt-mt323.dll
 0004:000038d0       __imp_?contentsMouseDoubleClickEvent@QTable@@MAEXPAVQMouseEvent@@@Z 004368d0     qt-mt323:qt-mt323.dll
 0004:000038d4       __imp_?contentsMouseReleaseEvent@QTable@@MAEXPAVQMouseEvent@@@Z 004368d4     qt-mt323:qt-mt323.dll
 0004:000038d8       __imp_?contentsMousePressEvent@QTable@@MAEXPAVQMouseEvent@@@Z 004368d8     qt-mt323:qt-mt323.dll
 0004:000038dc       __imp_?drawContents@QTable@@MAEXPAVQPainter@@HHHH@Z 004368dc     qt-mt323:qt-mt323.dll
 0004:000038e0       __imp_?drawContents@QTable@@EAEXPAVQPainter@@@Z 004368e0     qt-mt323:qt-mt323.dll
 0004:000038e4       __imp_?windowActivationChange@QTable@@MAEX_N@Z 004368e4     qt-mt323:qt-mt323.dll
 0004:000038e8       __imp_?showEvent@QTable@@MAEXPAVQShowEvent@@@Z 004368e8     qt-mt323:qt-mt323.dll
 0004:000038ec       __imp_?resizeEvent@QScrollView@@MAEXPAVQResizeEvent@@@Z 004368ec     qt-mt323:qt-mt323.dll
 0004:000038f0       __imp_?paintEvent@QTable@@MAEXPAVQPaintEvent@@@Z 004368f0     qt-mt323:qt-mt323.dll
 0004:000038f4       __imp_?focusOutEvent@QTable@@MAEXPAVQFocusEvent@@@Z 004368f4     qt-mt323:qt-mt323.dll
 0004:000038f8       __imp_?focusInEvent@QTable@@MAEXPAVQFocusEvent@@@Z 004368f8     qt-mt323:qt-mt323.dll
 0004:000038fc       __imp_?keyPressEvent@QTable@@MAEXPAVQKeyEvent@@@Z 004368fc     qt-mt323:qt-mt323.dll
 0004:00003900       __imp_?minimumSizeHint@QScrollView@@UBE?AVQSize@@XZ 00436900     qt-mt323:qt-mt323.dll
 0004:00003904       __imp_?sizeHint@QTable@@UBE?AVQSize@@XZ 00436904     qt-mt323:qt-mt323.dll
 0004:00003908       __imp_?setEnabled@QTable@@UAEX_N@Z 00436908     qt-mt323:qt-mt323.dll
 0004:0000390c       __imp_?eventFilter@QTable@@UAE_NPAVQObject@@PAVQEvent@@@Z 0043690c     qt-mt323:qt-mt323.dll
 0004:00003910       __imp_?qt_property@QTable@@UAE_NHHPAVQVariant@@@Z 00436910     qt-mt323:qt-mt323.dll
 0004:00003914       __imp_?qt_emit@QTable@@UAE_NHPAUQUObject@@@Z 00436914     qt-mt323:qt-mt323.dll
 0004:00003918       __imp_?qt_invoke@QTable@@UAE_NHPAUQUObject@@@Z 00436918     qt-mt323:qt-mt323.dll
 0004:0000391c       __imp_?qt_cast@QTable@@UAEPAXPBD@Z 0043691c     qt-mt323:qt-mt323.dll
 0004:00003920       __imp_?className@QTable@@UBEPBDXZ 00436920     qt-mt323:qt-mt323.dll
 0004:00003924       __imp_?metaObject@QTable@@UBEPAVQMetaObject@@XZ 00436924     qt-mt323:qt-mt323.dll
 0004:00003928       __imp_?paintEmptyArea@QListView@@MAEXPAVQPainter@@ABVQRect@@@Z 00436928     qt-mt323:qt-mt323.dll
 0004:0000392c       __imp_?startDrag@QListView@@MAEXXZ 0043692c     qt-mt323:qt-mt323.dll
 0004:00003930       __imp_?dragObject@QListView@@MAEPAVQDragObject@@XZ 00436930     qt-mt323:qt-mt323.dll
 0004:00003934       __imp_?selectAll@QListView@@UAEX_N@Z 00436934     qt-mt323:qt-mt323.dll
 0004:00003938       __imp_?invertSelection@QListView@@UAEXXZ 00436938     qt-mt323:qt-mt323.dll
 0004:0000393c       __imp_?clear@QListView@@UAEXXZ 0043693c     qt-mt323:qt-mt323.dll
 0004:00003940       __imp_?setDefaultRenameAction@QListView@@UAEXW4RenameAction@1@@Z 00436940     qt-mt323:qt-mt323.dll
 0004:00003944       __imp_?setResizeMode@QListView@@UAEXW4ResizeMode@1@@Z 00436944     qt-mt323:qt-mt323.dll
 0004:00003948       __imp_?setShowToolTips@QListView@@UAEX_N@Z 00436948     qt-mt323:qt-mt323.dll
 0004:0000394c       __imp_?setShowSortIndicator@QListView@@UAEX_N@Z 0043694c     qt-mt323:qt-mt323.dll
 0004:00003950       __imp_?sort@QListView@@UAEXXZ 00436950     qt-mt323:qt-mt323.dll
 0004:00003954       __imp_?setSorting@QListView@@UAEXH_N@Z 00436954     qt-mt323:qt-mt323.dll
 0004:00003958       __imp_?setRootIsDecorated@QListView@@UAEX_N@Z 00436958     qt-mt323:qt-mt323.dll
 0004:0000395c       __imp_?setItemMargin@QListView@@UAEXH@Z 0043695c     qt-mt323:qt-mt323.dll
 0004:00003960       __imp_?setAllColumnsShowFocus@QListView@@UAEX_N@Z 00436960     qt-mt323:qt-mt323.dll
 0004:00003964       __imp_?setCurrentItem@QListView@@UAEXPAVQListViewItem@@@Z 00436964     qt-mt323:qt-mt323.dll
 0004:00003968       __imp_?setOpen@QListView@@UAEXPAVQListViewItem@@_N@Z 00436968     qt-mt323:qt-mt323.dll
 0004:0000396c       __imp_?setSelected@QListView@@UAEXPAVQListViewItem@@_N@Z 0043696c     qt-mt323:qt-mt323.dll
 0004:00003970       __imp_?clearSelection@QListView@@UAEXXZ 00436970     qt-mt323:qt-mt323.dll
 0004:00003974       __imp_?setMultiSelection@QListView@@UAEX_N@Z 00436974     qt-mt323:qt-mt323.dll
 0004:00003978       __imp_?setColumnAlignment@QListView@@UAEXHH@Z 00436978     qt-mt323:qt-mt323.dll
 0004:0000397c       __imp_?setColumnWidthMode@QListView@@UAEXHW4WidthMode@1@@Z 0043697c     qt-mt323:qt-mt323.dll
 0004:00003980       __imp_?setColumnWidth@QListView@@UAEXHH@Z 00436980     qt-mt323:qt-mt323.dll
 0004:00003984       __imp_?setColumnText@QListView@@UAEXHABVQString@@@Z 00436984     qt-mt323:qt-mt323.dll
 0004:00003988       __imp_?setColumnText@QListView@@UAEXHABVQIconSet@@ABVQString@@@Z 00436988     qt-mt323:qt-mt323.dll
 0004:0000398c       __imp_?removeColumn@QListView@@UAEXH@Z 0043698c     qt-mt323:qt-mt323.dll
 0004:00003990       __imp_?addColumn@QListView@@UAEHABVQString@@H@Z 00436990     qt-mt323:qt-mt323.dll
 0004:00003994       __imp_?addColumn@QListView@@UAEHABVQIconSet@@ABVQString@@H@Z 00436994     qt-mt323:qt-mt323.dll
 0004:00003998       __imp_?removeItem@QListView@@UAEXPAVQListViewItem@@@Z 00436998     qt-mt323:qt-mt323.dll
 0004:0000399c       __imp_?takeItem@QListView@@UAEXPAVQListViewItem@@@Z 0043699c     qt-mt323:qt-mt323.dll
 0004:000039a0       __imp_?insertItem@QListView@@UAEXPAVQListViewItem@@@Z 004369a0     qt-mt323:qt-mt323.dll
 0004:000039a4       __imp_?setTreeStepSize@QListView@@UAEXH@Z 004369a4     qt-mt323:qt-mt323.dll
 0004:000039a8       __imp_?viewportResizeEvent@QListView@@MAEXPAVQResizeEvent@@@Z 004369a8     qt-mt323:qt-mt323.dll
 0004:000039ac       __imp_?viewportPaintEvent@QScrollView@@MAEXPAVQPaintEvent@@@Z 004369ac     qt-mt323:qt-mt323.dll
 0004:000039b0       __imp_?contentsContextMenuEvent@QListView@@MAEXPAVQContextMenuEvent@@@Z 004369b0     qt-mt323:qt-mt323.dll
 0004:000039b4       __imp_?contentsDropEvent@QListView@@MAEXPAVQDropEvent@@@Z 004369b4     qt-mt323:qt-mt323.dll
 0004:000039b8       __imp_?contentsDragLeaveEvent@QListView@@MAEXPAVQDragLeaveEvent@@@Z 004369b8     qt-mt323:qt-mt323.dll
 0004:000039bc       __imp_?contentsDragMoveEvent@QListView@@MAEXPAVQDragMoveEvent@@@Z 004369bc     qt-mt323:qt-mt323.dll
 0004:000039c0       __imp_?contentsDragEnterEvent@QListView@@MAEXPAVQDragEnterEvent@@@Z 004369c0     qt-mt323:qt-mt323.dll
 0004:000039c4       __imp_?contentsMouseMoveEvent@QListView@@MAEXPAVQMouseEvent@@@Z 004369c4     qt-mt323:qt-mt323.dll
 0004:000039c8       __imp_?contentsMouseDoubleClickEvent@QListView@@MAEXPAVQMouseEvent@@@Z 004369c8     qt-mt323:qt-mt323.dll
 0004:000039cc       __imp_?contentsMouseReleaseEvent@QListView@@MAEXPAVQMouseEvent@@@Z 004369cc     qt-mt323:qt-mt323.dll
 0004:000039d0       __imp_?contentsMousePressEvent@QListView@@MAEXPAVQMouseEvent@@@Z 004369d0     qt-mt323:qt-mt323.dll
 0004:000039d4       __imp_?drawContentsOffset@QListView@@MAEXPAVQPainter@@HHHHHH@Z 004369d4     qt-mt323:qt-mt323.dll
 0004:000039d8       __imp_?setContentsPos@QListView@@UAEXHH@Z 004369d8     qt-mt323:qt-mt323.dll
 0004:000039dc       __imp_?windowActivationChange@QListView@@MAEX_N@Z 004369dc     qt-mt323:qt-mt323.dll
 0004:000039e0       __imp_?styleChange@QListView@@MAEXAAVQStyle@@@Z 004369e0     qt-mt323:qt-mt323.dll
 0004:000039e4       __imp_?showEvent@QListView@@MAEXPAVQShowEvent@@@Z 004369e4     qt-mt323:qt-mt323.dll
 0004:000039e8       __imp_?resizeEvent@QListView@@MAEXPAVQResizeEvent@@@Z 004369e8     qt-mt323:qt-mt323.dll
 0004:000039ec       __imp_?focusOutEvent@QListView@@MAEXPAVQFocusEvent@@@Z 004369ec     qt-mt323:qt-mt323.dll
 0004:000039f0       __imp_?focusInEvent@QListView@@MAEXPAVQFocusEvent@@@Z 004369f0     qt-mt323:qt-mt323.dll
 0004:000039f4       __imp_?keyPressEvent@QListView@@MAEXPAVQKeyEvent@@@Z 004369f4     qt-mt323:qt-mt323.dll
 0004:000039f8       __imp_?mouseMoveEvent@QScrollView@@MAEXPAVQMouseEvent@@@Z 004369f8     qt-mt323:qt-mt323.dll
 0004:000039fc       __imp_?mouseDoubleClickEvent@QScrollView@@MAEXPAVQMouseEvent@@@Z 004369fc     qt-mt323:qt-mt323.dll
 0004:00003a00       __imp_?mouseReleaseEvent@QScrollView@@MAEXPAVQMouseEvent@@@Z 00436a00     qt-mt323:qt-mt323.dll
 0004:00003a04       __imp_?mousePressEvent@QScrollView@@MAEXPAVQMouseEvent@@@Z 00436a04     qt-mt323:qt-mt323.dll
 0004:00003a08       __imp_?minimumSizeHint@QListView@@UBE?AVQSize@@XZ 00436a08     qt-mt323:qt-mt323.dll
 0004:00003a0c       __imp_?sizeHint@QListView@@UBE?AVQSize@@XZ 00436a0c     qt-mt323:qt-mt323.dll
 0004:00003a10       __imp_?show@QListView@@UAEXXZ 00436a10     qt-mt323:qt-mt323.dll
 0004:00003a14       __imp_?setFont@QListView@@UAEXABVQFont@@@Z 00436a14     qt-mt323:qt-mt323.dll
 0004:00003a18       __imp_?setPalette@QListView@@UAEXABVQPalette@@@Z 00436a18     qt-mt323:qt-mt323.dll
 0004:00003a1c       __imp_?eventFilter@QListView@@UAE_NPAVQObject@@PAVQEvent@@@Z 00436a1c     qt-mt323:qt-mt323.dll
 0004:00003a20       __imp_?qt_property@QListView@@UAE_NHHPAVQVariant@@@Z 00436a20     qt-mt323:qt-mt323.dll
 0004:00003a24       __imp_?qt_emit@QListView@@UAE_NHPAUQUObject@@@Z 00436a24     qt-mt323:qt-mt323.dll
 0004:00003a28       __imp_?qt_invoke@QListView@@UAE_NHPAUQUObject@@@Z 00436a28     qt-mt323:qt-mt323.dll
 0004:00003a2c       __imp_?qt_cast@QListView@@UAEPAXPBD@Z 00436a2c     qt-mt323:qt-mt323.dll
 0004:00003a30       __imp_?className@QListView@@UBEPBDXZ 00436a30     qt-mt323:qt-mt323.dll
 0004:00003a34       __imp_?metaObject@QListView@@UBEPAVQMetaObject@@XZ 00436a34     qt-mt323:qt-mt323.dll
 0004:00003a38       __imp_?outOfRange@QDateEdit@@MBE_NHHH@Z 00436a38     qt-mt323:qt-mt323.dll
 0004:00003a3c       __imp_?fix@QDateEdit@@MAEXXZ 00436a3c     qt-mt323:qt-mt323.dll
 0004:00003a40       __imp_?setDay@QDateEdit@@MAEXH@Z 00436a40     qt-mt323:qt-mt323.dll
 0004:00003a44       __imp_?setMonth@QDateEdit@@MAEXH@Z 00436a44     qt-mt323:qt-mt323.dll
 0004:00003a48       __imp_?setYear@QDateEdit@@MAEXH@Z 00436a48     qt-mt323:qt-mt323.dll
 0004:00003a4c       __imp_?setSeparator@QDateEdit@@UAEXABVQString@@@Z 00436a4c     qt-mt323:qt-mt323.dll
 0004:00003a50       __imp_?setRange@QDateEdit@@UAEXABVQDate@@0@Z 00436a50     qt-mt323:qt-mt323.dll
 0004:00003a54       __imp_?setMaxValue@QDateEdit@@UAEXABVQDate@@@Z 00436a54     qt-mt323:qt-mt323.dll
 0004:00003a58       __imp_?setMinValue@QDateEdit@@UAEXABVQDate@@@Z 00436a58     qt-mt323:qt-mt323.dll
 0004:00003a5c       __imp_?setAutoAdvance@QDateEdit@@UAEX_N@Z 00436a5c     qt-mt323:qt-mt323.dll
 0004:00003a60       __imp_?setOrder@QDateEdit@@UAEXW4Order@1@@Z 00436a60     qt-mt323:qt-mt323.dll
 0004:00003a64       __imp_?setDate@QDateEdit@@UAEXABVQDate@@@Z 00436a64     qt-mt323:qt-mt323.dll
 0004:00003a68       __imp_?stepDown@QDateEdit@@MAEXXZ 00436a68     qt-mt323:qt-mt323.dll
 0004:00003a6c       __imp_?stepUp@QDateEdit@@MAEXXZ 00436a6c     qt-mt323:qt-mt323.dll
 0004:00003a70       __imp_?removeLastNumber@QDateEdit@@MAEXH@Z 00436a70     qt-mt323:qt-mt323.dll
 0004:00003a74       __imp_?addNumber@QDateEdit@@MAEXHH@Z 00436a74     qt-mt323:qt-mt323.dll
 0004:00003a78       __imp_?sectionFormattedText@QDateEdit@@MAE?AVQString@@H@Z 00436a78     qt-mt323:qt-mt323.dll
 0004:00003a7c       __imp_?setFocusSection@QDateEdit@@MAE_NH@Z 00436a7c     qt-mt323:qt-mt323.dll
 0004:00003a80       __imp_?resizeEvent@QDateEdit@@MAEXPAVQResizeEvent@@@Z 00436a80     qt-mt323:qt-mt323.dll
 0004:00003a84       __imp_?minimumSizeHint@QDateEdit@@UBE?AVQSize@@XZ 00436a84     qt-mt323:qt-mt323.dll
 0004:00003a88       __imp_?sizeHint@QDateEdit@@UBE?AVQSize@@XZ 00436a88     qt-mt323:qt-mt323.dll
 0004:00003a8c       __imp_?timerEvent@QDateEdit@@MAEXPAVQTimerEvent@@@Z 00436a8c     qt-mt323:qt-mt323.dll
 0004:00003a90       __imp_?event@QDateEdit@@MAE_NPAVQEvent@@@Z 00436a90     qt-mt323:qt-mt323.dll
 0004:00003a94       __imp_?qt_property@QDateEdit@@UAE_NHHPAVQVariant@@@Z 00436a94     qt-mt323:qt-mt323.dll
 0004:00003a98       __imp_?qt_emit@QDateEdit@@UAE_NHPAUQUObject@@@Z 00436a98     qt-mt323:qt-mt323.dll
 0004:00003a9c       __imp_?qt_invoke@QDateEdit@@UAE_NHPAUQUObject@@@Z 00436a9c     qt-mt323:qt-mt323.dll
 0004:00003aa0       __imp_?qt_cast@QDateEdit@@UAEPAXPBD@Z 00436aa0     qt-mt323:qt-mt323.dll
 0004:00003aa4       __imp_?className@QDateEdit@@UBEPBDXZ 00436aa4     qt-mt323:qt-mt323.dll
 0004:00003aa8       __imp_?metaObject@QDateEdit@@UBEPAVQMetaObject@@XZ 00436aa8     qt-mt323:qt-mt323.dll
 0004:00003aac       __imp_?setOn@QToolButton@@UAEX_N@Z 00436aac     qt-mt323:qt-mt323.dll
 0004:00003ab0       __imp_?setToggleButton@QToolButton@@UAEX_N@Z 00436ab0     qt-mt323:qt-mt323.dll
 0004:00003ab4       __imp_?setTextLabel@QToolButton@@UAEXABVQString@@_N@Z 00436ab4     qt-mt323:qt-mt323.dll
 0004:00003ab8       __imp_?setUsesTextLabel@QToolButton@@UAEX_N@Z 00436ab8     qt-mt323:qt-mt323.dll
 0004:00003abc       __imp_?setUsesBigPixmap@QToolButton@@UAEX_N@Z 00436abc     qt-mt323:qt-mt323.dll
 0004:00003ac0       __imp_?setIconSet@QToolButton@@UAEXABVQIconSet@@@Z 00436ac0     qt-mt323:qt-mt323.dll
 0004:00003ac4       __imp_?setGroup@QButton@@EAEXPAVQButtonGroup@@@Z 00436ac4     qt-mt323:qt-mt323.dll
 0004:00003ac8       __imp_?drawButtonLabel@QToolButton@@MAEXPAVQPainter@@@Z 00436ac8     qt-mt323:qt-mt323.dll
 0004:00003acc       __imp_?drawButton@QToolButton@@MAEXPAVQPainter@@@Z 00436acc     qt-mt323:qt-mt323.dll
 0004:00003ad0       __imp_?hitButton@QButton@@MBE_NABVQPoint@@@Z 00436ad0     qt-mt323:qt-mt323.dll
 0004:00003ad4       __imp_?setState@QButton@@MAEXW4ToggleState@1@@Z 00436ad4     qt-mt323:qt-mt323.dll
 0004:00003ad8       __imp_?setToggleType@QButton@@MAEXW4ToggleType@1@@Z 00436ad8     qt-mt323:qt-mt323.dll
 0004:00003adc       __imp_?setAutoRepeat@QButton@@UAEX_N@Z 00436adc     qt-mt323:qt-mt323.dll
 0004:00003ae0       __imp_?setDown@QButton@@UAEX_N@Z 00436ae0     qt-mt323:qt-mt323.dll
 0004:00003ae4       __imp_?setAccel@QButton@@UAEXABVQKeySequence@@@Z 00436ae4     qt-mt323:qt-mt323.dll
 0004:00003ae8       __imp_?setPixmap@QButton@@UAEXABVQPixmap@@@Z 00436ae8     qt-mt323:qt-mt323.dll
 0004:00003aec       __imp_?setText@QToolButton@@UAEXABVQString@@@Z 00436aec     qt-mt323:qt-mt323.dll
 0004:00003af0       __imp_?paletteChange@QToolButton@@MAEXABVQPalette@@@Z 00436af0     qt-mt323:qt-mt323.dll
 0004:00003af4       __imp_?enabledChange@QButton@@MAEX_N@Z 00436af4     qt-mt323:qt-mt323.dll
 0004:00003af8       __imp_?moveEvent@QToolButton@@MAEXPAVQMoveEvent@@@Z 00436af8     qt-mt323:qt-mt323.dll
 0004:00003afc       __imp_?paintEvent@QButton@@MAEXPAVQPaintEvent@@@Z 00436afc     qt-mt323:qt-mt323.dll
 0004:00003b00       __imp_?leaveEvent@QToolButton@@MAEXPAVQEvent@@@Z 00436b00     qt-mt323:qt-mt323.dll
 0004:00003b04       __imp_?enterEvent@QToolButton@@MAEXPAVQEvent@@@Z 00436b04     qt-mt323:qt-mt323.dll
 0004:00003b08       __imp_?focusOutEvent@QButton@@MAEXPAVQFocusEvent@@@Z 00436b08     qt-mt323:qt-mt323.dll
 0004:00003b0c       __imp_?focusInEvent@QButton@@MAEXPAVQFocusEvent@@@Z 00436b0c     qt-mt323:qt-mt323.dll
 0004:00003b10       __imp_?keyReleaseEvent@QButton@@MAEXPAVQKeyEvent@@@Z 00436b10     qt-mt323:qt-mt323.dll
 0004:00003b14       __imp_?keyPressEvent@QButton@@MAEXPAVQKeyEvent@@@Z 00436b14     qt-mt323:qt-mt323.dll
 0004:00003b18       __imp_?mouseMoveEvent@QButton@@MAEXPAVQMouseEvent@@@Z 00436b18     qt-mt323:qt-mt323.dll
 0004:00003b1c       __imp_?mouseReleaseEvent@QButton@@MAEXPAVQMouseEvent@@@Z 00436b1c     qt-mt323:qt-mt323.dll
 0004:00003b20       __imp_?mousePressEvent@QToolButton@@MAEXPAVQMouseEvent@@@Z 00436b20     qt-mt323:qt-mt323.dll
 0004:00003b24       __imp_?minimumSizeHint@QToolButton@@UBE?AVQSize@@XZ 00436b24     qt-mt323:qt-mt323.dll
 0004:00003b28       __imp_?sizeHint@QToolButton@@UBE?AVQSize@@XZ 00436b28     qt-mt323:qt-mt323.dll
 0004:00003b2c       __imp_?eventFilter@QToolButton@@MAE_NPAVQObject@@PAVQEvent@@@Z 00436b2c     qt-mt323:qt-mt323.dll
 0004:00003b30       __imp_?qt_property@QToolButton@@UAE_NHHPAVQVariant@@@Z 00436b30     qt-mt323:qt-mt323.dll
 0004:00003b34       __imp_?qt_emit@QToolButton@@UAE_NHPAUQUObject@@@Z 00436b34     qt-mt323:qt-mt323.dll
 0004:00003b38       __imp_?qt_invoke@QToolButton@@UAE_NHPAUQUObject@@@Z 00436b38     qt-mt323:qt-mt323.dll
 0004:00003b3c       __imp_?qt_cast@QToolButton@@UAEPAXPBD@Z 00436b3c     qt-mt323:qt-mt323.dll
 0004:00003b40       __imp_?className@QToolButton@@UBEPBDXZ 00436b40     qt-mt323:qt-mt323.dll
 0004:00003b44       __imp_?metaObject@QToolButton@@UBEPAVQMetaObject@@XZ 00436b44     qt-mt323:qt-mt323.dll
 0004:00003b48       __imp_?createPopupMenu@QLineEdit@@MAEPAVQPopupMenu@@XZ 00436b48     qt-mt323:qt-mt323.dll
 0004:00003b4c       __imp_?setDragEnabled@QLineEdit@@UAEX_N@Z 00436b4c     qt-mt323:qt-mt323.dll
 0004:00003b50       __imp_?paste@QLineEdit@@UAEXXZ 00436b50     qt-mt323:qt-mt323.dll
 0004:00003b54       __imp_?copy@QLineEdit@@UBEXXZ 00436b54     qt-mt323:qt-mt323.dll
 0004:00003b58       __imp_?cut@QLineEdit@@UAEXXZ 00436b58     qt-mt323:qt-mt323.dll
 0004:00003b5c       __imp_?setAlignment@QLineEdit@@UAEXH@Z 00436b5c     qt-mt323:qt-mt323.dll
 0004:00003b60       __imp_?setCursorPosition@QLineEdit@@UAEXH@Z 00436b60     qt-mt323:qt-mt323.dll
 0004:00003b64       __imp_?setSelection@QLineEdit@@UAEXHH@Z 00436b64     qt-mt323:qt-mt323.dll
 0004:00003b68       __imp_?setValidator@QLineEdit@@UAEXPBVQValidator@@@Z 00436b68     qt-mt323:qt-mt323.dll
 0004:00003b6c       __imp_?setReadOnly@QLineEdit@@UAEX_N@Z 00436b6c     qt-mt323:qt-mt323.dll
 0004:00003b70       __imp_?setEchoMode@QLineEdit@@UAEXW4EchoMode@1@@Z 00436b70     qt-mt323:qt-mt323.dll
 0004:00003b74       __imp_?setFrame@QLineEdit@@UAEX_N@Z 00436b74     qt-mt323:qt-mt323.dll
 0004:00003b78       __imp_?setMaxLength@QLineEdit@@UAEXH@Z 00436b78     qt-mt323:qt-mt323.dll
 0004:00003b7c       __imp_?redo@QLineEdit@@UAEXXZ 00436b7c     qt-mt323:qt-mt323.dll
 0004:00003b80       __imp_?undo@QLineEdit@@UAEXXZ 00436b80     qt-mt323:qt-mt323.dll
 0004:00003b84       __imp_?clear@QLineEdit@@UAEXXZ 00436b84     qt-mt323:qt-mt323.dll
 0004:00003b88       __imp_?insert@QLineEdit@@UAEXABVQString@@@Z 00436b88     qt-mt323:qt-mt323.dll
 0004:00003b8c       __imp_?clearValidator@QLineEdit@@UAEXXZ 00436b8c     qt-mt323:qt-mt323.dll
 0004:00003b90       __imp_?deselect@QLineEdit@@UAEXXZ 00436b90     qt-mt323:qt-mt323.dll
 0004:00003b94       __imp_?selectAll@QLineEdit@@UAEXXZ 00436b94     qt-mt323:qt-mt323.dll
 0004:00003b98       __imp_?setText@QLineEdit@@UAEXABVQString@@@Z 00436b98     qt-mt323:qt-mt323.dll
 0004:00003b9c       __imp_?drawContents@QLineEdit@@MAEXPAVQPainter@@@Z 00436b9c     qt-mt323:qt-mt323.dll
 0004:00003ba0       __imp_?windowActivationChange@QLineEdit@@MAEX_N@Z 00436ba0     qt-mt323:qt-mt323.dll
 0004:00003ba4       __imp_?dropEvent@QLineEdit@@MAEXPAVQDropEvent@@@Z 00436ba4     qt-mt323:qt-mt323.dll
 0004:00003ba8       __imp_?dragLeaveEvent@QLineEdit@@MAEXPAVQDragLeaveEvent@@@Z 00436ba8     qt-mt323:qt-mt323.dll
 0004:00003bac       __imp_?dragMoveEvent@QLineEdit@@MAEXPAVQDragMoveEvent@@@Z 00436bac     qt-mt323:qt-mt323.dll
 0004:00003bb0       __imp_?dragEnterEvent@QLineEdit@@MAEXPAVQDragEnterEvent@@@Z 00436bb0     qt-mt323:qt-mt323.dll
 0004:00003bb4       __imp_?imEndEvent@QLineEdit@@MAEXPAVQIMEvent@@@Z 00436bb4     qt-mt323:qt-mt323.dll
 0004:00003bb8       __imp_?imComposeEvent@QLineEdit@@MAEXPAVQIMEvent@@@Z 00436bb8     qt-mt323:qt-mt323.dll
 0004:00003bbc       __imp_?imStartEvent@QLineEdit@@MAEXPAVQIMEvent@@@Z 00436bbc     qt-mt323:qt-mt323.dll
 0004:00003bc0       __imp_?contextMenuEvent@QLineEdit@@MAEXPAVQContextMenuEvent@@@Z 00436bc0     qt-mt323:qt-mt323.dll
 0004:00003bc4       __imp_?resizeEvent@QLineEdit@@MAEXPAVQResizeEvent@@@Z 00436bc4     qt-mt323:qt-mt323.dll
 0004:00003bc8       __imp_?focusOutEvent@QLineEdit@@MAEXPAVQFocusEvent@@@Z 00436bc8     qt-mt323:qt-mt323.dll
 0004:00003bcc       __imp_?focusInEvent@QLineEdit@@MAEXPAVQFocusEvent@@@Z 00436bcc     qt-mt323:qt-mt323.dll
 0004:00003bd0       __imp_?keyPressEvent@QLineEdit@@MAEXPAVQKeyEvent@@@Z 00436bd0     qt-mt323:qt-mt323.dll
 0004:00003bd4       __imp_?mouseMoveEvent@QLineEdit@@MAEXPAVQMouseEvent@@@Z 00436bd4     qt-mt323:qt-mt323.dll
 0004:00003bd8       __imp_?mouseDoubleClickEvent@QLineEdit@@MAEXPAVQMouseEvent@@@Z 00436bd8     qt-mt323:qt-mt323.dll
 0004:00003bdc       __imp_?mouseReleaseEvent@QLineEdit@@MAEXPAVQMouseEvent@@@Z 00436bdc     qt-mt323:qt-mt323.dll
 0004:00003be0       __imp_?mousePressEvent@QLineEdit@@MAEXPAVQMouseEvent@@@Z 00436be0     qt-mt323:qt-mt323.dll
 0004:00003be4       __imp_?minimumSizeHint@QLineEdit@@UBE?AVQSize@@XZ 00436be4     qt-mt323:qt-mt323.dll
 0004:00003be8       __imp_?sizeHint@QLineEdit@@UBE?AVQSize@@XZ 00436be8     qt-mt323:qt-mt323.dll
 0004:00003bec       __imp_?setFont@QLineEdit@@UAEXABVQFont@@@Z 00436bec     qt-mt323:qt-mt323.dll
 0004:00003bf0       __imp_?setPalette@QLineEdit@@UAEXABVQPalette@@@Z 00436bf0     qt-mt323:qt-mt323.dll
 0004:00003bf4       __imp_?event@QLineEdit@@MAE_NPAVQEvent@@@Z 00436bf4     qt-mt323:qt-mt323.dll
 0004:00003bf8       __imp_?qt_property@QLineEdit@@UAE_NHHPAVQVariant@@@Z 00436bf8     qt-mt323:qt-mt323.dll
 0004:00003bfc       __imp_?qt_emit@QLineEdit@@UAE_NHPAUQUObject@@@Z 00436bfc     qt-mt323:qt-mt323.dll
 0004:00003c00       __imp_?qt_invoke@QLineEdit@@UAE_NHPAUQUObject@@@Z 00436c00     qt-mt323:qt-mt323.dll
 0004:00003c04       __imp_?qt_cast@QLineEdit@@UAEPAXPBD@Z 00436c04     qt-mt323:qt-mt323.dll
 0004:00003c08       __imp_?className@QLineEdit@@UBEPBDXZ 00436c08     qt-mt323:qt-mt323.dll
 0004:00003c0c       __imp_?metaObject@QLineEdit@@UBEPAVQMetaObject@@XZ 00436c0c     qt-mt323:qt-mt323.dll
 0004:00003c10       __imp_?setAlignment@QGroupBox@@UAEXH@Z 00436c10     qt-mt323:qt-mt323.dll
 0004:00003c14       __imp_?setTitle@QGroupBox@@UAEXABVQString@@@Z 00436c14     qt-mt323:qt-mt323.dll
 0004:00003c18       __imp_?setColumnLayout@QGroupBox@@UAEXHW4Orientation@Qt@@@Z 00436c18     qt-mt323:qt-mt323.dll
 0004:00003c1c       __imp_?fontChange@QGroupBox@@MAEXABVQFont@@@Z 00436c1c     qt-mt323:qt-mt323.dll
 0004:00003c20       __imp_?resizeEvent@QGroupBox@@MAEXPAVQResizeEvent@@@Z 00436c20     qt-mt323:qt-mt323.dll
 0004:00003c24       __imp_?paintEvent@QGroupBox@@MAEXPAVQPaintEvent@@@Z 00436c24     qt-mt323:qt-mt323.dll
 0004:00003c28       __imp_?focusInEvent@QGroupBox@@MAEXPAVQFocusEvent@@@Z 00436c28     qt-mt323:qt-mt323.dll
 0004:00003c2c       __imp_?sizeHint@QGroupBox@@UBE?AVQSize@@XZ 00436c2c     qt-mt323:qt-mt323.dll
 0004:00003c30       __imp_?setEnabled@QGroupBox@@UAEX_N@Z 00436c30     qt-mt323:qt-mt323.dll
 0004:00003c34       __imp_?childEvent@QGroupBox@@MAEXPAVQChildEvent@@@Z 00436c34     qt-mt323:qt-mt323.dll
 0004:00003c38       __imp_?event@QGroupBox@@MAE_NPAVQEvent@@@Z 00436c38     qt-mt323:qt-mt323.dll
 0004:00003c3c       __imp_?qt_property@QGroupBox@@UAE_NHHPAVQVariant@@@Z 00436c3c     qt-mt323:qt-mt323.dll
 0004:00003c40       __imp_?qt_emit@QGroupBox@@UAE_NHPAUQUObject@@@Z 00436c40     qt-mt323:qt-mt323.dll
 0004:00003c44       __imp_?qt_invoke@QGroupBox@@UAE_NHPAUQUObject@@@Z 00436c44     qt-mt323:qt-mt323.dll
 0004:00003c48       __imp_?qt_cast@QGroupBox@@UAEPAXPBD@Z 00436c48     qt-mt323:qt-mt323.dll
 0004:00003c4c       __imp_?className@QGroupBox@@UBEPBDXZ 00436c4c     qt-mt323:qt-mt323.dll
 0004:00003c50       __imp_?metaObject@QGroupBox@@UBEPAVQMetaObject@@XZ 00436c50     qt-mt323:qt-mt323.dll
 0004:00003c54       __imp_?stepChange@QRangeControl@@MAEXXZ 00436c54     qt-mt323:qt-mt323.dll
 0004:00003c58       __imp_?rangeChange@QSpinBox@@MAEXXZ 00436c58     qt-mt323:qt-mt323.dll
 0004:00003c5c       __imp_?valueChange@QSpinBox@@MAEXXZ 00436c5c     qt-mt323:qt-mt323.dll
 0004:00003c60       __imp_?interpretText@QSpinBox@@MAEXXZ 00436c60     qt-mt323:qt-mt323.dll
 0004:00003c64       __imp_?updateDisplay@QSpinBox@@MAEXXZ 00436c64     qt-mt323:qt-mt323.dll
 0004:00003c68       __imp_?mapTextToValue@QSpinBox@@MAEHPA_N@Z 00436c68     qt-mt323:qt-mt323.dll
 0004:00003c6c       __imp_?mapValueToText@QSpinBox@@MAE?AVQString@@H@Z 00436c6c     qt-mt323:qt-mt323.dll
 0004:00003c70       __imp_?selectAll@QSpinBox@@UAEXXZ 00436c70     qt-mt323:qt-mt323.dll
 0004:00003c74       __imp_?stepDown@QSpinBox@@UAEXXZ 00436c74     qt-mt323:qt-mt323.dll
 0004:00003c78       __imp_?stepUp@QSpinBox@@UAEXXZ 00436c78     qt-mt323:qt-mt323.dll
 0004:00003c7c       __imp_?setSuffix@QSpinBox@@UAEXABVQString@@@Z 00436c7c     qt-mt323:qt-mt323.dll
 0004:00003c80       __imp_?setPrefix@QSpinBox@@UAEXABVQString@@@Z 00436c80     qt-mt323:qt-mt323.dll
 0004:00003c84       __imp_?setValue@QSpinBox@@UAEXH@Z 00436c84     qt-mt323:qt-mt323.dll
 0004:00003c88       __imp_?setValidator@QSpinBox@@UAEXPBVQValidator@@@Z 00436c88     qt-mt323:qt-mt323.dll
 0004:00003c8c       __imp_?setButtonSymbols@QSpinBox@@UAEXW4ButtonSymbols@1@@Z 00436c8c     qt-mt323:qt-mt323.dll
 0004:00003c90       __imp_?setWrapping@QSpinBox@@UAEX_N@Z 00436c90     qt-mt323:qt-mt323.dll
 0004:00003c94       __imp_?setSpecialValueText@QSpinBox@@UAEXABVQString@@@Z 00436c94     qt-mt323:qt-mt323.dll
 0004:00003c98       __imp_?cleanText@QSpinBox@@UBE?AVQString@@XZ 00436c98     qt-mt323:qt-mt323.dll
 0004:00003c9c       __imp_?suffix@QSpinBox@@UBE?AVQString@@XZ 00436c9c     qt-mt323:qt-mt323.dll
 0004:00003ca0       __imp_?prefix@QSpinBox@@UBE?AVQString@@XZ 00436ca0     qt-mt323:qt-mt323.dll
 0004:00003ca4       __imp_?styleChange@QSpinBox@@MAEXAAVQStyle@@@Z 00436ca4     qt-mt323:qt-mt323.dll
 0004:00003ca8       __imp_?resizeEvent@QSpinBox@@MAEXPAVQResizeEvent@@@Z 00436ca8     qt-mt323:qt-mt323.dll
 0004:00003cac       __imp_?leaveEvent@QSpinBox@@MAEXPAVQEvent@@@Z 00436cac     qt-mt323:qt-mt323.dll
 0004:00003cb0       __imp_?wheelEvent@QSpinBox@@MAEXPAVQWheelEvent@@@Z 00436cb0     qt-mt323:qt-mt323.dll
 0004:00003cb4       __imp_?minimumSizeHint@QSpinBox@@UBE?AVQSize@@XZ 00436cb4     qt-mt323:qt-mt323.dll
 0004:00003cb8       __imp_?sizeHint@QSpinBox@@UBE?AVQSize@@XZ 00436cb8     qt-mt323:qt-mt323.dll
 0004:00003cbc       __imp_?setEnabled@QSpinBox@@UAEX_N@Z 00436cbc     qt-mt323:qt-mt323.dll
 0004:00003cc0       __imp_?eventFilter@QSpinBox@@MAE_NPAVQObject@@PAVQEvent@@@Z 00436cc0     qt-mt323:qt-mt323.dll
 0004:00003cc4       __imp_?qt_property@QSpinBox@@UAE_NHHPAVQVariant@@@Z 00436cc4     qt-mt323:qt-mt323.dll
 0004:00003cc8       __imp_?qt_emit@QSpinBox@@UAE_NHPAUQUObject@@@Z 00436cc8     qt-mt323:qt-mt323.dll
 0004:00003ccc       __imp_?qt_invoke@QSpinBox@@UAE_NHPAUQUObject@@@Z 00436ccc     qt-mt323:qt-mt323.dll
 0004:00003cd0       __imp_?qt_cast@QSpinBox@@UAEPAXPBD@Z 00436cd0     qt-mt323:qt-mt323.dll
 0004:00003cd4       __imp_?className@QSpinBox@@UBEPBDXZ 00436cd4     qt-mt323:qt-mt323.dll
 0004:00003cd8       __imp_?metaObject@QSpinBox@@UBEPAVQMetaObject@@XZ 00436cd8     qt-mt323:qt-mt323.dll
 0004:00003cdc       __imp_?setSecond@QTimeEdit@@MAEXH@Z 00436cdc     qt-mt323:qt-mt323.dll
 0004:00003ce0       __imp_?setMinute@QTimeEdit@@MAEXH@Z 00436ce0     qt-mt323:qt-mt323.dll
 0004:00003ce4       __imp_?setHour@QTimeEdit@@MAEXH@Z 00436ce4     qt-mt323:qt-mt323.dll
 0004:00003ce8       __imp_?outOfRange@QTimeEdit@@MBE_NHHH@Z 00436ce8     qt-mt323:qt-mt323.dll
 0004:00003cec       __imp_?setSeparator@QTimeEdit@@UAEXABVQString@@@Z 00436cec     qt-mt323:qt-mt323.dll
 0004:00003cf0       __imp_?setRange@QTimeEdit@@UAEXABVQTime@@0@Z 00436cf0     qt-mt323:qt-mt323.dll
 0004:00003cf4       __imp_?setMaxValue@QTimeEdit@@UAEXABVQTime@@@Z 00436cf4     qt-mt323:qt-mt323.dll
 0004:00003cf8       __imp_?setMinValue@QTimeEdit@@UAEXABVQTime@@@Z 00436cf8     qt-mt323:qt-mt323.dll
 0004:00003cfc       __imp_?setAutoAdvance@QTimeEdit@@UAEX_N@Z 00436cfc     qt-mt323:qt-mt323.dll
 0004:00003d00       __imp_?setTime@QTimeEdit@@UAEXABVQTime@@@Z 00436d00     qt-mt323:qt-mt323.dll
 0004:00003d04       __imp_?stepDown@QTimeEdit@@MAEXXZ 00436d04     qt-mt323:qt-mt323.dll
 0004:00003d08       __imp_?stepUp@QTimeEdit@@MAEXXZ 00436d08     qt-mt323:qt-mt323.dll
 0004:00003d0c       __imp_?removeLastNumber@QTimeEdit@@MAEXH@Z 00436d0c     qt-mt323:qt-mt323.dll
 0004:00003d10       __imp_?addNumber@QTimeEdit@@MAEXHH@Z 00436d10     qt-mt323:qt-mt323.dll
 0004:00003d14       __imp_?sectionFormattedText@QTimeEdit@@MAE?AVQString@@H@Z 00436d14     qt-mt323:qt-mt323.dll
 0004:00003d18       __imp_?setFocusSection@QTimeEdit@@MAE_NH@Z 00436d18     qt-mt323:qt-mt323.dll
 0004:00003d1c       __imp_?resizeEvent@QTimeEdit@@MAEXPAVQResizeEvent@@@Z 00436d1c     qt-mt323:qt-mt323.dll
 0004:00003d20       __imp_?minimumSizeHint@QTimeEdit@@UBE?AVQSize@@XZ 00436d20     qt-mt323:qt-mt323.dll
 0004:00003d24       __imp_?sizeHint@QTimeEdit@@UBE?AVQSize@@XZ 00436d24     qt-mt323:qt-mt323.dll
 0004:00003d28       __imp_?timerEvent@QTimeEdit@@MAEXPAVQTimerEvent@@@Z 00436d28     qt-mt323:qt-mt323.dll
 0004:00003d2c       __imp_?event@QTimeEdit@@MAE_NPAVQEvent@@@Z 00436d2c     qt-mt323:qt-mt323.dll
 0004:00003d30       __imp_?qt_property@QTimeEdit@@UAE_NHHPAVQVariant@@@Z 00436d30     qt-mt323:qt-mt323.dll
 0004:00003d34       __imp_?qt_emit@QTimeEdit@@UAE_NHPAUQUObject@@@Z 00436d34     qt-mt323:qt-mt323.dll
 0004:00003d38       __imp_?qt_invoke@QTimeEdit@@UAE_NHPAUQUObject@@@Z 00436d38     qt-mt323:qt-mt323.dll
 0004:00003d3c       __imp_?qt_cast@QTimeEdit@@UAEPAXPBD@Z 00436d3c     qt-mt323:qt-mt323.dll
 0004:00003d40       __imp_?className@QTimeEdit@@UBEPBDXZ 00436d40     qt-mt323:qt-mt323.dll
 0004:00003d44       __imp_?metaObject@QTimeEdit@@UBEPAVQMetaObject@@XZ 00436d44     qt-mt323:qt-mt323.dll
 0004:00003d48       __imp_?queryUnknownInterface@QGPluginManager@@IBEKABVQString@@PAPAUQUnknownInterface@@@Z 00436d48     qt-mt323:qt-mt323.dll
 0004:00003d4c       __imp_??0QDataTable@@QAE@PAVQWidget@@PBD@Z 00436d4c     qt-mt323:qt-mt323.dll
 0004:00003d50       __imp_?statusBar@QMainWindow@@QBEPAVQStatusBar@@XZ 00436d50     qt-mt323:qt-mt323.dll
 0004:00003d54       __imp_??0QMainWindow@@QAE@PAVQWidget@@PBDI@Z 00436d54     qt-mt323:qt-mt323.dll
 0004:00003d58       __imp_??0QHBox@@QAE@PAVQWidget@@PBDI@Z 00436d58     qt-mt323:qt-mt323.dll
 0004:00003d5c       __imp_??0QVBox@@QAE@PAVQWidget@@PBDI@Z 00436d5c     qt-mt323:qt-mt323.dll
 0004:00003d60       __imp_??0QToolBox@@QAE@PAVQWidget@@PBDI@Z 00436d60     qt-mt323:qt-mt323.dll
 0004:00003d64       __imp_??0QWidgetStack@@QAE@PAVQWidget@@PBD@Z 00436d64     qt-mt323:qt-mt323.dll
 0004:00003d68       __imp_??0QScrollBar@@QAE@PAVQWidget@@PBD@Z 00436d68     qt-mt323:qt-mt323.dll
 0004:00003d6c       __imp_??0QDateTimeEdit@@QAE@PAVQWidget@@PBD@Z 00436d6c     qt-mt323:qt-mt323.dll
 0004:00003d70       __imp_??0QTimeEdit@@QAE@PAVQWidget@@PBD@Z 00436d70     qt-mt323:qt-mt323.dll
 0004:00003d74       __imp_??0QDateEdit@@QAE@PAVQWidget@@PBD@Z 00436d74     qt-mt323:qt-mt323.dll
 0004:00003d78       __imp_??0QTextEdit@@QAE@PAVQWidget@@PBD@Z 00436d78     qt-mt323:qt-mt323.dll
 0004:00003d7c       __imp_??0QSplitter@@QAE@PAVQWidget@@PBD@Z 00436d7c     qt-mt323:qt-mt323.dll
 0004:00003d80       __imp_??0QFrame@@QAE@PAVQWidget@@PBDI@Z 00436d80     qt-mt323:qt-mt323.dll
 0004:00003d84       __imp_??0QSlider@@QAE@PAVQWidget@@PBD@Z 00436d84     qt-mt323:qt-mt323.dll
 0004:00003d88       __imp_??0QDial@@QAE@PAVQWidget@@PBDI@Z 00436d88     qt-mt323:qt-mt323.dll
 0004:00003d8c       __imp_??0QTextBrowser@@QAE@PAVQWidget@@PBD@Z 00436d8c     qt-mt323:qt-mt323.dll
 0004:00003d90       __imp_??0QTextView@@QAE@PAVQWidget@@PBD@Z 00436d90     qt-mt323:qt-mt323.dll
 0004:00003d94       __imp_??0QProgressBar@@QAE@PAVQWidget@@PBDI@Z 00436d94     qt-mt323:qt-mt323.dll
 0004:00003d98       __imp_??0QLCDNumber@@QAE@PAVQWidget@@PBD@Z 00436d98     qt-mt323:qt-mt323.dll
 0004:00003d9c       __imp_??0QWizard@@QAE@PAVQWidget@@PBD_NI@Z 00436d9c     qt-mt323:qt-mt323.dll
 0004:00003da0       __imp_??0QComboBox@@QAE@_NPAVQWidget@@PBD@Z 00436da0     qt-mt323:qt-mt323.dll
 0004:00003da4       __imp_??0QTabWidget@@QAE@PAVQWidget@@PBDI@Z 00436da4     qt-mt323:qt-mt323.dll
 0004:00003da8       __imp_??0QMultiLineEdit@@QAE@PAVQWidget@@PBD@Z 00436da8     qt-mt323:qt-mt323.dll
 0004:00003dac       __imp_??0QSpinBox@@QAE@PAVQWidget@@PBD@Z 00436dac     qt-mt323:qt-mt323.dll
 0004:00003db0       __imp_??0QLineEdit@@QAE@PAVQWidget@@PBD@Z 00436db0     qt-mt323:qt-mt323.dll
 0004:00003db4       __imp_??0QListView@@QAE@PAVQWidget@@PBDI@Z 00436db4     qt-mt323:qt-mt323.dll
 0004:00003db8       __imp_??0QTable@@QAE@PAVQWidget@@PBD@Z 00436db8     qt-mt323:qt-mt323.dll
 0004:00003dbc       __imp_??0QIconView@@QAE@PAVQWidget@@PBDI@Z 00436dbc     qt-mt323:qt-mt323.dll
 0004:00003dc0       __imp_??0QButtonGroup@@QAE@PAVQWidget@@PBD@Z 00436dc0     qt-mt323:qt-mt323.dll
 0004:00003dc4       __imp_??0QGroupBox@@QAE@PAVQWidget@@PBD@Z 00436dc4     qt-mt323:qt-mt323.dll
 0004:00003dc8       __imp_??0QRadioButton@@QAE@PAVQWidget@@PBD@Z 00436dc8     qt-mt323:qt-mt323.dll
 0004:00003dcc       __imp_??0QCheckBox@@QAE@PAVQWidget@@PBD@Z 00436dcc     qt-mt323:qt-mt323.dll
 0004:00003dd0       __imp_??0QToolButton@@QAE@PAVQWidget@@PBD@Z 00436dd0     qt-mt323:qt-mt323.dll
 0004:00003dd4       __imp_??0QPushButton@@QAE@PAVQWidget@@PBD@Z 00436dd4     qt-mt323:qt-mt323.dll
 0004:00003dd8       __imp_??1QPushButton@@UAE@XZ 00436dd8     qt-mt323:qt-mt323.dll
 0004:00003ddc       __imp_??1QToolButton@@UAE@XZ 00436ddc     qt-mt323:qt-mt323.dll
 0004:00003de0       __imp_??1QButton@@UAE@XZ   00436de0     qt-mt323:qt-mt323.dll
 0004:00003de4       __imp_??1QGroupBox@@UAE@XZ 00436de4     qt-mt323:qt-mt323.dll
 0004:00003de8       __imp_??1QButtonGroup@@UAE@XZ 00436de8     qt-mt323:qt-mt323.dll
 0004:00003dec       __imp_??1QIconView@@UAE@XZ 00436dec     qt-mt323:qt-mt323.dll
 0004:00003df0       __imp_??1QTable@@UAE@XZ    00436df0     qt-mt323:qt-mt323.dll
 0004:00003df4       __imp_??1QListView@@UAE@XZ 00436df4     qt-mt323:qt-mt323.dll
 0004:00003df8       __imp_??1QLineEdit@@UAE@XZ 00436df8     qt-mt323:qt-mt323.dll
 0004:00003dfc       __imp_??1QSpinBox@@UAE@XZ  00436dfc     qt-mt323:qt-mt323.dll
 0004:00003e00       __imp_??1QMultiLineEdit@@UAE@XZ 00436e00     qt-mt323:qt-mt323.dll
 0004:00003e04       __imp_??1QTabWidget@@UAE@XZ 00436e04     qt-mt323:qt-mt323.dll
 0004:00003e08       __imp_??1QComboBox@@UAE@XZ 00436e08     qt-mt323:qt-mt323.dll
 0004:00003e0c       __imp_??1QWizard@@UAE@XZ   00436e0c     qt-mt323:qt-mt323.dll
 0004:00003e10       __imp_??1QLCDNumber@@UAE@XZ 00436e10     qt-mt323:qt-mt323.dll
 0004:00003e14       __imp_??1QTextView@@UAE@XZ 00436e14     qt-mt323:qt-mt323.dll
 0004:00003e18       __imp_??1QTextBrowser@@UAE@XZ 00436e18     qt-mt323:qt-mt323.dll
 0004:00003e1c       __imp_??1QDial@@UAE@XZ     00436e1c     qt-mt323:qt-mt323.dll
 0004:00003e20       __imp_??1QSlider@@UAE@XZ   00436e20     qt-mt323:qt-mt323.dll
 0004:00003e24       __imp_??1QSplitter@@UAE@XZ 00436e24     qt-mt323:qt-mt323.dll
 0004:00003e28       __imp_??1QTextEdit@@UAE@XZ 00436e28     qt-mt323:qt-mt323.dll
 0004:00003e2c       __imp_??1QDateEdit@@UAE@XZ 00436e2c     qt-mt323:qt-mt323.dll
 0004:00003e30       __imp_??1QTimeEdit@@UAE@XZ 00436e30     qt-mt323:qt-mt323.dll
 0004:00003e34       __imp_??1QDateTimeEdit@@UAE@XZ 00436e34     qt-mt323:qt-mt323.dll
 0004:00003e38       __imp_??1QScrollBar@@UAE@XZ 00436e38     qt-mt323:qt-mt323.dll
 0004:00003e3c       __imp_??1QToolBox@@UAE@XZ  00436e3c     qt-mt323:qt-mt323.dll
 0004:00003e40       __imp_??1QMainWindow@@UAE@XZ 00436e40     qt-mt323:qt-mt323.dll
 0004:00003e44       __imp_??1QDataTable@@UAE@XZ 00436e44     qt-mt323:qt-mt323.dll
 0004:00003e48       __imp_?handleError@QDataBrowser@@MAEXABVQSqlError@@@Z 00436e48     qt-mt323:qt-mt323.dll
 0004:00003e4c       __imp_?confirmCancel@QDataBrowser@@MAE?AW4Confirm@QSql@@W4Op@3@@Z 00436e4c     qt-mt323:qt-mt323.dll
 0004:00003e50       __imp_?confirmEdit@QDataBrowser@@MAE?AW4Confirm@QSql@@W4Op@3@@Z 00436e50     qt-mt323:qt-mt323.dll
 0004:00003e54       __imp_?currentEdited@QDataBrowser@@MAE_NXZ 00436e54     qt-mt323:qt-mt323.dll
 0004:00003e58       __imp_?deleteCurrent@QDataBrowser@@MAE_NXZ 00436e58     qt-mt323:qt-mt323.dll
 0004:00003e5c       __imp_?updateCurrent@QDataBrowser@@MAE_NXZ 00436e5c     qt-mt323:qt-mt323.dll
 0004:00003e60       __imp_?insertCurrent@QDataBrowser@@MAE_NXZ 00436e60     qt-mt323:qt-mt323.dll
 0004:00003e64       __imp_?clearValues@QDataBrowser@@UAEXXZ 00436e64     qt-mt323:qt-mt323.dll
 0004:00003e68       __imp_?writeFields@QDataBrowser@@UAEXXZ 00436e68     qt-mt323:qt-mt323.dll
 0004:00003e6c       __imp_?readFields@QDataBrowser@@UAEXXZ 00436e6c     qt-mt323:qt-mt323.dll
 0004:00003e70       __imp_?prev@QDataBrowser@@UAEXXZ 00436e70     qt-mt323:qt-mt323.dll
 0004:00003e74       __imp_?next@QDataBrowser@@UAEXXZ 00436e74     qt-mt323:qt-mt323.dll
 0004:00003e78       __imp_?last@QDataBrowser@@UAEXXZ 00436e78     qt-mt323:qt-mt323.dll
 0004:00003e7c       __imp_?first@QDataBrowser@@UAEXXZ 00436e7c     qt-mt323:qt-mt323.dll
 0004:00003e80       __imp_?del@QDataBrowser@@UAEXXZ 00436e80     qt-mt323:qt-mt323.dll
 0004:00003e84       __imp_?update@QDataBrowser@@UAEXXZ 00436e84     qt-mt323:qt-mt323.dll
 0004:00003e88       __imp_?insert@QDataBrowser@@UAEXXZ 00436e88     qt-mt323:qt-mt323.dll
 0004:00003e8c       __imp_?refresh@QDataBrowser@@UAEXXZ 00436e8c     qt-mt323:qt-mt323.dll
 0004:00003e90       __imp_?seek@QDataBrowser@@UAE_NH_N@Z 00436e90     qt-mt323:qt-mt323.dll
 0004:00003e94       __imp_?setAutoEdit@QDataBrowser@@UAEX_N@Z 00436e94     qt-mt323:qt-mt323.dll
 0004:00003e98       __imp_?setReadOnly@QDataBrowser@@UAEX_N@Z 00436e98     qt-mt323:qt-mt323.dll
 0004:00003e9c       __imp_?setConfirmCancels@QDataBrowser@@UAEX_N@Z 00436e9c     qt-mt323:qt-mt323.dll
 0004:00003ea0       __imp_?setConfirmDelete@QDataBrowser@@UAEX_N@Z 00436ea0     qt-mt323:qt-mt323.dll
 0004:00003ea4       __imp_?setConfirmUpdate@QDataBrowser@@UAEX_N@Z 00436ea4     qt-mt323:qt-mt323.dll
 0004:00003ea8       __imp_?setConfirmInsert@QDataBrowser@@UAEX_N@Z 00436ea8     qt-mt323:qt-mt323.dll
 0004:00003eac       __imp_?setConfirmEdits@QDataBrowser@@UAEX_N@Z 00436eac     qt-mt323:qt-mt323.dll
 0004:00003eb0       __imp_?setForm@QDataBrowser@@UAEXPAVQSqlForm@@@Z 00436eb0     qt-mt323:qt-mt323.dll
 0004:00003eb4       __imp_?setSqlCursor@QDataBrowser@@UAEXPAVQSqlCursor@@_N@Z 00436eb4     qt-mt323:qt-mt323.dll
 0004:00003eb8       __imp_??0QDataBrowser@@QAE@PAVQWidget@@PBDI@Z 00436eb8     qt-mt323:qt-mt323.dll
 0004:00003ebc       __imp_??1QDataBrowser@@UAE@XZ 00436ebc     qt-mt323:qt-mt323.dll
 0004:00003ec0       __imp_?clearValues@QDataView@@UAEXXZ 00436ec0     qt-mt323:qt-mt323.dll
 0004:00003ec4       __imp_?writeFields@QDataView@@UAEXXZ 00436ec4     qt-mt323:qt-mt323.dll
 0004:00003ec8       __imp_?readFields@QDataView@@UAEXXZ 00436ec8     qt-mt323:qt-mt323.dll
 0004:00003ecc       __imp_?refresh@QDataView@@UAEXPAVQSqlRecord@@@Z 00436ecc     qt-mt323:qt-mt323.dll
 0004:00003ed0       __imp_?setRecord@QDataView@@UAEXPAVQSqlRecord@@@Z 00436ed0     qt-mt323:qt-mt323.dll
 0004:00003ed4       __imp_?setForm@QDataView@@UAEXPAVQSqlForm@@@Z 00436ed4     qt-mt323:qt-mt323.dll
 0004:00003ed8       __imp_??0QDataView@@QAE@PAVQWidget@@PBDI@Z 00436ed8     qt-mt323:qt-mt323.dll
 0004:00003edc       __imp_??1QDataView@@UAE@XZ 00436edc     qt-mt323:qt-mt323.dll
 0004:00003ee0       __imp_?staticMetaObject@QDataBrowser@@SAPAVQMetaObject@@XZ 00436ee0     qt-mt323:qt-mt323.dll
 0004:00003ee4       __imp_?qt_cast@QDataBrowser@@UAEPAXPBD@Z 00436ee4     qt-mt323:qt-mt323.dll
 0004:00003ee8       __imp_?qt_invoke@QDataBrowser@@UAE_NHPAUQUObject@@@Z 00436ee8     qt-mt323:qt-mt323.dll
 0004:00003eec       __imp_?qt_emit@QDataBrowser@@UAE_NHPAUQUObject@@@Z 00436eec     qt-mt323:qt-mt323.dll
 0004:00003ef0       __imp_?qt_property@QDataBrowser@@UAE_NHHPAVQVariant@@@Z 00436ef0     qt-mt323:qt-mt323.dll
 0004:00003ef4       __imp_?staticMetaObject@QDataView@@SAPAVQMetaObject@@XZ 00436ef4     qt-mt323:qt-mt323.dll
 0004:00003ef8       __imp_?qt_cast@QDataView@@UAEPAXPBD@Z 00436ef8     qt-mt323:qt-mt323.dll
 0004:00003efc       __imp_?qt_invoke@QDataView@@UAE_NHPAUQUObject@@@Z 00436efc     qt-mt323:qt-mt323.dll
 0004:00003f00       __imp_?qt_emit@QDataView@@UAE_NHPAUQUObject@@@Z 00436f00     qt-mt323:qt-mt323.dll
 0004:00003f04       __imp_?qt_property@QDataView@@UAE_NHHPAVQVariant@@@Z 00436f04     qt-mt323:qt-mt323.dll
 0004:00003f08       __imp_?deleteData@QGArray@@MAEXPAUarray_data@1@@Z 00436f08     qt-mt323:qt-mt323.dll
 0004:00003f0c       __imp_?newData@QGArray@@MAEPAUarray_data@1@XZ 00436f0c     qt-mt323:qt-mt323.dll
 0004:00003f10       __imp_?qWinMain@@YAXPAUHINSTANCE__@@0PADHAAHAAV?$QMemArray@PAD@@@Z 00436f10     qt-mt323:qt-mt323.dll
 0004:00003f14       __imp_?duplicate@QGArray@@IAEAAV1@ABV1@@Z 00436f14     qt-mt323:qt-mt323.dll
 0004:00003f18       \177qt-mt323_NULL_THUNK_DATA 00436f18     qt-mt323:qt-mt323.dll

 entry point at        0001:000171fe

 Static symbols

 0001:000138ec       _$E99                      004148ec f   moc_waitimpl.obj
 0001:000138f6       _$E96                      004148f6 f   moc_waitimpl.obj
 0001:0001390c       _$E98                      0041490c f   moc_waitimpl.obj
 0001:00013918       _$E97                      00414918 f   moc_waitimpl.obj
 0001:000137b5       _$E129                     004147b5 f   moc_TitleBar.obj
 0001:000137bf       _$E126                     004147bf f   moc_TitleBar.obj
 0001:000137d5       _$E128                     004147d5 f   moc_TitleBar.obj
 0001:000137e1       _$E127                     004147e1 f   moc_TitleBar.obj
 0001:00013669       _$E129                     00414669 f   moc_StatusBar.obj
 0001:00013673       _$E126                     00414673 f   moc_StatusBar.obj
 0001:00013689       _$E128                     00414689 f   moc_StatusBar.obj
 0001:00013695       _$E127                     00414695 f   moc_StatusBar.obj
 0001:00013502       _$E128                     00414502 f   moc_StartPop.obj
 0001:0001350c       _$E125                     0041450c f   moc_StartPop.obj
 0001:00013522       _$E127                     00414522 f   moc_StartPop.obj
 0001:0001352e       _$E126                     0041452e f   moc_StartPop.obj
 0001:000133d7       _$E128                     004143d7 f   moc_SimpleBar.obj
 0001:000133e1       _$E125                     004143e1 f   moc_SimpleBar.obj
 0001:000133f7       _$E127                     004143f7 f   moc_SimpleBar.obj
 0001:00013403       _$E126                     00414403 f   moc_SimpleBar.obj
 0001:000132d3       _$E157                     004142d3 f   moc_PanelMan.obj
 0001:000132dd       _$E154                     004142dd f   moc_PanelMan.obj
 0001:000132f3       _$E156                     004142f3 f   moc_PanelMan.obj
 0001:000132ff       _$E155                     004142ff f   moc_PanelMan.obj
 0001:00013147       _$E128                     00414147 f   moc_Confirm_Exit.obj
 0001:00013151       _$E125                     00414151 f   moc_Confirm_Exit.obj
 0001:00013167       _$E127                     00414167 f   moc_Confirm_Exit.obj
 0001:00013173       _$E126                     00414173 f   moc_Confirm_Exit.obj
 0001:00013012       _$E99                      00414012 f   moc_bncs_multicast.obj
 0001:0001301c       _$E96                      0041401c f   moc_bncs_multicast.obj
 0001:00013032       _$E98                      00414032 f   moc_bncs_multicast.obj
 0001:0001303e       _$E97                      0041403e f   moc_bncs_multicast.obj
 0001:00012ef9       _$E128                     00413ef9 f   moc_AppSwitch.obj
 0001:00012f03       _$E125                     00413f03 f   moc_AppSwitch.obj
 0001:00012f19       _$E127                     00413f19 f   moc_AppSwitch.obj
 0001:00012f25       _$E126                     00413f25 f   moc_AppSwitch.obj
 0001:00012d61       _$E129                     00413d61 f   moc_AppBar.obj
 0001:00012d6b       _$E126                     00413d6b f   moc_AppBar.obj
 0001:00012d81       _$E128                     00413d81 f   moc_AppBar.obj
 0001:00012d8d       _$E127                     00413d8d f   moc_AppBar.obj
 0001:0000ec70       _$E162                     0040fc70 f   PanelMan.obj
 0001:0000ec7a       _$E158                     0040fc7a f   PanelMan.obj
 0001:0000ec85       _$E161                     0040fc85 f   PanelMan.obj
 0001:0000ec91       _$E159                     0040fc91 f   PanelMan.obj
 0001:0000e28e       _md5_process               0040f28e f   md5.obj
 0001:0000da56       _$E159                     0040ea56 f   main.obj
 0001:0000da60       _$E156                     0040ea60 f   main.obj
 0001:0000da6b       _$E158                     0040ea6b f   main.obj
 0001:0000da77       _$E157                     0040ea77 f   main.obj
 0001:0000da82       _$E165                     0040ea82 f   main.obj
 0001:0000da8c       _$E162                     0040ea8c f   main.obj
 0001:0000da97       _$E164                     0040ea97 f   main.obj
 0001:0000daa3       _$E163                     0040eaa3 f   main.obj
 0001:0000daae       _$E170                     0040eaae f   main.obj
 0001:0000dab8       _$E167                     0040eab8 f   main.obj
 0001:0000dac3       _$E169                     0040eac3 f   main.obj
 0001:0000dacf       _$E168                     0040eacf f   main.obj
 0001:0000d551       _$E25                      0040e551 f   except.obj
 0001:0000d55b       _$E22                      0040e55b f   except.obj
 0001:0000d566       _$E24                      0040e566 f   except.obj
 0001:0000d572       _$E23                      0040e572 f   except.obj
 0001:0000d57d       _$E31                      0040e57d f   except.obj
 0001:0000d587       _$E28                      0040e587 f   except.obj
 0001:0000d592       _$E30                      0040e592 f   except.obj
 0001:0000d59e       _$E29                      0040e59e f   except.obj
 0001:0000d5df       ?my_translator@@YAXIPAU_EXCEPTION_POINTERS@@@Z 0040e5df f   except.obj
 0001:00016102       _$E103                     00417102 f   qui:moc_database2.obj
 0001:0001610c       _$E100                     0041710c f   qui:moc_database2.obj
 0001:00016122       _$E102                     00417122 f   qui:moc_database2.obj
 0001:0001612e       _$E101                     0041712e f   qui:moc_database2.obj
 0001:00016228       _$E108                     00417228 f   qui:moc_database2.obj
 0001:00016232       _$E105                     00417232 f   qui:moc_database2.obj
 0001:00016248       _$E107                     00417248 f   qui:moc_database2.obj
 0001:00016254       _$E106                     00417254 f   qui:moc_database2.obj
 0001:00014360       _$E185                     00415360 f   qui:qwidgetfactory.obj
 0001:0001436a       _$E182                     0041536a f   qui:qwidgetfactory.obj
 0001:00014380       _$E184                     00415380 f   qui:qwidgetfactory.obj
 0001:0001438c       _$E183                     0041538c f   qui:qwidgetfactory.obj
 0001:000143ae       _$E190                     004153ae f   qui:qwidgetfactory.obj
 0001:000143b8       _$E187                     004153b8 f   qui:qwidgetfactory.obj
 0001:000143c9       _$E189                     004153c9 f   qui:qwidgetfactory.obj
 0001:000143d5       _$E188                     004153d5 f   qui:qwidgetfactory.obj
 0001:0001455b       ?setupPluginDir@@YAXXZ     0041555b f   qui:qwidgetfactory.obj
 0001:00016fa0       _$E101                     00417fa0 f   cfg_widgets001:moc_config_mb4impl.obj
 0001:00016faa       _$E98                      00417faa f   cfg_widgets001:moc_config_mb4impl.obj
 0001:00016fc0       _$E100                     00417fc0 f   cfg_widgets001:moc_config_mb4impl.obj
 0001:00016fcc       _$E99                      00417fcc f   cfg_widgets001:moc_config_mb4impl.obj
 0001:00017170       ?ArrayUnwindFilter@@YAHPAU_EXCEPTION_POINTERS@@@Z 00418170 f   MSVCRT:ehvecdtr.obj

Line numbers for .\Release\moc_waitimpl.obj(w:\core_svn\Source\windows\bin\panelman\moc_waitimpl.cpp) segment .text

    23 0001:000138e6    25 0001:000138eb    28 0001:000138f6    51 0001:00013923
    53 0001:0001392d    54 0001:0001392f    63 0001:00013935    64 0001:0001394e
    65 0001:00013963    66 0001:00013969    69 0001:0001396a    71 0001:00013994
    72 0001:00013998    73 0001:000139a3    76 0001:000139a6    78 0001:000139b4

Line numbers for .\Release\moc_TitleBar.obj(w:\core_svn\Source\windows\bin\panelman\moc_TitleBar.cpp) segment .text

    23 0001:000137af    25 0001:000137b4    28 0001:000137bf    51 0001:000137ec
    53 0001:000137f6    54 0001:000137f8    56 0001:000137fd    72 0001:00013829
    73 0001:00013847    74 0001:0001385c    75 0001:00013862    78 0001:00013863
    80 0001:0001388d    81 0001:00013891    82 0001:0001389b    85 0001:0001389e
    86 0001:000138a1    90 0001:000138b5    88 0001:000138c6    87 0001:000138cf
    92 0001:000138e0    93 0001:000138e3

Line numbers for .\Release\moc_StatusBar.obj(w:\core_svn\Source\windows\bin\panelman\moc_StatusBar.cpp) segment .text

    23 0001:00013663    25 0001:00013668    28 0001:00013673    51 0001:000136a0
    53 0001:000136aa    54 0001:000136ac    56 0001:000136b1    70 0001:000136dd
    71 0001:000136fb    72 0001:00013710    73 0001:00013716    76 0001:00013717
    78 0001:00013741    79 0001:00013745    80 0001:0001374f    83 0001:00013752
    84 0001:00013755    87 0001:00013763    85 0001:00013774    89 0001:00013785
    90 0001:00013788    93 0001:0001378b    95 0001:00013798    99 0001:0001379b
   101 0001:000137ac

Line numbers for .\Release\moc_StartPop.obj(w:\core_svn\Source\windows\bin\panelman\moc_StartPop.cpp) segment .text

    23 0001:000134fc    25 0001:00013501    28 0001:0001350c    51 0001:00013539
    53 0001:00013543    54 0001:00013545    57 0001:0001354b    74 0001:00013576
    75 0001:00013593    76 0001:000135a8    77 0001:000135ae    80 0001:000135af
    82 0001:000135d9    83 0001:000135dd    84 0001:000135e8    87 0001:000135eb
    88 0001:000135ee    93 0001:00013605    91 0001:00013617    90 0001:00013620
    89 0001:00013630    95 0001:00013637    96 0001:0001363a    99 0001:0001363d
   101 0001:0001364b   105 0001:0001364e   107 0001:00013660

Line numbers for .\Release\moc_SimpleBar.obj(w:\core_svn\Source\windows\bin\panelman\moc_SimpleBar.cpp) segment .text

    23 0001:000133d1    25 0001:000133d6    28 0001:000133e1    51 0001:0001340e
    53 0001:00013418    54 0001:0001341a    56 0001:00013420    70 0001:0001344c
    71 0001:0001346a    72 0001:0001347f    73 0001:00013485    76 0001:00013486
    78 0001:000134b0    79 0001:000134b4    80 0001:000134bf    83 0001:000134c2
    84 0001:000134c5    87 0001:000134d3    85 0001:000134e5    89 0001:000134f6
    90 0001:000134f9

Line numbers for .\Release\moc_PanelMan.obj(w:\core_svn\Source\windows\bin\panelman\moc_PanelMan.cpp) segment .text

    23 0001:000132cd    25 0001:000132d2    28 0001:000132dd    51 0001:0001330a
    53 0001:00013314    54 0001:00013316    69 0001:0001331c    70 0001:0001333a
    71 0001:0001334f    72 0001:00013355    75 0001:00013356    77 0001:00013380
    78 0001:00013384    79 0001:0001338f    82 0001:00013392    83 0001:00013395
    87 0001:000133a9    85 0001:000133bb    84 0001:000133c4    89 0001:000133cb
    90 0001:000133ce

Line numbers for .\Release\moc_Confirm_Exit.obj(w:\core_svn\Source\windows\bin\panelman\moc_Confirm_Exit.cpp) segment .text

    23 0001:00013141    25 0001:00013146    28 0001:00013151    51 0001:0001317e
    53 0001:00013188    54 0001:0001318f    56 0001:00013195    60 0001:000131c2
    75 0001:000131e4    76 0001:00013202    77 0001:00013217    78 0001:0001321e
    81 0001:0001321f    83 0001:00013249    84 0001:0001324d    85 0001:00013258
    88 0001:0001325b    89 0001:00013261    93 0001:00013274    91 0001:00013284
    90 0001:00013293    95 0001:000132a0    96 0001:000132a3    99 0001:000132a7
   101 0001:000132b5   105 0001:000132b8   107 0001:000132ca

Line numbers for .\Release\moc_bncs_multicast.obj(w:\core_svn\Source\windows\bin\panelman\moc_bncs_multicast.cpp) segment .text

    23 0001:0001300c    25 0001:00013011    28 0001:0001301c    51 0001:00013049
    53 0001:00013053    54 0001:00013055    56 0001:0001305b    70 0001:00013084
    71 0001:000130a1    72 0001:000130b6    73 0001:000130bc    76 0001:000130bd
    78 0001:000130e7    79 0001:000130eb    80 0001:000130f6    83 0001:000130f9
    84 0001:000130fc    87 0001:0001310a    85 0001:0001311c    89 0001:0001312a
    90 0001:0001312d    93 0001:00013130    95 0001:0001313e

Line numbers for .\Release\moc_AppSwitch.obj(w:\core_svn\Source\windows\bin\panelman\moc_AppSwitch.cpp) segment .text

    23 0001:00012ef3    25 0001:00012ef8    28 0001:00012f03    51 0001:00012f30
    53 0001:00012f3a    54 0001:00012f3c    69 0001:00012f42    70 0001:00012f60
    71 0001:00012f75    72 0001:00012f7b    75 0001:00012f7c    77 0001:00012fa6
    78 0001:00012faa    79 0001:00012fb5    82 0001:00012fb8    83 0001:00012fbb
    87 0001:00012fcf    85 0001:00012fe1    84 0001:00012fea    89 0001:00012ff1
    90 0001:00012ff4    99 0001:00012ff7   101 0001:00013009

Line numbers for .\Release\moc_AppBar.obj(w:\core_svn\Source\windows\bin\panelman\moc_AppBar.cpp) segment .text

    23 0001:00012d5b    25 0001:00012d60    28 0001:00012d6b    51 0001:00012d98
    53 0001:00012da2    54 0001:00012da8    56 0001:00012dad    61 0001:00012dd8
    81 0001:00012e02    82 0001:00012e20    83 0001:00012e35    84 0001:00012e3b
    87 0001:00012e3c    89 0001:00012e66    90 0001:00012e6a    91 0001:00012e74
    94 0001:00012e77    95 0001:00012e7d   102 0001:00012e99   100 0001:00012ea8
    99 0001:00012eb1    98 0001:00012eba    97 0001:00012ecc    96 0001:00012ed5
   104 0001:00012eec   105 0001:00012eef

Line numbers for .\Release\waitimpl.obj(w:\core_svn\Source\windows\bin\panelman\waitimpl.h) segment .text

     7 0001:00012b8e

Line numbers for .\Release\waitimpl.obj(w:\core_svn\Source\windows\bin\panelman\waitimpl.cpp) segment .text

    11 0001:00012a16    12 0001:00012a41    14 0001:00012a5c    15 0001:00012aa7
    17 0001:00012aaf    19 0001:00012abb    22 0001:00012ad4    23 0001:00012af4
    26 0001:00012b11    29 0001:00012b32    32 0001:00012b50    33 0001:00012b59
    34 0001:00012b6c    40 0001:00012baf    42 0001:00012bbc    46 0001:00012bc2
    47 0001:00012bd7    50 0001:00012bf5    52 0001:00012c07    53 0001:00012c44
    57 0001:00012c72    58 0001:00012c84    59 0001:00012cb5    61 0001:00012cc8
    62 0001:00012cda    63 0001:00012d17    64 0001:00012d25

Line numbers for .\Release\TitleBar.obj(w:\core_svn\Source\windows\bin\panelman\TitleBar.h) segment .text

    19 0001:000123a0

Line numbers for .\Release\TitleBar.obj(w:\core_svn\Source\windows\bin\panelman\TitleBar.cpp) segment .text

    13 0001:000122ef    15 0001:00012382    18 0001:000123c1    20 0001:000123df
    23 0001:00012474    25 0001:00012483    26 0001:000124d9    27 0001:00012523
    28 0001:00012570    31 0001:000125bd    34 0001:000125c4    35 0001:000125f5
    36 0001:0001260a    38 0001:00012619    41 0001:00012628    42 0001:00012636
    45 0001:000126cf    48 0001:000126de    49 0001:000126f0    50 0001:0001270e
    52 0001:00012731    53 0001:0001276e    56 0001:0001277e    57 0001:0001279c
    59 0001:000127b3    60 0001:000127f0    63 0001:00012800    64 0001:00012821
    66 0001:00012838    67 0001:00012875    70 0001:00012885    71 0001:000128a6
    73 0001:000128c0    74 0001:000128fd    76 0001:0001290a    79 0001:0001294d
    80 0001:0001295d    81 0001:0001299f    85 0001:000129af    86 0001:000129bb
    87 0001:000129fe

Line numbers for .\Release\StatusBar.obj(w:\core_svn\Source\windows\bin\panelman\StatusBar.h) segment .text

    20 0001:0001223d

Line numbers for .\Release\StatusBar.obj(w:\core_svn\Source\windows\bin\panelman\StatusBar.cpp) segment .text

    14 0001:0001221e    16 0001:00012237    20 0001:0001225e    22 0001:0001226b
    25 0001:00012270    26 0001:0001227c    27 0001:000122d9

Line numbers for .\Release\StartPop.obj(w:\core_svn\Source\windows\bin\panelman\startpop.h) segment .text

    23 0001:00010527

Line numbers for .\Release\StartPop.obj(w:\core_svn\Source\windows\bin\panelman\StartPop.cpp) segment .text

    22 0001:000104d0    23 0001:000104f9    27 0001:000104fc    29 0001:00010548
    30 0001:0001056a    51 0001:0001058c    55 0001:000105a2    57 0001:000105be
    59 0001:0001062e    61 0001:00010643    63 0001:0001064e    66 0001:0001066c
    68 0001:0001067a    70 0001:00010688    72 0001:00010693    74 0001:000106de
    77 0001:000106ee    79 0001:00010708    82 0001:00010755    85 0001:0001075d
    88 0001:00010777    90 0001:000107c4    92 0001:000107cc    94 0001:000107e6
    95 0001:00010831    97 0001:00010839    98 0001:00010871    99 0001:00010882
   100 0001:000108cf   101 0001:000108e7   105 0001:000108f1   106 0001:000108fd
   107 0001:0001090b   108 0001:0001090e   109 0001:00010947   111 0001:0001094c
   112 0001:0001094e   114 0001:0001095c   116 0001:00010973   117 0001:000109a9
   118 0001:000109b0   119 0001:000109b2   124 0001:000109d9   127 0001:000109e2
   128 0001:000109f3   129 0001:00010a14   131 0001:00010a27   132 0001:00010a2a
   134 0001:00010ab7   136 0001:00010ac8   140 0001:00010b45   143 0001:00010b91
   144 0001:00010b9e   146 0001:00010ba9   148 0001:00010bab   151 0001:00010bbd
   154 0001:00010c0b   155 0001:00010c24   156 0001:00010c42   160 0001:00010c49
   184 0001:00010c68   185 0001:00010c73   187 0001:00010c7e   188 0001:00010c8c
   167 0001:00010c8e   169 0001:00010cd8   170 0001:00010ce6   194 0001:00010cf7
   196 0001:00010d40   206 0001:00010d5e   207 0001:00010d68   211 0001:00010d77
   212 0001:00010da5   214 0001:00010db3   224 0001:00010dc2   225 0001:00010dd4
   228 0001:00010df5   229 0001:00010e05   232 0001:00010e15   234 0001:00010e20
   235 0001:00010e2d   238 0001:00010e3f   241 0001:00010e6b   242 0001:00010e98
   243 0001:00010ea5   244 0001:00010eb7   247 0001:00010ec9   251 0001:00010ece
   252 0001:00010ee0   253 0001:00010ef4   255 0001:00010f17   260 0001:00010f27
   261 0001:00010f3a   263 0001:00010f42   264 0001:00010f9e   266 0001:00010fcf
   267 0001:00011052   268 0001:00011079   269 0001:0001109f   272 0001:000110b3
   273 0001:000110c7   274 0001:000110cf   275 0001:00011109   276 0001:0001112b
   280 0001:00011151   281 0001:00011165   282 0001:0001116d   283 0001:000111a7
   284 0001:000111c9   288 0001:000111ef   289 0001:00011203   290 0001:0001120b
   291 0001:0001125e   292 0001:00011280   296 0001:000112a6   297 0001:000112ba
   298 0001:000112c1   302 0001:00011314   303 0001:00011322   304 0001:00011329
   307 0001:0001137c   308 0001:0001138a   309 0001:00011391   312 0001:000113b8
   313 0001:000113c8   314 0001:000113d0   315 0001:00011438   316 0001:0001145a
   319 0001:00011480   320 0001:00011496   321 0001:0001149a   326 0001:000114b0
   327 0001:000114d0   323 0001:000114d2   332 0001:000114f8   333 0001:00011503
   334 0001:00011522   335 0001:00011524   337 0001:00011541   340 0001:00011552
   342 0001:00011555   345 0001:00011569   350 0001:00011585   354 0001:00011595
   407 0001:000115df   425 0001:000115f0   427 0001:0001165e   428 0001:0001166d
   431 0001:0001167d   433 0001:00011694   434 0001:00011698   435 0001:000116a6
   436 0001:000116d1   440 0001:000116da   441 0001:00011714   444 0001:00011727
   445 0001:00011739   446 0001:0001174d   449 0001:0001175d   451 0001:00011768
   454 0001:0001177c   463 0001:000117ae   466 0001:000117b6   468 0001:00011803
   469 0001:00011812   470 0001:00011823   473 0001:00011845   475 0001:0001185b
   477 0001:00011866   479 0001:00011875   484 0001:0001188e   485 0001:000118a9
   487 0001:000118b7   491 0001:000118e1   494 0001:000118f2   496 0001:00011908
   500 0001:00011918   501 0001:00011935   502 0001:00011937   504 0001:00011943
   506 0001:00011980   507 0001:00011995   508 0001:000119d7   510 0001:000119e7
   512 0001:00011a1d   515 0001:00011a5c   516 0001:00011a6b   520 0001:00011a88
   521 0001:00011ae1   524 0001:00011af9   529 0001:00011b0f   530 0001:00011b46
   531 0001:00011b5e   535 0001:00011b70   538 0001:00011bc5   540 0001:00011bd3
   542 0001:00011bdc   544 0001:00011c26   546 0001:00011c9e   547 0001:00011cb0
   549 0001:00011ce1   550 0001:00011ce8   552 0001:00011cf2   555 0001:00011d44
   557 0001:00011d46   559 0001:00011d99   563 0001:00011da8   565 0001:00011db9
   566 0001:00011dd0   569 0001:00011dd6   584 0001:00011e55   586 0001:00011e66
   588 0001:00011e7d   589 0001:00011ecb   590 0001:00011f12   591 0001:00011f65
   592 0001:00011fae   586 0001:00011fc8   594 0001:00011fce   597 0001:00011fdf
   598 0001:00011fef   601 0001:00012003   602 0001:0001200b   603 0001:00012043
   605 0001:00012045   606 0001:00012052   607 0001:000120ab   609 0001:000120b8
   610 0001:000120c9   612 0001:000120e0   616 0001:000120ea   622 0001:000120ef
   624 0001:00012101   626 0001:00012132   627 0001:00012144   628 0001:00012150
   631 0001:00012160   634 0001:0001216c   635 0001:00012197   636 0001:000121a9
   638 0001:000121b5   640 0001:000121c5

Line numbers for .\Release\SimpleBar.obj(..\..\..\include\dcw.h) segment .text

    48 0001:0001011b

Line numbers for .\Release\SimpleBar.obj(w:\core_svn\Source\windows\bin\panelman\SimpleBar.h) segment .text

    29 0001:0000fe91

Line numbers for .\Release\SimpleBar.obj(w:\core_svn\Source\windows\bin\panelman\SimpleBar.cpp) segment .text

    16 0001:0000fe67    18 0001:0000fe7a    19 0001:0000fe8a    22 0001:0000feb2
    24 0001:0000febf    36 0001:0000fec5    41 0001:0000fedd    42 0001:0000feeb
    49 0001:0000fef8    50 0001:0000ff68    62 0001:0000ffcf    64 0001:0000ffe0
    66 0001:0001000a    67 0001:00010015    71 0001:00010023    72 0001:00010048
    73 0001:0001004a    78 0001:00010067    79 0001:00010076    80 0001:00010087
    81 0001:000100a7    83 0001:000100e0    84 0001:0001010a    87 0001:00010148
    88 0001:00010154    89 0001:000101b1    91 0001:000101bf    92 0001:000101ce
    94 0001:000101ed    95 0001:000101f1    97 0001:00010243    99 0001:00010279
   100 0001:00010289   103 0001:000102ea   104 0001:000102ee   106 0001:00010340
   108 0001:00010369   109 0001:0001037f   111 0001:0001039c   112 0001:000103ff
   113 0001:00010406   116 0001:00010412   117 0001:00010444   118 0001:0001044d
   120 0001:00010476   121 0001:000104b5

Line numbers for .\Release\PanelMan.obj(w:\core_svn\Source\windows\bin\panelman\PanelMan.h) segment .text

    43 0001:0000f28f

Line numbers for .\Release\PanelMan.obj(w:\core_svn\Source\windows\bin\panelman\PanelMan.cpp) segment .text

    13 0001:0000ec7a    46 0001:0000ecad    47 0001:0000ed4f    50 0001:0000ed8b
    53 0001:0000ed9e    54 0001:0000edb1    55 0001:0000edba    59 0001:0000ee08
    60 0001:0000ee1b    61 0001:0000ee2a    65 0001:0000ee3d    67 0001:0000ee61
    69 0001:0000ee72    70 0001:0000ee7f    81 0001:0000eeb5    88 0001:0000eeed
    89 0001:0000ef26    90 0001:0000ef3d    92 0001:0000ef4e    97 0001:0000ef56
   100 0001:0000ef7b   102 0001:0000efa3   107 0001:0000efa7   108 0001:0000efc4
   112 0001:0000efee   113 0001:0000eff6   116 0001:0000f01a   118 0001:0000f03c
   122 0001:0000f060   123 0001:0000f08f   124 0001:0000f0b3   125 0001:0000f0bb
   126 0001:0000f0c2   129 0001:0000f0e7   134 0001:0000f112   136 0001:0000f144
   140 0001:0000f14f   142 0001:0000f171   144 0001:0000f18c   148 0001:0000f1c8
   151 0001:0000f1f0   154 0001:0000f21f   156 0001:0000f24e   157 0001:0000f25d
   159 0001:0000f262   160 0001:0000f264   163 0001:0000f270   166 0001:0000f2ea
   167 0001:0000f309   169 0001:0000f31b   170 0001:0000f328   172 0001:0000f336
   173 0001:0000f33d   174 0001:0000f34b   175 0001:0000f352   176 0001:0000f358
   177 0001:0000f35f   178 0001:0000f365   179 0001:0000f36c   180 0001:0000f372
   181 0001:0000f379   182 0001:0000f37f   183 0001:0000f389   184 0001:0000f38f
   185 0001:0000f399   186 0001:0000f39f   187 0001:0000f3ae   188 0001:0000f3ba
   190 0001:0000f3c7   191 0001:0000f3d1   192 0001:0000f3d7   203 0001:0000f471
   216 0001:0000f479   217 0001:0000f483   218 0001:0000f499   227 0001:0000f4b4
   229 0001:0000f4c9   232 0001:0000f4d6   233 0001:0000f4ee   237 0001:0000f4fc
   239 0001:0000f4fe   241 0001:0000f513   243 0001:0000f51a   245 0001:0000f51c
   249 0001:0000f523   250 0001:0000f575   253 0001:0000f5c2   256 0001:0000f5c7
   257 0001:0000f5fe   258 0001:0000f650   259 0001:0000f69e   264 0001:0000f6ec
   265 0001:0000f736   266 0001:0000f75e   267 0001:0000f771   269 0001:0000f785
   273 0001:0000f796   275 0001:0000f7bd   277 0001:0000f7d4   278 0001:0000f7e7
   281 0001:0000f802   286 0001:0000f814   288 0001:0000f818   291 0001:0000f821
   297 0001:0000f861   300 0001:0000f86b   301 0001:0000f880   302 0001:0000f8ef
   303 0001:0000f912   304 0001:0000f925   305 0001:0000f932   307 0001:0000f934
   310 0001:0000f945   311 0001:0000f969   313 0001:0000f97a   314 0001:0000f992
   316 0001:0000f9a1   326 0001:0000f9b4   356 0001:0000fa04   379 0001:0000fa15
   368 0001:0000fb4d   369 0001:0000fb59   371 0001:0000fb76   372 0001:0000fb7f
   373 0001:0000fb93   374 0001:0000fba0   375 0001:0000fbb1   376 0001:0000fbda
   377 0001:0000fbe7   379 0001:0000fbfc   381 0001:0000fc9f   384 0001:0000fce2
   385 0001:0000fd0a   387 0001:0000fd2a   388 0001:0000fdb6   446 0001:0000fdc8
   448 0001:0000fdd8   450 0001:0000fde7   451 0001:0000fdf0   452 0001:0000fdfe
   488 0001:0000fe00   489 0001:0000fe0b   491 0001:0000fe18   495 0001:0000fe34
   496 0001:0000fe38   497 0001:0000fe4d

Line numbers for .\Release\md5.obj(w:\core_svn\Source\windows\bin\panelman\md5.c) segment .text

   314 0001:0000e19f   316 0001:0000e1aa   317 0001:0000e1b1   318 0001:0000e1b8
   319 0001:0000e1bf   320 0001:0000e1c6   324 0001:0000e1c7   325 0001:0000e1cb
   326 0001:0000e1cf   327 0001:0000e1d3   328 0001:0000e1da   330 0001:0000e1e7
   335 0001:0000e1ef   336 0001:0000e1f9   337 0001:0000e200   340 0001:0000e204
   341 0001:0000e208   343 0001:0000e21e   344 0001:0000e22c   346 0001:0000e23a
   347 0001:0000e23d   348 0001:0000e241   352 0001:0000e250   353 0001:0000e263
   356 0001:0000e275   357 0001:0000e279   358 0001:0000e28c   133 0001:0000e28e
   135 0001:0000e299   156 0001:0000e29c   164 0001:0000e2be   167 0001:0000e2c3
   169 0001:0000e2c5   170 0001:0000e2d7   175 0001:0000e2dd   183 0001:0000e2df
   187 0001:0000e2eb   192 0001:0000e2fe   207 0001:0000e339   208 0001:0000e34b
   209 0001:0000e38d   210 0001:0000e3bb   211 0001:0000e3e9   212 0001:0000e40d
   213 0001:0000e43c   214 0001:0000e46b   215 0001:0000e487   216 0001:0000e4c0
   217 0001:0000e4eb   218 0001:0000e508   219 0001:0000e544   220 0001:0000e55e
   221 0001:0000e596   222 0001:0000e5b3   233 0001:0000e5df   234 0001:0000e601
   235 0001:0000e639   236 0001:0000e65c   237 0001:0000e66c   238 0001:0000e690
   239 0001:0000e6c9   240 0001:0000e6ec   241 0001:0000e6fc   242 0001:0000e720
   243 0001:0000e759   244 0001:0000e77c   245 0001:0000e796   246 0001:0000e7b0
   247 0001:0000e7e9   248 0001:0000e80c   260 0001:0000e81c   261 0001:0000e871
   262 0001:0000e88e   263 0001:0000e8aa   264 0001:0000e8b6   265 0001:0000e8e1
   266 0001:0000e8e3   267 0001:0000e91c   268 0001:0000e937   269 0001:0000e955
   270 0001:0000e95b   271 0001:0000e993   272 0001:0000e99a   273 0001:0000e9be
   274 0001:0000e9e7   285 0001:0000ea09   286 0001:0000ea27   287 0001:0000ea45
   288 0001:0000ea63   289 0001:0000ea81   290 0001:0000ea9f   291 0001:0000eabd
   292 0001:0000eadb   293 0001:0000eaf9   294 0001:0000eb17   295 0001:0000eb35
   296 0001:0000eb53   297 0001:0000eb71   298 0001:0000eb8f   306 0001:0000eb97
   308 0001:0000ebd6   309 0001:0000ebf5   310 0001:0000ebfa   362 0001:0000ebfc
   373 0001:0000ec02   374 0001:0000ec07   376 0001:0000ec23   378 0001:0000ec3d
   379 0001:0000ec4c   380 0001:0000ec4e   381 0001:0000ec6e

Line numbers for .\Release\main.obj(w:\core_svn\Source\windows\bin\panelman\main.cpp) segment .text

    42 0001:0000dab8    45 0001:0000dada    56 0001:0000daed    59 0001:0000daf5
    61 0001:0000dafa    68 0001:0000db0e    69 0001:0000db21    70 0001:0000db2e
    72 0001:0000db3b    74 0001:0000db47    76 0001:0000db59    77 0001:0000db91
    78 0001:0000db9b    79 0001:0000dbca   106 0001:0000dc17   107 0001:0000dc24
   108 0001:0000dc5d   109 0001:0000dc67   110 0001:0000dc96   111 0001:0000dce3
   112 0001:0000dcea   114 0001:0000dd1f   116 0001:0000dd23   118 0001:0000dd55
   121 0001:0000dd67   122 0001:0000dd6b   125 0001:0000dd83   126 0001:0000ddb2
   129 0001:0000ddbc   132 0001:0000de0a   133 0001:0000de21   134 0001:0000de38
   153 0001:0000de59   259 0001:0000de6b   171 0001:0000dee8   172 0001:0000def7
   173 0001:0000df28   174 0001:0000df2a   176 0001:0000df4d   179 0001:0000df6d
   181 0001:0000df7a   182 0001:0000df83   191 0001:0000df96   193 0001:0000e05a
   201 0001:0000e05f   203 0001:0000e0ff   205 0001:0000e117   206 0001:0000e122
   214 0001:0000e12f   217 0001:0000e144   219 0001:0000e14b   220 0001:0000e162
   221 0001:0000e17e   229 0001:0000e18b   231 0001:0000e191

Line numbers for .\Release\main.obj(C:\Program Files\Microsoft Visual Studio\VC98\INCLUDE\iostream) segment .text

    16 0001:0000da60    29 0001:0000da8c

Line numbers for .\Release\LookUp.obj(w:\core_svn\Source\windows\bin\panelman\LookUp.cpp) segment .text

    16 0001:0000d874    17 0001:0000d87c    19 0001:0000d899    20 0001:0000d89f
    30 0001:0000d8a0    32 0001:0000d8b3    35 0001:0000d8c3    36 0001:0000d8d2
    38 0001:0000d904    40 0001:0000d91c    41 0001:0000d986    44 0001:0000d9e8
    46 0001:0000da03    48 0001:0000da0c    49 0001:0000da44

Line numbers for .\Release\ExtProcess.obj(C:\Qt\3.2.3\include\qvaluelist.h) segment .text

   371 0001:0000d835   373 0001:0000d85f   374 0001:0000d862   375 0001:0000d869
   377 0001:0000d871

Line numbers for .\Release\ExtProcess.obj(w:\core_svn\Source\windows\bin\panelman\ExtProcess.cpp) segment .text

    22 0001:0000d615    25 0001:0000d63f    28 0001:0000d676    29 0001:0000d694
    30 0001:0000d69a    33 0001:0000d6c0    35 0001:0000d6c3    36 0001:0000d6ca
    39 0001:0000d6d1    40 0001:0000d6dc    41 0001:0000d6e9    44 0001:0000d6ea
    46 0001:0000d6ed    47 0001:0000d6f4    48 0001:0000d6fb    50 0001:0000d700
    53 0001:0000d701    54 0001:0000d70c    56 0001:0000d722    57 0001:0000d72b
    61 0001:0000d72f    62 0001:0000d73c    63 0001:0000d748    64 0001:0000d763
    65 0001:0000d777    66 0001:0000d787    68 0001:0000d7b0    70 0001:0000d7d6
    71 0001:0000d7e3    75 0001:0000d7e5    78 0001:0000d7f9    79 0001:0000d803
    80 0001:0000d80b    81 0001:0000d824

Line numbers for .\Release\except.obj(w:\core_svn\Source\windows\bin\panelman\except.cpp) segment .text

    14 0001:0000d5a9    15 0001:0000d5ab    16 0001:0000d5b1    17 0001:0000d5b6
    19 0001:0000d5b8    20 0001:0000d5c3    21 0001:0000d5c9    22 0001:0000d5cb
    23 0001:0000d5cf    26 0001:0000d5d2    28 0001:0000d5de     5 0001:0000d5df
     6 0001:0000d5e7    31 0001:0000d60a    33 0001:0000d60d    36 0001:0000d60e
    38 0001:0000d610    41 0001:0000d611    43 0001:0000d614

Line numbers for .\Release\except.obj(C:\Program Files\Microsoft Visual Studio\VC98\INCLUDE\iostream) segment .text

    16 0001:0000d55b    29 0001:0000d587

Line numbers for .\Release\Confirm_Exit.obj(w:\core_svn\Source\windows\bin\panelman\Confirm_Exit.h) segment .text

    17 0001:0000d4ef

Line numbers for .\Release\Confirm_Exit.obj(w:\core_svn\Source\windows\bin\panelman\Confirm_Exit.cpp) segment .text

    13 0001:0000d3ec    16 0001:0000d410    18 0001:0000d42e    21 0001:0000d440
    23 0001:0000d46a    28 0001:0000d46f    29 0001:0000d481    30 0001:0000d485
    31 0001:0000d49a    32 0001:0000d4a6    33 0001:0000d4ab    35 0001:0000d4c0
    37 0001:0000d4c4    40 0001:0000d510    42 0001:0000d51d    45 0001:0000d523
    48 0001:0000d52b    51 0001:0000d52e    53 0001:0000d536    56 0001:0000d539
    58 0001:0000d53f    60 0001:0000d545    62 0001:0000d548

Line numbers for .\Release\Client.obj(..\..\..\include\ccClient.h) segment .text

    42 0001:0000d197    51 0001:0000d198    88 0001:0000d19b   102 0001:0000d19e
   107 0001:0000d1a1

Line numbers for .\Release\Client.obj(w:\core_svn\Source\windows\bin\panelman\Client.cpp) segment .text

    18 0001:0000d120    19 0001:0000d145    20 0001:0000d165    29 0001:0000d168
    30 0001:0000d179    33 0001:0000d1c0    34 0001:0000d1ec    35 0001:0000d1f2
    36 0001:0000d1fd    39 0001:0000d214    41 0001:0000d21d    44 0001:0000d237
    45 0001:0000d23a    47 0001:0000d254    48 0001:0000d26d    50 0001:0000d28b
    53 0001:0000d290    55 0001:0000d2a1   172 0001:0000d2a2   178 0001:0000d2b3
   180 0001:0000d2d0   183 0001:0000d2ed   185 0001:0000d33b   194 0001:0000d34a
   197 0001:0000d34e   198 0001:0000d355   199 0001:0000d36b   203 0001:0000d36f
   204 0001:0000d37d   209 0001:0000d383   226 0001:0000d38a   228 0001:0000d3b0
   229 0001:0000d3b2   232 0001:0000d3bb   273 0001:0000d3be   276 0001:0000d3bf
   286 0001:0000d3c2   288 0001:0000d3ce   289 0001:0000d3d8   291 0001:0000d3e3

Line numbers for .\Release\bncs_multicast.obj(w:\core_svn\Source\windows\bin\panelman\bncs_multicast.h) segment .text

    21 0001:0000cc9b

Line numbers for .\Release\bncs_multicast.obj(w:\core_svn\Source\windows\bin\panelman\bncs_multicast.cpp) segment .text

    19 0001:0000cc47    23 0001:0000cc7b    45 0001:0000ccbc    47 0001:0000cccd
    48 0001:0000ccd6    49 0001:0000cce8    51 0001:0000ccf7    53 0001:0000cd0c
    55 0001:0000cd17    57 0001:0000cd19    58 0001:0000cd21    61 0001:0000cd2a
    64 0001:0000cd2d    65 0001:0000cd59    71 0001:0000cd97    73 0001:0000cd9e
    81 0001:0000cda1    82 0001:0000cdae    84 0001:0000cdbd    85 0001:0000cdc4
    89 0001:0000cdca    91 0001:0000cdf7    92 0001:0000ce02    95 0001:0000ce07
    97 0001:0000ce1c    98 0001:0000ce21   104 0001:0000ce23   106 0001:0000ce40
   107 0001:0000ce45   113 0001:0000ce47   115 0001:0000ce7a   116 0001:0000ce85
   118 0001:0000ce93   120 0001:0000ceb0   121 0001:0000cec3   124 0001:0000ceca
   125 0001:0000ced7   128 0001:0000cf0b   129 0001:0000cf44   131 0001:0000cf5c
   135 0001:0000cf5e   136 0001:0000cf6f   138 0001:0000cf7d   139 0001:0000cf9e
   141 0001:0000cfaa   142 0001:0000cfb1   143 0001:0000cfb7   145 0001:0000cfbb
   146 0001:0000cfbd   151 0001:0000cfeb   152 0001:0000d003   154 0001:0000d011
   155 0001:0000d018   156 0001:0000d01e   161 0001:0000d050   163 0001:0000d054
   166 0001:0000d061   168 0001:0000d069   170 0001:0000d072   173 0001:0000d07f
   176 0001:0000d089   178 0001:0000d08d   180 0001:0000d096   182 0001:0000d0a0
   194 0001:0000d0a3   195 0001:0000d0ae   196 0001:0000d0b5   197 0001:0000d0bf
   198 0001:0000d0c1   199 0001:0000d112

Line numbers for .\Release\bncs_mcComms.obj(w:\core_svn\Source\windows\bin\panelman\bncs_mcComms.cpp) segment .text

    72 0001:0000cb17    73 0001:0000cb25    76 0001:0000cb4d    87 0001:0000cb56
    83 0001:0000cb67    84 0001:0000cb72    85 0001:0000cba7    78 0001:0000cba9
    79 0001:0000cbb4    90 0001:0000cbef    91 0001:0000cbf9    96 0001:0000cc02
   111 0001:0000cc2f   112 0001:0000cc35   113 0001:0000cc43   123 0001:0000cc44

Line numbers for .\Release\AppView.obj(C:\Qt\3.2.3\include\qdict.h) segment .text

    57 0001:0000caa1   112 0001:0000cadb

Line numbers for .\Release\AppView.obj(w:\core_svn\Source\windows\bin\panelman\AppView.cpp) segment .text

    40 0001:0000b597    41 0001:0000b603    42 0001:0000b620    48 0001:0000b627
    50 0001:0000b630    55 0001:0000b66b    56 0001:0000b67a    57 0001:0000b680
    63 0001:0000b682    64 0001:0000b68b    65 0001:0000b691    70 0001:0000b693
    71 0001:0000b69f    72 0001:0000b6a5    74 0001:0000b6a7    75 0001:0000b6ad
    76 0001:0000b6b3    79 0001:0000b6b5    92 0001:0000b6b8    96 0001:0000b6ef
    99 0001:0000b72b   100 0001:0000b74b   102 0001:0000b75e   105 0001:0000b7d7
   113 0001:0000b7ed   116 0001:0000b800   120 0001:0000b850   122 0001:0000b861
   124 0001:0000b86e   126 0001:0000b894   130 0001:0000b8e1   132 0001:0000b8f2
   134 0001:0000b8fd   136 0001:0000b8ff   139 0001:0000b94e   141 0001:0000b965
   144 0001:0000b96d   145 0001:0000b977   148 0001:0000b9cc   149 0001:0000b9df
   151 0001:0000b9eb   153 0001:0000b9f0   156 0001:0000ba43   160 0001:0000ba4c
   162 0001:0000ba6e   164 0001:0000ba81   167 0001:0000baf2   168 0001:0000bb05
   170 0001:0000bb4d   177 0001:0000bb52   180 0001:0000bbe4   182 0001:0000bc33
   183 0001:0000bc3f   187 0001:0000bc56   190 0001:0000bce8   192 0001:0000bd4e
   195 0001:0000bd61   197 0001:0000bdf3   198 0001:0000be59   200 0001:0000be6c
   201 0001:0000be9f   210 0001:0000bef7   213 0001:0000bf07   214 0001:0000bf12
   218 0001:0000bf1d   225 0001:0000bf3b   227 0001:0000bf51   229 0001:0000bf56
   231 0001:0000bf6e   233 0001:0000bf79   236 0001:0000bf91   238 0001:0000bf98
   239 0001:0000bfa8   249 0001:0000bfad   250 0001:0000bfbc   251 0001:0000bfbf
   256 0001:0000bfc2   258 0001:0000bfcd   259 0001:0000bfda   261 0001:0000c002
   262 0001:0000c017   264 0001:0000c047   265 0001:0000c052   267 0001:0000c067
   269 0001:0000c07a   274 0001:0000c094   282 0001:0000c0bb   284 0001:0000c0c0
   286 0001:0000c0d8   288 0001:0000c0e3   291 0001:0000c0fb   293 0001:0000c105
   297 0001:0000c113   298 0001:0000c11e   300 0001:0000c135   306 0001:0000c13c
   309 0001:0000c146   310 0001:0000c159   311 0001:0000c1b5   313 0001:0000c1be
   317 0001:0000c1cd   319 0001:0000c21b   322 0001:0000c21f   325 0001:0000c228
   326 0001:0000c25c   328 0001:0000c281   332 0001:0000c285   335 0001:0000c287
   342 0001:0000c297   343 0001:0000c350   346 0001:0000c358   349 0001:0000c384
   352 0001:0000c386   353 0001:0000c3d0   356 0001:0000c3d4   360 0001:0000c406
   361 0001:0000c470   365 0001:0000c481   366 0001:0000c489   367 0001:0000c494
   369 0001:0000c49f   370 0001:0000c4a8   372 0001:0000c4c4   373 0001:0000c4d8
   375 0001:0000c4e8   378 0001:0000c4fb   380 0001:0000c4fd   382 0001:0000c519
   385 0001:0000c51d   387 0001:0000c532   389 0001:0000c537   390 0001:0000c545
   391 0001:0000c57d   393 0001:0000c5c7   394 0001:0000c5d1   397 0001:0000c61e
   400 0001:0000c634   407 0001:0000c651   410 0001:0000c657   412 0001:0000c6be
   416 0001:0000c6c0   419 0001:0000c723   420 0001:0000c72c   422 0001:0000c731
   424 0001:0000c743   425 0001:0000c754   427 0001:0000c79e   428 0001:0000c7a8
   430 0001:0000c7f2   433 0001:0000c83e   435 0001:0000c868   436 0001:0000c893
   439 0001:0000c8af   440 0001:0000c8be   442 0001:0000c8cb   443 0001:0000c8dc
   445 0001:0000c8ee   447 0001:0000c8f9   449 0001:0000c90c   451 0001:0000c923
   454 0001:0000c933   455 0001:0000c96e   462 0001:0000c995   463 0001:0000c9a0
   464 0001:0000c9b5   467 0001:0000c9d3   468 0001:0000c9e0   471 0001:0000c9f0
   472 0001:0000ca0c   475 0001:0000ca24   478 0001:0000ca34   479 0001:0000ca41
   480 0001:0000ca4a   482 0001:0000ca55   483 0001:0000ca64   486 0001:0000ca6f
   487 0001:0000ca80

Line numbers for .\Release\AppSwitch.obj(C:\Qt\3.2.3\include\qdict.h) segment .text

    57 0001:0000b53b   105 0001:0000b575

Line numbers for .\Release\AppSwitch.obj(w:\core_svn\Source\windows\bin\panelman\AppSwitch.h) segment .text

    25 0001:00009e96

Line numbers for .\Release\AppSwitch.obj(w:\core_svn\Source\windows\bin\panelman\AppSwitch.cpp) segment .text

    20 0001:00009da3    23 0001:00009e1d    24 0001:00009e23    25 0001:00009e44
    26 0001:00009e4a    29 0001:00009e4e    31 0001:00009e77    32 0001:00009e7d
    33 0001:00009e83    36 0001:00009eb7    38 0001:00009ed0    41 0001:00009f52
    45 0001:00009f53    47 0001:00009f62    50 0001:00009f73    51 0001:00009f85
    54 0001:00009f9a    56 0001:00009fb4    57 0001:0000a000    59 0001:0000a012
    60 0001:0000a01a    62 0001:0000a01d    65 0001:0000a052    69 0001:0000a06e
    70 0001:0000a083    72 0001:0000a087    73 0001:0000a097    77 0001:0000a09b
    78 0001:0000a115    79 0001:0000a121    80 0001:0000a15d    82 0001:0000a16e
    84 0001:0000a173    87 0001:0000a178    88 0001:0000a212    89 0001:0000a245
    93 0001:0000a24e    96 0001:0000a254    97 0001:0000a2ee    98 0001:0000a321
   100 0001:0000a32c   102 0001:0000a331   103 0001:0000a333   107 0001:0000a341
   108 0001:0000a34a   109 0001:0000a357   110 0001:0000a364   113 0001:0000a371
   114 0001:0000a3fa   116 0001:0000a40b   118 0001:0000a44f   119 0001:0000a49a
   120 0001:0000a4e5   121 0001:0000a530   126 0001:0000a57b   129 0001:0000a59c
   131 0001:0000a5b7   134 0001:0000a5eb   136 0001:0000a5f9   137 0001:0000a608
   138 0001:0000a60e   140 0001:0000a615   143 0001:0000a65e   144 0001:0000a667
   145 0001:0000a670   146 0001:0000a679   148 0001:0000a689   151 0001:0000a6d6
   153 0001:0000a6df   155 0001:0000a706   157 0001:0000a728   158 0001:0000a737
   160 0001:0000a784   161 0001:0000a7b2   162 0001:0000a7fb   163 0001:0000a829
   164 0001:0000a857   166 0001:0000a885   169 0001:0000a887   171 0001:0000a8be
   173 0001:0000a8fa   175 0001:0000a913   176 0001:0000a943   177 0001:0000a95e
   178 0001:0000a990   181 0001:0000a9bb   182 0001:0000aa26   183 0001:0000aa8c
   184 0001:0000aac6   186 0001:0000aac8   188 0001:0000ab11   189 0001:0000ab3f
   190 0001:0000ab6d   191 0001:0000ab9b   192 0001:0000abc9   194 0001:0000abf7
   196 0001:0000ac3d   197 0001:0000ac4c   198 0001:0000ac6a   200 0001:0000ac8b
   201 0001:0000ac92   205 0001:0000ac97   207 0001:0000aca6   210 0001:0000acaa
   215 0001:0000acd5   217 0001:0000ace9   218 0001:0000acf6   220 0001:0000acfb
   223 0001:0000ad02   225 0001:0000ad0b   228 0001:0000ad63   230 0001:0000ad74
   232 0001:0000ad9a   233 0001:0000ada6   237 0001:0000ada8   238 0001:0000adb9
   240 0001:0000adcc   250 0001:0000add6   251 0001:0000ade6   253 0001:0000adf0
   257 0001:0000ae03   258 0001:0000ae18   260 0001:0000ae24   262 0001:0000ae31
   264 0001:0000ae3c   266 0001:0000ae45   268 0001:0000ae53   269 0001:0000ae61
   272 0001:0000ae65   273 0001:0000ae6f   274 0001:0000ae76   278 0001:0000ae7b
   279 0001:0000ae8d   280 0001:0000ae9c   281 0001:0000aea5   282 0001:0000aeae
   283 0001:0000aecf   285 0001:0000aef0   287 0001:0000aef4   289 0001:0000af4c
   292 0001:0000af59   294 0001:0000af66   296 0001:0000af70   299 0001:0000afc8
   301 0001:0000afe6   302 0001:0000afe9   304 0001:0000affd   306 0001:0000b016
   307 0001:0000b03c   308 0001:0000b047   309 0001:0000b06d   310 0001:0000b093
   312 0001:0000b09e   314 0001:0000b0b5   317 0001:0000b0c0   319 0001:0000b0d0
   320 0001:0000b102   322 0001:0000b13a   324 0001:0000b153   326 0001:0000b15c
   328 0001:0000b16d   330 0001:0000b17d   331 0001:0000b18f   332 0001:0000b1a1
   333 0001:0000b1b0   334 0001:0000b1b9   335 0001:0000b1c2   336 0001:0000b1e3
   338 0001:0000b204   339 0001:0000b20b   340 0001:0000b212   341 0001:0000b217
   343 0001:0000b21a   359 0001:0000b21e   360 0001:0000b22b   361 0001:0000b231
   367 0001:0000b238   370 0001:0000b246   372 0001:0000b251   373 0001:0000b2e3
   347 0001:0000b2f7   349 0001:0000b304   350 0001:0000b312   351 0001:0000b342
   352 0001:0000b368   357 0001:0000b37d   376 0001:0000b382   378 0001:0000b38f
   379 0001:0000b3a0   381 0001:0000b3b1   384 0001:0000b3ce   402 0001:0000b3e7
   404 0001:0000b3f9   405 0001:0000b40a   407 0001:0000b413   409 0001:0000b430
   414 0001:0000b490   417 0001:0000b4b4   420 0001:0000b4dd   421 0001:0000b4eb
   422 0001:0000b4f1   423 0001:0000b4f5   427 0001:0000b4fe   428 0001:0000b521
   429 0001:0000b52e

Line numbers for .\Release\AppItem.obj(w:\core_svn\Source\windows\bin\panelman\AppItem.cpp) segment .text

    11 0001:00009c35    12 0001:00009c90    13 0001:00009ca8    14 0001:00009cb0
    15 0001:00009cb9    16 0001:00009cc2    17 0001:00009ccb    19 0001:00009d3b
    21 0001:00009d52

Line numbers for .\Release\AppBar.obj(C:\Qt\3.2.3\include\qptrlist.h) segment .text

    70 0001:00009b7b   149 0001:00009c04   151 0001:00009c22

Line numbers for .\Release\AppBar.obj(C:\Qt\3.2.3\include\qdict.h) segment .text

    57 0001:00009b30    73 0001:00009b6a    96 0001:00009bed    98 0001:00009c01

Line numbers for .\Release\AppBar.obj(..\..\..\include\globalsettings.h) segment .text

    30 0001:00007bef    31 0001:00007bfb    32 0001:00007c30

Line numbers for .\Release\AppBar.obj(w:\core_svn\Source\windows\bin\panelman\appbar.h) segment .text

    22 0001:0000679e

Line numbers for .\Release\AppBar.obj(w:\core_svn\Source\windows\bin\panelman\AppBar.cpp) segment .text

    19 0001:0000668b    22 0001:0000673e    23 0001:00006741    25 0001:00006769
    31 0001:0000676c    34 0001:000067bf    35 0001:000067df    42 0001:00006899
    43 0001:000068ab    46 0001:000068b2    47 0001:000068b9    49 0001:000068cc
    51 0001:000068e2    52 0001:0000690e    53 0001:00006940    55 0001:0000699e
    59 0001:000069ad    60 0001:000069c2    66 0001:000069dc    68 0001:000069f6
    69 0001:00006a0d    72 0001:00006a22    75 0001:00006a5b    77 0001:00006a65
    79 0001:00006ab3    80 0001:00006ae4    81 0001:00006b28    82 0001:00006b34
    84 0001:00006b36    85 0001:00006b3f    87 0001:00006b43    89 0001:00006b59
    92 0001:00006b65    95 0001:00006b72    98 0001:00006bad    99 0001:00006bb1
   100 0001:00006bce   102 0001:00006bd1   104 0001:00006be0   106 0001:00006c58
   108 0001:00006c65   110 0001:00006cb3   121 0001:00006cc1   124 0001:00006cd9
   126 0001:00006ce9   127 0001:00006d08   129 0001:00006d47   131 0001:00006d4c
   132 0001:00006d78   133 0001:00006da4   164 0001:00006dd0   166 0001:00006de0
   167 0001:00006e24   168 0001:00006e33   169 0001:00006e3e   172 0001:00006e58
   173 0001:00006e98   174 0001:00006ea7   175 0001:00006eeb   177 0001:00006f24
   178 0001:00006f2e   179 0001:00006f38   180 0001:00006f81   181 0001:00006faa
   182 0001:00006fc4   185 0001:00006fce   186 0001:00006fdb   189 0001:00006fee
   192 0001:00006ff8   194 0001:00006ffb   196 0001:0000701f   206 0001:000070ac
   207 0001:000070bc   211 0001:000070c5   214 0001:000070fa   215 0001:00007101
   217 0001:00007108   221 0001:00007116   230 0001:0000712b   233 0001:00007135
   240 0001:00007151   245 0001:00007159   247 0001:00007170   249 0001:00007175
   251 0001:00007184   253 0001:0000718e   255 0001:000071dd   256 0001:000071df
   260 0001:000071e6   262 0001:000071f2   264 0001:000071ff   274 0001:00007200
   279 0001:0000720a   284 0001:00007266   289 0001:0000726e   293 0001:00007287
   294 0001:000072e0   296 0001:00007327   299 0001:000073b5   301 0001:000073fd
   305 0001:00007435   309 0001:00007448   311 0001:00007483   313 0001:00007485
   315 0001:0000748e   316 0001:00007493   317 0001:00007494   319 0001:000074b7
   320 0001:000074b9   322 0001:000074c0   323 0001:000074da   325 0001:000074f8
   326 0001:00007501   328 0001:00007519   332 0001:0000752b   333 0001:00007587
   335 0001:00007598   338 0001:000075df   340 0001:0000762f   342 0001:00007640
   345 0001:0000768d   347 0001:00007715   348 0001:0000775a   349 0001:00007767
   350 0001:00007781   351 0001:0000778e   352 0001:0000779b   355 0001:000077b5
   357 0001:000077e5   360 0001:000077f9   362 0001:00007818   363 0001:0000781a
   366 0001:0000783b   379 0001:0000784c   384 0001:00007863   386 0001:0000787a
   388 0001:000078cc   391 0001:000078e4   392 0001:00007930   394 0001:0000793d
   396 0001:0000794a   398 0001:00007957   403 0001:00007967   406 0001:0000797c
   408 0001:000079d7   410 0001:000079e4   412 0001:00007a2b   413 0001:00007a41
   415 0001:00007a8f   418 0001:00007a9f   419 0001:00007aeb   420 0001:00007b35
   421 0001:00007b42   424 0001:00007b89   425 0001:00007ba0   427 0001:00007bad
   428 0001:00007bdb   441 0001:00007c3f   443 0001:00007c5c   445 0001:00007c66
   447 0001:00007cb4   451 0001:00007cc1   453 0001:00007d1c   455 0001:00007d20
   457 0001:00007d27   460 0001:00007d36   461 0001:00007d4d   464 0001:00007d9b
   465 0001:00007da7   467 0001:00007dfa   470 0001:00007dfd   473 0001:00007e69
   474 0001:00007eb8   475 0001:00007eec   476 0001:00007f74   477 0001:00007ffc
   479 0001:0000804b   482 0001:000080bb   484 0001:000080cc   487 0001:000080ef
   489 0001:00008145   491 0001:00008197   494 0001:000081e9   496 0001:0000823f
   498 0001:00008254   502 0001:00008262   504 0001:0000827b   507 0001:000082d6
   508 0001:0000832f   510 0001:00008344   512 0001:00008369   514 0001:000083f6
   516 0001:00008473   518 0001:00008475   522 0001:000084f2   523 0001:000084fe
   524 0001:00008557   525 0001:0000856c   526 0001:00008579   527 0001:00008589
   529 0001:000085a2   532 0001:000085fd   533 0001:00008656   534 0001:0000866b
   535 0001:00008690   536 0001:00008692   539 0001:000086e6   540 0001:0000873f
   541 0001:00008754   543 0001:00008761   544 0001:00008771   546 0001:0000878f
   547 0001:0000879c   549 0001:000087a5   551 0001:000087b7   554 0001:000087c9
   557 0001:000087d7   558 0001:00008832   559 0001:00008846   562 0001:0000889b
   564 0001:000088f6   565 0001:0000890a   566 0001:00008963   568 0001:000089da
   571 0001:000089f7   572 0001:00008a04   573 0001:00008a14   574 0001:00008a21
   577 0001:00008a3f   580 0001:00008a4d   581 0001:00008a9f   582 0001:00008ab0
   585 0001:00008b02   587 0001:00008b57   588 0001:00008b6b   589 0001:00008bbb
   591 0001:00008c32   593 0001:00008c4f   594 0001:00008c5c   595 0001:00008c63
   598 0001:00008c7d   603 0001:00008c8b   608 0001:00008c98   610 0001:00008d90
   613 0001:00008e36   614 0001:00008e39   615 0001:00008e42   623 0001:00008e95
   624 0001:00008e9d   625 0001:00008ea5   634 0001:00008ed0   637 0001:00008ee3
   638 0001:00008f3d   641 0001:00008f4c   643 0001:00008f5b   644 0001:00008f75
   654 0001:00008f87   655 0001:00008f96   656 0001:00008f9f   658 0001:00008fa4
   659 0001:00008ff9   661 0001:00008ffd   656 0001:00009000   665 0001:00009009
   675 0001:0000901b   677 0001:0000902d   680 0001:00009033   681 0001:0000903f
   683 0001:00009042   684 0001:00009045   697 0001:00009073   699 0001:00009083
   701 0001:0000908a   702 0001:000090c9   704 0001:000090e3   706 0001:000090e8
   708 0001:00009125   711 0001:000091a7   713 0001:000091a9   714 0001:000091e9
   717 0001:0000921e   720 0001:00009235   721 0001:00009258   722 0001:00009289
   723 0001:000092c3   724 0001:000092fd   725 0001:0000930a   727 0001:0000930c
   728 0001:0000933b   731 0001:0000937e   733 0001:0000938d   738 0001:0000939e
   741 0001:000093d0   743 0001:000093e6   745 0001:000093ec   747 0001:0000943f
   748 0001:00009446   749 0001:0000944d   759 0001:0000945c   760 0001:00009463
   764 0001:0000946d   766 0001:00009486   770 0001:00009488   772 0001:000094ab
   774 0001:000094bc   776 0001:000094c2   779 0001:000094c5   780 0001:000094c9
   781 0001:000094e1   785 0001:000094e4   787 0001:000094ea   791 0001:000094eb
   792 0001:00009500   794 0001:00009515   796 0001:00009529   798 0001:00009537
   800 0001:00009592   802 0001:000095a3   804 0001:000095e1   805 0001:00009650
   807 0001:00009661   809 0001:00009687   811 0001:00009692   813 0001:000096a3
   815 0001:000096b0   821 0001:000096c8   824 0001:000096d9   825 0001:000096e4
   828 0001:000096e8   830 0001:000096f3   832 0001:00009756   834 0001:0000975f
   836 0001:00009773   838 0001:00009781   839 0001:000097ab   841 0001:000097cf
   843 0001:000097d4   844 0001:000097d6   845 0001:000097dd   846 0001:00009834
   847 0001:00009881   849 0001:000098ce   850 0001:000098de   851 0001:00009902
   852 0001:00009904   828 0001:0000992e   857 0001:0000993d   859 0001:000099ac
   860 0001:000099d6   861 0001:00009a00   867 0001:00009a62   868 0001:00009a94
   870 0001:00009a9a   871 0001:00009a9c   873 0001:00009af6

Line numbers for .\Release\AppBar.obj(..\..\..\include\signalConnection.h) segment .text

     7 0001:000063e2     9 0001:00006431    10 0001:00006442    11 0001:00006449
    12 0001:00006451    13 0001:00006459    16 0001:00006461    33 0001:00006579
    34 0001:0000658c    35 0001:000065a5    37 0001:000065f4    43 0001:0000664c
    45 0001:0000665f

Line numbers for .\Release\AdjustMon.obj(C:\Qt\3.2.3\include\qvaluelist.h) segment .text

   233 0001:000027b7   235 0001:000027bc   236 0001:000027c6   431 0001:0000281e
   440 0001:00002858   525 0001:0000285f   431 0001:000028e6   525 0001:00002920
   431 0001:000029a7   525 0001:000029e1   431 0001:00002a68   525 0001:00002aa2
   431 0001:00002b29   525 0001:00002b63   431 0001:00002bea   525 0001:00002c24
   476 0001:00002da4   476 0001:00002dc3   476 0001:00002de2   476 0001:00002e01
   476 0001:00002e20   476 0001:00002e3f   628 0001:00003d9d   629 0001:00003dab
   630 0001:00003dcf   628 0001:00003ee0   629 0001:00003eee   630 0001:00003f12
   628 0001:00003fc5   629 0001:00003fd3   630 0001:00003ff7   628 0001:00004108
   629 0001:00004116   630 0001:0000413a   628 0001:0000424b   629 0001:00004259
   630 0001:0000427d   628 0001:0000435e   629 0001:0000436c   630 0001:00004390
   259 0001:0000439f   260 0001:000043ae   261 0001:000043f5   288 0001:00004408
   289 0001:0000440b   290 0001:00004436   291 0001:0000443d   292 0001:00004443
   293 0001:00004449   295 0001:0000444c   296 0001:00004456   259 0001:00004459
   260 0001:00004468   261 0001:000044af   288 0001:000044c2   289 0001:000044d1
   290 0001:000044fb   291 0001:00004502   292 0001:00004508   293 0001:0000450e
   295 0001:00004511   296 0001:0000451a   259 0001:00004528   260 0001:00004537
   261 0001:0000457e   288 0001:00004591   289 0001:00004594   290 0001:000045c1
   291 0001:000045c8   292 0001:000045ce   293 0001:000045d4   295 0001:000045d7
   296 0001:000045e1   259 0001:000045e4   260 0001:000045f3   261 0001:0000463a
   288 0001:0000464d   289 0001:0000465c   290 0001:00004686   291 0001:0000468d
   292 0001:00004693   293 0001:00004699   295 0001:0000469c   296 0001:000046a5
   259 0001:000046b3   260 0001:000046c2   261 0001:00004709   288 0001:0000471c
   289 0001:0000471f   290 0001:00004756   291 0001:0000475d   292 0001:00004763
   293 0001:00004769   295 0001:0000476c   296 0001:00004778   259 0001:0000477b
   260 0001:0000478a   261 0001:000047d1   288 0001:000047e4   289 0001:000047e7
   290 0001:00004814   291 0001:0000481b   292 0001:00004821   293 0001:00004827
   295 0001:0000482a   296 0001:00004834   276 0001:00004853   277 0001:00004856
   278 0001:00004862   279 0001:00004867   280 0001:0000486a   281 0001:00004877
   283 0001:0000487c   284 0001:0000488a   276 0001:000048a7   277 0001:000048aa
   278 0001:000048b6   279 0001:000048bb   280 0001:000048be   281 0001:000048cb
   283 0001:000048d0   284 0001:000048de   276 0001:000048fb   277 0001:000048fe
   278 0001:0000490a   279 0001:0000490f   280 0001:00004912   281 0001:0000491f
   283 0001:00004924   284 0001:00004932   276 0001:0000494f   277 0001:00004952
   278 0001:0000495e   279 0001:00004963   280 0001:00004966   281 0001:00004973
   283 0001:00004978   284 0001:00004986   276 0001:000049a3   277 0001:000049a6
   278 0001:000049b2   279 0001:000049b7   280 0001:000049ba   281 0001:000049c7
   283 0001:000049cc   284 0001:000049da   276 0001:000049f7   277 0001:000049fa
   278 0001:00004a06   279 0001:00004a0b   280 0001:00004a0e   281 0001:00004a1b
   283 0001:00004a20   284 0001:00004a2e    66 0001:00004a4b    66 0001:00004a76
    66 0001:00004aa1    66 0001:00004acc    66 0001:00004af7    66 0001:00004b22
   266 0001:00005437   267 0001:00005448   268 0001:00005492   270 0001:0000549c
   271 0001:000054a5   272 0001:000054a9   273 0001:000054ce   266 0001:000054e1
   267 0001:000054f2   268 0001:0000553c   270 0001:00005546   271 0001:0000554f
   272 0001:00005553   273 0001:00005578   266 0001:0000558b   267 0001:0000559c
   268 0001:000055e6   270 0001:000055f0   271 0001:000055f9   272 0001:000055fd
   273 0001:00005622   266 0001:00005635   267 0001:00005646   268 0001:00005690
   270 0001:0000569a   271 0001:000056a3   272 0001:000056a7   273 0001:000056cc
   266 0001:000056df   267 0001:000056f0   268 0001:0000573a   270 0001:00005744
   271 0001:0000574d   272 0001:00005751   273 0001:00005776   266 0001:00005789
   267 0001:0000579a   268 0001:000057e4   270 0001:000057ee   271 0001:000057f7
   272 0001:000057fb   273 0001:00005820   105 0001:00005833

Line numbers for .\Release\AdjustMon.obj(C:\Qt\3.2.3\include\qmap.h) segment .text

   621 0001:0000194d   623 0001:0000195b   624 0001:00001976   642 0001:00001987
   644 0001:0000198e   645 0001:000019a3   660 0001:000019a4   661 0001:000019c4
   668 0001:000019e2   669 0001:000019e8   670 0001:000019f0   671 0001:00001a06
   684 0001:00001a0a   685 0001:00001a0d   686 0001:00001a19   687 0001:00001a29
   694 0001:00001a2d   695 0001:00001a33   696 0001:00001a3f   697 0001:00001a55
   708 0001:00001a59   709 0001:00001a6e   710 0001:00001a77   711 0001:00001a8c
   712 0001:00001ab2   713 0001:00001acc   715 0001:00001ade   716 0001:00001af3
   717 0001:00001afb   718 0001:00001b10   719 0001:00001b35   720 0001:00001b4f
   739 0001:00001b61   621 0001:00001b6e   623 0001:00001b7c   624 0001:00001b97
   642 0001:00001ba8   644 0001:00001baf   645 0001:00001bc4   660 0001:00001bc5
   661 0001:00001be5   665 0001:00001c03   668 0001:00001c11   669 0001:00001c17
   670 0001:00001c1f   671 0001:00001c35   684 0001:00001c39   685 0001:00001c3c
   686 0001:00001c48   687 0001:00001c58   694 0001:00001c5c   695 0001:00001c62
   696 0001:00001c6e   697 0001:00001c84   698 0001:00001c88   701 0001:00001c9e
   703 0001:00001cb8   708 0001:00001cda   709 0001:00001cef   710 0001:00001cf8
   711 0001:00001d0d   712 0001:00001d33   713 0001:00001d4d   715 0001:00001d5f
   716 0001:00001d74   717 0001:00001d7c   718 0001:00001d91   719 0001:00001db6
   720 0001:00001dd0   739 0001:00001de2   621 0001:00001def   623 0001:00001dfd
   624 0001:00001e18   642 0001:00001e29   644 0001:00001e30   645 0001:00001e45
   660 0001:00001e46   661 0001:00001e66   668 0001:00001e84   669 0001:00001e8a
   670 0001:00001e92   671 0001:00001ea8   694 0001:00001eac   695 0001:00001eb2
   696 0001:00001ebe   697 0001:00001ed4   701 0001:00001ed8   708 0001:00001ef2
   709 0001:00001f07   710 0001:00001f10   711 0001:00001f25   712 0001:00001f4b
   713 0001:00001f65   715 0001:00001f77   716 0001:00001f8c   717 0001:00001f94
   718 0001:00001fa9   719 0001:00001fce   720 0001:00001fe8   725 0001:00001ffa
   739 0001:0000201d   621 0001:0000202a   623 0001:00002038   624 0001:00002053
   625 0001:00002064   627 0001:00002066   628 0001:00002070   642 0001:00002073
   644 0001:0000207a   645 0001:0000208f   660 0001:00002090   661 0001:000020b0
   668 0001:000020ce   669 0001:000020d4   670 0001:000020dc   671 0001:000020f2
   684 0001:000020f6   685 0001:000020f9   686 0001:00002105   687 0001:00002115
   694 0001:00002119   695 0001:0000211f   696 0001:0000212b   697 0001:00002141
   698 0001:00002145   701 0001:0000215b   703 0001:00002175   708 0001:00002197
   709 0001:000021ac   710 0001:000021b5   711 0001:000021ca   712 0001:000021f0
   713 0001:0000220a   715 0001:0000221c   716 0001:00002231   717 0001:00002239
   718 0001:0000224e   719 0001:00002273   720 0001:0000228d   739 0001:0000229f
   621 0001:000022ac   623 0001:000022ba   624 0001:000022d5   642 0001:000022e6
   644 0001:000022ed   645 0001:00002302   660 0001:00002303   661 0001:00002323
   668 0001:00002341   669 0001:00002347   670 0001:0000234f   671 0001:00002365
   694 0001:00002369   695 0001:0000236f   696 0001:0000237b   697 0001:00002391
   698 0001:00002395   701 0001:000023ab   703 0001:000023c5   706 0001:000023e7
   708 0001:000023ed   709 0001:00002402   710 0001:0000240b   711 0001:00002420
   712 0001:00002446   713 0001:00002460   715 0001:00002472   716 0001:00002487
   717 0001:0000248f   718 0001:000024a4   719 0001:000024c9   720 0001:000024e3
   725 0001:000024f5   739 0001:00002518   621 0001:00002525   623 0001:00002533
   624 0001:0000254e   642 0001:0000255f   644 0001:00002566   645 0001:0000257b
   660 0001:0000257c   661 0001:0000259c   662 0001:000025ba   668 0001:000025ca
   669 0001:000025d0   670 0001:000025d8   671 0001:000025ee   684 0001:000025f2
   685 0001:000025f5   686 0001:00002601   687 0001:00002611   694 0001:00002615
   695 0001:0000261b   696 0001:00002627   697 0001:0000263d   698 0001:00002641
   703 0001:00002657   708 0001:00002679   709 0001:0000268e   710 0001:00002697
   711 0001:000026ac   712 0001:000026d2   713 0001:000026ec   715 0001:000026fe
   716 0001:00002713   717 0001:0000271b   718 0001:00002730   719 0001:00002755
   720 0001:0000276f   722 0001:00002781   739 0001:0000278e   371 0001:000027c7
   384 0001:000027e6   385 0001:000027ea   386 0001:00002802   387 0001:00002816
   388 0001:0000281b   371 0001:0000288f   384 0001:000028ae   385 0001:000028b2
   386 0001:000028ca   387 0001:000028de   388 0001:000028e3   371 0001:00002950
   384 0001:0000296f   385 0001:00002973   386 0001:0000298b   387 0001:0000299f
   388 0001:000029a4   371 0001:00002a11   384 0001:00002a30   385 0001:00002a34
   386 0001:00002a4c   387 0001:00002a60   388 0001:00002a65   371 0001:00002ad2
   384 0001:00002af1   385 0001:00002af5   386 0001:00002b0d   387 0001:00002b21
   388 0001:00002b26   371 0001:00002b93   384 0001:00002bb2   385 0001:00002bb6
   386 0001:00002bce   387 0001:00002be2   388 0001:00002be7   750 0001:00002e80
   752 0001:00002e8d   753 0001:00002e93   754 0001:00002ea7   755 0001:00002eac
   756 0001:00002eb0   819 0001:00002eb3   820 0001:00002ebb   822 0001:00002ec7
   823 0001:00002ed8   824 0001:00002ee5   825 0001:00002ef1   826 0001:00002efb
   760 0001:00002eff   761 0001:00002f08   763 0001:00002f14   765 0001:00002f26
   767 0001:00002f2f   769 0001:00002f3a   770 0001:00002f48   774 0001:00002f4c
   775 0001:00002f53   776 0001:00002f5f   777 0001:00002f6f   778 0001:00002f84
   779 0001:00002f90   783 0001:00002f96   784 0001:00002f9d   785 0001:00002fad
   786 0001:00002fb8   788 0001:00002fba   789 0001:00002fc7   791 0001:00002fcd
   793 0001:00002fd2   794 0001:00002fd5   798 0001:00002fd9   799 0001:00002fe9
   800 0001:00002ff5   801 0001:00003003   802 0001:0000300c   803 0001:00003011
   804 0001:00003043   808 0001:00003052   809 0001:00003060   810 0001:00003067
   811 0001:0000306c   812 0001:0000306e   813 0001:00003070   815 0001:0000308d
   839 0001:0000309a   840 0001:000030a8   841 0001:000030c9   750 0001:000030d8
   752 0001:000030e5   753 0001:000030eb   754 0001:000030ff   755 0001:00003104
   756 0001:00003108   819 0001:0000310b   820 0001:00003113   822 0001:0000311f
   823 0001:00003130   824 0001:0000313d   825 0001:00003160   826 0001:0000316a
   760 0001:0000316e   761 0001:00003177   763 0001:00003183   765 0001:00003195
   767 0001:0000319e   769 0001:000031c3   770 0001:000031d1   783 0001:000031d5
   784 0001:000031dc   785 0001:000031ec   786 0001:000031f7   788 0001:000031f9
   789 0001:00003206   791 0001:0000320c   793 0001:00003211   794 0001:00003214
   798 0001:00003218   799 0001:00003228   800 0001:00003234   801 0001:00003242
   802 0001:0000324b   803 0001:00003250   804 0001:00003282   808 0001:00003291
   809 0001:0000329f   810 0001:000032a6   811 0001:000032ab   812 0001:000032ad
   813 0001:000032af   815 0001:000032cc   830 0001:000032d9   831 0001:000032e0
   832 0001:000032ec   833 0001:000032fc   834 0001:00003311   835 0001:0000331d
   839 0001:00003323   840 0001:00003331   841 0001:00003352   750 0001:00003361
   752 0001:0000336e   753 0001:00003374   754 0001:00003388   755 0001:0000338d
   756 0001:00003391   819 0001:00003394   820 0001:0000339c   822 0001:000033a8
   823 0001:000033b9   824 0001:000033c6   825 0001:000033d8   826 0001:000033e2
   760 0001:000033e6   761 0001:000033ef   763 0001:000033fb   765 0001:0000340d
   767 0001:00003416   769 0001:0000342c   770 0001:0000343a   774 0001:0000343e
   775 0001:00003445   776 0001:00003451   777 0001:00003461   778 0001:00003476
   779 0001:00003482   798 0001:00003488   799 0001:00003498   800 0001:000034a4
   801 0001:000034b2   802 0001:000034bb   803 0001:000034c0   804 0001:000034f2
   808 0001:00003501   809 0001:0000350f   810 0001:00003516   811 0001:0000351b
   812 0001:0000351d   813 0001:0000351f   815 0001:0000353c   839 0001:00003549
   840 0001:00003557   841 0001:00003578   750 0001:00003587   752 0001:00003594
   753 0001:0000359a   754 0001:000035ae   755 0001:000035b3   756 0001:000035b7
   819 0001:000035ba   820 0001:000035c2   822 0001:000035ce   823 0001:000035df
   824 0001:000035ec   825 0001:000035fb   826 0001:00003605   760 0001:00003609
   761 0001:00003612   763 0001:0000361e   765 0001:00003630   767 0001:00003639
   769 0001:00003650   770 0001:0000365e   783 0001:00003662   784 0001:00003669
   785 0001:00003679   786 0001:00003684   788 0001:00003686   789 0001:00003693
   791 0001:00003699   793 0001:0000369e   794 0001:000036a1   798 0001:000036a5
   799 0001:000036b5   800 0001:000036c1   801 0001:000036cf   802 0001:000036d8
   803 0001:000036dd   804 0001:0000370f   808 0001:0000371e   809 0001:0000372c
   810 0001:00003733   811 0001:00003738   812 0001:0000373a   813 0001:0000373c
   815 0001:00003759   830 0001:00003766   831 0001:0000376d   832 0001:00003779
   833 0001:00003789   834 0001:0000379e   835 0001:000037aa   839 0001:000037b0
   840 0001:000037be   841 0001:000037df   750 0001:000037ee   752 0001:000037fb
   753 0001:00003801   754 0001:00003815   755 0001:0000381a   756 0001:0000381e
   819 0001:00003821   820 0001:00003829   822 0001:00003835   823 0001:00003846
   824 0001:00003853   825 0001:00003874   826 0001:0000387e   760 0001:00003882
   761 0001:0000388a   763 0001:00003896   765 0001:000038a9   767 0001:000038b3
   769 0001:000038d8   770 0001:000038e5   783 0001:000038e9   784 0001:000038f0
   785 0001:00003900   786 0001:0000390b   788 0001:0000390d   789 0001:0000391a
   791 0001:00003920   793 0001:00003925   794 0001:00003928   798 0001:0000392c
   799 0001:0000393c   800 0001:00003948   801 0001:00003956   802 0001:0000395f
   803 0001:00003964   804 0001:00003996   808 0001:000039a5   809 0001:000039b3
   810 0001:000039ba   811 0001:000039bf   812 0001:000039c1   813 0001:000039c3
   815 0001:000039e0   830 0001:000039ed   831 0001:000039f4   832 0001:00003a00
   833 0001:00003a10   834 0001:00003a25   835 0001:00003a31   839 0001:00003a37
   840 0001:00003a45   841 0001:00003a66   750 0001:00003a75   752 0001:00003a82
   753 0001:00003a88   754 0001:00003a9c   755 0001:00003aa1   756 0001:00003aa5
   819 0001:00003aa8   820 0001:00003ab0   822 0001:00003abc   823 0001:00003acd
   824 0001:00003ada   825 0001:00003aec   826 0001:00003af6   760 0001:00003afa
   761 0001:00003b03   763 0001:00003b0f   765 0001:00003b21   767 0001:00003b2a
   769 0001:00003b40   770 0001:00003b4e   774 0001:00003b52   775 0001:00003b59
   776 0001:00003b65   777 0001:00003b75   778 0001:00003b8a   779 0001:00003b96
   798 0001:00003b9c   799 0001:00003bac   800 0001:00003bb8   801 0001:00003bc6
   802 0001:00003bcf   803 0001:00003bd4   804 0001:00003c06   808 0001:00003c15
   809 0001:00003c23   810 0001:00003c2a   811 0001:00003c2f   812 0001:00003c31
   813 0001:00003c33   815 0001:00003c50   839 0001:00003c5d   840 0001:00003c6b
   841 0001:00003c8c   431 0001:00003c9b   432 0001:00003caa   433 0001:00003ceb
   434 0001:00003cef   435 0001:00003cf5   436 0001:00003d01   476 0001:00003d10
   477 0001:00003d13   478 0001:00003d1e   479 0001:00003d26   480 0001:00003d2c
   481 0001:00003d3a   482 0001:00003d3e   497 0001:00003d3f   498 0001:00003d44
   499 0001:00003d47   501 0001:00003d4a   503 0001:00003d4e   504 0001:00003d62
   505 0001:00003d64   506 0001:00003d66   507 0001:00003d68   501 0001:00003d6b
   513 0001:00003d6d   515 0001:00003d86   514 0001:00003d8e   516 0001:00003d9a
   431 0001:00003dde   432 0001:00003ded   433 0001:00003e2e   434 0001:00003e32
   435 0001:00003e38   436 0001:00003e44   476 0001:00003e53   477 0001:00003e56
   478 0001:00003e61   479 0001:00003e69   480 0001:00003e6f   481 0001:00003e7d
   482 0001:00003e81   497 0001:00003e82   498 0001:00003e87   499 0001:00003e8a
   501 0001:00003e8d   503 0001:00003e91   504 0001:00003ea5   505 0001:00003ea7
   506 0001:00003ea9   507 0001:00003eab   501 0001:00003eae   513 0001:00003eb0
   515 0001:00003ec9   514 0001:00003ed1   516 0001:00003edd   431 0001:00003f21
   432 0001:00003f30   433 0001:00003f71   434 0001:00003f75   435 0001:00003f7b
   436 0001:00003f87   476 0001:00003f96   477 0001:00003f99   478 0001:00003fa4
   479 0001:00003fac   480 0001:00003fb2   481 0001:00003fc0   482 0001:00003fc4
   431 0001:00004006   432 0001:00004015   433 0001:00004056   434 0001:0000405a
   435 0001:00004060   436 0001:0000406c   476 0001:0000407b   477 0001:0000407e
   478 0001:00004089   479 0001:00004091   480 0001:00004097   481 0001:000040a5
   482 0001:000040a9   497 0001:000040aa   498 0001:000040af   499 0001:000040b2
   501 0001:000040b5   503 0001:000040b9   504 0001:000040cd   505 0001:000040cf
   506 0001:000040d1   507 0001:000040d3   501 0001:000040d6   513 0001:000040d8
   515 0001:000040f1   514 0001:000040f9   516 0001:00004105   431 0001:00004149
   432 0001:00004158   433 0001:00004199   434 0001:0000419d   435 0001:000041a3
   436 0001:000041af   476 0001:000041be   477 0001:000041c1   478 0001:000041cc
   479 0001:000041d4   480 0001:000041da   481 0001:000041e8   482 0001:000041ec
   497 0001:000041ed   498 0001:000041f2   499 0001:000041f5   501 0001:000041f8
   503 0001:000041fc   504 0001:00004210   505 0001:00004212   506 0001:00004214
   507 0001:00004216   501 0001:00004219   513 0001:0000421b   515 0001:00004234
   514 0001:0000423c   516 0001:00004248   431 0001:0000428c   432 0001:0000429b
   433 0001:000042dc   434 0001:000042e0   435 0001:000042e6   436 0001:000042f2
   476 0001:00004301   477 0001:00004304   478 0001:0000430f   479 0001:00004317
   480 0001:0000431d   481 0001:0000432b   482 0001:0000432f   283 0001:00004330
   285 0001:00004332   286 0001:00004339   287 0001:0000433b   289 0001:00004341
   290 0001:00004343   291 0001:00004346   292 0001:0000434b   293 0001:0000434d
   295 0001:00004352   296 0001:00004357   298 0001:00004359   299 0001:0000435b
   300 0001:0000435d   438 0001:00004b31   439 0001:00004b43   440 0001:00004b84
   441 0001:00004b88   442 0001:00004b92   443 0001:00004b99   444 0001:00004ba7
   445 0001:00004ba9   446 0001:00004bb7   447 0001:00004bc0   448 0001:00004bd2
   450 0001:00004be6   486 0001:00004bf9   488 0001:00004c06   489 0001:00004c10
   490 0001:00004c12   491 0001:00004c26   493 0001:00004c2d   520 0001:00004c30
   522 0001:00004c39   524 0001:00004c3c   525 0001:00004c41   526 0001:00004c45
   527 0001:00004c53   528 0001:00004c55   525 0001:00004c61   532 0001:00004c63
   534 0001:00004c6a   535 0001:00004c6f   538 0001:00004c71   542 0001:00004c79
   543 0001:00004c8f   545 0001:00004ca3   546 0001:00004cae   438 0001:00004cb2
   439 0001:00004cc4   440 0001:00004d05   441 0001:00004d09   442 0001:00004d13
   443 0001:00004d1a   444 0001:00004d28   445 0001:00004d2a   446 0001:00004d38
   447 0001:00004d41   448 0001:00004d53   450 0001:00004d67   486 0001:00004d7a
   488 0001:00004d87   489 0001:00004d91   490 0001:00004d93   491 0001:00004da7
   493 0001:00004dae   520 0001:00004db1   522 0001:00004dba   524 0001:00004dbd
   525 0001:00004dc2   526 0001:00004dc6   527 0001:00004dd4   528 0001:00004dd6
   525 0001:00004de2   532 0001:00004de4   534 0001:00004deb   535 0001:00004df0
   538 0001:00004df2   542 0001:00004dfa   543 0001:00004e10   545 0001:00004e24
   546 0001:00004e2f   438 0001:00004e33   439 0001:00004e45   440 0001:00004e86
   441 0001:00004e8a   442 0001:00004e94   443 0001:00004e9b   444 0001:00004ea9
   445 0001:00004eab   446 0001:00004eb9   447 0001:00004ec2   448 0001:00004ed4
   450 0001:00004ee8   486 0001:00004efb   488 0001:00004f08   489 0001:00004f12
   490 0001:00004f14   491 0001:00004f28   493 0001:00004f2f   520 0001:00004f32
   522 0001:00004f3b   524 0001:00004f3e   525 0001:00004f43   526 0001:00004f47
   527 0001:00004f55   528 0001:00004f57   525 0001:00004f63   532 0001:00004f65
   534 0001:00004f6c   535 0001:00004f71   538 0001:00004f73   542 0001:00004f7b
   543 0001:00004f91   545 0001:00004fa5   546 0001:00004fb0   438 0001:00004fb4
   439 0001:00004fc6   440 0001:00005007   441 0001:0000500b   442 0001:00005015
   443 0001:0000501c   444 0001:0000502a   445 0001:0000502c   446 0001:0000503a
   447 0001:00005043   448 0001:00005055   450 0001:00005069   486 0001:0000507c
   488 0001:00005089   489 0001:00005093   490 0001:00005095   491 0001:000050a9
   493 0001:000050b0   520 0001:000050b3   522 0001:000050bc   524 0001:000050bf
   525 0001:000050c4   526 0001:000050c8   527 0001:000050d6   528 0001:000050d8
   525 0001:000050e4   532 0001:000050e6   534 0001:000050ed   535 0001:000050f2
   538 0001:000050f4   542 0001:000050fc   543 0001:00005112   545 0001:00005126
   546 0001:00005131   438 0001:00005135   439 0001:00005147   440 0001:00005188
   441 0001:0000518c   442 0001:00005196   443 0001:0000519d   444 0001:000051ab
   445 0001:000051ad   446 0001:000051bb   447 0001:000051c4   448 0001:000051d6
   450 0001:000051ea   486 0001:000051fd   488 0001:0000520a   489 0001:00005214
   490 0001:00005216   491 0001:0000522a   493 0001:00005231   520 0001:00005234
   522 0001:0000523d   524 0001:00005240   525 0001:00005245   526 0001:00005249
   527 0001:00005257   528 0001:00005259   525 0001:00005265   532 0001:00005267
   534 0001:0000526e   535 0001:00005273   538 0001:00005275   542 0001:0000527d
   543 0001:00005293   545 0001:000052a7   546 0001:000052b2   438 0001:000052b6
   439 0001:000052c8   440 0001:00005309   441 0001:0000530d   442 0001:00005317
   443 0001:0000531e   444 0001:0000532c   445 0001:0000532e   446 0001:0000533c
   447 0001:00005345   448 0001:00005357   450 0001:0000536b   486 0001:0000537e
   488 0001:0000538b   489 0001:00005395   490 0001:00005397   491 0001:000053ab
   493 0001:000053b2   520 0001:000053b5   522 0001:000053be   524 0001:000053c1
   525 0001:000053c6   526 0001:000053ca   527 0001:000053d8   528 0001:000053da
   525 0001:000053e6   532 0001:000053e8   534 0001:000053ef   535 0001:000053f4
   538 0001:000053f6   542 0001:000053fe   543 0001:00005414   545 0001:00005428
   546 0001:00005433   454 0001:00005840   455 0001:0000584c   456 0001:00005856
   457 0001:0000585b   458 0001:0000587c   459 0001:00005886   460 0001:0000588c
   461 0001:00005897   462 0001:0000589a   463 0001:0000589c   465 0001:0000589f
   466 0001:000058a6   467 0001:000058b2   468 0001:000058b5   469 0001:000058b7
   471 0001:000058bb   472 0001:000058be   551 0001:000058cd   552 0001:000058dd
   553 0001:000058fd   561 0001:00005922   562 0001:00005925   563 0001:0000592d
   554 0001:00005932   555 0001:00005934   556 0001:0000593b   557 0001:0000593e
   558 0001:00005941   559 0001:00005947   566 0001:00005949   567 0001:0000594c
   568 0001:00005953   570 0001:00005963   571 0001:00005969   454 0001:0000597c
   455 0001:00005988   456 0001:00005992   457 0001:00005997   458 0001:000059b8
   459 0001:000059c2   460 0001:000059c8   461 0001:000059d3   462 0001:000059d6
   463 0001:000059d8   465 0001:000059db   466 0001:000059e2   467 0001:000059ee
   468 0001:000059f1   469 0001:000059f3   471 0001:000059f7   472 0001:000059fa
   551 0001:00005a09   552 0001:00005a19   553 0001:00005a39   561 0001:00005a5e
   562 0001:00005a61   563 0001:00005a69   554 0001:00005a6e   555 0001:00005a70
   556 0001:00005a77   557 0001:00005a7a   558 0001:00005a7d   559 0001:00005a83
   566 0001:00005a85   567 0001:00005a88   568 0001:00005a8f   570 0001:00005a9f
   571 0001:00005aa5   454 0001:00005ab8   455 0001:00005ac4   456 0001:00005ace
   457 0001:00005ad3   458 0001:00005af4   459 0001:00005afe   460 0001:00005b04
   461 0001:00005b0f   462 0001:00005b12   463 0001:00005b14   465 0001:00005b17
   466 0001:00005b1e   467 0001:00005b2a   468 0001:00005b2d   469 0001:00005b2f
   471 0001:00005b33   472 0001:00005b36   551 0001:00005b45   552 0001:00005b55
   553 0001:00005b75   561 0001:00005b9a   562 0001:00005b9d   563 0001:00005ba5
   554 0001:00005baa   555 0001:00005bac   556 0001:00005bb3   557 0001:00005bb6
   558 0001:00005bb9   559 0001:00005bbf   566 0001:00005bc1   567 0001:00005bc4
   568 0001:00005bcb   570 0001:00005bdb   571 0001:00005be1   188 0001:00005bf4
   191 0001:00005bf6   192 0001:00005c04   206 0001:00005c07   207 0001:00005c09
   208 0001:00005c0b   195 0001:00005c12   196 0001:00005c19   195 0001:00005c1b
   199 0001:00005c1d   200 0001:00005c20   201 0001:00005c24   202 0001:00005c26
   454 0001:00005c2b   455 0001:00005c37   456 0001:00005c41   457 0001:00005c46
   458 0001:00005c67   459 0001:00005c71   460 0001:00005c77   461 0001:00005c82
   462 0001:00005c85   463 0001:00005c87   465 0001:00005c8a   466 0001:00005c91
   467 0001:00005c9d   468 0001:00005ca0   469 0001:00005ca2   471 0001:00005ca6
   472 0001:00005ca9   551 0001:00005cb8   552 0001:00005cc8   553 0001:00005ce8
   561 0001:00005d0d   562 0001:00005d10   563 0001:00005d18   554 0001:00005d1d
   555 0001:00005d1f   556 0001:00005d26   557 0001:00005d29   558 0001:00005d2c
   559 0001:00005d32   566 0001:00005d34   567 0001:00005d37   568 0001:00005d3e
   570 0001:00005d4e   571 0001:00005d54   454 0001:00005d67   455 0001:00005d73
   456 0001:00005d7d   457 0001:00005d82   458 0001:00005da3   459 0001:00005dad
   460 0001:00005db3   461 0001:00005dbe   462 0001:00005dc1   463 0001:00005dc3
   465 0001:00005dc6   466 0001:00005dcd   467 0001:00005dd9   468 0001:00005ddc
   469 0001:00005dde   471 0001:00005de2   472 0001:00005de5   551 0001:00005df4
   552 0001:00005e04   553 0001:00005e24   561 0001:00005e49   562 0001:00005e4c
   563 0001:00005e54   554 0001:00005e59   555 0001:00005e5b   556 0001:00005e62
   557 0001:00005e65   558 0001:00005e68   559 0001:00005e6e   566 0001:00005e70
   567 0001:00005e73   568 0001:00005e7a   570 0001:00005e8a   571 0001:00005e90
   454 0001:00005ea3   455 0001:00005eaf   456 0001:00005eb9   457 0001:00005ebe
   458 0001:00005edf   459 0001:00005ee9   460 0001:00005eef   461 0001:00005efa
   462 0001:00005efd   463 0001:00005eff   465 0001:00005f02   466 0001:00005f09
   467 0001:00005f15   468 0001:00005f18   469 0001:00005f1a   471 0001:00005f1e
   472 0001:00005f21   551 0001:00005f30   552 0001:00005f40   553 0001:00005f60
   561 0001:00005f85   562 0001:00005f88   563 0001:00005f90   554 0001:00005f95
   555 0001:00005f97   556 0001:00005f9e   557 0001:00005fa1   558 0001:00005fa4
   559 0001:00005faa   566 0001:00005fac   567 0001:00005faf   568 0001:00005fb6
   570 0001:00005fc6   571 0001:00005fcc    86 0001:00005fdf    87 0001:0000602a
    86 0001:00006081    87 0001:000060cc    86 0001:00006134    87 0001:0000617f
    86 0001:000061dc    87 0001:00006227    86 0001:00006285    87 0001:000062d0
    86 0001:0000633a    87 0001:00006385

Line numbers for .\Release\AdjustMon.obj(C:\Qt\3.2.3\include\qptrlist.h) segment .text

    70 0001:0000190d    93 0001:00001947   149 0001:00002e5e   151 0001:00002e7d

Line numbers for .\Release\AdjustMon.obj(..\..\..\include\globalsettings.h) segment .text

    20 0001:00000125    21 0001:00000138    22 0001:0000019e

Line numbers for .\Release\AdjustMon.obj(w:\core_svn\Source\windows\bin\panelman\AdjustMon.cpp) segment .text

    14 0001:00000000    16 0001:00000034    20 0001:00000040    38 0001:00000053
    39 0001:00000057    41 0001:00000084    42 0001:000000af    43 0001:00000101
    47 0001:00000105    50 0001:000001cc    51 0001:000001e9    95 0001:00000226
    96 0001:00000240    97 0001:00000249    98 0001:00000256    99 0001:00000263
   101 0001:00000270   102 0001:0000027d   103 0001:0000028a   105 0001:00000297
   108 0001:000002d7   110 0001:00000330   112 0001:0000034c   117 0001:00000353
   120 0001:000003a5   121 0001:000003c1   123 0001:000003cc   125 0001:0000041f
   126 0001:0000043b   129 0001:00000446   131 0001:00000477   136 0001:00000493
   145 0001:00000498   147 0001:000004a6   151 0001:000004b8   153 0001:0000050f
   166 0001:00000514   167 0001:00000572   169 0001:00000583   172 0001:000005ca
   173 0001:00000616   175 0001:00000620   177 0001:00000631   186 0001:0000067e
   189 0001:000006b9   190 0001:000006fc   191 0001:00000754   192 0001:0000076e
   195 0001:00000770   197 0001:000007c7   199 0001:000007d4   202 0001:0000084a
   203 0001:0000085e   204 0001:0000086b   205 0001:00000878   206 0001:00000885
   208 0001:00000892   210 0001:000008a4   211 0001:000008b0   212 0001:000008fe
   213 0001:00000900   215 0001:00000949   217 0001:00000999   220 0001:000009ab
   229 0001:000009c0   232 0001:000009c9   234 0001:000009e5   236 0001:000009fe
   237 0001:00000a08   239 0001:00000a18   253 0001:00000a55   254 0001:00000a64
   256 0001:00000a73   285 0001:00000aaf   287 0001:00000aea   289 0001:00000b33
   290 0001:00000b3f   291 0001:00000b4c   294 0001:00000b59   296 0001:00000b72
   297 0001:00000ba1   299 0001:00000bb1   305 0001:00000bc9   307 0001:00000c3d
   309 0001:00000c4a   311 0001:00000c9b   313 0001:00000cb0   317 0001:00000cbd
   318 0001:00000d00   319 0001:00000d37   320 0001:00000d65   322 0001:00000d6a
   323 0001:00000d9f   327 0001:00000da1   328 0001:00000dad   330 0001:00000dd2
   331 0001:00000dde   332 0001:00000df8   333 0001:00000dfa   334 0001:00000e05
   262 0001:00000e17   263 0001:00000e52   264 0001:00000eb8   265 0001:00000f06
   267 0001:00000f0b   269 0001:00000f18   272 0001:00000f53   273 0001:00000f88
   274 0001:00000f9f   279 0001:00000fbf   282 0001:00000fdf   258 0001:00000fe1
   259 0001:0000101c   339 0001:00001032   342 0001:0000105d   343 0001:0000106f
   344 0001:000010a2   346 0001:000010d4   347 0001:000010e0   350 0001:000010e5
   353 0001:000010f2   354 0001:00001103   356 0001:00001124   357 0001:00001131
   359 0001:00001146   361 0001:0000117f   363 0001:00001288   365 0001:000012bb
   368 0001:000012ff   371 0001:0000146e   373 0001:00001477   374 0001:00001526
   375 0001:0000158b   376 0001:000015a0   379 0001:000015ef   380 0001:0000167d
   381 0001:00001694   383 0001:00001699   387 0001:0000176f   388 0001:0000179d
   389 0001:000017bb   393 0001:000017f3   394 0001:00001801   397 0001:00001833
   400 0001:0000183e   401 0001:00001846   403 0001:00001850   407 0001:0000185f
   409 0001:00001864   412 0001:00001874   413 0001:0000187e   414 0001:00001888
   416 0001:0000188e   417 0001:00001892   419 0001:00001897   420 0001:000018b9
   423 0001:000018c2   426 0001:000018c3   427 0001:000018d1   429 0001:000018d7
   431 0001:000018e9   434 0001:00001904

FIXUPS: 18291 33 6a 1b fffffe8b d ffffffd5 d ffffff4a 45 30 fffffbc7 30
FIXUPS: 17d88 3c f 3c f 3c f 1f 1c d 21 10 10 10 10 10 10 10 10 10 10 10
FIXUPS: 17f92 f 5 20 8a 36b fffffeae 19 fffff464 19f 17 4e 3b f 39 6 7c
FIXUPS: 17a24 a 19 1f 5b 15 21 18 30 f 3c f 3c f 3c f 3c f 3c f 3c f 21
FIXUPS: 16ea6 8 8 2ecb 7 b 2d e f 3a ffffd573 11 25 14 d 2c 13 18 11 11
FIXUPS: 17468 13 35 a 5b 34 23 41 8a 16 a 58 fffff6ee 8 8 8 8 8 8 8 8 11
FIXUPS: 16df6 8 8 8 8 8 8 8 8 8 8 8 8 8 8 8 8 8 8 8 8 8 fffffa8b d 2c 2f
FIXUPS: 169ac c 30 4d 36 51 36 f 34 39 f 4b d 47 d 47 d 58 d 1e f 23 f
FIXUPS: 16d64 e 6 15 8 fffff8da 1d 1d 1d 1d 1d 30 c 14 c 1e 6 d c 1e 6
FIXUPS: 167ca c 1e 6 34 c 2e 2b 2b f f 9 f 9 f 6 fffff8ae a 13 82 36 94
FIXUPS: 1636f 1d 1d 1d 1d 1d 1d 1d 1d 1d 1d 1d 1d 1d 1d 1d 2b 1d 1d 1d
FIXUPS: 165c1 1d 1d 1d 1d 1d fffff3a4 4e 33 32 27 45 43 44 43 43 4b 4a
FIXUPS: 15cfb 43 50 40 40 40 43 4a 4d 43 44 44 44 50 10 32 6b 43 16 1d
FIXUPS: 153e8 7 c 13 8 11 95 d 20 e 12 2a 11 8 8 13 36 39 43 40 40 43 43
FIXUPS: 15762 44 43 44 44 43 4a 76 41 ffff1a16 13abb ffffc27d 5 20 72 26
FIXUPS: 17229 5 20 72 26 fffffc22 25 1f 8 d 5b 7c 1f 8 d 74 8 8 8 ffffe269
FIXUPS: 15366 20 29 5 1b 58e9 c fffec272 d 17 13d72 c fffec30d 13d15 fffec336
FIXUPS: 1ad1e fffec369 13cbb fffec390 13c94 fffec3d4 13c50 fffec3fb 40
FIXUPS: 1adae fffec434 13bf0 fffec45b 13bc9 fffec495 13b8f fffec4bc 47
FIXUPS: 1ae3e fffec502 13b22 fffec529 fffff7e4 140e5 c fffebfd1 18 14 1f
FIXUPS: 6c96 13fd2 c fffec04a d 17 13f9a c fffec0e5 18 14 1f 1a 13ebe c
FIXUPS: 6dfa d 17 13e86 c fffec1f9 18 14 1f 1a fffff950 14 1f 1a 14345
FIXUPS: 1abfc fffebcd7 d 17 1430d c fffebd72 18 14 1f 1a 14231 c fffebdeb
FIXUPS: 6a1c 17 141f9 c fffebe86 18 14 1f 1a 1411d c fffebeff d 1402c fffeb963
FIXUPS: 6502 65 b 1461a c fffeb9f9 1b 65 b 14584 c fffeba8f 1b 65 b 144ee
FIXUPS: 1abc0 fffebb25 1b 65 b 14458 c fffebbbb 1b 65 b 143c2 c fffebc5e
FIXUPS: 1ab18 18 fffeb55f d 6 56 25 1e 1b 5b 14987 18 fffeb6c0 d 6 56 25
FIXUPS: 62bc 1b 5b 14826 18 fffeb821 d 6 56 25 1e 1b 65 b 146b0 fffeafda
FIXUPS: 5bad 14f0b 18 fffeb13c d 6 56 25 1e 1b 5b 14daa 18 fffeb29d d 6
FIXUPS: 5df6 25 1e 1b 5b 14c49 18 fffeb3fe d 6 56 25 1e 1b 5b 14a6c fffeac86
FIXUPS: 5781 19 1530a c fffead3a 51 d 47 d 47 d 47 d 47 d 47 d 47 d 1e
FIXUPS: 5a6b 1e d 1e d 1e d 1e d 20 fffff855 15678 c fffea995 19 1565a
FIXUPS: 1aa24 fffea9ea 51 19 155b4 c fffeaa90 c 1556c c fffeaae2 19 1550d
FIXUPS: 1aa60 fffeab37 53 19 15465 c fffeabdf c 1541d c fffeac31 19 153be
FIXUPS: 4fcb 12 16 15975 c fffea698 16 1595a 18 fffea6f1 89 12 16 15866
FIXUPS: 1a9a8 fffea7a7 16 1584b 18 fffea800 89 12 16 15757 c fffea8b6 16
FIXUPS: 1a9e4 18 fffea90f 59 12 15542 c fffea39f f 16 15c44 c fffea3c9
FIXUPS: 4cb7 15c29 18 fffea422 89 12 16 15b35 c fffea4d8 16 15b1a 18 fffea531
FIXUPS: 4ee6 12 16 15a26 c fffea5e7 16 15a0b 18 fffea640 158dc c fffea174
FIXUPS: 4a0a 10 13 10 f 16 15e2e c fffea1f5 6 21 11 1f 23 12 1c 28 e 10
FIXUPS: 4b92 10 12 e 2c 15cc1 fffea36c 10 b 14 fffffaf5 14 160ed c fffe9f29
FIXUPS: 4783 10 13 10 f 16 16079 c fffe9faa 6 21 11 28 28 13 26 2f 17 21
FIXUPS: 4944 e 2c 15ef5 fffea138 10 b 14 fffffaa4 10 12 e 2c 16321 fffe9d0c
FIXUPS: 4517 b 14 162ce c fffe9d3f f 16 162a4 c fffe9d7f 6 21 11 3f 12
FIXUPS: 4673 17 21 12 e 2c 16140 fffe9eed 10 fffffac9 21 12 e 2c 16555
FIXUPS: 4297 10 b 14 16502 c fffe9b14 e 10 13 10 f 16 1648e c fffe9b95
FIXUPS: 4383 21 11 1f 23 12 1c 28 e 10 fffffa69 3c 12 39 e 10 13 1b 17
FIXUPS: 3fdf 12 e 2c 16758 fffe98d5 10 b 14 16705 c fffe9908 f 16 166db
FIXUPS: 1a7ac fffe9948 6 21 11 53 12 55 fffff9f1 6 13 b 14 16ac5 c fffe9550
FIXUPS: 3c3d b 12 16a9c fffe959c 16a7c fffe95bc 16a5c fffe95dc 16a3c fffe95fc
FIXUPS: 1a756 fffe961c 169fc fffe9642 1f 1f 1f 1f 1f 2c 25 6 21 fffffb2a
FIXUPS: 39fa b 10 e 6 2c 6 13 b 14 16c1f c fffe93f6 d b 10 e 6 2c 6 13
FIXUPS: 3b3a 14 16b72 c fffe94a3 d b 10 e 6 fffffc79 b 14 16e2d c fffe91df
FIXUPS: 386b d b 10 e 6 2c 6 13 b 14 16d79 c fffe929c d b 10 e 6 2c 6 13
FIXUPS: 39b8 14 16ccc c fffe8ecb 6 12 20 2d 12 17 10 16 e 1b 1c 17 45 24
FIXUPS: 1a63b fffe90c9 13 28 8 24 16ed9 16 b fffe9131 9 d 1f e 6 2c 6 16d93
FIXUPS: 32f6 6 12 20 1d 12 1a e 1b 18 1e 1d 45 24 17173 fffe8ea9 13 28
FIXUPS: 34bb 24 170f9 16 b fffe8f07 10 10 b b 14 170ba c ffffff1c c fffe8b4b
FIXUPS: 3089 12 20 1d 12 17 10 16 e 1b 18 1e 17 45 24 1735d fffe8cbf 13
FIXUPS: 325d 8 24 172e3 16 b fffe8d1a b b 14 172c7 fffe885d b 14 176ac
FIXUPS: 1a4cc fffe896d 6 12 20 1d 12 1a e 1d 13 45 24 17596 fffe8a86 13
FIXUPS: 2fb8 8 24 1751c 16 b fffe8ae4 10 10 b b 14 fffffb1a b b 14 178c1
FIXUPS: 1a460 fffe8758 6 12 20 2b 12 17 10 16 e 1b 18 1e 17 45 24 17742
FIXUPS: 2d65 13 28 8 24 176c8 16 b fffe8935 fffffacb 14 17b02 fffe8548
FIXUPS: 1a3df fffe8574 b 14 17a76 c fffe85a3 6 12 20 1d 12 17 10 16 e 16
FIXUPS: 2aa4 24 17957 fffe86c5 13 28 8 24 178dd 16 b fffe7407 1883b fffe7926
FIXUPS: 1a44 1c 79 3c 1e7 2a 6e 3a 26 d 40 66 47 54 27 31 21 20 30 23 1817f
FIXUPS: 2063 24d 3af 17d44 fffe8456 b 17ba8 c fffe6c4e 15 41 18ddc b 2e
FIXUPS: 112b 18d7d fffe730c d 11 42 18c9c 13 fffe7369 11c 7 6e b 6f b 4d
FIXUPS: 14f1 190 77 3e 73 33 c c 187e0 42 ffff027e 2b f 2b 3e 2f 1163a
FIXUPS: a393 af 7 11573 fffeeaeb 11 25 14 42 150 48a 10ec6 ee fffef075
FIXUPS: 1bad7 fffef0aa 10f6a fffef0ce d f d 34 6 d 8 ffffdc21 11c 22e 1288c
FIXUPS: 8bf5 12846 fffed80a 24 ba 26 151 41 69 88 61 c6e 84 17a 8 115ac
FIXUPS: 1b84d 7e fffee60b 11a24 fffee693 1198b fffee709 a4 5c 68 5c 35
FIXUPS: 7c68 134a3 c fffecbb0 62 1a a7 50 d7 133 1c 1310b d 52 fffeced7
FIXUPS: 80b2 44 130e9 fffecf3d 55 20 51 1a8 6f 2b 5b 26b 6c 8b 56 129b1
FIXUPS: 1b33e fffec2ea d b 51 11 138be 6e 19 fffec7b8 8 d 11 c2 13769 6e
FIXUPS: 1b071 fffec82e 14 f 48 32 13766 fffec911 6b 4a af 57 13550 27 fffecabd
FIXUPS: 7bca d 143a1 4b ffff03c5 fc44 a ffff0417 84 3f fb5f ffff04d4 3a
FIXUPS: 1c023 ffff051e faf6 ffff0548 d ffffe6af 10f24 fffef1c4 d 11 10e59
FIXUPS: 73e8 13ae3 fffec5af 13a89 fffec61b 13a1d fffec670 13999 13 fffec6c6
FIXUPS: ba94 5f 3b 2e 2e 2e 2e 39 29 1e 21 c f 5c 16d c 21 33 21 df 15
FIXUPS: c158 54 33 21 7 c 21 19 f1 19 22 100a2 ffff16dc d f ffffd296 aa
FIXUPS: 1bbb0 4f fffef298 8 d 11 10d57 43 fffef302 63 69 10c3b 25 fffef3ef
FIXUPS: b0a4 4f4 4f 2a 2f 161 3c 3b 2e 2e 187 66 128c 10b 10b 34 5d 20
FIXUPS: cffc 94 a8 a0 f ef1b 166 b 9a ffff11b3 55 e 10 2ed 23 14 38 eb3f
FIXUPS: d8b5 86 3b ea62 1c ffff15e5 ea2e ffff16a0 e9fa ffff1b3f 11 1c e4c2
FIXUPS: e078 20 11 e443 ffff1631 11 14 5a 42 17 9 e826 1e ffff17d5 d ffffe979
FIXUPS: c6eb f964 43 ffff0681 d 11 f97a 3a ffff06f8 26 3e6 1719 26 e207
FIXUPS: e3c6 e a a fffff865 e816 ffff1839 8 d 11 71 e742 c ffff190b 1b
FIXUPS: ddee 49 19 6 11 1a e 18 a 5d 5d e 1c e500 ffff230a 74 dd95 ffff1faa
FIXUPS: e557 15 12 5 15 56 16 fffffdee 38 3c 75 e069 13 ffff1f99 8 d 48
FIXUPS: e126 4f e393 ffff1ca0 d 11 e355 ffff1d4e 1e 21 41 b8d f 69 10 8
FIXUPS: ef0e 1d 8 36 21 3c 1d 1d 8f 1d 72 1c d5b5 b 6d ffff211a d 18 18d
FIXUPS: 1c624 ffff1ff7 df50 ffff20f3 d 11 df0f ffff217c 2339 c0ed ffff42a1
FIXUPS: 10ddf 18 2c bd18 a ffff430e 8 8 ffffe3c5 22 1e 1a 4e 969 c ffffee12
FIXUPS: ea5c 15 12 5 15 12 5 15 17 16 292 39 5c da0a a a 13 a a a 1c a
FIXUPS: 1c89c c ffff39e8 8 d 1d 1d 11 c643 ffff3b42 a c4c8 ffff3b73 6e
FIXUPS: 105c3 12e d9 17 b8 d8 2a c086 ffff3fe9 fffff44f 15 4a 3f 68 14
FIXUPS: ff9b 57 9 e 17 14 28 d 1e 28 8 23 16 17 4e 14 5b 10 14 1b 14 1b
FIXUPS: 10246 32 c594 8 ffff69eb 8 8 b ffffdc78 8 d 24 1c 11c 6f 59 2c
FIXUPS: 1cb5c 52 ffff45a0 ba7e ffff45f9 ba3e ffff467c b9c5 ffff472b f1
FIXUPS: 1148b b81a ffff4827 ffffe7a5 5 15 28 173 20 2830 10 a914 ffff5793
FIXUPS: 12764 44 66 14d a658 3a ffff5999 15 4f 39 f6 c6 a419 a a 28 1c
FIXUPS: 1d05c ffff5bfd 1d 1d 11 a5 a336 c ffff5d23 41 a38e ffff4afd e 9
FIXUPS: 11cf3 7 b002 a a a 91 a a a c ffff4f8f 30 1b b03c ffff4fdd 29 2b
FIXUPS: 11e67 75 4fc cc 116 a849 151 ffff5691 4a 14 21 c08 a 9f26 ffff614f
FIXUPS: 114d6 b7e5 ffff486d 8 d 11 b781 ffff48c3 b8 2c e b 7 54 21 4e 21
FIXUPS: 117c8 21 205 22 10 128 52 b 1b 94 1b 1758 9c 9db9 6d ffff61f1 3b
FIXUPS: 13505 4a 4d 24 7 9d15 c ffff6346 9ce8 ffff63ce 86 82 85 88 9a95
FIXUPS: 13953 48 9a11 ffff6609 45 99ce ffff664a fffff814 18 8 d b14 20
FIXUPS: 13da9 ad 18 10 24 9 9 1b 9 fffffb44 3c 3c e3 9865 1f ffff6794 8
FIXUPS: 13ba4 24 9853 ffff685d 97c3 ffff691c fffff59e f 9ea0 6d ffff6190
FIXUPS: 133a9 d 1027 20 a3 26 fffffe0e 5 20 77 26 28 9 fffffd81 5 20 cc
FIXUPS: 14262 2b f fffffd77 5 20 9f 26 29 fffffdd4 5 20 77 26 28 9 fffffd75
FIXUPS: 148ed 5 20 72 fffffe32 5 20 1e 84 18 d 1e 9 fffffda1 5 20 1e 84
FIXUPS: 14749 d 18 26 14 fffffd5b 5 20 a1 26 2b 10 9 fffffda5

 3156 bytes saved through ICF


 Exports

  ordinal    name

        1    ??0?$QMap@VQString@@VcomplexInstance@@@@QAE@ABV0@@Z (public: __thiscall QMap<class QString,class complexInstance>::QMap<class QString,class complexInstance>(class QMap<class QString,class complexInstance> const &))
        2    ??0?$QMap@VQString@@VcomplexInstance@@@@QAE@XZ (public: __thiscall QMap<class QString,class complexInstance>::QMap<class QString,class complexInstance>(void))
        3    ??0?$QMap@VQString@@VcomplexParam@@@@QAE@ABV0@@Z (public: __thiscall QMap<class QString,class complexParam>::QMap<class QString,class complexParam>(class QMap<class QString,class complexParam> const &))
        4    ??0?$QMap@VQString@@VcomplexParam@@@@QAE@XZ (public: __thiscall QMap<class QString,class complexParam>::QMap<class QString,class complexParam>(void))
        5    ??0?$QMap@VQString@@VcomplexType@@@@QAE@ABV0@@Z (public: __thiscall QMap<class QString,class complexType>::QMap<class QString,class complexType>(class QMap<class QString,class complexType> const &))
        6    ??0?$QMap@VQString@@VcomplexType@@@@QAE@XZ (public: __thiscall QMap<class QString,class complexType>::QMap<class QString,class complexType>(void))
        7    ??0?$QMap@VQString@@VdeviceTypeInfo@@@@QAE@ABV0@@Z (public: __thiscall QMap<class QString,class deviceTypeInfo>::QMap<class QString,class deviceTypeInfo>(class QMap<class QString,class deviceTypeInfo> const &))
        8    ??0?$QMap@VQString@@VdeviceTypeInfo@@@@QAE@XZ (public: __thiscall QMap<class QString,class deviceTypeInfo>::QMap<class QString,class deviceTypeInfo>(void))
        9    ??0?$QMap@VQString@@VinstanceInfo@@@@QAE@ABV0@@Z (public: __thiscall QMap<class QString,class instanceInfo>::QMap<class QString,class instanceInfo>(class QMap<class QString,class instanceInfo> const &))
       10    ??0?$QMap@VQString@@VinstanceInfo@@@@QAE@XZ (public: __thiscall QMap<class QString,class instanceInfo>::QMap<class QString,class instanceInfo>(void))
       11    ??0?$QMap@VQString@@VparamInfo@@@@QAE@ABV0@@Z (public: __thiscall QMap<class QString,class paramInfo>::QMap<class QString,class paramInfo>(class QMap<class QString,class paramInfo> const &))
       12    ??0?$QMap@VQString@@VparamInfo@@@@QAE@XZ (public: __thiscall QMap<class QString,class paramInfo>::QMap<class QString,class paramInfo>(void))
       13    ??0signalConnection@@QAE@ABV0@@Z (public: __thiscall signalConnection::signalConnection(class signalConnection const &))
       14    ??0signalConnection@@QAE@ABVQString@@0000@Z (public: __thiscall signalConnection::signalConnection(class QString const &,class QString const &,class QString const &,class QString const &,class QString const &))
       15    ??0signalConnectionRefList@@QAE@ABV0@@Z (public: __thiscall signalConnectionRefList::signalConnectionRefList(class signalConnectionRefList const &))
       16    ??0signalConnectionRefList@@QAE@XZ (public: __thiscall signalConnectionRefList::signalConnectionRefList(void))
       17    ??0signalConnectionRefListIt@@QAE@ABV0@@Z (public: __thiscall signalConnectionRefListIt::signalConnectionRefListIt(class signalConnectionRefListIt const &))
       18    ??0signalConnectionRefListIt@@QAE@ABVsignalConnectionRefList@@@Z (public: __thiscall signalConnectionRefListIt::signalConnectionRefListIt(class signalConnectionRefList const &))
       19    ??1?$QMap@VQString@@VcomplexInstance@@@@QAE@XZ (public: __thiscall QMap<class QString,class complexInstance>::~QMap<class QString,class complexInstance>(void))
       20    ??1?$QMap@VQString@@VcomplexParam@@@@QAE@XZ (public: __thiscall QMap<class QString,class complexParam>::~QMap<class QString,class complexParam>(void))
       21    ??1?$QMap@VQString@@VcomplexType@@@@QAE@XZ (public: __thiscall QMap<class QString,class complexType>::~QMap<class QString,class complexType>(void))
       22    ??1?$QMap@VQString@@VdeviceTypeInfo@@@@QAE@XZ (public: __thiscall QMap<class QString,class deviceTypeInfo>::~QMap<class QString,class deviceTypeInfo>(void))
       23    ??1?$QMap@VQString@@VinstanceInfo@@@@QAE@XZ (public: __thiscall QMap<class QString,class instanceInfo>::~QMap<class QString,class instanceInfo>(void))
       24    ??1?$QMap@VQString@@VparamInfo@@@@QAE@XZ (public: __thiscall QMap<class QString,class paramInfo>::~QMap<class QString,class paramInfo>(void))
       25    ??1signalConnection@@QAE@XZ (public: __thiscall signalConnection::~signalConnection(void))
       26    ??1signalConnectionRefList@@UAE@XZ (public: virtual __thiscall signalConnectionRefList::~signalConnectionRefList(void))
       27    ??1signalConnectionRefListIt@@QAE@XZ (public: __thiscall signalConnectionRefListIt::~signalConnectionRefListIt(void))
       28    ??4?$QMap@VQString@@VcomplexInstance@@@@QAEAAV0@ABV0@@Z (public: class QMap<class QString,class complexInstance> & __thiscall QMap<class QString,class complexInstance>::operator=(class QMap<class QString,class complexInstance> const &))
       29    ??4?$QMap@VQString@@VcomplexParam@@@@QAEAAV0@ABV0@@Z (public: class QMap<class QString,class complexParam> & __thiscall QMap<class QString,class complexParam>::operator=(class QMap<class QString,class complexParam> const &))
       30    ??4?$QMap@VQString@@VcomplexType@@@@QAEAAV0@ABV0@@Z (public: class QMap<class QString,class complexType> & __thiscall QMap<class QString,class complexType>::operator=(class QMap<class QString,class complexType> const &))
       31    ??4?$QMap@VQString@@VdeviceTypeInfo@@@@QAEAAV0@ABV0@@Z (public: class QMap<class QString,class deviceTypeInfo> & __thiscall QMap<class QString,class deviceTypeInfo>::operator=(class QMap<class QString,class deviceTypeInfo> const &))
       32    ??4?$QMap@VQString@@VinstanceInfo@@@@QAEAAV0@ABV0@@Z (public: class QMap<class QString,class instanceInfo> & __thiscall QMap<class QString,class instanceInfo>::operator=(class QMap<class QString,class instanceInfo> const &))
       33    ??4?$QMap@VQString@@VparamInfo@@@@QAEAAV0@ABV0@@Z (public: class QMap<class QString,class paramInfo> & __thiscall QMap<class QString,class paramInfo>::operator=(class QMap<class QString,class paramInfo> const &))
       34    ??4signalConnection@@QAEAAV0@ABV0@@Z (public: class signalConnection & __thiscall signalConnection::operator=(class signalConnection const &))
       35    ??4signalConnectionRefList@@QAEAAV0@ABV0@@Z (public: class signalConnectionRefList & __thiscall signalConnectionRefList::operator=(class signalConnectionRefList const &))
       36    ??4signalConnectionRefListIt@@QAEAAV0@ABV0@@Z (public: class signalConnectionRefListIt & __thiscall signalConnectionRefListIt::operator=(class signalConnectionRefListIt const &))
       37    ??A?$QMap@VQString@@VcomplexInstance@@@@QAEAAVcomplexInstance@@ABVQString@@@Z (public: class complexInstance & __thiscall QMap<class QString,class complexInstance>::operator[](class QString const &))
       38    ??A?$QMap@VQString@@VcomplexInstance@@@@QBEABVcomplexInstance@@ABVQString@@@Z (public: class complexInstance const & __thiscall QMap<class QString,class complexInstance>::operator[](class QString const &)const )
       39    ??A?$QMap@VQString@@VcomplexParam@@@@QAEAAVcomplexParam@@ABVQString@@@Z (public: class complexParam & __thiscall QMap<class QString,class complexParam>::operator[](class QString const &))
       40    ??A?$QMap@VQString@@VcomplexParam@@@@QBEABVcomplexParam@@ABVQString@@@Z (public: class complexParam const & __thiscall QMap<class QString,class complexParam>::operator[](class QString const &)const )
       41    ??A?$QMap@VQString@@VcomplexType@@@@QAEAAVcomplexType@@ABVQString@@@Z (public: class complexType & __thiscall QMap<class QString,class complexType>::operator[](class QString const &))
       42    ??A?$QMap@VQString@@VcomplexType@@@@QBEABVcomplexType@@ABVQString@@@Z (public: class complexType const & __thiscall QMap<class QString,class complexType>::operator[](class QString const &)const )
       43    ??A?$QMap@VQString@@VdeviceTypeInfo@@@@QAEAAVdeviceTypeInfo@@ABVQString@@@Z (public: class deviceTypeInfo & __thiscall QMap<class QString,class deviceTypeInfo>::operator[](class QString const &))
       44    ??A?$QMap@VQString@@VdeviceTypeInfo@@@@QBEABVdeviceTypeInfo@@ABVQString@@@Z (public: class deviceTypeInfo const & __thiscall QMap<class QString,class deviceTypeInfo>::operator[](class QString const &)const )
       45    ??A?$QMap@VQString@@VinstanceInfo@@@@QAEAAVinstanceInfo@@ABVQString@@@Z (public: class instanceInfo & __thiscall QMap<class QString,class instanceInfo>::operator[](class QString const &))
       46    ??A?$QMap@VQString@@VinstanceInfo@@@@QBEABVinstanceInfo@@ABVQString@@@Z (public: class instanceInfo const & __thiscall QMap<class QString,class instanceInfo>::operator[](class QString const &)const )
       47    ??A?$QMap@VQString@@VparamInfo@@@@QAEAAVparamInfo@@ABVQString@@@Z (public: class paramInfo & __thiscall QMap<class QString,class paramInfo>::operator[](class QString const &))
       48    ??A?$QMap@VQString@@VparamInfo@@@@QBEABVparamInfo@@ABVQString@@@Z (public: class paramInfo const & __thiscall QMap<class QString,class paramInfo>::operator[](class QString const &)const )
       49    ??_7signalConnectionRefList@@6B@ (const signalConnectionRefList::`vftable')
       50    ?begin@?$QMap@VQString@@VcomplexInstance@@@@QAE?AV?$QMapIterator@VQString@@VcomplexInstance@@@@XZ (public: class QMapIterator<class QString,class complexInstance> __thiscall QMap<class QString,class complexInstance>::begin(void))
       51    ?begin@?$QMap@VQString@@VcomplexInstance@@@@QBE?AV?$QMapConstIterator@VQString@@VcomplexInstance@@@@XZ (public: class QMapConstIterator<class QString,class complexInstance> __thiscall QMap<class QString,class complexInstance>::begin(void)const )
       52    ?begin@?$QMap@VQString@@VcomplexParam@@@@QAE?AV?$QMapIterator@VQString@@VcomplexParam@@@@XZ (public: class QMapIterator<class QString,class complexParam> __thiscall QMap<class QString,class complexParam>::begin(void))
       53    ?begin@?$QMap@VQString@@VcomplexParam@@@@QBE?AV?$QMapConstIterator@VQString@@VcomplexParam@@@@XZ (public: class QMapConstIterator<class QString,class complexParam> __thiscall QMap<class QString,class complexParam>::begin(void)const )
       54    ?begin@?$QMap@VQString@@VcomplexType@@@@QAE?AV?$QMapIterator@VQString@@VcomplexType@@@@XZ (public: class QMapIterator<class QString,class complexType> __thiscall QMap<class QString,class complexType>::begin(void))
       55    ?begin@?$QMap@VQString@@VcomplexType@@@@QBE?AV?$QMapConstIterator@VQString@@VcomplexType@@@@XZ (public: class QMapConstIterator<class QString,class complexType> __thiscall QMap<class QString,class complexType>::begin(void)const )
       56    ?begin@?$QMap@VQString@@VdeviceTypeInfo@@@@QAE?AV?$QMapIterator@VQString@@VdeviceTypeInfo@@@@XZ (public: class QMapIterator<class QString,class deviceTypeInfo> __thiscall QMap<class QString,class deviceTypeInfo>::begin(void))
       57    ?begin@?$QMap@VQString@@VdeviceTypeInfo@@@@QBE?AV?$QMapConstIterator@VQString@@VdeviceTypeInfo@@@@XZ (public: class QMapConstIterator<class QString,class deviceTypeInfo> __thiscall QMap<class QString,class deviceTypeInfo>::begin(void)const )
       58    ?begin@?$QMap@VQString@@VinstanceInfo@@@@QAE?AV?$QMapIterator@VQString@@VinstanceInfo@@@@XZ (public: class QMapIterator<class QString,class instanceInfo> __thiscall QMap<class QString,class instanceInfo>::begin(void))
       59    ?begin@?$QMap@VQString@@VinstanceInfo@@@@QBE?AV?$QMapConstIterator@VQString@@VinstanceInfo@@@@XZ (public: class QMapConstIterator<class QString,class instanceInfo> __thiscall QMap<class QString,class instanceInfo>::begin(void)const )
       60    ?begin@?$QMap@VQString@@VparamInfo@@@@QAE?AV?$QMapIterator@VQString@@VparamInfo@@@@XZ (public: class QMapIterator<class QString,class paramInfo> __thiscall QMap<class QString,class paramInfo>::begin(void))
       61    ?begin@?$QMap@VQString@@VparamInfo@@@@QBE?AV?$QMapConstIterator@VQString@@VparamInfo@@@@XZ (public: class QMapConstIterator<class QString,class paramInfo> __thiscall QMap<class QString,class paramInfo>::begin(void)const )
       62    ?clear@?$QMap@VQString@@VcomplexInstance@@@@QAEXXZ (public: void __thiscall QMap<class QString,class complexInstance>::clear(void))
       63    ?clear@?$QMap@VQString@@VcomplexParam@@@@QAEXXZ (public: void __thiscall QMap<class QString,class complexParam>::clear(void))
       64    ?clear@?$QMap@VQString@@VcomplexType@@@@QAEXXZ (public: void __thiscall QMap<class QString,class complexType>::clear(void))
       65    ?clear@?$QMap@VQString@@VdeviceTypeInfo@@@@QAEXXZ (public: void __thiscall QMap<class QString,class deviceTypeInfo>::clear(void))
       66    ?clear@?$QMap@VQString@@VinstanceInfo@@@@QAEXXZ (public: void __thiscall QMap<class QString,class instanceInfo>::clear(void))
       67    ?clear@?$QMap@VQString@@VparamInfo@@@@QAEXXZ (public: void __thiscall QMap<class QString,class paramInfo>::clear(void))
       68    ?constBegin@?$QMap@VQString@@VcomplexInstance@@@@QBE?AV?$QMapConstIterator@VQString@@VcomplexInstance@@@@XZ (public: class QMapConstIterator<class QString,class complexInstance> __thiscall QMap<class QString,class complexInstance>::constBegin(void)const )
       69    ?constBegin@?$QMap@VQString@@VcomplexParam@@@@QBE?AV?$QMapConstIterator@VQString@@VcomplexParam@@@@XZ (public: class QMapConstIterator<class QString,class complexParam> __thiscall QMap<class QString,class complexParam>::constBegin(void)const )
       70    ?constBegin@?$QMap@VQString@@VcomplexType@@@@QBE?AV?$QMapConstIterator@VQString@@VcomplexType@@@@XZ (public: class QMapConstIterator<class QString,class complexType> __thiscall QMap<class QString,class complexType>::constBegin(void)const )
       71    ?constBegin@?$QMap@VQString@@VdeviceTypeInfo@@@@QBE?AV?$QMapConstIterator@VQString@@VdeviceTypeInfo@@@@XZ (public: class QMapConstIterator<class QString,class deviceTypeInfo> __thiscall QMap<class QString,class deviceTypeInfo>::constBegin(void)const )
       72    ?constBegin@?$QMap@VQString@@VinstanceInfo@@@@QBE?AV?$QMapConstIterator@VQString@@VinstanceInfo@@@@XZ (public: class QMapConstIterator<class QString,class instanceInfo> __thiscall QMap<class QString,class instanceInfo>::constBegin(void)const )
       73    ?constBegin@?$QMap@VQString@@VparamInfo@@@@QBE?AV?$QMapConstIterator@VQString@@VparamInfo@@@@XZ (public: class QMapConstIterator<class QString,class paramInfo> __thiscall QMap<class QString,class paramInfo>::constBegin(void)const )
       74    ?constEnd@?$QMap@VQString@@VcomplexInstance@@@@QBE?AV?$QMapConstIterator@VQString@@VcomplexInstance@@@@XZ (public: class QMapConstIterator<class QString,class complexInstance> __thiscall QMap<class QString,class complexInstance>::constEnd(void)const )
       75    ?constEnd@?$QMap@VQString@@VcomplexParam@@@@QBE?AV?$QMapConstIterator@VQString@@VcomplexParam@@@@XZ (public: class QMapConstIterator<class QString,class complexParam> __thiscall QMap<class QString,class complexParam>::constEnd(void)const )
       76    ?constEnd@?$QMap@VQString@@VcomplexType@@@@QBE?AV?$QMapConstIterator@VQString@@VcomplexType@@@@XZ (public: class QMapConstIterator<class QString,class complexType> __thiscall QMap<class QString,class complexType>::constEnd(void)const )
       77    ?constEnd@?$QMap@VQString@@VdeviceTypeInfo@@@@QBE?AV?$QMapConstIterator@VQString@@VdeviceTypeInfo@@@@XZ (public: class QMapConstIterator<class QString,class deviceTypeInfo> __thiscall QMap<class QString,class deviceTypeInfo>::constEnd(void)const )
       78    ?constEnd@?$QMap@VQString@@VinstanceInfo@@@@QBE?AV?$QMapConstIterator@VQString@@VinstanceInfo@@@@XZ (public: class QMapConstIterator<class QString,class instanceInfo> __thiscall QMap<class QString,class instanceInfo>::constEnd(void)const )
       79    ?constEnd@?$QMap@VQString@@VparamInfo@@@@QBE?AV?$QMapConstIterator@VQString@@VparamInfo@@@@XZ (public: class QMapConstIterator<class QString,class paramInfo> __thiscall QMap<class QString,class paramInfo>::constEnd(void)const )
       80    ?contains@?$QMap@VQString@@VcomplexInstance@@@@QBE_NABVQString@@@Z (public: bool __thiscall QMap<class QString,class complexInstance>::contains(class QString const &)const )
       81    ?contains@?$QMap@VQString@@VcomplexParam@@@@QBE_NABVQString@@@Z (public: bool __thiscall QMap<class QString,class complexParam>::contains(class QString const &)const )
       82    ?contains@?$QMap@VQString@@VcomplexType@@@@QBE_NABVQString@@@Z (public: bool __thiscall QMap<class QString,class complexType>::contains(class QString const &)const )
       83    ?contains@?$QMap@VQString@@VdeviceTypeInfo@@@@QBE_NABVQString@@@Z (public: bool __thiscall QMap<class QString,class deviceTypeInfo>::contains(class QString const &)const )
       84    ?contains@?$QMap@VQString@@VinstanceInfo@@@@QBE_NABVQString@@@Z (public: bool __thiscall QMap<class QString,class instanceInfo>::contains(class QString const &)const )
       85    ?contains@?$QMap@VQString@@VparamInfo@@@@QBE_NABVQString@@@Z (public: bool __thiscall QMap<class QString,class paramInfo>::contains(class QString const &)const )
       86    ?count@?$QMap@VQString@@VcomplexInstance@@@@QBEIABVQString@@@Z (public: unsigned int __thiscall QMap<class QString,class complexInstance>::count(class QString const &)const )
       87    ?count@?$QMap@VQString@@VcomplexInstance@@@@QBEIXZ (public: unsigned int __thiscall QMap<class QString,class complexInstance>::count(void)const )
       88    ?count@?$QMap@VQString@@VcomplexParam@@@@QBEIABVQString@@@Z (public: unsigned int __thiscall QMap<class QString,class complexParam>::count(class QString const &)const )
       89    ?count@?$QMap@VQString@@VcomplexParam@@@@QBEIXZ (public: unsigned int __thiscall QMap<class QString,class complexParam>::count(void)const )
       90    ?count@?$QMap@VQString@@VcomplexType@@@@QBEIABVQString@@@Z (public: unsigned int __thiscall QMap<class QString,class complexType>::count(class QString const &)const )
       91    ?count@?$QMap@VQString@@VcomplexType@@@@QBEIXZ (public: unsigned int __thiscall QMap<class QString,class complexType>::count(void)const )
       92    ?count@?$QMap@VQString@@VdeviceTypeInfo@@@@QBEIABVQString@@@Z (public: unsigned int __thiscall QMap<class QString,class deviceTypeInfo>::count(class QString const &)const )
       93    ?count@?$QMap@VQString@@VdeviceTypeInfo@@@@QBEIXZ (public: unsigned int __thiscall QMap<class QString,class deviceTypeInfo>::count(void)const )
       94    ?count@?$QMap@VQString@@VinstanceInfo@@@@QBEIABVQString@@@Z (public: unsigned int __thiscall QMap<class QString,class instanceInfo>::count(class QString const &)const )
       95    ?count@?$QMap@VQString@@VinstanceInfo@@@@QBEIXZ (public: unsigned int __thiscall QMap<class QString,class instanceInfo>::count(void)const )
       96    ?count@?$QMap@VQString@@VparamInfo@@@@QBEIABVQString@@@Z (public: unsigned int __thiscall QMap<class QString,class paramInfo>::count(class QString const &)const )
       97    ?count@?$QMap@VQString@@VparamInfo@@@@QBEIXZ (public: unsigned int __thiscall QMap<class QString,class paramInfo>::count(void)const )
       98    ?detach@?$QMap@VQString@@VcomplexInstance@@@@IAEXXZ (protected: void __thiscall QMap<class QString,class complexInstance>::detach(void))
       99    ?detach@?$QMap@VQString@@VcomplexParam@@@@IAEXXZ (protected: void __thiscall QMap<class QString,class complexParam>::detach(void))
      100    ?detach@?$QMap@VQString@@VcomplexType@@@@IAEXXZ (protected: void __thiscall QMap<class QString,class complexType>::detach(void))
      101    ?detach@?$QMap@VQString@@VdeviceTypeInfo@@@@IAEXXZ (protected: void __thiscall QMap<class QString,class deviceTypeInfo>::detach(void))
      102    ?detach@?$QMap@VQString@@VinstanceInfo@@@@IAEXXZ (protected: void __thiscall QMap<class QString,class instanceInfo>::detach(void))
      103    ?detach@?$QMap@VQString@@VparamInfo@@@@IAEXXZ (protected: void __thiscall QMap<class QString,class paramInfo>::detach(void))
      104    ?detachInternal@?$QMap@VQString@@VcomplexInstance@@@@AAEXXZ (private: void __thiscall QMap<class QString,class complexInstance>::detachInternal(void))
      105    ?detachInternal@?$QMap@VQString@@VcomplexParam@@@@AAEXXZ (private: void __thiscall QMap<class QString,class complexParam>::detachInternal(void))
      106    ?detachInternal@?$QMap@VQString@@VcomplexType@@@@AAEXXZ (private: void __thiscall QMap<class QString,class complexType>::detachInternal(void))
      107    ?detachInternal@?$QMap@VQString@@VdeviceTypeInfo@@@@AAEXXZ (private: void __thiscall QMap<class QString,class deviceTypeInfo>::detachInternal(void))
      108    ?detachInternal@?$QMap@VQString@@VinstanceInfo@@@@AAEXXZ (private: void __thiscall QMap<class QString,class instanceInfo>::detachInternal(void))
      109    ?detachInternal@?$QMap@VQString@@VparamInfo@@@@AAEXXZ (private: void __thiscall QMap<class QString,class paramInfo>::detachInternal(void))
      110    ?empty@?$QMap@VQString@@VcomplexInstance@@@@QBE_NXZ (public: bool __thiscall QMap<class QString,class complexInstance>::empty(void)const )
      111    ?empty@?$QMap@VQString@@VcomplexParam@@@@QBE_NXZ (public: bool __thiscall QMap<class QString,class complexParam>::empty(void)const )
      112    ?empty@?$QMap@VQString@@VcomplexType@@@@QBE_NXZ (public: bool __thiscall QMap<class QString,class complexType>::empty(void)const )
      113    ?empty@?$QMap@VQString@@VdeviceTypeInfo@@@@QBE_NXZ (public: bool __thiscall QMap<class QString,class deviceTypeInfo>::empty(void)const )
      114    ?empty@?$QMap@VQString@@VinstanceInfo@@@@QBE_NXZ (public: bool __thiscall QMap<class QString,class instanceInfo>::empty(void)const )
      115    ?empty@?$QMap@VQString@@VparamInfo@@@@QBE_NXZ (public: bool __thiscall QMap<class QString,class paramInfo>::empty(void)const )
      116    ?end@?$QMap@VQString@@VcomplexInstance@@@@QAE?AV?$QMapIterator@VQString@@VcomplexInstance@@@@XZ (public: class QMapIterator<class QString,class complexInstance> __thiscall QMap<class QString,class complexInstance>::end(void))
      117    ?end@?$QMap@VQString@@VcomplexInstance@@@@QBE?AV?$QMapConstIterator@VQString@@VcomplexInstance@@@@XZ (public: class QMapConstIterator<class QString,class complexInstance> __thiscall QMap<class QString,class complexInstance>::end(void)const )
      118    ?end@?$QMap@VQString@@VcomplexParam@@@@QAE?AV?$QMapIterator@VQString@@VcomplexParam@@@@XZ (public: class QMapIterator<class QString,class complexParam> __thiscall QMap<class QString,class complexParam>::end(void))
      119    ?end@?$QMap@VQString@@VcomplexParam@@@@QBE?AV?$QMapConstIterator@VQString@@VcomplexParam@@@@XZ (public: class QMapConstIterator<class QString,class complexParam> __thiscall QMap<class QString,class complexParam>::end(void)const )
      120    ?end@?$QMap@VQString@@VcomplexType@@@@QAE?AV?$QMapIterator@VQString@@VcomplexType@@@@XZ (public: class QMapIterator<class QString,class complexType> __thiscall QMap<class QString,class complexType>::end(void))
      121    ?end@?$QMap@VQString@@VcomplexType@@@@QBE?AV?$QMapConstIterator@VQString@@VcomplexType@@@@XZ (public: class QMapConstIterator<class QString,class complexType> __thiscall QMap<class QString,class complexType>::end(void)const )
      122    ?end@?$QMap@VQString@@VdeviceTypeInfo@@@@QAE?AV?$QMapIterator@VQString@@VdeviceTypeInfo@@@@XZ (public: class QMapIterator<class QString,class deviceTypeInfo> __thiscall QMap<class QString,class deviceTypeInfo>::end(void))
      123    ?end@?$QMap@VQString@@VdeviceTypeInfo@@@@QBE?AV?$QMapConstIterator@VQString@@VdeviceTypeInfo@@@@XZ (public: class QMapConstIterator<class QString,class deviceTypeInfo> __thiscall QMap<class QString,class deviceTypeInfo>::end(void)const )
      124    ?end@?$QMap@VQString@@VinstanceInfo@@@@QAE?AV?$QMapIterator@VQString@@VinstanceInfo@@@@XZ (public: class QMapIterator<class QString,class instanceInfo> __thiscall QMap<class QString,class instanceInfo>::end(void))
      125    ?end@?$QMap@VQString@@VinstanceInfo@@@@QBE?AV?$QMapConstIterator@VQString@@VinstanceInfo@@@@XZ (public: class QMapConstIterator<class QString,class instanceInfo> __thiscall QMap<class QString,class instanceInfo>::end(void)const )
      126    ?end@?$QMap@VQString@@VparamInfo@@@@QAE?AV?$QMapIterator@VQString@@VparamInfo@@@@XZ (public: class QMapIterator<class QString,class paramInfo> __thiscall QMap<class QString,class paramInfo>::end(void))
      127    ?end@?$QMap@VQString@@VparamInfo@@@@QBE?AV?$QMapConstIterator@VQString@@VparamInfo@@@@XZ (public: class QMapConstIterator<class QString,class paramInfo> __thiscall QMap<class QString,class paramInfo>::end(void)const )
      128    ?erase@?$QMap@VQString@@VcomplexInstance@@@@QAEXABVQString@@@Z (public: void __thiscall QMap<class QString,class complexInstance>::erase(class QString const &))
      129    ?erase@?$QMap@VQString@@VcomplexInstance@@@@QAEXV?$QMapIterator@VQString@@VcomplexInstance@@@@@Z (public: void __thiscall QMap<class QString,class complexInstance>::erase(class QMapIterator<class QString,class complexInstance>))
      130    ?erase@?$QMap@VQString@@VcomplexParam@@@@QAEXABVQString@@@Z (public: void __thiscall QMap<class QString,class complexParam>::erase(class QString const &))
      131    ?erase@?$QMap@VQString@@VcomplexParam@@@@QAEXV?$QMapIterator@VQString@@VcomplexParam@@@@@Z (public: void __thiscall QMap<class QString,class complexParam>::erase(class QMapIterator<class QString,class complexParam>))
      132    ?erase@?$QMap@VQString@@VcomplexType@@@@QAEXABVQString@@@Z (public: void __thiscall QMap<class QString,class complexType>::erase(class QString const &))
      133    ?erase@?$QMap@VQString@@VcomplexType@@@@QAEXV?$QMapIterator@VQString@@VcomplexType@@@@@Z (public: void __thiscall QMap<class QString,class complexType>::erase(class QMapIterator<class QString,class complexType>))
      134    ?erase@?$QMap@VQString@@VdeviceTypeInfo@@@@QAEXABVQString@@@Z (public: void __thiscall QMap<class QString,class deviceTypeInfo>::erase(class QString const &))
      135    ?erase@?$QMap@VQString@@VdeviceTypeInfo@@@@QAEXV?$QMapIterator@VQString@@VdeviceTypeInfo@@@@@Z (public: void __thiscall QMap<class QString,class deviceTypeInfo>::erase(class QMapIterator<class QString,class deviceTypeInfo>))
      136    ?erase@?$QMap@VQString@@VinstanceInfo@@@@QAEXABVQString@@@Z (public: void __thiscall QMap<class QString,class instanceInfo>::erase(class QString const &))
      137    ?erase@?$QMap@VQString@@VinstanceInfo@@@@QAEXV?$QMapIterator@VQString@@VinstanceInfo@@@@@Z (public: void __thiscall QMap<class QString,class instanceInfo>::erase(class QMapIterator<class QString,class instanceInfo>))
      138    ?erase@?$QMap@VQString@@VparamInfo@@@@QAEXABVQString@@@Z (public: void __thiscall QMap<class QString,class paramInfo>::erase(class QString const &))
      139    ?erase@?$QMap@VQString@@VparamInfo@@@@QAEXV?$QMapIterator@VQString@@VparamInfo@@@@@Z (public: void __thiscall QMap<class QString,class paramInfo>::erase(class QMapIterator<class QString,class paramInfo>))
      140    ?find@?$QMap@VQString@@VcomplexInstance@@@@QAE?AV?$QMapIterator@VQString@@VcomplexInstance@@@@ABVQString@@@Z (public: class QMapIterator<class QString,class complexInstance> __thiscall QMap<class QString,class complexInstance>::find(class QString const &))
      141    ?find@?$QMap@VQString@@VcomplexInstance@@@@QBE?AV?$QMapConstIterator@VQString@@VcomplexInstance@@@@ABVQString@@@Z (public: class QMapConstIterator<class QString,class complexInstance> __thiscall QMap<class QString,class complexInstance>::find(class QString const &)const )
      142    ?find@?$QMap@VQString@@VcomplexParam@@@@QAE?AV?$QMapIterator@VQString@@VcomplexParam@@@@ABVQString@@@Z (public: class QMapIterator<class QString,class complexParam> __thiscall QMap<class QString,class complexParam>::find(class QString const &))
      143    ?find@?$QMap@VQString@@VcomplexParam@@@@QBE?AV?$QMapConstIterator@VQString@@VcomplexParam@@@@ABVQString@@@Z (public: class QMapConstIterator<class QString,class complexParam> __thiscall QMap<class QString,class complexParam>::find(class QString const &)const )
      144    ?find@?$QMap@VQString@@VcomplexType@@@@QAE?AV?$QMapIterator@VQString@@VcomplexType@@@@ABVQString@@@Z (public: class QMapIterator<class QString,class complexType> __thiscall QMap<class QString,class complexType>::find(class QString const &))
      145    ?find@?$QMap@VQString@@VcomplexType@@@@QBE?AV?$QMapConstIterator@VQString@@VcomplexType@@@@ABVQString@@@Z (public: class QMapConstIterator<class QString,class complexType> __thiscall QMap<class QString,class complexType>::find(class QString const &)const )
      146    ?find@?$QMap@VQString@@VdeviceTypeInfo@@@@QAE?AV?$QMapIterator@VQString@@VdeviceTypeInfo@@@@ABVQString@@@Z (public: class QMapIterator<class QString,class deviceTypeInfo> __thiscall QMap<class QString,class deviceTypeInfo>::find(class QString const &))
      147    ?find@?$QMap@VQString@@VdeviceTypeInfo@@@@QBE?AV?$QMapConstIterator@VQString@@VdeviceTypeInfo@@@@ABVQString@@@Z (public: class QMapConstIterator<class QString,class deviceTypeInfo> __thiscall QMap<class QString,class deviceTypeInfo>::find(class QString const &)const )
      148    ?find@?$QMap@VQString@@VinstanceInfo@@@@QAE?AV?$QMapIterator@VQString@@VinstanceInfo@@@@ABVQString@@@Z (public: class QMapIterator<class QString,class instanceInfo> __thiscall QMap<class QString,class instanceInfo>::find(class QString const &))
      149    ?find@?$QMap@VQString@@VinstanceInfo@@@@QBE?AV?$QMapConstIterator@VQString@@VinstanceInfo@@@@ABVQString@@@Z (public: class QMapConstIterator<class QString,class instanceInfo> __thiscall QMap<class QString,class instanceInfo>::find(class QString const &)const )
      150    ?find@?$QMap@VQString@@VparamInfo@@@@QAE?AV?$QMapIterator@VQString@@VparamInfo@@@@ABVQString@@@Z (public: class QMapIterator<class QString,class paramInfo> __thiscall QMap<class QString,class paramInfo>::find(class QString const &))
      151    ?find@?$QMap@VQString@@VparamInfo@@@@QBE?AV?$QMapConstIterator@VQString@@VparamInfo@@@@ABVQString@@@Z (public: class QMapConstIterator<class QString,class paramInfo> __thiscall QMap<class QString,class paramInfo>::find(class QString const &)const )
      152    ?insert@?$QMap@VQString@@VcomplexInstance@@@@QAE?AU?$QPair@V?$QMapIterator@VQString@@VcomplexInstance@@@@_N@@ABU?$QPair@$$CBVQString@@VcomplexInstance@@@@@Z (public: struct QPair<class QMapIterator<class QString,class complexInstance>,bool> __thiscall QMap<class QString,class complexInstance>::insert(struct QPair<class QString const ,class complexInstance> const &))
      153    ?insert@?$QMap@VQString@@VcomplexInstance@@@@QAE?AV?$QMapIterator@VQString@@VcomplexInstance@@@@ABVQString@@ABVcomplexInstance@@_N@Z (public: class QMapIterator<class QString,class complexInstance> __thiscall QMap<class QString,class complexInstance>::insert(class QString const &,class complexInstance const &,bool))
      154    ?insert@?$QMap@VQString@@VcomplexParam@@@@QAE?AU?$QPair@V?$QMapIterator@VQString@@VcomplexParam@@@@_N@@ABU?$QPair@$$CBVQString@@VcomplexParam@@@@@Z (public: struct QPair<class QMapIterator<class QString,class complexParam>,bool> __thiscall QMap<class QString,class complexParam>::insert(struct QPair<class QString const ,class complexParam> const &))
      155    ?insert@?$QMap@VQString@@VcomplexParam@@@@QAE?AV?$QMapIterator@VQString@@VcomplexParam@@@@ABVQString@@ABVcomplexParam@@_N@Z (public: class QMapIterator<class QString,class complexParam> __thiscall QMap<class QString,class complexParam>::insert(class QString const &,class complexParam const &,bool))
      156    ?insert@?$QMap@VQString@@VcomplexType@@@@QAE?AU?$QPair@V?$QMapIterator@VQString@@VcomplexType@@@@_N@@ABU?$QPair@$$CBVQString@@VcomplexType@@@@@Z (public: struct QPair<class QMapIterator<class QString,class complexType>,bool> __thiscall QMap<class QString,class complexType>::insert(struct QPair<class QString const ,class complexType> const &))
      157    ?insert@?$QMap@VQString@@VcomplexType@@@@QAE?AV?$QMapIterator@VQString@@VcomplexType@@@@ABVQString@@ABVcomplexType@@_N@Z (public: class QMapIterator<class QString,class complexType> __thiscall QMap<class QString,class complexType>::insert(class QString const &,class complexType const &,bool))
      158    ?insert@?$QMap@VQString@@VdeviceTypeInfo@@@@QAE?AU?$QPair@V?$QMapIterator@VQString@@VdeviceTypeInfo@@@@_N@@ABU?$QPair@$$CBVQString@@VdeviceTypeInfo@@@@@Z (public: struct QPair<class QMapIterator<class QString,class deviceTypeInfo>,bool> __thiscall QMap<class QString,class deviceTypeInfo>::insert(struct QPair<class QString const ,class deviceTypeInfo> const &))
      159    ?insert@?$QMap@VQString@@VdeviceTypeInfo@@@@QAE?AV?$QMapIterator@VQString@@VdeviceTypeInfo@@@@ABVQString@@ABVdeviceTypeInfo@@_N@Z (public: class QMapIterator<class QString,class deviceTypeInfo> __thiscall QMap<class QString,class deviceTypeInfo>::insert(class QString const &,class deviceTypeInfo const &,bool))
      160    ?insert@?$QMap@VQString@@VinstanceInfo@@@@QAE?AU?$QPair@V?$QMapIterator@VQString@@VinstanceInfo@@@@_N@@ABU?$QPair@$$CBVQString@@VinstanceInfo@@@@@Z (public: struct QPair<class QMapIterator<class QString,class instanceInfo>,bool> __thiscall QMap<class QString,class instanceInfo>::insert(struct QPair<class QString const ,class instanceInfo> const &))
      161    ?insert@?$QMap@VQString@@VinstanceInfo@@@@QAE?AV?$QMapIterator@VQString@@VinstanceInfo@@@@ABVQString@@ABVinstanceInfo@@_N@Z (public: class QMapIterator<class QString,class instanceInfo> __thiscall QMap<class QString,class instanceInfo>::insert(class QString const &,class instanceInfo const &,bool))
      162    ?insert@?$QMap@VQString@@VparamInfo@@@@QAE?AU?$QPair@V?$QMapIterator@VQString@@VparamInfo@@@@_N@@ABU?$QPair@$$CBVQString@@VparamInfo@@@@@Z (public: struct QPair<class QMapIterator<class QString,class paramInfo>,bool> __thiscall QMap<class QString,class paramInfo>::insert(struct QPair<class QString const ,class paramInfo> const &))
      163    ?insert@?$QMap@VQString@@VparamInfo@@@@QAE?AV?$QMapIterator@VQString@@VparamInfo@@@@ABVQString@@ABVparamInfo@@_N@Z (public: class QMapIterator<class QString,class paramInfo> __thiscall QMap<class QString,class paramInfo>::insert(class QString const &,class paramInfo const &,bool))
      164    ?isEmpty@?$QMap@VQString@@VcomplexInstance@@@@QBE_NXZ (public: bool __thiscall QMap<class QString,class complexInstance>::isEmpty(void)const )
      165    ?isEmpty@?$QMap@VQString@@VcomplexParam@@@@QBE_NXZ (public: bool __thiscall QMap<class QString,class complexParam>::isEmpty(void)const )
      166    ?isEmpty@?$QMap@VQString@@VcomplexType@@@@QBE_NXZ (public: bool __thiscall QMap<class QString,class complexType>::isEmpty(void)const )
      167    ?isEmpty@?$QMap@VQString@@VdeviceTypeInfo@@@@QBE_NXZ (public: bool __thiscall QMap<class QString,class deviceTypeInfo>::isEmpty(void)const )
      168    ?isEmpty@?$QMap@VQString@@VinstanceInfo@@@@QBE_NXZ (public: bool __thiscall QMap<class QString,class instanceInfo>::isEmpty(void)const )
      169    ?isEmpty@?$QMap@VQString@@VparamInfo@@@@QBE_NXZ (public: bool __thiscall QMap<class QString,class paramInfo>::isEmpty(void)const )
      170    ?keys@?$QMap@VQString@@VcomplexInstance@@@@QBE?AV?$QValueList@VQString@@@@XZ (public: class QValueList<class QString> __thiscall QMap<class QString,class complexInstance>::keys(void)const )
      171    ?keys@?$QMap@VQString@@VcomplexParam@@@@QBE?AV?$QValueList@VQString@@@@XZ (public: class QValueList<class QString> __thiscall QMap<class QString,class complexParam>::keys(void)const )
      172    ?keys@?$QMap@VQString@@VcomplexType@@@@QBE?AV?$QValueList@VQString@@@@XZ (public: class QValueList<class QString> __thiscall QMap<class QString,class complexType>::keys(void)const )
      173    ?keys@?$QMap@VQString@@VdeviceTypeInfo@@@@QBE?AV?$QValueList@VQString@@@@XZ (public: class QValueList<class QString> __thiscall QMap<class QString,class deviceTypeInfo>::keys(void)const )
      174    ?keys@?$QMap@VQString@@VinstanceInfo@@@@QBE?AV?$QValueList@VQString@@@@XZ (public: class QValueList<class QString> __thiscall QMap<class QString,class instanceInfo>::keys(void)const )
      175    ?keys@?$QMap@VQString@@VparamInfo@@@@QBE?AV?$QValueList@VQString@@@@XZ (public: class QValueList<class QString> __thiscall QMap<class QString,class paramInfo>::keys(void)const )
      176    ?remove@?$QMap@VQString@@VcomplexInstance@@@@QAEXABVQString@@@Z (public: void __thiscall QMap<class QString,class complexInstance>::remove(class QString const &))
      177    ?remove@?$QMap@VQString@@VcomplexInstance@@@@QAEXV?$QMapIterator@VQString@@VcomplexInstance@@@@@Z (public: void __thiscall QMap<class QString,class complexInstance>::remove(class QMapIterator<class QString,class complexInstance>))
      178    ?remove@?$QMap@VQString@@VcomplexParam@@@@QAEXABVQString@@@Z (public: void __thiscall QMap<class QString,class complexParam>::remove(class QString const &))
      179    ?remove@?$QMap@VQString@@VcomplexParam@@@@QAEXV?$QMapIterator@VQString@@VcomplexParam@@@@@Z (public: void __thiscall QMap<class QString,class complexParam>::remove(class QMapIterator<class QString,class complexParam>))
      180    ?remove@?$QMap@VQString@@VcomplexType@@@@QAEXABVQString@@@Z (public: void __thiscall QMap<class QString,class complexType>::remove(class QString const &))
      181    ?remove@?$QMap@VQString@@VcomplexType@@@@QAEXV?$QMapIterator@VQString@@VcomplexType@@@@@Z (public: void __thiscall QMap<class QString,class complexType>::remove(class QMapIterator<class QString,class complexType>))
      182    ?remove@?$QMap@VQString@@VdeviceTypeInfo@@@@QAEXABVQString@@@Z (public: void __thiscall QMap<class QString,class deviceTypeInfo>::remove(class QString const &))
      183    ?remove@?$QMap@VQString@@VdeviceTypeInfo@@@@QAEXV?$QMapIterator@VQString@@VdeviceTypeInfo@@@@@Z (public: void __thiscall QMap<class QString,class deviceTypeInfo>::remove(class QMapIterator<class QString,class deviceTypeInfo>))
      184    ?remove@?$QMap@VQString@@VinstanceInfo@@@@QAEXABVQString@@@Z (public: void __thiscall QMap<class QString,class instanceInfo>::remove(class QString const &))
      185    ?remove@?$QMap@VQString@@VinstanceInfo@@@@QAEXV?$QMapIterator@VQString@@VinstanceInfo@@@@@Z (public: void __thiscall QMap<class QString,class instanceInfo>::remove(class QMapIterator<class QString,class instanceInfo>))
      186    ?remove@?$QMap@VQString@@VparamInfo@@@@QAEXABVQString@@@Z (public: void __thiscall QMap<class QString,class paramInfo>::remove(class QString const &))
      187    ?remove@?$QMap@VQString@@VparamInfo@@@@QAEXV?$QMapIterator@VQString@@VparamInfo@@@@@Z (public: void __thiscall QMap<class QString,class paramInfo>::remove(class QMapIterator<class QString,class paramInfo>))
      188    ?replace@?$QMap@VQString@@VcomplexInstance@@@@QAE?AV?$QMapIterator@VQString@@VcomplexInstance@@@@ABVQString@@ABVcomplexInstance@@@Z (public: class QMapIterator<class QString,class complexInstance> __thiscall QMap<class QString,class complexInstance>::replace(class QString const &,class complexInstance const &))
      189    ?replace@?$QMap@VQString@@VcomplexParam@@@@QAE?AV?$QMapIterator@VQString@@VcomplexParam@@@@ABVQString@@ABVcomplexParam@@@Z (public: class QMapIterator<class QString,class complexParam> __thiscall QMap<class QString,class complexParam>::replace(class QString const &,class complexParam const &))
      190    ?replace@?$QMap@VQString@@VcomplexType@@@@QAE?AV?$QMapIterator@VQString@@VcomplexType@@@@ABVQString@@ABVcomplexType@@@Z (public: class QMapIterator<class QString,class complexType> __thiscall QMap<class QString,class complexType>::replace(class QString const &,class complexType const &))
      191    ?replace@?$QMap@VQString@@VdeviceTypeInfo@@@@QAE?AV?$QMapIterator@VQString@@VdeviceTypeInfo@@@@ABVQString@@ABVdeviceTypeInfo@@@Z (public: class QMapIterator<class QString,class deviceTypeInfo> __thiscall QMap<class QString,class deviceTypeInfo>::replace(class QString const &,class deviceTypeInfo const &))
      192    ?replace@?$QMap@VQString@@VinstanceInfo@@@@QAE?AV?$QMapIterator@VQString@@VinstanceInfo@@@@ABVQString@@ABVinstanceInfo@@@Z (public: class QMapIterator<class QString,class instanceInfo> __thiscall QMap<class QString,class instanceInfo>::replace(class QString const &,class instanceInfo const &))
      193    ?replace@?$QMap@VQString@@VparamInfo@@@@QAE?AV?$QMapIterator@VQString@@VparamInfo@@@@ABVQString@@ABVparamInfo@@@Z (public: class QMapIterator<class QString,class paramInfo> __thiscall QMap<class QString,class paramInfo>::replace(class QString const &,class paramInfo const &))
      194    ?size@?$QMap@VQString@@VcomplexInstance@@@@QBEIXZ (public: unsigned int __thiscall QMap<class QString,class complexInstance>::size(void)const )
      195    ?size@?$QMap@VQString@@VcomplexParam@@@@QBEIXZ (public: unsigned int __thiscall QMap<class QString,class complexParam>::size(void)const )
      196    ?size@?$QMap@VQString@@VcomplexType@@@@QBEIXZ (public: unsigned int __thiscall QMap<class QString,class complexType>::size(void)const )
      197    ?size@?$QMap@VQString@@VdeviceTypeInfo@@@@QBEIXZ (public: unsigned int __thiscall QMap<class QString,class deviceTypeInfo>::size(void)const )
      198    ?size@?$QMap@VQString@@VinstanceInfo@@@@QBEIXZ (public: unsigned int __thiscall QMap<class QString,class instanceInfo>::size(void)const )
      199    ?size@?$QMap@VQString@@VparamInfo@@@@QBEIXZ (public: unsigned int __thiscall QMap<class QString,class paramInfo>::size(void)const )
      200    ?values@?$QMap@VQString@@VcomplexInstance@@@@QBE?AV?$QValueList@VcomplexInstance@@@@XZ (public: class QValueList<class complexInstance> __thiscall QMap<class QString,class complexInstance>::values(void)const )
      201    ?values@?$QMap@VQString@@VcomplexParam@@@@QBE?AV?$QValueList@VcomplexParam@@@@XZ (public: class QValueList<class complexParam> __thiscall QMap<class QString,class complexParam>::values(void)const )
      202    ?values@?$QMap@VQString@@VcomplexType@@@@QBE?AV?$QValueList@VcomplexType@@@@XZ (public: class QValueList<class complexType> __thiscall QMap<class QString,class complexType>::values(void)const )
      203    ?values@?$QMap@VQString@@VdeviceTypeInfo@@@@QBE?AV?$QValueList@VdeviceTypeInfo@@@@XZ (public: class QValueList<class deviceTypeInfo> __thiscall QMap<class QString,class deviceTypeInfo>::values(void)const )
      204    ?values@?$QMap@VQString@@VinstanceInfo@@@@QBE?AV?$QValueList@VinstanceInfo@@@@XZ (public: class QValueList<class instanceInfo> __thiscall QMap<class QString,class instanceInfo>::values(void)const )
      205    ?values@?$QMap@VQString@@VparamInfo@@@@QBE?AV?$QValueList@VparamInfo@@@@XZ (public: class QValueList<class paramInfo> __thiscall QMap<class QString,class paramInfo>::values(void)const )
