 ParamTester

 Timestamp is 5e9dbbde (Mon Apr 20 16:12:30 2020)

 Preferred load address is 00400000

 Start         Length     Name                   Class
 0001:00000000 000000b8H .text                   CODE
 0001:000000c0 00000081H .text$di                CODE
 0001:00000150 0000cbdaH .text$mn                CODE
 0001:0000cd30 000016a6H .text$x                 CODE
 0001:0000e3e0 0000004bH .text$yd                CODE
 0002:00000000 00000f7cH .idata$5                DATA
 0002:00000f7c 00000004H .CRT$XCA                DATA
 0002:00000f80 00000004H .CRT$XCAA               DATA
 0002:00000f84 00000014H .CRT$XCU                DATA
 0002:00000f98 00000004H .CRT$XCZ                DATA
 0002:00000f9c 00000004H .CRT$XIA                DATA
 0002:00000fa0 00000004H .CRT$XIAA               DATA
 0002:00000fa4 00000004H .CRT$XIC                DATA
 0002:00000fa8 00000004H .CRT$XIY                DATA
 0002:00000fac 00000004H .CRT$XIZ                DATA
 0002:00000fb0 00004d18H .rdata                  DATA
 0002:00005cc8 0000108cH .rdata$r                DATA
 0002:00006d54 00000004H .rtc$IAA                DATA
 0002:00006d58 00000004H .rtc$IZZ                DATA
 0002:00006d5c 00000004H .rtc$TAA                DATA
 0002:00006d60 00000004H .rtc$TZZ                DATA
 0002:00006d68 000014a4H .xdata$x                DATA
 0002:0000820c 00000000H .edata                  DATA
 0002:0000820c 000000b4H .idata$2                DATA
 0002:000082c0 00000014H .idata$3                DATA
 0002:000082d4 00000f7cH .idata$4                DATA
 0002:00009250 00009b06H .idata$6                DATA
 0003:00000000 00000482H .data                   DATA
 0003:00000484 00000554H .data$r                 DATA
 0003:000009d8 00000614H .bss                    DATA
 0004:00000000 00000190H .rsrc$01                DATA
 0004:00000190 00004058H .rsrc$02                DATA

  Address         Publics by Value              Rva+Base       Lib:Object

 0000:00000000       ___safe_se_handler_count   00000000     <absolute>
 0000:00000000       ___guard_fids_table        00000000     <absolute>
 0000:00000000       ___safe_se_handler_table   00000000     <absolute>
 0000:00000000       __except_list              00000000     <absolute>
 0000:00000000       ___guard_flags             00000000     <absolute>
 0000:00000000       ___guard_fids_count        00000000     <absolute>
 0000:00009876       __ldused                   00009876     <absolute>
 0000:00009876       __fltused                  00009876     <absolute>
 0000:00000000       ___ImageBase               00400000     <linker-defined>
 0001:00000000       _WinMain@16                00401000 f   qtmain:qtmain_win.obj
 0001:0000008d       ?detach@?$QMemArray@PAD@@UAEXXZ 0040108d f i qtmain:qtmain_win.obj
 0001:00000095       ??_G?$QMemArray@PAD@@UAEPAXI@Z 00401095 f i qtmain:qtmain_win.obj
 0001:00000095       ??_E?$QMemArray@PAD@@UAEPAXI@Z 00401095 f i qtmain:qtmain_win.obj
 0001:00000150       ??0?$basic_string@DU?$char_traits@D@std@@V?$allocator@D@2@@std@@QAE@PBD@Z 00401150 f i main.obj
 0001:000001b0       ??1?$basic_string@DU?$char_traits@D@std@@V?$allocator@D@2@@std@@QAE@XZ 004011b0 f i main.obj
 0001:000001e0       ??3@YAXPAX0@Z              004011e0 f i main.obj
 0001:000001e0       ?cccConnected@IccClientCallback@@MAEXXZ 004011e0 f i paramtestermainwindow.obj
 0001:000001e0       ?cccDisconnected@IccClientCallback@@MAEXXZ 004011e0 f i paramtestermainwindow.obj
 0001:000001f0       ??_E_Generic_error_category@std@@UAEPAXI@Z 004011f0 f i main.obj
 0001:000001f0       ??_Gerror_category@std@@UAEPAXI@Z 004011f0 f i main.obj
 0001:000001f0       ??_Eerror_category@std@@UAEPAXI@Z 004011f0 f i main.obj
 0001:000001f0       ??_G_System_error_category@std@@UAEPAXI@Z 004011f0 f i main.obj
 0001:000001f0       ??_E_System_error_category@std@@UAEPAXI@Z 004011f0 f i main.obj
 0001:000001f0       ??_E_Iostream_error_category@std@@UAEPAXI@Z 004011f0 f i main.obj
 0001:000001f0       ??_G_Generic_error_category@std@@UAEPAXI@Z 004011f0 f i main.obj
 0001:000001f0       ??_G_Iostream_error_category@std@@UAEPAXI@Z 004011f0 f i main.obj
 0001:00000220       ?_Copy@?$basic_string@DU?$char_traits@D@std@@V?$allocator@D@2@@std@@QAEXII@Z 00401220 f i main.obj
 0001:00000370       ?_Grow@?$basic_string@DU?$char_traits@D@std@@V?$allocator@D@2@@std@@QAE_NI_N@Z 00401370 f i main.obj
 0001:00000420       ?allocate@?$_Wrap_alloc@V?$allocator@D@std@@@std@@QAEPADI@Z 00401420 f i main.obj
 0001:00000450       ?assign@?$basic_string@DU?$char_traits@D@std@@V?$allocator@D@2@@std@@QAEAAV12@ABV12@II@Z 00401450 f i main.obj
 0001:00000570       ?assign@?$basic_string@DU?$char_traits@D@std@@V?$allocator@D@2@@std@@QAEAAV12@PBDI@Z 00401570 f i main.obj
 0001:00000670       ?default_error_condition@_System_error_category@std@@UBE?AVerror_condition@2@H@Z 00401670 f i main.obj
 0001:000006b0       ?default_error_condition@error_category@std@@UBE?AVerror_condition@2@H@Z 004016b0 f i main.obj
 0001:000006d0       ?equivalent@error_category@std@@UBE_NABVerror_code@2@H@Z 004016d0 f i main.obj
 0001:000006f0       ?equivalent@error_category@std@@UBE_NHABVerror_condition@2@@Z 004016f0 f i main.obj
 0001:00000730       ?erase@?$basic_string@DU?$char_traits@D@std@@V?$allocator@D@2@@std@@QAEAAV12@II@Z 00401730 f i main.obj
 0001:000007d0       ?message@_Generic_error_category@std@@UBE?AV?$basic_string@DU?$char_traits@D@std@@V?$allocator@D@2@@2@H@Z 004017d0 f i main.obj
 0001:00000850       ?message@_Iostream_error_category@std@@UBE?AV?$basic_string@DU?$char_traits@D@std@@V?$allocator@D@2@@2@H@Z 00401850 f i main.obj
 0001:000008a0       ?message@_System_error_category@std@@UBE?AV?$basic_string@DU?$char_traits@D@std@@V?$allocator@D@2@@2@H@Z 004018a0 f i main.obj
 0001:00000920       ?name@_Generic_error_category@std@@UBEPBDXZ 00401920 f i main.obj
 0001:00000930       ?name@_Iostream_error_category@std@@UBEPBDXZ 00401930 f i main.obj
 0001:00000940       ?name@_System_error_category@std@@UBEPBDXZ 00401940 f i main.obj
 0001:00000950       _main                      00401950 f   main.obj
 0001:00000ae0       ??0myListViewItem@@QAE@PAVQListView@@VQString@@1111111@Z 00401ae0 f   myListViewItem.obj
 0001:00000c30       ??_GmyListViewItem@@UAEPAXI@Z 00401c30 f i myListViewItem.obj
 0001:00000c30       ??_EmyListViewItem@@UAEPAXI@Z 00401c30 f i myListViewItem.obj
 0001:00000c60       ?compare@myListViewItem@@UBEHPAVQListViewItem@@H_N@Z 00401c60 f   myListViewItem.obj
 0001:00000e70       ??0ParamTesterMainWindow@@QAE@PAVQWidget@@PBDI@Z 00401e70 f   paramtestermainwindow.obj
 0001:00001480       ??1ParamTesterMainWindow@@UAE@XZ 00402480 f   paramtestermainwindow.obj
 0001:00001555       ??_EParamTesterMainWindow@@WCI@AEPAXI@Z 00402555 f i paramtestermainwindow.obj
 0001:0000155d       ??_EQMenuBar@@WCI@AEPAXI@Z 0040255d f i paramtestermainwindow.obj
 0001:00001565       ??_EQMenuBar@@WIM@AEPAXI@Z 00402565 f i paramtestermainwindow.obj
 0001:00001570       ??_EQPopupMenu@@WCI@AEPAXI@Z 00402570 f i paramtestermainwindow.obj
 0001:00001578       ??_EQPopupMenu@@WIM@AEPAXI@Z 00402578 f i paramtestermainwindow.obj
 0001:00001583       ??_EQProgressDialog@@WCI@AEPAXI@Z 00402583 f i paramtestermainwindow.obj
 0001:0000158b       ??_EQPushButton@@WCI@AEPAXI@Z 0040258b f i paramtestermainwindow.obj
 0001:000015a0       ??_G?$QPtrList@VQPushButton@@@@UAEPAXI@Z 004025a0 f i paramtestermainwindow.obj
 0001:000015a0       ??_E?$QPtrList@VQPushButton@@@@UAEPAXI@Z 004025a0 f i paramtestermainwindow.obj
 0001:00001610       ??_GParamTesterMainWindow@@UAEPAXI@Z 00402610 f i paramtestermainwindow.obj
 0001:00001610       ??_EParamTesterMainWindow@@UAEPAXI@Z 00402610 f i paramtestermainwindow.obj
 0001:00001640       ??_EQDomElement@@UAEPAXI@Z 00402640 f i paramtestermainwindow.obj
 0001:00001640       ??_GQDomElement@@UAEPAXI@Z 00402640 f i paramtestermainwindow.obj
 0001:00001670       ??_EQMenuBar@@UAEPAXI@Z    00402670 f i paramtestermainwindow.obj
 0001:00001670       ??_GQMenuBar@@UAEPAXI@Z    00402670 f i paramtestermainwindow.obj
 0001:000016a0       ??_EQPopupMenu@@UAEPAXI@Z  004026a0 f i paramtestermainwindow.obj
 0001:000016a0       ??_GQPopupMenu@@UAEPAXI@Z  004026a0 f i paramtestermainwindow.obj
 0001:000016d0       ??_GQProgressDialog@@UAEPAXI@Z 004026d0 f i paramtestermainwindow.obj
 0001:000016d0       ??_EQProgressDialog@@UAEPAXI@Z 004026d0 f i paramtestermainwindow.obj
 0001:00001700       ??_GQPushButton@@UAEPAXI@Z 00402700 f i paramtestermainwindow.obj
 0001:00001700       ??_EQPushButton@@UAEPAXI@Z 00402700 f i paramtestermainwindow.obj
 0001:00001730       ?ButtonPushed@ParamTesterMainWindow@@QAEXH@Z 00402730 f   paramtestermainwindow.obj
 0001:000018a0       ?LoadTemplate@ParamTesterMainWindow@@AAEXVQString@@@Z 004028a0 f   paramtestermainwindow.obj
 0001:00001ee0       ?about@ParamTesterMainWindow@@QAEXXZ 00402ee0 f   paramtestermainwindow.obj
 0001:00002100       ?cccConfigChangeMessage@IccClientCallback@@MAEXABV?$basic_string@DU?$char_traits@D@std@@V?$allocator@D@2@@std@@@Z 00403100 f i paramtestermainwindow.obj
 0001:00002110       ?cccDeviceMessage@IccClientCallback@@MAEXHHABV?$basic_string@DU?$char_traits@D@std@@V?$allocator@D@2@@std@@H@Z 00403110 f i paramtestermainwindow.obj
 0001:00002120       ?cccDatabaseChange@IccClientCallback@@MAEXHHH@Z 00403120 f i paramtestermainwindow.obj
 0001:00002120       ?cccRtrRevertive@IccClientCallback@@MAEXHHH@Z 00403120 f i paramtestermainwindow.obj
 0001:00002120       ?cccGpiRevertive@IccClientCallback@@MAEXHH_N@Z 00403120 f i paramtestermainwindow.obj
 0001:00002120       ?cccInfoRevertive@IccClientCallback@@MAEXHHABV?$basic_string@DU?$char_traits@D@std@@V?$allocator@D@2@@std@@@Z 00403120 f i paramtestermainwindow.obj
 0001:00002120       ?cccDeviceMode@IccClientCallback@@MAEXHHW4redundancyState@cc@@@Z 00403120 f i paramtestermainwindow.obj
 0001:00002130       ?cccDisconnected@ParamTesterMainWindow@@UAEXXZ 00403130 f   paramtestermainwindow.obj
 0001:00002140       ?cccGpiRevertive@ParamTesterMainWindow@@UAEXHH_N@Z 00403140 f   paramtestermainwindow.obj
 0001:000021f0       ?cccInfoRevertive@ParamTesterMainWindow@@UAEXHHABV?$basic_string@DU?$char_traits@D@std@@V?$allocator@D@2@@std@@@Z 004031f0 f   paramtestermainwindow.obj
 0001:00002280       ?cccRtrRevertive@ParamTesterMainWindow@@UAEXHHH@Z 00403280 f   paramtestermainwindow.obj
 0001:00002330       ?cccSerialNumberError@IccClientCallback@@MAEXHH@Z 00403330 f i paramtestermainwindow.obj
 0001:00002330       ?cccPollError@IccClientCallback@@MAEXHH@Z 00403330 f i paramtestermainwindow.obj
 0001:00002340       ?clear@?$QPtrList@VQPushButton@@@@UAEXXZ 00403340 f i paramtestermainwindow.obj
 0001:00002350       ?count@?$QPtrList@VQPushButton@@@@UBEIXZ 00403350 f i paramtestermainwindow.obj
 0001:00002360       ?deleteItem@?$QPtrList@VQPushButton@@@@EAEXPAX@Z 00403360 f i paramtestermainwindow.obj
 0001:00002390       ?handleRevertive@ParamTesterMainWindow@@QAEXHHABVQString@@@Z 00403390 f   paramtestermainwindow.obj
 0001:00002460       ?loadDeviceType@ParamTesterMainWindow@@AAE_NVQString@@@Z 00403460 f   paramtestermainwindow.obj
 0001:00002a10       ?loadInstances@ParamTesterMainWindow@@QAE_NXZ 00403a10 f   paramtestermainwindow.obj
 0001:000031e0       ?metaObject@ParamTesterMainWindow@@UBEPAVQMetaObject@@XZ 004041e0 f i paramtestermainwindow.obj
 0001:000031f0       ?retPressed@ParamTesterMainWindow@@QAEXPAVQListViewItem@@@Z 004041f0 f   paramtestermainwindow.obj
 0001:00003200       ?selectInstance@ParamTesterMainWindow@@QAEXPAVQListViewItem@@@Z 00404200 f   paramtestermainwindow.obj
 0001:000036d0       ?selectNextParam@ParamTesterMainWindow@@AAEXXZ 004046d0 f   paramtestermainwindow.obj
 0001:00003780       ?selectParam@ParamTesterMainWindow@@QAEXPAVQListViewItem@@@Z 00404780 f   paramtestermainwindow.obj
 0001:00004540       ?setDevSlot@ParamTesterMainWindow@@AAE_NVQString@@0@Z 00405540 f   paramtestermainwindow.obj
 0001:00004f00       ?setEnteredValue@ParamTesterMainWindow@@QAEXXZ 00405f00 f   paramtestermainwindow.obj
 0001:000050f0       ?setFilter@ParamTesterMainWindow@@QAEXABVQString@@@Z 004060f0 f   paramtestermainwindow.obj
 0001:00005240       ?setValue@ParamTesterMainWindow@@QAEXVQString@@@Z 00406240 f   paramtestermainwindow.obj
 0001:000053e0       ?spacePressed@ParamTesterMainWindow@@QAEXPAVQListViewItem@@@Z 004063e0 f   paramtestermainwindow.obj
 0001:000053f0       ?toggleState@ParamTesterMainWindow@@AAEXXZ 004063f0 f   paramtestermainwindow.obj
 0001:00005460       ?toggleTestMode@ParamTesterMainWindow@@QAEXXZ 00406460 f   paramtestermainwindow.obj
 0001:00005480       ?withSlotSetToggled@ParamTesterMainWindow@@QAEX_N@Z 00406480 f   paramtestermainwindow.obj
 0001:00005570       ?className@ParamTesterMainWindow@@UBEPBDXZ 00406570 f   moc_paramtestermainwindow.obj
 0001:00005580       ?qt_cast@ParamTesterMainWindow@@UAEPAXPBD@Z 00406580 f   moc_paramtestermainwindow.obj
 0001:00005630       ?qt_emit@ParamTesterMainWindow@@UAE_NHPAUQUObject@@@Z 00406630 f   moc_paramtestermainwindow.obj
 0001:00005640       ?qt_invoke@ParamTesterMainWindow@@UAE_NHPAUQUObject@@@Z 00406640 f   moc_paramtestermainwindow.obj
 0001:00005780       ?qt_property@ParamTesterMainWindow@@UAE_NHHPAVQVariant@@@Z 00406780 f   moc_paramtestermainwindow.obj
 0001:00005790       ?staticMetaObject@ParamTesterMainWindow@@SAPAVQMetaObject@@XZ 00406790 f   moc_paramtestermainwindow.obj
 0001:00005940       ?className@ParamTesterMainWindowBase@@UBEPBDXZ 00406940 f   moc_paramtestermainwindowbase.obj
 0001:00005950       ?qt_cast@ParamTesterMainWindowBase@@UAEPAXPBD@Z 00406950 f   moc_paramtestermainwindowbase.obj
 0001:000059b0       ?qt_emit@ParamTesterMainWindowBase@@UAE_NHPAUQUObject@@@Z 004069b0 f   moc_paramtestermainwindowbase.obj
 0001:000059c0       ?qt_invoke@ParamTesterMainWindowBase@@UAE_NHPAUQUObject@@@Z 004069c0 f   moc_paramtestermainwindowbase.obj
 0001:00005a50       ?qt_property@ParamTesterMainWindowBase@@UAE_NHHPAVQVariant@@@Z 00406a50 f   moc_paramtestermainwindowbase.obj
 0001:00005a60       ?staticMetaObject@ParamTesterMainWindowBase@@SAPAVQMetaObject@@XZ 00406a60 f   moc_paramtestermainwindowbase.obj
 0001:00005ab0       ?tr@ParamTesterMainWindowBase@@SA?AVQString@@PBD0@Z 00406ab0 f   moc_paramtestermainwindowbase.obj
 0001:00005b10       ??0ParamTesterMainWindowBase@@QAE@PAVQWidget@@PBDI@Z 00406b10 f   paramtestermainwindowbase.obj
 0001:00006b60       ??1ParamTesterMainWindowBase@@UAE@XZ 00407b60 f   paramtestermainwindowbase.obj
 0001:00006b73       ??_EParamTesterMainWindowBase@@WCI@AEPAXI@Z 00407b73 f i paramtestermainwindowbase.obj
 0001:00006b7b       ??_EQButtonGroup@@WCI@AEPAXI@Z 00407b7b f i paramtestermainwindowbase.obj
 0001:00006b83       ??_EQCheckBox@@WCI@AEPAXI@Z 00407b83 f i paramtestermainwindowbase.obj
 0001:00006b8b       ??_EQComboBox@@WCI@AEPAXI@Z 00407b8b f i paramtestermainwindowbase.obj
 0001:00006b93       ??_EQGridLayout@@WCI@AEPAXI@Z 00407b93 f i paramtestermainwindowbase.obj
 0001:00006b9b       ??_EQGroupBox@@WCI@AEPAXI@Z 00407b9b f i paramtestermainwindowbase.obj
 0001:00006ba3       ??_EQHBoxLayout@@WCI@AEPAXI@Z 00407ba3 f i paramtestermainwindowbase.obj
 0001:00006bab       ??_EQLabel@@WCI@AEPAXI@Z   00407bab f i paramtestermainwindowbase.obj
 0001:00006bb3       ??_EQLineEdit@@WCI@AEPAXI@Z 00407bb3 f i paramtestermainwindowbase.obj
 0001:00006bbb       ??_EQListView@@WCI@AEPAXI@Z 00407bbb f i paramtestermainwindowbase.obj
 0001:00006bc3       ??_EQSplitter@@WCI@AEPAXI@Z 00407bc3 f i paramtestermainwindowbase.obj
 0001:00006bcb       ??_EQVBoxLayout@@WCI@AEPAXI@Z 00407bcb f i paramtestermainwindowbase.obj
 0001:00006bd3       ??_EQWidget@@WCI@AEPAXI@Z  00407bd3 f i paramtestermainwindowbase.obj
 0001:00006be0       ??_EParamTesterMainWindowBase@@UAEPAXI@Z 00407be0 f i paramtestermainwindowbase.obj
 0001:00006be0       ??_GParamTesterMainWindowBase@@UAEPAXI@Z 00407be0 f i paramtestermainwindowbase.obj
 0001:00006c10       ??_EQButtonGroup@@UAEPAXI@Z 00407c10 f i paramtestermainwindowbase.obj
 0001:00006c10       ??_GQButtonGroup@@UAEPAXI@Z 00407c10 f i paramtestermainwindowbase.obj
 0001:00006c40       ??_EQCheckBox@@UAEPAXI@Z   00407c40 f i paramtestermainwindowbase.obj
 0001:00006c40       ??_GQCheckBox@@UAEPAXI@Z   00407c40 f i paramtestermainwindowbase.obj
 0001:00006c70       ??_EQComboBox@@UAEPAXI@Z   00407c70 f i paramtestermainwindowbase.obj
 0001:00006c70       ??_GQComboBox@@UAEPAXI@Z   00407c70 f i paramtestermainwindowbase.obj
 0001:00006ca0       ??_GQGridLayout@@UAEPAXI@Z 00407ca0 f i paramtestermainwindowbase.obj
 0001:00006ca0       ??_EQGridLayout@@UAEPAXI@Z 00407ca0 f i paramtestermainwindowbase.obj
 0001:00006cd0       ??_GQGroupBox@@UAEPAXI@Z   00407cd0 f i paramtestermainwindowbase.obj
 0001:00006cd0       ??_EQGroupBox@@UAEPAXI@Z   00407cd0 f i paramtestermainwindowbase.obj
 0001:00006d00       ??_EQHBoxLayout@@UAEPAXI@Z 00407d00 f i paramtestermainwindowbase.obj
 0001:00006d00       ??_GQHBoxLayout@@UAEPAXI@Z 00407d00 f i paramtestermainwindowbase.obj
 0001:00006d30       ??_GQLabel@@UAEPAXI@Z      00407d30 f i paramtestermainwindowbase.obj
 0001:00006d30       ??_EQLabel@@UAEPAXI@Z      00407d30 f i paramtestermainwindowbase.obj
 0001:00006d60       ??_EQLineEdit@@UAEPAXI@Z   00407d60 f i paramtestermainwindowbase.obj
 0001:00006d60       ??_GQLineEdit@@UAEPAXI@Z   00407d60 f i paramtestermainwindowbase.obj
 0001:00006d90       ??_GQListView@@UAEPAXI@Z   00407d90 f i paramtestermainwindowbase.obj
 0001:00006d90       ??_EQListView@@UAEPAXI@Z   00407d90 f i paramtestermainwindowbase.obj
 0001:00006dc0       ??_EQSpacerItem@@UAEPAXI@Z 00407dc0 f i paramtestermainwindowbase.obj
 0001:00006dc0       ??_GQSpacerItem@@UAEPAXI@Z 00407dc0 f i paramtestermainwindowbase.obj
 0001:00006df0       ??_GQSplitter@@UAEPAXI@Z   00407df0 f i paramtestermainwindowbase.obj
 0001:00006df0       ??_EQSplitter@@UAEPAXI@Z   00407df0 f i paramtestermainwindowbase.obj
 0001:00006e20       ??_EQVBoxLayout@@UAEPAXI@Z 00407e20 f i paramtestermainwindowbase.obj
 0001:00006e20       ??_GQVBoxLayout@@UAEPAXI@Z 00407e20 f i paramtestermainwindowbase.obj
 0001:00006e50       ??_EQWidget@@UAEPAXI@Z     00407e50 f i paramtestermainwindowbase.obj
 0001:00006e50       ??_GQWidget@@UAEPAXI@Z     00407e50 f i paramtestermainwindowbase.obj
 0001:00006e80       ?languageChange@ParamTesterMainWindowBase@@MAEXXZ 00407e80 f   paramtestermainwindowbase.obj
 0001:00007700       ?metaObject@ParamTesterMainWindowBase@@UBEPAVQMetaObject@@XZ 00408700 f i paramtestermainwindowbase.obj
 0001:00007710       ??0?$basic_string@DU?$char_traits@D@std@@V?$allocator@D@2@@std@@QAE@$$QAV01@@Z 00408710 f i ccLibrary_vs2013:ccClient.obj
 0001:00007780       ??0ccClient@@QAE@PAVIccClientCallback@@ABV?$basic_string@DU?$char_traits@D@std@@V?$allocator@D@2@@std@@@Z 00408780 f   ccLibrary_vs2013:ccClient.obj
 0001:00007970       ??1?$queue@V?$basic_string@DU?$char_traits@D@std@@V?$allocator@D@2@@std@@V?$deque@V?$basic_string@DU?$char_traits@D@std@@V?$allocator@D@2@@std@@V?$allocator@V?$basic_string@DU?$char_traits@D@std@@V?$allocator@D@2@@std@@@2@@2@@std@@QAE@XZ 00408970 f i ccLibrary_vs2013:ccClient.obj
 0001:00007990       ??1ccClient@@UAE@XZ        00408990 f   ccLibrary_vs2013:ccClient.obj
 0001:00007a40       ??_EccClient@@UAEPAXI@Z    00408a40 f i ccLibrary_vs2013:ccClient.obj
 0001:00007a40       ??_GccClient@@UAEPAXI@Z    00408a40 f i ccLibrary_vs2013:ccClient.obj
 0001:00007a70       ?BNCSSendMessage@ccClient@@AAEJIIJHHH@Z 00408a70 f   ccLibrary_vs2013:ccClient.obj
 0001:00007ad0       ?WndProc@ccClient@@CGJPAUHWND__@@IIJ@Z 00408ad0 f   ccLibrary_vs2013:ccClient.obj
 0001:00008480       ?_Growmap@?$deque@V?$basic_string@DU?$char_traits@D@std@@V?$allocator@D@2@@std@@V?$allocator@V?$basic_string@DU?$char_traits@D@std@@V?$allocator@D@2@@std@@@2@@std@@IAEXI@Z 00409480 f i ccLibrary_vs2013:ccClient.obj
 0001:00008600       ?_Tidy@?$deque@V?$basic_string@DU?$char_traits@D@std@@V?$allocator@D@2@@std@@V?$allocator@V?$basic_string@DU?$char_traits@D@std@@V?$allocator@D@2@@std@@@2@@std@@IAEXXZ 00409600 f i ccLibrary_vs2013:ccClient.obj
 0001:000086a0       ?begin@?$deque@V?$basic_string@DU?$char_traits@D@std@@V?$allocator@D@2@@std@@V?$allocator@V?$basic_string@DU?$char_traits@D@std@@V?$allocator@D@2@@std@@@2@@std@@QAE?AV?$_Deque_iterator@V?$_Deque_val@U?$_Deque_simple_types@V?$basic_string@DU?$char_traits@D@std@@V?$allocator@D@2@@std@@@std@@@std@@@2@XZ 004096a0 f i ccLibrary_vs2013:ccClient.obj
 0001:000086c0       ?connect@ccClient@@QAE_NW4ipcType@cc@@J@Z 004096c0 f   ccLibrary_vs2013:ccClient.obj
 0001:00008950       ?devicePoll@ccClient@@AAEXDHHH_N@Z 00409950 f   ccLibrary_vs2013:ccClient.obj
 0001:00008a90       ?disconnect@ccClient@@QAE_NXZ 00409a90 f   ccLibrary_vs2013:ccClient.obj
 0001:00008af0       ?gpiPoll@ccClient@@QAEXHHH_N@Z 00409af0 f   ccLibrary_vs2013:ccClient.obj
 0001:00008b10       ?gpiSwitch@ccClient@@QAEXHH_N0H@Z 00409b10 f   ccLibrary_vs2013:ccClient.obj
 0001:00008bf0       ?infoPoll@ccClient@@QAEXHHH_N@Z 00409bf0 f   ccLibrary_vs2013:ccClient.obj
 0001:00008c10       ?infoWrite@ccClient@@QAEXHHABV?$basic_string@DU?$char_traits@D@std@@V?$allocator@D@2@@std@@_NH@Z 00409c10 f   ccLibrary_vs2013:ccClient.obj
 0001:00008d00       ?push_back@?$deque@V?$basic_string@DU?$char_traits@D@std@@V?$allocator@D@2@@std@@V?$allocator@V?$basic_string@DU?$char_traits@D@std@@V?$allocator@D@2@@std@@@2@@std@@QAEX$$QAV?$basic_string@DU?$char_traits@D@std@@V?$allocator@D@2@@2@@Z 00409d00 f i ccLibrary_vs2013:ccClient.obj
 0001:00008d70       ?push_back@?$deque@V?$basic_string@DU?$char_traits@D@std@@V?$allocator@D@2@@std@@V?$allocator@V?$basic_string@DU?$char_traits@D@std@@V?$allocator@D@2@@std@@@2@@std@@QAEXABV?$basic_string@DU?$char_traits@D@std@@V?$allocator@D@2@@2@@Z 00409d70 f i ccLibrary_vs2013:ccClient.obj
 0001:00008e30       ?revertiveDeregister@ccClient@@QAEXHHH@Z 00409e30 f   ccLibrary_vs2013:ccClient.obj
 0001:00008eb0       ?revertiveRegister@ccClient@@QAEXHHH_NH@Z 00409eb0 f   ccLibrary_vs2013:ccClient.obj
 0001:00008f50       ?routerCrosspoint@ccClient@@QAEXHHHABV?$basic_string@DU?$char_traits@D@std@@V?$allocator@D@2@@std@@_NH@Z 00409f50 f   ccLibrary_vs2013:ccClient.obj
 0001:00009040       ?routerPoll@ccClient@@QAEXHHH_N@Z 0040a040 f   ccLibrary_vs2013:ccClient.obj
 0001:00009060       ??$?HDU?$char_traits@D@std@@V?$allocator@D@1@@std@@YA?AV?$basic_string@DU?$char_traits@D@std@@V?$allocator@D@2@@0@$$QAV10@ABV10@@Z 0040a060 f i ccLibrary_vs2013:ccCheck.obj
 0001:000090e0       ??$?HDU?$char_traits@D@std@@V?$allocator@D@1@@std@@YA?AV?$basic_string@DU?$char_traits@D@std@@V?$allocator@D@2@@0@$$QAV10@PBD@Z 0040a0e0 f i ccLibrary_vs2013:ccCheck.obj
 0001:00009180       ??$?HDU?$char_traits@D@std@@V?$allocator@D@1@@std@@YA?AV?$basic_string@DU?$char_traits@D@std@@V?$allocator@D@2@@0@ABV10@PBD@Z 0040a180 f i ccLibrary_vs2013:ccCheck.obj
 0001:00009270       ??$?HDU?$char_traits@D@std@@V?$allocator@D@1@@std@@YA?AV?$basic_string@DU?$char_traits@D@std@@V?$allocator@D@2@@0@PBDABV10@@Z 0040a270 f i ccLibrary_vs2013:ccCheck.obj
 0001:00009360       ??0ccCheck@@QAE@ABV?$basic_string@DU?$char_traits@D@std@@V?$allocator@D@2@@std@@@Z 0040a360 f   ccLibrary_vs2013:ccCheck.obj
 0001:000093c0       ??1ccCheck@@UAE@XZ         0040a3c0 f   ccLibrary_vs2013:ccCheck.obj
 0001:000093f0       ??_GccCheck@@UAEPAXI@Z     0040a3f0 f i ccLibrary_vs2013:ccCheck.obj
 0001:000093f0       ??_EccCheck@@UAEPAXI@Z     0040a3f0 f i ccLibrary_vs2013:ccCheck.obj
 0001:00009440       ?append@?$basic_string@DU?$char_traits@D@std@@V?$allocator@D@2@@std@@QAEAAV12@ABV12@II@Z 0040a440 f i ccLibrary_vs2013:ccCheck.obj
 0001:00009500       ?append@?$basic_string@DU?$char_traits@D@std@@V?$allocator@D@2@@std@@QAEAAV12@PBDI@Z 0040a500 f i ccLibrary_vs2013:ccCheck.obj
 0001:000095f0       ?checkDatabase@ccCheck@@QAE_NII@Z 0040a5f0 f   ccLibrary_vs2013:ccCheck.obj
 0001:00009690       ?checkDevice@ccCheck@@QAE_NI@Z 0040a690 f   ccLibrary_vs2013:ccCheck.obj
 0001:00009770       ?checkIndex@ccCheck@@QAE_NI@Z 0040a770 f   ccLibrary_vs2013:ccCheck.obj
 0001:00009850       ?checkIndexRange@ccCheck@@QAE_NII@Z 0040a850 f   ccLibrary_vs2013:ccCheck.obj
 0001:00009900       ?checkSource@ccCheck@@QAE_NH@Z 0040a900 f   ccLibrary_vs2013:ccCheck.obj
 0001:000099e0       ?checkString@ccCheck@@QAE_NABV?$basic_string@DU?$char_traits@D@std@@V?$allocator@D@2@@std@@@Z 0040a9e0 f   ccLibrary_vs2013:ccCheck.obj
 0001:00009a70       ?checkWorkstation@ccCheck@@QAE_NI@Z 0040aa70 f   ccLibrary_vs2013:ccCheck.obj
 0001:00009b90       ?log@ccCheck@@QAEXABV?$basic_string@DU?$char_traits@D@std@@V?$allocator@D@2@@std@@@Z 0040ab90 f   ccLibrary_vs2013:ccCheck.obj
 0001:00009c80       ?setMaxDatabase@ccCheck@@QAEXI@Z 0040ac80 f   ccLibrary_vs2013:ccCheck.obj
 0001:00009c90       ?setMaxDevice@ccCheck@@QAEXI@Z 0040ac90 f   ccLibrary_vs2013:ccCheck.obj
 0001:00009ca0       ?setMaxIndex@ccCheck@@QAEXI@Z 0040aca0 f   ccLibrary_vs2013:ccCheck.obj
 0001:00009cb0       ?setMaxSource@ccCheck@@QAEXH@Z 0040acb0 f   ccLibrary_vs2013:ccCheck.obj
 0001:00009cc0       ?setMaxString@ccCheck@@QAEXI@Z 0040acc0 f   ccLibrary_vs2013:ccCheck.obj
 0001:00009ce0       ?getDevPath@ccConfig@@SA?AV?$basic_string@DU?$char_traits@D@std@@V?$allocator@D@2@@std@@XZ 0040ace0 f   ccLibrary_vs2013:ccConfig.obj
 0001:00009ef0       ?getInt@ccConfig@@SAHABV?$basic_string@DU?$char_traits@D@std@@V?$allocator@D@2@@std@@00H_N@Z 0040aef0 f   ccLibrary_vs2013:ccConfig.obj
 0001:0000a040       ?isV3Based@ccConfig@@SA_NXZ 0040b040 f   ccLibrary_vs2013:ccConfig.obj
 0001:0000a0f0       ?workstation@ccConfig@@SAHXZ 0040b0f0 f   ccLibrary_vs2013:ccConfig.obj
 0001:0000a450       ??0cBncsVersion@@QAE@PBD@Z 0040b450 f   BncsVersionInfo:cBncsVersion.obj
 0001:0000aa70       ??1cBncsVersion@@UAE@XZ    0040ba70 f   BncsVersionInfo:cBncsVersion.obj
 0001:0000ab50       ??_EcBncsVersion@@UAEPAXI@Z 0040bb50 f i BncsVersionInfo:cBncsVersion.obj
 0001:0000ab50       ??_GcBncsVersion@@UAEPAXI@Z 0040bb50 f i BncsVersionInfo:cBncsVersion.obj
 0001:0000ab80       ??0decodeCaptionString@@QAE@PBD@Z 0040bb80 f   decodecaptionstring:decodecaptionstring.obj
 0001:0000aba0       ??1decodeCaptionString@@QAE@XZ 0040bba0 f   decodecaptionstring:decodecaptionstring.obj
 0001:0000abc0       ?split@decodeCaptionString@@AAEXPBD@Z 0040bbc0 f i decodecaptionstring:decodecaptionstring.obj
 0001:0000adc0       ??0decodeBNCSString@@QAE@PBDD@Z 0040bdc0 f   decodecaptionstring:decodeBNCSString.obj
 0001:0000adf0       ??1decodeBNCSString@@UAE@XZ 0040bdf0 f   decodecaptionstring:decodeBNCSString.obj
 0001:0000ae10       ??_EdecodeBNCSString@@UAEPAXI@Z 0040be10 f i decodecaptionstring:decodeBNCSString.obj
 0001:0000ae10       ??_GdecodeBNCSString@@UAEPAXI@Z 0040be10 f i decodecaptionstring:decodeBNCSString.obj
 0001:0000ae50       ?split@decodeBNCSString@@AAEXPBD@Z 0040be50 f i decodecaptionstring:decodeBNCSString.obj
 0001:0000b072       ?show@QMainWindow@@UAEXXZ  0040c072 f   qt-mt323:qt-mt323.dll
 0001:0000b078       ?acceptDrop@QListViewItem@@UBE_NPBVQMimeSource@@@Z 0040c078 f   qt-mt323:qt-mt323.dll
 0001:0000b07e       ?activate@QListViewItem@@MAEXXZ 0040c07e f   qt-mt323:qt-mt323.dll
 0001:0000b084       ?cancelRename@QListViewItem@@MAEXH@Z 0040c084 f   qt-mt323:qt-mt323.dll
 0001:0000b08a       ?dragEntered@QListViewItem@@MAEXXZ 0040c08a f   qt-mt323:qt-mt323.dll
 0001:0000b090       ?dragLeft@QListViewItem@@MAEXXZ 0040c090 f   qt-mt323:qt-mt323.dll
 0001:0000b096       ?dropped@QListViewItem@@MAEXPAVQDropEvent@@@Z 0040c096 f   qt-mt323:qt-mt323.dll
 0001:0000b09c       ?enforceSortOrder@QListViewItem@@MBEXXZ 0040c09c f   qt-mt323:qt-mt323.dll
 0001:0000b0a2       ?insertItem@QListViewItem@@UAEXPAV1@@Z 0040c0a2 f   qt-mt323:qt-mt323.dll
 0001:0000b0a8       ?invalidateHeight@QListViewItem@@UAEXXZ 0040c0a8 f   qt-mt323:qt-mt323.dll
 0001:0000b0ae       ?key@QListViewItem@@UBE?AVQString@@H_N@Z 0040c0ae f   qt-mt323:qt-mt323.dll
 0001:0000b0b4       ?okRename@QListViewItem@@MAEXH@Z 0040c0b4 f   qt-mt323:qt-mt323.dll
 0001:0000b0ba       ?paintBranches@QListViewItem@@UAEXPAVQPainter@@ABVQColorGroup@@HHH@Z 0040c0ba f   qt-mt323:qt-mt323.dll
 0001:0000b0c0       ?paintCell@QListViewItem@@UAEXPAVQPainter@@ABVQColorGroup@@HHH@Z 0040c0c0 f   qt-mt323:qt-mt323.dll
 0001:0000b0c6       ?paintFocus@QListViewItem@@UAEXPAVQPainter@@ABVQColorGroup@@ABVQRect@@@Z 0040c0c6 f   qt-mt323:qt-mt323.dll
 0001:0000b0cc       ?pixmap@QListViewItem@@UBEPBVQPixmap@@H@Z 0040c0cc f   qt-mt323:qt-mt323.dll
 0001:0000b0d2       ?removeItem@QListViewItem@@UAEXPAV1@@Z 0040c0d2 f   qt-mt323:qt-mt323.dll
 0001:0000b0d8       ?rtti@QListViewItem@@UBEHXZ 0040c0d8 f   qt-mt323:qt-mt323.dll
 0001:0000b0de       ?setDragEnabled@QListViewItem@@UAEX_N@Z 0040c0de f   qt-mt323:qt-mt323.dll
 0001:0000b0e4       ?setDropEnabled@QListViewItem@@UAEX_N@Z 0040c0e4 f   qt-mt323:qt-mt323.dll
 0001:0000b0ea       ?setEnabled@QListViewItem@@UAEX_N@Z 0040c0ea f   qt-mt323:qt-mt323.dll
 0001:0000b0f0       ?setExpandable@QListViewItem@@UAEX_N@Z 0040c0f0 f   qt-mt323:qt-mt323.dll
 0001:0000b0f6       ?setHeight@QListViewItem@@MAEXH@Z 0040c0f6 f   qt-mt323:qt-mt323.dll
 0001:0000b0fc       ?setMultiLinesEnabled@QListViewItem@@UAEX_N@Z 0040c0fc f   qt-mt323:qt-mt323.dll
 0001:0000b102       ?setOpen@QListViewItem@@UAEX_N@Z 0040c102 f   qt-mt323:qt-mt323.dll
 0001:0000b108       ?setPixmap@QListViewItem@@UAEXHABVQPixmap@@@Z 0040c108 f   qt-mt323:qt-mt323.dll
 0001:0000b10e       ?setRenameEnabled@QListViewItem@@UAEXH_N@Z 0040c10e f   qt-mt323:qt-mt323.dll
 0001:0000b114       ?setSelectable@QListViewItem@@UAEX_N@Z 0040c114 f   qt-mt323:qt-mt323.dll
 0001:0000b11a       ?setSelected@QListViewItem@@UAEX_N@Z 0040c11a f   qt-mt323:qt-mt323.dll
 0001:0000b120       ?setText@QListViewItem@@UAEXHABVQString@@@Z 0040c120 f   qt-mt323:qt-mt323.dll
 0001:0000b126       ?setup@QListViewItem@@UAEXXZ 0040c126 f   qt-mt323:qt-mt323.dll
 0001:0000b12c       ?sort@QListViewItem@@UAEXXZ 0040c12c f   qt-mt323:qt-mt323.dll
 0001:0000b132       ?sortChildItems@QListViewItem@@UAEXH_N@Z 0040c132 f   qt-mt323:qt-mt323.dll
 0001:0000b138       ?startRename@QListViewItem@@UAEXH@Z 0040c138 f   qt-mt323:qt-mt323.dll
 0001:0000b13e       ?takeItem@QListViewItem@@UAEXPAV1@@Z 0040c13e f   qt-mt323:qt-mt323.dll
 0001:0000b144       ?text@QListViewItem@@UBE?AVQString@@H@Z 0040c144 f   qt-mt323:qt-mt323.dll
 0001:0000b14a       ?width@QListViewItem@@UBEHABVQFontMetrics@@PBVQListView@@H@Z 0040c14a f   qt-mt323:qt-mt323.dll
 0001:0000b150       ?setCaption@QWidget@@UAEXABVQString@@@Z 0040c150 f   qt-mt323:qt-mt323.dll
 0001:0000b156       ?setIcon@QWidget@@UAEXABVQPixmap@@@Z 0040c156 f   qt-mt323:qt-mt323.dll
 0001:0000b15c       ?firstChild@QDomNode@@UBE?AV1@XZ 0040c15c f   qt-mt323:qt-mt323.dll
 0001:0000b162       ?nextSibling@QDomNode@@UBE?AV1@XZ 0040c162 f   qt-mt323:qt-mt323.dll
 0001:0000b168       ?accept@QDialog@@MAEXXZ    0040c168 f   qt-mt323:qt-mt323.dll
 0001:0000b16e       ?activateItemAt@QMenuBar@@UAEXH@Z 0040c16e f   qt-mt323:qt-mt323.dll
 0001:0000b174       ?activateItemAt@QPopupMenu@@UAEXH@Z 0040c174 f   qt-mt323:qt-mt323.dll
 0001:0000b17a       ?addDockWindow@QMainWindow@@UAEXPAVQDockWindow@@ABVQString@@W4Dock@Qt@@_N@Z 0040c17a f   qt-mt323:qt-mt323.dll
 0001:0000b180       ?addDockWindow@QMainWindow@@UAEXPAVQDockWindow@@W4Dock@Qt@@_N@Z 0040c180 f   qt-mt323:qt-mt323.dll
 0001:0000b186       ?adjustSize@QWidget@@UAEXXZ 0040c186 f   qt-mt323:qt-mt323.dll
 0001:0000b18c       ?appendChild@QDomNode@@UAE?AV1@ABV1@@Z 0040c18c f   qt-mt323:qt-mt323.dll
 0001:0000b192       ?attributes@QDomElement@@UBE?AVQDomNamedNodeMap@@XZ 0040c192 f   qt-mt323:qt-mt323.dll
 0001:0000b198       ?checkConnectArgs@QObject@@MAE_NPBDPBV1@0@Z 0040c198 f   qt-mt323:qt-mt323.dll
 0001:0000b19e       ?childEvent@QMainWindow@@MAEXPAVQChildEvent@@@Z 0040c19e f   qt-mt323:qt-mt323.dll
 0001:0000b1a4       ?childEvent@QObject@@MAEXPAVQChildEvent@@@Z 0040c1a4 f   qt-mt323:qt-mt323.dll
 0001:0000b1aa       ?childNodes@QDomNode@@UBE?AVQDomNodeList@@XZ 0040c1aa f   qt-mt323:qt-mt323.dll
 0001:0000b1b0       ?className@QMenuBar@@UBEPBDXZ 0040c1b0 f   qt-mt323:qt-mt323.dll
 0001:0000b1b6       ?className@QPopupMenu@@UBEPBDXZ 0040c1b6 f   qt-mt323:qt-mt323.dll
 0001:0000b1bc       ?className@QProgressDialog@@UBEPBDXZ 0040c1bc f   qt-mt323:qt-mt323.dll
 0001:0000b1c2       ?className@QPushButton@@UBEPBDXZ 0040c1c2 f   qt-mt323:qt-mt323.dll
 0001:0000b1c8       ?cloneNode@QDomNode@@UBE?AV1@_N@Z 0040c1c8 f   qt-mt323:qt-mt323.dll
 0001:0000b1ce       ?close@QWidget@@UAE_N_N@Z  0040c1ce f   qt-mt323:qt-mt323.dll
 0001:0000b1d4       ?closeEvent@QPopupMenu@@MAEXPAVQCloseEvent@@@Z 0040c1d4 f   qt-mt323:qt-mt323.dll
 0001:0000b1da       ?closeEvent@QProgressDialog@@MAEXPAVQCloseEvent@@@Z 0040c1da f   qt-mt323:qt-mt323.dll
 0001:0000b1e0       ?closeEvent@QWidget@@MAEXPAVQCloseEvent@@@Z 0040c1e0 f   qt-mt323:qt-mt323.dll
 0001:0000b1e6       ?cmd@QPaintDevice@@MAE_NHPAVQPainter@@PATQPDevCmdParam@@@Z 0040c1e6 f   qt-mt323:qt-mt323.dll
 0001:0000b1ec       ?compareItems@QGList@@MAEHPAX0@Z 0040c1ec f   qt-mt323:qt-mt323.dll
 0001:0000b1f2       ?connectNotify@QObject@@MAEXPBD@Z 0040c1f2 f   qt-mt323:qt-mt323.dll
 0001:0000b1f8       ?contextMenuEvent@QDialog@@MAEXPAVQContextMenuEvent@@@Z 0040c1f8 f   qt-mt323:qt-mt323.dll
 0001:0000b1fe       ?contextMenuEvent@QWidget@@MAEXPAVQContextMenuEvent@@@Z 0040c1fe f   qt-mt323:qt-mt323.dll
 0001:0000b204       ?create@QWidget@@MAEXPAUHWND__@@_N1@Z 0040c204 f   qt-mt323:qt-mt323.dll
 0001:0000b20a       ?customEvent@QObject@@MAEXPAVQCustomEvent@@@Z 0040c20a f   qt-mt323:qt-mt323.dll
 0001:0000b210       ?customWhatsThis@QMenuBar@@UBE_NXZ 0040c210 f   qt-mt323:qt-mt323.dll
 0001:0000b216       ?customWhatsThis@QPopupMenu@@UBE_NXZ 0040c216 f   qt-mt323:qt-mt323.dll
 0001:0000b21c       ?customWhatsThis@QWidget@@UBE_NXZ 0040c21c f   qt-mt323:qt-mt323.dll
 0001:0000b222       ?customize@QMainWindow@@UAEXXZ 0040c222 f   qt-mt323:qt-mt323.dll
 0001:0000b228       ?destroy@QWidget@@MAEX_N0@Z 0040c228 f   qt-mt323:qt-mt323.dll
 0001:0000b22e       ?disconnectNotify@QObject@@MAEXPBD@Z 0040c22e f   qt-mt323:qt-mt323.dll
 0001:0000b234       ?dockingArea@QMainWindow@@UAEPAVQDockArea@@ABVQPoint@@@Z 0040c234 f   qt-mt323:qt-mt323.dll
 0001:0000b23a       ?done@QDialog@@MAEXH@Z     0040c23a f   qt-mt323:qt-mt323.dll
 0001:0000b240       ?dragEnterEvent@QWidget@@MAEXPAVQDragEnterEvent@@@Z 0040c240 f   qt-mt323:qt-mt323.dll
 0001:0000b246       ?dragLeaveEvent@QWidget@@MAEXPAVQDragLeaveEvent@@@Z 0040c246 f   qt-mt323:qt-mt323.dll
 0001:0000b24c       ?dragMoveEvent@QWidget@@MAEXPAVQDragMoveEvent@@@Z 0040c24c f   qt-mt323:qt-mt323.dll
 0001:0000b252       ?drawButton@QPushButton@@MAEXPAVQPainter@@@Z 0040c252 f   qt-mt323:qt-mt323.dll
 0001:0000b258       ?drawButtonLabel@QPushButton@@MAEXPAVQPainter@@@Z 0040c258 f   qt-mt323:qt-mt323.dll
 0001:0000b25e       ?drawContents@QMenuBar@@MAEXPAVQPainter@@@Z 0040c25e f   qt-mt323:qt-mt323.dll
 0001:0000b264       ?drawContents@QPopupMenu@@MAEXPAVQPainter@@@Z 0040c264 f   qt-mt323:qt-mt323.dll
 0001:0000b26a       ?drawFrame@QFrame@@MAEXPAVQPainter@@@Z 0040c26a f   qt-mt323:qt-mt323.dll
 0001:0000b270       ?dropEvent@QWidget@@MAEXPAVQDropEvent@@@Z 0040c270 f   qt-mt323:qt-mt323.dll
 0001:0000b276       ?elementsByTagName@QDomElement@@UBE?AVQDomNodeList@@ABVQString@@@Z 0040c276 f   qt-mt323:qt-mt323.dll
 0001:0000b27c       ?elementsByTagNameNS@QDomElement@@UBE?AVQDomNodeList@@ABVQString@@0@Z 0040c27c f   qt-mt323:qt-mt323.dll
 0001:0000b282       ?enabledChange@QButton@@MAEX_N@Z 0040c282 f   qt-mt323:qt-mt323.dll
 0001:0000b288       ?enabledChange@QPopupMenu@@MAEX_N@Z 0040c288 f   qt-mt323:qt-mt323.dll
 0001:0000b28e       ?enabledChange@QWidget@@MAEX_N@Z 0040c28e f   qt-mt323:qt-mt323.dll
 0001:0000b294       ?enterEvent@QWidget@@MAEXPAVQEvent@@@Z 0040c294 f   qt-mt323:qt-mt323.dll
 0001:0000b29a       ?event@QMainWindow@@MAE_NPAVQEvent@@@Z 0040c29a f   qt-mt323:qt-mt323.dll
 0001:0000b2a0       ?event@QWidget@@MAE_NPAVQEvent@@@Z 0040c2a0 f   qt-mt323:qt-mt323.dll
 0001:0000b2a6       ?eventFilter@QDialog@@MAE_NPAVQObject@@PAVQEvent@@@Z 0040c2a6 f   qt-mt323:qt-mt323.dll
 0001:0000b2ac       ?eventFilter@QMainWindow@@UAE_NPAVQObject@@PAVQEvent@@@Z 0040c2ac f   qt-mt323:qt-mt323.dll
 0001:0000b2b2       ?eventFilter@QMenuBar@@UAE_NPAVQObject@@PAVQEvent@@@Z 0040c2b2 f   qt-mt323:qt-mt323.dll
 0001:0000b2b8       ?eventFilter@QObject@@UAE_NPAV1@PAVQEvent@@@Z 0040c2b8 f   qt-mt323:qt-mt323.dll
 0001:0000b2be       ?focusInEvent@QMenuBar@@MAEXPAVQFocusEvent@@@Z 0040c2be f   qt-mt323:qt-mt323.dll
 0001:0000b2c4       ?focusInEvent@QPopupMenu@@MAEXPAVQFocusEvent@@@Z 0040c2c4 f   qt-mt323:qt-mt323.dll
 0001:0000b2ca       ?focusInEvent@QPushButton@@MAEXPAVQFocusEvent@@@Z 0040c2ca f   qt-mt323:qt-mt323.dll
 0001:0000b2d0       ?focusInEvent@QWidget@@MAEXPAVQFocusEvent@@@Z 0040c2d0 f   qt-mt323:qt-mt323.dll
 0001:0000b2d6       ?focusNextPrevChild@QPopupMenu@@MAE_N_N@Z 0040c2d6 f   qt-mt323:qt-mt323.dll
 0001:0000b2dc       ?focusNextPrevChild@QWidget@@MAE_N_N@Z 0040c2dc f   qt-mt323:qt-mt323.dll
 0001:0000b2e2       ?focusOutEvent@QMenuBar@@MAEXPAVQFocusEvent@@@Z 0040c2e2 f   qt-mt323:qt-mt323.dll
 0001:0000b2e8       ?focusOutEvent@QPopupMenu@@MAEXPAVQFocusEvent@@@Z 0040c2e8 f   qt-mt323:qt-mt323.dll
 0001:0000b2ee       ?focusOutEvent@QPushButton@@MAEXPAVQFocusEvent@@@Z 0040c2ee f   qt-mt323:qt-mt323.dll
 0001:0000b2f4       ?focusOutEvent@QWidget@@MAEXPAVQFocusEvent@@@Z 0040c2f4 f   qt-mt323:qt-mt323.dll
 0001:0000b2fa       ?fontChange@QMenuBar@@MAEXABVQFont@@@Z 0040c2fa f   qt-mt323:qt-mt323.dll
 0001:0000b300       ?fontChange@QWidget@@MAEXABVQFont@@@Z 0040c300 f   qt-mt323:qt-mt323.dll
 0001:0000b306       ?fontInf@QPaintDevice@@MBEHPAVQFont@@H@Z 0040c306 f   qt-mt323:qt-mt323.dll
 0001:0000b30c       ?fontMet@QPaintDevice@@MBEHPAVQFont@@HPBDH@Z 0040c30c f   qt-mt323:qt-mt323.dll
 0001:0000b312       ?frameChanged@QMenuBar@@EAEXXZ 0040c312 f   qt-mt323:qt-mt323.dll
 0001:0000b318       ?frameChanged@QPopupMenu@@EAEXXZ 0040c318 f   qt-mt323:qt-mt323.dll
 0001:0000b31e       ?handle@QPaintDevice@@UBEPAUHDC__@@XZ 0040c31e f   qt-mt323:qt-mt323.dll
 0001:0000b324       ?hasAttributes@QDomNode@@UBE_NXZ 0040c324 f   qt-mt323:qt-mt323.dll
 0001:0000b32a       ?hasChildNodes@QDomNode@@UBE_NXZ 0040c32a f   qt-mt323:qt-mt323.dll
 0001:0000b330       ?heightForWidth@QMenuBar@@UBEHH@Z 0040c330 f   qt-mt323:qt-mt323.dll
 0001:0000b336       ?heightForWidth@QWidget@@UBEHH@Z 0040c336 f   qt-mt323:qt-mt323.dll
 0001:0000b33c       ?hide@QDialog@@UAEXXZ      0040c33c f   qt-mt323:qt-mt323.dll
 0001:0000b342       ?hide@QMainWindow@@UAEXXZ  0040c342 f   qt-mt323:qt-mt323.dll
 0001:0000b348       ?hide@QMenuBar@@UAEXXZ     0040c348 f   qt-mt323:qt-mt323.dll
 0001:0000b34e       ?hide@QPopupMenu@@UAEXXZ   0040c34e f   qt-mt323:qt-mt323.dll
 0001:0000b354       ?hide@QWidget@@UAEXXZ      0040c354 f   qt-mt323:qt-mt323.dll
 0001:0000b35a       ?hideEvent@QWidget@@MAEXPAVQHideEvent@@@Z 0040c35a f   qt-mt323:qt-mt323.dll
 0001:0000b360       ?hitButton@QButton@@MBE_NABVQPoint@@@Z 0040c360 f   qt-mt323:qt-mt323.dll
 0001:0000b366       ?imComposeEvent@QWidget@@MAEXPAVQIMEvent@@@Z 0040c366 f   qt-mt323:qt-mt323.dll
 0001:0000b36c       ?imEndEvent@QWidget@@MAEXPAVQIMEvent@@@Z 0040c36c f   qt-mt323:qt-mt323.dll
 0001:0000b372       ?imStartEvent@QWidget@@MAEXPAVQIMEvent@@@Z 0040c372 f   qt-mt323:qt-mt323.dll
 0001:0000b378       ?insertAfter@QDomNode@@UAE?AV1@ABV1@0@Z 0040c378 f   qt-mt323:qt-mt323.dll
 0001:0000b37e       ?insertBefore@QDomNode@@UAE?AV1@ABV1@0@Z 0040c37e f   qt-mt323:qt-mt323.dll
 0001:0000b384       ?insertChild@QObject@@UAEXPAV1@@Z 0040c384 f   qt-mt323:qt-mt323.dll
 0001:0000b38a       ?isAttr@QDomNode@@UBE_NXZ  0040c38a f   qt-mt323:qt-mt323.dll
 0001:0000b390       ?isCDATASection@QDomNode@@UBE_NXZ 0040c390 f   qt-mt323:qt-mt323.dll
 0001:0000b396       ?isCharacterData@QDomNode@@UBE_NXZ 0040c396 f   qt-mt323:qt-mt323.dll
 0001:0000b39c       ?isComment@QDomNode@@UBE_NXZ 0040c39c f   qt-mt323:qt-mt323.dll
 0001:0000b3a2       ?isCustomizable@QMainWindow@@UBE_NXZ 0040c3a2 f   qt-mt323:qt-mt323.dll
 0001:0000b3a8       ?isDocument@QDomNode@@UBE_NXZ 0040c3a8 f   qt-mt323:qt-mt323.dll
 0001:0000b3ae       ?isDocumentFragment@QDomNode@@UBE_NXZ 0040c3ae f   qt-mt323:qt-mt323.dll
 0001:0000b3b4       ?isDocumentType@QDomNode@@UBE_NXZ 0040c3b4 f   qt-mt323:qt-mt323.dll
 0001:0000b3ba       ?isElement@QDomElement@@UBE_NXZ 0040c3ba f   qt-mt323:qt-mt323.dll
 0001:0000b3c0       ?isEntity@QDomNode@@UBE_NXZ 0040c3c0 f   qt-mt323:qt-mt323.dll
 0001:0000b3c6       ?isEntityReference@QDomNode@@UBE_NXZ 0040c3c6 f   qt-mt323:qt-mt323.dll
 0001:0000b3cc       ?isNotation@QDomNode@@UBE_NXZ 0040c3cc f   qt-mt323:qt-mt323.dll
 0001:0000b3d2       ?isProcessingInstruction@QDomNode@@UBE_NXZ 0040c3d2 f   qt-mt323:qt-mt323.dll
 0001:0000b3d8       ?isSupported@QDomNode@@UBE_NABVQString@@0@Z 0040c3d8 f   qt-mt323:qt-mt323.dll
 0001:0000b3de       ?isText@QDomNode@@UBE_NXZ  0040c3de f   qt-mt323:qt-mt323.dll
 0001:0000b3e4       ?keyPressEvent@QButton@@MAEXPAVQKeyEvent@@@Z 0040c3e4 f   qt-mt323:qt-mt323.dll
 0001:0000b3ea       ?keyPressEvent@QDialog@@MAEXPAVQKeyEvent@@@Z 0040c3ea f   qt-mt323:qt-mt323.dll
 0001:0000b3f0       ?keyPressEvent@QMenuBar@@MAEXPAVQKeyEvent@@@Z 0040c3f0 f   qt-mt323:qt-mt323.dll
 0001:0000b3f6       ?keyPressEvent@QPopupMenu@@MAEXPAVQKeyEvent@@@Z 0040c3f6 f   qt-mt323:qt-mt323.dll
 0001:0000b3fc       ?keyPressEvent@QWidget@@MAEXPAVQKeyEvent@@@Z 0040c3fc f   qt-mt323:qt-mt323.dll
 0001:0000b402       ?keyReleaseEvent@QButton@@MAEXPAVQKeyEvent@@@Z 0040c402 f   qt-mt323:qt-mt323.dll
 0001:0000b408       ?keyReleaseEvent@QWidget@@MAEXPAVQKeyEvent@@@Z 0040c408 f   qt-mt323:qt-mt323.dll
 0001:0000b40e       ?lastChild@QDomNode@@UBE?AV1@XZ 0040c40e f   qt-mt323:qt-mt323.dll
 0001:0000b414       ?leaveEvent@QMenuBar@@MAEXPAVQEvent@@@Z 0040c414 f   qt-mt323:qt-mt323.dll
 0001:0000b41a       ?leaveEvent@QPopupMenu@@MAEXPAVQEvent@@@Z 0040c41a f   qt-mt323:qt-mt323.dll
 0001:0000b420       ?leaveEvent@QWidget@@MAEXPAVQEvent@@@Z 0040c420 f   qt-mt323:qt-mt323.dll
 0001:0000b426       ?localName@QDomNode@@UBE?AVQString@@XZ 0040c426 f   qt-mt323:qt-mt323.dll
 0001:0000b42c       ?menuContentsChanged@QMenuBar@@MAEXXZ 0040c42c f   qt-mt323:qt-mt323.dll
 0001:0000b432       ?menuContentsChanged@QPopupMenu@@EAEXXZ 0040c432 f   qt-mt323:qt-mt323.dll
 0001:0000b438       ?menuDelPopup@QMenuBar@@EAEXPAVQPopupMenu@@@Z 0040c438 f   qt-mt323:qt-mt323.dll
 0001:0000b43e       ?menuDelPopup@QPopupMenu@@EAEXPAV1@@Z 0040c43e f   qt-mt323:qt-mt323.dll
 0001:0000b444       ?menuInsPopup@QMenuBar@@EAEXPAVQPopupMenu@@@Z 0040c444 f   qt-mt323:qt-mt323.dll
 0001:0000b44a       ?menuInsPopup@QPopupMenu@@EAEXPAV1@@Z 0040c44a f   qt-mt323:qt-mt323.dll
 0001:0000b450       ?menuStateChanged@QMenuBar@@MAEXXZ 0040c450 f   qt-mt323:qt-mt323.dll
 0001:0000b456       ?menuStateChanged@QPopupMenu@@EAEXXZ 0040c456 f   qt-mt323:qt-mt323.dll
 0001:0000b45c       ?metaObject@QMenuBar@@UBEPAVQMetaObject@@XZ 0040c45c f   qt-mt323:qt-mt323.dll
 0001:0000b462       ?metaObject@QPopupMenu@@UBEPAVQMetaObject@@XZ 0040c462 f   qt-mt323:qt-mt323.dll
 0001:0000b468       ?metaObject@QProgressDialog@@UBEPAVQMetaObject@@XZ 0040c468 f   qt-mt323:qt-mt323.dll
 0001:0000b46e       ?metaObject@QPushButton@@UBEPAVQMetaObject@@XZ 0040c46e f   qt-mt323:qt-mt323.dll
 0001:0000b474       ?metric@QWidget@@MBEHH@Z   0040c474 f   qt-mt323:qt-mt323.dll
 0001:0000b47a       ?minimumSizeHint@QDialog@@UBE?AVQSize@@XZ 0040c47a f   qt-mt323:qt-mt323.dll
 0001:0000b480       ?minimumSizeHint@QMainWindow@@UBE?AVQSize@@XZ 0040c480 f   qt-mt323:qt-mt323.dll
 0001:0000b486       ?minimumSizeHint@QMenuBar@@UBE?AVQSize@@XZ 0040c486 f   qt-mt323:qt-mt323.dll
 0001:0000b48c       ?minimumSizeHint@QWidget@@UBE?AVQSize@@XZ 0040c48c f   qt-mt323:qt-mt323.dll
 0001:0000b492       ?mouseDoubleClickEvent@QWidget@@MAEXPAVQMouseEvent@@@Z 0040c492 f   qt-mt323:qt-mt323.dll
 0001:0000b498       ?mouseMoveEvent@QButton@@MAEXPAVQMouseEvent@@@Z 0040c498 f   qt-mt323:qt-mt323.dll
 0001:0000b49e       ?mouseMoveEvent@QMenuBar@@MAEXPAVQMouseEvent@@@Z 0040c49e f   qt-mt323:qt-mt323.dll
 0001:0000b4a4       ?mouseMoveEvent@QPopupMenu@@MAEXPAVQMouseEvent@@@Z 0040c4a4 f   qt-mt323:qt-mt323.dll
 0001:0000b4aa       ?mouseMoveEvent@QWidget@@MAEXPAVQMouseEvent@@@Z 0040c4aa f   qt-mt323:qt-mt323.dll
 0001:0000b4b0       ?mousePressEvent@QButton@@MAEXPAVQMouseEvent@@@Z 0040c4b0 f   qt-mt323:qt-mt323.dll
 0001:0000b4b6       ?mousePressEvent@QMenuBar@@MAEXPAVQMouseEvent@@@Z 0040c4b6 f   qt-mt323:qt-mt323.dll
 0001:0000b4bc       ?mousePressEvent@QPopupMenu@@MAEXPAVQMouseEvent@@@Z 0040c4bc f   qt-mt323:qt-mt323.dll
 0001:0000b4c2       ?mousePressEvent@QWidget@@MAEXPAVQMouseEvent@@@Z 0040c4c2 f   qt-mt323:qt-mt323.dll
 0001:0000b4c8       ?mouseReleaseEvent@QButton@@MAEXPAVQMouseEvent@@@Z 0040c4c8 f   qt-mt323:qt-mt323.dll
 0001:0000b4ce       ?mouseReleaseEvent@QMenuBar@@MAEXPAVQMouseEvent@@@Z 0040c4ce f   qt-mt323:qt-mt323.dll
 0001:0000b4d4       ?mouseReleaseEvent@QPopupMenu@@MAEXPAVQMouseEvent@@@Z 0040c4d4 f   qt-mt323:qt-mt323.dll
 0001:0000b4da       ?mouseReleaseEvent@QWidget@@MAEXPAVQMouseEvent@@@Z 0040c4da f   qt-mt323:qt-mt323.dll
 0001:0000b4e0       ?move@QDialog@@UAEXHH@Z    0040c4e0 f   qt-mt323:qt-mt323.dll
 0001:0000b4e6       ?move@QPushButton@@UAEXHH@Z 0040c4e6 f   qt-mt323:qt-mt323.dll
 0001:0000b4ec       ?move@QWidget@@UAEXHH@Z    0040c4ec f   qt-mt323:qt-mt323.dll
 0001:0000b4f2       ?moveDockWindow@QMainWindow@@UAEXPAVQDockWindow@@W4Dock@Qt@@@Z 0040c4f2 f   qt-mt323:qt-mt323.dll
 0001:0000b4f8       ?moveDockWindow@QMainWindow@@UAEXPAVQDockWindow@@W4Dock@Qt@@_NHH@Z 0040c4f8 f   qt-mt323:qt-mt323.dll
 0001:0000b4fe       ?moveEvent@QWidget@@MAEXPAVQMoveEvent@@@Z 0040c4fe f   qt-mt323:qt-mt323.dll
 0001:0000b504       ?namespaceURI@QDomNode@@UBE?AVQString@@XZ 0040c504 f   qt-mt323:qt-mt323.dll
 0001:0000b50a       ?newItem@QPtrCollection@@MAEPAXPAX@Z 0040c50a f   qt-mt323:qt-mt323.dll
 0001:0000b510       ?nodeName@QDomNode@@UBE?AVQString@@XZ 0040c510 f   qt-mt323:qt-mt323.dll
 0001:0000b516       ?nodeType@QDomElement@@UBE?AW4NodeType@QDomNode@@XZ 0040c516 f   qt-mt323:qt-mt323.dll
 0001:0000b51c       ?nodeValue@QDomNode@@UBE?AVQString@@XZ 0040c51c f   qt-mt323:qt-mt323.dll
 0001:0000b522       ?normalize@QDomNode@@UAEXXZ 0040c522 f   qt-mt323:qt-mt323.dll
 0001:0000b528       ?ownerDocument@QDomNode@@UBE?AVQDomDocument@@XZ 0040c528 f   qt-mt323:qt-mt323.dll
 0001:0000b52e       ?paintEvent@QButton@@MAEXPAVQPaintEvent@@@Z 0040c52e f   qt-mt323:qt-mt323.dll
 0001:0000b534       ?paintEvent@QFrame@@MAEXPAVQPaintEvent@@@Z 0040c534 f   qt-mt323:qt-mt323.dll
 0001:0000b53a       ?paintEvent@QMainWindow@@MAEXPAVQPaintEvent@@@Z 0040c53a f   qt-mt323:qt-mt323.dll
 0001:0000b540       ?paintEvent@QPopupMenu@@MAEXPAVQPaintEvent@@@Z 0040c540 f   qt-mt323:qt-mt323.dll
 0001:0000b546       ?paintEvent@QWidget@@MAEXPAVQPaintEvent@@@Z 0040c546 f   qt-mt323:qt-mt323.dll
 0001:0000b54c       ?paletteChange@QWidget@@MAEXABVQPalette@@@Z 0040c54c f   qt-mt323:qt-mt323.dll
 0001:0000b552       ?parentNode@QDomNode@@UBE?AV1@XZ 0040c552 f   qt-mt323:qt-mt323.dll
 0001:0000b558       ?polish@QWidget@@UAEXXZ    0040c558 f   qt-mt323:qt-mt323.dll
 0001:0000b55e       ?prefix@QDomNode@@UBE?AVQString@@XZ 0040c55e f   qt-mt323:qt-mt323.dll
 0001:0000b564       ?previousSibling@QDomNode@@UBE?AV1@XZ 0040c564 f   qt-mt323:qt-mt323.dll
 0001:0000b56a       ?property@QObject@@UBE?AVQVariant@@PBD@Z 0040c56a f   qt-mt323:qt-mt323.dll
 0001:0000b570       ?qt_cast@QMenuBar@@UAEPAXPBD@Z 0040c570 f   qt-mt323:qt-mt323.dll
 0001:0000b576       ?qt_cast@QPopupMenu@@UAEPAXPBD@Z 0040c576 f   qt-mt323:qt-mt323.dll
 0001:0000b57c       ?qt_cast@QProgressDialog@@UAEPAXPBD@Z 0040c57c f   qt-mt323:qt-mt323.dll
 0001:0000b582       ?qt_cast@QPushButton@@UAEPAXPBD@Z 0040c582 f   qt-mt323:qt-mt323.dll
 0001:0000b588       ?qt_emit@QMenuBar@@UAE_NHPAUQUObject@@@Z 0040c588 f   qt-mt323:qt-mt323.dll
 0001:0000b58e       ?qt_emit@QPopupMenu@@UAE_NHPAUQUObject@@@Z 0040c58e f   qt-mt323:qt-mt323.dll
 0001:0000b594       ?qt_emit@QProgressDialog@@UAE_NHPAUQUObject@@@Z 0040c594 f   qt-mt323:qt-mt323.dll
 0001:0000b59a       ?qt_emit@QPushButton@@UAE_NHPAUQUObject@@@Z 0040c59a f   qt-mt323:qt-mt323.dll
 0001:0000b5a0       ?qt_invoke@QMenuBar@@UAE_NHPAUQUObject@@@Z 0040c5a0 f   qt-mt323:qt-mt323.dll
 0001:0000b5a6       ?qt_invoke@QPopupMenu@@UAE_NHPAUQUObject@@@Z 0040c5a6 f   qt-mt323:qt-mt323.dll
 0001:0000b5ac       ?qt_invoke@QProgressDialog@@UAE_NHPAUQUObject@@@Z 0040c5ac f   qt-mt323:qt-mt323.dll
 0001:0000b5b2       ?qt_invoke@QPushButton@@UAE_NHPAUQUObject@@@Z 0040c5b2 f   qt-mt323:qt-mt323.dll
 0001:0000b5b8       ?qt_property@QMenuBar@@UAE_NHHPAVQVariant@@@Z 0040c5b8 f   qt-mt323:qt-mt323.dll
 0001:0000b5be       ?qt_property@QPopupMenu@@UAE_NHHPAVQVariant@@@Z 0040c5be f   qt-mt323:qt-mt323.dll
 0001:0000b5c4       ?qt_property@QProgressDialog@@UAE_NHHPAVQVariant@@@Z 0040c5c4 f   qt-mt323:qt-mt323.dll
 0001:0000b5ca       ?qt_property@QPushButton@@UAE_NHHPAVQVariant@@@Z 0040c5ca f   qt-mt323:qt-mt323.dll
 0001:0000b5d0       ?read@QGList@@MAEAAVQDataStream@@AAV2@AAPAX@Z 0040c5d0 f   qt-mt323:qt-mt323.dll
 0001:0000b5d6       ?reject@QDialog@@MAEXXZ    0040c5d6 f   qt-mt323:qt-mt323.dll
 0001:0000b5dc       ?removeChild@QDomNode@@UAE?AV1@ABV1@@Z 0040c5dc f   qt-mt323:qt-mt323.dll
 0001:0000b5e2       ?removeChild@QObject@@UAEXPAV1@@Z 0040c5e2 f   qt-mt323:qt-mt323.dll
 0001:0000b5e8       ?removeDockWindow@QMainWindow@@UAEXPAVQDockWindow@@@Z 0040c5e8 f   qt-mt323:qt-mt323.dll
 0001:0000b5ee       ?reparent@QWidget@@UAEXPAV1@IABVQPoint@@_N@Z 0040c5ee f   qt-mt323:qt-mt323.dll
 0001:0000b5f4       ?replaceChild@QDomNode@@UAE?AV1@ABV1@0@Z 0040c5f4 f   qt-mt323:qt-mt323.dll
 0001:0000b5fa       ?resize@QDialog@@UAEXHH@Z  0040c5fa f   qt-mt323:qt-mt323.dll
 0001:0000b600       ?resize@QPushButton@@UAEXHH@Z 0040c600 f   qt-mt323:qt-mt323.dll
 0001:0000b606       ?resize@QWidget@@UAEXHH@Z  0040c606 f   qt-mt323:qt-mt323.dll
 0001:0000b60c       ?resizeEvent@QFrame@@MAEXPAVQResizeEvent@@@Z 0040c60c f   qt-mt323:qt-mt323.dll
 0001:0000b612       ?resizeEvent@QMenuBar@@MAEXPAVQResizeEvent@@@Z 0040c612 f   qt-mt323:qt-mt323.dll
 0001:0000b618       ?resizeEvent@QProgressDialog@@MAEXPAVQResizeEvent@@@Z 0040c618 f   qt-mt323:qt-mt323.dll
 0001:0000b61e       ?resizeEvent@QPushButton@@MAEXPAVQResizeEvent@@@Z 0040c61e f   qt-mt323:qt-mt323.dll
 0001:0000b624       ?resizeEvent@QWidget@@MAEXPAVQResizeEvent@@@Z 0040c624 f   qt-mt323:qt-mt323.dll
 0001:0000b62a       ?resolution@QPaintDevice@@UBEHXZ 0040c62a f   qt-mt323:qt-mt323.dll
 0001:0000b630       ?setAccel@QButton@@UAEXABVQKeySequence@@@Z 0040c630 f   qt-mt323:qt-mt323.dll
 0001:0000b636       ?setAcceptDrops@QWidget@@UAEX_N@Z 0040c636 f   qt-mt323:qt-mt323.dll
 0001:0000b63c       ?setActiveItem@QPopupMenu@@UAEXH@Z 0040c63c f   qt-mt323:qt-mt323.dll
 0001:0000b642       ?setActiveWindow@QWidget@@UAEXXZ 0040c642 f   qt-mt323:qt-mt323.dll
 0001:0000b648       ?setAppropriate@QMainWindow@@UAEXPAVQDockWindow@@_N@Z 0040c648 f   qt-mt323:qt-mt323.dll
 0001:0000b64e       ?setAutoDefault@QPushButton@@UAEX_N@Z 0040c64e f   qt-mt323:qt-mt323.dll
 0001:0000b654       ?setAutoMask@QWidget@@UAEX_N@Z 0040c654 f   qt-mt323:qt-mt323.dll
 0001:0000b65a       ?setAutoRepeat@QButton@@UAEX_N@Z 0040c65a f   qt-mt323:qt-mt323.dll
 0001:0000b660       ?setBackgroundColor@QWidget@@UAEXABVQColor@@@Z 0040c660 f   qt-mt323:qt-mt323.dll
 0001:0000b666       ?setBackgroundMode@QWidget@@UAEXW4BackgroundMode@Qt@@@Z 0040c666 f   qt-mt323:qt-mt323.dll
 0001:0000b66c       ?setBackgroundOrigin@QWidget@@UAEXW4BackgroundOrigin@1@@Z 0040c66c f   qt-mt323:qt-mt323.dll
 0001:0000b672       ?setBackgroundPixmap@QWidget@@UAEXABVQPixmap@@@Z 0040c672 f   qt-mt323:qt-mt323.dll
 0001:0000b678       ?setCentralWidget@QMainWindow@@UAEXPAVQWidget@@@Z 0040c678 f   qt-mt323:qt-mt323.dll
 0001:0000b67e       ?setCheckable@QPopupMenu@@UAEX_N@Z 0040c67e f   qt-mt323:qt-mt323.dll
 0001:0000b684       ?setCursor@QWidget@@UAEXABVQCursor@@@Z 0040c684 f   qt-mt323:qt-mt323.dll
 0001:0000b68a       ?setDefault@QPushButton@@UAEX_N@Z 0040c68a f   qt-mt323:qt-mt323.dll
 0001:0000b690       ?setDockEnabled@QMainWindow@@UAEXPAVQDockWindow@@W4Dock@Qt@@_N@Z 0040c690 f   qt-mt323:qt-mt323.dll
 0001:0000b696       ?setDockEnabled@QMainWindow@@UAEXW4Dock@Qt@@_N@Z 0040c696 f   qt-mt323:qt-mt323.dll
 0001:0000b69c       ?setDockMenuEnabled@QMainWindow@@UAEX_N@Z 0040c69c f   qt-mt323:qt-mt323.dll
 0001:0000b6a2       ?setDockWindowsMovable@QMainWindow@@UAEX_N@Z 0040c6a2 f   qt-mt323:qt-mt323.dll
 0001:0000b6a8       ?setDown@QButton@@UAEX_N@Z 0040c6a8 f   qt-mt323:qt-mt323.dll
 0001:0000b6ae       ?setEnabled@QWidget@@UAEX_N@Z 0040c6ae f   qt-mt323:qt-mt323.dll
 0001:0000b6b4       ?setEraseColor@QWidget@@UAEXABVQColor@@@Z 0040c6b4 f   qt-mt323:qt-mt323.dll
 0001:0000b6ba       ?setErasePixmap@QWidget@@UAEXABVQPixmap@@@Z 0040c6ba f   qt-mt323:qt-mt323.dll
 0001:0000b6c0       ?setFirstItemActive@QPopupMenu@@EAEXXZ 0040c6c0 f   qt-mt323:qt-mt323.dll
 0001:0000b6c6       ?setFocus@QWidget@@UAEXXZ  0040c6c6 f   qt-mt323:qt-mt323.dll
 0001:0000b6cc       ?setFocusPolicy@QWidget@@UAEXW4FocusPolicy@1@@Z 0040c6cc f   qt-mt323:qt-mt323.dll
 0001:0000b6d2       ?setFocusProxy@QWidget@@UAEXPAV1@@Z 0040c6d2 f   qt-mt323:qt-mt323.dll
 0001:0000b6d8       ?setFont@QPopupMenu@@UAEXABVQFont@@@Z 0040c6d8 f   qt-mt323:qt-mt323.dll
 0001:0000b6de       ?setFont@QWidget@@UAEXABVQFont@@@Z 0040c6de f   qt-mt323:qt-mt323.dll
 0001:0000b6e4       ?setFrameRect@QFrame@@UAEXABVQRect@@@Z 0040c6e4 f   qt-mt323:qt-mt323.dll
 0001:0000b6ea       ?setFrameStyle@QFrame@@UAEXH@Z 0040c6ea f   qt-mt323:qt-mt323.dll
 0001:0000b6f0       ?setGeometry@QDialog@@UAEXABVQRect@@@Z 0040c6f0 f   qt-mt323:qt-mt323.dll
 0001:0000b6f6       ?setGeometry@QDialog@@UAEXHHHH@Z 0040c6f6 f   qt-mt323:qt-mt323.dll
 0001:0000b6fc       ?setGeometry@QPushButton@@UAEXABVQRect@@@Z 0040c6fc f   qt-mt323:qt-mt323.dll
 0001:0000b702       ?setGeometry@QPushButton@@UAEXHHHH@Z 0040c702 f   qt-mt323:qt-mt323.dll
 0001:0000b708       ?setGeometry@QWidget@@UAEXABVQRect@@@Z 0040c708 f   qt-mt323:qt-mt323.dll
 0001:0000b70e       ?setGeometry@QWidget@@UAEXHHHH@Z 0040c70e f   qt-mt323:qt-mt323.dll
 0001:0000b714       ?setGroup@QButton@@EAEXPAVQButtonGroup@@@Z 0040c714 f   qt-mt323:qt-mt323.dll
 0001:0000b71a       ?setIconText@QWidget@@UAEXABVQString@@@Z 0040c71a f   qt-mt323:qt-mt323.dll
 0001:0000b720       ?setId@QMenuData@@UAEXHH@Z 0040c720 f   qt-mt323:qt-mt323.dll
 0001:0000b726       ?setIsMenuButton@QPushButton@@UAEX_N@Z 0040c726 f   qt-mt323:qt-mt323.dll
 0001:0000b72c       ?setKeyCompression@QWidget@@MAEX_N@Z 0040c72c f   qt-mt323:qt-mt323.dll
 0001:0000b732       ?setLineWidth@QFrame@@UAEXH@Z 0040c732 f   qt-mt323:qt-mt323.dll
 0001:0000b738       ?setMargin@QFrame@@UAEXH@Z 0040c738 f   qt-mt323:qt-mt323.dll
 0001:0000b73e       ?setMask@QWidget@@UAEXABVQBitmap@@@Z 0040c73e f   qt-mt323:qt-mt323.dll
 0001:0000b744       ?setMask@QWidget@@UAEXABVQRegion@@@Z 0040c744 f   qt-mt323:qt-mt323.dll
 0001:0000b74a       ?setMaximumSize@QWidget@@UAEXHH@Z 0040c74a f   qt-mt323:qt-mt323.dll
 0001:0000b750       ?setMenuBar@QMainWindow@@EAEXPAVQMenuBar@@@Z 0040c750 f   qt-mt323:qt-mt323.dll
 0001:0000b756       ?setMicroFocusHint@QWidget@@MAEXHHHH_NPAVQFont@@@Z 0040c756 f   qt-mt323:qt-mt323.dll
 0001:0000b75c       ?setMidLineWidth@QFrame@@UAEXH@Z 0040c75c f   qt-mt323:qt-mt323.dll
 0001:0000b762       ?setMinimumSize@QWidget@@UAEXHH@Z 0040c762 f   qt-mt323:qt-mt323.dll
 0001:0000b768       ?setMouseTracking@QWidget@@UAEX_N@Z 0040c768 f   qt-mt323:qt-mt323.dll
 0001:0000b76e       ?setName@QWidget@@UAEXPBD@Z 0040c76e f   qt-mt323:qt-mt323.dll
 0001:0000b774       ?setNodeValue@QDomNode@@UAEXABVQString@@@Z 0040c774 f   qt-mt323:qt-mt323.dll
 0001:0000b77a       ?setOn@QPushButton@@UAEX_N@Z 0040c77a f   qt-mt323:qt-mt323.dll
 0001:0000b780       ?setOpaqueMoving@QMainWindow@@UAEX_N@Z 0040c780 f   qt-mt323:qt-mt323.dll
 0001:0000b786       ?setPalette@QWidget@@UAEXABVQPalette@@@Z 0040c786 f   qt-mt323:qt-mt323.dll
 0001:0000b78c       ?setPaletteBackgroundColor@QWidget@@UAEXABVQColor@@@Z 0040c78c f   qt-mt323:qt-mt323.dll
 0001:0000b792       ?setPaletteBackgroundPixmap@QWidget@@UAEXABVQPixmap@@@Z 0040c792 f   qt-mt323:qt-mt323.dll
 0001:0000b798       ?setPixmap@QButton@@UAEXABVQPixmap@@@Z 0040c798 f   qt-mt323:qt-mt323.dll
 0001:0000b79e       ?setPrefix@QDomNode@@UAEXABVQString@@@Z 0040c79e f   qt-mt323:qt-mt323.dll
 0001:0000b7a4       ?setProperty@QObject@@UAE_NPBDABVQVariant@@@Z 0040c7a4 f   qt-mt323:qt-mt323.dll
 0001:0000b7aa       ?setResolution@QPaintDevice@@UAEXH@Z 0040c7aa f   qt-mt323:qt-mt323.dll
 0001:0000b7b0       ?setRightJustification@QMainWindow@@UAEX_N@Z 0040c7b0 f   qt-mt323:qt-mt323.dll
 0001:0000b7b6       ?setSeparator@QMenuBar@@UAEXW4Separator@1@@Z 0040c7b6 f   qt-mt323:qt-mt323.dll
 0001:0000b7bc       ?setSizeIncrement@QWidget@@UAEXHH@Z 0040c7bc f   qt-mt323:qt-mt323.dll
 0001:0000b7c2       ?setSizePolicy@QWidget@@UAEXVQSizePolicy@@@Z 0040c7c2 f   qt-mt323:qt-mt323.dll
 0001:0000b7c8       ?setState@QButton@@MAEXW4ToggleState@1@@Z 0040c7c8 f   qt-mt323:qt-mt323.dll
 0001:0000b7ce       ?setStatusBar@QMainWindow@@EAEXPAVQStatusBar@@@Z 0040c7ce f   qt-mt323:qt-mt323.dll
 0001:0000b7d4       ?setText@QButton@@UAEXABVQString@@@Z 0040c7d4 f   qt-mt323:qt-mt323.dll
 0001:0000b7da       ?setToggleType@QButton@@MAEXW4ToggleType@1@@Z 0040c7da f   qt-mt323:qt-mt323.dll
 0001:0000b7e0       ?setToolTipGroup@QMainWindow@@EAEXPAVQToolTipGroup@@@Z 0040c7e0 f   qt-mt323:qt-mt323.dll
 0001:0000b7e6       ?setUpLayout@QMainWindow@@MAEXXZ 0040c7e6 f   qt-mt323:qt-mt323.dll
 0001:0000b7ec       ?setUpdatesEnabled@QWidget@@UAEX_N@Z 0040c7ec f   qt-mt323:qt-mt323.dll
 0001:0000b7f2       ?setUsesBigPixmaps@QMainWindow@@UAEX_N@Z 0040c7f2 f   qt-mt323:qt-mt323.dll
 0001:0000b7f8       ?setUsesTextLabel@QMainWindow@@UAEX_N@Z 0040c7f8 f   qt-mt323:qt-mt323.dll
 0001:0000b7fe       ?setWFlags@QWidget@@MAEXI@Z 0040c7fe f   qt-mt323:qt-mt323.dll
 0001:0000b804       ?setWState@QWidget@@MAEXI@Z 0040c804 f   qt-mt323:qt-mt323.dll
 0001:0000b80a       ?show@QDialog@@UAEXXZ      0040c80a f   qt-mt323:qt-mt323.dll
 0001:0000b810       ?show@QMenuBar@@UAEXXZ     0040c810 f   qt-mt323:qt-mt323.dll
 0001:0000b816       ?show@QPopupMenu@@UAEXXZ   0040c816 f   qt-mt323:qt-mt323.dll
 0001:0000b81c       ?show@QWidget@@UAEXXZ      0040c81c f   qt-mt323:qt-mt323.dll
 0001:0000b822       ?showDockMenu@QMainWindow@@MAE_NABVQPoint@@@Z 0040c822 f   qt-mt323:qt-mt323.dll
 0001:0000b828       ?showEvent@QProgressDialog@@MAEXPAVQShowEvent@@@Z 0040c828 f   qt-mt323:qt-mt323.dll
 0001:0000b82e       ?showEvent@QWidget@@MAEXPAVQShowEvent@@@Z 0040c82e f   qt-mt323:qt-mt323.dll
 0001:0000b834       ?showMaximized@QWidget@@UAEXXZ 0040c834 f   qt-mt323:qt-mt323.dll
 0001:0000b83a       ?showMinimized@QWidget@@UAEXXZ 0040c83a f   qt-mt323:qt-mt323.dll
 0001:0000b840       ?showNormal@QWidget@@UAEXXZ 0040c840 f   qt-mt323:qt-mt323.dll
 0001:0000b846       ?sizeHint@QMainWindow@@UBE?AVQSize@@XZ 0040c846 f   qt-mt323:qt-mt323.dll
 0001:0000b84c       ?sizeHint@QMenuBar@@UBE?AVQSize@@XZ 0040c84c f   qt-mt323:qt-mt323.dll
 0001:0000b852       ?sizeHint@QPopupMenu@@UBE?AVQSize@@XZ 0040c852 f   qt-mt323:qt-mt323.dll
 0001:0000b858       ?sizeHint@QProgressDialog@@UBE?AVQSize@@XZ 0040c858 f   qt-mt323:qt-mt323.dll
 0001:0000b85e       ?sizeHint@QPushButton@@UBE?AVQSize@@XZ 0040c85e f   qt-mt323:qt-mt323.dll
 0001:0000b864       ?sizePolicy@QWidget@@UBE?AVQSizePolicy@@XZ 0040c864 f   qt-mt323:qt-mt323.dll
 0001:0000b86a       ?styleChange@QMainWindow@@MAEXAAVQStyle@@@Z 0040c86a f   qt-mt323:qt-mt323.dll
 0001:0000b870       ?styleChange@QMenuBar@@MAEXAAVQStyle@@@Z 0040c870 f   qt-mt323:qt-mt323.dll
 0001:0000b876       ?styleChange@QPopupMenu@@MAEXAAVQStyle@@@Z 0040c876 f   qt-mt323:qt-mt323.dll
 0001:0000b87c       ?styleChange@QProgressDialog@@MAEXAAVQStyle@@@Z 0040c87c f   qt-mt323:qt-mt323.dll
 0001:0000b882       ?styleChange@QWidget@@MAEXAAVQStyle@@@Z 0040c882 f   qt-mt323:qt-mt323.dll
 0001:0000b888       ?tabletEvent@QWidget@@MAEXPAVQTabletEvent@@@Z 0040c888 f   qt-mt323:qt-mt323.dll
 0001:0000b88e       ?timerEvent@QObject@@MAEXPAVQTimerEvent@@@Z 0040c88e f   qt-mt323:qt-mt323.dll
 0001:0000b894       ?timerEvent@QPopupMenu@@MAEXPAVQTimerEvent@@@Z 0040c894 f   qt-mt323:qt-mt323.dll
 0001:0000b89a       ?unsetCursor@QWidget@@UAEXXZ 0040c89a f   qt-mt323:qt-mt323.dll
 0001:0000b8a0       ?updateItem@QMenuBar@@UAEXH@Z 0040c8a0 f   qt-mt323:qt-mt323.dll
 0001:0000b8a6       ?updateItem@QPopupMenu@@UAEXH@Z 0040c8a6 f   qt-mt323:qt-mt323.dll
 0001:0000b8ac       ?updateMask@QPushButton@@MAEXXZ 0040c8ac f   qt-mt323:qt-mt323.dll
 0001:0000b8b2       ?updateMask@QWidget@@MAEXXZ 0040c8b2 f   qt-mt323:qt-mt323.dll
 0001:0000b8b8       ?whatsThis@QMainWindow@@UAEXXZ 0040c8b8 f   qt-mt323:qt-mt323.dll
 0001:0000b8be       ?wheelEvent@QWidget@@MAEXPAVQWheelEvent@@@Z 0040c8be f   qt-mt323:qt-mt323.dll
 0001:0000b8c4       ?winEvent@QWidget@@MAE_NPAUtagMSG@@@Z 0040c8c4 f   qt-mt323:qt-mt323.dll
 0001:0000b8ca       ?windowActivationChange@QWidget@@MAEX_N@Z 0040c8ca f   qt-mt323:qt-mt323.dll
 0001:0000b8d0       ?write@QGList@@MBEAAVQDataStream@@AAV2@PAX@Z 0040c8d0 f   qt-mt323:qt-mt323.dll
 0001:0000b8d6       ?addChild@QScrollView@@UAEXPAVQWidget@@HH@Z 0040c8d6 f   qt-mt323:qt-mt323.dll
 0001:0000b8dc       ?addColumn@QListView@@UAEHABVQIconSet@@ABVQString@@H@Z 0040c8dc f   qt-mt323:qt-mt323.dll
 0001:0000b8e2       ?addColumn@QListView@@UAEHABVQString@@H@Z 0040c8e2 f   qt-mt323:qt-mt323.dll
 0001:0000b8e8       ?addItem@QBoxLayout@@UAEXPAVQLayoutItem@@@Z 0040c8e8 f   qt-mt323:qt-mt323.dll
 0001:0000b8ee       ?addItem@QGridLayout@@UAEXPAVQLayoutItem@@@Z 0040c8ee f   qt-mt323:qt-mt323.dll
 0001:0000b8f4       ?childEvent@QGroupBox@@MAEXPAVQChildEvent@@@Z 0040c8f4 f   qt-mt323:qt-mt323.dll
 0001:0000b8fa       ?childEvent@QLayout@@MAEXPAVQChildEvent@@@Z 0040c8fa f   qt-mt323:qt-mt323.dll
 0001:0000b900       ?childEvent@QSplitter@@MAEXPAVQChildEvent@@@Z 0040c900 f   qt-mt323:qt-mt323.dll
 0001:0000b906       ?className@QButtonGroup@@UBEPBDXZ 0040c906 f   qt-mt323:qt-mt323.dll
 0001:0000b90c       ?className@QCheckBox@@UBEPBDXZ 0040c90c f   qt-mt323:qt-mt323.dll
 0001:0000b912       ?className@QComboBox@@UBEPBDXZ 0040c912 f   qt-mt323:qt-mt323.dll
 0001:0000b918       ?className@QGridLayout@@UBEPBDXZ 0040c918 f   qt-mt323:qt-mt323.dll
 0001:0000b91e       ?className@QGroupBox@@UBEPBDXZ 0040c91e f   qt-mt323:qt-mt323.dll
 0001:0000b924       ?className@QHBoxLayout@@UBEPBDXZ 0040c924 f   qt-mt323:qt-mt323.dll
 0001:0000b92a       ?className@QLabel@@UBEPBDXZ 0040c92a f   qt-mt323:qt-mt323.dll
 0001:0000b930       ?className@QLineEdit@@UBEPBDXZ 0040c930 f   qt-mt323:qt-mt323.dll
 0001:0000b936       ?className@QListView@@UBEPBDXZ 0040c936 f   qt-mt323:qt-mt323.dll
 0001:0000b93c       ?className@QSplitter@@UBEPBDXZ 0040c93c f   qt-mt323:qt-mt323.dll
 0001:0000b942       ?className@QVBoxLayout@@UBEPBDXZ 0040c942 f   qt-mt323:qt-mt323.dll
 0001:0000b948       ?className@QWidget@@UBEPBDXZ 0040c948 f   qt-mt323:qt-mt323.dll
 0001:0000b94e       ?clear@QLineEdit@@UAEXXZ   0040c94e f   qt-mt323:qt-mt323.dll
 0001:0000b954       ?clear@QListView@@UAEXXZ   0040c954 f   qt-mt323:qt-mt323.dll
 0001:0000b95a       ?clearSelection@QListView@@UAEXXZ 0040c95a f   qt-mt323:qt-mt323.dll
 0001:0000b960       ?clearValidator@QLineEdit@@UAEXXZ 0040c960 f   qt-mt323:qt-mt323.dll
 0001:0000b966       ?contentsContextMenuEvent@QListView@@MAEXPAVQContextMenuEvent@@@Z 0040c966 f   qt-mt323:qt-mt323.dll
 0001:0000b96c       ?contentsDragEnterEvent@QListView@@MAEXPAVQDragEnterEvent@@@Z 0040c96c f   qt-mt323:qt-mt323.dll
 0001:0000b972       ?contentsDragLeaveEvent@QListView@@MAEXPAVQDragLeaveEvent@@@Z 0040c972 f   qt-mt323:qt-mt323.dll
 0001:0000b978       ?contentsDragMoveEvent@QListView@@MAEXPAVQDragMoveEvent@@@Z 0040c978 f   qt-mt323:qt-mt323.dll
 0001:0000b97e       ?contentsDropEvent@QListView@@MAEXPAVQDropEvent@@@Z 0040c97e f   qt-mt323:qt-mt323.dll
 0001:0000b984       ?contentsMouseDoubleClickEvent@QListView@@MAEXPAVQMouseEvent@@@Z 0040c984 f   qt-mt323:qt-mt323.dll
 0001:0000b98a       ?contentsMouseMoveEvent@QListView@@MAEXPAVQMouseEvent@@@Z 0040c98a f   qt-mt323:qt-mt323.dll
 0001:0000b990       ?contentsMousePressEvent@QListView@@MAEXPAVQMouseEvent@@@Z 0040c990 f   qt-mt323:qt-mt323.dll
 0001:0000b996       ?contentsMouseReleaseEvent@QListView@@MAEXPAVQMouseEvent@@@Z 0040c996 f   qt-mt323:qt-mt323.dll
 0001:0000b99c       ?contentsWheelEvent@QScrollView@@MAEXPAVQWheelEvent@@@Z 0040c99c f   qt-mt323:qt-mt323.dll
 0001:0000b9a2       ?contextMenuEvent@QLineEdit@@MAEXPAVQContextMenuEvent@@@Z 0040c9a2 f   qt-mt323:qt-mt323.dll
 0001:0000b9a8       ?contextMenuEvent@QScrollView@@MAEXPAVQContextMenuEvent@@@Z 0040c9a8 f   qt-mt323:qt-mt323.dll
 0001:0000b9ae       ?copy@QLineEdit@@UBEXXZ    0040c9ae f   qt-mt323:qt-mt323.dll
 0001:0000b9b4       ?createPopupMenu@QLineEdit@@MAEPAVQPopupMenu@@XZ 0040c9b4 f   qt-mt323:qt-mt323.dll
 0001:0000b9ba       ?cut@QLineEdit@@UAEXXZ     0040c9ba f   qt-mt323:qt-mt323.dll
 0001:0000b9c0       ?deselect@QLineEdit@@UAEXXZ 0040c9c0 f   qt-mt323:qt-mt323.dll
 0001:0000b9c6       ?dragEnterEvent@QLineEdit@@MAEXPAVQDragEnterEvent@@@Z 0040c9c6 f   qt-mt323:qt-mt323.dll
 0001:0000b9cc       ?dragLeaveEvent@QLineEdit@@MAEXPAVQDragLeaveEvent@@@Z 0040c9cc f   qt-mt323:qt-mt323.dll
 0001:0000b9d2       ?dragMoveEvent@QLineEdit@@MAEXPAVQDragMoveEvent@@@Z 0040c9d2 f   qt-mt323:qt-mt323.dll
 0001:0000b9d8       ?dragObject@QListView@@MAEPAVQDragObject@@XZ 0040c9d8 f   qt-mt323:qt-mt323.dll
 0001:0000b9de       ?drawButton@QCheckBox@@MAEXPAVQPainter@@@Z 0040c9de f   qt-mt323:qt-mt323.dll
 0001:0000b9e4       ?drawButtonLabel@QCheckBox@@MAEXPAVQPainter@@@Z 0040c9e4 f   qt-mt323:qt-mt323.dll
 0001:0000b9ea       ?drawContents@QFrame@@MAEXPAVQPainter@@@Z 0040c9ea f   qt-mt323:qt-mt323.dll
 0001:0000b9f0       ?drawContents@QLabel@@MAEXPAVQPainter@@@Z 0040c9f0 f   qt-mt323:qt-mt323.dll
 0001:0000b9f6       ?drawContents@QLineEdit@@MAEXPAVQPainter@@@Z 0040c9f6 f   qt-mt323:qt-mt323.dll
 0001:0000b9fc       ?drawContents@QScrollView@@EAEXPAVQPainter@@@Z 0040c9fc f   qt-mt323:qt-mt323.dll
 0001:0000ba02       ?drawContents@QScrollView@@MAEXPAVQPainter@@HHHH@Z 0040ca02 f   qt-mt323:qt-mt323.dll
 0001:0000ba08       ?drawContentsOffset@QListView@@MAEXPAVQPainter@@HHHHHH@Z 0040ca08 f   qt-mt323:qt-mt323.dll
 0001:0000ba0e       ?drawSplitter@QSplitter@@MAEXPAVQPainter@@HHHH@Z 0040ca0e f   qt-mt323:qt-mt323.dll
 0001:0000ba14       ?dropEvent@QLineEdit@@MAEXPAVQDropEvent@@@Z 0040ca14 f   qt-mt323:qt-mt323.dll
 0001:0000ba1a       ?event@QButtonGroup@@MAE_NPAVQEvent@@@Z 0040ca1a f   qt-mt323:qt-mt323.dll
 0001:0000ba20       ?event@QGroupBox@@MAE_NPAVQEvent@@@Z 0040ca20 f   qt-mt323:qt-mt323.dll
 0001:0000ba26       ?event@QLineEdit@@MAE_NPAVQEvent@@@Z 0040ca26 f   qt-mt323:qt-mt323.dll
 0001:0000ba2c       ?event@QObject@@UAE_NPAVQEvent@@@Z 0040ca2c f   qt-mt323:qt-mt323.dll
 0001:0000ba32       ?event@QSplitter@@MAE_NPAVQEvent@@@Z 0040ca32 f   qt-mt323:qt-mt323.dll
 0001:0000ba38       ?eventFilter@QComboBox@@UAE_NPAVQObject@@PAVQEvent@@@Z 0040ca38 f   qt-mt323:qt-mt323.dll
 0001:0000ba3e       ?eventFilter@QLayout@@MAE_NPAVQObject@@PAVQEvent@@@Z 0040ca3e f   qt-mt323:qt-mt323.dll
 0001:0000ba44       ?eventFilter@QListView@@UAE_NPAVQObject@@PAVQEvent@@@Z 0040ca44 f   qt-mt323:qt-mt323.dll
 0001:0000ba4a       ?expanding@QBoxLayout@@UBE?AW4ExpandData@QSizePolicy@@XZ 0040ca4a f   qt-mt323:qt-mt323.dll
 0001:0000ba50       ?expanding@QGridLayout@@UBE?AW4ExpandData@QSizePolicy@@XZ 0040ca50 f   qt-mt323:qt-mt323.dll
 0001:0000ba56       ?expanding@QSpacerItem@@UBE?AW4ExpandData@QSizePolicy@@XZ 0040ca56 f   qt-mt323:qt-mt323.dll
 0001:0000ba5c       ?focusInEvent@QButton@@MAEXPAVQFocusEvent@@@Z 0040ca5c f   qt-mt323:qt-mt323.dll
 0001:0000ba62       ?focusInEvent@QComboBox@@MAEXPAVQFocusEvent@@@Z 0040ca62 f   qt-mt323:qt-mt323.dll
 0001:0000ba68       ?focusInEvent@QGroupBox@@MAEXPAVQFocusEvent@@@Z 0040ca68 f   qt-mt323:qt-mt323.dll
 0001:0000ba6e       ?focusInEvent@QLineEdit@@MAEXPAVQFocusEvent@@@Z 0040ca6e f   qt-mt323:qt-mt323.dll
 0001:0000ba74       ?focusInEvent@QListView@@MAEXPAVQFocusEvent@@@Z 0040ca74 f   qt-mt323:qt-mt323.dll
 0001:0000ba7a       ?focusNextPrevChild@QScrollView@@MAE_N_N@Z 0040ca7a f   qt-mt323:qt-mt323.dll
 0001:0000ba80       ?focusOutEvent@QButton@@MAEXPAVQFocusEvent@@@Z 0040ca80 f   qt-mt323:qt-mt323.dll
 0001:0000ba86       ?focusOutEvent@QComboBox@@MAEXPAVQFocusEvent@@@Z 0040ca86 f   qt-mt323:qt-mt323.dll
 0001:0000ba8c       ?focusOutEvent@QLineEdit@@MAEXPAVQFocusEvent@@@Z 0040ca8c f   qt-mt323:qt-mt323.dll
 0001:0000ba92       ?focusOutEvent@QListView@@MAEXPAVQFocusEvent@@@Z 0040ca92 f   qt-mt323:qt-mt323.dll
 0001:0000ba98       ?fontChange@QGroupBox@@MAEXABVQFont@@@Z 0040ca98 f   qt-mt323:qt-mt323.dll
 0001:0000ba9e       ?fontChange@QLabel@@MAEXABVQFont@@@Z 0040ca9e f   qt-mt323:qt-mt323.dll
 0001:0000baa4       ?fontChange@QScrollView@@MAEXABVQFont@@@Z 0040caa4 f   qt-mt323:qt-mt323.dll
 0001:0000baaa       ?frameChanged@QFrame@@MAEXXZ 0040caaa f   qt-mt323:qt-mt323.dll
 0001:0000bab0       ?frameChanged@QScrollView@@MAEXXZ 0040cab0 f   qt-mt323:qt-mt323.dll
 0001:0000bab6       ?geometry@QLayout@@UBE?AVQRect@@XZ 0040cab6 f   qt-mt323:qt-mt323.dll
 0001:0000babc       ?geometry@QSpacerItem@@UBE?AVQRect@@XZ 0040cabc f   qt-mt323:qt-mt323.dll
 0001:0000bac2       ?hasHeightForWidth@QBoxLayout@@UBE_NXZ 0040cac2 f   qt-mt323:qt-mt323.dll
 0001:0000bac8       ?hasHeightForWidth@QGridLayout@@UBE_NXZ 0040cac8 f   qt-mt323:qt-mt323.dll
 0001:0000bace       ?hasHeightForWidth@QLayoutItem@@UBE_NXZ 0040cace f   qt-mt323:qt-mt323.dll
 0001:0000bad4       ?heightForWidth@QBoxLayout@@UBEHH@Z 0040cad4 f   qt-mt323:qt-mt323.dll
 0001:0000bada       ?heightForWidth@QGridLayout@@UBEHH@Z 0040cada f   qt-mt323:qt-mt323.dll
 0001:0000bae0       ?heightForWidth@QLabel@@UBEHH@Z 0040cae0 f   qt-mt323:qt-mt323.dll
 0001:0000bae6       ?heightForWidth@QLayoutItem@@UBEHH@Z 0040cae6 f   qt-mt323:qt-mt323.dll
 0001:0000baec       ?hitButton@QCheckBox@@MBE_NABVQPoint@@@Z 0040caec f   qt-mt323:qt-mt323.dll
 0001:0000baf2       ?imComposeEvent@QLineEdit@@MAEXPAVQIMEvent@@@Z 0040caf2 f   qt-mt323:qt-mt323.dll
 0001:0000baf8       ?imEndEvent@QLineEdit@@MAEXPAVQIMEvent@@@Z 0040caf8 f   qt-mt323:qt-mt323.dll
 0001:0000bafe       ?imStartEvent@QLineEdit@@MAEXPAVQIMEvent@@@Z 0040cafe f   qt-mt323:qt-mt323.dll
 0001:0000bb04       ?insert@QLineEdit@@UAEXABVQString@@@Z 0040cb04 f   qt-mt323:qt-mt323.dll
 0001:0000bb0a       ?insertItem@QListView@@UAEXPAVQListViewItem@@@Z 0040cb0a f   qt-mt323:qt-mt323.dll
 0001:0000bb10       ?invalidate@QBoxLayout@@UAEXXZ 0040cb10 f   qt-mt323:qt-mt323.dll
 0001:0000bb16       ?invalidate@QGridLayout@@UAEXXZ 0040cb16 f   qt-mt323:qt-mt323.dll
 0001:0000bb1c       ?invalidate@QLayoutItem@@UAEXXZ 0040cb1c f   qt-mt323:qt-mt323.dll
 0001:0000bb22       ?invertSelection@QListView@@UAEXXZ 0040cb22 f   qt-mt323:qt-mt323.dll
 0001:0000bb28       ?isEmpty@QLayout@@UBE_NXZ  0040cb28 f   qt-mt323:qt-mt323.dll
 0001:0000bb2e       ?isEmpty@QSpacerItem@@UBE_NXZ 0040cb2e f   qt-mt323:qt-mt323.dll
 0001:0000bb34       ?iterator@QBoxLayout@@UAE?AVQLayoutIterator@@XZ 0040cb34 f   qt-mt323:qt-mt323.dll
 0001:0000bb3a       ?iterator@QGridLayout@@UAE?AVQLayoutIterator@@XZ 0040cb3a f   qt-mt323:qt-mt323.dll
 0001:0000bb40       ?iterator@QLayoutItem@@UAE?AVQLayoutIterator@@XZ 0040cb40 f   qt-mt323:qt-mt323.dll
 0001:0000bb46       ?keyPressEvent@QComboBox@@MAEXPAVQKeyEvent@@@Z 0040cb46 f   qt-mt323:qt-mt323.dll
 0001:0000bb4c       ?keyPressEvent@QLineEdit@@MAEXPAVQKeyEvent@@@Z 0040cb4c f   qt-mt323:qt-mt323.dll
 0001:0000bb52       ?keyPressEvent@QListView@@MAEXPAVQKeyEvent@@@Z 0040cb52 f   qt-mt323:qt-mt323.dll
 0001:0000bb58       ?layout@QLayout@@UAEPAV1@XZ 0040cb58 f   qt-mt323:qt-mt323.dll
 0001:0000bb5e       ?layout@QLayoutItem@@UAEPAVQLayout@@XZ 0040cb5e f   qt-mt323:qt-mt323.dll
 0001:0000bb64       ?maximumSize@QBoxLayout@@UBE?AVQSize@@XZ 0040cb64 f   qt-mt323:qt-mt323.dll
 0001:0000bb6a       ?maximumSize@QGridLayout@@UBE?AVQSize@@XZ 0040cb6a f   qt-mt323:qt-mt323.dll
 0001:0000bb70       ?maximumSize@QSpacerItem@@UBE?AVQSize@@XZ 0040cb70 f   qt-mt323:qt-mt323.dll
 0001:0000bb76       ?metaObject@QButtonGroup@@UBEPAVQMetaObject@@XZ 0040cb76 f   qt-mt323:qt-mt323.dll
 0001:0000bb7c       ?metaObject@QCheckBox@@UBEPAVQMetaObject@@XZ 0040cb7c f   qt-mt323:qt-mt323.dll
 0001:0000bb82       ?metaObject@QComboBox@@UBEPAVQMetaObject@@XZ 0040cb82 f   qt-mt323:qt-mt323.dll
 0001:0000bb88       ?metaObject@QGridLayout@@UBEPAVQMetaObject@@XZ 0040cb88 f   qt-mt323:qt-mt323.dll
 0001:0000bb8e       ?metaObject@QGroupBox@@UBEPAVQMetaObject@@XZ 0040cb8e f   qt-mt323:qt-mt323.dll
 0001:0000bb94       ?metaObject@QHBoxLayout@@UBEPAVQMetaObject@@XZ 0040cb94 f   qt-mt323:qt-mt323.dll
 0001:0000bb9a       ?metaObject@QLabel@@UBEPAVQMetaObject@@XZ 0040cb9a f   qt-mt323:qt-mt323.dll
 0001:0000bba0       ?metaObject@QLineEdit@@UBEPAVQMetaObject@@XZ 0040cba0 f   qt-mt323:qt-mt323.dll
 0001:0000bba6       ?metaObject@QListView@@UBEPAVQMetaObject@@XZ 0040cba6 f   qt-mt323:qt-mt323.dll
 0001:0000bbac       ?metaObject@QSplitter@@UBEPAVQMetaObject@@XZ 0040cbac f   qt-mt323:qt-mt323.dll
 0001:0000bbb2       ?metaObject@QVBoxLayout@@UBEPAVQMetaObject@@XZ 0040cbb2 f   qt-mt323:qt-mt323.dll
 0001:0000bbb8       ?metaObject@QWidget@@UBEPAVQMetaObject@@XZ 0040cbb8 f   qt-mt323:qt-mt323.dll
 0001:0000bbbe       ?minimumSize@QBoxLayout@@UBE?AVQSize@@XZ 0040cbbe f   qt-mt323:qt-mt323.dll
 0001:0000bbc4       ?minimumSize@QGridLayout@@UBE?AVQSize@@XZ 0040cbc4 f   qt-mt323:qt-mt323.dll
 0001:0000bbca       ?minimumSize@QSpacerItem@@UBE?AVQSize@@XZ 0040cbca f   qt-mt323:qt-mt323.dll
 0001:0000bbd0       ?minimumSizeHint@QLabel@@UBE?AVQSize@@XZ 0040cbd0 f   qt-mt323:qt-mt323.dll
 0001:0000bbd6       ?minimumSizeHint@QLineEdit@@UBE?AVQSize@@XZ 0040cbd6 f   qt-mt323:qt-mt323.dll
 0001:0000bbdc       ?minimumSizeHint@QListView@@UBE?AVQSize@@XZ 0040cbdc f   qt-mt323:qt-mt323.dll
 0001:0000bbe2       ?minimumSizeHint@QSplitter@@UBE?AVQSize@@XZ 0040cbe2 f   qt-mt323:qt-mt323.dll
 0001:0000bbe8       ?mouseDoubleClickEvent@QComboBox@@MAEXPAVQMouseEvent@@@Z 0040cbe8 f   qt-mt323:qt-mt323.dll
 0001:0000bbee       ?mouseDoubleClickEvent@QLineEdit@@MAEXPAVQMouseEvent@@@Z 0040cbee f   qt-mt323:qt-mt323.dll
 0001:0000bbf4       ?mouseDoubleClickEvent@QScrollView@@MAEXPAVQMouseEvent@@@Z 0040cbf4 f   qt-mt323:qt-mt323.dll
 0001:0000bbfa       ?mouseMoveEvent@QComboBox@@MAEXPAVQMouseEvent@@@Z 0040cbfa f   qt-mt323:qt-mt323.dll
 0001:0000bc00       ?mouseMoveEvent@QLineEdit@@MAEXPAVQMouseEvent@@@Z 0040cc00 f   qt-mt323:qt-mt323.dll
 0001:0000bc06       ?mouseMoveEvent@QScrollView@@MAEXPAVQMouseEvent@@@Z 0040cc06 f   qt-mt323:qt-mt323.dll
 0001:0000bc0c       ?mousePressEvent@QComboBox@@MAEXPAVQMouseEvent@@@Z 0040cc0c f   qt-mt323:qt-mt323.dll
 0001:0000bc12       ?mousePressEvent@QLineEdit@@MAEXPAVQMouseEvent@@@Z 0040cc12 f   qt-mt323:qt-mt323.dll
 0001:0000bc18       ?mousePressEvent@QScrollView@@MAEXPAVQMouseEvent@@@Z 0040cc18 f   qt-mt323:qt-mt323.dll
 0001:0000bc1e       ?mouseReleaseEvent@QComboBox@@MAEXPAVQMouseEvent@@@Z 0040cc1e f   qt-mt323:qt-mt323.dll
 0001:0000bc24       ?mouseReleaseEvent@QLineEdit@@MAEXPAVQMouseEvent@@@Z 0040cc24 f   qt-mt323:qt-mt323.dll
 0001:0000bc2a       ?mouseReleaseEvent@QScrollView@@MAEXPAVQMouseEvent@@@Z 0040cc2a f   qt-mt323:qt-mt323.dll
 0001:0000bc30       ?moveChild@QScrollView@@UAEXPAVQWidget@@HH@Z 0040cc30 f   qt-mt323:qt-mt323.dll
 0001:0000bc36       ?moveFocus@QButtonGroup@@UAEXH@Z 0040cc36 f   qt-mt323:qt-mt323.dll
 0001:0000bc3c       ?paintEmptyArea@QListView@@MAEXPAVQPainter@@ABVQRect@@@Z 0040cc3c f   qt-mt323:qt-mt323.dll
 0001:0000bc42       ?paintEvent@QComboBox@@MAEXPAVQPaintEvent@@@Z 0040cc42 f   qt-mt323:qt-mt323.dll
 0001:0000bc48       ?paintEvent@QGroupBox@@MAEXPAVQPaintEvent@@@Z 0040cc48 f   qt-mt323:qt-mt323.dll
 0001:0000bc4e       ?paste@QLineEdit@@UAEXXZ   0040cc4e f   qt-mt323:qt-mt323.dll
 0001:0000bc54       ?popup@QComboBox@@UAEXXZ   0040cc54 f   qt-mt323:qt-mt323.dll
 0001:0000bc5a       ?qt_cast@QButtonGroup@@UAEPAXPBD@Z 0040cc5a f   qt-mt323:qt-mt323.dll
 0001:0000bc60       ?qt_cast@QCheckBox@@UAEPAXPBD@Z 0040cc60 f   qt-mt323:qt-mt323.dll
 0001:0000bc66       ?qt_cast@QComboBox@@UAEPAXPBD@Z 0040cc66 f   qt-mt323:qt-mt323.dll
 0001:0000bc6c       ?qt_cast@QGridLayout@@UAEPAXPBD@Z 0040cc6c f   qt-mt323:qt-mt323.dll
 0001:0000bc72       ?qt_cast@QGroupBox@@UAEPAXPBD@Z 0040cc72 f   qt-mt323:qt-mt323.dll
 0001:0000bc78       ?qt_cast@QHBoxLayout@@UAEPAXPBD@Z 0040cc78 f   qt-mt323:qt-mt323.dll
 0001:0000bc7e       ?qt_cast@QLabel@@UAEPAXPBD@Z 0040cc7e f   qt-mt323:qt-mt323.dll
 0001:0000bc84       ?qt_cast@QLineEdit@@UAEPAXPBD@Z 0040cc84 f   qt-mt323:qt-mt323.dll
 0001:0000bc8a       ?qt_cast@QListView@@UAEPAXPBD@Z 0040cc8a f   qt-mt323:qt-mt323.dll
 0001:0000bc90       ?qt_cast@QSplitter@@UAEPAXPBD@Z 0040cc90 f   qt-mt323:qt-mt323.dll
 0001:0000bc96       ?qt_cast@QVBoxLayout@@UAEPAXPBD@Z 0040cc96 f   qt-mt323:qt-mt323.dll
 0001:0000bc9c       ?qt_cast@QWidget@@UAEPAXPBD@Z 0040cc9c f   qt-mt323:qt-mt323.dll
 0001:0000bca2       ?qt_emit@QButtonGroup@@UAE_NHPAUQUObject@@@Z 0040cca2 f   qt-mt323:qt-mt323.dll
 0001:0000bca8       ?qt_emit@QCheckBox@@UAE_NHPAUQUObject@@@Z 0040cca8 f   qt-mt323:qt-mt323.dll
 0001:0000bcae       ?qt_emit@QComboBox@@UAE_NHPAUQUObject@@@Z 0040ccae f   qt-mt323:qt-mt323.dll
 0001:0000bcb4       ?qt_emit@QGridLayout@@UAE_NHPAUQUObject@@@Z 0040ccb4 f   qt-mt323:qt-mt323.dll
 0001:0000bcba       ?qt_emit@QGroupBox@@UAE_NHPAUQUObject@@@Z 0040ccba f   qt-mt323:qt-mt323.dll
 0001:0000bcc0       ?qt_emit@QHBoxLayout@@UAE_NHPAUQUObject@@@Z 0040ccc0 f   qt-mt323:qt-mt323.dll
 0001:0000bcc6       ?qt_emit@QLabel@@UAE_NHPAUQUObject@@@Z 0040ccc6 f   qt-mt323:qt-mt323.dll
 0001:0000bccc       ?qt_emit@QLineEdit@@UAE_NHPAUQUObject@@@Z 0040cccc f   qt-mt323:qt-mt323.dll
 0001:0000bcd2       ?qt_emit@QListView@@UAE_NHPAUQUObject@@@Z 0040ccd2 f   qt-mt323:qt-mt323.dll
 0001:0000bcd8       ?qt_emit@QSplitter@@UAE_NHPAUQUObject@@@Z 0040ccd8 f   qt-mt323:qt-mt323.dll
 0001:0000bcde       ?qt_emit@QVBoxLayout@@UAE_NHPAUQUObject@@@Z 0040ccde f   qt-mt323:qt-mt323.dll
 0001:0000bce4       ?qt_emit@QWidget@@UAE_NHPAUQUObject@@@Z 0040cce4 f   qt-mt323:qt-mt323.dll
 0001:0000bcea       ?qt_invoke@QButtonGroup@@UAE_NHPAUQUObject@@@Z 0040ccea f   qt-mt323:qt-mt323.dll
 0001:0000bcf0       ?qt_invoke@QCheckBox@@UAE_NHPAUQUObject@@@Z 0040ccf0 f   qt-mt323:qt-mt323.dll
 0001:0000bcf6       ?qt_invoke@QComboBox@@UAE_NHPAUQUObject@@@Z 0040ccf6 f   qt-mt323:qt-mt323.dll
 0001:0000bcfc       ?qt_invoke@QGridLayout@@UAE_NHPAUQUObject@@@Z 0040ccfc f   qt-mt323:qt-mt323.dll
 0001:0000bd02       ?qt_invoke@QGroupBox@@UAE_NHPAUQUObject@@@Z 0040cd02 f   qt-mt323:qt-mt323.dll
 0001:0000bd08       ?qt_invoke@QHBoxLayout@@UAE_NHPAUQUObject@@@Z 0040cd08 f   qt-mt323:qt-mt323.dll
 0001:0000bd0e       ?qt_invoke@QLabel@@UAE_NHPAUQUObject@@@Z 0040cd0e f   qt-mt323:qt-mt323.dll
 0001:0000bd14       ?qt_invoke@QLineEdit@@UAE_NHPAUQUObject@@@Z 0040cd14 f   qt-mt323:qt-mt323.dll
 0001:0000bd1a       ?qt_invoke@QListView@@UAE_NHPAUQUObject@@@Z 0040cd1a f   qt-mt323:qt-mt323.dll
 0001:0000bd20       ?qt_invoke@QSplitter@@UAE_NHPAUQUObject@@@Z 0040cd20 f   qt-mt323:qt-mt323.dll
 0001:0000bd26       ?qt_invoke@QVBoxLayout@@UAE_NHPAUQUObject@@@Z 0040cd26 f   qt-mt323:qt-mt323.dll
 0001:0000bd2c       ?qt_invoke@QWidget@@UAE_NHPAUQUObject@@@Z 0040cd2c f   qt-mt323:qt-mt323.dll
 0001:0000bd32       ?qt_property@QButtonGroup@@UAE_NHHPAVQVariant@@@Z 0040cd32 f   qt-mt323:qt-mt323.dll
 0001:0000bd38       ?qt_property@QCheckBox@@UAE_NHHPAVQVariant@@@Z 0040cd38 f   qt-mt323:qt-mt323.dll
 0001:0000bd3e       ?qt_property@QComboBox@@UAE_NHHPAVQVariant@@@Z 0040cd3e f   qt-mt323:qt-mt323.dll
 0001:0000bd44       ?qt_property@QGridLayout@@UAE_NHHPAVQVariant@@@Z 0040cd44 f   qt-mt323:qt-mt323.dll
 0001:0000bd4a       ?qt_property@QGroupBox@@UAE_NHHPAVQVariant@@@Z 0040cd4a f   qt-mt323:qt-mt323.dll
 0001:0000bd50       ?qt_property@QHBoxLayout@@UAE_NHHPAVQVariant@@@Z 0040cd50 f   qt-mt323:qt-mt323.dll
 0001:0000bd56       ?qt_property@QLabel@@UAE_NHHPAVQVariant@@@Z 0040cd56 f   qt-mt323:qt-mt323.dll
 0001:0000bd5c       ?qt_property@QLineEdit@@UAE_NHHPAVQVariant@@@Z 0040cd5c f   qt-mt323:qt-mt323.dll
 0001:0000bd62       ?qt_property@QListView@@UAE_NHHPAVQVariant@@@Z 0040cd62 f   qt-mt323:qt-mt323.dll
 0001:0000bd68       ?qt_property@QSplitter@@UAE_NHHPAVQVariant@@@Z 0040cd68 f   qt-mt323:qt-mt323.dll
 0001:0000bd6e       ?qt_property@QVBoxLayout@@UAE_NHHPAVQVariant@@@Z 0040cd6e f   qt-mt323:qt-mt323.dll
 0001:0000bd74       ?qt_property@QWidget@@UAE_NHHPAVQVariant@@@Z 0040cd74 f   qt-mt323:qt-mt323.dll
 0001:0000bd7a       ?redo@QLineEdit@@UAEXXZ    0040cd7a f   qt-mt323:qt-mt323.dll
 0001:0000bd80       ?removeChild@QScrollView@@UAEXPAVQObject@@@Z 0040cd80 f   qt-mt323:qt-mt323.dll
 0001:0000bd86       ?removeColumn@QListView@@UAEXH@Z 0040cd86 f   qt-mt323:qt-mt323.dll
 0001:0000bd8c       ?removeItem@QListView@@UAEXPAVQListViewItem@@@Z 0040cd8c f   qt-mt323:qt-mt323.dll
 0001:0000bd92       ?resize@QScrollView@@UAEXHH@Z 0040cd92 f   qt-mt323:qt-mt323.dll
 0001:0000bd98       ?resizeContents@QScrollView@@UAEXHH@Z 0040cd98 f   qt-mt323:qt-mt323.dll
 0001:0000bd9e       ?resizeEvent@QCheckBox@@MAEXPAVQResizeEvent@@@Z 0040cd9e f   qt-mt323:qt-mt323.dll
 0001:0000bda4       ?resizeEvent@QComboBox@@MAEXPAVQResizeEvent@@@Z 0040cda4 f   qt-mt323:qt-mt323.dll
 0001:0000bdaa       ?resizeEvent@QGroupBox@@MAEXPAVQResizeEvent@@@Z 0040cdaa f   qt-mt323:qt-mt323.dll
 0001:0000bdb0       ?resizeEvent@QLabel@@MAEXPAVQResizeEvent@@@Z 0040cdb0 f   qt-mt323:qt-mt323.dll
 0001:0000bdb6       ?resizeEvent@QLineEdit@@MAEXPAVQResizeEvent@@@Z 0040cdb6 f   qt-mt323:qt-mt323.dll
 0001:0000bdbc       ?resizeEvent@QListView@@MAEXPAVQResizeEvent@@@Z 0040cdbc f   qt-mt323:qt-mt323.dll
 0001:0000bdc2       ?resizeEvent@QSplitter@@MAEXPAVQResizeEvent@@@Z 0040cdc2 f   qt-mt323:qt-mt323.dll
 0001:0000bdc8       ?selectAll@QLineEdit@@UAEXXZ 0040cdc8 f   qt-mt323:qt-mt323.dll
 0001:0000bdce       ?selectAll@QListView@@UAEX_N@Z 0040cdce f   qt-mt323:qt-mt323.dll
 0001:0000bdd4       ?setAlignment@QGroupBox@@UAEXH@Z 0040cdd4 f   qt-mt323:qt-mt323.dll
 0001:0000bdda       ?setAlignment@QLabel@@UAEXH@Z 0040cdda f   qt-mt323:qt-mt323.dll
 0001:0000bde0       ?setAlignment@QLayoutItem@@UAEXH@Z 0040cde0 f   qt-mt323:qt-mt323.dll
 0001:0000bde6       ?setAlignment@QLineEdit@@UAEXH@Z 0040cde6 f   qt-mt323:qt-mt323.dll
 0001:0000bdec       ?setAllColumnsShowFocus@QListView@@UAEX_N@Z 0040cdec f   qt-mt323:qt-mt323.dll
 0001:0000bdf2       ?setAutoAdd@QLayout@@UAEX_N@Z 0040cdf2 f   qt-mt323:qt-mt323.dll
 0001:0000bdf8       ?setAutoCompletion@QComboBox@@UAEX_N@Z 0040cdf8 f   qt-mt323:qt-mt323.dll
 0001:0000bdfe       ?setAutoResize@QComboBox@@UAEX_N@Z 0040cdfe f   qt-mt323:qt-mt323.dll
 0001:0000be04       ?setAutoResize@QLabel@@UAEX_N@Z 0040ce04 f   qt-mt323:qt-mt323.dll
 0001:0000be0a       ?setBuddy@QLabel@@UAEXPAVQWidget@@@Z 0040ce0a f   qt-mt323:qt-mt323.dll
 0001:0000be10       ?setButton@QButtonGroup@@UAEXH@Z 0040ce10 f   qt-mt323:qt-mt323.dll
 0001:0000be16       ?setColStretch@QGridLayout@@UAEXHH@Z 0040ce16 f   qt-mt323:qt-mt323.dll
 0001:0000be1c       ?setColumnAlignment@QListView@@UAEXHH@Z 0040ce1c f   qt-mt323:qt-mt323.dll
 0001:0000be22       ?setColumnLayout@QGroupBox@@UAEXHW4Orientation@Qt@@@Z 0040ce22 f   qt-mt323:qt-mt323.dll
 0001:0000be28       ?setColumnText@QListView@@UAEXHABVQIconSet@@ABVQString@@@Z 0040ce28 f   qt-mt323:qt-mt323.dll
 0001:0000be2e       ?setColumnText@QListView@@UAEXHABVQString@@@Z 0040ce2e f   qt-mt323:qt-mt323.dll
 0001:0000be34       ?setColumnWidth@QListView@@UAEXHH@Z 0040ce34 f   qt-mt323:qt-mt323.dll
 0001:0000be3a       ?setColumnWidthMode@QListView@@UAEXHW4WidthMode@1@@Z 0040ce3a f   qt-mt323:qt-mt323.dll
 0001:0000be40       ?setContentsPos@QListView@@UAEXHH@Z 0040ce40 f   qt-mt323:qt-mt323.dll
 0001:0000be46       ?setCornerWidget@QScrollView@@UAEXPAVQWidget@@@Z 0040ce46 f   qt-mt323:qt-mt323.dll
 0001:0000be4c       ?setCurrentItem@QComboBox@@UAEXH@Z 0040ce4c f   qt-mt323:qt-mt323.dll
 0001:0000be52       ?setCurrentItem@QListView@@UAEXPAVQListViewItem@@@Z 0040ce52 f   qt-mt323:qt-mt323.dll
 0001:0000be58       ?setCurrentText@QComboBox@@UAEXABVQString@@@Z 0040ce58 f   qt-mt323:qt-mt323.dll
 0001:0000be5e       ?setCursorPosition@QLineEdit@@UAEXH@Z 0040ce5e f   qt-mt323:qt-mt323.dll
 0001:0000be64       ?setDefaultRenameAction@QListView@@UAEXW4RenameAction@1@@Z 0040ce64 f   qt-mt323:qt-mt323.dll
 0001:0000be6a       ?setDragAutoScroll@QScrollView@@UAEX_N@Z 0040ce6a f   qt-mt323:qt-mt323.dll
 0001:0000be70       ?setDragEnabled@QLineEdit@@UAEX_N@Z 0040ce70 f   qt-mt323:qt-mt323.dll
 0001:0000be76       ?setEchoMode@QLineEdit@@UAEXW4EchoMode@1@@Z 0040ce76 f   qt-mt323:qt-mt323.dll
 0001:0000be7c       ?setEditText@QComboBox@@UAEXABVQString@@@Z 0040ce7c f   qt-mt323:qt-mt323.dll
 0001:0000be82       ?setEnabled@QComboBox@@UAEX_N@Z 0040ce82 f   qt-mt323:qt-mt323.dll
 0001:0000be88       ?setEnabled@QGroupBox@@UAEX_N@Z 0040ce88 f   qt-mt323:qt-mt323.dll
 0001:0000be8e       ?setEnabled@QScrollView@@UAEX_N@Z 0040ce8e f   qt-mt323:qt-mt323.dll
 0001:0000be94       ?setExclusive@QButtonGroup@@UAEX_N@Z 0040ce94 f   qt-mt323:qt-mt323.dll
 0001:0000be9a       ?setFont@QComboBox@@UAEXABVQFont@@@Z 0040ce9a f   qt-mt323:qt-mt323.dll
 0001:0000bea0       ?setFont@QLabel@@UAEXABVQFont@@@Z 0040cea0 f   qt-mt323:qt-mt323.dll
 0001:0000bea6       ?setFont@QLineEdit@@UAEXABVQFont@@@Z 0040cea6 f   qt-mt323:qt-mt323.dll
 0001:0000beac       ?setFont@QListView@@UAEXABVQFont@@@Z 0040ceac f   qt-mt323:qt-mt323.dll
 0001:0000beb2       ?setFrame@QLineEdit@@UAEX_N@Z 0040ceb2 f   qt-mt323:qt-mt323.dll
 0001:0000beb8       ?setGeometry@QBoxLayout@@UAEXABVQRect@@@Z 0040ceb8 f   qt-mt323:qt-mt323.dll
 0001:0000bebe       ?setGeometry@QGridLayout@@UAEXABVQRect@@@Z 0040cebe f   qt-mt323:qt-mt323.dll
 0001:0000bec4       ?setGeometry@QSpacerItem@@UAEXABVQRect@@@Z 0040cec4 f   qt-mt323:qt-mt323.dll
 0001:0000beca       ?setHBarGeometry@QScrollView@@MAEXAAVQScrollBar@@HHHH@Z 0040ceca f   qt-mt323:qt-mt323.dll
 0001:0000bed0       ?setHScrollBarMode@QScrollView@@UAEXW4ScrollBarMode@1@@Z 0040ced0 f   qt-mt323:qt-mt323.dll
 0001:0000bed6       ?setInsertionPolicy@QComboBox@@UAEXW4Policy@1@@Z 0040ced6 f   qt-mt323:qt-mt323.dll
 0001:0000bedc       ?setItemMargin@QListView@@UAEXH@Z 0040cedc f   qt-mt323:qt-mt323.dll
 0001:0000bee2       ?setLineEdit@QComboBox@@UAEXPAVQLineEdit@@@Z 0040cee2 f   qt-mt323:qt-mt323.dll
 0001:0000bee8       ?setListBox@QComboBox@@UAEXPAVQListBox@@@Z 0040cee8 f   qt-mt323:qt-mt323.dll
 0001:0000beee       ?setMargin@QLayout@@UAEXH@Z 0040ceee f   qt-mt323:qt-mt323.dll
 0001:0000bef4       ?setMargins@QScrollView@@MAEXHHHH@Z 0040cef4 f   qt-mt323:qt-mt323.dll
 0001:0000befa       ?setMaxCount@QComboBox@@UAEXH@Z 0040cefa f   qt-mt323:qt-mt323.dll
 0001:0000bf00       ?setMaxLength@QLineEdit@@UAEXH@Z 0040cf00 f   qt-mt323:qt-mt323.dll
 0001:0000bf06       ?setMenuBar@QLayout@@UAEXPAVQMenuBar@@@Z 0040cf06 f   qt-mt323:qt-mt323.dll
 0001:0000bf0c       ?setMovie@QLabel@@UAEXABVQMovie@@@Z 0040cf0c f   qt-mt323:qt-mt323.dll
 0001:0000bf12       ?setMultiSelection@QListView@@UAEX_N@Z 0040cf12 f   qt-mt323:qt-mt323.dll
 0001:0000bf18       ?setName@QObject@@UAEXPBD@Z 0040cf18 f   qt-mt323:qt-mt323.dll
 0001:0000bf1e       ?setNum@QLabel@@UAEXH@Z    0040cf1e f   qt-mt323:qt-mt323.dll
 0001:0000bf24       ?setNum@QLabel@@UAEXN@Z    0040cf24 f   qt-mt323:qt-mt323.dll
 0001:0000bf2a       ?setOpaqueResize@QSplitter@@UAEX_N@Z 0040cf2a f   qt-mt323:qt-mt323.dll
 0001:0000bf30       ?setOpen@QListView@@UAEXPAVQListViewItem@@_N@Z 0040cf30 f   qt-mt323:qt-mt323.dll
 0001:0000bf36       ?setOrientation@QSplitter@@UAEXW4Orientation@Qt@@@Z 0040cf36 f   qt-mt323:qt-mt323.dll
 0001:0000bf3c       ?setPalette@QComboBox@@UAEXABVQPalette@@@Z 0040cf3c f   qt-mt323:qt-mt323.dll
 0001:0000bf42       ?setPalette@QLineEdit@@UAEXABVQPalette@@@Z 0040cf42 f   qt-mt323:qt-mt323.dll
 0001:0000bf48       ?setPalette@QListView@@UAEXABVQPalette@@@Z 0040cf48 f   qt-mt323:qt-mt323.dll
 0001:0000bf4e       ?setPicture@QLabel@@UAEXABVQPicture@@@Z 0040cf4e f   qt-mt323:qt-mt323.dll
 0001:0000bf54       ?setPixmap@QLabel@@UAEXABVQPixmap@@@Z 0040cf54 f   qt-mt323:qt-mt323.dll
 0001:0000bf5a       ?setRadioButtonExclusive@QButtonGroup@@UAEX_N@Z 0040cf5a f   qt-mt323:qt-mt323.dll
 0001:0000bf60       ?setReadOnly@QLineEdit@@UAEX_N@Z 0040cf60 f   qt-mt323:qt-mt323.dll
 0001:0000bf66       ?setResizeMode@QListView@@UAEXW4ResizeMode@1@@Z 0040cf66 f   qt-mt323:qt-mt323.dll
 0001:0000bf6c       ?setResizeMode@QSplitter@@UAEXPAVQWidget@@W4ResizeMode@1@@Z 0040cf6c f   qt-mt323:qt-mt323.dll
 0001:0000bf72       ?setResizePolicy@QScrollView@@UAEXW4ResizePolicy@1@@Z 0040cf72 f   qt-mt323:qt-mt323.dll
 0001:0000bf78       ?setRootIsDecorated@QListView@@UAEX_N@Z 0040cf78 f   qt-mt323:qt-mt323.dll
 0001:0000bf7e       ?setRowStretch@QGridLayout@@UAEXHH@Z 0040cf7e f   qt-mt323:qt-mt323.dll
 0001:0000bf84       ?setRubberband@QSplitter@@MAEXH@Z 0040cf84 f   qt-mt323:qt-mt323.dll
 0001:0000bf8a       ?setSelected@QListView@@UAEXPAVQListViewItem@@_N@Z 0040cf8a f   qt-mt323:qt-mt323.dll
 0001:0000bf90       ?setSelection@QLineEdit@@UAEXHH@Z 0040cf90 f   qt-mt323:qt-mt323.dll
 0001:0000bf96       ?setShowSortIndicator@QListView@@UAEX_N@Z 0040cf96 f   qt-mt323:qt-mt323.dll
 0001:0000bf9c       ?setShowToolTips@QListView@@UAEX_N@Z 0040cf9c f   qt-mt323:qt-mt323.dll
 0001:0000bfa2       ?setSizeLimit@QComboBox@@UAEXH@Z 0040cfa2 f   qt-mt323:qt-mt323.dll
 0001:0000bfa8       ?setSorting@QListView@@UAEXH_N@Z 0040cfa8 f   qt-mt323:qt-mt323.dll
 0001:0000bfae       ?setSpacing@QLayout@@UAEXH@Z 0040cfae f   qt-mt323:qt-mt323.dll
 0001:0000bfb4       ?setText@QLabel@@UAEXABVQString@@@Z 0040cfb4 f   qt-mt323:qt-mt323.dll
 0001:0000bfba       ?setText@QLineEdit@@UAEXABVQString@@@Z 0040cfba f   qt-mt323:qt-mt323.dll
 0001:0000bfc0       ?setTitle@QGroupBox@@UAEXABVQString@@@Z 0040cfc0 f   qt-mt323:qt-mt323.dll
 0001:0000bfc6       ?setTreeStepSize@QListView@@UAEXH@Z 0040cfc6 f   qt-mt323:qt-mt323.dll
 0001:0000bfcc       ?setVBarGeometry@QScrollView@@MAEXAAVQScrollBar@@HHHH@Z 0040cfcc f   qt-mt323:qt-mt323.dll
 0001:0000bfd2       ?setVScrollBarMode@QScrollView@@UAEXW4ScrollBarMode@1@@Z 0040cfd2 f   qt-mt323:qt-mt323.dll
 0001:0000bfd8       ?setValidator@QComboBox@@UAEXPBVQValidator@@@Z 0040cfd8 f   qt-mt323:qt-mt323.dll
 0001:0000bfde       ?setValidator@QLineEdit@@UAEXPBVQValidator@@@Z 0040cfde f   qt-mt323:qt-mt323.dll
 0001:0000bfe4       ?show@QListView@@UAEXXZ    0040cfe4 f   qt-mt323:qt-mt323.dll
 0001:0000bfea       ?showEvent@QListView@@MAEXPAVQShowEvent@@@Z 0040cfea f   qt-mt323:qt-mt323.dll
 0001:0000bff0       ?sizeHint@QBoxLayout@@UBE?AVQSize@@XZ 0040cff0 f   qt-mt323:qt-mt323.dll
 0001:0000bff6       ?sizeHint@QCheckBox@@UBE?AVQSize@@XZ 0040cff6 f   qt-mt323:qt-mt323.dll
 0001:0000bffe       ?sizeHint@QComboBox@@UBE?AVQSize@@XZ 0040cffe f   qt-mt323:qt-mt323.dll
 0001:0000c004       ?sizeHint@QGridLayout@@UBE?AVQSize@@XZ 0040d004 f   qt-mt323:qt-mt323.dll
 0001:0000c00a       ?sizeHint@QGroupBox@@UBE?AVQSize@@XZ 0040d00a f   qt-mt323:qt-mt323.dll
 0001:0000c010       ?sizeHint@QLabel@@UBE?AVQSize@@XZ 0040d010 f   qt-mt323:qt-mt323.dll
 0001:0000c016       ?sizeHint@QLineEdit@@UBE?AVQSize@@XZ 0040d016 f   qt-mt323:qt-mt323.dll
 0001:0000c01c       ?sizeHint@QListView@@UBE?AVQSize@@XZ 0040d01c f   qt-mt323:qt-mt323.dll
 0001:0000c022       ?sizeHint@QSpacerItem@@UBE?AVQSize@@XZ 0040d022 f   qt-mt323:qt-mt323.dll
 0001:0000c028       ?sizeHint@QSplitter@@UBE?AVQSize@@XZ 0040d028 f   qt-mt323:qt-mt323.dll
 0001:0000c02e       ?sizeHint@QWidget@@UBE?AVQSize@@XZ 0040d02e f   qt-mt323:qt-mt323.dll
 0001:0000c034       ?sort@QListView@@UAEXXZ    0040d034 f   qt-mt323:qt-mt323.dll
 0001:0000c03a       ?spacerItem@QLayoutItem@@UAEPAVQSpacerItem@@XZ 0040d03a f   qt-mt323:qt-mt323.dll
 0001:0000c040       ?spacerItem@QSpacerItem@@UAEPAV1@XZ 0040d040 f   qt-mt323:qt-mt323.dll
 0001:0000c046       ?startDrag@QListView@@MAEXXZ 0040d046 f   qt-mt323:qt-mt323.dll
 0001:0000c04c       ?styleChange@QComboBox@@MAEXAAVQStyle@@@Z 0040d04c f   qt-mt323:qt-mt323.dll
 0001:0000c052       ?styleChange@QFrame@@MAEXAAVQStyle@@@Z 0040d052 f   qt-mt323:qt-mt323.dll
 0001:0000c058       ?styleChange@QListView@@MAEXAAVQStyle@@@Z 0040d058 f   qt-mt323:qt-mt323.dll
 0001:0000c05e       ?styleChange@QSplitter@@MAEXAAVQStyle@@@Z 0040d05e f   qt-mt323:qt-mt323.dll
 0001:0000c064       ?takeItem@QListView@@UAEXPAVQListViewItem@@@Z 0040d064 f   qt-mt323:qt-mt323.dll
 0001:0000c06a       ?undo@QLineEdit@@UAEXXZ    0040d06a f   qt-mt323:qt-mt323.dll
 0001:0000c070       ?updateMask@QCheckBox@@MAEXXZ 0040d070 f   qt-mt323:qt-mt323.dll
 0001:0000c076       ?updateMask@QComboBox@@MAEXXZ 0040d076 f   qt-mt323:qt-mt323.dll
 0001:0000c07c       ?viewportContextMenuEvent@QScrollView@@MAEXPAVQContextMenuEvent@@@Z 0040d07c f   qt-mt323:qt-mt323.dll
 0001:0000c082       ?viewportDragEnterEvent@QScrollView@@MAEXPAVQDragEnterEvent@@@Z 0040d082 f   qt-mt323:qt-mt323.dll
 0001:0000c088       ?viewportDragLeaveEvent@QScrollView@@MAEXPAVQDragLeaveEvent@@@Z 0040d088 f   qt-mt323:qt-mt323.dll
 0001:0000c08e       ?viewportDragMoveEvent@QScrollView@@MAEXPAVQDragMoveEvent@@@Z 0040d08e f   qt-mt323:qt-mt323.dll
 0001:0000c094       ?viewportDropEvent@QScrollView@@MAEXPAVQDropEvent@@@Z 0040d094 f   qt-mt323:qt-mt323.dll
 0001:0000c09a       ?viewportMouseDoubleClickEvent@QScrollView@@MAEXPAVQMouseEvent@@@Z 0040d09a f   qt-mt323:qt-mt323.dll
 0001:0000c0a0       ?viewportMouseMoveEvent@QScrollView@@MAEXPAVQMouseEvent@@@Z 0040d0a0 f   qt-mt323:qt-mt323.dll
 0001:0000c0a6       ?viewportMousePressEvent@QScrollView@@MAEXPAVQMouseEvent@@@Z 0040d0a6 f   qt-mt323:qt-mt323.dll
 0001:0000c0ac       ?viewportMouseReleaseEvent@QScrollView@@MAEXPAVQMouseEvent@@@Z 0040d0ac f   qt-mt323:qt-mt323.dll
 0001:0000c0b2       ?viewportPaintEvent@QScrollView@@MAEXPAVQPaintEvent@@@Z 0040d0b2 f   qt-mt323:qt-mt323.dll
 0001:0000c0b8       ?viewportResizeEvent@QListView@@MAEXPAVQResizeEvent@@@Z 0040d0b8 f   qt-mt323:qt-mt323.dll
 0001:0000c0be       ?viewportWheelEvent@QScrollView@@MAEXPAVQWheelEvent@@@Z 0040d0be f   qt-mt323:qt-mt323.dll
 0001:0000c0c4       ?wheelEvent@QComboBox@@MAEXPAVQWheelEvent@@@Z 0040d0c4 f   qt-mt323:qt-mt323.dll
 0001:0000c0ca       ?wheelEvent@QScrollView@@MAEXPAVQWheelEvent@@@Z 0040d0ca f   qt-mt323:qt-mt323.dll
 0001:0000c0d0       ?widget@QLayoutItem@@UAEPAVQWidget@@XZ 0040d0d0 f   qt-mt323:qt-mt323.dll
 0001:0000c0d6       ?windowActivationChange@QLineEdit@@MAEX_N@Z 0040d0d6 f   qt-mt323:qt-mt323.dll
 0001:0000c0dc       ?windowActivationChange@QListView@@MAEX_N@Z 0040d0dc f   qt-mt323:qt-mt323.dll
 0001:0000c0e2       ??_U@YAPAXI@Z              0040d0e2 f   msvcprt:newaop_s.obj
 0001:0000c0ec       __purecall                 0040d0ec f   MSVCRT:MSVCR120.dll
 0001:0000c0f2       ??2@YAPAXI@Z               0040d0f2 f   MSVCRT:MSVCR120.dll
 0001:0000c0f8       ??3@YAXPAX@Z               0040d0f8 f   MSVCRT:MSVCR120.dll
 0001:0000c0fe       ___atonexitinit            0040d0fe f   MSVCRT:atonexit.obj
 0001:0000c13a       __onexit                   0040d13a f   MSVCRT:atonexit.obj
 0001:0000c1e3       _atexit                    0040d1e3 f   MSVCRT:atonexit.obj
 0001:0000c1f8       @__security_check_cookie@4 0040d1f8 f   MSVCRT:secchk.obj
 0001:0000c208       __CxxThrowException@8      0040d208 f   MSVCRT:MSVCR120.dll
 0001:0000c20e       ___CxxFrameHandler3        0040d20e f   MSVCRT:MSVCR120.dll
 0001:0000c214       _memcpy                    0040d214 f   MSVCRT:MSVCR120.dll
 0001:0000c21a       ??_Etype_info@@UAEPAXI@Z   0040d21a f i MSVCRT:ti_inst.obj
 0001:0000c374       _WinMainCRTStartup         0040d374 f   MSVCRT:crtexew.obj
 0001:0000c532       ??_V@YAXPAX@Z              0040d532 f   MSVCRT:MSVCR120.dll
 0001:0000c538       _strpbrk                   0040d538 f   MSVCRT:MSVCR120.dll
 0001:0000c53e       _free                      0040d53e f   MSVCRT:MSVCR120.dll
 0001:0000c544       _malloc                    0040d544 f   MSVCRT:MSVCR120.dll
 0001:0000c54a       __lock                     0040d54a f   MSVCRT:MSVCR120.dll
 0001:0000c550       __unlock                   0040d550 f   MSVCRT:MSVCR120.dll
 0001:0000c556       ___dllonexit               0040d556 f   MSVCRT:MSVCR120.dll
 0001:0000c560       __SEH_prolog4              0040d560 f   MSVCRT:sehprolg4.obj
 0001:0000c5a5       __SEH_epilog4              0040d5a5 f   MSVCRT:sehprolg4.obj
 0001:0000c5b9       __except_handler4          0040d5b9 f   MSVCRT:chandler4gs.obj
 0001:0000c5dc       ___raise_securityfailure   0040d5dc f   MSVCRT:gs_report.obj
 0001:0000c619       ___report_gsfailure        0040d619 f   MSVCRT:gs_report.obj
 0001:0000c714       ??_M@YGXPAXIHP6EX0@Z@Z     0040d714 f   MSVCRT:ehvecdtr.obj
 0001:0000c783       ?__ArrayUnwind@@YGXPAXIHP6EX0@Z@Z 0040d783 f   MSVCRT:ehvecdtr.obj
 0001:0000c7e2       ??1type_info@@UAE@XZ       0040d7e2 f   MSVCRT:MSVCR120.dll
 0001:0000c7e8       ?__CxxUnhandledExceptionFilter@@YGJPAU_EXCEPTION_POINTERS@@@Z 0040d7e8 f   MSVCRT:unhandld.obj
 0001:0000c829       ___CxxSetUnhandledExceptionFilter 0040d829 f   MSVCRT:unhandld.obj
 0001:0000c838       __XcptFilter               0040d838 f   MSVCRT:MSVCR120.dll
 0001:0000c83e       __amsg_exit                0040d83e f   MSVCRT:MSVCR120.dll
 0001:0000c844       __matherr                  0040d844 f   MSVCRT:merr.obj
 0001:0000c844       __setargv                  0040d844 f   MSVCRT:dllargv.obj
 0001:0000c850       __FindPESection            0040d850 f   MSVCRT:pesect.obj
 0001:0000c8a0       __IsNonwritableInCurrentImage 0040d8a0 f   MSVCRT:pesect.obj
 0001:0000c960       __ValidateImageBase        0040d960 f   MSVCRT:pesect.obj
 0001:0000c991       ___security_init_cookie    0040d991 f   MSVCRT:gs_support.obj
 0001:0000ca2d       __RTC_Initialize           0040da2d f   MSVCRT:initsect.obj
 0001:0000ca4d       __RTC_Terminate            0040da4d f   MSVCRT:initsect.obj
 0001:0000ca6d       __setdefaultprecision      0040da6d f   MSVCRT:fp8.obj
 0001:0000ca94       __initterm_e               0040da94 f   MSVCRT:MSVCR120.dll
 0001:0000ca9a       __initterm                 0040da9a f   MSVCRT:MSVCR120.dll
 0001:0000caa0       __except_handler4_common   0040daa0 f   MSVCRT:MSVCR120.dll
 0001:0000caa6       __crt_debugger_hook        0040daa6 f   MSVCRT:MSVCR120.dll
 0001:0000caac       ___crtUnhandledException   0040daac f   MSVCRT:MSVCR120.dll
 0001:0000cab2       ___crtTerminateProcess     0040dab2 f   MSVCRT:MSVCR120.dll
 0001:0000cab8       ?terminate@@YAXXZ          0040dab8 f   MSVCRT:MSVCR120.dll
 0001:0000cabe       ___crtSetUnhandledExceptionFilter 0040dabe f   MSVCRT:MSVCR120.dll
 0001:0000cac4       __invoke_watson            0040dac4 f   MSVCRT:MSVCR120.dll
 0001:0000caca       __controlfp_s              0040daca f   MSVCRT:MSVCR120.dll
 0001:0000cad0       _BNCS32ReceiveMessage      0040dad0 f   bncswm32:BncsWM32.obj
 0001:0000cc20       _BNCS32SendMessage         0040dc20 f   bncswm32:BncsWM32.obj
 0001:0000ccf4       _GetFileVersionInfoSizeA@8 0040dcf4 f   version:VERSION.dll
 0001:0000ccfa       _GetFileVersionInfoA@16    0040dcfa f   version:VERSION.dll
 0001:0000cd00       _VerQueryValueA@16         0040dd00 f   version:VERSION.dll
 0001:0000cd06       _IsProcessorFeaturePresent@4 0040dd06 f   kernel32:KERNEL32.dll
 0001:0000cd0c       _strcpy                    0040dd0c f   MSVCRT:MSVCR120.dll
 0001:0000cd12       _strlen                    0040dd12 f   MSVCRT:MSVCR120.dll
 0001:0000cd18       ?deleteData@QGArray@@MAEXPAUarray_data@1@@Z 0040dd18 f   qt-mt323:qt-mt323.dll
 0001:0000cd1e       ?newData@QGArray@@MAEPAUarray_data@1@XZ 0040dd1e f   qt-mt323:qt-mt323.dll
 0001:0000cd24       ?qWinMain@@YAXPAUHINSTANCE__@@0PADHAAHAAV?$QMemArray@PAD@@@Z 0040dd24 f   qt-mt323:qt-mt323.dll
 0002:00000000       __imp__BNCS32TxMessage     00410000     bncsif32:BNCSIF32.dll
 0002:00000004       __imp__BNCS32RxMessage     00410004     bncsif32:BNCSIF32.dll
 0002:00000008       \177BNCSIF32_NULL_THUNK_DATA 00410008     bncsif32:BNCSIF32.dll
 0002:0000000c       __imp__FreeLibrary@4       0041000c     kernel32:KERNEL32.dll
 0002:00000010       __imp__GetProcAddress@8    00410010     kernel32:KERNEL32.dll
 0002:00000014       __imp__GetLastError@0      00410014     kernel32:KERNEL32.dll
 0002:00000018       __imp__LoadLibraryA@4      00410018     kernel32:KERNEL32.dll
 0002:0000001c       __imp__OutputDebugStringA@4 0041001c     kernel32:KERNEL32.dll
 0002:00000020       __imp__GetPrivateProfileIntA@16 00410020     kernel32:KERNEL32.dll
 0002:00000024       __imp__GetPrivateProfileStringA@24 00410024     kernel32:KERNEL32.dll
 0002:00000028       __imp__WritePrivateProfileStringA@16 00410028     kernel32:KERNEL32.dll
 0002:0000002c       __imp__lstrcpynA@12        0041002c     kernel32:KERNEL32.dll
 0002:00000030       __imp__DecodePointer@4     00410030     kernel32:KERNEL32.dll
 0002:00000034       __imp__IsDebuggerPresent@0 00410034     kernel32:KERNEL32.dll
 0002:00000038       __imp__IsProcessorFeaturePresent@4 00410038     kernel32:KERNEL32.dll
 0002:0000003c       __imp__GetSystemTimeAsFileTime@4 0041003c     kernel32:KERNEL32.dll
 0002:00000040       __imp__GetCurrentThreadId@0 00410040     kernel32:KERNEL32.dll
 0002:00000044       __imp__GetCurrentProcessId@0 00410044     kernel32:KERNEL32.dll
 0002:00000048       __imp__QueryPerformanceCounter@4 00410048     kernel32:KERNEL32.dll
 0002:0000004c       __imp__EncodePointer@4     0041004c     kernel32:KERNEL32.dll
 0002:00000050       \177KERNEL32_NULL_THUNK_DATA 00410050     kernel32:KERNEL32.dll
 0002:00000054       __imp_?_Xbad_alloc@std@@YAXXZ 00410054     msvcprt:MSVCP120.dll
 0002:00000058       __imp_?_Winerror_map@std@@YAPBDH@Z 00410058     msvcprt:MSVCP120.dll
 0002:0000005c       __imp_?_Xlength_error@std@@YAXPBD@Z 0041005c     msvcprt:MSVCP120.dll
 0002:00000060       __imp_?_Xout_of_range@std@@YAXPBD@Z 00410060     msvcprt:MSVCP120.dll
 0002:00000064       __imp_?_Syserror_map@std@@YAPBDH@Z 00410064     msvcprt:MSVCP120.dll
 0002:00000068       \177MSVCP120_NULL_THUNK_DATA 00410068     msvcprt:MSVCP120.dll
 0002:0000006c       __imp__sscanf              0041006c     MSVCRT:MSVCR120.dll
 0002:00000070       __imp___controlfp_s        00410070     MSVCRT:MSVCR120.dll
 0002:00000074       __imp___invoke_watson      00410074     MSVCRT:MSVCR120.dll
 0002:00000078       __imp____crtSetUnhandledExceptionFilter 00410078     MSVCRT:MSVCR120.dll
 0002:0000007c       __imp_?terminate@@YAXXZ    0041007c     MSVCRT:MSVCR120.dll
 0002:00000080       __imp____crtTerminateProcess 00410080     MSVCRT:MSVCR120.dll
 0002:00000084       __imp____crtUnhandledException 00410084     MSVCRT:MSVCR120.dll
 0002:00000088       __imp___crt_debugger_hook  00410088     MSVCRT:MSVCR120.dll
 0002:0000008c       __imp___except_handler4_common 0041008c     MSVCRT:MSVCR120.dll
 0002:00000090       __imp___commode            00410090     MSVCRT:MSVCR120.dll
 0002:00000094       __imp___fmode              00410094     MSVCRT:MSVCR120.dll
 0002:00000098       __imp___acmdln             00410098     MSVCRT:MSVCR120.dll
 0002:0000009c       __imp___initterm           0041009c     MSVCRT:MSVCR120.dll
 0002:000000a0       __imp___initterm_e         004100a0     MSVCRT:MSVCR120.dll
 0002:000000a4       __imp____setusermatherr    004100a4     MSVCRT:MSVCR120.dll
 0002:000000a8       __imp___configthreadlocale 004100a8     MSVCRT:MSVCR120.dll
 0002:000000ac       __imp___ismbblead          004100ac     MSVCRT:MSVCR120.dll
 0002:000000b0       __imp__strcpy              004100b0     MSVCRT:MSVCR120.dll
 0002:000000b4       __imp___exit               004100b4     MSVCRT:MSVCR120.dll
 0002:000000b8       __imp__exit                004100b8     MSVCRT:MSVCR120.dll
 0002:000000bc       __imp____set_app_type      004100bc     MSVCRT:MSVCR120.dll
 0002:000000c0       __imp____getmainargs       004100c0     MSVCRT:MSVCR120.dll
 0002:000000c4       __imp___amsg_exit          004100c4     MSVCRT:MSVCR120.dll
 0002:000000c8       __imp____crtGetShowWindowMode 004100c8     MSVCRT:MSVCR120.dll
 0002:000000cc       __imp___XcptFilter         004100cc     MSVCRT:MSVCR120.dll
 0002:000000d0       __imp_??1type_info@@UAE@XZ 004100d0     MSVCRT:MSVCR120.dll
 0002:000000d4       __imp___onexit             004100d4     MSVCRT:MSVCR120.dll
 0002:000000d8       __imp____dllonexit         004100d8     MSVCRT:MSVCR120.dll
 0002:000000dc       __imp___calloc_crt         004100dc     MSVCRT:MSVCR120.dll
 0002:000000e0       __imp___unlock             004100e0     MSVCRT:MSVCR120.dll
 0002:000000e4       __imp___lock               004100e4     MSVCRT:MSVCR120.dll
 0002:000000e8       __imp__malloc              004100e8     MSVCRT:MSVCR120.dll
 0002:000000ec       __imp__free                004100ec     MSVCRT:MSVCR120.dll
 0002:000000f0       __imp__strpbrk             004100f0     MSVCRT:MSVCR120.dll
 0002:000000f4       __imp__sprintf_s           004100f4     MSVCRT:MSVCR120.dll
 0002:000000f8       __imp_??_V@YAXPAX@Z        004100f8     MSVCRT:MSVCR120.dll
 0002:000000fc       __imp__sprintf             004100fc     MSVCRT:MSVCR120.dll
 0002:00000100       __imp__strncpy             00410100     MSVCRT:MSVCR120.dll
 0002:00000104       __imp__atoi                00410104     MSVCRT:MSVCR120.dll
 0002:00000108       __imp__atof                00410108     MSVCRT:MSVCR120.dll
 0002:0000010c       __imp__memcpy              0041010c     MSVCRT:MSVCR120.dll
 0002:00000110       __imp____CxxFrameHandler3  00410110     MSVCRT:MSVCR120.dll
 0002:00000114       __imp___CxxThrowException@8 00410114     MSVCRT:MSVCR120.dll
 0002:00000118       __imp__getenv              00410118     MSVCRT:MSVCR120.dll
 0002:0000011c       __imp__memmove             0041011c     MSVCRT:MSVCR120.dll
 0002:00000120       __imp_??3@YAXPAX@Z         00410120     MSVCRT:MSVCR120.dll
 0002:00000124       __imp_??2@YAPAXI@Z         00410124     MSVCRT:MSVCR120.dll
 0002:00000128       __imp___purecall           00410128     MSVCRT:MSVCR120.dll
 0002:0000012c       __imp___cexit              0041012c     MSVCRT:MSVCR120.dll
 0002:00000130       __imp__strlen              00410130     MSVCRT:MSVCR120.dll
 0002:00000134       \177MSVCR120_NULL_THUNK_DATA 00410134     MSVCRT:MSVCR120.dll
 0002:00000138       __imp__SendMessageA@16     00410138     user32:USER32.dll
 0002:0000013c       __imp__PostMessageA@16     0041013c     user32:USER32.dll
 0002:00000140       __imp__DefWindowProcA@16   00410140     user32:USER32.dll
 0002:00000144       __imp__RegisterClassA@4    00410144     user32:USER32.dll
 0002:00000148       __imp__wsprintfA           00410148     user32:USER32.dll
 0002:0000014c       __imp__GetClassNameA@12    0041014c     user32:USER32.dll
 0002:00000150       __imp__SetWindowLongA@12   00410150     user32:USER32.dll
 0002:00000154       __imp__GetWindowLongA@8    00410154     user32:USER32.dll
 0002:00000158       __imp__MessageBoxA@16      00410158     user32:USER32.dll
 0002:0000015c       __imp__DestroyWindow@4     0041015c     user32:USER32.dll
 0002:00000160       __imp__IsWindow@4          00410160     user32:USER32.dll
 0002:00000164       __imp__CreateWindowExA@48  00410164     user32:USER32.dll
 0002:00000168       __imp__UnregisterClassA@8  00410168     user32:USER32.dll
 0002:0000016c       \177USER32_NULL_THUNK_DATA 0041016c     user32:USER32.dll
 0002:00000170       __imp__VerQueryValueA@16   00410170     version:VERSION.dll
 0002:00000174       __imp__GetFileVersionInfoA@16 00410174     version:VERSION.dll
 0002:00000178       __imp__GetFileVersionInfoSizeA@8 00410178     version:VERSION.dll
 0002:0000017c       \177VERSION_NULL_THUNK_DATA 0041017c     version:VERSION.dll
 0002:00000180       __imp_?attr@bncs_config@@QAE?AVbncs_string@@ABV2@@Z 00410180     bncs_config:bncs_config.dll
 0002:00000184       __imp_?childAttr@bncs_config@@QAE?AVbncs_string@@ABV2@@Z 00410184     bncs_config:bncs_config.dll
 0002:00000188       __imp_?nextChild@bncs_config@@QAE_NXZ 00410188     bncs_config:bncs_config.dll
 0002:0000018c       __imp_?isChildValid@bncs_config@@QAE_NXZ 0041018c     bncs_config:bncs_config.dll
 0002:00000190       __imp_?isValid@bncs_config@@QAE_NXZ 00410190     bncs_config:bncs_config.dll
 0002:00000194       __imp_??1bncs_config@@UAE@XZ 00410194     bncs_config:bncs_config.dll
 0002:00000198       __imp_??0bncs_config@@QAE@ABVbncs_string@@@Z 00410198     bncs_config:bncs_config.dll
 0002:0000019c       \177bncs_config_NULL_THUNK_DATA 0041019c     bncs_config:bncs_config.dll
 0002:000001a0       __imp_??8@YA_NABVbncs_string@@0@Z 004101a0     bncs_string:bncs_string.dll
 0002:000001a4       __imp_??Bbncs_string@@QBEPBDXZ 004101a4     bncs_string:bncs_string.dll
 0002:000001a8       __imp_??1bncs_string@@UAE@XZ 004101a8     bncs_string:bncs_string.dll
 0002:000001ac       __imp_?toInt@bncs_string@@QBEHXZ 004101ac     bncs_string:bncs_string.dll
 0002:000001b0       __imp_??0bncs_string@@QAE@PBD@Z 004101b0     bncs_string:bncs_string.dll
 0002:000001b4       \177bncs_string_NULL_THUNK_DATA 004101b4     bncs_string:bncs_string.dll
 0002:000001b8       __imp_?toElement@QDomNode@@QAE?AVQDomElement@@XZ 004101b8     qt-mt323:qt-mt323.dll
 0002:000001bc       __imp_??1QDomNodeList@@UAE@XZ 004101bc     qt-mt323:qt-mt323.dll
 0002:000001c0       __imp_?count@QDomNodeList@@QBEIXZ 004101c0     qt-mt323:qt-mt323.dll
 0002:000001c4       __imp_??0QDomDocument@@QAE@XZ 004101c4     qt-mt323:qt-mt323.dll
 0002:000001c8       __imp_??1QDomDocument@@UAE@XZ 004101c8     qt-mt323:qt-mt323.dll
 0002:000001cc       __imp_?documentElement@QDomDocument@@QBE?AVQDomElement@@XZ 004101cc     qt-mt323:qt-mt323.dll
 0002:000001d0       __imp_?setContent@QDomDocument@@QAE_NPAVQIODevice@@PAVQString@@PAH2@Z 004101d0     qt-mt323:qt-mt323.dll
 0002:000001d4       __imp_??1QDomElement@@UAE@XZ 004101d4     qt-mt323:qt-mt323.dll
 0002:000001d8       __imp_?attribute@QDomElement@@QBE?AVQString@@ABV2@0@Z 004101d8     qt-mt323:qt-mt323.dll
 0002:000001dc       __imp_?tagName@QDomElement@@QBE?AVQString@@XZ 004101dc     qt-mt323:qt-mt323.dll
 0002:000001e0       __imp_??0QFile@@QAE@ABVQString@@@Z 004101e0     qt-mt323:qt-mt323.dll
 0002:000001e4       __imp_??1QFile@@UAE@XZ     004101e4     qt-mt323:qt-mt323.dll
 0002:000001e8       __imp_?open@QFile@@UAE_NH@Z 004101e8     qt-mt323:qt-mt323.dll
 0002:000001ec       __imp_?close@QFile@@UAEXXZ 004101ec     qt-mt323:qt-mt323.dll
 0002:000001f0       __imp_?setVisible@QListViewItem@@QAEX_N@Z 004101f0     qt-mt323:qt-mt323.dll
 0002:000001f4       __imp_?ensureItemVisible@QListView@@QAEXPBVQListViewItem@@@Z 004101f4     qt-mt323:qt-mt323.dll
 0002:000001f8       __imp_?currentItem@QListView@@QBEPAVQListViewItem@@XZ 004101f8     qt-mt323:qt-mt323.dll
 0002:000001fc       __imp_?firstChild@QListView@@QBEPAVQListViewItem@@XZ 004101fc     qt-mt323:qt-mt323.dll
 0002:00000200       __imp_?lastItem@QListView@@QBEPAVQListViewItem@@XZ 00410200     qt-mt323:qt-mt323.dll
 0002:00000204       __imp_?findItem@QListView@@QBEPAVQListViewItem@@ABVQString@@HI@Z 00410204     qt-mt323:qt-mt323.dll
 0002:00000208       __imp_??0QListViewItemIterator@@QAE@PAVQListView@@@Z 00410208     qt-mt323:qt-mt323.dll
 0002:0000020c       __imp_??1QListViewItemIterator@@QAE@XZ 0041020c     qt-mt323:qt-mt323.dll
 0002:00000210       __imp_??EQListViewItemIterator@@QAEAAV0@XZ 00410210     qt-mt323:qt-mt323.dll
 0002:00000214       __imp_?current@QListViewItemIterator@@QBEPAVQListViewItem@@XZ 00410214     qt-mt323:qt-mt323.dll
 0002:00000218       __imp_?find@QButtonGroup@@QBEPAVQButton@@H@Z 00410218     qt-mt323:qt-mt323.dll
 0002:0000021c       __imp_?selected@QButtonGroup@@QBEPAVQButton@@XZ 0041021c     qt-mt323:qt-mt323.dll
 0002:00000220       __imp_?selectedId@QButtonGroup@@QBEHXZ 00410220     qt-mt323:qt-mt323.dll
 0002:00000224       __imp_??0QKeySequence@@QAE@H@Z 00410224     qt-mt323:qt-mt323.dll
 0002:00000228       __imp_??1QKeySequence@@QAE@XZ 00410228     qt-mt323:qt-mt323.dll
 0002:0000022c       __imp_??0QPixmap@@QAE@QAPBD@Z 0041022c     qt-mt323:qt-mt323.dll
 0002:00000230       __imp_??1QPixmap@@UAE@XZ   00410230     qt-mt323:qt-mt323.dll
 0002:00000234       __imp_??0QPushButton@@QAE@PAVQWidget@@PBD@Z 00410234     qt-mt323:qt-mt323.dll
 0002:00000238       __imp_??0QPushButton@@QAE@ABVQString@@PAVQWidget@@PBD@Z 00410238     qt-mt323:qt-mt323.dll
 0002:0000023c       __imp_??1QPushButton@@UAE@XZ 0041023c     qt-mt323:qt-mt323.dll
 0002:00000240       __imp_?setToggleButton@QPushButton@@QAEX_N@Z 00410240     qt-mt323:qt-mt323.dll
 0002:00000244       __imp_?text@QLineEdit@@QBE?AVQString@@XZ 00410244     qt-mt323:qt-mt323.dll
 0002:00000248       __imp_?warning@QMessageBox@@SAHPAVQWidget@@ABVQString@@1111HH@Z 00410248     qt-mt323:qt-mt323.dll
 0002:0000024c       __imp_?about@QMessageBox@@SAXPAVQWidget@@ABVQString@@1@Z 0041024c     qt-mt323:qt-mt323.dll
 0002:00000250       __imp_?addWidget@QBoxLayout@@QAEXPAVQWidget@@HH@Z 00410250     qt-mt323:qt-mt323.dll
 0002:00000254       __imp_?insertItem@QMenuData@@QAEHABVQString@@PBVQObject@@PBDABVQKeySequence@@HH@Z 00410254     qt-mt323:qt-mt323.dll
 0002:00000258       __imp_?insertItem@QMenuData@@QAEHABVQString@@PAVQPopupMenu@@HH@Z 00410258     qt-mt323:qt-mt323.dll
 0002:0000025c       __imp_??0QPopupMenu@@QAE@PAVQWidget@@PBD@Z 0041025c     qt-mt323:qt-mt323.dll
 0002:00000260       __imp_??1QPopupMenu@@UAE@XZ 00410260     qt-mt323:qt-mt323.dll
 0002:00000264       __imp_??0QMenuBar@@QAE@PAVQWidget@@PBD@Z 00410264     qt-mt323:qt-mt323.dll
 0002:00000268       __imp_??1QMenuBar@@UAE@XZ  00410268     qt-mt323:qt-mt323.dll
 0002:0000026c       __imp_??0QRegExp@@QAE@ABVQString@@_N1@Z 0041026c     qt-mt323:qt-mt323.dll
 0002:00000270       __imp_??1QRegExp@@QAE@XZ   00410270     qt-mt323:qt-mt323.dll
 0002:00000274       __imp_??0QProgressDialog@@QAE@ABVQString@@0HPAVQWidget@@PBD_NI@Z 00410274     qt-mt323:qt-mt323.dll
 0002:00000278       __imp_??1QProgressDialog@@UAE@XZ 00410278     qt-mt323:qt-mt323.dll
 0002:0000027c       __imp_?setProgress@QProgressDialog@@QAEXH@Z 0041027c     qt-mt323:qt-mt323.dll
 0002:00000280       __imp_?accept@QDialog@@MAEXXZ 00410280     qt-mt323:qt-mt323.dll
 0002:00000284       __imp_?activateItemAt@QMenuBar@@UAEXH@Z 00410284     qt-mt323:qt-mt323.dll
 0002:00000288       __imp_?activateItemAt@QPopupMenu@@UAEXH@Z 00410288     qt-mt323:qt-mt323.dll
 0002:0000028c       __imp_?addDockWindow@QMainWindow@@UAEXPAVQDockWindow@@ABVQString@@W4Dock@Qt@@_N@Z 0041028c     qt-mt323:qt-mt323.dll
 0002:00000290       __imp_?addDockWindow@QMainWindow@@UAEXPAVQDockWindow@@W4Dock@Qt@@_N@Z 00410290     qt-mt323:qt-mt323.dll
 0002:00000294       __imp_?adjustSize@QWidget@@UAEXXZ 00410294     qt-mt323:qt-mt323.dll
 0002:00000298       __imp_?appendChild@QDomNode@@UAE?AV1@ABV1@@Z 00410298     qt-mt323:qt-mt323.dll
 0002:0000029c       __imp_?attributes@QDomElement@@UBE?AVQDomNamedNodeMap@@XZ 0041029c     qt-mt323:qt-mt323.dll
 0002:000002a0       __imp_?checkConnectArgs@QObject@@MAE_NPBDPBV1@0@Z 004102a0     qt-mt323:qt-mt323.dll
 0002:000002a4       __imp_?childEvent@QMainWindow@@MAEXPAVQChildEvent@@@Z 004102a4     qt-mt323:qt-mt323.dll
 0002:000002a8       __imp_?childEvent@QObject@@MAEXPAVQChildEvent@@@Z 004102a8     qt-mt323:qt-mt323.dll
 0002:000002ac       __imp_?childNodes@QDomNode@@UBE?AVQDomNodeList@@XZ 004102ac     qt-mt323:qt-mt323.dll
 0002:000002b0       __imp_?className@QMenuBar@@UBEPBDXZ 004102b0     qt-mt323:qt-mt323.dll
 0002:000002b4       __imp_?className@QPopupMenu@@UBEPBDXZ 004102b4     qt-mt323:qt-mt323.dll
 0002:000002b8       __imp_?className@QProgressDialog@@UBEPBDXZ 004102b8     qt-mt323:qt-mt323.dll
 0002:000002bc       __imp_?className@QPushButton@@UBEPBDXZ 004102bc     qt-mt323:qt-mt323.dll
 0002:000002c0       __imp_?cloneNode@QDomNode@@UBE?AV1@_N@Z 004102c0     qt-mt323:qt-mt323.dll
 0002:000002c4       __imp_?close@QWidget@@UAE_N_N@Z 004102c4     qt-mt323:qt-mt323.dll
 0002:000002c8       __imp_?closeEvent@QPopupMenu@@MAEXPAVQCloseEvent@@@Z 004102c8     qt-mt323:qt-mt323.dll
 0002:000002cc       __imp_?closeEvent@QProgressDialog@@MAEXPAVQCloseEvent@@@Z 004102cc     qt-mt323:qt-mt323.dll
 0002:000002d0       __imp_?closeEvent@QWidget@@MAEXPAVQCloseEvent@@@Z 004102d0     qt-mt323:qt-mt323.dll
 0002:000002d4       __imp_?cmd@QPaintDevice@@MAE_NHPAVQPainter@@PATQPDevCmdParam@@@Z 004102d4     qt-mt323:qt-mt323.dll
 0002:000002d8       __imp_?compareItems@QGList@@MAEHPAX0@Z 004102d8     qt-mt323:qt-mt323.dll
 0002:000002dc       __imp_?connectNotify@QObject@@MAEXPBD@Z 004102dc     qt-mt323:qt-mt323.dll
 0002:000002e0       __imp_?contextMenuEvent@QDialog@@MAEXPAVQContextMenuEvent@@@Z 004102e0     qt-mt323:qt-mt323.dll
 0002:000002e4       __imp_?contextMenuEvent@QWidget@@MAEXPAVQContextMenuEvent@@@Z 004102e4     qt-mt323:qt-mt323.dll
 0002:000002e8       __imp_?create@QWidget@@MAEXPAUHWND__@@_N1@Z 004102e8     qt-mt323:qt-mt323.dll
 0002:000002ec       __imp_?customEvent@QObject@@MAEXPAVQCustomEvent@@@Z 004102ec     qt-mt323:qt-mt323.dll
 0002:000002f0       __imp_?customWhatsThis@QMenuBar@@UBE_NXZ 004102f0     qt-mt323:qt-mt323.dll
 0002:000002f4       __imp_?customWhatsThis@QPopupMenu@@UBE_NXZ 004102f4     qt-mt323:qt-mt323.dll
 0002:000002f8       __imp_?customWhatsThis@QWidget@@UBE_NXZ 004102f8     qt-mt323:qt-mt323.dll
 0002:000002fc       __imp_?customize@QMainWindow@@UAEXXZ 004102fc     qt-mt323:qt-mt323.dll
 0002:00000300       __imp_?destroy@QWidget@@MAEX_N0@Z 00410300     qt-mt323:qt-mt323.dll
 0002:00000304       __imp_?disconnectNotify@QObject@@MAEXPBD@Z 00410304     qt-mt323:qt-mt323.dll
 0002:00000308       __imp_?dockingArea@QMainWindow@@UAEPAVQDockArea@@ABVQPoint@@@Z 00410308     qt-mt323:qt-mt323.dll
 0002:0000030c       __imp_?done@QDialog@@MAEXH@Z 0041030c     qt-mt323:qt-mt323.dll
 0002:00000310       __imp_?dragEnterEvent@QWidget@@MAEXPAVQDragEnterEvent@@@Z 00410310     qt-mt323:qt-mt323.dll
 0002:00000314       __imp_?dragLeaveEvent@QWidget@@MAEXPAVQDragLeaveEvent@@@Z 00410314     qt-mt323:qt-mt323.dll
 0002:00000318       __imp_?dragMoveEvent@QWidget@@MAEXPAVQDragMoveEvent@@@Z 00410318     qt-mt323:qt-mt323.dll
 0002:0000031c       __imp_?drawButton@QPushButton@@MAEXPAVQPainter@@@Z 0041031c     qt-mt323:qt-mt323.dll
 0002:00000320       __imp_?drawButtonLabel@QPushButton@@MAEXPAVQPainter@@@Z 00410320     qt-mt323:qt-mt323.dll
 0002:00000324       __imp_?drawContents@QMenuBar@@MAEXPAVQPainter@@@Z 00410324     qt-mt323:qt-mt323.dll
 0002:00000328       __imp_?drawContents@QPopupMenu@@MAEXPAVQPainter@@@Z 00410328     qt-mt323:qt-mt323.dll
 0002:0000032c       __imp_?drawFrame@QFrame@@MAEXPAVQPainter@@@Z 0041032c     qt-mt323:qt-mt323.dll
 0002:00000330       __imp_?dropEvent@QWidget@@MAEXPAVQDropEvent@@@Z 00410330     qt-mt323:qt-mt323.dll
 0002:00000334       __imp_?elementsByTagName@QDomElement@@UBE?AVQDomNodeList@@ABVQString@@@Z 00410334     qt-mt323:qt-mt323.dll
 0002:00000338       __imp_?elementsByTagNameNS@QDomElement@@UBE?AVQDomNodeList@@ABVQString@@0@Z 00410338     qt-mt323:qt-mt323.dll
 0002:0000033c       __imp_?enabledChange@QButton@@MAEX_N@Z 0041033c     qt-mt323:qt-mt323.dll
 0002:00000340       __imp_?enabledChange@QPopupMenu@@MAEX_N@Z 00410340     qt-mt323:qt-mt323.dll
 0002:00000344       __imp_?enabledChange@QWidget@@MAEX_N@Z 00410344     qt-mt323:qt-mt323.dll
 0002:00000348       __imp_?enterEvent@QWidget@@MAEXPAVQEvent@@@Z 00410348     qt-mt323:qt-mt323.dll
 0002:0000034c       __imp_?event@QMainWindow@@MAE_NPAVQEvent@@@Z 0041034c     qt-mt323:qt-mt323.dll
 0002:00000350       __imp_?event@QWidget@@MAE_NPAVQEvent@@@Z 00410350     qt-mt323:qt-mt323.dll
 0002:00000354       __imp_?eventFilter@QDialog@@MAE_NPAVQObject@@PAVQEvent@@@Z 00410354     qt-mt323:qt-mt323.dll
 0002:00000358       __imp_?eventFilter@QMainWindow@@UAE_NPAVQObject@@PAVQEvent@@@Z 00410358     qt-mt323:qt-mt323.dll
 0002:0000035c       __imp_?eventFilter@QMenuBar@@UAE_NPAVQObject@@PAVQEvent@@@Z 0041035c     qt-mt323:qt-mt323.dll
 0002:00000360       __imp_?eventFilter@QObject@@UAE_NPAV1@PAVQEvent@@@Z 00410360     qt-mt323:qt-mt323.dll
 0002:00000364       __imp_?focusInEvent@QMenuBar@@MAEXPAVQFocusEvent@@@Z 00410364     qt-mt323:qt-mt323.dll
 0002:00000368       __imp_?focusInEvent@QPopupMenu@@MAEXPAVQFocusEvent@@@Z 00410368     qt-mt323:qt-mt323.dll
 0002:0000036c       __imp_?focusInEvent@QPushButton@@MAEXPAVQFocusEvent@@@Z 0041036c     qt-mt323:qt-mt323.dll
 0002:00000370       __imp_?focusInEvent@QWidget@@MAEXPAVQFocusEvent@@@Z 00410370     qt-mt323:qt-mt323.dll
 0002:00000374       __imp_?focusNextPrevChild@QPopupMenu@@MAE_N_N@Z 00410374     qt-mt323:qt-mt323.dll
 0002:00000378       __imp_?focusNextPrevChild@QWidget@@MAE_N_N@Z 00410378     qt-mt323:qt-mt323.dll
 0002:0000037c       __imp_?focusOutEvent@QMenuBar@@MAEXPAVQFocusEvent@@@Z 0041037c     qt-mt323:qt-mt323.dll
 0002:00000380       __imp_?focusOutEvent@QPopupMenu@@MAEXPAVQFocusEvent@@@Z 00410380     qt-mt323:qt-mt323.dll
 0002:00000384       __imp_?focusOutEvent@QPushButton@@MAEXPAVQFocusEvent@@@Z 00410384     qt-mt323:qt-mt323.dll
 0002:00000388       __imp_?focusOutEvent@QWidget@@MAEXPAVQFocusEvent@@@Z 00410388     qt-mt323:qt-mt323.dll
 0002:0000038c       __imp_?fontChange@QMenuBar@@MAEXABVQFont@@@Z 0041038c     qt-mt323:qt-mt323.dll
 0002:00000390       __imp_?fontChange@QWidget@@MAEXABVQFont@@@Z 00410390     qt-mt323:qt-mt323.dll
 0002:00000394       __imp_?fontInf@QPaintDevice@@MBEHPAVQFont@@H@Z 00410394     qt-mt323:qt-mt323.dll
 0002:00000398       __imp_?fontMet@QPaintDevice@@MBEHPAVQFont@@HPBDH@Z 00410398     qt-mt323:qt-mt323.dll
 0002:0000039c       __imp_?frameChanged@QMenuBar@@EAEXXZ 0041039c     qt-mt323:qt-mt323.dll
 0002:000003a0       __imp_?frameChanged@QPopupMenu@@EAEXXZ 004103a0     qt-mt323:qt-mt323.dll
 0002:000003a4       __imp_?handle@QPaintDevice@@UBEPAUHDC__@@XZ 004103a4     qt-mt323:qt-mt323.dll
 0002:000003a8       __imp_?hasAttributes@QDomNode@@UBE_NXZ 004103a8     qt-mt323:qt-mt323.dll
 0002:000003ac       __imp_?hasChildNodes@QDomNode@@UBE_NXZ 004103ac     qt-mt323:qt-mt323.dll
 0002:000003b0       __imp_?heightForWidth@QMenuBar@@UBEHH@Z 004103b0     qt-mt323:qt-mt323.dll
 0002:000003b4       __imp_?heightForWidth@QWidget@@UBEHH@Z 004103b4     qt-mt323:qt-mt323.dll
 0002:000003b8       __imp_?hide@QDialog@@UAEXXZ 004103b8     qt-mt323:qt-mt323.dll
 0002:000003bc       __imp_?hide@QMainWindow@@UAEXXZ 004103bc     qt-mt323:qt-mt323.dll
 0002:000003c0       __imp_?hide@QMenuBar@@UAEXXZ 004103c0     qt-mt323:qt-mt323.dll
 0002:000003c4       __imp_?hide@QPopupMenu@@UAEXXZ 004103c4     qt-mt323:qt-mt323.dll
 0002:000003c8       __imp_?hide@QWidget@@UAEXXZ 004103c8     qt-mt323:qt-mt323.dll
 0002:000003cc       __imp_?hideEvent@QWidget@@MAEXPAVQHideEvent@@@Z 004103cc     qt-mt323:qt-mt323.dll
 0002:000003d0       __imp_?hitButton@QButton@@MBE_NABVQPoint@@@Z 004103d0     qt-mt323:qt-mt323.dll
 0002:000003d4       __imp_?imComposeEvent@QWidget@@MAEXPAVQIMEvent@@@Z 004103d4     qt-mt323:qt-mt323.dll
 0002:000003d8       __imp_?imEndEvent@QWidget@@MAEXPAVQIMEvent@@@Z 004103d8     qt-mt323:qt-mt323.dll
 0002:000003dc       __imp_?imStartEvent@QWidget@@MAEXPAVQIMEvent@@@Z 004103dc     qt-mt323:qt-mt323.dll
 0002:000003e0       __imp_?insertAfter@QDomNode@@UAE?AV1@ABV1@0@Z 004103e0     qt-mt323:qt-mt323.dll
 0002:000003e4       __imp_?insertBefore@QDomNode@@UAE?AV1@ABV1@0@Z 004103e4     qt-mt323:qt-mt323.dll
 0002:000003e8       __imp_?insertChild@QObject@@UAEXPAV1@@Z 004103e8     qt-mt323:qt-mt323.dll
 0002:000003ec       __imp_?isAttr@QDomNode@@UBE_NXZ 004103ec     qt-mt323:qt-mt323.dll
 0002:000003f0       __imp_?isCDATASection@QDomNode@@UBE_NXZ 004103f0     qt-mt323:qt-mt323.dll
 0002:000003f4       __imp_?isCharacterData@QDomNode@@UBE_NXZ 004103f4     qt-mt323:qt-mt323.dll
 0002:000003f8       __imp_?isComment@QDomNode@@UBE_NXZ 004103f8     qt-mt323:qt-mt323.dll
 0002:000003fc       __imp_?isCustomizable@QMainWindow@@UBE_NXZ 004103fc     qt-mt323:qt-mt323.dll
 0002:00000400       __imp_?isDocument@QDomNode@@UBE_NXZ 00410400     qt-mt323:qt-mt323.dll
 0002:00000404       __imp_?isDocumentFragment@QDomNode@@UBE_NXZ 00410404     qt-mt323:qt-mt323.dll
 0002:00000408       __imp_?isDocumentType@QDomNode@@UBE_NXZ 00410408     qt-mt323:qt-mt323.dll
 0002:0000040c       __imp_?isElement@QDomElement@@UBE_NXZ 0041040c     qt-mt323:qt-mt323.dll
 0002:00000410       __imp_?isEntity@QDomNode@@UBE_NXZ 00410410     qt-mt323:qt-mt323.dll
 0002:00000414       __imp_?isEntityReference@QDomNode@@UBE_NXZ 00410414     qt-mt323:qt-mt323.dll
 0002:00000418       __imp_?isNotation@QDomNode@@UBE_NXZ 00410418     qt-mt323:qt-mt323.dll
 0002:0000041c       __imp_?isProcessingInstruction@QDomNode@@UBE_NXZ 0041041c     qt-mt323:qt-mt323.dll
 0002:00000420       __imp_?isSupported@QDomNode@@UBE_NABVQString@@0@Z 00410420     qt-mt323:qt-mt323.dll
 0002:00000424       __imp_?isText@QDomNode@@UBE_NXZ 00410424     qt-mt323:qt-mt323.dll
 0002:00000428       __imp_?keyPressEvent@QButton@@MAEXPAVQKeyEvent@@@Z 00410428     qt-mt323:qt-mt323.dll
 0002:0000042c       __imp_?keyPressEvent@QDialog@@MAEXPAVQKeyEvent@@@Z 0041042c     qt-mt323:qt-mt323.dll
 0002:00000430       __imp_?keyPressEvent@QMenuBar@@MAEXPAVQKeyEvent@@@Z 00410430     qt-mt323:qt-mt323.dll
 0002:00000434       __imp_?keyPressEvent@QPopupMenu@@MAEXPAVQKeyEvent@@@Z 00410434     qt-mt323:qt-mt323.dll
 0002:00000438       __imp_?keyPressEvent@QWidget@@MAEXPAVQKeyEvent@@@Z 00410438     qt-mt323:qt-mt323.dll
 0002:0000043c       __imp_?keyReleaseEvent@QButton@@MAEXPAVQKeyEvent@@@Z 0041043c     qt-mt323:qt-mt323.dll
 0002:00000440       __imp_?keyReleaseEvent@QWidget@@MAEXPAVQKeyEvent@@@Z 00410440     qt-mt323:qt-mt323.dll
 0002:00000444       __imp_?lastChild@QDomNode@@UBE?AV1@XZ 00410444     qt-mt323:qt-mt323.dll
 0002:00000448       __imp_?leaveEvent@QMenuBar@@MAEXPAVQEvent@@@Z 00410448     qt-mt323:qt-mt323.dll
 0002:0000044c       __imp_?leaveEvent@QPopupMenu@@MAEXPAVQEvent@@@Z 0041044c     qt-mt323:qt-mt323.dll
 0002:00000450       __imp_?leaveEvent@QWidget@@MAEXPAVQEvent@@@Z 00410450     qt-mt323:qt-mt323.dll
 0002:00000454       __imp_?localName@QDomNode@@UBE?AVQString@@XZ 00410454     qt-mt323:qt-mt323.dll
 0002:00000458       __imp_?menuContentsChanged@QMenuBar@@MAEXXZ 00410458     qt-mt323:qt-mt323.dll
 0002:0000045c       __imp_?menuContentsChanged@QPopupMenu@@EAEXXZ 0041045c     qt-mt323:qt-mt323.dll
 0002:00000460       __imp_?menuDelPopup@QMenuBar@@EAEXPAVQPopupMenu@@@Z 00410460     qt-mt323:qt-mt323.dll
 0002:00000464       __imp_?menuDelPopup@QPopupMenu@@EAEXPAV1@@Z 00410464     qt-mt323:qt-mt323.dll
 0002:00000468       __imp_?menuInsPopup@QMenuBar@@EAEXPAVQPopupMenu@@@Z 00410468     qt-mt323:qt-mt323.dll
 0002:0000046c       __imp_?menuInsPopup@QPopupMenu@@EAEXPAV1@@Z 0041046c     qt-mt323:qt-mt323.dll
 0002:00000470       __imp_?menuStateChanged@QMenuBar@@MAEXXZ 00410470     qt-mt323:qt-mt323.dll
 0002:00000474       __imp_?menuStateChanged@QPopupMenu@@EAEXXZ 00410474     qt-mt323:qt-mt323.dll
 0002:00000478       __imp_?metaObject@QMenuBar@@UBEPAVQMetaObject@@XZ 00410478     qt-mt323:qt-mt323.dll
 0002:0000047c       __imp_?metaObject@QPopupMenu@@UBEPAVQMetaObject@@XZ 0041047c     qt-mt323:qt-mt323.dll
 0002:00000480       __imp_?metaObject@QProgressDialog@@UBEPAVQMetaObject@@XZ 00410480     qt-mt323:qt-mt323.dll
 0002:00000484       __imp_?metaObject@QPushButton@@UBEPAVQMetaObject@@XZ 00410484     qt-mt323:qt-mt323.dll
 0002:00000488       __imp_?metric@QWidget@@MBEHH@Z 00410488     qt-mt323:qt-mt323.dll
 0002:0000048c       __imp_?minimumSizeHint@QDialog@@UBE?AVQSize@@XZ 0041048c     qt-mt323:qt-mt323.dll
 0002:00000490       __imp_?minimumSizeHint@QMainWindow@@UBE?AVQSize@@XZ 00410490     qt-mt323:qt-mt323.dll
 0002:00000494       __imp_?minimumSizeHint@QMenuBar@@UBE?AVQSize@@XZ 00410494     qt-mt323:qt-mt323.dll
 0002:00000498       __imp_?minimumSizeHint@QWidget@@UBE?AVQSize@@XZ 00410498     qt-mt323:qt-mt323.dll
 0002:0000049c       __imp_?mouseDoubleClickEvent@QWidget@@MAEXPAVQMouseEvent@@@Z 0041049c     qt-mt323:qt-mt323.dll
 0002:000004a0       __imp_?mouseMoveEvent@QButton@@MAEXPAVQMouseEvent@@@Z 004104a0     qt-mt323:qt-mt323.dll
 0002:000004a4       __imp_?mouseMoveEvent@QMenuBar@@MAEXPAVQMouseEvent@@@Z 004104a4     qt-mt323:qt-mt323.dll
 0002:000004a8       __imp_?mouseMoveEvent@QPopupMenu@@MAEXPAVQMouseEvent@@@Z 004104a8     qt-mt323:qt-mt323.dll
 0002:000004ac       __imp_?mouseMoveEvent@QWidget@@MAEXPAVQMouseEvent@@@Z 004104ac     qt-mt323:qt-mt323.dll
 0002:000004b0       __imp_?mousePressEvent@QButton@@MAEXPAVQMouseEvent@@@Z 004104b0     qt-mt323:qt-mt323.dll
 0002:000004b4       __imp_?mousePressEvent@QMenuBar@@MAEXPAVQMouseEvent@@@Z 004104b4     qt-mt323:qt-mt323.dll
 0002:000004b8       __imp_?mousePressEvent@QPopupMenu@@MAEXPAVQMouseEvent@@@Z 004104b8     qt-mt323:qt-mt323.dll
 0002:000004bc       __imp_?mousePressEvent@QWidget@@MAEXPAVQMouseEvent@@@Z 004104bc     qt-mt323:qt-mt323.dll
 0002:000004c0       __imp_?mouseReleaseEvent@QButton@@MAEXPAVQMouseEvent@@@Z 004104c0     qt-mt323:qt-mt323.dll
 0002:000004c4       __imp_?mouseReleaseEvent@QMenuBar@@MAEXPAVQMouseEvent@@@Z 004104c4     qt-mt323:qt-mt323.dll
 0002:000004c8       __imp_?mouseReleaseEvent@QPopupMenu@@MAEXPAVQMouseEvent@@@Z 004104c8     qt-mt323:qt-mt323.dll
 0002:000004cc       __imp_?mouseReleaseEvent@QWidget@@MAEXPAVQMouseEvent@@@Z 004104cc     qt-mt323:qt-mt323.dll
 0002:000004d0       __imp_?move@QDialog@@UAEXHH@Z 004104d0     qt-mt323:qt-mt323.dll
 0002:000004d4       __imp_?move@QPushButton@@UAEXHH@Z 004104d4     qt-mt323:qt-mt323.dll
 0002:000004d8       __imp_?move@QWidget@@UAEXHH@Z 004104d8     qt-mt323:qt-mt323.dll
 0002:000004dc       __imp_?moveDockWindow@QMainWindow@@UAEXPAVQDockWindow@@W4Dock@Qt@@@Z 004104dc     qt-mt323:qt-mt323.dll
 0002:000004e0       __imp_?moveDockWindow@QMainWindow@@UAEXPAVQDockWindow@@W4Dock@Qt@@_NHH@Z 004104e0     qt-mt323:qt-mt323.dll
 0002:000004e4       __imp_?moveEvent@QWidget@@MAEXPAVQMoveEvent@@@Z 004104e4     qt-mt323:qt-mt323.dll
 0002:000004e8       __imp_?namespaceURI@QDomNode@@UBE?AVQString@@XZ 004104e8     qt-mt323:qt-mt323.dll
 0002:000004ec       __imp_?newItem@QPtrCollection@@MAEPAXPAX@Z 004104ec     qt-mt323:qt-mt323.dll
 0002:000004f0       __imp_?nodeName@QDomNode@@UBE?AVQString@@XZ 004104f0     qt-mt323:qt-mt323.dll
 0002:000004f4       __imp_?nodeType@QDomElement@@UBE?AW4NodeType@QDomNode@@XZ 004104f4     qt-mt323:qt-mt323.dll
 0002:000004f8       __imp_?nodeValue@QDomNode@@UBE?AVQString@@XZ 004104f8     qt-mt323:qt-mt323.dll
 0002:000004fc       __imp_?normalize@QDomNode@@UAEXXZ 004104fc     qt-mt323:qt-mt323.dll
 0002:00000500       __imp_?ownerDocument@QDomNode@@UBE?AVQDomDocument@@XZ 00410500     qt-mt323:qt-mt323.dll
 0002:00000504       __imp_?paintEvent@QButton@@MAEXPAVQPaintEvent@@@Z 00410504     qt-mt323:qt-mt323.dll
 0002:00000508       __imp_?paintEvent@QFrame@@MAEXPAVQPaintEvent@@@Z 00410508     qt-mt323:qt-mt323.dll
 0002:0000050c       __imp_?paintEvent@QMainWindow@@MAEXPAVQPaintEvent@@@Z 0041050c     qt-mt323:qt-mt323.dll
 0002:00000510       __imp_?paintEvent@QPopupMenu@@MAEXPAVQPaintEvent@@@Z 00410510     qt-mt323:qt-mt323.dll
 0002:00000514       __imp_?paintEvent@QWidget@@MAEXPAVQPaintEvent@@@Z 00410514     qt-mt323:qt-mt323.dll
 0002:00000518       __imp_?paletteChange@QWidget@@MAEXABVQPalette@@@Z 00410518     qt-mt323:qt-mt323.dll
 0002:0000051c       __imp_?parentNode@QDomNode@@UBE?AV1@XZ 0041051c     qt-mt323:qt-mt323.dll
 0002:00000520       __imp_?polish@QWidget@@UAEXXZ 00410520     qt-mt323:qt-mt323.dll
 0002:00000524       __imp_?prefix@QDomNode@@UBE?AVQString@@XZ 00410524     qt-mt323:qt-mt323.dll
 0002:00000528       __imp_?previousSibling@QDomNode@@UBE?AV1@XZ 00410528     qt-mt323:qt-mt323.dll
 0002:0000052c       __imp_?property@QObject@@UBE?AVQVariant@@PBD@Z 0041052c     qt-mt323:qt-mt323.dll
 0002:00000530       __imp_?qt_cast@QMenuBar@@UAEPAXPBD@Z 00410530     qt-mt323:qt-mt323.dll
 0002:00000534       __imp_?qt_cast@QPopupMenu@@UAEPAXPBD@Z 00410534     qt-mt323:qt-mt323.dll
 0002:00000538       __imp_?qt_cast@QProgressDialog@@UAEPAXPBD@Z 00410538     qt-mt323:qt-mt323.dll
 0002:0000053c       __imp_?qt_cast@QPushButton@@UAEPAXPBD@Z 0041053c     qt-mt323:qt-mt323.dll
 0002:00000540       __imp_?qt_emit@QMenuBar@@UAE_NHPAUQUObject@@@Z 00410540     qt-mt323:qt-mt323.dll
 0002:00000544       __imp_?qt_emit@QPopupMenu@@UAE_NHPAUQUObject@@@Z 00410544     qt-mt323:qt-mt323.dll
 0002:00000548       __imp_?qt_emit@QProgressDialog@@UAE_NHPAUQUObject@@@Z 00410548     qt-mt323:qt-mt323.dll
 0002:0000054c       __imp_?qt_emit@QPushButton@@UAE_NHPAUQUObject@@@Z 0041054c     qt-mt323:qt-mt323.dll
 0002:00000550       __imp_?qt_invoke@QMenuBar@@UAE_NHPAUQUObject@@@Z 00410550     qt-mt323:qt-mt323.dll
 0002:00000554       __imp_?qt_invoke@QPopupMenu@@UAE_NHPAUQUObject@@@Z 00410554     qt-mt323:qt-mt323.dll
 0002:00000558       __imp_?qt_invoke@QProgressDialog@@UAE_NHPAUQUObject@@@Z 00410558     qt-mt323:qt-mt323.dll
 0002:0000055c       __imp_?qt_invoke@QPushButton@@UAE_NHPAUQUObject@@@Z 0041055c     qt-mt323:qt-mt323.dll
 0002:00000560       __imp_?qt_property@QMenuBar@@UAE_NHHPAVQVariant@@@Z 00410560     qt-mt323:qt-mt323.dll
 0002:00000564       __imp_?qt_property@QPopupMenu@@UAE_NHHPAVQVariant@@@Z 00410564     qt-mt323:qt-mt323.dll
 0002:00000568       __imp_?qt_property@QProgressDialog@@UAE_NHHPAVQVariant@@@Z 00410568     qt-mt323:qt-mt323.dll
 0002:0000056c       __imp_?qt_property@QPushButton@@UAE_NHHPAVQVariant@@@Z 0041056c     qt-mt323:qt-mt323.dll
 0002:00000570       __imp_?read@QGList@@MAEAAVQDataStream@@AAV2@AAPAX@Z 00410570     qt-mt323:qt-mt323.dll
 0002:00000574       __imp_?reject@QDialog@@MAEXXZ 00410574     qt-mt323:qt-mt323.dll
 0002:00000578       __imp_?removeChild@QDomNode@@UAE?AV1@ABV1@@Z 00410578     qt-mt323:qt-mt323.dll
 0002:0000057c       __imp_?removeChild@QObject@@UAEXPAV1@@Z 0041057c     qt-mt323:qt-mt323.dll
 0002:00000580       __imp_?removeDockWindow@QMainWindow@@UAEXPAVQDockWindow@@@Z 00410580     qt-mt323:qt-mt323.dll
 0002:00000584       __imp_?reparent@QWidget@@UAEXPAV1@IABVQPoint@@_N@Z 00410584     qt-mt323:qt-mt323.dll
 0002:00000588       __imp_?replaceChild@QDomNode@@UAE?AV1@ABV1@0@Z 00410588     qt-mt323:qt-mt323.dll
 0002:0000058c       __imp_?resize@QDialog@@UAEXHH@Z 0041058c     qt-mt323:qt-mt323.dll
 0002:00000590       __imp_?resize@QPushButton@@UAEXHH@Z 00410590     qt-mt323:qt-mt323.dll
 0002:00000594       __imp_?resize@QWidget@@UAEXHH@Z 00410594     qt-mt323:qt-mt323.dll
 0002:00000598       __imp_?resizeEvent@QFrame@@MAEXPAVQResizeEvent@@@Z 00410598     qt-mt323:qt-mt323.dll
 0002:0000059c       __imp_?resizeEvent@QMenuBar@@MAEXPAVQResizeEvent@@@Z 0041059c     qt-mt323:qt-mt323.dll
 0002:000005a0       __imp_?resizeEvent@QProgressDialog@@MAEXPAVQResizeEvent@@@Z 004105a0     qt-mt323:qt-mt323.dll
 0002:000005a4       __imp_?resizeEvent@QPushButton@@MAEXPAVQResizeEvent@@@Z 004105a4     qt-mt323:qt-mt323.dll
 0002:000005a8       __imp_?resizeEvent@QWidget@@MAEXPAVQResizeEvent@@@Z 004105a8     qt-mt323:qt-mt323.dll
 0002:000005ac       __imp_?resolution@QPaintDevice@@UBEHXZ 004105ac     qt-mt323:qt-mt323.dll
 0002:000005b0       __imp_?setAccel@QButton@@UAEXABVQKeySequence@@@Z 004105b0     qt-mt323:qt-mt323.dll
 0002:000005b4       __imp_?setAcceptDrops@QWidget@@UAEX_N@Z 004105b4     qt-mt323:qt-mt323.dll
 0002:000005b8       __imp_?setActiveItem@QPopupMenu@@UAEXH@Z 004105b8     qt-mt323:qt-mt323.dll
 0002:000005bc       __imp_?setActiveWindow@QWidget@@UAEXXZ 004105bc     qt-mt323:qt-mt323.dll
 0002:000005c0       __imp_?setAppropriate@QMainWindow@@UAEXPAVQDockWindow@@_N@Z 004105c0     qt-mt323:qt-mt323.dll
 0002:000005c4       __imp_?setAutoDefault@QPushButton@@UAEX_N@Z 004105c4     qt-mt323:qt-mt323.dll
 0002:000005c8       __imp_?setAutoMask@QWidget@@UAEX_N@Z 004105c8     qt-mt323:qt-mt323.dll
 0002:000005cc       __imp_?setAutoRepeat@QButton@@UAEX_N@Z 004105cc     qt-mt323:qt-mt323.dll
 0002:000005d0       __imp_?setBackgroundColor@QWidget@@UAEXABVQColor@@@Z 004105d0     qt-mt323:qt-mt323.dll
 0002:000005d4       __imp_?setBackgroundMode@QWidget@@UAEXW4BackgroundMode@Qt@@@Z 004105d4     qt-mt323:qt-mt323.dll
 0002:000005d8       __imp_?setBackgroundOrigin@QWidget@@UAEXW4BackgroundOrigin@1@@Z 004105d8     qt-mt323:qt-mt323.dll
 0002:000005dc       __imp_?setBackgroundPixmap@QWidget@@UAEXABVQPixmap@@@Z 004105dc     qt-mt323:qt-mt323.dll
 0002:000005e0       __imp_?setCentralWidget@QMainWindow@@UAEXPAVQWidget@@@Z 004105e0     qt-mt323:qt-mt323.dll
 0002:000005e4       __imp_?setCheckable@QPopupMenu@@UAEX_N@Z 004105e4     qt-mt323:qt-mt323.dll
 0002:000005e8       __imp_?setCursor@QWidget@@UAEXABVQCursor@@@Z 004105e8     qt-mt323:qt-mt323.dll
 0002:000005ec       __imp_?setDefault@QPushButton@@UAEX_N@Z 004105ec     qt-mt323:qt-mt323.dll
 0002:000005f0       __imp_?setDockEnabled@QMainWindow@@UAEXPAVQDockWindow@@W4Dock@Qt@@_N@Z 004105f0     qt-mt323:qt-mt323.dll
 0002:000005f4       __imp_?setDockEnabled@QMainWindow@@UAEXW4Dock@Qt@@_N@Z 004105f4     qt-mt323:qt-mt323.dll
 0002:000005f8       __imp_?setDockMenuEnabled@QMainWindow@@UAEX_N@Z 004105f8     qt-mt323:qt-mt323.dll
 0002:000005fc       __imp_?setDockWindowsMovable@QMainWindow@@UAEX_N@Z 004105fc     qt-mt323:qt-mt323.dll
 0002:00000600       __imp_?setDown@QButton@@UAEX_N@Z 00410600     qt-mt323:qt-mt323.dll
 0002:00000604       __imp_?setEnabled@QWidget@@UAEX_N@Z 00410604     qt-mt323:qt-mt323.dll
 0002:00000608       __imp_?setEraseColor@QWidget@@UAEXABVQColor@@@Z 00410608     qt-mt323:qt-mt323.dll
 0002:0000060c       __imp_?setErasePixmap@QWidget@@UAEXABVQPixmap@@@Z 0041060c     qt-mt323:qt-mt323.dll
 0002:00000610       __imp_?setFirstItemActive@QPopupMenu@@EAEXXZ 00410610     qt-mt323:qt-mt323.dll
 0002:00000614       __imp_?setFocus@QWidget@@UAEXXZ 00410614     qt-mt323:qt-mt323.dll
 0002:00000618       __imp_?setFocusPolicy@QWidget@@UAEXW4FocusPolicy@1@@Z 00410618     qt-mt323:qt-mt323.dll
 0002:0000061c       __imp_?setFocusProxy@QWidget@@UAEXPAV1@@Z 0041061c     qt-mt323:qt-mt323.dll
 0002:00000620       __imp_?setFont@QPopupMenu@@UAEXABVQFont@@@Z 00410620     qt-mt323:qt-mt323.dll
 0002:00000624       __imp_?setFont@QWidget@@UAEXABVQFont@@@Z 00410624     qt-mt323:qt-mt323.dll
 0002:00000628       __imp_?setFrameRect@QFrame@@UAEXABVQRect@@@Z 00410628     qt-mt323:qt-mt323.dll
 0002:0000062c       __imp_?setFrameStyle@QFrame@@UAEXH@Z 0041062c     qt-mt323:qt-mt323.dll
 0002:00000630       __imp_?setGeometry@QDialog@@UAEXABVQRect@@@Z 00410630     qt-mt323:qt-mt323.dll
 0002:00000634       __imp_?setGeometry@QDialog@@UAEXHHHH@Z 00410634     qt-mt323:qt-mt323.dll
 0002:00000638       __imp_?setGeometry@QPushButton@@UAEXABVQRect@@@Z 00410638     qt-mt323:qt-mt323.dll
 0002:0000063c       __imp_?setGeometry@QPushButton@@UAEXHHHH@Z 0041063c     qt-mt323:qt-mt323.dll
 0002:00000640       __imp_?setGeometry@QWidget@@UAEXABVQRect@@@Z 00410640     qt-mt323:qt-mt323.dll
 0002:00000644       __imp_?setGeometry@QWidget@@UAEXHHHH@Z 00410644     qt-mt323:qt-mt323.dll
 0002:00000648       __imp_?setGroup@QButton@@EAEXPAVQButtonGroup@@@Z 00410648     qt-mt323:qt-mt323.dll
 0002:0000064c       __imp_?setIconText@QWidget@@UAEXABVQString@@@Z 0041064c     qt-mt323:qt-mt323.dll
 0002:00000650       __imp_?setId@QMenuData@@UAEXHH@Z 00410650     qt-mt323:qt-mt323.dll
 0002:00000654       __imp_?setIsMenuButton@QPushButton@@UAEX_N@Z 00410654     qt-mt323:qt-mt323.dll
 0002:00000658       __imp_?setKeyCompression@QWidget@@MAEX_N@Z 00410658     qt-mt323:qt-mt323.dll
 0002:0000065c       __imp_?setLineWidth@QFrame@@UAEXH@Z 0041065c     qt-mt323:qt-mt323.dll
 0002:00000660       __imp_?setMargin@QFrame@@UAEXH@Z 00410660     qt-mt323:qt-mt323.dll
 0002:00000664       __imp_?setMask@QWidget@@UAEXABVQBitmap@@@Z 00410664     qt-mt323:qt-mt323.dll
 0002:00000668       __imp_?setMask@QWidget@@UAEXABVQRegion@@@Z 00410668     qt-mt323:qt-mt323.dll
 0002:0000066c       __imp_?setMaximumSize@QWidget@@UAEXHH@Z 0041066c     qt-mt323:qt-mt323.dll
 0002:00000670       __imp_?setMenuBar@QMainWindow@@EAEXPAVQMenuBar@@@Z 00410670     qt-mt323:qt-mt323.dll
 0002:00000674       __imp_?setMicroFocusHint@QWidget@@MAEXHHHH_NPAVQFont@@@Z 00410674     qt-mt323:qt-mt323.dll
 0002:00000678       __imp_?setMidLineWidth@QFrame@@UAEXH@Z 00410678     qt-mt323:qt-mt323.dll
 0002:0000067c       __imp_?setMinimumSize@QWidget@@UAEXHH@Z 0041067c     qt-mt323:qt-mt323.dll
 0002:00000680       __imp_?setMouseTracking@QWidget@@UAEX_N@Z 00410680     qt-mt323:qt-mt323.dll
 0002:00000684       __imp_?setName@QWidget@@UAEXPBD@Z 00410684     qt-mt323:qt-mt323.dll
 0002:00000688       __imp_?setNodeValue@QDomNode@@UAEXABVQString@@@Z 00410688     qt-mt323:qt-mt323.dll
 0002:0000068c       __imp_?setOn@QPushButton@@UAEX_N@Z 0041068c     qt-mt323:qt-mt323.dll
 0002:00000690       __imp_?setOpaqueMoving@QMainWindow@@UAEX_N@Z 00410690     qt-mt323:qt-mt323.dll
 0002:00000694       __imp_?setPalette@QWidget@@UAEXABVQPalette@@@Z 00410694     qt-mt323:qt-mt323.dll
 0002:00000698       __imp_?setPaletteBackgroundColor@QWidget@@UAEXABVQColor@@@Z 00410698     qt-mt323:qt-mt323.dll
 0002:0000069c       __imp_?setPaletteBackgroundPixmap@QWidget@@UAEXABVQPixmap@@@Z 0041069c     qt-mt323:qt-mt323.dll
 0002:000006a0       __imp_?setPixmap@QButton@@UAEXABVQPixmap@@@Z 004106a0     qt-mt323:qt-mt323.dll
 0002:000006a4       __imp_?setPrefix@QDomNode@@UAEXABVQString@@@Z 004106a4     qt-mt323:qt-mt323.dll
 0002:000006a8       __imp_?setProperty@QObject@@UAE_NPBDABVQVariant@@@Z 004106a8     qt-mt323:qt-mt323.dll
 0002:000006ac       __imp_?setResolution@QPaintDevice@@UAEXH@Z 004106ac     qt-mt323:qt-mt323.dll
 0002:000006b0       __imp_?setRightJustification@QMainWindow@@UAEX_N@Z 004106b0     qt-mt323:qt-mt323.dll
 0002:000006b4       __imp_?setSeparator@QMenuBar@@UAEXW4Separator@1@@Z 004106b4     qt-mt323:qt-mt323.dll
 0002:000006b8       __imp_?setSizeIncrement@QWidget@@UAEXHH@Z 004106b8     qt-mt323:qt-mt323.dll
 0002:000006bc       __imp_?setSizePolicy@QWidget@@UAEXVQSizePolicy@@@Z 004106bc     qt-mt323:qt-mt323.dll
 0002:000006c0       __imp_?setState@QButton@@MAEXW4ToggleState@1@@Z 004106c0     qt-mt323:qt-mt323.dll
 0002:000006c4       __imp_?setStatusBar@QMainWindow@@EAEXPAVQStatusBar@@@Z 004106c4     qt-mt323:qt-mt323.dll
 0002:000006c8       __imp_?setText@QButton@@UAEXABVQString@@@Z 004106c8     qt-mt323:qt-mt323.dll
 0002:000006cc       __imp_?setToggleType@QButton@@MAEXW4ToggleType@1@@Z 004106cc     qt-mt323:qt-mt323.dll
 0002:000006d0       __imp_?setToolTipGroup@QMainWindow@@EAEXPAVQToolTipGroup@@@Z 004106d0     qt-mt323:qt-mt323.dll
 0002:000006d4       __imp_?setUpLayout@QMainWindow@@MAEXXZ 004106d4     qt-mt323:qt-mt323.dll
 0002:000006d8       __imp_?setUpdatesEnabled@QWidget@@UAEX_N@Z 004106d8     qt-mt323:qt-mt323.dll
 0002:000006dc       __imp_?setUsesBigPixmaps@QMainWindow@@UAEX_N@Z 004106dc     qt-mt323:qt-mt323.dll
 0002:000006e0       __imp_?setUsesTextLabel@QMainWindow@@UAEX_N@Z 004106e0     qt-mt323:qt-mt323.dll
 0002:000006e4       __imp_?setWFlags@QWidget@@MAEXI@Z 004106e4     qt-mt323:qt-mt323.dll
 0002:000006e8       __imp_?setWState@QWidget@@MAEXI@Z 004106e8     qt-mt323:qt-mt323.dll
 0002:000006ec       __imp_?show@QDialog@@UAEXXZ 004106ec     qt-mt323:qt-mt323.dll
 0002:000006f0       __imp_?show@QMenuBar@@UAEXXZ 004106f0     qt-mt323:qt-mt323.dll
 0002:000006f4       __imp_?show@QPopupMenu@@UAEXXZ 004106f4     qt-mt323:qt-mt323.dll
 0002:000006f8       __imp_?show@QWidget@@UAEXXZ 004106f8     qt-mt323:qt-mt323.dll
 0002:000006fc       __imp_?showDockMenu@QMainWindow@@MAE_NABVQPoint@@@Z 004106fc     qt-mt323:qt-mt323.dll
 0002:00000700       __imp_?showEvent@QProgressDialog@@MAEXPAVQShowEvent@@@Z 00410700     qt-mt323:qt-mt323.dll
 0002:00000704       __imp_?showEvent@QWidget@@MAEXPAVQShowEvent@@@Z 00410704     qt-mt323:qt-mt323.dll
 0002:00000708       __imp_?showMaximized@QWidget@@UAEXXZ 00410708     qt-mt323:qt-mt323.dll
 0002:0000070c       __imp_?showMinimized@QWidget@@UAEXXZ 0041070c     qt-mt323:qt-mt323.dll
 0002:00000710       __imp_?showNormal@QWidget@@UAEXXZ 00410710     qt-mt323:qt-mt323.dll
 0002:00000714       __imp_?sizeHint@QMainWindow@@UBE?AVQSize@@XZ 00410714     qt-mt323:qt-mt323.dll
 0002:00000718       __imp_?sizeHint@QMenuBar@@UBE?AVQSize@@XZ 00410718     qt-mt323:qt-mt323.dll
 0002:0000071c       __imp_?sizeHint@QPopupMenu@@UBE?AVQSize@@XZ 0041071c     qt-mt323:qt-mt323.dll
 0002:00000720       __imp_?sizeHint@QProgressDialog@@UBE?AVQSize@@XZ 00410720     qt-mt323:qt-mt323.dll
 0002:00000724       __imp_?sizeHint@QPushButton@@UBE?AVQSize@@XZ 00410724     qt-mt323:qt-mt323.dll
 0002:00000728       __imp_?sizePolicy@QWidget@@UBE?AVQSizePolicy@@XZ 00410728     qt-mt323:qt-mt323.dll
 0002:0000072c       __imp_?styleChange@QMainWindow@@MAEXAAVQStyle@@@Z 0041072c     qt-mt323:qt-mt323.dll
 0002:00000730       __imp_?styleChange@QMenuBar@@MAEXAAVQStyle@@@Z 00410730     qt-mt323:qt-mt323.dll
 0002:00000734       __imp_?styleChange@QPopupMenu@@MAEXAAVQStyle@@@Z 00410734     qt-mt323:qt-mt323.dll
 0002:00000738       __imp_?styleChange@QProgressDialog@@MAEXAAVQStyle@@@Z 00410738     qt-mt323:qt-mt323.dll
 0002:0000073c       __imp_?styleChange@QWidget@@MAEXAAVQStyle@@@Z 0041073c     qt-mt323:qt-mt323.dll
 0002:00000740       __imp_?tabletEvent@QWidget@@MAEXPAVQTabletEvent@@@Z 00410740     qt-mt323:qt-mt323.dll
 0002:00000744       __imp_?timerEvent@QObject@@MAEXPAVQTimerEvent@@@Z 00410744     qt-mt323:qt-mt323.dll
 0002:00000748       __imp_?timerEvent@QPopupMenu@@MAEXPAVQTimerEvent@@@Z 00410748     qt-mt323:qt-mt323.dll
 0002:0000074c       __imp_?unsetCursor@QWidget@@UAEXXZ 0041074c     qt-mt323:qt-mt323.dll
 0002:00000750       __imp_?updateItem@QMenuBar@@UAEXH@Z 00410750     qt-mt323:qt-mt323.dll
 0002:00000754       __imp_?updateItem@QPopupMenu@@UAEXH@Z 00410754     qt-mt323:qt-mt323.dll
 0002:00000758       __imp_?updateMask@QPushButton@@MAEXXZ 00410758     qt-mt323:qt-mt323.dll
 0002:0000075c       __imp_?updateMask@QWidget@@MAEXXZ 0041075c     qt-mt323:qt-mt323.dll
 0002:00000760       __imp_?whatsThis@QMainWindow@@UAEXXZ 00410760     qt-mt323:qt-mt323.dll
 0002:00000764       __imp_?wheelEvent@QWidget@@MAEXPAVQWheelEvent@@@Z 00410764     qt-mt323:qt-mt323.dll
 0002:00000768       __imp_?winEvent@QWidget@@MAE_NPAUtagMSG@@@Z 00410768     qt-mt323:qt-mt323.dll
 0002:0000076c       __imp_?windowActivationChange@QWidget@@MAEX_N@Z 0041076c     qt-mt323:qt-mt323.dll
 0002:00000770       __imp_?write@QGList@@MBEAAVQDataStream@@AAV2@PAX@Z 00410770     qt-mt323:qt-mt323.dll
 0002:00000774       __imp_?qApp@@3PAVQApplication@@A 00410774     qt-mt323:qt-mt323.dll
 0002:00000778       __imp_?fromLatin1@QString@@SA?AV1@PBDH@Z 00410778     qt-mt323:qt-mt323.dll
 0002:0000077c       __imp_?new_metaobject@QMetaObject@@SAPAV1@PBDPAV1@QBUQMetaData@@H2HQBVQMetaProperty@@HQBUQMetaEnum@@HQBUQClassInfo@@H@Z 0041077c     qt-mt323:qt-mt323.dll
 0002:00000780       __imp_??0QMetaObjectCleanUp@@QAE@PBDP6APAVQMetaObject@@XZ@Z 00410780     qt-mt323:qt-mt323.dll
 0002:00000784       __imp_??1QMetaObjectCleanUp@@QAE@XZ 00410784     qt-mt323:qt-mt323.dll
 0002:00000788       __imp_?setMetaObject@QMetaObjectCleanUp@@QAEXAAPAVQMetaObject@@@Z 00410788     qt-mt323:qt-mt323.dll
 0002:0000078c       __imp_?translate@QApplication@@QBE?AVQString@@PBD00W4Encoding@1@@Z 0041078c     qt-mt323:qt-mt323.dll
 0002:00000790       __imp_?static_QUType_ptr@@3UQUType_ptr@@A 00410790     qt-mt323:qt-mt323.dll
 0002:00000794       __imp_?isNull@QDomNode@@QBE_NXZ 00410794     qt-mt323:qt-mt323.dll
 0002:00000798       __imp_?static_QUType_int@@3UQUType_int@@A 00410798     qt-mt323:qt-mt323.dll
 0002:0000079c       __imp_?static_QUType_QString@@3UQUType_QString@@A 0041079c     qt-mt323:qt-mt323.dll
 0002:000007a0       __imp_?qt_cast@QMainWindow@@UAEPAXPBD@Z 004107a0     qt-mt323:qt-mt323.dll
 0002:000007a4       __imp_?qt_invoke@QMainWindow@@UAE_NHPAUQUObject@@@Z 004107a4     qt-mt323:qt-mt323.dll
 0002:000007a8       __imp_?qt_emit@QMainWindow@@UAE_NHPAUQUObject@@@Z 004107a8     qt-mt323:qt-mt323.dll
 0002:000007ac       __imp_?qt_property@QMainWindow@@UAE_NHHPAVQVariant@@@Z 004107ac     qt-mt323:qt-mt323.dll
 0002:000007b0       __imp_?staticMetaObject@QMainWindow@@SAPAVQMetaObject@@XZ 004107b0     qt-mt323:qt-mt323.dll
 0002:000007b4       __imp_??0QWidget@@QAE@PAV0@PBDI@Z 004107b4     qt-mt323:qt-mt323.dll
 0002:000007b8       __imp_??1QWidget@@UAE@XZ   004107b8     qt-mt323:qt-mt323.dll
 0002:000007bc       __imp_?setMinimumSize@QWidget@@QAEXABVQSize@@@Z 004107bc     qt-mt323:qt-mt323.dll
 0002:000007c0       __imp_?resize@QWidget@@QAEXABVQSize@@@Z 004107c0     qt-mt323:qt-mt323.dll
 0002:000007c4       __imp_?setFrameShape@QFrame@@QAEXW4Shape@1@@Z 004107c4     qt-mt323:qt-mt323.dll
 0002:000007c8       __imp_?setFrameShadow@QFrame@@QAEXW4Shadow@1@@Z 004107c8     qt-mt323:qt-mt323.dll
 0002:000007cc       __imp_??0QMainWindow@@QAE@PAVQWidget@@PBDI@Z 004107cc     qt-mt323:qt-mt323.dll
 0002:000007d0       __imp_??1QMainWindow@@UAE@XZ 004107d0     qt-mt323:qt-mt323.dll
 0002:000007d4       __imp_?statusBar@QMainWindow@@QBEPAVQStatusBar@@XZ 004107d4     qt-mt323:qt-mt323.dll
 0002:000007d8       __imp_?centralWidget@QMainWindow@@QBEPAVQWidget@@XZ 004107d8     qt-mt323:qt-mt323.dll
 0002:000007dc       __imp_??1QButton@@UAE@XZ   004107dc     qt-mt323:qt-mt323.dll
 0002:000007e0       __imp_??0QSplitter@@QAE@PAVQWidget@@PBD@Z 004107e0     qt-mt323:qt-mt323.dll
 0002:000007e4       __imp_??1QSplitter@@UAE@XZ 004107e4     qt-mt323:qt-mt323.dll
 0002:000007e8       __imp_??0QLabel@@QAE@PAVQWidget@@PBDI@Z 004107e8     qt-mt323:qt-mt323.dll
 0002:000007ec       __imp_??1QLabel@@UAE@XZ    004107ec     qt-mt323:qt-mt323.dll
 0002:000007f0       __imp_??0QComboBox@@QAE@_NPAVQWidget@@PBD@Z 004107f0     qt-mt323:qt-mt323.dll
 0002:000007f4       __imp_??1QComboBox@@UAE@XZ 004107f4     qt-mt323:qt-mt323.dll
 0002:000007f8       __imp_?setEditable@QComboBox@@QAEX_N@Z 004107f8     qt-mt323:qt-mt323.dll
 0002:000007fc       __imp_??0QListView@@QAE@PAVQWidget@@PBDI@Z 004107fc     qt-mt323:qt-mt323.dll
 0002:00000800       __imp_??1QListView@@UAE@XZ 00410800     qt-mt323:qt-mt323.dll
 0002:00000804       __imp_?header@QListView@@QBEPAVQHeader@@XZ 00410804     qt-mt323:qt-mt323.dll
 0002:00000808       __imp_??0QCheckBox@@QAE@PAVQWidget@@PBD@Z 00410808     qt-mt323:qt-mt323.dll
 0002:0000080c       __imp_??0QGroupBox@@QAE@PAVQWidget@@PBD@Z 0041080c     qt-mt323:qt-mt323.dll
 0002:00000810       __imp_??1QGroupBox@@UAE@XZ 00410810     qt-mt323:qt-mt323.dll
 0002:00000814       __imp_??0QButtonGroup@@QAE@PAVQWidget@@PBD@Z 00410814     qt-mt323:qt-mt323.dll
 0002:00000818       __imp_??1QButtonGroup@@UAE@XZ 00410818     qt-mt323:qt-mt323.dll
 0002:0000081c       __imp_??0QLineEdit@@QAE@PAVQWidget@@PBD@Z 0041081c     qt-mt323:qt-mt323.dll
 0002:00000820       __imp_??1QLineEdit@@UAE@XZ 00410820     qt-mt323:qt-mt323.dll
 0002:00000824       __imp_??1QLayoutItem@@UAE@XZ 00410824     qt-mt323:qt-mt323.dll
 0002:00000828       __imp_??0QGridLayout@@QAE@PAVQLayout@@HHHPBD@Z 00410828     qt-mt323:qt-mt323.dll
 0002:0000082c       __imp_??1QGridLayout@@UAE@XZ 0041082c     qt-mt323:qt-mt323.dll
 0002:00000830       __imp_?addWidget@QGridLayout@@QAEXPAVQWidget@@HHH@Z 00410830     qt-mt323:qt-mt323.dll
 0002:00000834       __imp_??0QHBoxLayout@@QAE@PAVQWidget@@HHPBD@Z 00410834     qt-mt323:qt-mt323.dll
 0002:00000838       __imp_??1QHBoxLayout@@UAE@XZ 00410838     qt-mt323:qt-mt323.dll
 0002:0000083c       __imp_??0QVBoxLayout@@QAE@PAVQWidget@@HHPBD@Z 0041083c     qt-mt323:qt-mt323.dll
 0002:00000840       __imp_??0QVBoxLayout@@QAE@PAVQLayout@@HPBD@Z 00410840     qt-mt323:qt-mt323.dll
 0002:00000844       __imp_??1QVBoxLayout@@UAE@XZ 00410844     qt-mt323:qt-mt323.dll
 0002:00000848       __imp_?add@QToolTip@@SAXPAVQWidget@@ABVQString@@@Z 00410848     qt-mt323:qt-mt323.dll
 0002:0000084c       __imp_?add@QWhatsThis@@SAXPAVQWidget@@ABVQString@@@Z 0041084c     qt-mt323:qt-mt323.dll
 0002:00000850       __imp_?addChild@QScrollView@@UAEXPAVQWidget@@HH@Z 00410850     qt-mt323:qt-mt323.dll
 0002:00000854       __imp_?addColumn@QListView@@UAEHABVQIconSet@@ABVQString@@H@Z 00410854     qt-mt323:qt-mt323.dll
 0002:00000858       __imp_?addColumn@QListView@@UAEHABVQString@@H@Z 00410858     qt-mt323:qt-mt323.dll
 0002:0000085c       __imp_?addItem@QBoxLayout@@UAEXPAVQLayoutItem@@@Z 0041085c     qt-mt323:qt-mt323.dll
 0002:00000860       __imp_?addItem@QGridLayout@@UAEXPAVQLayoutItem@@@Z 00410860     qt-mt323:qt-mt323.dll
 0002:00000864       __imp_?childEvent@QGroupBox@@MAEXPAVQChildEvent@@@Z 00410864     qt-mt323:qt-mt323.dll
 0002:00000868       __imp_?childEvent@QLayout@@MAEXPAVQChildEvent@@@Z 00410868     qt-mt323:qt-mt323.dll
 0002:0000086c       __imp_?childEvent@QSplitter@@MAEXPAVQChildEvent@@@Z 0041086c     qt-mt323:qt-mt323.dll
 0002:00000870       __imp_?className@QButtonGroup@@UBEPBDXZ 00410870     qt-mt323:qt-mt323.dll
 0002:00000874       __imp_?className@QCheckBox@@UBEPBDXZ 00410874     qt-mt323:qt-mt323.dll
 0002:00000878       __imp_?className@QComboBox@@UBEPBDXZ 00410878     qt-mt323:qt-mt323.dll
 0002:0000087c       __imp_?className@QGridLayout@@UBEPBDXZ 0041087c     qt-mt323:qt-mt323.dll
 0002:00000880       __imp_?className@QGroupBox@@UBEPBDXZ 00410880     qt-mt323:qt-mt323.dll
 0002:00000884       __imp_?className@QHBoxLayout@@UBEPBDXZ 00410884     qt-mt323:qt-mt323.dll
 0002:00000888       __imp_?className@QLabel@@UBEPBDXZ 00410888     qt-mt323:qt-mt323.dll
 0002:0000088c       __imp_?className@QLineEdit@@UBEPBDXZ 0041088c     qt-mt323:qt-mt323.dll
 0002:00000890       __imp_?className@QListView@@UBEPBDXZ 00410890     qt-mt323:qt-mt323.dll
 0002:00000894       __imp_?className@QSplitter@@UBEPBDXZ 00410894     qt-mt323:qt-mt323.dll
 0002:00000898       __imp_?className@QVBoxLayout@@UBEPBDXZ 00410898     qt-mt323:qt-mt323.dll
 0002:0000089c       __imp_?className@QWidget@@UBEPBDXZ 0041089c     qt-mt323:qt-mt323.dll
 0002:000008a0       __imp_?clear@QLineEdit@@UAEXXZ 004108a0     qt-mt323:qt-mt323.dll
 0002:000008a4       __imp_?clear@QListView@@UAEXXZ 004108a4     qt-mt323:qt-mt323.dll
 0002:000008a8       __imp_?clearSelection@QListView@@UAEXXZ 004108a8     qt-mt323:qt-mt323.dll
 0002:000008ac       __imp_?clearValidator@QLineEdit@@UAEXXZ 004108ac     qt-mt323:qt-mt323.dll
 0002:000008b0       __imp_?contentsContextMenuEvent@QListView@@MAEXPAVQContextMenuEvent@@@Z 004108b0     qt-mt323:qt-mt323.dll
 0002:000008b4       __imp_?contentsDragEnterEvent@QListView@@MAEXPAVQDragEnterEvent@@@Z 004108b4     qt-mt323:qt-mt323.dll
 0002:000008b8       __imp_?contentsDragLeaveEvent@QListView@@MAEXPAVQDragLeaveEvent@@@Z 004108b8     qt-mt323:qt-mt323.dll
 0002:000008bc       __imp_?contentsDragMoveEvent@QListView@@MAEXPAVQDragMoveEvent@@@Z 004108bc     qt-mt323:qt-mt323.dll
 0002:000008c0       __imp_?contentsDropEvent@QListView@@MAEXPAVQDropEvent@@@Z 004108c0     qt-mt323:qt-mt323.dll
 0002:000008c4       __imp_?contentsMouseDoubleClickEvent@QListView@@MAEXPAVQMouseEvent@@@Z 004108c4     qt-mt323:qt-mt323.dll
 0002:000008c8       __imp_?contentsMouseMoveEvent@QListView@@MAEXPAVQMouseEvent@@@Z 004108c8     qt-mt323:qt-mt323.dll
 0002:000008cc       __imp_?contentsMousePressEvent@QListView@@MAEXPAVQMouseEvent@@@Z 004108cc     qt-mt323:qt-mt323.dll
 0002:000008d0       __imp_?contentsMouseReleaseEvent@QListView@@MAEXPAVQMouseEvent@@@Z 004108d0     qt-mt323:qt-mt323.dll
 0002:000008d4       __imp_?contentsWheelEvent@QScrollView@@MAEXPAVQWheelEvent@@@Z 004108d4     qt-mt323:qt-mt323.dll
 0002:000008d8       __imp_?contextMenuEvent@QLineEdit@@MAEXPAVQContextMenuEvent@@@Z 004108d8     qt-mt323:qt-mt323.dll
 0002:000008dc       __imp_?contextMenuEvent@QScrollView@@MAEXPAVQContextMenuEvent@@@Z 004108dc     qt-mt323:qt-mt323.dll
 0002:000008e0       __imp_?copy@QLineEdit@@UBEXXZ 004108e0     qt-mt323:qt-mt323.dll
 0002:000008e4       __imp_?createPopupMenu@QLineEdit@@MAEPAVQPopupMenu@@XZ 004108e4     qt-mt323:qt-mt323.dll
 0002:000008e8       __imp_?cut@QLineEdit@@UAEXXZ 004108e8     qt-mt323:qt-mt323.dll
 0002:000008ec       __imp_?deselect@QLineEdit@@UAEXXZ 004108ec     qt-mt323:qt-mt323.dll
 0002:000008f0       __imp_?dragEnterEvent@QLineEdit@@MAEXPAVQDragEnterEvent@@@Z 004108f0     qt-mt323:qt-mt323.dll
 0002:000008f4       __imp_?dragLeaveEvent@QLineEdit@@MAEXPAVQDragLeaveEvent@@@Z 004108f4     qt-mt323:qt-mt323.dll
 0002:000008f8       __imp_?dragMoveEvent@QLineEdit@@MAEXPAVQDragMoveEvent@@@Z 004108f8     qt-mt323:qt-mt323.dll
 0002:000008fc       __imp_?dragObject@QListView@@MAEPAVQDragObject@@XZ 004108fc     qt-mt323:qt-mt323.dll
 0002:00000900       __imp_?drawButton@QCheckBox@@MAEXPAVQPainter@@@Z 00410900     qt-mt323:qt-mt323.dll
 0002:00000904       __imp_?drawButtonLabel@QCheckBox@@MAEXPAVQPainter@@@Z 00410904     qt-mt323:qt-mt323.dll
 0002:00000908       __imp_?drawContents@QFrame@@MAEXPAVQPainter@@@Z 00410908     qt-mt323:qt-mt323.dll
 0002:0000090c       __imp_?drawContents@QLabel@@MAEXPAVQPainter@@@Z 0041090c     qt-mt323:qt-mt323.dll
 0002:00000910       __imp_?drawContents@QLineEdit@@MAEXPAVQPainter@@@Z 00410910     qt-mt323:qt-mt323.dll
 0002:00000914       __imp_?drawContents@QScrollView@@EAEXPAVQPainter@@@Z 00410914     qt-mt323:qt-mt323.dll
 0002:00000918       __imp_?drawContents@QScrollView@@MAEXPAVQPainter@@HHHH@Z 00410918     qt-mt323:qt-mt323.dll
 0002:0000091c       __imp_?drawContentsOffset@QListView@@MAEXPAVQPainter@@HHHHHH@Z 0041091c     qt-mt323:qt-mt323.dll
 0002:00000920       __imp_?drawSplitter@QSplitter@@MAEXPAVQPainter@@HHHH@Z 00410920     qt-mt323:qt-mt323.dll
 0002:00000924       __imp_?dropEvent@QLineEdit@@MAEXPAVQDropEvent@@@Z 00410924     qt-mt323:qt-mt323.dll
 0002:00000928       __imp_?event@QButtonGroup@@MAE_NPAVQEvent@@@Z 00410928     qt-mt323:qt-mt323.dll
 0002:0000092c       __imp_?event@QGroupBox@@MAE_NPAVQEvent@@@Z 0041092c     qt-mt323:qt-mt323.dll
 0002:00000930       __imp_?event@QLineEdit@@MAE_NPAVQEvent@@@Z 00410930     qt-mt323:qt-mt323.dll
 0002:00000934       __imp_?event@QObject@@UAE_NPAVQEvent@@@Z 00410934     qt-mt323:qt-mt323.dll
 0002:00000938       __imp_?event@QSplitter@@MAE_NPAVQEvent@@@Z 00410938     qt-mt323:qt-mt323.dll
 0002:0000093c       __imp_?eventFilter@QComboBox@@UAE_NPAVQObject@@PAVQEvent@@@Z 0041093c     qt-mt323:qt-mt323.dll
 0002:00000940       __imp_?eventFilter@QLayout@@MAE_NPAVQObject@@PAVQEvent@@@Z 00410940     qt-mt323:qt-mt323.dll
 0002:00000944       __imp_?eventFilter@QListView@@UAE_NPAVQObject@@PAVQEvent@@@Z 00410944     qt-mt323:qt-mt323.dll
 0002:00000948       __imp_?expanding@QBoxLayout@@UBE?AW4ExpandData@QSizePolicy@@XZ 00410948     qt-mt323:qt-mt323.dll
 0002:0000094c       __imp_?expanding@QGridLayout@@UBE?AW4ExpandData@QSizePolicy@@XZ 0041094c     qt-mt323:qt-mt323.dll
 0002:00000950       __imp_?expanding@QSpacerItem@@UBE?AW4ExpandData@QSizePolicy@@XZ 00410950     qt-mt323:qt-mt323.dll
 0002:00000954       __imp_?focusInEvent@QButton@@MAEXPAVQFocusEvent@@@Z 00410954     qt-mt323:qt-mt323.dll
 0002:00000958       __imp_?focusInEvent@QComboBox@@MAEXPAVQFocusEvent@@@Z 00410958     qt-mt323:qt-mt323.dll
 0002:0000095c       __imp_?focusInEvent@QGroupBox@@MAEXPAVQFocusEvent@@@Z 0041095c     qt-mt323:qt-mt323.dll
 0002:00000960       __imp_?focusInEvent@QLineEdit@@MAEXPAVQFocusEvent@@@Z 00410960     qt-mt323:qt-mt323.dll
 0002:00000964       __imp_?focusInEvent@QListView@@MAEXPAVQFocusEvent@@@Z 00410964     qt-mt323:qt-mt323.dll
 0002:00000968       __imp_?focusNextPrevChild@QScrollView@@MAE_N_N@Z 00410968     qt-mt323:qt-mt323.dll
 0002:0000096c       __imp_?focusOutEvent@QButton@@MAEXPAVQFocusEvent@@@Z 0041096c     qt-mt323:qt-mt323.dll
 0002:00000970       __imp_?focusOutEvent@QComboBox@@MAEXPAVQFocusEvent@@@Z 00410970     qt-mt323:qt-mt323.dll
 0002:00000974       __imp_?focusOutEvent@QLineEdit@@MAEXPAVQFocusEvent@@@Z 00410974     qt-mt323:qt-mt323.dll
 0002:00000978       __imp_?focusOutEvent@QListView@@MAEXPAVQFocusEvent@@@Z 00410978     qt-mt323:qt-mt323.dll
 0002:0000097c       __imp_?fontChange@QGroupBox@@MAEXABVQFont@@@Z 0041097c     qt-mt323:qt-mt323.dll
 0002:00000980       __imp_?fontChange@QLabel@@MAEXABVQFont@@@Z 00410980     qt-mt323:qt-mt323.dll
 0002:00000984       __imp_?fontChange@QScrollView@@MAEXABVQFont@@@Z 00410984     qt-mt323:qt-mt323.dll
 0002:00000988       __imp_?frameChanged@QFrame@@MAEXXZ 00410988     qt-mt323:qt-mt323.dll
 0002:0000098c       __imp_?frameChanged@QScrollView@@MAEXXZ 0041098c     qt-mt323:qt-mt323.dll
 0002:00000990       __imp_?geometry@QLayout@@UBE?AVQRect@@XZ 00410990     qt-mt323:qt-mt323.dll
 0002:00000994       __imp_?geometry@QSpacerItem@@UBE?AVQRect@@XZ 00410994     qt-mt323:qt-mt323.dll
 0002:00000998       __imp_?hasHeightForWidth@QBoxLayout@@UBE_NXZ 00410998     qt-mt323:qt-mt323.dll
 0002:0000099c       __imp_?hasHeightForWidth@QGridLayout@@UBE_NXZ 0041099c     qt-mt323:qt-mt323.dll
 0002:000009a0       __imp_?hasHeightForWidth@QLayoutItem@@UBE_NXZ 004109a0     qt-mt323:qt-mt323.dll
 0002:000009a4       __imp_?heightForWidth@QBoxLayout@@UBEHH@Z 004109a4     qt-mt323:qt-mt323.dll
 0002:000009a8       __imp_?heightForWidth@QGridLayout@@UBEHH@Z 004109a8     qt-mt323:qt-mt323.dll
 0002:000009ac       __imp_?heightForWidth@QLabel@@UBEHH@Z 004109ac     qt-mt323:qt-mt323.dll
 0002:000009b0       __imp_?heightForWidth@QLayoutItem@@UBEHH@Z 004109b0     qt-mt323:qt-mt323.dll
 0002:000009b4       __imp_?hitButton@QCheckBox@@MBE_NABVQPoint@@@Z 004109b4     qt-mt323:qt-mt323.dll
 0002:000009b8       __imp_?imComposeEvent@QLineEdit@@MAEXPAVQIMEvent@@@Z 004109b8     qt-mt323:qt-mt323.dll
 0002:000009bc       __imp_?imEndEvent@QLineEdit@@MAEXPAVQIMEvent@@@Z 004109bc     qt-mt323:qt-mt323.dll
 0002:000009c0       __imp_?imStartEvent@QLineEdit@@MAEXPAVQIMEvent@@@Z 004109c0     qt-mt323:qt-mt323.dll
 0002:000009c4       __imp_?insert@QLineEdit@@UAEXABVQString@@@Z 004109c4     qt-mt323:qt-mt323.dll
 0002:000009c8       __imp_?insertItem@QListView@@UAEXPAVQListViewItem@@@Z 004109c8     qt-mt323:qt-mt323.dll
 0002:000009cc       __imp_?invalidate@QBoxLayout@@UAEXXZ 004109cc     qt-mt323:qt-mt323.dll
 0002:000009d0       __imp_?invalidate@QGridLayout@@UAEXXZ 004109d0     qt-mt323:qt-mt323.dll
 0002:000009d4       __imp_?invalidate@QLayoutItem@@UAEXXZ 004109d4     qt-mt323:qt-mt323.dll
 0002:000009d8       __imp_?invertSelection@QListView@@UAEXXZ 004109d8     qt-mt323:qt-mt323.dll
 0002:000009dc       __imp_?isEmpty@QLayout@@UBE_NXZ 004109dc     qt-mt323:qt-mt323.dll
 0002:000009e0       __imp_?isEmpty@QSpacerItem@@UBE_NXZ 004109e0     qt-mt323:qt-mt323.dll
 0002:000009e4       __imp_?iterator@QBoxLayout@@UAE?AVQLayoutIterator@@XZ 004109e4     qt-mt323:qt-mt323.dll
 0002:000009e8       __imp_?iterator@QGridLayout@@UAE?AVQLayoutIterator@@XZ 004109e8     qt-mt323:qt-mt323.dll
 0002:000009ec       __imp_?iterator@QLayoutItem@@UAE?AVQLayoutIterator@@XZ 004109ec     qt-mt323:qt-mt323.dll
 0002:000009f0       __imp_?keyPressEvent@QComboBox@@MAEXPAVQKeyEvent@@@Z 004109f0     qt-mt323:qt-mt323.dll
 0002:000009f4       __imp_?keyPressEvent@QLineEdit@@MAEXPAVQKeyEvent@@@Z 004109f4     qt-mt323:qt-mt323.dll
 0002:000009f8       __imp_?keyPressEvent@QListView@@MAEXPAVQKeyEvent@@@Z 004109f8     qt-mt323:qt-mt323.dll
 0002:000009fc       __imp_?layout@QLayout@@UAEPAV1@XZ 004109fc     qt-mt323:qt-mt323.dll
 0002:00000a00       __imp_?layout@QLayoutItem@@UAEPAVQLayout@@XZ 00410a00     qt-mt323:qt-mt323.dll
 0002:00000a04       __imp_?maximumSize@QBoxLayout@@UBE?AVQSize@@XZ 00410a04     qt-mt323:qt-mt323.dll
 0002:00000a08       __imp_?maximumSize@QGridLayout@@UBE?AVQSize@@XZ 00410a08     qt-mt323:qt-mt323.dll
 0002:00000a0c       __imp_?maximumSize@QSpacerItem@@UBE?AVQSize@@XZ 00410a0c     qt-mt323:qt-mt323.dll
 0002:00000a10       __imp_?metaObject@QButtonGroup@@UBEPAVQMetaObject@@XZ 00410a10     qt-mt323:qt-mt323.dll
 0002:00000a14       __imp_?metaObject@QCheckBox@@UBEPAVQMetaObject@@XZ 00410a14     qt-mt323:qt-mt323.dll
 0002:00000a18       __imp_?metaObject@QComboBox@@UBEPAVQMetaObject@@XZ 00410a18     qt-mt323:qt-mt323.dll
 0002:00000a1c       __imp_?metaObject@QGridLayout@@UBEPAVQMetaObject@@XZ 00410a1c     qt-mt323:qt-mt323.dll
 0002:00000a20       __imp_?metaObject@QGroupBox@@UBEPAVQMetaObject@@XZ 00410a20     qt-mt323:qt-mt323.dll
 0002:00000a24       __imp_?metaObject@QHBoxLayout@@UBEPAVQMetaObject@@XZ 00410a24     qt-mt323:qt-mt323.dll
 0002:00000a28       __imp_?metaObject@QLabel@@UBEPAVQMetaObject@@XZ 00410a28     qt-mt323:qt-mt323.dll
 0002:00000a2c       __imp_?metaObject@QLineEdit@@UBEPAVQMetaObject@@XZ 00410a2c     qt-mt323:qt-mt323.dll
 0002:00000a30       __imp_?metaObject@QListView@@UBEPAVQMetaObject@@XZ 00410a30     qt-mt323:qt-mt323.dll
 0002:00000a34       __imp_?metaObject@QSplitter@@UBEPAVQMetaObject@@XZ 00410a34     qt-mt323:qt-mt323.dll
 0002:00000a38       __imp_?metaObject@QVBoxLayout@@UBEPAVQMetaObject@@XZ 00410a38     qt-mt323:qt-mt323.dll
 0002:00000a3c       __imp_?metaObject@QWidget@@UBEPAVQMetaObject@@XZ 00410a3c     qt-mt323:qt-mt323.dll
 0002:00000a40       __imp_?minimumSize@QBoxLayout@@UBE?AVQSize@@XZ 00410a40     qt-mt323:qt-mt323.dll
 0002:00000a44       __imp_?minimumSize@QGridLayout@@UBE?AVQSize@@XZ 00410a44     qt-mt323:qt-mt323.dll
 0002:00000a48       __imp_?minimumSize@QSpacerItem@@UBE?AVQSize@@XZ 00410a48     qt-mt323:qt-mt323.dll
 0002:00000a4c       __imp_?minimumSizeHint@QLabel@@UBE?AVQSize@@XZ 00410a4c     qt-mt323:qt-mt323.dll
 0002:00000a50       __imp_?minimumSizeHint@QLineEdit@@UBE?AVQSize@@XZ 00410a50     qt-mt323:qt-mt323.dll
 0002:00000a54       __imp_?minimumSizeHint@QListView@@UBE?AVQSize@@XZ 00410a54     qt-mt323:qt-mt323.dll
 0002:00000a58       __imp_?minimumSizeHint@QSplitter@@UBE?AVQSize@@XZ 00410a58     qt-mt323:qt-mt323.dll
 0002:00000a5c       __imp_?mouseDoubleClickEvent@QComboBox@@MAEXPAVQMouseEvent@@@Z 00410a5c     qt-mt323:qt-mt323.dll
 0002:00000a60       __imp_?mouseDoubleClickEvent@QLineEdit@@MAEXPAVQMouseEvent@@@Z 00410a60     qt-mt323:qt-mt323.dll
 0002:00000a64       __imp_?mouseDoubleClickEvent@QScrollView@@MAEXPAVQMouseEvent@@@Z 00410a64     qt-mt323:qt-mt323.dll
 0002:00000a68       __imp_?mouseMoveEvent@QComboBox@@MAEXPAVQMouseEvent@@@Z 00410a68     qt-mt323:qt-mt323.dll
 0002:00000a6c       __imp_?mouseMoveEvent@QLineEdit@@MAEXPAVQMouseEvent@@@Z 00410a6c     qt-mt323:qt-mt323.dll
 0002:00000a70       __imp_?mouseMoveEvent@QScrollView@@MAEXPAVQMouseEvent@@@Z 00410a70     qt-mt323:qt-mt323.dll
 0002:00000a74       __imp_?mousePressEvent@QComboBox@@MAEXPAVQMouseEvent@@@Z 00410a74     qt-mt323:qt-mt323.dll
 0002:00000a78       __imp_?mousePressEvent@QLineEdit@@MAEXPAVQMouseEvent@@@Z 00410a78     qt-mt323:qt-mt323.dll
 0002:00000a7c       __imp_?mousePressEvent@QScrollView@@MAEXPAVQMouseEvent@@@Z 00410a7c     qt-mt323:qt-mt323.dll
 0002:00000a80       __imp_?mouseReleaseEvent@QComboBox@@MAEXPAVQMouseEvent@@@Z 00410a80     qt-mt323:qt-mt323.dll
 0002:00000a84       __imp_?mouseReleaseEvent@QLineEdit@@MAEXPAVQMouseEvent@@@Z 00410a84     qt-mt323:qt-mt323.dll
 0002:00000a88       __imp_?mouseReleaseEvent@QScrollView@@MAEXPAVQMouseEvent@@@Z 00410a88     qt-mt323:qt-mt323.dll
 0002:00000a8c       __imp_?moveChild@QScrollView@@UAEXPAVQWidget@@HH@Z 00410a8c     qt-mt323:qt-mt323.dll
 0002:00000a90       __imp_?moveFocus@QButtonGroup@@UAEXH@Z 00410a90     qt-mt323:qt-mt323.dll
 0002:00000a94       __imp_?paintEmptyArea@QListView@@MAEXPAVQPainter@@ABVQRect@@@Z 00410a94     qt-mt323:qt-mt323.dll
 0002:00000a98       __imp_?paintEvent@QComboBox@@MAEXPAVQPaintEvent@@@Z 00410a98     qt-mt323:qt-mt323.dll
 0002:00000a9c       __imp_?paintEvent@QGroupBox@@MAEXPAVQPaintEvent@@@Z 00410a9c     qt-mt323:qt-mt323.dll
 0002:00000aa0       __imp_?paste@QLineEdit@@UAEXXZ 00410aa0     qt-mt323:qt-mt323.dll
 0002:00000aa4       __imp_?popup@QComboBox@@UAEXXZ 00410aa4     qt-mt323:qt-mt323.dll
 0002:00000aa8       __imp_?qt_cast@QButtonGroup@@UAEPAXPBD@Z 00410aa8     qt-mt323:qt-mt323.dll
 0002:00000aac       __imp_?qt_cast@QCheckBox@@UAEPAXPBD@Z 00410aac     qt-mt323:qt-mt323.dll
 0002:00000ab0       __imp_?qt_cast@QComboBox@@UAEPAXPBD@Z 00410ab0     qt-mt323:qt-mt323.dll
 0002:00000ab4       __imp_?qt_cast@QGridLayout@@UAEPAXPBD@Z 00410ab4     qt-mt323:qt-mt323.dll
 0002:00000ab8       __imp_?qt_cast@QGroupBox@@UAEPAXPBD@Z 00410ab8     qt-mt323:qt-mt323.dll
 0002:00000abc       __imp_?qt_cast@QHBoxLayout@@UAEPAXPBD@Z 00410abc     qt-mt323:qt-mt323.dll
 0002:00000ac0       __imp_?qt_cast@QLabel@@UAEPAXPBD@Z 00410ac0     qt-mt323:qt-mt323.dll
 0002:00000ac4       __imp_?qt_cast@QLineEdit@@UAEPAXPBD@Z 00410ac4     qt-mt323:qt-mt323.dll
 0002:00000ac8       __imp_?qt_cast@QListView@@UAEPAXPBD@Z 00410ac8     qt-mt323:qt-mt323.dll
 0002:00000acc       __imp_?qt_cast@QSplitter@@UAEPAXPBD@Z 00410acc     qt-mt323:qt-mt323.dll
 0002:00000ad0       __imp_?qt_cast@QVBoxLayout@@UAEPAXPBD@Z 00410ad0     qt-mt323:qt-mt323.dll
 0002:00000ad4       __imp_?qt_cast@QWidget@@UAEPAXPBD@Z 00410ad4     qt-mt323:qt-mt323.dll
 0002:00000ad8       __imp_?qt_emit@QButtonGroup@@UAE_NHPAUQUObject@@@Z 00410ad8     qt-mt323:qt-mt323.dll
 0002:00000adc       __imp_?qt_emit@QCheckBox@@UAE_NHPAUQUObject@@@Z 00410adc     qt-mt323:qt-mt323.dll
 0002:00000ae0       __imp_?qt_emit@QComboBox@@UAE_NHPAUQUObject@@@Z 00410ae0     qt-mt323:qt-mt323.dll
 0002:00000ae4       __imp_?qt_emit@QGridLayout@@UAE_NHPAUQUObject@@@Z 00410ae4     qt-mt323:qt-mt323.dll
 0002:00000ae8       __imp_?qt_emit@QGroupBox@@UAE_NHPAUQUObject@@@Z 00410ae8     qt-mt323:qt-mt323.dll
 0002:00000aec       __imp_?qt_emit@QHBoxLayout@@UAE_NHPAUQUObject@@@Z 00410aec     qt-mt323:qt-mt323.dll
 0002:00000af0       __imp_?qt_emit@QLabel@@UAE_NHPAUQUObject@@@Z 00410af0     qt-mt323:qt-mt323.dll
 0002:00000af4       __imp_?qt_emit@QLineEdit@@UAE_NHPAUQUObject@@@Z 00410af4     qt-mt323:qt-mt323.dll
 0002:00000af8       __imp_?qt_emit@QListView@@UAE_NHPAUQUObject@@@Z 00410af8     qt-mt323:qt-mt323.dll
 0002:00000afc       __imp_?qt_emit@QSplitter@@UAE_NHPAUQUObject@@@Z 00410afc     qt-mt323:qt-mt323.dll
 0002:00000b00       __imp_?qt_emit@QVBoxLayout@@UAE_NHPAUQUObject@@@Z 00410b00     qt-mt323:qt-mt323.dll
 0002:00000b04       __imp_?qt_emit@QWidget@@UAE_NHPAUQUObject@@@Z 00410b04     qt-mt323:qt-mt323.dll
 0002:00000b08       __imp_?qt_invoke@QButtonGroup@@UAE_NHPAUQUObject@@@Z 00410b08     qt-mt323:qt-mt323.dll
 0002:00000b0c       __imp_?qt_invoke@QCheckBox@@UAE_NHPAUQUObject@@@Z 00410b0c     qt-mt323:qt-mt323.dll
 0002:00000b10       __imp_?qt_invoke@QComboBox@@UAE_NHPAUQUObject@@@Z 00410b10     qt-mt323:qt-mt323.dll
 0002:00000b14       __imp_?qt_invoke@QGridLayout@@UAE_NHPAUQUObject@@@Z 00410b14     qt-mt323:qt-mt323.dll
 0002:00000b18       __imp_?qt_invoke@QGroupBox@@UAE_NHPAUQUObject@@@Z 00410b18     qt-mt323:qt-mt323.dll
 0002:00000b1c       __imp_?qt_invoke@QHBoxLayout@@UAE_NHPAUQUObject@@@Z 00410b1c     qt-mt323:qt-mt323.dll
 0002:00000b20       __imp_?qt_invoke@QLabel@@UAE_NHPAUQUObject@@@Z 00410b20     qt-mt323:qt-mt323.dll
 0002:00000b24       __imp_?qt_invoke@QLineEdit@@UAE_NHPAUQUObject@@@Z 00410b24     qt-mt323:qt-mt323.dll
 0002:00000b28       __imp_?qt_invoke@QListView@@UAE_NHPAUQUObject@@@Z 00410b28     qt-mt323:qt-mt323.dll
 0002:00000b2c       __imp_?qt_invoke@QSplitter@@UAE_NHPAUQUObject@@@Z 00410b2c     qt-mt323:qt-mt323.dll
 0002:00000b30       __imp_?qt_invoke@QVBoxLayout@@UAE_NHPAUQUObject@@@Z 00410b30     qt-mt323:qt-mt323.dll
 0002:00000b34       __imp_?qt_invoke@QWidget@@UAE_NHPAUQUObject@@@Z 00410b34     qt-mt323:qt-mt323.dll
 0002:00000b38       __imp_?qt_property@QButtonGroup@@UAE_NHHPAVQVariant@@@Z 00410b38     qt-mt323:qt-mt323.dll
 0002:00000b3c       __imp_?qt_property@QCheckBox@@UAE_NHHPAVQVariant@@@Z 00410b3c     qt-mt323:qt-mt323.dll
 0002:00000b40       __imp_?qt_property@QComboBox@@UAE_NHHPAVQVariant@@@Z 00410b40     qt-mt323:qt-mt323.dll
 0002:00000b44       __imp_?qt_property@QGridLayout@@UAE_NHHPAVQVariant@@@Z 00410b44     qt-mt323:qt-mt323.dll
 0002:00000b48       __imp_?qt_property@QGroupBox@@UAE_NHHPAVQVariant@@@Z 00410b48     qt-mt323:qt-mt323.dll
 0002:00000b4c       __imp_?qt_property@QHBoxLayout@@UAE_NHHPAVQVariant@@@Z 00410b4c     qt-mt323:qt-mt323.dll
 0002:00000b50       __imp_?qt_property@QLabel@@UAE_NHHPAVQVariant@@@Z 00410b50     qt-mt323:qt-mt323.dll
 0002:00000b54       __imp_?qt_property@QLineEdit@@UAE_NHHPAVQVariant@@@Z 00410b54     qt-mt323:qt-mt323.dll
 0002:00000b58       __imp_?qt_property@QListView@@UAE_NHHPAVQVariant@@@Z 00410b58     qt-mt323:qt-mt323.dll
 0002:00000b5c       __imp_?qt_property@QSplitter@@UAE_NHHPAVQVariant@@@Z 00410b5c     qt-mt323:qt-mt323.dll
 0002:00000b60       __imp_?qt_property@QVBoxLayout@@UAE_NHHPAVQVariant@@@Z 00410b60     qt-mt323:qt-mt323.dll
 0002:00000b64       __imp_?qt_property@QWidget@@UAE_NHHPAVQVariant@@@Z 00410b64     qt-mt323:qt-mt323.dll
 0002:00000b68       __imp_?redo@QLineEdit@@UAEXXZ 00410b68     qt-mt323:qt-mt323.dll
 0002:00000b6c       __imp_?removeChild@QScrollView@@UAEXPAVQObject@@@Z 00410b6c     qt-mt323:qt-mt323.dll
 0002:00000b70       __imp_?removeColumn@QListView@@UAEXH@Z 00410b70     qt-mt323:qt-mt323.dll
 0002:00000b74       __imp_?removeItem@QListView@@UAEXPAVQListViewItem@@@Z 00410b74     qt-mt323:qt-mt323.dll
 0002:00000b78       __imp_?resize@QScrollView@@UAEXHH@Z 00410b78     qt-mt323:qt-mt323.dll
 0002:00000b7c       __imp_?resizeContents@QScrollView@@UAEXHH@Z 00410b7c     qt-mt323:qt-mt323.dll
 0002:00000b80       __imp_?resizeEvent@QCheckBox@@MAEXPAVQResizeEvent@@@Z 00410b80     qt-mt323:qt-mt323.dll
 0002:00000b84       __imp_?resizeEvent@QComboBox@@MAEXPAVQResizeEvent@@@Z 00410b84     qt-mt323:qt-mt323.dll
 0002:00000b88       __imp_?resizeEvent@QGroupBox@@MAEXPAVQResizeEvent@@@Z 00410b88     qt-mt323:qt-mt323.dll
 0002:00000b8c       __imp_?resizeEvent@QLabel@@MAEXPAVQResizeEvent@@@Z 00410b8c     qt-mt323:qt-mt323.dll
 0002:00000b90       __imp_?resizeEvent@QLineEdit@@MAEXPAVQResizeEvent@@@Z 00410b90     qt-mt323:qt-mt323.dll
 0002:00000b94       __imp_?resizeEvent@QListView@@MAEXPAVQResizeEvent@@@Z 00410b94     qt-mt323:qt-mt323.dll
 0002:00000b98       __imp_?resizeEvent@QSplitter@@MAEXPAVQResizeEvent@@@Z 00410b98     qt-mt323:qt-mt323.dll
 0002:00000b9c       __imp_?selectAll@QLineEdit@@UAEXXZ 00410b9c     qt-mt323:qt-mt323.dll
 0002:00000ba0       __imp_?selectAll@QListView@@UAEX_N@Z 00410ba0     qt-mt323:qt-mt323.dll
 0002:00000ba4       __imp_?setAlignment@QGroupBox@@UAEXH@Z 00410ba4     qt-mt323:qt-mt323.dll
 0002:00000ba8       __imp_?setAlignment@QLabel@@UAEXH@Z 00410ba8     qt-mt323:qt-mt323.dll
 0002:00000bac       __imp_?setAlignment@QLayoutItem@@UAEXH@Z 00410bac     qt-mt323:qt-mt323.dll
 0002:00000bb0       __imp_?setAlignment@QLineEdit@@UAEXH@Z 00410bb0     qt-mt323:qt-mt323.dll
 0002:00000bb4       __imp_?setAllColumnsShowFocus@QListView@@UAEX_N@Z 00410bb4     qt-mt323:qt-mt323.dll
 0002:00000bb8       __imp_?setAutoAdd@QLayout@@UAEX_N@Z 00410bb8     qt-mt323:qt-mt323.dll
 0002:00000bbc       __imp_?setAutoCompletion@QComboBox@@UAEX_N@Z 00410bbc     qt-mt323:qt-mt323.dll
 0002:00000bc0       __imp_?setAutoResize@QComboBox@@UAEX_N@Z 00410bc0     qt-mt323:qt-mt323.dll
 0002:00000bc4       __imp_?setAutoResize@QLabel@@UAEX_N@Z 00410bc4     qt-mt323:qt-mt323.dll
 0002:00000bc8       __imp_?setBuddy@QLabel@@UAEXPAVQWidget@@@Z 00410bc8     qt-mt323:qt-mt323.dll
 0002:00000bcc       __imp_?setButton@QButtonGroup@@UAEXH@Z 00410bcc     qt-mt323:qt-mt323.dll
 0002:00000bd0       __imp_?setColStretch@QGridLayout@@UAEXHH@Z 00410bd0     qt-mt323:qt-mt323.dll
 0002:00000bd4       __imp_?setColumnAlignment@QListView@@UAEXHH@Z 00410bd4     qt-mt323:qt-mt323.dll
 0002:00000bd8       __imp_?setColumnLayout@QGroupBox@@UAEXHW4Orientation@Qt@@@Z 00410bd8     qt-mt323:qt-mt323.dll
 0002:00000bdc       __imp_?setColumnText@QListView@@UAEXHABVQIconSet@@ABVQString@@@Z 00410bdc     qt-mt323:qt-mt323.dll
 0002:00000be0       __imp_?setColumnText@QListView@@UAEXHABVQString@@@Z 00410be0     qt-mt323:qt-mt323.dll
 0002:00000be4       __imp_?setColumnWidth@QListView@@UAEXHH@Z 00410be4     qt-mt323:qt-mt323.dll
 0002:00000be8       __imp_?setColumnWidthMode@QListView@@UAEXHW4WidthMode@1@@Z 00410be8     qt-mt323:qt-mt323.dll
 0002:00000bec       __imp_?setContentsPos@QListView@@UAEXHH@Z 00410bec     qt-mt323:qt-mt323.dll
 0002:00000bf0       __imp_?setCornerWidget@QScrollView@@UAEXPAVQWidget@@@Z 00410bf0     qt-mt323:qt-mt323.dll
 0002:00000bf4       __imp_?setCurrentItem@QComboBox@@UAEXH@Z 00410bf4     qt-mt323:qt-mt323.dll
 0002:00000bf8       __imp_?setCurrentItem@QListView@@UAEXPAVQListViewItem@@@Z 00410bf8     qt-mt323:qt-mt323.dll
 0002:00000bfc       __imp_?setCurrentText@QComboBox@@UAEXABVQString@@@Z 00410bfc     qt-mt323:qt-mt323.dll
 0002:00000c00       __imp_?setCursorPosition@QLineEdit@@UAEXH@Z 00410c00     qt-mt323:qt-mt323.dll
 0002:00000c04       __imp_?setDefaultRenameAction@QListView@@UAEXW4RenameAction@1@@Z 00410c04     qt-mt323:qt-mt323.dll
 0002:00000c08       __imp_?setDragAutoScroll@QScrollView@@UAEX_N@Z 00410c08     qt-mt323:qt-mt323.dll
 0002:00000c0c       __imp_?setDragEnabled@QLineEdit@@UAEX_N@Z 00410c0c     qt-mt323:qt-mt323.dll
 0002:00000c10       __imp_?setEchoMode@QLineEdit@@UAEXW4EchoMode@1@@Z 00410c10     qt-mt323:qt-mt323.dll
 0002:00000c14       __imp_?setEditText@QComboBox@@UAEXABVQString@@@Z 00410c14     qt-mt323:qt-mt323.dll
 0002:00000c18       __imp_?setEnabled@QComboBox@@UAEX_N@Z 00410c18     qt-mt323:qt-mt323.dll
 0002:00000c1c       __imp_?setEnabled@QGroupBox@@UAEX_N@Z 00410c1c     qt-mt323:qt-mt323.dll
 0002:00000c20       __imp_?setEnabled@QScrollView@@UAEX_N@Z 00410c20     qt-mt323:qt-mt323.dll
 0002:00000c24       __imp_?setExclusive@QButtonGroup@@UAEX_N@Z 00410c24     qt-mt323:qt-mt323.dll
 0002:00000c28       __imp_?setFont@QComboBox@@UAEXABVQFont@@@Z 00410c28     qt-mt323:qt-mt323.dll
 0002:00000c2c       __imp_?setFont@QLabel@@UAEXABVQFont@@@Z 00410c2c     qt-mt323:qt-mt323.dll
 0002:00000c30       __imp_?setFont@QLineEdit@@UAEXABVQFont@@@Z 00410c30     qt-mt323:qt-mt323.dll
 0002:00000c34       __imp_?setFont@QListView@@UAEXABVQFont@@@Z 00410c34     qt-mt323:qt-mt323.dll
 0002:00000c38       __imp_?setFrame@QLineEdit@@UAEX_N@Z 00410c38     qt-mt323:qt-mt323.dll
 0002:00000c3c       __imp_?setGeometry@QBoxLayout@@UAEXABVQRect@@@Z 00410c3c     qt-mt323:qt-mt323.dll
 0002:00000c40       __imp_?setGeometry@QGridLayout@@UAEXABVQRect@@@Z 00410c40     qt-mt323:qt-mt323.dll
 0002:00000c44       __imp_?setGeometry@QSpacerItem@@UAEXABVQRect@@@Z 00410c44     qt-mt323:qt-mt323.dll
 0002:00000c48       __imp_?setHBarGeometry@QScrollView@@MAEXAAVQScrollBar@@HHHH@Z 00410c48     qt-mt323:qt-mt323.dll
 0002:00000c4c       __imp_?setHScrollBarMode@QScrollView@@UAEXW4ScrollBarMode@1@@Z 00410c4c     qt-mt323:qt-mt323.dll
 0002:00000c50       __imp_?setInsertionPolicy@QComboBox@@UAEXW4Policy@1@@Z 00410c50     qt-mt323:qt-mt323.dll
 0002:00000c54       __imp_?setItemMargin@QListView@@UAEXH@Z 00410c54     qt-mt323:qt-mt323.dll
 0002:00000c58       __imp_?setLineEdit@QComboBox@@UAEXPAVQLineEdit@@@Z 00410c58     qt-mt323:qt-mt323.dll
 0002:00000c5c       __imp_?setListBox@QComboBox@@UAEXPAVQListBox@@@Z 00410c5c     qt-mt323:qt-mt323.dll
 0002:00000c60       __imp_?setMargin@QLayout@@UAEXH@Z 00410c60     qt-mt323:qt-mt323.dll
 0002:00000c64       __imp_?setMargins@QScrollView@@MAEXHHHH@Z 00410c64     qt-mt323:qt-mt323.dll
 0002:00000c68       __imp_?setMaxCount@QComboBox@@UAEXH@Z 00410c68     qt-mt323:qt-mt323.dll
 0002:00000c6c       __imp_?setMaxLength@QLineEdit@@UAEXH@Z 00410c6c     qt-mt323:qt-mt323.dll
 0002:00000c70       __imp_?setMenuBar@QLayout@@UAEXPAVQMenuBar@@@Z 00410c70     qt-mt323:qt-mt323.dll
 0002:00000c74       __imp_?setMovie@QLabel@@UAEXABVQMovie@@@Z 00410c74     qt-mt323:qt-mt323.dll
 0002:00000c78       __imp_?setMultiSelection@QListView@@UAEX_N@Z 00410c78     qt-mt323:qt-mt323.dll
 0002:00000c7c       __imp_?setName@QObject@@UAEXPBD@Z 00410c7c     qt-mt323:qt-mt323.dll
 0002:00000c80       __imp_?setNum@QLabel@@UAEXH@Z 00410c80     qt-mt323:qt-mt323.dll
 0002:00000c84       __imp_?setNum@QLabel@@UAEXN@Z 00410c84     qt-mt323:qt-mt323.dll
 0002:00000c88       __imp_?setOpaqueResize@QSplitter@@UAEX_N@Z 00410c88     qt-mt323:qt-mt323.dll
 0002:00000c8c       __imp_?setOpen@QListView@@UAEXPAVQListViewItem@@_N@Z 00410c8c     qt-mt323:qt-mt323.dll
 0002:00000c90       __imp_?setOrientation@QSplitter@@UAEXW4Orientation@Qt@@@Z 00410c90     qt-mt323:qt-mt323.dll
 0002:00000c94       __imp_?setPalette@QComboBox@@UAEXABVQPalette@@@Z 00410c94     qt-mt323:qt-mt323.dll
 0002:00000c98       __imp_?setPalette@QLineEdit@@UAEXABVQPalette@@@Z 00410c98     qt-mt323:qt-mt323.dll
 0002:00000c9c       __imp_?setPalette@QListView@@UAEXABVQPalette@@@Z 00410c9c     qt-mt323:qt-mt323.dll
 0002:00000ca0       __imp_?setPicture@QLabel@@UAEXABVQPicture@@@Z 00410ca0     qt-mt323:qt-mt323.dll
 0002:00000ca4       __imp_?setPixmap@QLabel@@UAEXABVQPixmap@@@Z 00410ca4     qt-mt323:qt-mt323.dll
 0002:00000ca8       __imp_?setRadioButtonExclusive@QButtonGroup@@UAEX_N@Z 00410ca8     qt-mt323:qt-mt323.dll
 0002:00000cac       __imp_?setReadOnly@QLineEdit@@UAEX_N@Z 00410cac     qt-mt323:qt-mt323.dll
 0002:00000cb0       __imp_?setResizeMode@QListView@@UAEXW4ResizeMode@1@@Z 00410cb0     qt-mt323:qt-mt323.dll
 0002:00000cb4       __imp_?setResizeMode@QSplitter@@UAEXPAVQWidget@@W4ResizeMode@1@@Z 00410cb4     qt-mt323:qt-mt323.dll
 0002:00000cb8       __imp_?setResizePolicy@QScrollView@@UAEXW4ResizePolicy@1@@Z 00410cb8     qt-mt323:qt-mt323.dll
 0002:00000cbc       __imp_?setRootIsDecorated@QListView@@UAEX_N@Z 00410cbc     qt-mt323:qt-mt323.dll
 0002:00000cc0       __imp_?setRowStretch@QGridLayout@@UAEXHH@Z 00410cc0     qt-mt323:qt-mt323.dll
 0002:00000cc4       __imp_?setRubberband@QSplitter@@MAEXH@Z 00410cc4     qt-mt323:qt-mt323.dll
 0002:00000cc8       __imp_?setSelected@QListView@@UAEXPAVQListViewItem@@_N@Z 00410cc8     qt-mt323:qt-mt323.dll
 0002:00000ccc       __imp_?setSelection@QLineEdit@@UAEXHH@Z 00410ccc     qt-mt323:qt-mt323.dll
 0002:00000cd0       __imp_?setShowSortIndicator@QListView@@UAEX_N@Z 00410cd0     qt-mt323:qt-mt323.dll
 0002:00000cd4       __imp_?setShowToolTips@QListView@@UAEX_N@Z 00410cd4     qt-mt323:qt-mt323.dll
 0002:00000cd8       __imp_?setSizeLimit@QComboBox@@UAEXH@Z 00410cd8     qt-mt323:qt-mt323.dll
 0002:00000cdc       __imp_?setSorting@QListView@@UAEXH_N@Z 00410cdc     qt-mt323:qt-mt323.dll
 0002:00000ce0       __imp_?setSpacing@QLayout@@UAEXH@Z 00410ce0     qt-mt323:qt-mt323.dll
 0002:00000ce4       __imp_?setText@QLabel@@UAEXABVQString@@@Z 00410ce4     qt-mt323:qt-mt323.dll
 0002:00000ce8       __imp_?setText@QLineEdit@@UAEXABVQString@@@Z 00410ce8     qt-mt323:qt-mt323.dll
 0002:00000cec       __imp_?setTitle@QGroupBox@@UAEXABVQString@@@Z 00410cec     qt-mt323:qt-mt323.dll
 0002:00000cf0       __imp_?setTreeStepSize@QListView@@UAEXH@Z 00410cf0     qt-mt323:qt-mt323.dll
 0002:00000cf4       __imp_?setVBarGeometry@QScrollView@@MAEXAAVQScrollBar@@HHHH@Z 00410cf4     qt-mt323:qt-mt323.dll
 0002:00000cf8       __imp_?setVScrollBarMode@QScrollView@@UAEXW4ScrollBarMode@1@@Z 00410cf8     qt-mt323:qt-mt323.dll
 0002:00000cfc       __imp_?setValidator@QComboBox@@UAEXPBVQValidator@@@Z 00410cfc     qt-mt323:qt-mt323.dll
 0002:00000d00       __imp_?setValidator@QLineEdit@@UAEXPBVQValidator@@@Z 00410d00     qt-mt323:qt-mt323.dll
 0002:00000d04       __imp_?show@QListView@@UAEXXZ 00410d04     qt-mt323:qt-mt323.dll
 0002:00000d08       __imp_?showEvent@QListView@@MAEXPAVQShowEvent@@@Z 00410d08     qt-mt323:qt-mt323.dll
 0002:00000d0c       __imp_?sizeHint@QBoxLayout@@UBE?AVQSize@@XZ 00410d0c     qt-mt323:qt-mt323.dll
 0002:00000d10       __imp_?sizeHint@QCheckBox@@UBE?AVQSize@@XZ 00410d10     qt-mt323:qt-mt323.dll
 0002:00000d14       __imp_?sizeHint@QComboBox@@UBE?AVQSize@@XZ 00410d14     qt-mt323:qt-mt323.dll
 0002:00000d18       __imp_?sizeHint@QGridLayout@@UBE?AVQSize@@XZ 00410d18     qt-mt323:qt-mt323.dll
 0002:00000d1c       __imp_?sizeHint@QGroupBox@@UBE?AVQSize@@XZ 00410d1c     qt-mt323:qt-mt323.dll
 0002:00000d20       __imp_?sizeHint@QLabel@@UBE?AVQSize@@XZ 00410d20     qt-mt323:qt-mt323.dll
 0002:00000d24       __imp_?sizeHint@QLineEdit@@UBE?AVQSize@@XZ 00410d24     qt-mt323:qt-mt323.dll
 0002:00000d28       __imp_?sizeHint@QListView@@UBE?AVQSize@@XZ 00410d28     qt-mt323:qt-mt323.dll
 0002:00000d2c       __imp_?sizeHint@QSpacerItem@@UBE?AVQSize@@XZ 00410d2c     qt-mt323:qt-mt323.dll
 0002:00000d30       __imp_?sizeHint@QSplitter@@UBE?AVQSize@@XZ 00410d30     qt-mt323:qt-mt323.dll
 0002:00000d34       __imp_?sizeHint@QWidget@@UBE?AVQSize@@XZ 00410d34     qt-mt323:qt-mt323.dll
 0002:00000d38       __imp_?sort@QListView@@UAEXXZ 00410d38     qt-mt323:qt-mt323.dll
 0002:00000d3c       __imp_?spacerItem@QLayoutItem@@UAEPAVQSpacerItem@@XZ 00410d3c     qt-mt323:qt-mt323.dll
 0002:00000d40       __imp_?spacerItem@QSpacerItem@@UAEPAV1@XZ 00410d40     qt-mt323:qt-mt323.dll
 0002:00000d44       __imp_?startDrag@QListView@@MAEXXZ 00410d44     qt-mt323:qt-mt323.dll
 0002:00000d48       __imp_?styleChange@QComboBox@@MAEXAAVQStyle@@@Z 00410d48     qt-mt323:qt-mt323.dll
 0002:00000d4c       __imp_?styleChange@QFrame@@MAEXAAVQStyle@@@Z 00410d4c     qt-mt323:qt-mt323.dll
 0002:00000d50       __imp_?styleChange@QListView@@MAEXAAVQStyle@@@Z 00410d50     qt-mt323:qt-mt323.dll
 0002:00000d54       __imp_?styleChange@QSplitter@@MAEXAAVQStyle@@@Z 00410d54     qt-mt323:qt-mt323.dll
 0002:00000d58       __imp_?takeItem@QListView@@UAEXPAVQListViewItem@@@Z 00410d58     qt-mt323:qt-mt323.dll
 0002:00000d5c       __imp_?undo@QLineEdit@@UAEXXZ 00410d5c     qt-mt323:qt-mt323.dll
 0002:00000d60       __imp_?updateMask@QCheckBox@@MAEXXZ 00410d60     qt-mt323:qt-mt323.dll
 0002:00000d64       __imp_?updateMask@QComboBox@@MAEXXZ 00410d64     qt-mt323:qt-mt323.dll
 0002:00000d68       __imp_?viewportContextMenuEvent@QScrollView@@MAEXPAVQContextMenuEvent@@@Z 00410d68     qt-mt323:qt-mt323.dll
 0002:00000d6c       __imp_?viewportDragEnterEvent@QScrollView@@MAEXPAVQDragEnterEvent@@@Z 00410d6c     qt-mt323:qt-mt323.dll
 0002:00000d70       __imp_?viewportDragLeaveEvent@QScrollView@@MAEXPAVQDragLeaveEvent@@@Z 00410d70     qt-mt323:qt-mt323.dll
 0002:00000d74       __imp_?viewportDragMoveEvent@QScrollView@@MAEXPAVQDragMoveEvent@@@Z 00410d74     qt-mt323:qt-mt323.dll
 0002:00000d78       __imp_?viewportDropEvent@QScrollView@@MAEXPAVQDropEvent@@@Z 00410d78     qt-mt323:qt-mt323.dll
 0002:00000d7c       __imp_?viewportMouseDoubleClickEvent@QScrollView@@MAEXPAVQMouseEvent@@@Z 00410d7c     qt-mt323:qt-mt323.dll
 0002:00000d80       __imp_?viewportMouseMoveEvent@QScrollView@@MAEXPAVQMouseEvent@@@Z 00410d80     qt-mt323:qt-mt323.dll
 0002:00000d84       __imp_?viewportMousePressEvent@QScrollView@@MAEXPAVQMouseEvent@@@Z 00410d84     qt-mt323:qt-mt323.dll
 0002:00000d88       __imp_?viewportMouseReleaseEvent@QScrollView@@MAEXPAVQMouseEvent@@@Z 00410d88     qt-mt323:qt-mt323.dll
 0002:00000d8c       __imp_?viewportPaintEvent@QScrollView@@MAEXPAVQPaintEvent@@@Z 00410d8c     qt-mt323:qt-mt323.dll
 0002:00000d90       __imp_?viewportResizeEvent@QListView@@MAEXPAVQResizeEvent@@@Z 00410d90     qt-mt323:qt-mt323.dll
 0002:00000d94       __imp_?viewportWheelEvent@QScrollView@@MAEXPAVQWheelEvent@@@Z 00410d94     qt-mt323:qt-mt323.dll
 0002:00000d98       __imp_?wheelEvent@QComboBox@@MAEXPAVQWheelEvent@@@Z 00410d98     qt-mt323:qt-mt323.dll
 0002:00000d9c       __imp_?wheelEvent@QScrollView@@MAEXPAVQWheelEvent@@@Z 00410d9c     qt-mt323:qt-mt323.dll
 0002:00000da0       __imp_?widget@QLayoutItem@@UAEPAVQWidget@@XZ 00410da0     qt-mt323:qt-mt323.dll
 0002:00000da4       __imp_?windowActivationChange@QLineEdit@@MAEX_N@Z 00410da4     qt-mt323:qt-mt323.dll
 0002:00000da8       __imp_?windowActivationChange@QListView@@MAEX_N@Z 00410da8     qt-mt323:qt-mt323.dll
 0002:00000dac       __imp_?nextSibling@QDomNode@@UBE?AV1@XZ 00410dac     qt-mt323:qt-mt323.dll
 0002:00000db0       __imp_?firstChild@QDomNode@@UBE?AV1@XZ 00410db0     qt-mt323:qt-mt323.dll
 0002:00000db4       __imp_??1QDomNode@@UAE@XZ  00410db4     qt-mt323:qt-mt323.dll
 0002:00000db8       __imp_??4QDomNode@@QAEAAV0@ABV0@@Z 00410db8     qt-mt323:qt-mt323.dll
 0002:00000dbc       __imp_?close@QWidget@@QAE_NXZ 00410dbc     qt-mt323:qt-mt323.dll
 0002:00000dc0       __imp_?update@QWidget@@QAEXXZ 00410dc0     qt-mt323:qt-mt323.dll
 0002:00000dc4       __imp_?setIcon@QWidget@@UAEXABVQPixmap@@@Z 00410dc4     qt-mt323:qt-mt323.dll
 0002:00000dc8       __imp_?setCaption@QWidget@@UAEXABVQString@@@Z 00410dc8     qt-mt323:qt-mt323.dll
 0002:00000dcc       __imp_?connect@QObject@@SA_NPBV1@PBD01@Z 00410dcc     qt-mt323:qt-mt323.dll
 0002:00000dd0       __imp_?inherits@QObject@@QBE_NPBD@Z 00410dd0     qt-mt323:qt-mt323.dll
 0002:00000dd4       __imp_?isA@QObject@@QBE_NPBD@Z 00410dd4     qt-mt323:qt-mt323.dll
 0002:00000dd8       __imp_?insert@?$QMap@HVQString@@@@QAE?AV?$QMapIterator@HVQString@@@@ABHABVQString@@_N@Z 00410dd8     qt-mt323:qt-mt323.dll
 0002:00000ddc       __imp_??A?$QMap@HVQString@@@@QAEAAVQString@@ABH@Z 00410ddc     qt-mt323:qt-mt323.dll
 0002:00000de0       __imp_?end@?$QMap@HVQString@@@@QAE?AV?$QMapIterator@HVQString@@@@XZ 00410de0     qt-mt323:qt-mt323.dll
 0002:00000de4       __imp_?begin@?$QMap@HVQString@@@@QAE?AV?$QMapIterator@HVQString@@@@XZ 00410de4     qt-mt323:qt-mt323.dll
 0002:00000de8       __imp_??1?$QMap@HVQString@@@@QAE@XZ 00410de8     qt-mt323:qt-mt323.dll
 0002:00000dec       __imp_??0?$QMap@HVQString@@@@QAE@XZ 00410dec     qt-mt323:qt-mt323.dll
 0002:00000df0       __imp_??4QStringList@@QAEAAV0@ABV0@@Z 00410df0     qt-mt323:qt-mt323.dll
 0002:00000df4       __imp_??1QStringList@@QAE@XZ 00410df4     qt-mt323:qt-mt323.dll
 0002:00000df8       __imp_?split@QStringList@@SA?AV1@ABVQString@@0_N@Z 00410df8     qt-mt323:qt-mt323.dll
 0002:00000dfc       __imp_??0QStringList@@QAE@XZ 00410dfc     qt-mt323:qt-mt323.dll
 0002:00000e00       __imp_?locate@QGList@@AAEPAVQLNode@@I@Z 00410e00     qt-mt323:qt-mt323.dll
 0002:00000e04       __imp_?next@QGList@@IAEPAXXZ 00410e04     qt-mt323:qt-mt323.dll
 0002:00000e08       __imp_?first@QGList@@IAEPAXXZ 00410e08     qt-mt323:qt-mt323.dll
 0002:00000e0c       __imp_?clear@QGList@@MAEXXZ 00410e0c     qt-mt323:qt-mt323.dll
 0002:00000e10       __imp_?append@QGList@@IAEXPAX@Z 00410e10     qt-mt323:qt-mt323.dll
 0002:00000e14       __imp_??1QGList@@MAE@XZ    00410e14     qt-mt323:qt-mt323.dll
 0002:00000e18       __imp_??0QGList@@IAE@XZ    00410e18     qt-mt323:qt-mt323.dll
 0002:00000e1c       __imp_?detachInternal@?$QValueList@VQString@@@@AAEXXZ 00410e1c     qt-mt323:qt-mt323.dll
 0002:00000e20       __imp_?findIndex@?$QValueList@VQString@@@@QBEHABVQString@@@Z 00410e20     qt-mt323:qt-mt323.dll
 0002:00000e24       __imp_??A?$QValueList@VQString@@@@QAEAAVQString@@I@Z 00410e24     qt-mt323:qt-mt323.dll
 0002:00000e28       __imp_?append@?$QValueList@VQString@@@@QAE?AV?$QValueListIterator@VQString@@@@ABVQString@@@Z 00410e28     qt-mt323:qt-mt323.dll
 0002:00000e2c       __imp_?clear@?$QValueList@VQString@@@@QAEXXZ 00410e2c     qt-mt323:qt-mt323.dll
 0002:00000e30       __imp_??H@YA?BVQString@@PBDABV0@@Z 00410e30     qt-mt323:qt-mt323.dll
 0002:00000e34       __imp_??H@YA?BVQString@@ABV0@PBD@Z 00410e34     qt-mt323:qt-mt323.dll
 0002:00000e38       __imp_??H@YA?BVQString@@ABV0@0@Z 00410e38     qt-mt323:qt-mt323.dll
 0002:00000e3c       __imp_??8@YA_NABVQString@@PBD@Z 00410e3c     qt-mt323:qt-mt323.dll
 0002:00000e40       __imp_??9@YA_NABVQString@@PBD@Z 00410e40     qt-mt323:qt-mt323.dll
 0002:00000e44       __imp_??8@YA_NABVQString@@0@Z 00410e44     qt-mt323:qt-mt323.dll
 0002:00000e48       __imp_??9@YA_NABVQString@@0@Z 00410e48     qt-mt323:qt-mt323.dll
 0002:00000e4c       __imp_?startsWith@QString@@QBE_NABV1@@Z 00410e4c     qt-mt323:qt-mt323.dll
 0002:00000e50       __imp_?latin1@QString@@QBEPBDXZ 00410e50     qt-mt323:qt-mt323.dll
 0002:00000e54       __imp_?ascii@QString@@QBEPBDXZ 00410e54     qt-mt323:qt-mt323.dll
 0002:00000e58       __imp_?number@QString@@SA?AV1@NDH@Z 00410e58     qt-mt323:qt-mt323.dll
 0002:00000e5c       __imp_?toFloat@QString@@QBEMPA_N@Z 00410e5c     qt-mt323:qt-mt323.dll
 0002:00000e60       __imp_?upper@QString@@QBE?AV1@XZ 00410e60     qt-mt323:qt-mt323.dll
 0002:00000e64       __imp_?section@QString@@QBE?AV1@PBDHHH@Z 00410e64     qt-mt323:qt-mt323.dll
 0002:00000e68       __imp_?contains@QString@@QBEHABVQRegExp@@@Z 00410e68     qt-mt323:qt-mt323.dll
 0002:00000e6c       __imp_?arg@QString@@QBE?AV1@ABV1@H@Z 00410e6c     qt-mt323:qt-mt323.dll
 0002:00000e70       __imp_?arg@QString@@QBE?AV1@NHDH@Z 00410e70     qt-mt323:qt-mt323.dll
 0002:00000e74       __imp_?arg@QString@@QBE?AV1@HHH@Z 00410e74     qt-mt323:qt-mt323.dll
 0002:00000e78       __imp_??4QString@@QAEAAV0@PBD@Z 00410e78     qt-mt323:qt-mt323.dll
 0002:00000e7c       __imp_?qDebug@@YAXPBDZZ    00410e7c     qt-mt323:qt-mt323.dll
 0002:00000e80       __imp_?width@QListViewItem@@UBEHABVQFontMetrics@@PBVQListView@@H@Z 00410e80     qt-mt323:qt-mt323.dll
 0002:00000e84       __imp_?text@QListViewItem@@UBE?AVQString@@H@Z 00410e84     qt-mt323:qt-mt323.dll
 0002:00000e88       __imp_?takeItem@QListViewItem@@UAEXPAV1@@Z 00410e88     qt-mt323:qt-mt323.dll
 0002:00000e8c       __imp_?startRename@QListViewItem@@UAEXH@Z 00410e8c     qt-mt323:qt-mt323.dll
 0002:00000e90       __imp_?sortChildItems@QListViewItem@@UAEXH_N@Z 00410e90     qt-mt323:qt-mt323.dll
 0002:00000e94       __imp_?sort@QListViewItem@@UAEXXZ 00410e94     qt-mt323:qt-mt323.dll
 0002:00000e98       __imp_?setup@QListViewItem@@UAEXXZ 00410e98     qt-mt323:qt-mt323.dll
 0002:00000e9c       __imp_?setText@QListViewItem@@UAEXHABVQString@@@Z 00410e9c     qt-mt323:qt-mt323.dll
 0002:00000ea0       __imp_?setSelected@QListViewItem@@UAEX_N@Z 00410ea0     qt-mt323:qt-mt323.dll
 0002:00000ea4       __imp_?setSelectable@QListViewItem@@UAEX_N@Z 00410ea4     qt-mt323:qt-mt323.dll
 0002:00000ea8       __imp_?setRenameEnabled@QListViewItem@@UAEXH_N@Z 00410ea8     qt-mt323:qt-mt323.dll
 0002:00000eac       __imp_?setPixmap@QListViewItem@@UAEXHABVQPixmap@@@Z 00410eac     qt-mt323:qt-mt323.dll
 0002:00000eb0       __imp_?setOpen@QListViewItem@@UAEX_N@Z 00410eb0     qt-mt323:qt-mt323.dll
 0002:00000eb4       __imp_?setMultiLinesEnabled@QListViewItem@@UAEX_N@Z 00410eb4     qt-mt323:qt-mt323.dll
 0002:00000eb8       __imp_?setHeight@QListViewItem@@MAEXH@Z 00410eb8     qt-mt323:qt-mt323.dll
 0002:00000ebc       __imp_?setExpandable@QListViewItem@@UAEX_N@Z 00410ebc     qt-mt323:qt-mt323.dll
 0002:00000ec0       __imp_?setEnabled@QListViewItem@@UAEX_N@Z 00410ec0     qt-mt323:qt-mt323.dll
 0002:00000ec4       __imp_?setDropEnabled@QListViewItem@@UAEX_N@Z 00410ec4     qt-mt323:qt-mt323.dll
 0002:00000ec8       __imp_?setDragEnabled@QListViewItem@@UAEX_N@Z 00410ec8     qt-mt323:qt-mt323.dll
 0002:00000ecc       __imp_?rtti@QListViewItem@@UBEHXZ 00410ecc     qt-mt323:qt-mt323.dll
 0002:00000ed0       __imp_?removeItem@QListViewItem@@UAEXPAV1@@Z 00410ed0     qt-mt323:qt-mt323.dll
 0002:00000ed4       __imp_?pixmap@QListViewItem@@UBEPBVQPixmap@@H@Z 00410ed4     qt-mt323:qt-mt323.dll
 0002:00000ed8       __imp_?paintFocus@QListViewItem@@UAEXPAVQPainter@@ABVQColorGroup@@ABVQRect@@@Z 00410ed8     qt-mt323:qt-mt323.dll
 0002:00000edc       __imp_?paintCell@QListViewItem@@UAEXPAVQPainter@@ABVQColorGroup@@HHH@Z 00410edc     qt-mt323:qt-mt323.dll
 0002:00000ee0       __imp_?paintBranches@QListViewItem@@UAEXPAVQPainter@@ABVQColorGroup@@HHH@Z 00410ee0     qt-mt323:qt-mt323.dll
 0002:00000ee4       __imp_?okRename@QListViewItem@@MAEXH@Z 00410ee4     qt-mt323:qt-mt323.dll
 0002:00000ee8       __imp_?key@QListViewItem@@UBE?AVQString@@H_N@Z 00410ee8     qt-mt323:qt-mt323.dll
 0002:00000eec       __imp_?invalidateHeight@QListViewItem@@UAEXXZ 00410eec     qt-mt323:qt-mt323.dll
 0002:00000ef0       __imp_?insertItem@QListViewItem@@UAEXPAV1@@Z 00410ef0     qt-mt323:qt-mt323.dll
 0002:00000ef4       __imp_?enforceSortOrder@QListViewItem@@MBEXXZ 00410ef4     qt-mt323:qt-mt323.dll
 0002:00000ef8       __imp_?dropped@QListViewItem@@MAEXPAVQDropEvent@@@Z 00410ef8     qt-mt323:qt-mt323.dll
 0002:00000efc       __imp_?dragLeft@QListViewItem@@MAEXXZ 00410efc     qt-mt323:qt-mt323.dll
 0002:00000f00       __imp_?dragEntered@QListViewItem@@MAEXXZ 00410f00     qt-mt323:qt-mt323.dll
 0002:00000f04       __imp_?cancelRename@QListViewItem@@MAEXH@Z 00410f04     qt-mt323:qt-mt323.dll
 0002:00000f08       __imp_?activate@QListViewItem@@MAEXXZ 00410f08     qt-mt323:qt-mt323.dll
 0002:00000f0c       __imp_?acceptDrop@QListViewItem@@UBE_NPBVQMimeSource@@@Z 00410f0c     qt-mt323:qt-mt323.dll
 0002:00000f10       __imp_??1QListViewItem@@UAE@XZ 00410f10     qt-mt323:qt-mt323.dll
 0002:00000f14       __imp_??0QListViewItem@@QAE@PAVQListView@@VQString@@1111111@Z 00410f14     qt-mt323:qt-mt323.dll
 0002:00000f18       __imp_?at@QString@@QBE?AVQChar@@I@Z 00410f18     qt-mt323:qt-mt323.dll
 0002:00000f1c       __imp_?toInt@QString@@QBEHPA_NH@Z 00410f1c     qt-mt323:qt-mt323.dll
 0002:00000f20       __imp_?remove@QString@@QAEAAV1@II@Z 00410f20     qt-mt323:qt-mt323.dll
 0002:00000f24       __imp_??4QString@@QAEAAV0@ABV0@@Z 00410f24     qt-mt323:qt-mt323.dll
 0002:00000f28       __imp_??0QString@@QAE@ABV0@@Z 00410f28     qt-mt323:qt-mt323.dll
 0002:00000f2c       __imp_??0QString@@QAE@XZ   00410f2c     qt-mt323:qt-mt323.dll
 0002:00000f30       __imp_?isDigit@QChar@@QBE_NXZ 00410f30     qt-mt323:qt-mt323.dll
 0002:00000f34       __imp_?upper@QChar@@QBE?AV1@XZ 00410f34     qt-mt323:qt-mt323.dll
 0002:00000f38       __imp_?null@QString@@2V1@A 00410f38     qt-mt323:qt-mt323.dll
 0002:00000f3c       __imp_?show@QMainWindow@@UAEXXZ 00410f3c     qt-mt323:qt-mt323.dll
 0002:00000f40       __imp_?critical@QMessageBox@@SAHPAVQWidget@@ABVQString@@1111HH@Z 00410f40     qt-mt323:qt-mt323.dll
 0002:00000f44       __imp_?exec@QApplication@@QAEHXZ 00410f44     qt-mt323:qt-mt323.dll
 0002:00000f48       __imp_?setMainWidget@QApplication@@UAEXPAVQWidget@@@Z 00410f48     qt-mt323:qt-mt323.dll
 0002:00000f4c       __imp_??1QApplication@@UAE@XZ 00410f4c     qt-mt323:qt-mt323.dll
 0002:00000f50       __imp_??0QApplication@@QAE@AAHPAPAD@Z 00410f50     qt-mt323:qt-mt323.dll
 0002:00000f54       __imp_??1QString@@QAE@XZ   00410f54     qt-mt323:qt-mt323.dll
 0002:00000f58       __imp_??0QString@@QAE@PBD@Z 00410f58     qt-mt323:qt-mt323.dll
 0002:00000f5c       __imp_?static_QUType_bool@@3UQUType_bool@@A 00410f5c     qt-mt323:qt-mt323.dll
 0002:00000f60       __imp_?deleteData@QGArray@@MAEXPAUarray_data@1@@Z 00410f60     qt-mt323:qt-mt323.dll
 0002:00000f64       __imp_?newData@QGArray@@MAEPAUarray_data@1@XZ 00410f64     qt-mt323:qt-mt323.dll
 0002:00000f68       __imp_??1QGArray@@MAE@XZ   00410f68     qt-mt323:qt-mt323.dll
 0002:00000f6c       __imp_?qWinMain@@YAXPAUHINSTANCE__@@0PADHAAHAAV?$QMemArray@PAD@@@Z 00410f6c     qt-mt323:qt-mt323.dll
 0002:00000f70       __imp_??0QGArray@@IAE@H@Z  00410f70     qt-mt323:qt-mt323.dll
 0002:00000f74       __imp_?duplicate@QGArray@@IAEAAV1@ABV1@@Z 00410f74     qt-mt323:qt-mt323.dll
 0002:00000f78       \177qt-mt323_NULL_THUNK_DATA 00410f78     qt-mt323:qt-mt323.dll
 0002:00000f7c       ___xc_a                    00410f7c     MSVCRT:cinitexe.obj
 0002:00000f98       ___xc_z                    00410f98     MSVCRT:cinitexe.obj
 0002:00000f9c       ___xi_a                    00410f9c     MSVCRT:cinitexe.obj
 0002:00000fac       ___xi_z                    00410fac     MSVCRT:cinitexe.obj
 0002:00000fb4       ??_7error_category@std@@6B@ 00410fb4     main.obj
 0002:00000fd0       ??_7_Generic_error_category@std@@6B@ 00410fd0     main.obj
 0002:00000fe8       ??_C@_07DCLBNMLN@generic?$AA@ 00410fe8     main.obj
 0002:00000ff0       ??_C@_0O@BFJCFAAK@unknown?5error?$AA@ 00410ff0     main.obj
 0002:00001004       ??_7_Iostream_error_category@std@@6B@ 00411004     main.obj
 0002:0000101c       ??_C@_08LLGCOLLL@iostream?$AA@ 0041101c     main.obj
 0002:00001028       ??_C@_0BG@PADBLCHM@iostream?5stream?5error?$AA@ 00411028     main.obj
 0002:00001044       ??_7_System_error_category@std@@6B@ 00411044     main.obj
 0002:0000105c       ??_C@_06FHFOAHML@system?$AA@ 0041105c     main.obj
 0002:00001064       ??_C@_07JBEBLGDD@CC_ROOT?$AA@ 00411064     main.obj
 0002:0000106c       ??_C@_09DDAHAMBK@CC_SYSTEM?$AA@ 0041106c     main.obj
 0002:00001078       ??_C@_0CN@FPMLFBOO@Your?5CC_ROOT?5environment?5variabl@ 00411078     main.obj
 0002:000010a8       ??_C@_05NAOIJFC@Error?$AA@ 004110a8     main.obj
 0002:000010b0       ??_C@_0CP@FFIAPLAI@Your?5CC_SYSTEM?5environment?5varia@ 004110b0     main.obj
 0002:000010e0       ??_C@_0BA@JFNIOLAK@string?5too?5long?$AA@ 004110e0     main.obj
 0002:000010f0       ??_C@_0BI@CFPLBAOH@invalid?5string?5position?$AA@ 004110f0     main.obj
 0002:0000110c       ??_7myListViewItem@@6B@    0041110c     myListViewItem.obj
 0002:000011a4       ??_C@_0N@HEALFHGE@u?5?5c?5?$CDF3F301?$AA@ 004111a4     paramtestermainwindow.obj
 0002:000011b4       ??_C@_0N@MJJJFJNJ@i?5?5c?5?$CDFEFE01?$AA@ 004111b4     paramtestermainwindow.obj
 0002:000011c4       ??_C@_0N@FCOIEIMA@p?5?5c?5?$CDF7F70A?$AA@ 004111c4     paramtestermainwindow.obj
 0002:000011d4       ??_C@_0N@NGNJEE@a?5?5c?5?$CDFCFC0F?$AA@ 004111d4     paramtestermainwindow.obj
 0002:000011e4       ??_C@_0N@LHJHFHIC@s?5?5c?5?$CDE7E711?$AA@ 004111e4     paramtestermainwindow.obj
 0002:000011f4       ??_C@_0N@DIDLONJO@d?5?5c?5?$CDECEC13?$AA@ 004111f4     paramtestermainwindow.obj
 0002:00001204       ??_C@_0N@NHPLKMIF@f?5?5c?5?$CDF4F412?$AA@ 00411204     paramtestermainwindow.obj
 0002:00001214       ??_C@_0N@PDLJOBBN@g?5?5c?5?$CDFCFC13?$AA@ 00411214     paramtestermainwindow.obj
 0002:00001224       ??_C@_0N@PLPGENNO@h?5?5c?5?$CDFCFC1C?$AA@ 00411224     paramtestermainwindow.obj
 0002:00001234       ??_C@_0N@DKEFIEBO@j?5?5c?5?$CDCBCB37?$AA@ 00411234     paramtestermainwindow.obj
 0002:00001244       ??_C@_0N@NJJJCHH@k?5?5c?5?$CDC4C43A?$AA@ 00411244     paramtestermainwindow.obj
 0002:00001254       ??_C@_0N@KCBDFDPB@l?5?5c?5?$CDCCCC3C?$AA@ 00411254     paramtestermainwindow.obj
 0002:00001264       ??_C@_0N@IENBHGHD@z?5?5c?5?$CDD2D23E?$AA@ 00411264     paramtestermainwindow.obj
 0002:00001274       ??_C@_0N@IBHMPFGA@x?5?5c?5?$CDFCFC28?$AA@ 00411274     paramtestermainwindow.obj
 0002:00001284       ??_C@_0N@BFDOEMKD@c?5?5c?5?$CDFBFB35?$AA@ 00411284     paramtestermainwindow.obj
 0002:00001294       ??_C@_0N@FIHJKKCF@v?5?5c?5?$CD888848?$AA@ 00411294     paramtestermainwindow.obj
 0002:000012a4       ??_C@_0N@NGDMGMOG@b?5?5c?5?$CD979740?$AA@ 004112a4     paramtestermainwindow.obj
 0002:000012b4       ??_C@_0N@LLMFABIF@n?5?5c?5?$CD9A9A44?$AA@ 004112b4     paramtestermainwindow.obj
 0002:000012c4       ??_C@_0N@HCICFHDL@m?5?5c?5?$CD9E9E4C?$AA@ 004112c4     paramtestermainwindow.obj
 0002:000012d4       ??_C@_0N@EILHAPAM@M?5?5c?5?$CD8D8D54?$AA@ 004112d4     paramtestermainwindow.obj
 0002:000012e4       ??_C@_0N@KPGGPDFI@N?5?5c?5?$CDA3A34E?$AA@ 004112e4     paramtestermainwindow.obj
 0002:000012f4       ??_C@_0N@PAKJPMLJ@B?5?5c?5?$CDAEAE4C?$AA@ 004112f4     paramtestermainwindow.obj
 0002:00001304       ??_C@_0N@MHGHPOOG@V?5?5c?5?$CDB0B04A?$AA@ 00411304     paramtestermainwindow.obj
 0002:00001314       ??_C@_0N@EGGFIIOG@C?5?5c?5?$CDA4A455?$AA@ 00411314     paramtestermainwindow.obj
 0002:00001324       ??_C@_0N@IBKIBGKF@Z?5?5c?5?$CDA7A75B?$AA@ 00411324     paramtestermainwindow.obj
 0002:00001334       ??_C@_0N@EHPCIPFI@A?5?5c?5?$CDA9A95E?$AA@ 00411334     paramtestermainwindow.obj
 0002:00001344       ??_C@_0N@HNHFMFEP@S?5?5c?5?$CD8D8D6B?$AA@ 00411344     paramtestermainwindow.obj
 0002:00001354       ??_C@_0N@GKMGMOCB@D?5?5c?5?$CD98987C?$AA@ 00411354     paramtestermainwindow.obj
 0002:00001364       ??_C@_0N@FDOKKNHA@F?5?5c?5?$CDAEAE64?$AA@ 00411364     paramtestermainwindow.obj
 0002:00001374       ??_C@_0N@DLNCAKLI@G?5?5c?5?$CDAEAE69?$AA@ 00411374     paramtestermainwindow.obj
 0002:00001384       ??_C@_0N@FPPFILOA@H?5?5c?5?$CDB2B26C?$AA@ 00411384     paramtestermainwindow.obj
 0002:00001394       ??_C@_0N@KDLAEHOJ@J?5?5c?5?$CDB5B571?$AA@ 00411394     paramtestermainwindow.obj
 0002:000013a4       ??_C@_0N@HPJDMDKI@K?5?5c?5?$CDB8B876?$AA@ 004113a4     paramtestermainwindow.obj
 0002:000013b4       ??_C@_0N@NKBJKNN@L?5?5c?5?$CDBDBD7C?$AA@ 004113b4     paramtestermainwindow.obj
 0002:000013c4       ??_C@_0N@LOFPDDJE@P?5?5c?5?$CDCDCD40?$AA@ 004113c4     paramtestermainwindow.obj
 0002:000013d4       ??_C@_0N@HOOJBNGA@I?5?5c?5?$CDD3D344?$AA@ 004113d4     paramtestermainwindow.obj
 0002:000013e4       ??_C@_0N@OFLOKEBO@U?5?5c?5?$CDDADA46?$AA@ 004113e4     paramtestermainwindow.obj
 0002:000013f4       ??_C@_0N@BIFDKEHG@Y?5?5c?5?$CDD6D649?$AA@ 004113f4     paramtestermainwindow.obj
 0002:00001404       ??_C@_0N@INKBJJKI@T?5?5c?5?$CDDCDC4C?$AA@ 00411404     paramtestermainwindow.obj
 0002:00001414       ??_C@_0N@MCLNILPH@R?5?5c?5?$CDDEDE51?$AA@ 00411414     paramtestermainwindow.obj
 0002:00001424       ??_C@_0N@DKIAHKOI@E?5?5c?5?$CDE2E24E?$AA@ 00411424     paramtestermainwindow.obj
 0002:00001434       ??_C@_0N@CKAPPHDI@W?5?5c?5?$CDE4E454?$AA@ 00411434     paramtestermainwindow.obj
 0002:00001444       ??_C@_0N@NNAFNCKH@Q?5?5c?5?$CDE9E955?$AA@ 00411444     paramtestermainwindow.obj
 0002:00001454       ??_C@_0N@OPELKPKN@?$CB?5?5c?5?$CDE5E558?$AA@ 00411454     paramtestermainwindow.obj
 0002:00001464       ??_C@_0N@IHEOMNAJ@?$HO?5?5c?5?$CDECEC5B?$AA@ 00411464     paramtestermainwindow.obj
 0002:00001474       ??_C@_0N@JDPOIFOK@?$FO?5?5c?5?$CDF1F15D?$AA@ 00411474     paramtestermainwindow.obj
 0002:00001484       ??_C@_0N@MKGAPNMM@?1?5?5c?5?$CDD3D365?$AA@ 00411484     paramtestermainwindow.obj
 0002:00001494       ??_C@_0N@MOBFGHII@?$CI?5?5c?5?$CDDCDC64?$AA@ 00411494     paramtestermainwindow.obj
 0002:000014a4       ??_C@_0N@GMCKFBAM@?$CJ?5?5c?5?$CDEDED60?$AA@ 004114a4     paramtestermainwindow.obj
 0002:000014b4       ??_C@_0N@EACPKEB@_?5?5c?5?$CDF4F464?$AA@ 004114b4     paramtestermainwindow.obj
 0002:000014c4       ??_C@_0N@PIADIFJG@?$GA?5?5c?5?$CD8A8A87?$AA@ 004114c4     paramtestermainwindow.obj
 0002:000014d4       ??_C@_0M@CLGAJNFM@?8?5?5c?5gray59?$AA@ 004114d4     paramtestermainwindow.obj
 0002:000014e0       ??_C@_0N@BHNIKMMG@?$FN?5?5c?5?$CD9D9D9B?$AA@ 004114e0     paramtestermainwindow.obj
 0002:000014f0       ??_C@_0N@PJKNDFNF@?$FL?5?5c?5?$CDBDBD82?$AA@ 004114f0     paramtestermainwindow.obj
 0002:00001500       ??_C@_0N@COPLGDDG@?$HL?5?5c?5?$CDB6B689?$AA@ 00411500     paramtestermainwindow.obj
 0002:00001510       ??_C@_0N@HKCCMMPG@?$HN?5?5c?5?$CDBEBE89?$AA@ 00411510     paramtestermainwindow.obj
 0002:00001520       ??_C@_0N@MILIEKIO@?$HM?5?5c?5?$CDBFBF93?$AA@ 00411520     paramtestermainwindow.obj
 0002:00001530       ??_C@_0N@BJMPIKGC@?5?4?5c?5?$CDA4A4A3?$AA@ 00411530     paramtestermainwindow.obj
 0002:00001540       ??_C@_0N@MJLBIINF@?4?4?5c?5?$CDA9A9A7?$AA@ 00411540     paramtestermainwindow.obj
 0002:00001550       ??_C@_0N@FMDDHMKA@X?4?5c?5?$CDABABAB?$AA@ 00411550     paramtestermainwindow.obj
 0002:00001560       ??_C@_0N@NCIGADKO@o?4?5c?5?$CDB5B5B5?$AA@ 00411560     paramtestermainwindow.obj
 0002:00001570       ??_C@_0N@OBEJACDG@O?4?5c?5?$CDBBBBBB?$AA@ 00411570     paramtestermainwindow.obj
 0002:00001580       ??_C@_0N@PEAKAOFB@?$CL?4?5c?5?$CDC2C284?$AA@ 00411580     paramtestermainwindow.obj
 0002:00001590       ??_C@_0N@MPKKOOBO@?$EA?4?5c?5?$CDC5C58A?$AA@ 00411590     paramtestermainwindow.obj
 0002:000015a0       ??_C@_0N@CPBJLPAK@?$CD?4?5c?5?$CDC5C594?$AA@ 004115a0     paramtestermainwindow.obj
 0002:000015b0       ??_C@_0N@JHBPAPEI@$?4?5c?5?$CDCCCC92?$AA@ 004115b0     paramtestermainwindow.obj
 0002:000015c0       ??_C@_0N@LHGIPCJL@?$CF?4?5c?5?$CDC6C698?$AA@ 004115c0     paramtestermainwindow.obj
 0002:000015d0       ??_C@_0N@KLJMHHDF@?$CG?4?5c?5?$CDCBCB9B?$AA@ 004115d0     paramtestermainwindow.obj
 0002:000015e0       ??_C@_0N@CGLMIBAN@?$CK?4?5c?5?$CDD2D29B?$AA@ 004115e0     paramtestermainwindow.obj
 0002:000015f0       ??_C@_0N@KBFAJMAG@?$DN?4?5c?5?$CDF1F183?$AA@ 004115f0     paramtestermainwindow.obj
 0002:00001600       ??_C@_0N@LJFKIAIJ@?9?4?5c?5?$CDCECEA2?$AA@ 00411600     paramtestermainwindow.obj
 0002:00001610       ??_C@_0N@FAALDLMN@?$DL?4?5c?5?$CDD3D3A3?$AA@ 00411610     paramtestermainwindow.obj
 0002:00001620       ??_C@_0N@BFOBIGMM@?3?4?5c?5?$CDD9D9A5?$AA@ 00411620     paramtestermainwindow.obj
 0002:00001630       ??_C@_0N@LNOFNHIC@?$DO?4?5c?5?$CDD8D8B4?$AA@ 00411630     paramtestermainwindow.obj
 0002:00001640       ??_C@_0N@CJDFODK@?0?4?5c?5?$CDDDDDBE?$AA@ 00411640     paramtestermainwindow.obj
 0002:00001650       ??_C@_0N@JGOIJFKD@?$DM?4?5c?5?$CDC4C4C4?$AA@ 00411650     paramtestermainwindow.obj
 0002:00001660       ??_C@_0N@EIGOIOPB@1?4?5c?5?$CDCCCCCB?$AA@ 00411660     paramtestermainwindow.obj
 0002:00001670       ??_C@_0N@MKAPBING@2?4?5c?5?$CDDFDFC2?$AA@ 00411670     paramtestermainwindow.obj
 0002:00001680       ??_C@_0N@MDFALEIN@3?4?5c?5?$CDD4D4D4?$AA@ 00411680     paramtestermainwindow.obj
 0002:00001690       ??_C@_0N@FEGJHNDJ@4?4?5c?5?$CDDBDBDB?$AA@ 00411690     paramtestermainwindow.obj
 0002:000016a0       ??_C@_0N@KIMIFMNC@5?4?5c?5?$CDE1E1C6?$AA@ 004116a0     paramtestermainwindow.obj
 0002:000016b0       ??_C@_0N@BMPIPOCJ@6?4?5c?5?$CDE5E5CD?$AA@ 004116b0     paramtestermainwindow.obj
 0002:000016c0       ??_C@_0N@HBKINFBK@7?4?5c?5?$CDE7E7D1?$AA@ 004116c0     paramtestermainwindow.obj
 0002:000016d0       ??_C@_0N@NEMAPBGP@8?4?5c?5?$CDE8E8D2?$AA@ 004116d0     paramtestermainwindow.obj
 0002:000016e0       ??_C@_0N@EHMBKBIF@9?4?5c?5?$CDEEEEDE?$AA@ 004116e0     paramtestermainwindow.obj
 0002:000016f0       ??_C@_0N@OEEPJAHA@0?4?5c?5?$CDE4E4E4?$AA@ 004116f0     paramtestermainwindow.obj
 0002:00001700       ??_C@_0N@GHOENJIH@q?4?5c?5?$CDEFEFE0?$AA@ 00411700     paramtestermainwindow.obj
 0002:00001710       ??_C@_0N@KEAAENOO@w?4?5c?5?$CDECECEC?$AA@ 00411710     paramtestermainwindow.obj
 0002:00001720       ??_C@_0N@NEOKPJOM@e?4?5c?5?$CDF4F4EA?$AA@ 00411720     paramtestermainwindow.obj
 0002:00001730       ??_C@_0M@FDEMHOON@r?4?5c?5gray96?$AA@ 00411730     paramtestermainwindow.obj
 0002:0000173c       ??_C@_0N@PDGAEIME@t?4?5c?5?$CDFAFAF5?$AA@ 0041173c     paramtestermainwindow.obj
 0002:0000174c       ??_C@_0N@DAIMAKIO@y?4?5c?5?$CDFFFFFF?$AA@ 0041174c     paramtestermainwindow.obj
 0002:0000175c       ??_C@_09NMOHMJMJ@u?4?5c?5None?$AA@ 0041175c     paramtestermainwindow.obj
 0002:00001768       ??_C@_0EB@FAOCPCEL@u?4u?4u?4u?4u?4u?4?$DN?4_?5_?5?$FO?5_?5_?5_?5?$FO?5_?5?$FO?5@ 00411768     paramtestermainwindow.obj
 0002:000017b0       ??_C@_0EB@HAGFEPDK@u?4u?4u?4u?4u?4?$DN?4c?5a?5d?5y?5u?5t?5t?5d?5y?5t?5@ 004117b0     paramtestermainwindow.obj
 0002:000017f8       ??_C@_0EB@FGEJOPNC@u?4u?4u?4u?4?$DN?4x?5g?5?9?5?$EA?5?$CG?5?$CG?5X?5?$EA?5?$CG?5?$CG?5?$EA?5@ 004117f8     paramtestermainwindow.obj
 0002:00001840       ??_C@_0EB@OPNPMANC@u?4u?4u?4?$DN?4h?5p?5?9?5X?5?4?5?$CG?5?$CG?5?4?5?$CG?5?$CG?5?$CG?5?$CG?5@ 00411840     paramtestermainwindow.obj
 0002:00001888       ??_C@_0EB@BADKAMCE@u?4u?4?$DN?4h?5u?5?9?5?$CG?5?$CG?5?$CG?5?$CG?5O?5?4?5?$CG?5?$EA?5?$CG?5?$CG?5@ 00411888     paramtestermainwindow.obj
 0002:000018d0       ??_C@_0EB@GJGCIJE@u?4?$DN?4g?5u?5?$CD?5?$CG?5?$CG?5X?5?$EA?5?$CG?5?$CG?5?$EA?5?$CG?5?$EA?5?$EA?5?$CG?5@ 004118d0     paramtestermainwindow.obj
 0002:00001918       ??_C@_0EB@BGHOCELD@?$DN?4g?5u?5?$CL?5X?5?$CG?5?$EA?5?4?5?4?5?$CG?5?$CG?5?$EA?5?$CG?5?4?5?4?5?$CG?5@ 00411918     paramtestermainwindow.obj
 0002:00001960       ??_C@_0EB@MGEDNJBC@_?5i?5?$CL?5?4?5?$EA?5?$CG?5?$EA?5X?5?$EA?5?$CG?5?$EA?5?$CG?5?$CG?5?4?5?4?5?$EA?5@ 00411960     paramtestermainwindow.obj
 0002:000019a8       ??_C@_0EB@HDPBGNIO@_?5u?5?4?5?4?5?$CG?5q?4q?49?4q?47?42?4?$CG?4n?5?4?5?4?5?$EA?5@ 004119a8     paramtestermainwindow.obj
 0002:000019f0       ??_C@_0EB@NPJKLCP@_?5u?5?4?5?4?5?4?5y?4y?4y?4y?4y?4y?4y?4y?4?$CG?4?4?5?4?5@ 004119f0     paramtestermainwindow.obj
 0002:00001a38       ??_C@_0EB@DFNMMGIF@_?5u?5?4?5?4?5?4?5y?4y?46?4C?5H?5?9?4t?4y?4y?4F?5?4?5@ 00411a38     paramtestermainwindow.obj
 0002:00001a80       ??_C@_0EB@KFLIDBFD@_?5u?5?4?5?4?5X?5y?4y?4?$DO?4?4?5?4?5?4?5C?5y?4y?45?4?4?5@ 00411a80     paramtestermainwindow.obj
 0002:00001ac8       ??_C@_0EB@KIIJNFEM@_?5t?5?4?5?4?5?4?5y?4y?4?$DO?4?4?5?4?5?4?5?4?5r?4y?4e?4?4?5@ 00411ac8     paramtestermainwindow.obj
 0002:00001b10       ??_C@_0EB@PLMDLBC@_?5u?5?4?5?4?5?4?5y?4y?4?$DO?4?4?5?4?5?4?5X?5t?4y?49?4?4?5@ 00411b10     paramtestermainwindow.obj
 0002:00001b58       ??_C@_0EB@FKILCNPG@_?5u?5?4?5?4?5X?5y?4y?4?$DO?4?4?5?4?5?4?5F?5y?4y?4?$DL?4?4?5@ 00411b58     paramtestermainwindow.obj
 0002:00001ba0       ??_C@_0EB@BGMNMBIE@_?5u?5?4?5?4?5?4?5y?4y?48?4F?5H?5?$DL?4y?4y?4y?44?5?4?5@ 00411ba0     paramtestermainwindow.obj
 0002:00001be8       ??_C@_0EB@LKNHDKDD@?$CJ?5u?5?4?5?4?5X?5y?4y?4y?4y?4y?4y?4y?4r?4Z?5?4?5?4?5@ 00411be8     paramtestermainwindow.obj
 0002:00001c30       ??_C@_0EB@OPCLCBCK@?$CJ?5u?5?4?5?4?5?4?5y?4y?4t?49?48?4?0?4?$FL?5?$DN?5?4?5?4?5?4?5@ 00411c30     paramtestermainwindow.obj
 0002:00001c78       ??_C@_0EB@HENIMHBM@?$HO?5u?5?4?5?4?5?4?5y?4y?4?$DO?4?4?5?4?5?4?5?4?5?4?5?4?5?4?5?4?5@ 00411c78     paramtestermainwindow.obj
 0002:00001cc0       ??_C@_0EB@INCBCCCO@?$CB?5u?5?4?5?4?5X?5y?4y?4?$DO?4?4?5?4?5?4?5?4?5?4?5?4?5?4?5?4?5@ 00411cc0     paramtestermainwindow.obj
 0002:00001d08       ??_C@_0EB@HOCHAAPH@?$CB?5u?5?4?5?4?5X?5y?4y?4?$DO?4?4?5?4?5?4?5?4?5?4?5?4?5?4?5?4?5@ 00411d08     paramtestermainwindow.obj
 0002:00001d50       ??_C@_0EB@MIACLHLC@?$CB?5u?5?4?5?4?5?4?5y?4y?4?$DO?4?4?5?4?5?4?5?4?5X?5X?5o?5o?5@ 00411d50     paramtestermainwindow.obj
 0002:00001d98       ??_C@_0EB@OHKILEEC@R?5u?5?4?5?4?5?4?5K?5J?5Z?5?4?5?4?5?4?5o?5o?5o?5o?5?$DM?5@ 00411d98     paramtestermainwindow.obj
 0002:00001de0       ??_C@_0EB@GJKEHJFC@T?5u?5?4?5?4?5?4?5?4?5?4?5X?5o?5o?5o?5?$CK?5?$DM?5?$DM?52?53?5@ 00411de0     paramtestermainwindow.obj
 0002:00001e28       ??_C@_0EB@HECICIHE@Y?5u?5?4?5?4?5?4?5o?5o?5o?5?$CG?5?$DM?5?$DM?5?$DM?52?53?54?55?5@ 00411e28     paramtestermainwindow.obj
 0002:00001e70       ??_C@_0EB@JADNLCLM@Y?5u?5?4?5X?5o?5o?5?$CG?5?$DM?5?$DM?52?52?5v?5?$FN?5?4?4S?5m?5@ 00411e70     paramtestermainwindow.obj
 0002:00001eb8       ??_C@_0EB@GMGLCGEN@I?5u?5o?5?$CG?5o?5?$DM?5?$DM?52?52?53?5v?5M?5?$DM?43?4D?5F?5@ 00411eb8     paramtestermainwindow.obj
 0002:00001f00       ??_C@_0EB@FOKOLKID@P?5s?5?$GA?5?$FN?5?$FN?5?$FN?5?5?4?$FN?5?5?4?4?4X?4X?43?43?4o?4o?4@ 00411f00     paramtestermainwindow.obj
 0002:00001f48       ??_C@_0EB@GJMHNIME@P?5s?5?4?4?$DM?4?$DM?43?41?41?43?41?43?44?44?44?44?40?4@ 00411f48     paramtestermainwindow.obj
 0002:00001f90       ??_C@_0EB@PKFFAPPE@P?5s?5?8?5X?4X?4X?4X?4o?4o?4O?4O?4O?4?$DM?4?$DM?41?41?4@ 00411f90     paramtestermainwindow.obj
 0002:00001fd8       ??_C@_0EB@JIMPOAC@k?5i?5s?5s?5s?5s?5d?5d?5s?5s?5s?5s?5d?5d?5d?5d?5@ 00411fd8     paramtestermainwindow.obj
 0002:00002020       ??_C@_0EB@IGMCOGBP@B?5q?50?50?50?58?58?57?57?5?$DO?57?5?$DO?5?9?5?9?5?9?5$?5@ 00412020     paramtestermainwindow.obj
 0002:00002064       ??_C@_0N@IKGNONIM@32?532?5128?52?5?$AA@ 00412064     paramtestermainwindow.obj
 0002:00002074       ??_C@_0N@MBCHPPO@?5?5?5c?5?$CD6C6C00?$AA@ 00412074     paramtestermainwindow.obj
 0002:00002084       ??_C@_0N@JDDJAJIL@?4?5?5c?5?$CD7A7A01?$AA@ 00412084     paramtestermainwindow.obj
 0002:00002094       ??_C@_0N@JJMJFFKG@X?5?5c?5?$CD7E7E0B?$AA@ 00412094     paramtestermainwindow.obj
 0002:000020a4       ??_C@_0N@HCDCCDJD@o?5?5c?5?$CD7F7F11?$AA@ 004120a4     paramtestermainwindow.obj
 0002:000020b4       ??_C@_0N@KKIDBIPE@O?5?5c?5?$CD838300?$AA@ 004120b4     paramtestermainwindow.obj
 0002:000020c4       ??_C@_0N@GOCPIAOA@?$CL?5?5c?5?$CD8B8B01?$AA@ 004120c4     paramtestermainwindow.obj
 0002:000020d4       ??_C@_0N@CBGBBILD@?$EA?5?5c?5?$CD81810D?$AA@ 004120d4     paramtestermainwindow.obj
 0002:000020e4       ??_C@_0N@LCFBCIJB@?$CD?5?5c?5?$CD929204?$AA@ 004120e4     paramtestermainwindow.obj
 0002:000020f4       ??_C@_0N@EFHFEMHI@$?5?5c?5?$CD94940B?$AA@ 004120f4     paramtestermainwindow.obj
 0002:00002104       ??_C@_0N@MJLHPOKH@?$CF?5?5c?5?$CD9A9A0D?$AA@ 00412104     paramtestermainwindow.obj
 0002:00002114       ??_C@_0N@JAKPBLG@?$CG?5?5c?5?$CD838313?$AA@ 00412114     paramtestermainwindow.obj
 0002:00002124       ??_C@_0N@DMFNDJLK@?$CK?5?5c?5?$CD84841C?$AA@ 00412124     paramtestermainwindow.obj
 0002:00002134       ??_C@_0N@KEHNPCGC@?$DN?5?5c?5?$CD8A8A1E?$AA@ 00412134     paramtestermainwindow.obj
 0002:00002144       ??_C@_0N@MNCPAAN@?9?5?5c?5?$CD9C9C12?$AA@ 00412144     paramtestermainwindow.obj
 0002:00002154       ??_C@_0N@KMGILNDA@?$DL?5?5c?5?$CDBABA00?$AA@ 00412154     paramtestermainwindow.obj
 0002:00002164       ??_C@_0N@NHPCANJE@?3?5?5c?5?$CDA3A316?$AA@ 00412164     paramtestermainwindow.obj
 0002:00002174       ??_C@_0N@NMMKNDPB@?$DO?5?5c?5?$CDA4A41B?$AA@ 00412174     paramtestermainwindow.obj
 0002:00002184       ??_C@_0N@FJMFKLDK@?0?5?5c?5?$CDAAAA1D?$AA@ 00412184     paramtestermainwindow.obj
 0002:00002194       ??_C@_0N@JBOHFKFC@?$DM?5?5c?5?$CD878723?$AA@ 00412194     paramtestermainwindow.obj
 0002:000021a4       ??_C@_0N@FKEEILOJ@1?5?5c?5?$CD898925?$AA@ 004121a4     paramtestermainwindow.obj
 0002:000021b4       ??_C@_0N@FKCLNCIJ@2?5?5c?5?$CD8B8B2B?$AA@ 004121b4     paramtestermainwindow.obj
 0002:000021c4       ??_C@_0N@LNLDMNIM@3?5?5c?5?$CD8F8F32?$AA@ 004121c4     paramtestermainwindow.obj
 0002:000021d4       ??_C@_0N@ONECOLAK@4?5?5c?5?$CD919134?$AA@ 004121d4     paramtestermainwindow.obj
 0002:000021e4       ??_C@_0N@COKCINHO@5?5?5c?5?$CD94943B?$AA@ 004121e4     paramtestermainwindow.obj
 0002:000021f4       ??_C@_0N@MCDMIKOK@6?5?5c?5?$CD9A9A3D?$AA@ 004121f4     paramtestermainwindow.obj
 0002:00002204       ??_C@_0N@PCAICKK@7?5?5c?5?$CDADAD23?$AA@ 00412204     paramtestermainwindow.obj
 0002:00002214       ??_C@_0N@ICBNCDI@8?5?5c?5?$CDB4B42B?$AA@ 00412214     paramtestermainwindow.obj
 0002:00002224       ??_C@_0N@ICFIPBPP@9?5?5c?5?$CDB9B92C?$AA@ 00412224     paramtestermainwindow.obj
 0002:00002234       ??_C@_0N@PGOLDCEJ@0?5?5c?5?$CDBBBB33?$AA@ 00412234     paramtestermainwindow.obj
 0002:00002244       ??_C@_0N@DJBNALJA@q?5?5c?5?$CDBEBE3C?$AA@ 00412244     paramtestermainwindow.obj
 0002:00002254       ??_C@_0N@GEKGMPHI@w?5?5c?5?$CDC5C500?$AA@ 00412254     paramtestermainwindow.obj
 0002:00002264       ??_C@_0N@NAOAHBLE@e?5?5c?5?$CDCECE00?$AA@ 00412264     paramtestermainwindow.obj
 0002:00002274       ??_C@_0N@HKOAOGOJ@r?5?5c?5?$CDDADA00?$AA@ 00412274     paramtestermainwindow.obj
 0002:00002284       ??_C@_0N@POBOJFLD@t?5?5c?5?$CDEBEB03?$AA@ 00412284     paramtestermainwindow.obj
 0002:00002294       ??_C@_0N@JGANIMDL@y?5?5c?5?$CDEBEB0C?$AA@ 00412294     paramtestermainwindow.obj
 0002:000022a4       ??_C@_01NBENCBCI@?$CK?$AA@ 004122a4     paramtestermainwindow.obj
 0002:000022a6       ??_C@_00CNPNBAHC@?$AA@     004122a6     paramtestermainwindow.obj
 0002:000022ac       ??_7IccClientCallback@@6B@ 004122ac     paramtestermainwindow.obj
 0002:000022dc       ??_7ParamTesterMainWindow@@6BQObject@@@ 004122dc     paramtestermainwindow.obj
 0002:000024f4       ??_7ParamTesterMainWindow@@6BQPaintDevice@@@ 004124f4     paramtestermainwindow.obj
 0002:00002518       ??_7ParamTesterMainWindow@@6B@ 00412518     paramtestermainwindow.obj
 0002:0000254c       ??_SQDomElement@@6B@       0041254c     paramtestermainwindow.obj
 0002:000025fc       ??_SQPushButton@@6BQObject@@@ 004125fc     paramtestermainwindow.obj
 0002:000027ec       ??_SQPushButton@@6BQPaintDevice@@@ 004127ec     paramtestermainwindow.obj
 0002:00002814       ??_SQPopupMenu@@6BQObject@@@ 00412814     paramtestermainwindow.obj
 0002:000029f4       ??_SQPopupMenu@@6BQPaintDevice@@@ 004129f4     paramtestermainwindow.obj
 0002:00002a18       ??_SQPopupMenu@@6B@        00412a18     paramtestermainwindow.obj
 0002:00002a3c       ??_SQMenuBar@@6BQObject@@@ 00412a3c     paramtestermainwindow.obj
 0002:00002c14       ??_SQMenuBar@@6BQPaintDevice@@@ 00412c14     paramtestermainwindow.obj
 0002:00002c38       ??_SQMenuBar@@6B@          00412c38     paramtestermainwindow.obj
 0002:00002c5c       ??_SQProgressDialog@@6BQObject@@@ 00412c5c     paramtestermainwindow.obj
 0002:00002e1c       ??_SQProgressDialog@@6BQPaintDevice@@@ 00412e1c     paramtestermainwindow.obj
 0002:00002e3c       ??_C@_0M@FNNILDGK@ParamTester?$AA@ 00412e3c     paramtestermainwindow.obj
 0002:00002e4c       ??_7?$QPtrList@VQPushButton@@@@6B@ 00412e4c     paramtestermainwindow.obj
 0002:00002e6c       ??_C@_08LPOBGBL@1close?$CI?$CJ?$AA@ 00412e6c     paramtestermainwindow.obj
 0002:00002e78       ??_C@_05PNPHNLAJ@E?$CGxit?$AA@ 00412e78     paramtestermainwindow.obj
 0002:00002e80       ??_C@_05FHBCAALB@?$CGFile?$AA@ 00412e80     paramtestermainwindow.obj
 0002:00002e88       ??_C@_08HOABKPGB@1about?$CI?$CJ?$AA@ 00412e88     paramtestermainwindow.obj
 0002:00002e94       ??_C@_06JDCECANP@?$CGAbout?$AA@ 00412e94     paramtestermainwindow.obj
 0002:00002e9c       ??_C@_0N@INJJCLFL@1whatsThis?$CI?$CJ?$AA@ 00412e9c     paramtestermainwindow.obj
 0002:00002eac       ??_C@_0N@GOMGDEGL@What?8s?5?$CGThis?$AA@ 00412eac     paramtestermainwindow.obj
 0002:00002ebc       ??_C@_05JFEBOHHM@?$CGHelp?$AA@ 00412ebc     paramtestermainwindow.obj
 0002:00002ec4       ??_C@_0CB@MAIEENEF@1selectInstance?$CIQListViewItem?5?$CK?$CJ@ 00412ec4     paramtestermainwindow.obj
 0002:00002ee8       ??_C@_0CB@CMJNPIMP@2currentChanged?5?$CIQListViewItem?$CK?$CJ@ 00412ee8     paramtestermainwindow.obj
 0002:00002f0c       ??_C@_0BM@FHOFOBGB@1retPressed?$CIQListViewItem?$CK?$CJ?$AA@ 00412f0c     paramtestermainwindow.obj
 0002:00002f28       ??_C@_0BP@BIOCNKI@2returnPressed?$CIQListViewItem?$CK?$CJ?$AA@ 00412f28     paramtestermainwindow.obj
 0002:00002f48       ??_C@_0BO@LKDMJNNM@1spacePressed?$CIQListViewItem?$CK?$CJ?$AA@ 00412f48     paramtestermainwindow.obj
 0002:00002f68       ??_C@_0BO@POJNLIME@2spacePressed?$CIQListViewItem?$CK?$CJ?$AA@ 00412f68     paramtestermainwindow.obj
 0002:00002f88       ??_C@_0BO@IGHAINKF@1selectParam?$CIQListViewItem?5?$CK?$CJ?$AA@ 00412f88     paramtestermainwindow.obj
 0002:00002fa8       ??_C@_0BD@CMEICBH@1setEnteredValue?$CI?$CJ?$AA@ 00412fa8     paramtestermainwindow.obj
 0002:00002fbc       ??_C@_0M@LPGBGFJN@2clicked?5?$CI?$CJ?$AA@ 00412fbc     paramtestermainwindow.obj
 0002:00002fc8       ??_C@_0BM@OAALMBIN@1setFilter?$CIconst?5QString?5?$CG?$CJ?$AA@ 00412fc8     paramtestermainwindow.obj
 0002:00002fe4       ??_C@_0BP@DPPANLBE@2textChanged?5?$CIconst?5QString?5?$CG?$CJ?$AA@ 00412fe4     paramtestermainwindow.obj
 0002:00003004       ??_C@_0BD@FMBIFNCJ@1ButtonPushed?$CIint?$CJ?$AA@ 00413004     paramtestermainwindow.obj
 0002:00003018       ??_C@_0O@GBIKBCJG@2clicked?$CIint?$CJ?$AA@ 00413018     paramtestermainwindow.obj
 0002:00003028       ??_C@_0BC@GAGCIAAG@1toggleTestMode?$CI?$CJ?$AA@ 00413028     paramtestermainwindow.obj
 0002:0000303c       ??_C@_0L@OELOHDKG@2clicked?$CI?$CJ?$AA@ 0041303c     paramtestermainwindow.obj
 0002:00003048       ??_C@_0BM@HPJMLIMF@1withSlotSetToggled?$CI?5bool?5?$CJ?$AA@ 00413048     paramtestermainwindow.obj
 0002:00003064       ??_C@_0BB@LLDFNJHG@2toggled?$CI?5bool?5?$CJ?$AA@ 00413064     paramtestermainwindow.obj
 0002:00003078       ??_C@_08LJGJBJHI@ccClient?$AA@ 00413078     paramtestermainwindow.obj
 0002:00003084       ??_C@_0CF@GAENGBMH@?5?$CK?$CB?$CK?$CB?$CK?$CB?$CK?$CB?$CK?5?5Can?8t?5find?5CSI?5?$CK?$CB?$CK?$CB?$CK@ 00413084     paramtestermainwindow.obj
 0002:000030ac       ??_C@_0BG@GGMLDCAG@?1config?1instances?4xml?$AA@ 004130ac     paramtestermainwindow.obj
 0002:000030c4       ??_C@_01KMDKNFGN@?1?$AA@   004130c4     paramtestermainwindow.obj
 0002:000030c8       ??_C@_09BJOJOOIO@instances?$AA@ 004130c8     paramtestermainwindow.obj
 0002:000030d4       ??_C@_08EMNENPBA@instance?$AA@ 004130d4     paramtestermainwindow.obj
 0002:000030e0       ??_C@_0BF@BKHONEAD@Loading?5instances?4?4?4?$AA@ 004130e0     paramtestermainwindow.obj
 0002:000030f8       ??_C@_02KAJCLHKP@no?$AA@   004130f8     paramtestermainwindow.obj
 0002:000030fc       ??_C@_09EIHFMDLJ@composite?$AA@ 004130fc     paramtestermainwindow.obj
 0002:00003108       ??_C@_02EGCJHIOB@id?$AA@   00413108     paramtestermainwindow.obj
 0002:0000310c       ??_C@_04GPMDFGEJ@type?$AA@ 0041310c     paramtestermainwindow.obj
 0002:00003114       ??_C@_03GCDGINBO@ref?$AA@  00413114     paramtestermainwindow.obj
 0002:00003118       ??_C@_08CBBFJFMD@location?$AA@ 00413118     paramtestermainwindow.obj
 0002:00003124       ??_C@_06OJMPKPAG@alt_id?$AA@ 00413124     paramtestermainwindow.obj
 0002:0000312c       ??_C@_04GAOAGNCM@?4xml?$AA@ 0041312c     paramtestermainwindow.obj
 0002:00003134       ??_C@_0BF@HMOKLADJ@?1config?1devicetypes?1?$AA@ 00413134     paramtestermainwindow.obj
 0002:0000314c       ??_C@_0BD@INOIJGBO@device_description?$AA@ 0041314c     paramtestermainwindow.obj
 0002:00003160       ??_C@_0EP@OIIJEODK@ParamTesterMainWindow?3?3loadDevic@ 00413160     paramtestermainwindow.obj
 0002:000031b0       ??_C@_05LJDNNBIK@param?$AA@ 004131b0     paramtestermainwindow.obj
 0002:000031b8       ??_C@_04MEMAJGDJ@name?$AA@ 004131b8     paramtestermainwindow.obj
 0002:000031c0       ??_C@_04POIHOKKJ@slot?$AA@ 004131c0     paramtestermainwindow.obj
 0002:000031c8       ??_C@_0M@FJILLLMH@QPushButton?$AA@ 004131c8     paramtestermainwindow.obj
 0002:000031d4       ??_C@_01IHBHIGKO@?0?$AA@   004131d4     paramtestermainwindow.obj
 0002:000031d8       ??_C@_07FDMMAPON@device?$DN?$AA@ 004131d8     paramtestermainwindow.obj
 0002:000031e0       ??_C@_01NEMOKFLO@?$DN?$AA@ 004131e0     paramtestermainwindow.obj
 0002:000031e4       ??_C@_07COEHBCAF@offset?$DN?$AA@ 004131e4     paramtestermainwindow.obj
 0002:000031ec       ??_C@_0CE@DGDJCMGF@Instance?5and?1or?5parameter?5not?5va@ 004131ec     paramtestermainwindow.obj
 0002:00003210       ??_C@_02PIGFKFFE@?$CF1?$AA@ 00413210     paramtestermainwindow.obj
 0002:00003214       ??_C@_04DBJPMPLO@enum?$AA@ 00413214     paramtestermainwindow.obj
 0002:0000321c       ??_C@_05CCGOGOBM@range?$AA@ 0041321c     paramtestermainwindow.obj
 0002:00003224       ??_C@_05ENKANFLO@class?$AA@ 00413224     paramtestermainwindow.obj
 0002:0000322c       ??_C@_08FJNLKCPH@template?$AA@ 0041322c     paramtestermainwindow.obj
 0002:00003238       ??_C@_05HDBKIDE@state?$AA@ 00413238     paramtestermainwindow.obj
 0002:00003240       ??_C@_0L@IFIFOPGK@QBoxLayout?$AA@ 00413240     paramtestermainwindow.obj
 0002:0000324c       ??_C@_07BANDPJOM@caption?$AA@ 0041324c     paramtestermainwindow.obj
 0002:00003254       ??_C@_05MFEJDJP@value?$AA@ 00413254     paramtestermainwindow.obj
 0002:0000325c       ??_C@_06GEKOPAHD@values?$AA@ 0041325c     paramtestermainwindow.obj
 0002:00003264       ??_C@_03KLIPLJLL@min?$AA@  00413264     paramtestermainwindow.obj
 0002:00003268       ??_C@_03LJAEFNNE@max?$AA@  00413268     paramtestermainwindow.obj
 0002:0000326c       ??_C@_07DIMAGMGN@bigstep?$AA@ 0041326c     paramtestermainwindow.obj
 0002:00003274       ??_C@_04CNBNFAL@step?$AA@  00413274     paramtestermainwindow.obj
 0002:0000327c       ??_C@_0N@GPEKCLAN@defaultvalue?$AA@ 0041327c     paramtestermainwindow.obj
 0002:0000328c       ??_C@_03FBFDILGF@?$CL?$CF1?$AA@ 0041328c     paramtestermainwindow.obj
 0002:00003290       ??_C@_07DLHCIBDH@default?$AA@ 00413290     paramtestermainwindow.obj
 0002:00003298       ??_C@_03HEDINELJ@?9?$CF1?$AA@ 00413298     paramtestermainwindow.obj
 0002:0000329c       ??_C@_04HPALDCFI@?0?9?9?9?$AA@ 0041329c     paramtestermainwindow.obj
 0002:000032a4       ??_C@_0N@EKLGOJJJ@instances?4?$CF1?$AA@ 004132a4     paramtestermainwindow.obj
 0002:000032b4       ??_C@_06CHPEJBOD@device?$AA@ 004132b4     paramtestermainwindow.obj
 0002:000032bc       ??_C@_06KLHHMIGM@offset?$AA@ 004132bc     paramtestermainwindow.obj
 0002:000032c4       ??_C@_07CMPFPFAH@complex?$AA@ 004132c4     paramtestermainwindow.obj
 0002:000032cc       ??_C@_0P@NEHBAIAN@devicetypes?2?$CF1?$AA@ 004132cc     paramtestermainwindow.obj
 0002:000032dc       ??_C@_0L@NFEMMAMH@drivertype?$AA@ 004132dc     paramtestermainwindow.obj
 0002:000032e8       ??_C@_03JFHPJKJL@GPI?$AA@  004132e8     paramtestermainwindow.obj
 0002:000032ec       ??_C@_06GCJHMIBF@ROUTER?$AA@ 004132ec     paramtestermainwindow.obj
 0002:000032f4       ??_C@_03CDFFDALI@GRD?$AA@  004132f4     paramtestermainwindow.obj
 0002:000032f8       ??_C@_0L@FAGABGIL@INFODRIVER?$AA@ 004132f8     paramtestermainwindow.obj
 0002:00003304       ??_C@_0L@BBADADA@Unknown?5?9?5?$AA@ 00413304     paramtestermainwindow.obj
 0002:00003310       ??_C@_0L@GAJBCLHM@Infodriver?$AA@ 00413310     paramtestermainwindow.obj
 0002:0000331c       ??_C@_09FOLKLHDD@Slot?5?$DN?$DN?50?$AA@ 0041331c     paramtestermainwindow.obj
 0002:00003328       ??_C@_0BL@OOBNDOAB@complex_instances?2?$CF1?4?$CF2?4?$CF3?$AA@ 00413328     paramtestermainwindow.obj
 0002:00003344       ??_C@_0DH@LHEFIOJA@Can?8t?5find?5device?5description?5fo@ 00413344     paramtestermainwindow.obj
 0002:0000337c       ??_C@_0CN@OLPLLABC@Can?8t?5find?5a?5valid?5file?5?9?5device@ 0041337c     paramtestermainwindow.obj
 0002:000033ac       ??_C@_0BC@JCHKGOAN@?1config?1template?1?$AA@ 004133ac     paramtestermainwindow.obj
 0002:000033c0       ??_C@_07NDLGHPLM@setting?$AA@ 004133c0     paramtestermainwindow.obj
 0002:000033c8       ??_C@_0BF@EHGINBKH@Author?5?9?5Mark?5Baldry?$AA@ 004133c8     paramtestermainwindow.obj
 0002:000033e0       ??_C@_01EEMJAFIK@?6?$AA@   004133e0     paramtestermainwindow.obj
 0002:000033e4       ??_C@_0L@LJKMINK@Version?5?9?5?$AA@ 004133e4     paramtestermainwindow.obj
 0002:000033f0       ??_C@_02PHMGELLB@?6?6?$AA@ 004133f0     paramtestermainwindow.obj
 0002:000033f4       ??_C@_0BG@EOLEHABA@ParamTesterMainWindow?$AA@ 004133f4     moc_paramtestermainwindow.obj
 0002:00003418       ??_C@_0P@FCPLFGDF@toggleTestMode?$AA@ 00413418     moc_paramtestermainwindow.obj
 0002:00003428       ??_C@_0O@LAFKAPIP@QListViewItem?$AA@ 00413428     moc_paramtestermainwindow.obj
 0002:00003444       ??_C@_0N@JABMIEIL@spacePressed?$AA@ 00413444     moc_paramtestermainwindow.obj
 0002:00003460       ??_C@_0L@FGCKGGOE@retPressed?$AA@ 00413460     moc_paramtestermainwindow.obj
 0002:00003478       ??_C@_05BEELFHJC@about?$AA@ 00413478     moc_paramtestermainwindow.obj
 0002:0000348c       ??_C@_0N@BBAGAEEI@ButtonPushed?$AA@ 0041348c     moc_paramtestermainwindow.obj
 0002:000034a8       ??_C@_0BA@DAGOCBD@setEnteredValue?$AA@ 004134a8     moc_paramtestermainwindow.obj
 0002:000034b8       ??_C@_04CIMGMMMG@text?$AA@ 004134b8     moc_paramtestermainwindow.obj
 0002:000034cc       ??_C@_09NMEPFDHK@setFilter?$AA@ 004134cc     moc_paramtestermainwindow.obj
 0002:000034d8       ??_C@_06PKNGCCMC@sValue?$AA@ 004134d8     moc_paramtestermainwindow.obj
 0002:000034ec       ??_C@_08BFDBIGFD@setValue?$AA@ 004134ec     moc_paramtestermainwindow.obj
 0002:000034f8       ??_C@_03ELAIKMFE@lvi?$AA@  004134f8     moc_paramtestermainwindow.obj
 0002:00003508       ??_C@_0M@JNLNKJHL@selectParam?$AA@ 00413508     moc_paramtestermainwindow.obj
 0002:00003520       ??_C@_0P@PCIMLGAN@selectInstance?$AA@ 00413520     moc_paramtestermainwindow.obj
 0002:00003530       ??_C@_03BALCFKBP@val?$AA@  00413530     moc_paramtestermainwindow.obj
 0002:00003540       ??_C@_0BD@LFPDEOBP@withSlotSetToggled?$AA@ 00413540     moc_paramtestermainwindow.obj
 0002:000035dc       ??_C@_0BB@FCCBOMDP@toggleTestMode?$CI?$CJ?$AA@ 004135dc     moc_paramtestermainwindow.obj
 0002:000035f0       ??_C@_0BN@BMDIMBEB@spacePressed?$CIQListViewItem?$CK?$CJ?$AA@ 004135f0     moc_paramtestermainwindow.obj
 0002:00003610       ??_C@_0BL@OBLKELFG@retPressed?$CIQListViewItem?$CK?$CJ?$AA@ 00413610     moc_paramtestermainwindow.obj
 0002:0000362c       ??_C@_07MEGALADH@about?$CI?$CJ?$AA@ 0041362c     moc_paramtestermainwindow.obj
 0002:00003634       ??_C@_0BC@DCPJGEN@ButtonPushed?$CIint?$CJ?$AA@ 00413634     moc_paramtestermainwindow.obj
 0002:00003648       ??_C@_0BC@FNPDEJHD@setEnteredValue?$CI?$CJ?$AA@ 00413648     moc_paramtestermainwindow.obj
 0002:0000365c       ??_C@_0BK@CGAIGBCE@setFilter?$CIconst?5QString?$CG?$CJ?$AA@ 0041365c     moc_paramtestermainwindow.obj
 0002:00003678       ??_C@_0BC@HJEGKBKE@setValue?$CIQString?$CJ?$AA@ 00413678     moc_paramtestermainwindow.obj
 0002:0000368c       ??_C@_0BM@HPFMMFAM@selectParam?$CIQListViewItem?$CK?$CJ?$AA@ 0041368c     moc_paramtestermainwindow.obj
 0002:000036a8       ??_C@_0BP@PMBLOJIK@selectInstance?$CIQListViewItem?$CK?$CJ?$AA@ 004136a8     moc_paramtestermainwindow.obj
 0002:000036c8       ??_C@_0BJ@IGMHKABI@withSlotSetToggled?$CIbool?$CJ?$AA@ 004136c8     moc_paramtestermainwindow.obj
 0002:000036e4       ??_C@_0BC@DHCLDELL@IccClientCallback?$AA@ 004136e4     moc_paramtestermainwindow.obj
 0002:000036f8       ??_C@_0BK@PKLBOKEA@ParamTesterMainWindowBase?$AA@ 004136f8     moc_paramtestermainwindowbase.obj
 0002:00003720       ??_C@_0P@DMEOIADN@languageChange?$AA@ 00413720     moc_paramtestermainwindowbase.obj
 0002:0000373c       ??_C@_0BB@PFEIHPGD@languageChange?$CI?$CJ?$AA@ 0041373c     moc_paramtestermainwindowbase.obj
 0002:00003754       ??_SQWidget@@6BQObject@@@  00413754     paramtestermainwindowbase.obj
 0002:00003908       ??_SQWidget@@6BQPaintDevice@@@ 00413908     paramtestermainwindowbase.obj
 0002:0000392c       ??_7ParamTesterMainWindowBase@@6BQObject@@@ 0041392c     paramtestermainwindowbase.obj
 0002:00003b44       ??_7ParamTesterMainWindowBase@@6BQPaintDevice@@@ 00413b44     paramtestermainwindowbase.obj
 0002:00003b6c       ??_SQSplitter@@6BQObject@@@ 00413b6c     paramtestermainwindowbase.obj
 0002:00003d54       ??_SQSplitter@@6BQPaintDevice@@@ 00413d54     paramtestermainwindowbase.obj
 0002:00003d7c       ??_SQLabel@@6BQObject@@@   00413d7c     paramtestermainwindowbase.obj
 0002:00003f74       ??_SQLabel@@6BQPaintDevice@@@ 00413f74     paramtestermainwindowbase.obj
 0002:00003f9c       ??_SQComboBox@@6BQObject@@@ 00413f9c     paramtestermainwindowbase.obj
 0002:00004180       ??_SQComboBox@@6BQPaintDevice@@@ 00414180     paramtestermainwindowbase.obj
 0002:000041a4       ??_SQListView@@6BQObject@@@ 004141a4     paramtestermainwindowbase.obj
 0002:00004488       ??_SQListView@@6BQPaintDevice@@@ 00414488     paramtestermainwindowbase.obj
 0002:000044ac       ??_SQCheckBox@@6BQObject@@@ 004144ac     paramtestermainwindowbase.obj
 0002:0000468c       ??_SQCheckBox@@6BQPaintDevice@@@ 0041468c     paramtestermainwindowbase.obj
 0002:000046b4       ??_SQGroupBox@@6BQObject@@@ 004146b4     paramtestermainwindowbase.obj
 0002:00004894       ??_SQGroupBox@@6BQPaintDevice@@@ 00414894     paramtestermainwindowbase.obj
 0002:000048bc       ??_SQButtonGroup@@6BQObject@@@ 004148bc     paramtestermainwindowbase.obj
 0002:00004aac       ??_SQButtonGroup@@6BQPaintDevice@@@ 00414aac     paramtestermainwindowbase.obj
 0002:00004ad4       ??_SQLineEdit@@6BQObject@@@ 00414ad4     paramtestermainwindowbase.obj
 0002:00004cfc       ??_SQLineEdit@@6BQPaintDevice@@@ 00414cfc     paramtestermainwindowbase.obj
 0002:00004d24       ??_SQSpacerItem@@6B@       00414d24     paramtestermainwindowbase.obj
 0002:00004d6c       ??_SQGridLayout@@6BQObject@@@ 00414d6c     paramtestermainwindowbase.obj
 0002:00004ddc       ??_SQGridLayout@@6BQLayoutItem@@@ 00414ddc     paramtestermainwindowbase.obj
 0002:00004e24       ??_SQHBoxLayout@@6BQObject@@@ 00414e24     paramtestermainwindowbase.obj
 0002:00004e8c       ??_SQHBoxLayout@@6BQLayoutItem@@@ 00414e8c     paramtestermainwindowbase.obj
 0002:00004ed4       ??_SQVBoxLayout@@6BQObject@@@ 00414ed4     paramtestermainwindowbase.obj
 0002:00004f3c       ??_SQVBoxLayout@@6BQLayoutItem@@@ 00414f3c     paramtestermainwindowbase.obj
 0002:00004f7c       ??_C@_0BC@LHPKNN@qt_central_widget?$AA@ 00414f7c     paramtestermainwindowbase.obj
 0002:00004f90       ??_C@_0CA@LOEMLKLL@ParamTesterMainWindowBaseLayout?$AA@ 00414f90     paramtestermainwindowbase.obj
 0002:00004fb0       ??_C@_09FLMFABOC@splitter3?$AA@ 00414fb0     paramtestermainwindowbase.obj
 0002:00004fbc       ??_C@_07IBBCGPPB@layout6?$AA@ 00414fbc     paramtestermainwindowbase.obj
 0002:00004fc4       ??_C@_0BA@MJOKLMAP@textLabelFilter?$AA@ 00414fc4     paramtestermainwindowbase.obj
 0002:00004fd4       ??_C@_0P@NOLLFFL@lineEditFilter?$AA@ 00414fd4     paramtestermainwindowbase.obj
 0002:00004fe4       ??_C@_09ECNODAKD@splitter2?$AA@ 00414fe4     paramtestermainwindowbase.obj
 0002:00004ff0       ??_C@_0N@JOIICLLD@listInstance?$AA@ 00414ff0     paramtestermainwindowbase.obj
 0002:00005000       ??_C@_08MOCFFNLD@Instance?$AA@ 00415000     paramtestermainwindowbase.obj
 0002:0000500c       ??_C@_04KOACHJEN@Type?$AA@ 0041500c     paramtestermainwindowbase.obj
 0002:00005014       ??_C@_06LIOHEEBC@Alt?5ID?$AA@ 00415014     paramtestermainwindowbase.obj
 0002:0000501c       ??_C@_07PMGFJLLE@layout3?$AA@ 0041501c     paramtestermainwindowbase.obj
 0002:00005024       ??_C@_0M@FJMAMDEJ@withSlotSet?$AA@ 00415024     paramtestermainwindowbase.obj
 0002:00005030       ??_C@_09ONDKKMCD@listParam?$AA@ 00415030     paramtestermainwindowbase.obj
 0002:0000503c       ??_C@_09HPDNJEFH@Parameter?$AA@ 0041503c     paramtestermainwindowbase.obj
 0002:00005048       ??_C@_08EECOOJEM@layout26?$AA@ 00415048     paramtestermainwindowbase.obj
 0002:00005054       ??_C@_09JAGLPBKP@groupBox1?$AA@ 00415054     paramtestermainwindowbase.obj
 0002:00005060       ??_C@_0O@MPCKELMF@labelLocation?$AA@ 00415060     paramtestermainwindowbase.obj
 0002:00005070       ??_C@_0L@KGLFILOJ@textLabel1?$AA@ 00415070     paramtestermainwindowbase.obj
 0002:0000507c       ??_C@_0L@BDNOMMDL@labelValue?$AA@ 0041507c     paramtestermainwindowbase.obj
 0002:00005088       ??_C@_0N@HPEGIJEE@textLabel1_2?$AA@ 00415088     paramtestermainwindowbase.obj
 0002:00005098       ??_C@_0P@JDPKMCHO@textLabel1_2_3?$AA@ 00415098     paramtestermainwindowbase.obj
 0002:000050a8       ??_C@_09KOFLCAHK@labelSlot?$AA@ 004150a8     paramtestermainwindowbase.obj
 0002:000050b4       ??_C@_08IEDNHIHM@labelDev?$AA@ 004150b4     paramtestermainwindowbase.obj
 0002:000050c0       ??_C@_0P@IKOBPDDP@textLabel1_2_2?$AA@ 004150c0     paramtestermainwindowbase.obj
 0002:000050d0       ??_C@_09PONOLDJO@labeltype?$AA@ 004150d0     paramtestermainwindowbase.obj
 0002:000050dc       ??_C@_0BB@EOEGFJOC@textLabel1_2_3_2?$AA@ 004150dc     paramtestermainwindowbase.obj
 0002:000050f0       ??_C@_0O@CKJCIICM@setValueGroup?$AA@ 004150f0     paramtestermainwindowbase.obj
 0002:00005100       ??_C@_09LLEGKCGM@groupBox2?$AA@ 00415100     paramtestermainwindowbase.obj
 0002:0000510c       ??_C@_0O@BBALGDLM@pushButton_Go?$AA@ 0041510c     paramtestermainwindowbase.obj
 0002:0000511c       ??_C@_08MHLHHABA@lineEdit?$AA@ 0041511c     paramtestermainwindowbase.obj
 0002:00005128       ??_C@_0L@OGKINGBA@cbTestMode?$AA@ 00415128     paramtestermainwindowbase.obj
 0002:00005134       ??_C@_06IBDJIBGI@Filter?$AA@ 00415134     paramtestermainwindowbase.obj
 0002:0000513c       ??_C@_09FGLEONFO@Instances?$AA@ 0041513c     paramtestermainwindowbase.obj
 0002:00005148       ??_C@_0ID@HJHACIMO@Select?5the?5instance?5to?5monitor?5o@ 00415148     paramtestermainwindowbase.obj
 0002:000051cc       ??_C@_0BD@GLGDFKMK@Show?5only?5slot?5?$DO?50?$AA@ 004151cc     paramtestermainwindowbase.obj
 0002:000051e0       ??_C@_0P@DMKBDLNK@Parameter?5list?$AA@ 004151e0     paramtestermainwindowbase.obj
 0002:000051f0       ??_C@_0ED@BEAGOOGC@Select?5the?5parameter?5on?5the?5curr@ 004151f0     paramtestermainwindowbase.obj
 0002:00005234       ??_C@_0BK@FLIJHGAA@Current?5instance?5location?$AA@ 00415234     paramtestermainwindowbase.obj
 0002:00005250       ??_C@_0FE@BOLOAIGB@Displays?5the?5location?0?5as?5set?5in@ 00415250     paramtestermainwindowbase.obj
 0002:000052a4       ??_C@_08KDOEBHGA@Location?$AA@ 004152a4     paramtestermainwindowbase.obj
 0002:000052b0       ??_C@_0O@NMNJJBOL@Current?5value?$AA@ 004152b0     paramtestermainwindowbase.obj
 0002:000052c0       ??_C@_0EO@KCCNDDKC@Shows?5the?5value?5of?5the?5currently@ 004152c0     paramtestermainwindowbase.obj
 0002:00005310       ??_C@_05LPIJGKJ@Value?$AA@ 00415310     paramtestermainwindowbase.obj
 0002:00005318       ??_C@_04DPEGMFKN@Slot?$AA@ 00415318     paramtestermainwindowbase.obj
 0002:00005320       ??_C@_0N@BDJDGJEM@Current?5slot?$AA@ 00415320     paramtestermainwindowbase.obj
 0002:00005330       ??_C@_0CA@NFMGAMMP@Slot?5for?5the?5current?5parameter?4?$AA@ 00415330     paramtestermainwindowbase.obj
 0002:00005350       ??_C@_0BG@CKPFLJDN@Current?5device?5number?$AA@ 00415350     paramtestermainwindowbase.obj
 0002:00005368       ??_C@_0ID@CDGHBMPL@This?5is?5the?5device?5number?5for?5th@ 00415368     paramtestermainwindowbase.obj
 0002:000053ec       ??_C@_06OIEJKIHP@Device?$AA@ 004153ec     paramtestermainwindowbase.obj
 0002:000053f4       ??_C@_09PKMAAACK@Set?5Value?$AA@ 004153f4     paramtestermainwindowbase.obj
 0002:00005400       ??_C@_0BH@FJANJLDG@List?5of?5values?5to?5set?4?$AA@ 00415400     paramtestermainwindowbase.obj
 0002:00005418       ??_C@_0EO@BKNELJDO@List?5of?5values?5avaialble?5for?5thi@ 00415418     paramtestermainwindowbase.obj
 0002:00005468       ??_C@_0N@JMLMJJBL@Manual?5Entry?$AA@ 00415468     paramtestermainwindowbase.obj
 0002:00005478       ??_C@_0BM@BACADGN@Manual?5entry?5for?5parmaeter?4?$AA@ 00415478     paramtestermainwindowbase.obj
 0002:00005498       ??_C@_0GF@CHEKNIMC@Provides?5the?5user?5the?5ability?5to@ 00415498     paramtestermainwindowbase.obj
 0002:00005500       ??_C@_02JHAOMKMA@Go?$AA@   00415500     paramtestermainwindowbase.obj
 0002:00005504       ??_C@_0CC@BAMFFDEG@Test?5Mode?6?6?6?6?6?$CILists?5need?5focus?4@ 00415504     paramtestermainwindowbase.obj
 0002:00005528       ??_C@_0BB@DDNIPADA@Enable?5test?5mode?$AA@ 00415528     paramtestermainwindowbase.obj
 0002:00005540       ??_C@_0LD@OLOCINLP@Test?5Mode?5allows?5allows?5the?5spac@ 00415540     paramtestermainwindowbase.obj
 0002:000055f4       ??_C@_02GMHACPFF@?$CFu?$AA@ 004155f4     ccLibrary_vs2013:ccClient.obj
 0002:000055fc       ??_7ccClient@@6B@          004155fc     ccLibrary_vs2013:ccClient.obj
 0002:00005600       ??_C@_0BJ@JOJMAJDN@ccClientMessageWindow_?$CFp?$AA@ 00415600     ccLibrary_vs2013:ccClient.obj
 0002:0000561c       ??_C@_0CI@HDLJCNHG@Cannot?5create?5ccClientMessageWin@ 0041561c     ccLibrary_vs2013:ccClient.obj
 0002:00005644       ??_C@_0BE@FKAJGBAE@Very?5Serious?5Error?$CB?$AA@ 00415644     ccLibrary_vs2013:ccClient.obj
 0002:00005658       ??_C@_0BL@HLDPIAEG@ccclient?5message?5window?5?$CFd?$AA@ 00415658     ccLibrary_vs2013:ccClient.obj
 0002:00005674       ??_C@_0BA@OPCDEPBM@handleShare?4dll?$AA@ 00415674     ccLibrary_vs2013:ccClient.obj
 0002:00005684       ??_C@_07OLHBNAMO@csiHwnd?$AA@ 00415684     ccLibrary_vs2013:ccClient.obj
 0002:0000568c       ??_C@_0CK@BMPKJFHD@ccClient?3?5CSI?5handle?5from?5handle@ 0041568c     ccLibrary_vs2013:ccClient.obj
 0002:000056b8       ??_C@_0DP@KMLDKLPC@ccClient?3?5REQUESTING?5CSI?5handle?5@ 004156b8     ccLibrary_vs2013:ccClient.obj
 0002:000056f8       ??_C@_0DE@GHIGEGJI@ccClient?3?5CSI?5handle?5from?5Broadc@ 004156f8     ccLibrary_vs2013:ccClient.obj
 0002:0000572c       ??_C@_0BN@DDDBHADP@?$CL?$CL?5number?5of?5databases?5is?5?$CFd?$AA@ 0041572c     ccLibrary_vs2013:ccClient.obj
 0002:0000574c       ??_C@_02JDNIPIGD@NA?$AA@   0041574c     ccLibrary_vs2013:ccClient.obj
 0002:00005750       ??_C@_02FLABHCGL@NI?$AA@   00415750     ccLibrary_vs2013:ccClient.obj
 0002:00005754       ??_C@_02LIPFKLKA@NB?$AA@   00415754     ccLibrary_vs2013:ccClient.obj
 0002:00005758       ??_C@_02PHHIKPHE@IR?$AA@   00415758     ccLibrary_vs2013:ccClient.obj
 0002:0000575c       ??_C@_02OHALODOF@RR?$AA@   0041575c     ccLibrary_vs2013:ccClient.obj
 0002:00005760       ??_C@_02PNOGICHO@GR?$AA@   00415760     ccLibrary_vs2013:ccClient.obj
 0002:00005764       ??_C@_02OLCMIILA@NS?$AA@   00415764     ccLibrary_vs2013:ccClient.obj
 0002:00005768       ??_C@_02KMHJBPDH@DC?$AA@   00415768     ccLibrary_vs2013:ccClient.obj
 0002:0000576c       ??_C@_0DG@EAEPBJGP@shim?3?5database?5modify?5index?5?$DM1?5o@ 0041576c     ccLibrary_vs2013:ccClient.obj
 0002:000057a4       ??_C@_0M@EADEFJIO@DC?5?$CFd?5?$CFd?5?$CFd?$AA@ 004157a4     ccLibrary_vs2013:ccClient.obj
 0002:000057b0       ??_C@_0BE@NOLEOGLE@RC?5?$CFd?5?$CFd?5?$CFd?5?8?$CFs?8?5?$CFd?$AA@ 004157b0     ccLibrary_vs2013:ccClient.obj
 0002:000057c4       ??_C@_0BG@HODKLCHC@Bum?5device?5query?5type?$AA@ 004157c4     ccLibrary_vs2013:ccClient.obj
 0002:000057dc       ??_C@_0BA@GBFKGHBO@?$CFcP?5?$CFd?5?$CFd?5?$CFd?5?$CFd?$AA@ 004157dc     ccLibrary_vs2013:ccClient.obj
 0002:000057ec       ??_C@_0BB@HPDMKDPM@IW?5?$CFd?5?8?$CFs?8?5?$CFd?5?$CFd?$AA@ 004157ec     ccLibrary_vs2013:ccClient.obj
 0002:00005800       ??_C@_0P@EJIMPHOB@GS?5?$CFd?5?$CFd?5?$CFd?5?$CFd?$AA@ 00415800     ccLibrary_vs2013:ccClient.obj
 0002:00005810       ??_C@_0BC@KBDMBKEH@deque?$DMT?$DO?5too?5long?$AA@ 00415810     ccLibrary_vs2013:ccClient.obj
 0002:00005824       ??_C@_02LMMGGCAJ@?3?5?$AA@ 00415824     ccLibrary_vs2013:ccCheck.obj
 0002:0000582c       ??_7ccCheck@@6B@           0041582c     ccLibrary_vs2013:ccCheck.obj
 0002:00005830       ??_C@_0CJ@PMKCGGCL@Device?5Number?5of?5out?5range?5?$CIless@ 00415830     ccLibrary_vs2013:ccCheck.obj
 0002:0000585c       ??_C@_0CL@LCKFFHKG@Device?5Number?5of?5out?5range?5?$CI?$DO?5MA@ 0041585c     ccLibrary_vs2013:ccCheck.obj
 0002:00005888       ??_C@_0CI@IGLAJDJI@Index?5Number?5of?5out?5range?5?$CIless?5@ 00415888     ccLibrary_vs2013:ccCheck.obj
 0002:000058b0       ??_C@_0CI@PMCCDFOB@Index?5Number?5of?5out?5range?5?$CI?$DO?5MAX@ 004158b0     ccLibrary_vs2013:ccCheck.obj
 0002:000058d8       ??_C@_0DC@OGFBPEGN@Source?5Number?5of?5out?5range?5?$CIless@ 004158d8     ccLibrary_vs2013:ccCheck.obj
 0002:0000590c       ??_C@_0CJ@EKBPLHLJ@Source?5Number?5of?5out?5range?5?$CI?$DO?5MA@ 0041590c     ccLibrary_vs2013:ccCheck.obj
 0002:00005938       ??_C@_0BK@BPKEILLL@Invalid?5range?5?$CIstart?$DOend?$CJ?$AA@ 00415938     ccLibrary_vs2013:ccCheck.obj
 0002:00005954       ??_C@_0BK@LPOMIHEL@Invalid?5database?5?$CI?$CFd?$DO?$DN?$CFd?$CJ?$AA@ 00415954     ccLibrary_vs2013:ccCheck.obj
 0002:00005970       ??_C@_0BM@OBNIHFBG@Note?3?5string?5?$DO?5characters?3?5?$AA@ 00415970     ccLibrary_vs2013:ccCheck.obj
 0002:0000598c       ??_C@_0CF@IABOACOB@Workstation?5number?5invalid?5?$CI?$DM?51?$CJ@ 0041598c     ccLibrary_vs2013:ccCheck.obj
 0002:000059b4       ??_C@_0DE@NBJHIANK@Workstation?5number?5invalid?5?$CI?$DO?5MA@ 004159b4     ccLibrary_vs2013:ccCheck.obj
 0002:000059e8       ??_C@_02DPKJAMEF@?$CFd?$AA@ 004159e8     ccLibrary_vs2013:ccConfig.obj
 0002:000059ec       ??_C@_01KICIPPFI@?2?$AA@   004159ec     ccLibrary_vs2013:ccConfig.obj
 0002:000059f0       ??_C@_07IOFNEBNE@?2config?$AA@ 004159f0     ccLibrary_vs2013:ccConfig.obj
 0002:000059f8       ??_C@_0BD@FFAKGAPP@c?3?2bncs_config?4ini?$AA@ 004159f8     ccLibrary_vs2013:ccConfig.obj
 0002:00005a0c       ??_C@_0L@DHJBNFFA@ConfigPath?$AA@ 00415a0c     ccLibrary_vs2013:ccConfig.obj
 0002:00005a18       ??_C@_06LLCHJONG@Config?$AA@ 00415a18     ccLibrary_vs2013:ccConfig.obj
 0002:00005a20       ??_C@_06KIMFAMMH@WINDIR?$AA@ 00415a20     ccLibrary_vs2013:ccConfig.obj
 0002:00005a28       ??_C@_0P@PKHJHOPF@CC_WORKSTATION?$AA@ 00415a28     ccLibrary_vs2013:ccConfig.obj
 0002:00005a38       ??_C@_0M@CILGCIDH@Workstation?$AA@ 00415a38     ccLibrary_vs2013:ccConfig.obj
 0002:00005a44       ??_C@_07BGDMAJAE@Network?$AA@ 00415a44     ccLibrary_vs2013:ccConfig.obj
 0002:00005a4c       ??_C@_0BO@GPPILLIC@config?2system?2bncs_system?4ini?$AA@ 00415a4c     ccLibrary_vs2013:ccConfig.obj
 0002:00005a6c       ??_C@_07PIGLAMMC@csi?4ini?$AA@ 00415a6c     ccLibrary_vs2013:ccConfig.obj
 0002:00005a74       ??_C@_06JIODDOFH@System?$AA@ 00415a74     ccLibrary_vs2013:ccConfig.obj
 0002:00005a7c       ??_C@_0N@LDBPMCOK@applcore?4ini?$AA@ 00415a7c     ccLibrary_vs2013:ccConfig.obj
 0002:00005a90       ??_7cBncsVersion@@6B@      00415a90     BncsVersionInfo:cBncsVersion.obj
 0002:00005a94       ??_C@_0BJ@KPNNKBCP@?2VarFileInfo?2Translation?$AA@ 00415a94     BncsVersionInfo:cBncsVersion.obj
 0002:00005ab0       ??_C@_08EAKGLGNO@?$CF04X?$CF04X?$AA@ 00415ab0     BncsVersionInfo:cBncsVersion.obj
 0002:00005abc       ??_C@_0BP@OKGDDKKJ@?2StringFileInfo?2?$CFs?2FileVersion?$AA@ 00415abc     BncsVersionInfo:cBncsVersion.obj
 0002:00005adc       ??_C@_0CD@DNOFBAPJ@?2StringFileInfo?2?$CFs?2FileDescripti@ 00415adc     BncsVersionInfo:cBncsVersion.obj
 0002:00005b00       ??_C@_0BM@HLKDAPDC@?2StringFileInfo?2?$CFs?2Comments?$AA@ 00415b00     BncsVersionInfo:cBncsVersion.obj
 0002:00005b1c       ??_C@_0CA@EHAODNDK@?2StringFileInfo?2?$CFs?2InternalName?$AA@ 00415b1c     BncsVersionInfo:cBncsVersion.obj
 0002:00005b3c       ??_C@_0BP@MGNIHEJF@?2StringFileInfo?2?$CFs?2ProductName?$AA@ 00415b3c     BncsVersionInfo:cBncsVersion.obj
 0002:00005b5c       ??_C@_0BP@IFNEMNK@?2StringFileInfo?2?$CFs?2CompanyName?$AA@ 00415b5c     BncsVersionInfo:cBncsVersion.obj
 0002:00005b7c       ??_C@_0CC@BENIJKPI@?2StringFileInfo?2?$CFs?2LegalCopyrigh@ 00415b7c     BncsVersionInfo:cBncsVersion.obj
 0002:00005ba0       ??_C@_0CC@IAGJDCJF@?2StringFileInfo?2?$CFs?2ProductVersio@ 00415ba0     BncsVersionInfo:cBncsVersion.obj
 0002:00005bc4       ??_C@_0CD@CHCCGCCP@?2StringFileInfo?2?$CFs?2LegalTradeMar@ 00415bc4     BncsVersionInfo:cBncsVersion.obj
 0002:00005be8       ??_C@_0CA@GODGGLFO@?2StringFileInfo?2?$CFs?2PrivateBuild?$AA@ 00415be8     BncsVersionInfo:cBncsVersion.obj
 0002:00005c08       ??_C@_0CE@NLHFPOLE@?2StringFileInfo?2?$CFs?2OriginalFileN@ 00415c08     BncsVersionInfo:cBncsVersion.obj
 0002:00005c2c       ??_C@_0CA@OOEBJJOA@?2StringFileInfo?2?$CFs?2SpecialBuild?$AA@ 00415c2c     BncsVersionInfo:cBncsVersion.obj
 0002:00005c50       ??_7decodeBNCSString@@6B@  00415c50     decodecaptionstring:decodeBNCSString.obj
 0002:00005c58       ??_7type_info@@6B@         00415c58     MSVCRT:ti_inst.obj
 0002:00005c64       ??_C@_05CLMJGDKL@?$CF08lx?$AA@ 00415c64     bncswm32:BncsWM32.obj
 0002:00005c6c       ??_7?$QMemArray@PAD@@6B@   00415c6c     qtmain:qtmain_win.obj
 0002:00005c80       __load_config_used         00415c80     MSVCRT:loadcfg.obj
 0002:00005cc8       ??_R4error_category@std@@6B@ 00415cc8     main.obj
 0002:00005cdc       ??_R3error_category@std@@8 00415cdc     main.obj
 0002:00005cec       ??_R2error_category@std@@8 00415cec     main.obj
 0002:00005cf4       ??_R1A@?0A@EA@error_category@std@@8 00415cf4     main.obj
 0002:00005d10       ??_R4_Generic_error_category@std@@6B@ 00415d10     main.obj
 0002:00005d24       ??_R3_Generic_error_category@std@@8 00415d24     main.obj
 0002:00005d34       ??_R2_Generic_error_category@std@@8 00415d34     main.obj
 0002:00005d40       ??_R1A@?0A@EA@_Generic_error_category@std@@8 00415d40     main.obj
 0002:00005d5c       ??_R4_Iostream_error_category@std@@6B@ 00415d5c     main.obj
 0002:00005d70       ??_R3_Iostream_error_category@std@@8 00415d70     main.obj
 0002:00005d80       ??_R2_Iostream_error_category@std@@8 00415d80     main.obj
 0002:00005d90       ??_R1A@?0A@EA@_Iostream_error_category@std@@8 00415d90     main.obj
 0002:00005dac       ??_R4_System_error_category@std@@6B@ 00415dac     main.obj
 0002:00005dc0       ??_R3_System_error_category@std@@8 00415dc0     main.obj
 0002:00005dd0       ??_R2_System_error_category@std@@8 00415dd0     main.obj
 0002:00005de0       ??_R1A@?0A@EA@_System_error_category@std@@8 00415de0     main.obj
 0002:00005dfc       ??_R4myListViewItem@@6B@   00415dfc     myListViewItem.obj
 0002:00005e10       ??_R3myListViewItem@@8     00415e10     myListViewItem.obj
 0002:00005e20       ??_R2myListViewItem@@8     00415e20     myListViewItem.obj
 0002:00005e30       ??_R1A@?0A@EA@myListViewItem@@8 00415e30     myListViewItem.obj
 0002:00005e4c       ??_R1A@?0A@EA@QListViewItem@@8 00415e4c     myListViewItem.obj
 0002:00005e68       ??_R3QListViewItem@@8      00415e68     myListViewItem.obj
 0002:00005e78       ??_R2QListViewItem@@8      00415e78     myListViewItem.obj
 0002:00005e84       ??_R13?0A@EA@Qt@@8         00415e84     myListViewItem.obj
 0002:00005ea0       ??_R3Qt@@8                 00415ea0     myListViewItem.obj
 0002:00005eb0       ??_R2Qt@@8                 00415eb0     myListViewItem.obj
 0002:00005eb8       ??_R1A@?0A@EA@Qt@@8        00415eb8     myListViewItem.obj
 0002:00005ed4       ??_R1A@?0A@EA@QGList@@8    00415ed4     paramtestermainwindow.obj
 0002:00005ef0       ??_R3QGList@@8             00415ef0     paramtestermainwindow.obj
 0002:00005f00       ??_R2QGList@@8             00415f00     paramtestermainwindow.obj
 0002:00005f0c       ??_R1A@?0A@EA@QPtrCollection@@8 00415f0c     paramtestermainwindow.obj
 0002:00005f28       ??_R3QPtrCollection@@8     00415f28     paramtestermainwindow.obj
 0002:00005f38       ??_R2QPtrCollection@@8     00415f38     paramtestermainwindow.obj
 0002:00005f40       ??_R4QMenuBar@@6BQObject@@@ 00415f40     paramtestermainwindow.obj
 0002:00005f54       ??_R3QMenuBar@@8           00415f54     paramtestermainwindow.obj
 0002:00005f64       ??_R2QMenuBar@@8           00415f64     paramtestermainwindow.obj
 0002:00005f84       ??_R1A@?0A@EA@QMenuBar@@8  00415f84     paramtestermainwindow.obj
 0002:00005fa0       ??_R1A@?0A@EA@QFrame@@8    00415fa0     paramtestermainwindow.obj
 0002:00005fbc       ??_R3QFrame@@8             00415fbc     paramtestermainwindow.obj
 0002:00005fcc       ??_R2QFrame@@8             00415fcc     paramtestermainwindow.obj
 0002:00005fe4       ??_R1A@?0A@EA@QWidget@@8   00415fe4     paramtestermainwindow.obj
 0002:00006000       ??_R3QWidget@@8            00416000     paramtestermainwindow.obj
 0002:00006010       ??_R2QWidget@@8            00416010     paramtestermainwindow.obj
 0002:00006024       ??_R1A@?0A@EA@QObject@@8   00416024     paramtestermainwindow.obj
 0002:00006040       ??_R3QObject@@8            00416040     paramtestermainwindow.obj
 0002:00006050       ??_R2QObject@@8            00416050     paramtestermainwindow.obj
 0002:0000605c       ??_R1CI@?0A@EA@QPaintDevice@@8 0041605c     paramtestermainwindow.obj
 0002:00006078       ??_R3QPaintDevice@@8       00416078     paramtestermainwindow.obj
 0002:00006088       ??_R2QPaintDevice@@8       00416088     paramtestermainwindow.obj
 0002:00006090       ??_R1A@?0A@EA@QPaintDevice@@8 00416090     paramtestermainwindow.obj
 0002:000060ac       ??_R1IM@?0A@EA@QMenuData@@8 004160ac     paramtestermainwindow.obj
 0002:000060c8       ??_R3QMenuData@@8          004160c8     paramtestermainwindow.obj
 0002:000060d8       ??_R2QMenuData@@8          004160d8     paramtestermainwindow.obj
 0002:000060e0       ??_R1A@?0A@EA@QMenuData@@8 004160e0     paramtestermainwindow.obj
 0002:000060fc       ??_R4QMenuBar@@6BQPaintDevice@@@ 004160fc     paramtestermainwindow.obj
 0002:00006110       ??_R4QMenuBar@@6B@         00416110     paramtestermainwindow.obj
 0002:00006124       ??_R4QPopupMenu@@6BQObject@@@ 00416124     paramtestermainwindow.obj
 0002:00006138       ??_R3QPopupMenu@@8         00416138     paramtestermainwindow.obj
 0002:00006148       ??_R2QPopupMenu@@8         00416148     paramtestermainwindow.obj
 0002:00006168       ??_R1A@?0A@EA@QPopupMenu@@8 00416168     paramtestermainwindow.obj
 0002:00006184       ??_R4QPopupMenu@@6BQPaintDevice@@@ 00416184     paramtestermainwindow.obj
 0002:00006198       ??_R4QPopupMenu@@6B@       00416198     paramtestermainwindow.obj
 0002:000061ac       ??_R4QPushButton@@6BQObject@@@ 004161ac     paramtestermainwindow.obj
 0002:000061c0       ??_R3QPushButton@@8        004161c0     paramtestermainwindow.obj
 0002:000061d0       ??_R2QPushButton@@8        004161d0     paramtestermainwindow.obj
 0002:000061ec       ??_R1A@?0A@EA@QPushButton@@8 004161ec     paramtestermainwindow.obj
 0002:00006208       ??_R1A@?0A@EA@QButton@@8   00416208     paramtestermainwindow.obj
 0002:00006224       ??_R3QButton@@8            00416224     paramtestermainwindow.obj
 0002:00006234       ??_R2QButton@@8            00416234     paramtestermainwindow.obj
 0002:0000624c       ??_R4QPushButton@@6BQPaintDevice@@@ 0041624c     paramtestermainwindow.obj
 0002:00006260       ??_R4QDomElement@@6B@      00416260     paramtestermainwindow.obj
 0002:00006274       ??_R3QDomElement@@8        00416274     paramtestermainwindow.obj
 0002:00006284       ??_R2QDomElement@@8        00416284     paramtestermainwindow.obj
 0002:00006290       ??_R1A@?0A@EA@QDomElement@@8 00416290     paramtestermainwindow.obj
 0002:000062ac       ??_R1A@?0A@EA@QDomNode@@8  004162ac     paramtestermainwindow.obj
 0002:000062c8       ??_R3QDomNode@@8           004162c8     paramtestermainwindow.obj
 0002:000062d8       ??_R2QDomNode@@8           004162d8     paramtestermainwindow.obj
 0002:000062e0       ??_R4IccClientCallback@@6B@ 004162e0     paramtestermainwindow.obj
 0002:000062f4       ??_R3IccClientCallback@@8  004162f4     paramtestermainwindow.obj
 0002:00006304       ??_R2IccClientCallback@@8  00416304     paramtestermainwindow.obj
 0002:0000630c       ??_R1A@?0A@EA@IccClientCallback@@8 0041630c     paramtestermainwindow.obj
 0002:00006328       ??_R4ParamTesterMainWindow@@6BQObject@@@ 00416328     paramtestermainwindow.obj
 0002:0000633c       ??_R3ParamTesterMainWindow@@8 0041633c     paramtestermainwindow.obj
 0002:0000634c       ??_R2ParamTesterMainWindow@@8 0041634c     paramtestermainwindow.obj
 0002:00006370       ??_R1A@?0A@EA@ParamTesterMainWindow@@8 00416370     paramtestermainwindow.obj
 0002:0000638c       ??_R1A@?0A@EA@ParamTesterMainWindowBase@@8 0041638c     paramtestermainwindow.obj
 0002:000063a8       ??_R3ParamTesterMainWindowBase@@8 004163a8     paramtestermainwindow.obj
 0002:000063b8       ??_R2ParamTesterMainWindowBase@@8 004163b8     paramtestermainwindow.obj
 0002:000063d4       ??_R1A@?0A@EA@QMainWindow@@8 004163d4     paramtestermainwindow.obj
 0002:000063f0       ??_R3QMainWindow@@8        004163f0     paramtestermainwindow.obj
 0002:00006400       ??_R2QMainWindow@@8        00416400     paramtestermainwindow.obj
 0002:00006418       ??_R1OI@?0A@EN@IccClientCallback@@8 00416418     paramtestermainwindow.obj
 0002:00006434       ??_R4ParamTesterMainWindow@@6BQPaintDevice@@@ 00416434     paramtestermainwindow.obj
 0002:00006448       ??_R4ParamTesterMainWindow@@6B@ 00416448     paramtestermainwindow.obj
 0002:0000645c       ??_R4?$QPtrList@VQPushButton@@@@6B@ 0041645c     paramtestermainwindow.obj
 0002:00006470       ??_R3?$QPtrList@VQPushButton@@@@8 00416470     paramtestermainwindow.obj
 0002:00006480       ??_R2?$QPtrList@VQPushButton@@@@8 00416480     paramtestermainwindow.obj
 0002:00006490       ??_R1A@?0A@EA@?$QPtrList@VQPushButton@@@@8 00416490     paramtestermainwindow.obj
 0002:000064ac       ??_R4QProgressDialog@@6BQObject@@@ 004164ac     paramtestermainwindow.obj
 0002:000064c0       ??_R3QProgressDialog@@8    004164c0     paramtestermainwindow.obj
 0002:000064d0       ??_R2QProgressDialog@@8    004164d0     paramtestermainwindow.obj
 0002:000064ec       ??_R1A@?0A@EA@QProgressDialog@@8 004164ec     paramtestermainwindow.obj
 0002:00006508       ??_R1A@?0A@EA@QDialog@@8   00416508     paramtestermainwindow.obj
 0002:00006524       ??_R3QDialog@@8            00416524     paramtestermainwindow.obj
 0002:00006534       ??_R2QDialog@@8            00416534     paramtestermainwindow.obj
 0002:0000654c       ??_R4QProgressDialog@@6BQPaintDevice@@@ 0041654c     paramtestermainwindow.obj
 0002:00006560       ??_R4QWidget@@6BQObject@@@ 00416560     paramtestermainwindowbase.obj
 0002:00006574       ??_R4QWidget@@6BQPaintDevice@@@ 00416574     paramtestermainwindowbase.obj
 0002:00006588       ??_R4QHBoxLayout@@6BQObject@@@ 00416588     paramtestermainwindowbase.obj
 0002:0000659c       ??_R3QHBoxLayout@@8        0041659c     paramtestermainwindowbase.obj
 0002:000065ac       ??_R2QHBoxLayout@@8        004165ac     paramtestermainwindowbase.obj
 0002:000065c8       ??_R1A@?0A@EA@QHBoxLayout@@8 004165c8     paramtestermainwindowbase.obj
 0002:000065e4       ??_R1A@?0A@EA@QBoxLayout@@8 004165e4     paramtestermainwindowbase.obj
 0002:00006600       ??_R3QBoxLayout@@8         00416600     paramtestermainwindowbase.obj
 0002:00006610       ??_R2QBoxLayout@@8         00416610     paramtestermainwindowbase.obj
 0002:00006628       ??_R1A@?0A@EA@QLayout@@8   00416628     paramtestermainwindowbase.obj
 0002:00006644       ??_R3QLayout@@8            00416644     paramtestermainwindowbase.obj
 0002:00006654       ??_R2QLayout@@8            00416654     paramtestermainwindowbase.obj
 0002:00006668       ??_R1CI@?0A@EA@QLayoutItem@@8 00416668     paramtestermainwindowbase.obj
 0002:00006684       ??_R3QLayoutItem@@8        00416684     paramtestermainwindowbase.obj
 0002:00006694       ??_R2QLayoutItem@@8        00416694     paramtestermainwindowbase.obj
 0002:0000669c       ??_R1A@?0A@EA@QLayoutItem@@8 0041669c     paramtestermainwindowbase.obj
 0002:000066b8       ??_R4QHBoxLayout@@6BQLayoutItem@@@ 004166b8     paramtestermainwindowbase.obj
 0002:000066cc       ??_R4QVBoxLayout@@6BQObject@@@ 004166cc     paramtestermainwindowbase.obj
 0002:000066e0       ??_R3QVBoxLayout@@8        004166e0     paramtestermainwindowbase.obj
 0002:000066f0       ??_R2QVBoxLayout@@8        004166f0     paramtestermainwindowbase.obj
 0002:0000670c       ??_R1A@?0A@EA@QVBoxLayout@@8 0041670c     paramtestermainwindowbase.obj
 0002:00006728       ??_R4QVBoxLayout@@6BQLayoutItem@@@ 00416728     paramtestermainwindowbase.obj
 0002:0000673c       ??_R4QGridLayout@@6BQObject@@@ 0041673c     paramtestermainwindowbase.obj
 0002:00006750       ??_R3QGridLayout@@8        00416750     paramtestermainwindowbase.obj
 0002:00006760       ??_R2QGridLayout@@8        00416760     paramtestermainwindowbase.obj
 0002:00006778       ??_R1A@?0A@EA@QGridLayout@@8 00416778     paramtestermainwindowbase.obj
 0002:00006794       ??_R4QGridLayout@@6BQLayoutItem@@@ 00416794     paramtestermainwindowbase.obj
 0002:000067a8       ??_R4QSplitter@@6BQObject@@@ 004167a8     paramtestermainwindowbase.obj
 0002:000067bc       ??_R3QSplitter@@8          004167bc     paramtestermainwindowbase.obj
 0002:000067cc       ??_R2QSplitter@@8          004167cc     paramtestermainwindowbase.obj
 0002:000067e8       ??_R1A@?0A@EA@QSplitter@@8 004167e8     paramtestermainwindowbase.obj
 0002:00006804       ??_R4QSplitter@@6BQPaintDevice@@@ 00416804     paramtestermainwindowbase.obj
 0002:00006818       ??_R4QLabel@@6BQObject@@@  00416818     paramtestermainwindowbase.obj
 0002:0000682c       ??_R3QLabel@@8             0041682c     paramtestermainwindowbase.obj
 0002:0000683c       ??_R2QLabel@@8             0041683c     paramtestermainwindowbase.obj
 0002:00006858       ??_R1A@?0A@EA@QLabel@@8    00416858     paramtestermainwindowbase.obj
 0002:00006874       ??_R4QLabel@@6BQPaintDevice@@@ 00416874     paramtestermainwindowbase.obj
 0002:00006888       ??_R4QComboBox@@6BQObject@@@ 00416888     paramtestermainwindowbase.obj
 0002:0000689c       ??_R3QComboBox@@8          0041689c     paramtestermainwindowbase.obj
 0002:000068ac       ??_R2QComboBox@@8          004168ac     paramtestermainwindowbase.obj
 0002:000068c4       ??_R1A@?0A@EA@QComboBox@@8 004168c4     paramtestermainwindowbase.obj
 0002:000068e0       ??_R4QComboBox@@6BQPaintDevice@@@ 004168e0     paramtestermainwindowbase.obj
 0002:000068f4       ??_R4QListView@@6BQObject@@@ 004168f4     paramtestermainwindowbase.obj
 0002:00006908       ??_R3QListView@@8          00416908     paramtestermainwindowbase.obj
 0002:00006918       ??_R2QListView@@8          00416918     paramtestermainwindowbase.obj
 0002:00006938       ??_R1A@?0A@EA@QListView@@8 00416938     paramtestermainwindowbase.obj
 0002:00006954       ??_R1A@?0A@EA@QScrollView@@8 00416954     paramtestermainwindowbase.obj
 0002:00006970       ??_R3QScrollView@@8        00416970     paramtestermainwindowbase.obj
 0002:00006980       ??_R2QScrollView@@8        00416980     paramtestermainwindowbase.obj
 0002:0000699c       ??_R4QListView@@6BQPaintDevice@@@ 0041699c     paramtestermainwindowbase.obj
 0002:000069b0       ??_R4QCheckBox@@6BQObject@@@ 004169b0     paramtestermainwindowbase.obj
 0002:000069c4       ??_R3QCheckBox@@8          004169c4     paramtestermainwindowbase.obj
 0002:000069d4       ??_R2QCheckBox@@8          004169d4     paramtestermainwindowbase.obj
 0002:000069f0       ??_R1A@?0A@EA@QCheckBox@@8 004169f0     paramtestermainwindowbase.obj
 0002:00006a0c       ??_R4QCheckBox@@6BQPaintDevice@@@ 00416a0c     paramtestermainwindowbase.obj
 0002:00006a20       ??_R4QGroupBox@@6BQObject@@@ 00416a20     paramtestermainwindowbase.obj
 0002:00006a34       ??_R3QGroupBox@@8          00416a34     paramtestermainwindowbase.obj
 0002:00006a44       ??_R2QGroupBox@@8          00416a44     paramtestermainwindowbase.obj
 0002:00006a60       ??_R1A@?0A@EA@QGroupBox@@8 00416a60     paramtestermainwindowbase.obj
 0002:00006a7c       ??_R4QGroupBox@@6BQPaintDevice@@@ 00416a7c     paramtestermainwindowbase.obj
 0002:00006a90       ??_R4QButtonGroup@@6BQObject@@@ 00416a90     paramtestermainwindowbase.obj
 0002:00006aa4       ??_R3QButtonGroup@@8       00416aa4     paramtestermainwindowbase.obj
 0002:00006ab4       ??_R2QButtonGroup@@8       00416ab4     paramtestermainwindowbase.obj
 0002:00006ad4       ??_R1A@?0A@EA@QButtonGroup@@8 00416ad4     paramtestermainwindowbase.obj
 0002:00006af0       ??_R4QButtonGroup@@6BQPaintDevice@@@ 00416af0     paramtestermainwindowbase.obj
 0002:00006b04       ??_R4QLineEdit@@6BQObject@@@ 00416b04     paramtestermainwindowbase.obj
 0002:00006b18       ??_R3QLineEdit@@8          00416b18     paramtestermainwindowbase.obj
 0002:00006b28       ??_R2QLineEdit@@8          00416b28     paramtestermainwindowbase.obj
 0002:00006b44       ??_R1A@?0A@EA@QLineEdit@@8 00416b44     paramtestermainwindowbase.obj
 0002:00006b60       ??_R4QLineEdit@@6BQPaintDevice@@@ 00416b60     paramtestermainwindowbase.obj
 0002:00006b74       ??_R4ParamTesterMainWindowBase@@6BQObject@@@ 00416b74     paramtestermainwindowbase.obj
 0002:00006b88       ??_R4ParamTesterMainWindowBase@@6BQPaintDevice@@@ 00416b88     paramtestermainwindowbase.obj
 0002:00006b9c       ??_R4QSpacerItem@@6B@      00416b9c     paramtestermainwindowbase.obj
 0002:00006bb0       ??_R3QSpacerItem@@8        00416bb0     paramtestermainwindowbase.obj
 0002:00006bc0       ??_R2QSpacerItem@@8        00416bc0     paramtestermainwindowbase.obj
 0002:00006bcc       ??_R1A@?0A@EA@QSpacerItem@@8 00416bcc     paramtestermainwindowbase.obj
 0002:00006be8       ??_R4ccClient@@6B@         00416be8     ccLibrary_vs2013:ccClient.obj
 0002:00006bfc       ??_R3ccClient@@8           00416bfc     ccLibrary_vs2013:ccClient.obj
 0002:00006c0c       ??_R2ccClient@@8           00416c0c     ccLibrary_vs2013:ccClient.obj
 0002:00006c18       ??_R1A@?0A@EA@ccClient@@8  00416c18     ccLibrary_vs2013:ccClient.obj
 0002:00006c34       ??_R1A@?0A@EA@ccCheck@@8   00416c34     ccLibrary_vs2013:ccClient.obj
 0002:00006c50       ??_R3ccCheck@@8            00416c50     ccLibrary_vs2013:ccClient.obj
 0002:00006c60       ??_R2ccCheck@@8            00416c60     ccLibrary_vs2013:ccClient.obj
 0002:00006c68       ??_R4ccCheck@@6B@          00416c68     ccLibrary_vs2013:ccCheck.obj
 0002:00006c7c       ??_R4cBncsVersion@@6B@     00416c7c     BncsVersionInfo:cBncsVersion.obj
 0002:00006c90       ??_R3cBncsVersion@@8       00416c90     BncsVersionInfo:cBncsVersion.obj
 0002:00006ca0       ??_R2cBncsVersion@@8       00416ca0     BncsVersionInfo:cBncsVersion.obj
 0002:00006ca8       ??_R1A@?0A@EA@cBncsVersion@@8 00416ca8     BncsVersionInfo:cBncsVersion.obj
 0002:00006cc4       ??_R4decodeBNCSString@@6B@ 00416cc4     decodecaptionstring:decodeBNCSString.obj
 0002:00006cd8       ??_R3decodeBNCSString@@8   00416cd8     decodecaptionstring:decodeBNCSString.obj
 0002:00006ce8       ??_R2decodeBNCSString@@8   00416ce8     decodecaptionstring:decodeBNCSString.obj
 0002:00006cf0       ??_R1A@?0A@EA@decodeBNCSString@@8 00416cf0     decodecaptionstring:decodeBNCSString.obj
 0002:00006d0c       ??_R4type_info@@6B@        00416d0c     MSVCRT:ti_inst.obj
 0002:00006d20       ??_R3type_info@@8          00416d20     MSVCRT:ti_inst.obj
 0002:00006d30       ??_R2type_info@@8          00416d30     MSVCRT:ti_inst.obj
 0002:00006d38       ??_R1A@?0A@EA@type_info@@8 00416d38     MSVCRT:ti_inst.obj
 0002:00006d54       ___rtc_iaa                 00416d54     MSVCRT:initsect.obj
 0002:00006d58       ___rtc_izz                 00416d58     MSVCRT:initsect.obj
 0002:00006d5c       ___rtc_taa                 00416d5c     MSVCRT:initsect.obj
 0002:00006d60       ___rtc_tzz                 00416d60     MSVCRT:initsect.obj
 0002:0000820c       __IMPORT_DESCRIPTOR_bncs_string 0041820c     bncs_string:bncs_string.dll
 0002:00008220       __IMPORT_DESCRIPTOR_bncs_config 00418220     bncs_config:bncs_config.dll
 0002:00008234       __IMPORT_DESCRIPTOR_qt-mt323 00418234     qt-mt323:qt-mt323.dll
 0002:00008248       __IMPORT_DESCRIPTOR_BNCSIF32 00418248     bncsif32:BNCSIF32.dll
 0002:0000825c       __IMPORT_DESCRIPTOR_KERNEL32 0041825c     kernel32:KERNEL32.dll
 0002:00008270       __IMPORT_DESCRIPTOR_USER32 00418270     user32:USER32.dll
 0002:00008284       __IMPORT_DESCRIPTOR_MSVCP120 00418284     msvcprt:MSVCP120.dll
 0002:00008298       __IMPORT_DESCRIPTOR_MSVCR120 00418298     MSVCRT:MSVCR120.dll
 0002:000082ac       __IMPORT_DESCRIPTOR_VERSION 004182ac     version:VERSION.dll
 0002:000082c0       __NULL_IMPORT_DESCRIPTOR   004182c0     bncs_string:bncs_string.dll
 0003:00000000       ?_Generic_object@?$_Error_objects@H@std@@2V_Generic_error_category@2@A 00423000     main.obj
 0003:00000004       ?_Iostream_object@?$_Error_objects@H@std@@2V_Iostream_error_category@2@A 00423004     main.obj
 0003:00000008       ?_System_object@?$_Error_objects@H@std@@2V_System_error_category@2@A 00423008     main.obj
 0003:00000410       ___security_cookie         00423410     MSVCRT:gs_cookie.obj
 0003:00000414       ___security_cookie_complement 00423414     MSVCRT:gs_cookie.obj
 0003:00000420       ___defaultmatherr          00423420     MSVCRT:merr.obj
 0003:00000424       ___globallocalestatus      00423424     MSVCRT:xthdloc.obj
 0003:00000428       ___native_dllmain_reason   00423428     MSVCRT:natstart.obj
 0003:00000484       ??_R0?AVerror_category@std@@@8 00423484     main.obj
 0003:000004a8       ??_R0?AV_Generic_error_category@std@@@8 004234a8     main.obj
 0003:000004d4       ??_R0?AV_Iostream_error_category@std@@@8 004234d4     main.obj
 0003:00000500       ??_R0?AV_System_error_category@std@@@8 00423500     main.obj
 0003:0000052c       ??_R0?AVmyListViewItem@@@8 0042352c     myListViewItem.obj
 0003:0000054c       ??_R0?AVQListViewItem@@@8  0042354c     myListViewItem.obj
 0003:00000568       ??_R0?AVQt@@@8             00423568     myListViewItem.obj
 0003:0000057c       ??_R0?AVQGList@@@8         0042357c     paramtestermainwindow.obj
 0003:00000594       ??_R0?AVQPtrCollection@@@8 00423594     paramtestermainwindow.obj
 0003:000005b4       ??_R0?AVQMenuBar@@@8       004235b4     paramtestermainwindow.obj
 0003:000005cc       ??_R0?AVQFrame@@@8         004235cc     paramtestermainwindow.obj
 0003:000005e4       ??_R0?AVQWidget@@@8        004235e4     paramtestermainwindow.obj
 0003:000005fc       ??_R0?AVQObject@@@8        004235fc     paramtestermainwindow.obj
 0003:00000614       ??_R0?AVQPaintDevice@@@8   00423614     paramtestermainwindow.obj
 0003:00000630       ??_R0?AVQMenuData@@@8      00423630     paramtestermainwindow.obj
 0003:00000648       ??_R0?AVQPopupMenu@@@8     00423648     paramtestermainwindow.obj
 0003:00000664       ??_R0?AVQPushButton@@@8    00423664     paramtestermainwindow.obj
 0003:00000680       ??_R0?AVQButton@@@8        00423680     paramtestermainwindow.obj
 0003:00000698       ??_R0?AVQDomElement@@@8    00423698     paramtestermainwindow.obj
 0003:000006b4       ??_R0?AVQDomNode@@@8       004236b4     paramtestermainwindow.obj
 0003:000006cc       ??_R0?AVIccClientCallback@@@8 004236cc     paramtestermainwindow.obj
 0003:000006ec       ??_R0?AVParamTesterMainWindow@@@8 004236ec     paramtestermainwindow.obj
 0003:00000710       ??_R0?AVParamTesterMainWindowBase@@@8 00423710     paramtestermainwindow.obj
 0003:00000738       ??_R0?AVQMainWindow@@@8    00423738     paramtestermainwindow.obj
 0003:00000754       ??_R0?AV?$QPtrList@VQPushButton@@@@@8 00423754     paramtestermainwindow.obj
 0003:0000077c       ??_R0?AVQProgressDialog@@@8 0042377c     paramtestermainwindow.obj
 0003:0000079c       ??_R0?AVQDialog@@@8        0042379c     paramtestermainwindow.obj
 0003:000007b4       ??_R0?AVQHBoxLayout@@@8    004237b4     paramtestermainwindowbase.obj
 0003:000007d0       ??_R0?AVQBoxLayout@@@8     004237d0     paramtestermainwindowbase.obj
 0003:000007ec       ??_R0?AVQLayout@@@8        004237ec     paramtestermainwindowbase.obj
 0003:00000804       ??_R0?AVQLayoutItem@@@8    00423804     paramtestermainwindowbase.obj
 0003:00000820       ??_R0?AVQVBoxLayout@@@8    00423820     paramtestermainwindowbase.obj
 0003:0000083c       ??_R0?AVQGridLayout@@@8    0042383c     paramtestermainwindowbase.obj
 0003:00000858       ??_R0?AVQSplitter@@@8      00423858     paramtestermainwindowbase.obj
 0003:00000870       ??_R0?AVQLabel@@@8         00423870     paramtestermainwindowbase.obj
 0003:00000888       ??_R0?AVQComboBox@@@8      00423888     paramtestermainwindowbase.obj
 0003:000008a0       ??_R0?AVQListView@@@8      004238a0     paramtestermainwindowbase.obj
 0003:000008b8       ??_R0?AVQScrollView@@@8    004238b8     paramtestermainwindowbase.obj
 0003:000008d4       ??_R0?AVQCheckBox@@@8      004238d4     paramtestermainwindowbase.obj
 0003:000008ec       ??_R0?AVQGroupBox@@@8      004238ec     paramtestermainwindowbase.obj
 0003:00000904       ??_R0?AVQButtonGroup@@@8   00423904     paramtestermainwindowbase.obj
 0003:00000920       ??_R0?AVQLineEdit@@@8      00423920     paramtestermainwindowbase.obj
 0003:00000938       ??_R0?AVQSpacerItem@@@8    00423938     paramtestermainwindowbase.obj
 0003:00000954       ??_R0?AVccClient@@@8       00423954     ccLibrary_vs2013:ccClient.obj
 0003:0000096c       ??_R0?AVccCheck@@@8        0042396c     ccLibrary_vs2013:ccClient.obj
 0003:00000984       ??_R0?AVcBncsVersion@@@8   00423984     BncsVersionInfo:cBncsVersion.obj
 0003:000009a0       ??_R0?AVdecodeBNCSString@@@8 004239a0     decodecaptionstring:decodeBNCSString.obj
 0003:000009c0       ??_R0?AVtype_info@@@8      004239c0     MSVCRT:ti_inst.obj
 0003:000009dc       ?id@?$num_put@DV?$back_insert_iterator@V?$basic_string@DU?$char_traits@D@std@@V?$allocator@D@2@@std@@@std@@@std@@2V0locale@2@A 004239dc     main.obj
 0003:000009e0       ?id@?$num_put@_WV?$back_insert_iterator@V?$basic_string@_WU?$char_traits@_W@std@@V?$allocator@_W@2@@std@@@std@@@std@@2V0locale@2@A 004239e0     main.obj
 0003:000009e8       ?metaObj@ParamTesterMainWindow@@0PAVQMetaObject@@A 004239e8     moc_paramtestermainwindow.obj
 0003:00000a38       ?metaObj@ParamTesterMainWindowBase@@0PAVQMetaObject@@A 00423a38     moc_paramtestermainwindowbase.obj
 0003:00000d90       __commode                  00423d90     MSVCRT:xncommod.obj
 0003:00000d94       __dowildcard               00423d94     MSVCRT:wildcard.obj
 0003:00000d98       __newmode                  00423d98     MSVCRT:_newmode.obj
 0003:00000d9c       __fmode                    00423d9c     MSVCRT:xtxtmode.obj
 0003:00000fd8       ___native_startup_lock     00423fd8     <common>
 0003:00000fdc       ___native_startup_state    00423fdc     <common>
 0003:00000fe0       ___dyn_tls_init_callback   00423fe0     <common>
 0003:00000fe4       ___onexitend               00423fe4     <common>
 0003:00000fe8       ___onexitbegin             00423fe8     <common>

 entry point at        0001:0000c374

 Static symbols

 0001:000000c0       ??__E?_Generic_object@?$_Error_objects@H@std@@2V_Generic_error_category@2@A@@YAXXZ 004010c0 f   main.obj
 0001:000000d0       ??__E?_Iostream_object@?$_Error_objects@H@std@@2V_Iostream_error_category@2@A@@YAXXZ 004010d0 f   main.obj
 0001:000000e0       ??__E?_System_object@?$_Error_objects@H@std@@2V_System_error_category@2@A@@YAXXZ 004010e0 f   main.obj
 0001:000000f0       ??__EcleanUp_ParamTesterMainWindow@@YAXXZ 004010f0 f   moc_paramtestermainwindow.obj
 0001:00000120       ??__EcleanUp_ParamTesterMainWindowBase@@YAXXZ 00401120 f   moc_paramtestermainwindowbase.obj
 0001:000002b6       __catch$?_Copy@?$basic_string@DU?$char_traits@D@std@@V?$allocator@D@2@@std@@QAEXII@Z$0 004012b6 f i main.obj
 0001:000002f3       __catch$?_Copy@?$basic_string@DU?$char_traits@D@std@@V?$allocator@D@2@@std@@QAEXII@Z$1 004012f3 f i main.obj
 0001:0000188c       $LN28                      0040288c     paramtestermainwindow.obj
 0001:00005748       $LN37                      00406748     moc_paramtestermainwindow.obj
 0001:0000c270       _pre_c_init                0040d270 f   MSVCRT:crtexew.obj
 0001:0000c329       _pre_cpp_init              0040d329 f   MSVCRT:crtexew.obj
 0001:0000c37e       ___tmainCRTStartup         0040d37e f   MSVCRT:crtexew.obj
 0001:0000c560       $$000000                   0040d560     MSVCRT:sehprolg4.obj
 0001:0000cd30       __ehhandler$?_Copy@?$basic_string@DU?$char_traits@D@std@@V?$allocator@D@2@@std@@QAEXII@Z 0040dd30 f   main.obj
 0001:0000cd50       __unwindfunclet$_main$0    0040dd50 f   main.obj
 0001:0000cd59       __unwindfunclet$_main$1    0040dd59 f   main.obj
 0001:0000cd62       __unwindfunclet$_main$2    0040dd62 f   main.obj
 0001:0000cd6b       __unwindfunclet$_main$3    0040dd6b f   main.obj
 0001:0000cd74       __unwindfunclet$_main$4    0040dd74 f   main.obj
 0001:0000cd7d       __unwindfunclet$_main$5    0040dd7d f   main.obj
 0001:0000cd88       __ehhandler$_main          0040dd88 f   main.obj
 0001:0000cdb0       __unwindfunclet$??0myListViewItem@@QAE@PAVQListView@@VQString@@1111111@Z$0 0040ddb0 f   myListViewItem.obj
 0001:0000cdb9       __unwindfunclet$??0myListViewItem@@QAE@PAVQListView@@VQString@@1111111@Z$1 0040ddb9 f   myListViewItem.obj
 0001:0000cdc2       __unwindfunclet$??0myListViewItem@@QAE@PAVQListView@@VQString@@1111111@Z$2 0040ddc2 f   myListViewItem.obj
 0001:0000cdcb       __unwindfunclet$??0myListViewItem@@QAE@PAVQListView@@VQString@@1111111@Z$3 0040ddcb f   myListViewItem.obj
 0001:0000cdd4       __unwindfunclet$??0myListViewItem@@QAE@PAVQListView@@VQString@@1111111@Z$4 0040ddd4 f   myListViewItem.obj
 0001:0000cddd       __unwindfunclet$??0myListViewItem@@QAE@PAVQListView@@VQString@@1111111@Z$5 0040dddd f   myListViewItem.obj
 0001:0000cde6       __unwindfunclet$??0myListViewItem@@QAE@PAVQListView@@VQString@@1111111@Z$6 0040dde6 f   myListViewItem.obj
 0001:0000cdef       __unwindfunclet$??0myListViewItem@@QAE@PAVQListView@@VQString@@1111111@Z$7 0040ddef f   myListViewItem.obj
 0001:0000cdf8       __unwindfunclet$??0myListViewItem@@QAE@PAVQListView@@VQString@@1111111@Z$8 0040ddf8 f   myListViewItem.obj
 0001:0000ce01       __unwindfunclet$??0myListViewItem@@QAE@PAVQListView@@VQString@@1111111@Z$9 0040de01 f   myListViewItem.obj
 0001:0000ce0a       __unwindfunclet$??0myListViewItem@@QAE@PAVQListView@@VQString@@1111111@Z$10 0040de0a f   myListViewItem.obj
 0001:0000ce13       __unwindfunclet$??0myListViewItem@@QAE@PAVQListView@@VQString@@1111111@Z$11 0040de13 f   myListViewItem.obj
 0001:0000ce1c       __unwindfunclet$??0myListViewItem@@QAE@PAVQListView@@VQString@@1111111@Z$12 0040de1c f   myListViewItem.obj
 0001:0000ce25       __unwindfunclet$??0myListViewItem@@QAE@PAVQListView@@VQString@@1111111@Z$13 0040de25 f   myListViewItem.obj
 0001:0000ce2e       __unwindfunclet$??0myListViewItem@@QAE@PAVQListView@@VQString@@1111111@Z$14 0040de2e f   myListViewItem.obj
 0001:0000ce37       __ehhandler$??0myListViewItem@@QAE@PAVQListView@@VQString@@1111111@Z 0040de37 f   myListViewItem.obj
 0001:0000ce60       __unwindfunclet$?compare@myListViewItem@@UBEHPAVQListViewItem@@H_N@Z$0 0040de60 f   myListViewItem.obj
 0001:0000ce69       __unwindfunclet$?compare@myListViewItem@@UBEHPAVQListViewItem@@H_N@Z$1 0040de69 f   myListViewItem.obj
 0001:0000ce72       __unwindfunclet$?compare@myListViewItem@@UBEHPAVQListViewItem@@H_N@Z$2 0040de72 f   myListViewItem.obj
 0001:0000ce7b       __unwindfunclet$?compare@myListViewItem@@UBEHPAVQListViewItem@@H_N@Z$3 0040de7b f   myListViewItem.obj
 0001:0000ce84       __ehhandler$?compare@myListViewItem@@UBEHPAVQListViewItem@@H_N@Z 0040de84 f   myListViewItem.obj
 0001:0000cea0       __unwindfunclet$??0ParamTesterMainWindow@@QAE@PAVQWidget@@PBDI@Z$0 0040dea0 f   paramtestermainwindow.obj
 0001:0000cea8       __unwindfunclet$??0ParamTesterMainWindow@@QAE@PAVQWidget@@PBDI@Z$1 0040dea8 f   paramtestermainwindow.obj
 0001:0000ceb7       __unwindfunclet$??0ParamTesterMainWindow@@QAE@PAVQWidget@@PBDI@Z$2 0040deb7 f   paramtestermainwindow.obj
 0001:0000cec6       __unwindfunclet$??0ParamTesterMainWindow@@QAE@PAVQWidget@@PBDI@Z$3 0040dec6 f   paramtestermainwindow.obj
 0001:0000ced5       __unwindfunclet$??0ParamTesterMainWindow@@QAE@PAVQWidget@@PBDI@Z$4 0040ded5 f   paramtestermainwindow.obj
 0001:0000cee4       __unwindfunclet$??0ParamTesterMainWindow@@QAE@PAVQWidget@@PBDI@Z$5 0040dee4 f   paramtestermainwindow.obj
 0001:0000cef3       __unwindfunclet$??0ParamTesterMainWindow@@QAE@PAVQWidget@@PBDI@Z$6 0040def3 f   paramtestermainwindow.obj
 0001:0000cf02       __unwindfunclet$??0ParamTesterMainWindow@@QAE@PAVQWidget@@PBDI@Z$7 0040df02 f   paramtestermainwindow.obj
 0001:0000cf0b       __unwindfunclet$??0ParamTesterMainWindow@@QAE@PAVQWidget@@PBDI@Z$8 0040df0b f   paramtestermainwindow.obj
 0001:0000cf14       __unwindfunclet$??0ParamTesterMainWindow@@QAE@PAVQWidget@@PBDI@Z$9 0040df14 f   paramtestermainwindow.obj
 0001:0000cf1f       __unwindfunclet$??0ParamTesterMainWindow@@QAE@PAVQWidget@@PBDI@Z$10 0040df1f f   paramtestermainwindow.obj
 0001:0000cf2a       __unwindfunclet$??0ParamTesterMainWindow@@QAE@PAVQWidget@@PBDI@Z$11 0040df2a f   paramtestermainwindow.obj
 0001:0000cf35       __unwindfunclet$??0ParamTesterMainWindow@@QAE@PAVQWidget@@PBDI@Z$12 0040df35 f   paramtestermainwindow.obj
 0001:0000cf3e       __unwindfunclet$??0ParamTesterMainWindow@@QAE@PAVQWidget@@PBDI@Z$13 0040df3e f   paramtestermainwindow.obj
 0001:0000cf47       __unwindfunclet$??0ParamTesterMainWindow@@QAE@PAVQWidget@@PBDI@Z$14 0040df47 f   paramtestermainwindow.obj
 0001:0000cf50       __unwindfunclet$??0ParamTesterMainWindow@@QAE@PAVQWidget@@PBDI@Z$15 0040df50 f   paramtestermainwindow.obj
 0001:0000cf5b       __unwindfunclet$??0ParamTesterMainWindow@@QAE@PAVQWidget@@PBDI@Z$16 0040df5b f   paramtestermainwindow.obj
 0001:0000cf64       __unwindfunclet$??0ParamTesterMainWindow@@QAE@PAVQWidget@@PBDI@Z$17 0040df64 f   paramtestermainwindow.obj
 0001:0000cf6d       __unwindfunclet$??0ParamTesterMainWindow@@QAE@PAVQWidget@@PBDI@Z$18 0040df6d f   paramtestermainwindow.obj
 0001:0000cf76       __unwindfunclet$??0ParamTesterMainWindow@@QAE@PAVQWidget@@PBDI@Z$19 0040df76 f   paramtestermainwindow.obj
 0001:0000cf7f       __unwindfunclet$??0ParamTesterMainWindow@@QAE@PAVQWidget@@PBDI@Z$20 0040df7f f   paramtestermainwindow.obj
 0001:0000cf88       __unwindfunclet$??0ParamTesterMainWindow@@QAE@PAVQWidget@@PBDI@Z$21 0040df88 f   paramtestermainwindow.obj
 0001:0000cf93       __unwindfunclet$??0ParamTesterMainWindow@@QAE@PAVQWidget@@PBDI@Z$22 0040df93 f   paramtestermainwindow.obj
 0001:0000cfac       __unwindfunclet$??0ParamTesterMainWindow@@QAE@PAVQWidget@@PBDI@Z$23 0040dfac f   paramtestermainwindow.obj
 0001:0000cfb5       __unwindfunclet$??0ParamTesterMainWindow@@QAE@PAVQWidget@@PBDI@Z$24 0040dfb5 f   paramtestermainwindow.obj
 0001:0000cfbe       __ehhandler$??0ParamTesterMainWindow@@QAE@PAVQWidget@@PBDI@Z 0040dfbe f   paramtestermainwindow.obj
 0001:0000cff0       __unwindfunclet$??1ParamTesterMainWindow@@UAE@XZ$0 0040dff0 f   paramtestermainwindow.obj
 0001:0000cff8       __unwindfunclet$??1ParamTesterMainWindow@@UAE@XZ$1 0040dff8 f   paramtestermainwindow.obj
 0001:0000d007       __unwindfunclet$??1ParamTesterMainWindow@@UAE@XZ$2 0040e007 f   paramtestermainwindow.obj
 0001:0000d016       __unwindfunclet$??1ParamTesterMainWindow@@UAE@XZ$3 0040e016 f   paramtestermainwindow.obj
 0001:0000d025       __unwindfunclet$??1ParamTesterMainWindow@@UAE@XZ$4 0040e025 f   paramtestermainwindow.obj
 0001:0000d034       __unwindfunclet$??1ParamTesterMainWindow@@UAE@XZ$5 0040e034 f   paramtestermainwindow.obj
 0001:0000d043       __unwindfunclet$??1ParamTesterMainWindow@@UAE@XZ$6 0040e043 f   paramtestermainwindow.obj
 0001:0000d052       __ehhandler$??1ParamTesterMainWindow@@UAE@XZ 0040e052 f   paramtestermainwindow.obj
 0001:0000d070       __unwindfunclet$??_G?$QPtrList@VQPushButton@@@@UAEPAXI@Z$0 0040e070 f   paramtestermainwindow.obj
 0001:0000d079       __ehhandler$??_G?$QPtrList@VQPushButton@@@@UAEPAXI@Z 0040e079 f   paramtestermainwindow.obj
 0001:0000d0a0       __unwindfunclet$?LoadTemplate@ParamTesterMainWindow@@AAEXVQString@@@Z$0 0040e0a0 f   paramtestermainwindow.obj
 0001:0000d0a9       __unwindfunclet$?LoadTemplate@ParamTesterMainWindow@@AAEXVQString@@@Z$1 0040e0a9 f   paramtestermainwindow.obj
 0001:0000d0b2       __unwindfunclet$?LoadTemplate@ParamTesterMainWindow@@AAEXVQString@@@Z$2 0040e0b2 f   paramtestermainwindow.obj
 0001:0000d0bb       __unwindfunclet$?LoadTemplate@ParamTesterMainWindow@@AAEXVQString@@@Z$3 0040e0bb f   paramtestermainwindow.obj
 0001:0000d0c4       __unwindfunclet$?LoadTemplate@ParamTesterMainWindow@@AAEXVQString@@@Z$4 0040e0c4 f   paramtestermainwindow.obj
 0001:0000d0cd       __unwindfunclet$?LoadTemplate@ParamTesterMainWindow@@AAEXVQString@@@Z$5 0040e0cd f   paramtestermainwindow.obj
 0001:0000d0d6       __unwindfunclet$?LoadTemplate@ParamTesterMainWindow@@AAEXVQString@@@Z$6 0040e0d6 f   paramtestermainwindow.obj
 0001:0000d0df       __unwindfunclet$?LoadTemplate@ParamTesterMainWindow@@AAEXVQString@@@Z$7 0040e0df f   paramtestermainwindow.obj
 0001:0000d0e8       __unwindfunclet$?LoadTemplate@ParamTesterMainWindow@@AAEXVQString@@@Z$8 0040e0e8 f   paramtestermainwindow.obj
 0001:0000d0f1       __unwindfunclet$?LoadTemplate@ParamTesterMainWindow@@AAEXVQString@@@Z$9 0040e0f1 f   paramtestermainwindow.obj
 0001:0000d0fa       __unwindfunclet$?LoadTemplate@ParamTesterMainWindow@@AAEXVQString@@@Z$10 0040e0fa f   paramtestermainwindow.obj
 0001:0000d103       __unwindfunclet$?LoadTemplate@ParamTesterMainWindow@@AAEXVQString@@@Z$11 0040e103 f   paramtestermainwindow.obj
 0001:0000d10c       __unwindfunclet$?LoadTemplate@ParamTesterMainWindow@@AAEXVQString@@@Z$12 0040e10c f   paramtestermainwindow.obj
 0001:0000d115       __unwindfunclet$?LoadTemplate@ParamTesterMainWindow@@AAEXVQString@@@Z$13 0040e115 f   paramtestermainwindow.obj
 0001:0000d11e       __unwindfunclet$?LoadTemplate@ParamTesterMainWindow@@AAEXVQString@@@Z$14 0040e11e f   paramtestermainwindow.obj
 0001:0000d127       __unwindfunclet$?LoadTemplate@ParamTesterMainWindow@@AAEXVQString@@@Z$15 0040e127 f   paramtestermainwindow.obj
 0001:0000d133       __unwindfunclet$?LoadTemplate@ParamTesterMainWindow@@AAEXVQString@@@Z$16 0040e133 f   paramtestermainwindow.obj
 0001:0000d13e       __unwindfunclet$?LoadTemplate@ParamTesterMainWindow@@AAEXVQString@@@Z$17 0040e13e f   paramtestermainwindow.obj
 0001:0000d147       __unwindfunclet$?LoadTemplate@ParamTesterMainWindow@@AAEXVQString@@@Z$18 0040e147 f   paramtestermainwindow.obj
 0001:0000d150       __unwindfunclet$?LoadTemplate@ParamTesterMainWindow@@AAEXVQString@@@Z$19 0040e150 f   paramtestermainwindow.obj
 0001:0000d159       __unwindfunclet$?LoadTemplate@ParamTesterMainWindow@@AAEXVQString@@@Z$20 0040e159 f   paramtestermainwindow.obj
 0001:0000d162       __unwindfunclet$?LoadTemplate@ParamTesterMainWindow@@AAEXVQString@@@Z$21 0040e162 f   paramtestermainwindow.obj
 0001:0000d16b       __unwindfunclet$?LoadTemplate@ParamTesterMainWindow@@AAEXVQString@@@Z$22 0040e16b f   paramtestermainwindow.obj
 0001:0000d174       __unwindfunclet$?LoadTemplate@ParamTesterMainWindow@@AAEXVQString@@@Z$23 0040e174 f   paramtestermainwindow.obj
 0001:0000d17f       __unwindfunclet$?LoadTemplate@ParamTesterMainWindow@@AAEXVQString@@@Z$24 0040e17f f   paramtestermainwindow.obj
 0001:0000d188       __unwindfunclet$?LoadTemplate@ParamTesterMainWindow@@AAEXVQString@@@Z$25 0040e188 f   paramtestermainwindow.obj
 0001:0000d191       __unwindfunclet$?LoadTemplate@ParamTesterMainWindow@@AAEXVQString@@@Z$26 0040e191 f   paramtestermainwindow.obj
 0001:0000d19a       __unwindfunclet$?LoadTemplate@ParamTesterMainWindow@@AAEXVQString@@@Z$27 0040e19a f   paramtestermainwindow.obj
 0001:0000d1a3       __unwindfunclet$?LoadTemplate@ParamTesterMainWindow@@AAEXVQString@@@Z$28 0040e1a3 f   paramtestermainwindow.obj
 0001:0000d1ae       __ehhandler$?LoadTemplate@ParamTesterMainWindow@@AAEXVQString@@@Z 0040e1ae f   paramtestermainwindow.obj
 0001:0000d1d0       __unwindfunclet$?about@ParamTesterMainWindow@@QAEXXZ$0 0040e1d0 f   paramtestermainwindow.obj
 0001:0000d1d8       __unwindfunclet$?about@ParamTesterMainWindow@@QAEXXZ$1 0040e1d8 f   paramtestermainwindow.obj
 0001:0000d1e1       __unwindfunclet$?about@ParamTesterMainWindow@@QAEXXZ$2 0040e1e1 f   paramtestermainwindow.obj
 0001:0000d1ea       __unwindfunclet$?about@ParamTesterMainWindow@@QAEXXZ$3 0040e1ea f   paramtestermainwindow.obj
 0001:0000d1f3       __unwindfunclet$?about@ParamTesterMainWindow@@QAEXXZ$4 0040e1f3 f   paramtestermainwindow.obj
 0001:0000d1fc       __unwindfunclet$?about@ParamTesterMainWindow@@QAEXXZ$5 0040e1fc f   paramtestermainwindow.obj
 0001:0000d205       __unwindfunclet$?about@ParamTesterMainWindow@@QAEXXZ$6 0040e205 f   paramtestermainwindow.obj
 0001:0000d20e       __unwindfunclet$?about@ParamTesterMainWindow@@QAEXXZ$7 0040e20e f   paramtestermainwindow.obj
 0001:0000d217       __unwindfunclet$?about@ParamTesterMainWindow@@QAEXXZ$8 0040e217 f   paramtestermainwindow.obj
 0001:0000d220       __unwindfunclet$?about@ParamTesterMainWindow@@QAEXXZ$9 0040e220 f   paramtestermainwindow.obj
 0001:0000d229       __unwindfunclet$?about@ParamTesterMainWindow@@QAEXXZ$10 0040e229 f   paramtestermainwindow.obj
 0001:0000d232       __unwindfunclet$?about@ParamTesterMainWindow@@QAEXXZ$11 0040e232 f   paramtestermainwindow.obj
 0001:0000d23b       __unwindfunclet$?about@ParamTesterMainWindow@@QAEXXZ$12 0040e23b f   paramtestermainwindow.obj
 0001:0000d244       __unwindfunclet$?about@ParamTesterMainWindow@@QAEXXZ$13 0040e244 f   paramtestermainwindow.obj
 0001:0000d24d       __ehhandler$?about@ParamTesterMainWindow@@QAEXXZ 0040e24d f   paramtestermainwindow.obj
 0001:0000d270       __unwindfunclet$?cccRtrRevertive@ParamTesterMainWindow@@UAEXHHH@Z$0 0040e270 f   paramtestermainwindow.obj
 0001:0000d270       __unwindfunclet$?cccGpiRevertive@ParamTesterMainWindow@@UAEXHH_N@Z$0 0040e270 f   paramtestermainwindow.obj
 0001:0000d279       __unwindfunclet$?cccGpiRevertive@ParamTesterMainWindow@@UAEXHH_N@Z$1 0040e279 f   paramtestermainwindow.obj
 0001:0000d279       __unwindfunclet$?cccRtrRevertive@ParamTesterMainWindow@@UAEXHHH@Z$1 0040e279 f   paramtestermainwindow.obj
 0001:0000d282       __ehhandler$?cccGpiRevertive@ParamTesterMainWindow@@UAEXHH_N@Z 0040e282 f   paramtestermainwindow.obj
 0001:0000d282       __ehhandler$?cccRtrRevertive@ParamTesterMainWindow@@UAEXHHH@Z 0040e282 f   paramtestermainwindow.obj
 0001:0000d2a0       __unwindfunclet$?cccInfoRevertive@ParamTesterMainWindow@@UAEXHHABV?$basic_string@DU?$char_traits@D@std@@V?$allocator@D@2@@std@@@Z$0 0040e2a0 f   paramtestermainwindow.obj
 0001:0000d2a9       __ehhandler$?cccInfoRevertive@ParamTesterMainWindow@@UAEXHHABV?$basic_string@DU?$char_traits@D@std@@V?$allocator@D@2@@std@@@Z 0040e2a9 f   paramtestermainwindow.obj
 0001:0000d2d0       __unwindfunclet$?loadDeviceType@ParamTesterMainWindow@@AAE_NVQString@@@Z$0 0040e2d0 f   paramtestermainwindow.obj
 0001:0000d2d9       __unwindfunclet$?loadDeviceType@ParamTesterMainWindow@@AAE_NVQString@@@Z$1 0040e2d9 f   paramtestermainwindow.obj
 0001:0000d2e2       __unwindfunclet$?loadDeviceType@ParamTesterMainWindow@@AAE_NVQString@@@Z$2 0040e2e2 f   paramtestermainwindow.obj
 0001:0000d2eb       __unwindfunclet$?loadDeviceType@ParamTesterMainWindow@@AAE_NVQString@@@Z$3 0040e2eb f   paramtestermainwindow.obj
 0001:0000d2f4       __unwindfunclet$?loadDeviceType@ParamTesterMainWindow@@AAE_NVQString@@@Z$4 0040e2f4 f   paramtestermainwindow.obj
 0001:0000d2fd       __unwindfunclet$?loadDeviceType@ParamTesterMainWindow@@AAE_NVQString@@@Z$5 0040e2fd f   paramtestermainwindow.obj
 0001:0000d306       __unwindfunclet$?loadDeviceType@ParamTesterMainWindow@@AAE_NVQString@@@Z$6 0040e306 f   paramtestermainwindow.obj
 0001:0000d30f       __unwindfunclet$?loadDeviceType@ParamTesterMainWindow@@AAE_NVQString@@@Z$7 0040e30f f   paramtestermainwindow.obj
 0001:0000d318       __unwindfunclet$?loadDeviceType@ParamTesterMainWindow@@AAE_NVQString@@@Z$8 0040e318 f   paramtestermainwindow.obj
 0001:0000d321       __unwindfunclet$?loadDeviceType@ParamTesterMainWindow@@AAE_NVQString@@@Z$9 0040e321 f   paramtestermainwindow.obj
 0001:0000d32a       __unwindfunclet$?loadDeviceType@ParamTesterMainWindow@@AAE_NVQString@@@Z$10 0040e32a f   paramtestermainwindow.obj
 0001:0000d333       __unwindfunclet$?loadDeviceType@ParamTesterMainWindow@@AAE_NVQString@@@Z$11 0040e333 f   paramtestermainwindow.obj
 0001:0000d33f       __unwindfunclet$?loadDeviceType@ParamTesterMainWindow@@AAE_NVQString@@@Z$12 0040e33f f   paramtestermainwindow.obj
 0001:0000d34a       __unwindfunclet$?loadDeviceType@ParamTesterMainWindow@@AAE_NVQString@@@Z$13 0040e34a f   paramtestermainwindow.obj
 0001:0000d353       __unwindfunclet$?loadDeviceType@ParamTesterMainWindow@@AAE_NVQString@@@Z$14 0040e353 f   paramtestermainwindow.obj
 0001:0000d35c       __unwindfunclet$?loadDeviceType@ParamTesterMainWindow@@AAE_NVQString@@@Z$15 0040e35c f   paramtestermainwindow.obj
 0001:0000d365       __unwindfunclet$?loadDeviceType@ParamTesterMainWindow@@AAE_NVQString@@@Z$16 0040e365 f   paramtestermainwindow.obj
 0001:0000d36e       __unwindfunclet$?loadDeviceType@ParamTesterMainWindow@@AAE_NVQString@@@Z$17 0040e36e f   paramtestermainwindow.obj
 0001:0000d377       __unwindfunclet$?loadDeviceType@ParamTesterMainWindow@@AAE_NVQString@@@Z$18 0040e377 f   paramtestermainwindow.obj
 0001:0000d380       __unwindfunclet$?loadDeviceType@ParamTesterMainWindow@@AAE_NVQString@@@Z$19 0040e380 f   paramtestermainwindow.obj
 0001:0000d389       __unwindfunclet$?loadDeviceType@ParamTesterMainWindow@@AAE_NVQString@@@Z$20 0040e389 f   paramtestermainwindow.obj
 0001:0000d392       __unwindfunclet$?loadDeviceType@ParamTesterMainWindow@@AAE_NVQString@@@Z$21 0040e392 f   paramtestermainwindow.obj
 0001:0000d3ac       __unwindfunclet$?loadDeviceType@ParamTesterMainWindow@@AAE_NVQString@@@Z$22 0040e3ac f   paramtestermainwindow.obj
 0001:0000d3c6       __unwindfunclet$?loadDeviceType@ParamTesterMainWindow@@AAE_NVQString@@@Z$23 0040e3c6 f   paramtestermainwindow.obj
 0001:0000d3d1       __unwindfunclet$?loadDeviceType@ParamTesterMainWindow@@AAE_NVQString@@@Z$24 0040e3d1 f   paramtestermainwindow.obj
 0001:0000d3da       __unwindfunclet$?loadDeviceType@ParamTesterMainWindow@@AAE_NVQString@@@Z$25 0040e3da f   paramtestermainwindow.obj
 0001:0000d3e3       __unwindfunclet$?loadDeviceType@ParamTesterMainWindow@@AAE_NVQString@@@Z$26 0040e3e3 f   paramtestermainwindow.obj
 0001:0000d3ec       __unwindfunclet$?loadDeviceType@ParamTesterMainWindow@@AAE_NVQString@@@Z$27 0040e3ec f   paramtestermainwindow.obj
 0001:0000d3f5       __unwindfunclet$?loadDeviceType@ParamTesterMainWindow@@AAE_NVQString@@@Z$28 0040e3f5 f   paramtestermainwindow.obj
 0001:0000d3fe       __unwindfunclet$?loadDeviceType@ParamTesterMainWindow@@AAE_NVQString@@@Z$29 0040e3fe f   paramtestermainwindow.obj
 0001:0000d407       __unwindfunclet$?loadDeviceType@ParamTesterMainWindow@@AAE_NVQString@@@Z$30 0040e407 f   paramtestermainwindow.obj
 0001:0000d410       __unwindfunclet$?loadDeviceType@ParamTesterMainWindow@@AAE_NVQString@@@Z$32 0040e410 f   paramtestermainwindow.obj
 0001:0000d419       __ehhandler$?loadDeviceType@ParamTesterMainWindow@@AAE_NVQString@@@Z 0040e419 f   paramtestermainwindow.obj
 0001:0000d440       __unwindfunclet$?loadInstances@ParamTesterMainWindow@@QAE_NXZ$0 0040e440 f   paramtestermainwindow.obj
 0001:0000d449       __unwindfunclet$?loadInstances@ParamTesterMainWindow@@QAE_NXZ$1 0040e449 f   paramtestermainwindow.obj
 0001:0000d452       __unwindfunclet$?loadInstances@ParamTesterMainWindow@@QAE_NXZ$2 0040e452 f   paramtestermainwindow.obj
 0001:0000d45b       __unwindfunclet$?loadInstances@ParamTesterMainWindow@@QAE_NXZ$3 0040e45b f   paramtestermainwindow.obj
 0001:0000d464       __unwindfunclet$?loadInstances@ParamTesterMainWindow@@QAE_NXZ$4 0040e464 f   paramtestermainwindow.obj
 0001:0000d46d       __unwindfunclet$?loadInstances@ParamTesterMainWindow@@QAE_NXZ$5 0040e46d f   paramtestermainwindow.obj
 0001:0000d476       __unwindfunclet$?loadInstances@ParamTesterMainWindow@@QAE_NXZ$6 0040e476 f   paramtestermainwindow.obj
 0001:0000d47f       __unwindfunclet$?loadInstances@ParamTesterMainWindow@@QAE_NXZ$7 0040e47f f   paramtestermainwindow.obj
 0001:0000d488       __unwindfunclet$?loadInstances@ParamTesterMainWindow@@QAE_NXZ$8 0040e488 f   paramtestermainwindow.obj
 0001:0000d491       __unwindfunclet$?loadInstances@ParamTesterMainWindow@@QAE_NXZ$9 0040e491 f   paramtestermainwindow.obj
 0001:0000d49a       __unwindfunclet$?loadInstances@ParamTesterMainWindow@@QAE_NXZ$10 0040e49a f   paramtestermainwindow.obj
 0001:0000d4a3       __unwindfunclet$?loadInstances@ParamTesterMainWindow@@QAE_NXZ$11 0040e4a3 f   paramtestermainwindow.obj
 0001:0000d4af       __unwindfunclet$?loadInstances@ParamTesterMainWindow@@QAE_NXZ$12 0040e4af f   paramtestermainwindow.obj
 0001:0000d4ba       __unwindfunclet$?loadInstances@ParamTesterMainWindow@@QAE_NXZ$13 0040e4ba f   paramtestermainwindow.obj
 0001:0000d4c3       __unwindfunclet$?loadInstances@ParamTesterMainWindow@@QAE_NXZ$14 0040e4c3 f   paramtestermainwindow.obj
 0001:0000d4cc       __unwindfunclet$?loadInstances@ParamTesterMainWindow@@QAE_NXZ$15 0040e4cc f   paramtestermainwindow.obj
 0001:0000d4d8       __unwindfunclet$?loadInstances@ParamTesterMainWindow@@QAE_NXZ$16 0040e4d8 f   paramtestermainwindow.obj
 0001:0000d4e3       __unwindfunclet$?loadInstances@ParamTesterMainWindow@@QAE_NXZ$17 0040e4e3 f   paramtestermainwindow.obj
 0001:0000d4fd       __unwindfunclet$?loadInstances@ParamTesterMainWindow@@QAE_NXZ$18 0040e4fd f   paramtestermainwindow.obj
 0001:0000d517       __unwindfunclet$?loadInstances@ParamTesterMainWindow@@QAE_NXZ$19 0040e517 f   paramtestermainwindow.obj
 0001:0000d520       __unwindfunclet$?loadInstances@ParamTesterMainWindow@@QAE_NXZ$20 0040e520 f   paramtestermainwindow.obj
 0001:0000d529       __unwindfunclet$?loadInstances@ParamTesterMainWindow@@QAE_NXZ$21 0040e529 f   paramtestermainwindow.obj
 0001:0000d535       __unwindfunclet$?loadInstances@ParamTesterMainWindow@@QAE_NXZ$22 0040e535 f   paramtestermainwindow.obj
 0001:0000d53e       __unwindfunclet$?loadInstances@ParamTesterMainWindow@@QAE_NXZ$23 0040e53e f   paramtestermainwindow.obj
 0001:0000d547       __unwindfunclet$?loadInstances@ParamTesterMainWindow@@QAE_NXZ$24 0040e547 f   paramtestermainwindow.obj
 0001:0000d550       __unwindfunclet$?loadInstances@ParamTesterMainWindow@@QAE_NXZ$25 0040e550 f   paramtestermainwindow.obj
 0001:0000d55c       __unwindfunclet$?loadInstances@ParamTesterMainWindow@@QAE_NXZ$26 0040e55c f   paramtestermainwindow.obj
 0001:0000d565       __unwindfunclet$?loadInstances@ParamTesterMainWindow@@QAE_NXZ$27 0040e565 f   paramtestermainwindow.obj
 0001:0000d571       __unwindfunclet$?loadInstances@ParamTesterMainWindow@@QAE_NXZ$28 0040e571 f   paramtestermainwindow.obj
 0001:0000d57a       __unwindfunclet$?loadInstances@ParamTesterMainWindow@@QAE_NXZ$29 0040e57a f   paramtestermainwindow.obj
 0001:0000d583       __unwindfunclet$?loadInstances@ParamTesterMainWindow@@QAE_NXZ$30 0040e583 f   paramtestermainwindow.obj
 0001:0000d58c       __unwindfunclet$?loadInstances@ParamTesterMainWindow@@QAE_NXZ$31 0040e58c f   paramtestermainwindow.obj
 0001:0000d598       __unwindfunclet$?loadInstances@ParamTesterMainWindow@@QAE_NXZ$32 0040e598 f   paramtestermainwindow.obj
 0001:0000d5a1       __unwindfunclet$?loadInstances@ParamTesterMainWindow@@QAE_NXZ$33 0040e5a1 f   paramtestermainwindow.obj
 0001:0000d5ad       __unwindfunclet$?loadInstances@ParamTesterMainWindow@@QAE_NXZ$34 0040e5ad f   paramtestermainwindow.obj
 0001:0000d5b6       __unwindfunclet$?loadInstances@ParamTesterMainWindow@@QAE_NXZ$35 0040e5b6 f   paramtestermainwindow.obj
 0001:0000d5c2       __unwindfunclet$?loadInstances@ParamTesterMainWindow@@QAE_NXZ$36 0040e5c2 f   paramtestermainwindow.obj
 0001:0000d5d0       __unwindfunclet$?loadInstances@ParamTesterMainWindow@@QAE_NXZ$37 0040e5d0 f   paramtestermainwindow.obj
 0001:0000d5dc       __unwindfunclet$?loadInstances@ParamTesterMainWindow@@QAE_NXZ$38 0040e5dc f   paramtestermainwindow.obj
 0001:0000d5e8       __unwindfunclet$?loadInstances@ParamTesterMainWindow@@QAE_NXZ$39 0040e5e8 f   paramtestermainwindow.obj
 0001:0000d5f4       __unwindfunclet$?loadInstances@ParamTesterMainWindow@@QAE_NXZ$40 0040e5f4 f   paramtestermainwindow.obj
 0001:0000d600       __unwindfunclet$?loadInstances@ParamTesterMainWindow@@QAE_NXZ$41 0040e600 f   paramtestermainwindow.obj
 0001:0000d60c       __unwindfunclet$?loadInstances@ParamTesterMainWindow@@QAE_NXZ$42 0040e60c f   paramtestermainwindow.obj
 0001:0000d618       __unwindfunclet$?loadInstances@ParamTesterMainWindow@@QAE_NXZ$43 0040e618 f   paramtestermainwindow.obj
 0001:0000d624       __unwindfunclet$?loadInstances@ParamTesterMainWindow@@QAE_NXZ$45 0040e624 f   paramtestermainwindow.obj
 0001:0000d630       __ehhandler$?loadInstances@ParamTesterMainWindow@@QAE_NXZ 0040e630 f   paramtestermainwindow.obj
 0001:0000d650       __unwindfunclet$?selectInstance@ParamTesterMainWindow@@QAEXPAVQListViewItem@@@Z$0 0040e650 f   paramtestermainwindow.obj
 0001:0000d659       __unwindfunclet$?selectInstance@ParamTesterMainWindow@@QAEXPAVQListViewItem@@@Z$1 0040e659 f   paramtestermainwindow.obj
 0001:0000d662       __unwindfunclet$?selectInstance@ParamTesterMainWindow@@QAEXPAVQListViewItem@@@Z$2 0040e662 f   paramtestermainwindow.obj
 0001:0000d66b       __unwindfunclet$?selectInstance@ParamTesterMainWindow@@QAEXPAVQListViewItem@@@Z$3 0040e66b f   paramtestermainwindow.obj
 0001:0000d674       __unwindfunclet$?selectInstance@ParamTesterMainWindow@@QAEXPAVQListViewItem@@@Z$4 0040e674 f   paramtestermainwindow.obj
 0001:0000d67d       __unwindfunclet$?selectInstance@ParamTesterMainWindow@@QAEXPAVQListViewItem@@@Z$5 0040e67d f   paramtestermainwindow.obj
 0001:0000d686       __unwindfunclet$?selectInstance@ParamTesterMainWindow@@QAEXPAVQListViewItem@@@Z$6 0040e686 f   paramtestermainwindow.obj
 0001:0000d68f       __unwindfunclet$?selectInstance@ParamTesterMainWindow@@QAEXPAVQListViewItem@@@Z$7 0040e68f f   paramtestermainwindow.obj
 0001:0000d698       __unwindfunclet$?selectInstance@ParamTesterMainWindow@@QAEXPAVQListViewItem@@@Z$8 0040e698 f   paramtestermainwindow.obj
 0001:0000d6a1       __unwindfunclet$?selectInstance@ParamTesterMainWindow@@QAEXPAVQListViewItem@@@Z$9 0040e6a1 f   paramtestermainwindow.obj
 0001:0000d6aa       __unwindfunclet$?selectInstance@ParamTesterMainWindow@@QAEXPAVQListViewItem@@@Z$10 0040e6aa f   paramtestermainwindow.obj
 0001:0000d6b3       __unwindfunclet$?selectInstance@ParamTesterMainWindow@@QAEXPAVQListViewItem@@@Z$11 0040e6b3 f   paramtestermainwindow.obj
 0001:0000d6bc       __unwindfunclet$?selectInstance@ParamTesterMainWindow@@QAEXPAVQListViewItem@@@Z$12 0040e6bc f   paramtestermainwindow.obj
 0001:0000d6c5       __unwindfunclet$?selectInstance@ParamTesterMainWindow@@QAEXPAVQListViewItem@@@Z$14 0040e6c5 f   paramtestermainwindow.obj
 0001:0000d6ce       __unwindfunclet$?selectInstance@ParamTesterMainWindow@@QAEXPAVQListViewItem@@@Z$16 0040e6ce f   paramtestermainwindow.obj
 0001:0000d6d7       __unwindfunclet$?selectInstance@ParamTesterMainWindow@@QAEXPAVQListViewItem@@@Z$17 0040e6d7 f   paramtestermainwindow.obj
 0001:0000d6e0       __unwindfunclet$?selectInstance@ParamTesterMainWindow@@QAEXPAVQListViewItem@@@Z$18 0040e6e0 f   paramtestermainwindow.obj
 0001:0000d6e9       __ehhandler$?selectInstance@ParamTesterMainWindow@@QAEXPAVQListViewItem@@@Z 0040e6e9 f   paramtestermainwindow.obj
 0001:0000d710       __unwindfunclet$?selectParam@ParamTesterMainWindow@@QAEXPAVQListViewItem@@@Z$0 0040e710 f   paramtestermainwindow.obj
 0001:0000d719       __unwindfunclet$?selectParam@ParamTesterMainWindow@@QAEXPAVQListViewItem@@@Z$1 0040e719 f   paramtestermainwindow.obj
 0001:0000d722       __unwindfunclet$?selectParam@ParamTesterMainWindow@@QAEXPAVQListViewItem@@@Z$2 0040e722 f   paramtestermainwindow.obj
 0001:0000d72b       __unwindfunclet$?selectParam@ParamTesterMainWindow@@QAEXPAVQListViewItem@@@Z$3 0040e72b f   paramtestermainwindow.obj
 0001:0000d734       __unwindfunclet$?selectParam@ParamTesterMainWindow@@QAEXPAVQListViewItem@@@Z$4 0040e734 f   paramtestermainwindow.obj
 0001:0000d73d       __unwindfunclet$?selectParam@ParamTesterMainWindow@@QAEXPAVQListViewItem@@@Z$5 0040e73d f   paramtestermainwindow.obj
 0001:0000d746       __unwindfunclet$?selectParam@ParamTesterMainWindow@@QAEXPAVQListViewItem@@@Z$6 0040e746 f   paramtestermainwindow.obj
 0001:0000d74f       __unwindfunclet$?selectParam@ParamTesterMainWindow@@QAEXPAVQListViewItem@@@Z$49 0040e74f f   paramtestermainwindow.obj
 0001:0000d758       __unwindfunclet$?selectParam@ParamTesterMainWindow@@QAEXPAVQListViewItem@@@Z$7 0040e758 f   paramtestermainwindow.obj
 0001:0000d761       __unwindfunclet$?selectParam@ParamTesterMainWindow@@QAEXPAVQListViewItem@@@Z$8 0040e761 f   paramtestermainwindow.obj
 0001:0000d76a       __unwindfunclet$?selectParam@ParamTesterMainWindow@@QAEXPAVQListViewItem@@@Z$9 0040e76a f   paramtestermainwindow.obj
 0001:0000d773       __unwindfunclet$?selectParam@ParamTesterMainWindow@@QAEXPAVQListViewItem@@@Z$10 0040e773 f   paramtestermainwindow.obj
 0001:0000d77c       __unwindfunclet$?selectParam@ParamTesterMainWindow@@QAEXPAVQListViewItem@@@Z$12 0040e77c f   paramtestermainwindow.obj
 0001:0000d785       __unwindfunclet$?selectParam@ParamTesterMainWindow@@QAEXPAVQListViewItem@@@Z$14 0040e785 f   paramtestermainwindow.obj
 0001:0000d78e       __unwindfunclet$?selectParam@ParamTesterMainWindow@@QAEXPAVQListViewItem@@@Z$15 0040e78e f   paramtestermainwindow.obj
 0001:0000d797       __unwindfunclet$?selectParam@ParamTesterMainWindow@@QAEXPAVQListViewItem@@@Z$16 0040e797 f   paramtestermainwindow.obj
 0001:0000d7a2       __unwindfunclet$?selectParam@ParamTesterMainWindow@@QAEXPAVQListViewItem@@@Z$17 0040e7a2 f   paramtestermainwindow.obj
 0001:0000d7ab       __unwindfunclet$?selectParam@ParamTesterMainWindow@@QAEXPAVQListViewItem@@@Z$18 0040e7ab f   paramtestermainwindow.obj
 0001:0000d7b4       __unwindfunclet$?selectParam@ParamTesterMainWindow@@QAEXPAVQListViewItem@@@Z$19 0040e7b4 f   paramtestermainwindow.obj
 0001:0000d7bd       __unwindfunclet$?selectParam@ParamTesterMainWindow@@QAEXPAVQListViewItem@@@Z$20 0040e7bd f   paramtestermainwindow.obj
 0001:0000d7c6       __unwindfunclet$?selectParam@ParamTesterMainWindow@@QAEXPAVQListViewItem@@@Z$13 0040e7c6 f   paramtestermainwindow.obj
 0001:0000d7cf       __unwindfunclet$?selectParam@ParamTesterMainWindow@@QAEXPAVQListViewItem@@@Z$21 0040e7cf f   paramtestermainwindow.obj
 0001:0000d7d8       __unwindfunclet$?selectParam@ParamTesterMainWindow@@QAEXPAVQListViewItem@@@Z$23 0040e7d8 f   paramtestermainwindow.obj
 0001:0000d7e1       __unwindfunclet$?selectParam@ParamTesterMainWindow@@QAEXPAVQListViewItem@@@Z$24 0040e7e1 f   paramtestermainwindow.obj
 0001:0000d7ea       __unwindfunclet$?selectParam@ParamTesterMainWindow@@QAEXPAVQListViewItem@@@Z$25 0040e7ea f   paramtestermainwindow.obj
 0001:0000d7f3       __unwindfunclet$?selectParam@ParamTesterMainWindow@@QAEXPAVQListViewItem@@@Z$26 0040e7f3 f   paramtestermainwindow.obj
 0001:0000d7fc       __unwindfunclet$?selectParam@ParamTesterMainWindow@@QAEXPAVQListViewItem@@@Z$27 0040e7fc f   paramtestermainwindow.obj
 0001:0000d805       __unwindfunclet$?selectParam@ParamTesterMainWindow@@QAEXPAVQListViewItem@@@Z$28 0040e805 f   paramtestermainwindow.obj
 0001:0000d80e       __unwindfunclet$?selectParam@ParamTesterMainWindow@@QAEXPAVQListViewItem@@@Z$29 0040e80e f   paramtestermainwindow.obj
 0001:0000d817       __unwindfunclet$?selectParam@ParamTesterMainWindow@@QAEXPAVQListViewItem@@@Z$30 0040e817 f   paramtestermainwindow.obj
 0001:0000d820       __unwindfunclet$?selectParam@ParamTesterMainWindow@@QAEXPAVQListViewItem@@@Z$31 0040e820 f   paramtestermainwindow.obj
 0001:0000d829       __unwindfunclet$?selectParam@ParamTesterMainWindow@@QAEXPAVQListViewItem@@@Z$32 0040e829 f   paramtestermainwindow.obj
 0001:0000d832       __unwindfunclet$?selectParam@ParamTesterMainWindow@@QAEXPAVQListViewItem@@@Z$33 0040e832 f   paramtestermainwindow.obj
 0001:0000d83b       __unwindfunclet$?selectParam@ParamTesterMainWindow@@QAEXPAVQListViewItem@@@Z$34 0040e83b f   paramtestermainwindow.obj
 0001:0000d844       __unwindfunclet$?selectParam@ParamTesterMainWindow@@QAEXPAVQListViewItem@@@Z$22 0040e844 f   paramtestermainwindow.obj
 0001:0000d84d       __unwindfunclet$?selectParam@ParamTesterMainWindow@@QAEXPAVQListViewItem@@@Z$35 0040e84d f   paramtestermainwindow.obj
 0001:0000d858       __unwindfunclet$?selectParam@ParamTesterMainWindow@@QAEXPAVQListViewItem@@@Z$36 0040e858 f   paramtestermainwindow.obj
 0001:0000d872       __unwindfunclet$?selectParam@ParamTesterMainWindow@@QAEXPAVQListViewItem@@@Z$37 0040e872 f   paramtestermainwindow.obj
 0001:0000d88c       __unwindfunclet$?selectParam@ParamTesterMainWindow@@QAEXPAVQListViewItem@@@Z$38 0040e88c f   paramtestermainwindow.obj
 0001:0000d897       __unwindfunclet$?selectParam@ParamTesterMainWindow@@QAEXPAVQListViewItem@@@Z$39 0040e897 f   paramtestermainwindow.obj
 0001:0000d8b1       __unwindfunclet$?selectParam@ParamTesterMainWindow@@QAEXPAVQListViewItem@@@Z$40 0040e8b1 f   paramtestermainwindow.obj
 0001:0000d8cb       __unwindfunclet$?selectParam@ParamTesterMainWindow@@QAEXPAVQListViewItem@@@Z$41 0040e8cb f   paramtestermainwindow.obj
 0001:0000d8d6       __unwindfunclet$?selectParam@ParamTesterMainWindow@@QAEXPAVQListViewItem@@@Z$42 0040e8d6 f   paramtestermainwindow.obj
 0001:0000d8f0       __unwindfunclet$?selectParam@ParamTesterMainWindow@@QAEXPAVQListViewItem@@@Z$43 0040e8f0 f   paramtestermainwindow.obj
 0001:0000d8fb       __unwindfunclet$?selectParam@ParamTesterMainWindow@@QAEXPAVQListViewItem@@@Z$44 0040e8fb f   paramtestermainwindow.obj
 0001:0000d915       __unwindfunclet$?selectParam@ParamTesterMainWindow@@QAEXPAVQListViewItem@@@Z$45 0040e915 f   paramtestermainwindow.obj
 0001:0000d92f       __unwindfunclet$?selectParam@ParamTesterMainWindow@@QAEXPAVQListViewItem@@@Z$46 0040e92f f   paramtestermainwindow.obj
 0001:0000d93a       __unwindfunclet$?selectParam@ParamTesterMainWindow@@QAEXPAVQListViewItem@@@Z$47 0040e93a f   paramtestermainwindow.obj
 0001:0000d959       __unwindfunclet$?selectParam@ParamTesterMainWindow@@QAEXPAVQListViewItem@@@Z$48 0040e959 f   paramtestermainwindow.obj
 0001:0000d978       __unwindfunclet$?selectParam@ParamTesterMainWindow@@QAEXPAVQListViewItem@@@Z$50 0040e978 f   paramtestermainwindow.obj
 0001:0000d981       __unwindfunclet$?selectParam@ParamTesterMainWindow@@QAEXPAVQListViewItem@@@Z$52 0040e981 f   paramtestermainwindow.obj
 0001:0000d98a       __unwindfunclet$?selectParam@ParamTesterMainWindow@@QAEXPAVQListViewItem@@@Z$53 0040e98a f   paramtestermainwindow.obj
 0001:0000d993       __unwindfunclet$?selectParam@ParamTesterMainWindow@@QAEXPAVQListViewItem@@@Z$54 0040e993 f   paramtestermainwindow.obj
 0001:0000d99c       __ehhandler$?selectParam@ParamTesterMainWindow@@QAEXPAVQListViewItem@@@Z 0040e99c f   paramtestermainwindow.obj
 0001:0000d9c0       __unwindfunclet$?setDevSlot@ParamTesterMainWindow@@AAE_NVQString@@0@Z$0 0040e9c0 f   paramtestermainwindow.obj
 0001:0000d9c9       __unwindfunclet$?setDevSlot@ParamTesterMainWindow@@AAE_NVQString@@0@Z$1 0040e9c9 f   paramtestermainwindow.obj
 0001:0000d9d2       __unwindfunclet$?setDevSlot@ParamTesterMainWindow@@AAE_NVQString@@0@Z$2 0040e9d2 f   paramtestermainwindow.obj
 0001:0000d9db       __unwindfunclet$?setDevSlot@ParamTesterMainWindow@@AAE_NVQString@@0@Z$3 0040e9db f   paramtestermainwindow.obj
 0001:0000d9e4       __unwindfunclet$?setDevSlot@ParamTesterMainWindow@@AAE_NVQString@@0@Z$4 0040e9e4 f   paramtestermainwindow.obj
 0001:0000d9f0       __unwindfunclet$?setDevSlot@ParamTesterMainWindow@@AAE_NVQString@@0@Z$5 0040e9f0 f   paramtestermainwindow.obj
 0001:0000d9f9       __unwindfunclet$?setDevSlot@ParamTesterMainWindow@@AAE_NVQString@@0@Z$6 0040e9f9 f   paramtestermainwindow.obj
 0001:0000da02       __unwindfunclet$?setDevSlot@ParamTesterMainWindow@@AAE_NVQString@@0@Z$7 0040ea02 f   paramtestermainwindow.obj
 0001:0000da0e       __unwindfunclet$?setDevSlot@ParamTesterMainWindow@@AAE_NVQString@@0@Z$8 0040ea0e f   paramtestermainwindow.obj
 0001:0000da1a       __unwindfunclet$?setDevSlot@ParamTesterMainWindow@@AAE_NVQString@@0@Z$9 0040ea1a f   paramtestermainwindow.obj
 0001:0000da23       __unwindfunclet$?setDevSlot@ParamTesterMainWindow@@AAE_NVQString@@0@Z$10 0040ea23 f   paramtestermainwindow.obj
 0001:0000da2c       __unwindfunclet$?setDevSlot@ParamTesterMainWindow@@AAE_NVQString@@0@Z$11 0040ea2c f   paramtestermainwindow.obj
 0001:0000da35       __unwindfunclet$?setDevSlot@ParamTesterMainWindow@@AAE_NVQString@@0@Z$12 0040ea35 f   paramtestermainwindow.obj
 0001:0000da40       __unwindfunclet$?setDevSlot@ParamTesterMainWindow@@AAE_NVQString@@0@Z$13 0040ea40 f   paramtestermainwindow.obj
 0001:0000da4c       __unwindfunclet$?setDevSlot@ParamTesterMainWindow@@AAE_NVQString@@0@Z$14 0040ea4c f   paramtestermainwindow.obj
 0001:0000da58       __unwindfunclet$?setDevSlot@ParamTesterMainWindow@@AAE_NVQString@@0@Z$15 0040ea58 f   paramtestermainwindow.obj
 0001:0000da61       __unwindfunclet$?setDevSlot@ParamTesterMainWindow@@AAE_NVQString@@0@Z$16 0040ea61 f   paramtestermainwindow.obj
 0001:0000da6a       __unwindfunclet$?setDevSlot@ParamTesterMainWindow@@AAE_NVQString@@0@Z$17 0040ea6a f   paramtestermainwindow.obj
 0001:0000da73       __unwindfunclet$?setDevSlot@ParamTesterMainWindow@@AAE_NVQString@@0@Z$18 0040ea73 f   paramtestermainwindow.obj
 0001:0000da7f       __unwindfunclet$?setDevSlot@ParamTesterMainWindow@@AAE_NVQString@@0@Z$19 0040ea7f f   paramtestermainwindow.obj
 0001:0000da88       __unwindfunclet$?setDevSlot@ParamTesterMainWindow@@AAE_NVQString@@0@Z$20 0040ea88 f   paramtestermainwindow.obj
 0001:0000da94       __unwindfunclet$?setDevSlot@ParamTesterMainWindow@@AAE_NVQString@@0@Z$21 0040ea94 f   paramtestermainwindow.obj
 0001:0000daa0       __unwindfunclet$?setDevSlot@ParamTesterMainWindow@@AAE_NVQString@@0@Z$22 0040eaa0 f   paramtestermainwindow.obj
 0001:0000daa9       __unwindfunclet$?setDevSlot@ParamTesterMainWindow@@AAE_NVQString@@0@Z$23 0040eaa9 f   paramtestermainwindow.obj
 0001:0000dab2       __unwindfunclet$?setDevSlot@ParamTesterMainWindow@@AAE_NVQString@@0@Z$24 0040eab2 f   paramtestermainwindow.obj
 0001:0000dabb       __unwindfunclet$?setDevSlot@ParamTesterMainWindow@@AAE_NVQString@@0@Z$25 0040eabb f   paramtestermainwindow.obj
 0001:0000dac4       __unwindfunclet$?setDevSlot@ParamTesterMainWindow@@AAE_NVQString@@0@Z$26 0040eac4 f   paramtestermainwindow.obj
 0001:0000dacd       __unwindfunclet$?setDevSlot@ParamTesterMainWindow@@AAE_NVQString@@0@Z$27 0040eacd f   paramtestermainwindow.obj
 0001:0000dad9       __unwindfunclet$?setDevSlot@ParamTesterMainWindow@@AAE_NVQString@@0@Z$28 0040ead9 f   paramtestermainwindow.obj
 0001:0000dae2       __unwindfunclet$?setDevSlot@ParamTesterMainWindow@@AAE_NVQString@@0@Z$31 0040eae2 f   paramtestermainwindow.obj
 0001:0000daeb       __unwindfunclet$?setDevSlot@ParamTesterMainWindow@@AAE_NVQString@@0@Z$32 0040eaeb f   paramtestermainwindow.obj
 0001:0000daf4       __unwindfunclet$?setDevSlot@ParamTesterMainWindow@@AAE_NVQString@@0@Z$33 0040eaf4 f   paramtestermainwindow.obj
 0001:0000dafd       __unwindfunclet$?setDevSlot@ParamTesterMainWindow@@AAE_NVQString@@0@Z$34 0040eafd f   paramtestermainwindow.obj
 0001:0000db06       __unwindfunclet$?setDevSlot@ParamTesterMainWindow@@AAE_NVQString@@0@Z$35 0040eb06 f   paramtestermainwindow.obj
 0001:0000db12       __unwindfunclet$?setDevSlot@ParamTesterMainWindow@@AAE_NVQString@@0@Z$36 0040eb12 f   paramtestermainwindow.obj
 0001:0000db1b       __unwindfunclet$?setDevSlot@ParamTesterMainWindow@@AAE_NVQString@@0@Z$37 0040eb1b f   paramtestermainwindow.obj
 0001:0000db27       __unwindfunclet$?setDevSlot@ParamTesterMainWindow@@AAE_NVQString@@0@Z$38 0040eb27 f   paramtestermainwindow.obj
 0001:0000db33       __unwindfunclet$?setDevSlot@ParamTesterMainWindow@@AAE_NVQString@@0@Z$39 0040eb33 f   paramtestermainwindow.obj
 0001:0000db3c       __unwindfunclet$?setDevSlot@ParamTesterMainWindow@@AAE_NVQString@@0@Z$40 0040eb3c f   paramtestermainwindow.obj
 0001:0000db45       __unwindfunclet$?setDevSlot@ParamTesterMainWindow@@AAE_NVQString@@0@Z$41 0040eb45 f   paramtestermainwindow.obj
 0001:0000db51       __unwindfunclet$?setDevSlot@ParamTesterMainWindow@@AAE_NVQString@@0@Z$42 0040eb51 f   paramtestermainwindow.obj
 0001:0000db5a       __unwindfunclet$?setDevSlot@ParamTesterMainWindow@@AAE_NVQString@@0@Z$43 0040eb5a f   paramtestermainwindow.obj
 0001:0000db66       __unwindfunclet$?setDevSlot@ParamTesterMainWindow@@AAE_NVQString@@0@Z$29 0040eb66 f   paramtestermainwindow.obj
 0001:0000db6f       __unwindfunclet$?setDevSlot@ParamTesterMainWindow@@AAE_NVQString@@0@Z$30 0040eb6f f   paramtestermainwindow.obj
 0001:0000db78       __unwindfunclet$?setDevSlot@ParamTesterMainWindow@@AAE_NVQString@@0@Z$45 0040eb78 f   paramtestermainwindow.obj
 0001:0000db81       __unwindfunclet$?setDevSlot@ParamTesterMainWindow@@AAE_NVQString@@0@Z$46 0040eb81 f   paramtestermainwindow.obj
 0001:0000db8a       __unwindfunclet$?setDevSlot@ParamTesterMainWindow@@AAE_NVQString@@0@Z$47 0040eb8a f   paramtestermainwindow.obj
 0001:0000db93       __unwindfunclet$?setDevSlot@ParamTesterMainWindow@@AAE_NVQString@@0@Z$48 0040eb93 f   paramtestermainwindow.obj
 0001:0000db9c       __ehhandler$?setDevSlot@ParamTesterMainWindow@@AAE_NVQString@@0@Z 0040eb9c f   paramtestermainwindow.obj
 0001:0000dbc0       __unwindfunclet$?setEnteredValue@ParamTesterMainWindow@@QAEXXZ$0 0040ebc0 f   paramtestermainwindow.obj
 0001:0000dbc9       __unwindfunclet$?setEnteredValue@ParamTesterMainWindow@@QAEXXZ$4 0040ebc9 f   paramtestermainwindow.obj
 0001:0000dbd2       __unwindfunclet$?setEnteredValue@ParamTesterMainWindow@@QAEXXZ$5 0040ebd2 f   paramtestermainwindow.obj
 0001:0000dbda       __unwindfunclet$?setEnteredValue@ParamTesterMainWindow@@QAEXXZ$2 0040ebda f   paramtestermainwindow.obj
 0001:0000dbe2       __unwindfunclet$?setEnteredValue@ParamTesterMainWindow@@QAEXXZ$3 0040ebe2 f   paramtestermainwindow.obj
 0001:0000dbeb       __unwindfunclet$?setEnteredValue@ParamTesterMainWindow@@QAEXXZ$1 0040ebeb f   paramtestermainwindow.obj
 0001:0000dbf4       __ehhandler$?setEnteredValue@ParamTesterMainWindow@@QAEXXZ 0040ebf4 f   paramtestermainwindow.obj
 0001:0000dc20       __unwindfunclet$?setFilter@ParamTesterMainWindow@@QAEXABVQString@@@Z$0 0040ec20 f   paramtestermainwindow.obj
 0001:0000dc29       __unwindfunclet$?setFilter@ParamTesterMainWindow@@QAEXABVQString@@@Z$1 0040ec29 f   paramtestermainwindow.obj
 0001:0000dc32       __unwindfunclet$?setFilter@ParamTesterMainWindow@@QAEXABVQString@@@Z$2 0040ec32 f   paramtestermainwindow.obj
 0001:0000dc3b       __ehhandler$?setFilter@ParamTesterMainWindow@@QAEXABVQString@@@Z 0040ec3b f   paramtestermainwindow.obj
 0001:0000dc60       __unwindfunclet$?setValue@ParamTesterMainWindow@@QAEXVQString@@@Z$0 0040ec60 f   paramtestermainwindow.obj
 0001:0000dc69       __unwindfunclet$?setValue@ParamTesterMainWindow@@QAEXVQString@@@Z$1 0040ec69 f   paramtestermainwindow.obj
 0001:0000dc72       __unwindfunclet$?setValue@ParamTesterMainWindow@@QAEXVQString@@@Z$3 0040ec72 f   paramtestermainwindow.obj
 0001:0000dc7a       __unwindfunclet$?setValue@ParamTesterMainWindow@@QAEXVQString@@@Z$2 0040ec7a f   paramtestermainwindow.obj
 0001:0000dc82       __ehhandler$?setValue@ParamTesterMainWindow@@QAEXVQString@@@Z 0040ec82 f   paramtestermainwindow.obj
 0001:0000dcb0       __unwindfunclet$?withSlotSetToggled@ParamTesterMainWindow@@QAEX_N@Z$0 0040ecb0 f   paramtestermainwindow.obj
 0001:0000dcb9       __unwindfunclet$?withSlotSetToggled@ParamTesterMainWindow@@QAEX_N@Z$1 0040ecb9 f   paramtestermainwindow.obj
 0001:0000dcc2       __ehhandler$?withSlotSetToggled@ParamTesterMainWindow@@QAEX_N@Z 0040ecc2 f   paramtestermainwindow.obj
 0001:0000dce0       __unwindfunclet$??0ParamTesterMainWindowBase@@QAE@PAVQWidget@@PBDI@Z$0 0040ece0 f   paramtestermainwindowbase.obj
 0001:0000dce9       __unwindfunclet$??0ParamTesterMainWindowBase@@QAE@PAVQWidget@@PBDI@Z$1 0040ece9 f   paramtestermainwindowbase.obj
 0001:0000dcf4       __unwindfunclet$??0ParamTesterMainWindowBase@@QAE@PAVQWidget@@PBDI@Z$2 0040ecf4 f   paramtestermainwindowbase.obj
 0001:0000dcff       __unwindfunclet$??0ParamTesterMainWindowBase@@QAE@PAVQWidget@@PBDI@Z$3 0040ecff f   paramtestermainwindowbase.obj
 0001:0000dd0a       __unwindfunclet$??0ParamTesterMainWindowBase@@QAE@PAVQWidget@@PBDI@Z$4 0040ed0a f   paramtestermainwindowbase.obj
 0001:0000dd15       __unwindfunclet$??0ParamTesterMainWindowBase@@QAE@PAVQWidget@@PBDI@Z$5 0040ed15 f   paramtestermainwindowbase.obj
 0001:0000dd20       __unwindfunclet$??0ParamTesterMainWindowBase@@QAE@PAVQWidget@@PBDI@Z$6 0040ed20 f   paramtestermainwindowbase.obj
 0001:0000dd2b       __unwindfunclet$??0ParamTesterMainWindowBase@@QAE@PAVQWidget@@PBDI@Z$7 0040ed2b f   paramtestermainwindowbase.obj
 0001:0000dd36       __unwindfunclet$??0ParamTesterMainWindowBase@@QAE@PAVQWidget@@PBDI@Z$8 0040ed36 f   paramtestermainwindowbase.obj
 0001:0000dd41       __unwindfunclet$??0ParamTesterMainWindowBase@@QAE@PAVQWidget@@PBDI@Z$9 0040ed41 f   paramtestermainwindowbase.obj
 0001:0000dd4c       __unwindfunclet$??0ParamTesterMainWindowBase@@QAE@PAVQWidget@@PBDI@Z$10 0040ed4c f   paramtestermainwindowbase.obj
 0001:0000dd55       __unwindfunclet$??0ParamTesterMainWindowBase@@QAE@PAVQWidget@@PBDI@Z$11 0040ed55 f   paramtestermainwindowbase.obj
 0001:0000dd5e       __unwindfunclet$??0ParamTesterMainWindowBase@@QAE@PAVQWidget@@PBDI@Z$12 0040ed5e f   paramtestermainwindowbase.obj
 0001:0000dd67       __unwindfunclet$??0ParamTesterMainWindowBase@@QAE@PAVQWidget@@PBDI@Z$13 0040ed67 f   paramtestermainwindowbase.obj
 0001:0000dd72       __unwindfunclet$??0ParamTesterMainWindowBase@@QAE@PAVQWidget@@PBDI@Z$14 0040ed72 f   paramtestermainwindowbase.obj
 0001:0000dd7d       __unwindfunclet$??0ParamTesterMainWindowBase@@QAE@PAVQWidget@@PBDI@Z$15 0040ed7d f   paramtestermainwindowbase.obj
 0001:0000dd88       __unwindfunclet$??0ParamTesterMainWindowBase@@QAE@PAVQWidget@@PBDI@Z$16 0040ed88 f   paramtestermainwindowbase.obj
 0001:0000dd93       __unwindfunclet$??0ParamTesterMainWindowBase@@QAE@PAVQWidget@@PBDI@Z$17 0040ed93 f   paramtestermainwindowbase.obj
 0001:0000dd9c       __unwindfunclet$??0ParamTesterMainWindowBase@@QAE@PAVQWidget@@PBDI@Z$18 0040ed9c f   paramtestermainwindowbase.obj
 0001:0000dda7       __unwindfunclet$??0ParamTesterMainWindowBase@@QAE@PAVQWidget@@PBDI@Z$19 0040eda7 f   paramtestermainwindowbase.obj
 0001:0000ddb2       __unwindfunclet$??0ParamTesterMainWindowBase@@QAE@PAVQWidget@@PBDI@Z$20 0040edb2 f   paramtestermainwindowbase.obj
 0001:0000ddbd       __unwindfunclet$??0ParamTesterMainWindowBase@@QAE@PAVQWidget@@PBDI@Z$21 0040edbd f   paramtestermainwindowbase.obj
 0001:0000ddc8       __unwindfunclet$??0ParamTesterMainWindowBase@@QAE@PAVQWidget@@PBDI@Z$22 0040edc8 f   paramtestermainwindowbase.obj
 0001:0000ddd3       __unwindfunclet$??0ParamTesterMainWindowBase@@QAE@PAVQWidget@@PBDI@Z$23 0040edd3 f   paramtestermainwindowbase.obj
 0001:0000ddde       __unwindfunclet$??0ParamTesterMainWindowBase@@QAE@PAVQWidget@@PBDI@Z$24 0040edde f   paramtestermainwindowbase.obj
 0001:0000dde9       __unwindfunclet$??0ParamTesterMainWindowBase@@QAE@PAVQWidget@@PBDI@Z$25 0040ede9 f   paramtestermainwindowbase.obj
 0001:0000ddf4       __unwindfunclet$??0ParamTesterMainWindowBase@@QAE@PAVQWidget@@PBDI@Z$26 0040edf4 f   paramtestermainwindowbase.obj
 0001:0000ddff       __unwindfunclet$??0ParamTesterMainWindowBase@@QAE@PAVQWidget@@PBDI@Z$27 0040edff f   paramtestermainwindowbase.obj
 0001:0000de0a       __unwindfunclet$??0ParamTesterMainWindowBase@@QAE@PAVQWidget@@PBDI@Z$28 0040ee0a f   paramtestermainwindowbase.obj
 0001:0000de15       __unwindfunclet$??0ParamTesterMainWindowBase@@QAE@PAVQWidget@@PBDI@Z$29 0040ee15 f   paramtestermainwindowbase.obj
 0001:0000de20       __unwindfunclet$??0ParamTesterMainWindowBase@@QAE@PAVQWidget@@PBDI@Z$30 0040ee20 f   paramtestermainwindowbase.obj
 0001:0000de2b       __unwindfunclet$??0ParamTesterMainWindowBase@@QAE@PAVQWidget@@PBDI@Z$31 0040ee2b f   paramtestermainwindowbase.obj
 0001:0000de36       __unwindfunclet$??0ParamTesterMainWindowBase@@QAE@PAVQWidget@@PBDI@Z$32 0040ee36 f   paramtestermainwindowbase.obj
 0001:0000de41       __unwindfunclet$??0ParamTesterMainWindowBase@@QAE@PAVQWidget@@PBDI@Z$33 0040ee41 f   paramtestermainwindowbase.obj
 0001:0000de4c       __unwindfunclet$??0ParamTesterMainWindowBase@@QAE@PAVQWidget@@PBDI@Z$34 0040ee4c f   paramtestermainwindowbase.obj
 0001:0000de57       __unwindfunclet$??0ParamTesterMainWindowBase@@QAE@PAVQWidget@@PBDI@Z$35 0040ee57 f   paramtestermainwindowbase.obj
 0001:0000de62       __unwindfunclet$??0ParamTesterMainWindowBase@@QAE@PAVQWidget@@PBDI@Z$36 0040ee62 f   paramtestermainwindowbase.obj
 0001:0000de6d       __unwindfunclet$??0ParamTesterMainWindowBase@@QAE@PAVQWidget@@PBDI@Z$37 0040ee6d f   paramtestermainwindowbase.obj
 0001:0000de78       __unwindfunclet$??0ParamTesterMainWindowBase@@QAE@PAVQWidget@@PBDI@Z$38 0040ee78 f   paramtestermainwindowbase.obj
 0001:0000de83       __ehhandler$??0ParamTesterMainWindowBase@@QAE@PAVQWidget@@PBDI@Z 0040ee83 f   paramtestermainwindowbase.obj
 0001:0000dea0       __unwindfunclet$?languageChange@ParamTesterMainWindowBase@@MAEXXZ$0 0040eea0 f   paramtestermainwindowbase.obj
 0001:0000dea9       __unwindfunclet$?languageChange@ParamTesterMainWindowBase@@MAEXXZ$1 0040eea9 f   paramtestermainwindowbase.obj
 0001:0000deb2       __unwindfunclet$?languageChange@ParamTesterMainWindowBase@@MAEXXZ$2 0040eeb2 f   paramtestermainwindowbase.obj
 0001:0000debb       __unwindfunclet$?languageChange@ParamTesterMainWindowBase@@MAEXXZ$3 0040eebb f   paramtestermainwindowbase.obj
 0001:0000dec4       __unwindfunclet$?languageChange@ParamTesterMainWindowBase@@MAEXXZ$4 0040eec4 f   paramtestermainwindowbase.obj
 0001:0000decd       __unwindfunclet$?languageChange@ParamTesterMainWindowBase@@MAEXXZ$5 0040eecd f   paramtestermainwindowbase.obj
 0001:0000ded6       __unwindfunclet$?languageChange@ParamTesterMainWindowBase@@MAEXXZ$6 0040eed6 f   paramtestermainwindowbase.obj
 0001:0000dedf       __unwindfunclet$?languageChange@ParamTesterMainWindowBase@@MAEXXZ$7 0040eedf f   paramtestermainwindowbase.obj
 0001:0000dee8       __unwindfunclet$?languageChange@ParamTesterMainWindowBase@@MAEXXZ$8 0040eee8 f   paramtestermainwindowbase.obj
 0001:0000def1       __unwindfunclet$?languageChange@ParamTesterMainWindowBase@@MAEXXZ$9 0040eef1 f   paramtestermainwindowbase.obj
 0001:0000defa       __unwindfunclet$?languageChange@ParamTesterMainWindowBase@@MAEXXZ$10 0040eefa f   paramtestermainwindowbase.obj
 0001:0000df03       __unwindfunclet$?languageChange@ParamTesterMainWindowBase@@MAEXXZ$11 0040ef03 f   paramtestermainwindowbase.obj
 0001:0000df0c       __unwindfunclet$?languageChange@ParamTesterMainWindowBase@@MAEXXZ$12 0040ef0c f   paramtestermainwindowbase.obj
 0001:0000df15       __unwindfunclet$?languageChange@ParamTesterMainWindowBase@@MAEXXZ$13 0040ef15 f   paramtestermainwindowbase.obj
 0001:0000df1e       __unwindfunclet$?languageChange@ParamTesterMainWindowBase@@MAEXXZ$14 0040ef1e f   paramtestermainwindowbase.obj
 0001:0000df27       __unwindfunclet$?languageChange@ParamTesterMainWindowBase@@MAEXXZ$15 0040ef27 f   paramtestermainwindowbase.obj
 0001:0000df30       __unwindfunclet$?languageChange@ParamTesterMainWindowBase@@MAEXXZ$16 0040ef30 f   paramtestermainwindowbase.obj
 0001:0000df39       __unwindfunclet$?languageChange@ParamTesterMainWindowBase@@MAEXXZ$17 0040ef39 f   paramtestermainwindowbase.obj
 0001:0000df42       __unwindfunclet$?languageChange@ParamTesterMainWindowBase@@MAEXXZ$18 0040ef42 f   paramtestermainwindowbase.obj
 0001:0000df4b       __unwindfunclet$?languageChange@ParamTesterMainWindowBase@@MAEXXZ$19 0040ef4b f   paramtestermainwindowbase.obj
 0001:0000df54       __unwindfunclet$?languageChange@ParamTesterMainWindowBase@@MAEXXZ$20 0040ef54 f   paramtestermainwindowbase.obj
 0001:0000df5d       __unwindfunclet$?languageChange@ParamTesterMainWindowBase@@MAEXXZ$21 0040ef5d f   paramtestermainwindowbase.obj
 0001:0000df66       __unwindfunclet$?languageChange@ParamTesterMainWindowBase@@MAEXXZ$22 0040ef66 f   paramtestermainwindowbase.obj
 0001:0000df6f       __unwindfunclet$?languageChange@ParamTesterMainWindowBase@@MAEXXZ$23 0040ef6f f   paramtestermainwindowbase.obj
 0001:0000df78       __unwindfunclet$?languageChange@ParamTesterMainWindowBase@@MAEXXZ$24 0040ef78 f   paramtestermainwindowbase.obj
 0001:0000df81       __unwindfunclet$?languageChange@ParamTesterMainWindowBase@@MAEXXZ$25 0040ef81 f   paramtestermainwindowbase.obj
 0001:0000df8a       __unwindfunclet$?languageChange@ParamTesterMainWindowBase@@MAEXXZ$26 0040ef8a f   paramtestermainwindowbase.obj
 0001:0000df93       __unwindfunclet$?languageChange@ParamTesterMainWindowBase@@MAEXXZ$27 0040ef93 f   paramtestermainwindowbase.obj
 0001:0000df9c       __unwindfunclet$?languageChange@ParamTesterMainWindowBase@@MAEXXZ$28 0040ef9c f   paramtestermainwindowbase.obj
 0001:0000dfa5       __unwindfunclet$?languageChange@ParamTesterMainWindowBase@@MAEXXZ$29 0040efa5 f   paramtestermainwindowbase.obj
 0001:0000dfae       __unwindfunclet$?languageChange@ParamTesterMainWindowBase@@MAEXXZ$30 0040efae f   paramtestermainwindowbase.obj
 0001:0000dfb7       __unwindfunclet$?languageChange@ParamTesterMainWindowBase@@MAEXXZ$31 0040efb7 f   paramtestermainwindowbase.obj
 0001:0000dfc0       __unwindfunclet$?languageChange@ParamTesterMainWindowBase@@MAEXXZ$32 0040efc0 f   paramtestermainwindowbase.obj
 0001:0000dfc9       __unwindfunclet$?languageChange@ParamTesterMainWindowBase@@MAEXXZ$33 0040efc9 f   paramtestermainwindowbase.obj
 0001:0000dfd2       __unwindfunclet$?languageChange@ParamTesterMainWindowBase@@MAEXXZ$34 0040efd2 f   paramtestermainwindowbase.obj
 0001:0000dfdb       __unwindfunclet$?languageChange@ParamTesterMainWindowBase@@MAEXXZ$35 0040efdb f   paramtestermainwindowbase.obj
 0001:0000dfe4       __ehhandler$?languageChange@ParamTesterMainWindowBase@@MAEXXZ 0040efe4 f   paramtestermainwindowbase.obj
 0001:0000e000       __unwindfunclet$??0ccClient@@QAE@PAVIccClientCallback@@ABV?$basic_string@DU?$char_traits@D@std@@V?$allocator@D@2@@std@@@Z$0 0040f000 f   ccLibrary_vs2013:ccClient.obj
 0001:0000e00b       __unwindfunclet$??0ccClient@@QAE@PAVIccClientCallback@@ABV?$basic_string@DU?$char_traits@D@std@@V?$allocator@D@2@@std@@@Z$1 0040f00b f   ccLibrary_vs2013:ccClient.obj
 0001:0000e019       __ehhandler$??0ccClient@@QAE@PAVIccClientCallback@@ABV?$basic_string@DU?$char_traits@D@std@@V?$allocator@D@2@@std@@@Z 0040f019 f   ccLibrary_vs2013:ccClient.obj
 0001:0000e050       __unwindfunclet$?WndProc@ccClient@@CGJPAUHWND__@@IIJ@Z$5 0040f050 f   ccLibrary_vs2013:ccClient.obj
 0001:0000e058       __unwindfunclet$?WndProc@ccClient@@CGJPAUHWND__@@IIJ@Z$6 0040f058 f   ccLibrary_vs2013:ccClient.obj
 0001:0000e063       __unwindfunclet$?WndProc@ccClient@@CGJPAUHWND__@@IIJ@Z$1 0040f063 f   ccLibrary_vs2013:ccClient.obj
 0001:0000e06b       __unwindfunclet$?WndProc@ccClient@@CGJPAUHWND__@@IIJ@Z$2 0040f06b f   ccLibrary_vs2013:ccClient.obj
 0001:0000e076       __unwindfunclet$?WndProc@ccClient@@CGJPAUHWND__@@IIJ@Z$3 0040f076 f   ccLibrary_vs2013:ccClient.obj
 0001:0000e07e       __unwindfunclet$?WndProc@ccClient@@CGJPAUHWND__@@IIJ@Z$4 0040f07e f   ccLibrary_vs2013:ccClient.obj
 0001:0000e086       __unwindfunclet$?WndProc@ccClient@@CGJPAUHWND__@@IIJ@Z$7 0040f086 f   ccLibrary_vs2013:ccClient.obj
 0001:0000e08e       __unwindfunclet$?WndProc@ccClient@@CGJPAUHWND__@@IIJ@Z$0 0040f08e f   ccLibrary_vs2013:ccClient.obj
 0001:0000e099       __ehhandler$?WndProc@ccClient@@CGJPAUHWND__@@IIJ@Z 0040f099 f   ccLibrary_vs2013:ccClient.obj
 0001:0000e0d0       __unwindfunclet$?devicePoll@ccClient@@AAEXDHHH_N@Z$0 0040f0d0 f   ccLibrary_vs2013:ccClient.obj
 0001:0000e0db       __ehhandler$?devicePoll@ccClient@@AAEXDHHH_N@Z 0040f0db f   ccLibrary_vs2013:ccClient.obj
 0001:0000e110       __unwindfunclet$?push_back@?$deque@V?$basic_string@DU?$char_traits@D@std@@V?$allocator@D@2@@std@@V?$allocator@V?$basic_string@DU?$char_traits@D@std@@V?$allocator@D@2@@std@@@2@@std@@QAEXABV?$basic_string@DU?$char_traits@D@std@@V?$allocator@D@2@@2@@Z$0 0040f110 f   ccLibrary_vs2013:ccClient.obj
 0001:0000e121       __ehhandler$?push_back@?$deque@V?$basic_string@DU?$char_traits@D@std@@V?$allocator@D@2@@std@@V?$allocator@V?$basic_string@DU?$char_traits@D@std@@V?$allocator@D@2@@std@@@2@@std@@QAEXABV?$basic_string@DU?$char_traits@D@std@@V?$allocator@D@2@@2@@Z 0040f121 f   ccLibrary_vs2013:ccClient.obj
 0001:0000e140       __unwindfunclet$??$?HDU?$char_traits@D@std@@V?$allocator@D@1@@std@@YA?AV?$basic_string@DU?$char_traits@D@std@@V?$allocator@D@2@@0@ABV10@PBD@Z$0 0040f140 f   ccLibrary_vs2013:ccCheck.obj
 0001:0000e140       __unwindfunclet$??$?HDU?$char_traits@D@std@@V?$allocator@D@1@@std@@YA?AV?$basic_string@DU?$char_traits@D@std@@V?$allocator@D@2@@0@PBDABV10@@Z$0 0040f140 f   ccLibrary_vs2013:ccCheck.obj
 0001:0000e159       __ehhandler$??$?HDU?$char_traits@D@std@@V?$allocator@D@1@@std@@YA?AV?$basic_string@DU?$char_traits@D@std@@V?$allocator@D@2@@0@PBDABV10@@Z 0040f159 f   ccLibrary_vs2013:ccCheck.obj
 0001:0000e159       __ehhandler$??$?HDU?$char_traits@D@std@@V?$allocator@D@1@@std@@YA?AV?$basic_string@DU?$char_traits@D@std@@V?$allocator@D@2@@0@ABV10@PBD@Z 0040f159 f   ccLibrary_vs2013:ccCheck.obj
 0001:0000e180       __unwindfunclet$?checkDatabase@ccCheck@@QAE_NII@Z$1 0040f180 f   ccLibrary_vs2013:ccCheck.obj
 0001:0000e188       __ehhandler$?checkDatabase@ccCheck@@QAE_NII@Z 0040f188 f   ccLibrary_vs2013:ccCheck.obj
 0001:0000e1b0       __unwindfunclet$?checkIndexRange@ccCheck@@QAE_NII@Z$0 0040f1b0 f   ccLibrary_vs2013:ccCheck.obj
 0001:0000e1b8       __ehhandler$?checkIndexRange@ccCheck@@QAE_NII@Z 0040f1b8 f   ccLibrary_vs2013:ccCheck.obj
 0001:0000e1e0       __unwindfunclet$?checkSource@ccCheck@@QAE_NH@Z$0 0040f1e0 f   ccLibrary_vs2013:ccCheck.obj
 0001:0000e1e0       __unwindfunclet$?checkDevice@ccCheck@@QAE_NI@Z$0 0040f1e0 f   ccLibrary_vs2013:ccCheck.obj
 0001:0000e1e0       __unwindfunclet$?checkIndex@ccCheck@@QAE_NI@Z$0 0040f1e0 f   ccLibrary_vs2013:ccCheck.obj
 0001:0000e1e8       __unwindfunclet$?checkDevice@ccCheck@@QAE_NI@Z$1 0040f1e8 f   ccLibrary_vs2013:ccCheck.obj
 0001:0000e1e8       __unwindfunclet$?checkIndex@ccCheck@@QAE_NI@Z$1 0040f1e8 f   ccLibrary_vs2013:ccCheck.obj
 0001:0000e1e8       __unwindfunclet$?checkSource@ccCheck@@QAE_NH@Z$1 0040f1e8 f   ccLibrary_vs2013:ccCheck.obj
 0001:0000e1f0       __ehhandler$?checkSource@ccCheck@@QAE_NH@Z 0040f1f0 f   ccLibrary_vs2013:ccCheck.obj
 0001:0000e1f0       __ehhandler$?checkDevice@ccCheck@@QAE_NI@Z 0040f1f0 f   ccLibrary_vs2013:ccCheck.obj
 0001:0000e1f0       __ehhandler$?checkIndex@ccCheck@@QAE_NI@Z 0040f1f0 f   ccLibrary_vs2013:ccCheck.obj
 0001:0000e220       __unwindfunclet$?checkString@ccCheck@@QAE_NABV?$basic_string@DU?$char_traits@D@std@@V?$allocator@D@2@@std@@@Z$0 0040f220 f   ccLibrary_vs2013:ccCheck.obj
 0001:0000e228       __ehhandler$?checkString@ccCheck@@QAE_NABV?$basic_string@DU?$char_traits@D@std@@V?$allocator@D@2@@std@@@Z 0040f228 f   ccLibrary_vs2013:ccCheck.obj
 0001:0000e250       __unwindfunclet$?checkWorkstation@ccCheck@@QAE_NI@Z$0 0040f250 f   ccLibrary_vs2013:ccCheck.obj
 0001:0000e258       __unwindfunclet$?checkWorkstation@ccCheck@@QAE_NI@Z$1 0040f258 f   ccLibrary_vs2013:ccCheck.obj
 0001:0000e260       __ehhandler$?checkWorkstation@ccCheck@@QAE_NI@Z 0040f260 f   ccLibrary_vs2013:ccCheck.obj
 0001:0000e290       __unwindfunclet$?log@ccCheck@@QAEXABV?$basic_string@DU?$char_traits@D@std@@V?$allocator@D@2@@std@@@Z$0 0040f290 f   ccLibrary_vs2013:ccCheck.obj
 0001:0000e298       __unwindfunclet$?log@ccCheck@@QAEXABV?$basic_string@DU?$char_traits@D@std@@V?$allocator@D@2@@std@@@Z$1 0040f298 f   ccLibrary_vs2013:ccCheck.obj
 0001:0000e2a0       __ehhandler$?log@ccCheck@@QAEXABV?$basic_string@DU?$char_traits@D@std@@V?$allocator@D@2@@std@@@Z 0040f2a0 f   ccLibrary_vs2013:ccCheck.obj
 0001:0000e2d0       __unwindfunclet$?getDevPath@ccConfig@@SA?AV?$basic_string@DU?$char_traits@D@std@@V?$allocator@D@2@@std@@XZ$0 0040f2d0 f   ccLibrary_vs2013:ccConfig.obj
 0001:0000e2db       __unwindfunclet$?getDevPath@ccConfig@@SA?AV?$basic_string@DU?$char_traits@D@std@@V?$allocator@D@2@@std@@XZ$1 0040f2db f   ccLibrary_vs2013:ccConfig.obj
 0001:0000e2e6       __unwindfunclet$?getDevPath@ccConfig@@SA?AV?$basic_string@DU?$char_traits@D@std@@V?$allocator@D@2@@std@@XZ$2 0040f2e6 f   ccLibrary_vs2013:ccConfig.obj
 0001:0000e2f1       __ehhandler$?getDevPath@ccConfig@@SA?AV?$basic_string@DU?$char_traits@D@std@@V?$allocator@D@2@@std@@XZ 0040f2f1 f   ccLibrary_vs2013:ccConfig.obj
 0001:0000e320       __unwindfunclet$?getInt@ccConfig@@SAHABV?$basic_string@DU?$char_traits@D@std@@V?$allocator@D@2@@std@@00H_N@Z$0 0040f320 f   ccLibrary_vs2013:ccConfig.obj
 0001:0000e328       __unwindfunclet$?getInt@ccConfig@@SAHABV?$basic_string@DU?$char_traits@D@std@@V?$allocator@D@2@@std@@00H_N@Z$1 0040f328 f   ccLibrary_vs2013:ccConfig.obj
 0001:0000e333       __ehhandler$?getInt@ccConfig@@SAHABV?$basic_string@DU?$char_traits@D@std@@V?$allocator@D@2@@std@@00H_N@Z 0040f333 f   ccLibrary_vs2013:ccConfig.obj
 0001:0000e360       __unwindfunclet$?workstation@ccConfig@@SAHXZ$0 0040f360 f   ccLibrary_vs2013:ccConfig.obj
 0001:0000e368       __unwindfunclet$?workstation@ccConfig@@SAHXZ$1 0040f368 f   ccLibrary_vs2013:ccConfig.obj
 0001:0000e370       __unwindfunclet$?workstation@ccConfig@@SAHXZ$2 0040f370 f   ccLibrary_vs2013:ccConfig.obj
 0001:0000e378       __unwindfunclet$?workstation@ccConfig@@SAHXZ$3 0040f378 f   ccLibrary_vs2013:ccConfig.obj
 0001:0000e380       __unwindfunclet$?workstation@ccConfig@@SAHXZ$4 0040f380 f   ccLibrary_vs2013:ccConfig.obj
 0001:0000e388       __unwindfunclet$?workstation@ccConfig@@SAHXZ$5 0040f388 f   ccLibrary_vs2013:ccConfig.obj
 0001:0000e390       __unwindfunclet$?workstation@ccConfig@@SAHXZ$6 0040f390 f   ccLibrary_vs2013:ccConfig.obj
 0001:0000e39b       __unwindfunclet$?workstation@ccConfig@@SAHXZ$7 0040f39b f   ccLibrary_vs2013:ccConfig.obj
 0001:0000e3a6       __unwindfunclet$?workstation@ccConfig@@SAHXZ$8 0040f3a6 f   ccLibrary_vs2013:ccConfig.obj
 0001:0000e3ae       __ehhandler$?workstation@ccConfig@@SAHXZ 0040f3ae f   ccLibrary_vs2013:ccConfig.obj
 0001:0000e3e0       ??__F?_Generic_object@?$_Error_objects@H@std@@2V_Generic_error_category@2@A@@YAXXZ 0040f3e0 f   main.obj
 0001:0000e3f0       ??__F?_Iostream_object@?$_Error_objects@H@std@@2V_Iostream_error_category@2@A@@YAXXZ 0040f3f0 f   main.obj
 0001:0000e400       ??__F?_System_object@?$_Error_objects@H@std@@2V_System_error_category@2@A@@YAXXZ 0040f400 f   main.obj
 0001:0000e410       ??__FcleanUp_ParamTesterMainWindow@@YAXXZ 0040f410 f   moc_paramtestermainwindow.obj
 0001:0000e420       ??__FcleanUp_ParamTesterMainWindowBase@@YAXXZ 0040f420 f   moc_paramtestermainwindowbase.obj
 0002:00000f80       _pcppinit                  00410f80     MSVCRT:crtexew.obj
 0002:00000f84       ?_Generic_object$initializer$@?$_Error_objects@H@std@@2P6AXXZA 00410f84     main.obj
 0002:00000f88       ?_Iostream_object$initializer$@?$_Error_objects@H@std@@2P6AXXZA 00410f88     main.obj
 0002:00000f8c       ?_System_object$initializer$@?$_Error_objects@H@std@@2P6AXXZA 00410f8c     main.obj
 0002:00000f90       _cleanUp_ParamTesterMainWindow$initializer$ 00410f90     moc_paramtestermainwindow.obj
 0002:00000f94       _cleanUp_ParamTesterMainWindowBase$initializer$ 00410f94     moc_paramtestermainwindowbase.obj
 0002:00000fa0       _pcinit                    00410fa0     MSVCRT:crtexew.obj
 0002:00000fa4       _pinit                     00410fa4     MSVCRT:atonexit.obj
 0002:00000fa8       _pinit                     00410fa8     MSVCRT:crtexew.obj
 0002:0000340c       ?slot_0@?3??staticMetaObject@ParamTesterMainWindow@@SAPAVQMetaObject@@XZ@4UQUMethod@@B 0041340c     moc_paramtestermainwindow.obj
 0002:00003438       ?slot_1@?3??staticMetaObject@ParamTesterMainWindow@@SAPAVQMetaObject@@XZ@4UQUMethod@@B 00413438     moc_paramtestermainwindow.obj
 0002:00003454       ?slot_2@?3??staticMetaObject@ParamTesterMainWindow@@SAPAVQMetaObject@@XZ@4UQUMethod@@B 00413454     moc_paramtestermainwindow.obj
 0002:0000346c       ?slot_3@?3??staticMetaObject@ParamTesterMainWindow@@SAPAVQMetaObject@@XZ@4UQUMethod@@B 0041346c     moc_paramtestermainwindow.obj
 0002:00003480       ?slot_4@?3??staticMetaObject@ParamTesterMainWindow@@SAPAVQMetaObject@@XZ@4UQUMethod@@B 00413480     moc_paramtestermainwindow.obj
 0002:0000349c       ?slot_5@?3??staticMetaObject@ParamTesterMainWindow@@SAPAVQMetaObject@@XZ@4UQUMethod@@B 0041349c     moc_paramtestermainwindow.obj
 0002:000034c0       ?slot_6@?3??staticMetaObject@ParamTesterMainWindow@@SAPAVQMetaObject@@XZ@4UQUMethod@@B 004134c0     moc_paramtestermainwindow.obj
 0002:000034e0       ?slot_7@?3??staticMetaObject@ParamTesterMainWindow@@SAPAVQMetaObject@@XZ@4UQUMethod@@B 004134e0     moc_paramtestermainwindow.obj
 0002:000034fc       ?slot_8@?3??staticMetaObject@ParamTesterMainWindow@@SAPAVQMetaObject@@XZ@4UQUMethod@@B 004134fc     moc_paramtestermainwindow.obj
 0002:00003514       ?slot_9@?3??staticMetaObject@ParamTesterMainWindow@@SAPAVQMetaObject@@XZ@4UQUMethod@@B 00413514     moc_paramtestermainwindow.obj
 0002:00003534       ?slot_10@?3??staticMetaObject@ParamTesterMainWindow@@SAPAVQMetaObject@@XZ@4UQUMethod@@B 00413534     moc_paramtestermainwindow.obj
 0002:00003558       ?slot_tbl@?3??staticMetaObject@ParamTesterMainWindow@@SAPAVQMetaObject@@XZ@4QBUQMetaData@@B 00413558     moc_paramtestermainwindow.obj
 0002:00003714       ?slot_0@?3??staticMetaObject@ParamTesterMainWindowBase@@SAPAVQMetaObject@@XZ@4UQUMethod@@B 00413714     moc_paramtestermainwindowbase.obj
 0002:00003730       ?slot_tbl@?3??staticMetaObject@ParamTesterMainWindowBase@@SAPAVQMetaObject@@XZ@4QBUQMetaData@@B 00413730     moc_paramtestermainwindowbase.obj
 0002:00005c5c       _GS_ExceptionPointers      00415c5c     MSVCRT:gs_report.obj
 0002:00006d68       __catchsym$?_Copy@?$basic_string@DU?$char_traits@D@std@@V?$allocator@D@2@@std@@QAEXII@Z$5 00416d68     main.obj
 0002:00006d78       __catchsym$?_Copy@?$basic_string@DU?$char_traits@D@std@@V?$allocator@D@2@@std@@QAEXII@Z$4 00416d78     main.obj
 0002:00006d88       __unwindtable$?_Copy@?$basic_string@DU?$char_traits@D@std@@V?$allocator@D@2@@std@@QAEXII@Z 00416d88     main.obj
 0002:00006da8       __ehfuncinfo$?_Copy@?$basic_string@DU?$char_traits@D@std@@V?$allocator@D@2@@std@@QAEXII@Z 00416da8     main.obj
 0002:00006dcc       __tryblocktable$?_Copy@?$basic_string@DU?$char_traits@D@std@@V?$allocator@D@2@@std@@QAEXII@Z 00416dcc     main.obj
 0002:00006df4       __ehfuncinfo$_main         00416df4     main.obj
 0002:00006e18       __unwindtable$_main        00416e18     main.obj
 0002:00006e48       __unwindtable$?compare@myListViewItem@@UBEHPAVQListViewItem@@H_N@Z 00416e48     myListViewItem.obj
 0002:00006e68       __ehfuncinfo$?compare@myListViewItem@@UBEHPAVQListViewItem@@H_N@Z 00416e68     myListViewItem.obj
 0002:00006e8c       __ehfuncinfo$??0myListViewItem@@QAE@PAVQListView@@VQString@@1111111@Z 00416e8c     myListViewItem.obj
 0002:00006eb0       __unwindtable$??0myListViewItem@@QAE@PAVQListView@@VQString@@1111111@Z 00416eb0     myListViewItem.obj
 0002:00006f28       __ehfuncinfo$?loadInstances@ParamTesterMainWindow@@QAE_NXZ 00416f28     paramtestermainwindow.obj
 0002:00006f4c       __unwindtable$?loadInstances@ParamTesterMainWindow@@QAE_NXZ 00416f4c     paramtestermainwindow.obj
 0002:000070d4       __ehfuncinfo$??0ParamTesterMainWindow@@QAE@PAVQWidget@@PBDI@Z 004170d4     paramtestermainwindow.obj
 0002:000070f8       __unwindtable$??0ParamTesterMainWindow@@QAE@PAVQWidget@@PBDI@Z 004170f8     paramtestermainwindow.obj
 0002:000071c8       __ehfuncinfo$??1ParamTesterMainWindow@@UAE@XZ 004171c8     paramtestermainwindow.obj
 0002:000071ec       __unwindtable$??1ParamTesterMainWindow@@UAE@XZ 004171ec     paramtestermainwindow.obj
 0002:00007224       __unwindtable$?cccInfoRevertive@ParamTesterMainWindow@@UAEXHHABV?$basic_string@DU?$char_traits@D@std@@V?$allocator@D@2@@std@@@Z 00417224     paramtestermainwindow.obj
 0002:0000722c       __ehfuncinfo$?cccInfoRevertive@ParamTesterMainWindow@@UAEXHHABV?$basic_string@DU?$char_traits@D@std@@V?$allocator@D@2@@std@@@Z 0041722c     paramtestermainwindow.obj
 0002:00007250       __unwindtable$?cccGpiRevertive@ParamTesterMainWindow@@UAEXHH_N@Z 00417250     paramtestermainwindow.obj
 0002:00007250       __unwindtable$?cccRtrRevertive@ParamTesterMainWindow@@UAEXHHH@Z 00417250     paramtestermainwindow.obj
 0002:00007268       __ehfuncinfo$?cccRtrRevertive@ParamTesterMainWindow@@UAEXHHH@Z 00417268     paramtestermainwindow.obj
 0002:00007268       __ehfuncinfo$?cccGpiRevertive@ParamTesterMainWindow@@UAEXHH_N@Z 00417268     paramtestermainwindow.obj
 0002:0000728c       __ehfuncinfo$?about@ParamTesterMainWindow@@QAEXXZ 0041728c     paramtestermainwindow.obj
 0002:000072b0       __unwindtable$?about@ParamTesterMainWindow@@QAEXXZ 004172b0     paramtestermainwindow.obj
 0002:00007320       __ehfuncinfo$?setEnteredValue@ParamTesterMainWindow@@QAEXXZ 00417320     paramtestermainwindow.obj
 0002:00007344       __unwindtable$?setEnteredValue@ParamTesterMainWindow@@QAEXXZ 00417344     paramtestermainwindow.obj
 0002:00007374       __unwindtable$?setFilter@ParamTesterMainWindow@@QAEXABVQString@@@Z 00417374     paramtestermainwindow.obj
 0002:0000738c       __ehfuncinfo$?setFilter@ParamTesterMainWindow@@QAEXABVQString@@@Z 0041738c     paramtestermainwindow.obj
 0002:000073b0       __unwindtable$?setValue@ParamTesterMainWindow@@QAEXVQString@@@Z 004173b0     paramtestermainwindow.obj
 0002:000073d0       __ehfuncinfo$?setValue@ParamTesterMainWindow@@QAEXVQString@@@Z 004173d0     paramtestermainwindow.obj
 0002:000073f4       __ehfuncinfo$?selectParam@ParamTesterMainWindow@@QAEXPAVQListViewItem@@@Z 004173f4     paramtestermainwindow.obj
 0002:00007418       __unwindtable$?selectParam@ParamTesterMainWindow@@QAEXPAVQListViewItem@@@Z 00417418     paramtestermainwindow.obj
 0002:00007610       __ehfuncinfo$?selectInstance@ParamTesterMainWindow@@QAEXPAVQListViewItem@@@Z 00417610     paramtestermainwindow.obj
 0002:00007634       __unwindtable$?selectInstance@ParamTesterMainWindow@@QAEXPAVQListViewItem@@@Z 00417634     paramtestermainwindow.obj
 0002:000076bc       __unwindtable$?withSlotSetToggled@ParamTesterMainWindow@@QAEX_N@Z 004176bc     paramtestermainwindow.obj
 0002:000076cc       __ehfuncinfo$?withSlotSetToggled@ParamTesterMainWindow@@QAEX_N@Z 004176cc     paramtestermainwindow.obj
 0002:000076f0       __ehfuncinfo$?LoadTemplate@ParamTesterMainWindow@@AAEXVQString@@@Z 004176f0     paramtestermainwindow.obj
 0002:00007714       __unwindtable$?LoadTemplate@ParamTesterMainWindow@@AAEXVQString@@@Z 00417714     paramtestermainwindow.obj
 0002:0000780c       __ehfuncinfo$?setDevSlot@ParamTesterMainWindow@@AAE_NVQString@@0@Z 0041780c     paramtestermainwindow.obj
 0002:00007830       __unwindtable$?setDevSlot@ParamTesterMainWindow@@AAE_NVQString@@0@Z 00417830     paramtestermainwindow.obj
 0002:00007a60       __ehfuncinfo$?loadDeviceType@ParamTesterMainWindow@@AAE_NVQString@@@Z 00417a60     paramtestermainwindow.obj
 0002:00007a84       __unwindtable$?loadDeviceType@ParamTesterMainWindow@@AAE_NVQString@@@Z 00417a84     paramtestermainwindow.obj
 0002:00007b84       __unwindtable$??_G?$QPtrList@VQPushButton@@@@UAEPAXI@Z 00417b84     paramtestermainwindow.obj
 0002:00007b8c       __ehfuncinfo$??_G?$QPtrList@VQPushButton@@@@UAEPAXI@Z 00417b8c     paramtestermainwindow.obj
 0002:00007bb0       __ehfuncinfo$??0ParamTesterMainWindowBase@@QAE@PAVQWidget@@PBDI@Z 00417bb0     paramtestermainwindowbase.obj
 0002:00007bd4       __unwindtable$??0ParamTesterMainWindowBase@@QAE@PAVQWidget@@PBDI@Z 00417bd4     paramtestermainwindowbase.obj
 0002:00007d0c       __ehfuncinfo$?languageChange@ParamTesterMainWindowBase@@MAEXXZ 00417d0c     paramtestermainwindowbase.obj
 0002:00007d30       __unwindtable$?languageChange@ParamTesterMainWindowBase@@MAEXXZ 00417d30     paramtestermainwindowbase.obj
 0002:00007e50       __unwindtable$??0ccClient@@QAE@PAVIccClientCallback@@ABV?$basic_string@DU?$char_traits@D@std@@V?$allocator@D@2@@std@@@Z 00417e50     ccLibrary_vs2013:ccClient.obj
 0002:00007e60       __ehfuncinfo$??0ccClient@@QAE@PAVIccClientCallback@@ABV?$basic_string@DU?$char_traits@D@std@@V?$allocator@D@2@@std@@@Z 00417e60     ccLibrary_vs2013:ccClient.obj
 0002:00007e84       __unwindtable$?push_back@?$deque@V?$basic_string@DU?$char_traits@D@std@@V?$allocator@D@2@@std@@V?$allocator@V?$basic_string@DU?$char_traits@D@std@@V?$allocator@D@2@@std@@@2@@std@@QAEXABV?$basic_string@DU?$char_traits@D@std@@V?$allocator@D@2@@2@@Z 00417e84     ccLibrary_vs2013:ccClient.obj
 0002:00007e8c       __ehfuncinfo$?push_back@?$deque@V?$basic_string@DU?$char_traits@D@std@@V?$allocator@D@2@@std@@V?$allocator@V?$basic_string@DU?$char_traits@D@std@@V?$allocator@D@2@@std@@@2@@std@@QAEXABV?$basic_string@DU?$char_traits@D@std@@V?$allocator@D@2@@2@@Z 00417e8c     ccLibrary_vs2013:ccClient.obj
 0002:00007eb0       __ehfuncinfo$?WndProc@ccClient@@CGJPAUHWND__@@IIJ@Z 00417eb0     ccLibrary_vs2013:ccClient.obj
 0002:00007ed4       __unwindtable$?WndProc@ccClient@@CGJPAUHWND__@@IIJ@Z 00417ed4     ccLibrary_vs2013:ccClient.obj
 0002:00007f14       __unwindtable$?devicePoll@ccClient@@AAEXDHHH_N@Z 00417f14     ccLibrary_vs2013:ccClient.obj
 0002:00007f1c       __ehfuncinfo$?devicePoll@ccClient@@AAEXDHHH_N@Z 00417f1c     ccLibrary_vs2013:ccClient.obj
 0002:00007f40       __unwindtable$?checkDevice@ccCheck@@QAE_NI@Z 00417f40     ccLibrary_vs2013:ccCheck.obj
 0002:00007f40       __unwindtable$?checkIndex@ccCheck@@QAE_NI@Z 00417f40     ccLibrary_vs2013:ccCheck.obj
 0002:00007f40       __unwindtable$?checkSource@ccCheck@@QAE_NH@Z 00417f40     ccLibrary_vs2013:ccCheck.obj
 0002:00007f50       __ehfuncinfo$?checkIndex@ccCheck@@QAE_NI@Z 00417f50     ccLibrary_vs2013:ccCheck.obj
 0002:00007f50       __ehfuncinfo$?checkSource@ccCheck@@QAE_NH@Z 00417f50     ccLibrary_vs2013:ccCheck.obj
 0002:00007f50       __ehfuncinfo$?checkDevice@ccCheck@@QAE_NI@Z 00417f50     ccLibrary_vs2013:ccCheck.obj
 0002:00007f74       __unwindtable$?checkIndexRange@ccCheck@@QAE_NII@Z 00417f74     ccLibrary_vs2013:ccCheck.obj
 0002:00007f7c       __ehfuncinfo$?checkIndexRange@ccCheck@@QAE_NII@Z 00417f7c     ccLibrary_vs2013:ccCheck.obj
 0002:00007fa0       __unwindtable$?checkDatabase@ccCheck@@QAE_NII@Z 00417fa0     ccLibrary_vs2013:ccCheck.obj
 0002:00007fb0       __ehfuncinfo$?checkDatabase@ccCheck@@QAE_NII@Z 00417fb0     ccLibrary_vs2013:ccCheck.obj
 0002:00007fd4       __unwindtable$?checkString@ccCheck@@QAE_NABV?$basic_string@DU?$char_traits@D@std@@V?$allocator@D@2@@std@@@Z 00417fd4     ccLibrary_vs2013:ccCheck.obj
 0002:00007fdc       __ehfuncinfo$?checkString@ccCheck@@QAE_NABV?$basic_string@DU?$char_traits@D@std@@V?$allocator@D@2@@std@@@Z 00417fdc     ccLibrary_vs2013:ccCheck.obj
 0002:00008000       __unwindtable$?checkWorkstation@ccCheck@@QAE_NI@Z 00418000     ccLibrary_vs2013:ccCheck.obj
 0002:00008010       __ehfuncinfo$?checkWorkstation@ccCheck@@QAE_NI@Z 00418010     ccLibrary_vs2013:ccCheck.obj
 0002:00008034       __unwindtable$?log@ccCheck@@QAEXABV?$basic_string@DU?$char_traits@D@std@@V?$allocator@D@2@@std@@@Z 00418034     ccLibrary_vs2013:ccCheck.obj
 0002:00008044       __ehfuncinfo$?log@ccCheck@@QAEXABV?$basic_string@DU?$char_traits@D@std@@V?$allocator@D@2@@std@@@Z 00418044     ccLibrary_vs2013:ccCheck.obj
 0002:00008068       __unwindtable$??$?HDU?$char_traits@D@std@@V?$allocator@D@1@@std@@YA?AV?$basic_string@DU?$char_traits@D@std@@V?$allocator@D@2@@0@PBDABV10@@Z 00418068     ccLibrary_vs2013:ccCheck.obj
 0002:00008068       __unwindtable$??$?HDU?$char_traits@D@std@@V?$allocator@D@1@@std@@YA?AV?$basic_string@DU?$char_traits@D@std@@V?$allocator@D@2@@0@ABV10@PBD@Z 00418068     ccLibrary_vs2013:ccCheck.obj
 0002:00008070       __ehfuncinfo$??$?HDU?$char_traits@D@std@@V?$allocator@D@1@@std@@YA?AV?$basic_string@DU?$char_traits@D@std@@V?$allocator@D@2@@0@PBDABV10@@Z 00418070     ccLibrary_vs2013:ccCheck.obj
 0002:00008070       __ehfuncinfo$??$?HDU?$char_traits@D@std@@V?$allocator@D@1@@std@@YA?AV?$basic_string@DU?$char_traits@D@std@@V?$allocator@D@2@@0@ABV10@PBD@Z 00418070     ccLibrary_vs2013:ccCheck.obj
 0002:00008094       __unwindtable$?getInt@ccConfig@@SAHABV?$basic_string@DU?$char_traits@D@std@@V?$allocator@D@2@@std@@00H_N@Z 00418094     ccLibrary_vs2013:ccConfig.obj
 0002:000080a4       __ehfuncinfo$?getInt@ccConfig@@SAHABV?$basic_string@DU?$char_traits@D@std@@V?$allocator@D@2@@std@@00H_N@Z 004180a4     ccLibrary_vs2013:ccConfig.obj
 0002:000080c8       __unwindtable$?getDevPath@ccConfig@@SA?AV?$basic_string@DU?$char_traits@D@std@@V?$allocator@D@2@@std@@XZ 004180c8     ccLibrary_vs2013:ccConfig.obj
 0002:000080e0       __ehfuncinfo$?getDevPath@ccConfig@@SA?AV?$basic_string@DU?$char_traits@D@std@@V?$allocator@D@2@@std@@XZ 004180e0     ccLibrary_vs2013:ccConfig.obj
 0002:00008104       __ehfuncinfo$?workstation@ccConfig@@SAHXZ 00418104     ccLibrary_vs2013:ccConfig.obj
 0002:00008128       __unwindtable$?workstation@ccConfig@@SAHXZ 00418128     ccLibrary_vs2013:ccConfig.obj
 0002:00008170       __sehtable$__onexit        00418170     MSVCRT:atonexit.obj
 0002:00008190       __sehtable$___tmainCRTStartup 00418190     MSVCRT:crtexew.obj
 0002:000081b0       __sehtable$??_M@YGXPAXIHP6EX0@Z@Z 004181b0     MSVCRT:ehvecdtr.obj
 0002:000081d0       __sehtable$?__ArrayUnwind@@YGXPAXIHP6EX0@Z@Z 004181d0     MSVCRT:ehvecdtr.obj
 0002:000081f0       __sehtable$__IsNonwritableInCurrentImage 004181f0     MSVCRT:pesect.obj
 0002:000092de       .idata$6                   004192de     bncs_string:bncs_string.dll
 0002:00009400       .idata$6                   00419400     bncs_config:bncs_config.dll
 0002:0001261a       .idata$6                   0042261a     qt-mt323:qt-mt323.dll
 0002:00012628       .idata$6                   00422628     bncsif32:BNCSIF32.dll
 0002:000126ea       .idata$6                   004226ea     kernel32:KERNEL32.dll
 0002:000127cc       .idata$6                   004227cc     user32:USER32.dll
 0002:00012872       .idata$6                   00422872     msvcprt:MSVCP120.dll
 0002:00012952       .idata$6                   00422952     MSVCRT:MSVCR120.dll
 0002:00012b92       .idata$6                   00422b92     version:VERSION.dll
 0003:00000010       _PT_large_Icon_32          00423010     paramtestermainwindow.obj
 0003:00000294       ?param_slot_6@?3??staticMetaObject@ParamTesterMainWindow@@SAPAVQMetaObject@@XZ@4QBUQUParameter@@B 00423294     moc_paramtestermainwindow.obj
 0003:000002a4       ?param_slot_7@?3??staticMetaObject@ParamTesterMainWindow@@SAPAVQMetaObject@@XZ@4QBUQUParameter@@B 004232a4     moc_paramtestermainwindow.obj
 0003:000002b4       ?param_slot_8@?3??staticMetaObject@ParamTesterMainWindow@@SAPAVQMetaObject@@XZ@4QBUQUParameter@@B 004232b4     moc_paramtestermainwindow.obj
 0003:000002c4       ?param_slot_10@?3??staticMetaObject@ParamTesterMainWindow@@SAPAVQMetaObject@@XZ@4QBUQUParameter@@B 004232c4     moc_paramtestermainwindow.obj
 0003:000002d8       _BNCS_CCCLIENT_SIG         004232d8     ccLibrary_vs2013:ccClient.obj
 0003:00000340       _BNCS_CCCHECK_SIG          00423340     ccLibrary_vs2013:ccCheck.obj
 0003:000003a8       _BNCS_CCCONFIG_SIG         004233a8     ccLibrary_vs2013:ccConfig.obj
 0003:00000430       _BNCS_BNCSWM32_SIG         00423430     bncswm32:BncsWM32.obj
 0003:000009d8       _allocator_arg             004239d8     main.obj
 0003:000009d9       _piecewise_construct       004239d9     main.obj
 0003:000009e4       _allocator_arg             004239e4     paramtestermainwindow.obj
 0003:000009e5       _piecewise_construct       004239e5     paramtestermainwindow.obj
 0003:000009ec       _allocator_arg             004239ec     moc_paramtestermainwindow.obj
 0003:000009ed       _piecewise_construct       004239ed     moc_paramtestermainwindow.obj
 0003:000009f0       _cleanUp_ParamTesterMainWindow 004239f0     moc_paramtestermainwindow.obj
 0003:000009f4       ?param_slot_1@?3??staticMetaObject@ParamTesterMainWindow@@SAPAVQMetaObject@@XZ@4QBUQUParameter@@B 004239f4     moc_paramtestermainwindow.obj
 0003:00000a04       ?$S1@?3??staticMetaObject@ParamTesterMainWindow@@SAPAVQMetaObject@@XZ@4IA 00423a04     moc_paramtestermainwindow.obj
 0003:00000a08       ?param_slot_2@?3??staticMetaObject@ParamTesterMainWindow@@SAPAVQMetaObject@@XZ@4QBUQUParameter@@B 00423a08     moc_paramtestermainwindow.obj
 0003:00000a18       ?param_slot_4@?3??staticMetaObject@ParamTesterMainWindow@@SAPAVQMetaObject@@XZ@4QBUQUParameter@@B 00423a18     moc_paramtestermainwindow.obj
 0003:00000a28       ?param_slot_9@?3??staticMetaObject@ParamTesterMainWindow@@SAPAVQMetaObject@@XZ@4QBUQUParameter@@B 00423a28     moc_paramtestermainwindow.obj
 0003:00000a3c       _cleanUp_ParamTesterMainWindowBase 00423a3c     moc_paramtestermainwindowbase.obj
 0003:00000a40       __Tuple_alloc              00423a40     ccLibrary_vs2013:ccClient.obj
 0003:00000a41       _ignore                    00423a41     ccLibrary_vs2013:ccClient.obj
 0003:00000a42       _allocator_arg             00423a42     ccLibrary_vs2013:ccClient.obj
 0003:00000a43       _piecewise_construct       00423a43     ccLibrary_vs2013:ccClient.obj
 0003:00000a44       _allocator_arg             00423a44     ccLibrary_vs2013:ccCheck.obj
 0003:00000a45       _piecewise_construct       00423a45     ccLibrary_vs2013:ccCheck.obj
 0003:00000a46       __Tuple_alloc              00423a46     ccLibrary_vs2013:ccConfig.obj
 0003:00000a47       _ignore                    00423a47     ccLibrary_vs2013:ccConfig.obj
 0003:00000a48       _allocator_arg             00423a48     ccLibrary_vs2013:ccConfig.obj
 0003:00000a49       _piecewise_construct       00423a49     ccLibrary_vs2013:ccConfig.obj
 0003:00000a4c       _has_cctor                 00423a4c     MSVCRT:crtexew.obj
 0003:00000a50       _mainret                   00423a50     MSVCRT:crtexew.obj
 0003:00000a54       _managedapp                00423a54     MSVCRT:crtexew.obj
 0003:00000a58       _argc                      00423a58     MSVCRT:crtexew.obj
 0003:00000a5c       _argv                      00423a5c     MSVCRT:crtexew.obj
 0003:00000a60       _envp                      00423a60     MSVCRT:crtexew.obj
 0003:00000a64       _argret                    00423a64     MSVCRT:crtexew.obj
 0003:00000a68       _startinfo                 00423a68     MSVCRT:crtexew.obj
 0003:00000a70       _GS_ExceptionRecord        00423a70     MSVCRT:gs_report.obj
 0003:00000ac0       _GS_ContextRecord          00423ac0     MSVCRT:gs_report.obj
 0003:00000d8c       _DebuggerWasPresent        00423d8c     MSVCRT:gs_report.obj
 0003:00000da0       _acCopyDataResult          00423da0     bncswm32:BncsWM32.obj
 0003:00000fa4       _lCopyDataResult           00423fa4     bncswm32:BncsWM32.obj
 0003:00000fa8       ?lResult@?1??BNCS32SendMessage@@9@4JA 00423fa8     bncswm32:BncsWM32.obj
 0003:00000fac       ?acNumericData@?1??BNCS32SendMessage@@9@4PADA 00423fac     bncswm32:BncsWM32.obj
 0003:00000fbc       ?CDS@?1??BNCS32SendMessage@@9@4UtagCOPYDATASTRUCT@@A 00423fbc     bncswm32:BncsWM32.obj
 0003:00000fc8       ?uMsg@?1??BNCS32ReceiveMessage@@9@4IA 00423fc8     bncswm32:BncsWM32.obj
 0003:00000fcc       ?wParam@?1??BNCS32ReceiveMessage@@9@4IA 00423fcc     bncswm32:BncsWM32.obj
 0003:00000fd0       ?lParam@?1??BNCS32ReceiveMessage@@9@4JA 00423fd0     bncswm32:BncsWM32.obj
 0003:00000fd4       ?lResult@?1??BNCS32ReceiveMessage@@9@4JA 00423fd4     bncswm32:BncsWM32.obj
 0004:00000190       $R000000                   00424190     version.res
 0004:00000580       $R0003F0                   00424580     version.res
 0004:00001628       $R001498                   00425628     version.res
 0004:00003bd0       $R003A40                   00427bd0     version.res
 0004:00004038       $R003EA8                   00428038     version.res
 0004:00004068       $R003ED8                   00428068     version.res
