 setlanadb

 Timestamp is 5e9dbc26 (Mon Apr 20 16:13:42 2020)

 Preferred load address is 00400000

 Start         Length     Name                   Class
 0001:00000000 00010000H .textbss                DATA
 0002:00000000 000026e6H .text                   CODE
 0002:000026f0 000010f7H .text$di                CODE
 0002:000037f0 00012ac4H .text$mn                CODE
 0002:000162c0 00002d9eH .text$x                 CODE
 0002:00019060 000010baH .text$yd                CODE
 0003:00000000 00000104H .CRT$XCA                DATA
 0003:00000104 00000104H .CRT$XCAA               DATA
 0003:00000208 00000109H .CRT$XCU                DATA
 0003:00000314 00000104H .CRT$XCZ                DATA
 0003:00000418 00000104H .CRT$XIA                DATA
 0003:0000051c 00000104H .CRT$XIAA               DATA
 0003:00000620 00000104H .CRT$XIC                DATA
 0003:00000724 00000104H .CRT$XIY                DATA
 0003:00000828 00000104H .CRT$XIZ                DATA
 0003:00000930 00004b84H .rdata                  DATA
 0003:000054b4 0000016eH .rdata$debug            DATA
 0003:00005624 00000c46H .rdata$r                DATA
 0003:0000626c 00000104H .rtc$IAA                DATA
 0003:00006370 00000118H .rtc$IMZ                DATA
 0003:00006488 00000104H .rtc$IZZ                DATA
 0003:0000658c 00000104H .rtc$TAA                DATA
 0003:00006690 00000118H .rtc$TMZ                DATA
 0003:000067a8 00000104H .rtc$TZZ                DATA
 0003:000068b0 000011b6H .xdata$x                DATA
 0003:00007a66 00000000H .edata                  DATA
 0004:00000000 00000462H .data                   DATA
 0004:00000464 00000497H .data$r                 DATA
 0004:00000900 00000464H .bss                    DATA
 0005:00000000 00000d7cH .idata$5                DATA
 0005:00000d7c 00000050H .idata$2                DATA
 0005:00000dcc 00000014H .idata$3                DATA
 0005:00000de0 00000d7cH .idata$4                DATA
 0005:00001b5c 000075c3H .idata$6                DATA
 0006:00000000 000002e0H .rsrc$01                DATA
 0006:000002e0 00004e10H .rsrc$02                DATA

  Address         Publics by Value              Rva+Base       Lib:Object

 0000:00000000       ___guard_fids_table        00000000     <absolute>
 0000:00000000       ___guard_flags             00000000     <absolute>
 0000:00000000       ___safe_se_handler_count   00000000     <absolute>
 0000:00000000       ___safe_se_handler_table   00000000     <absolute>
 0000:00000000       ___guard_fids_count        00000000     <absolute>
 0000:00000000       ___ImageBase               00400000     <linker-defined>
 0001:00000000       __enc$textbss$begin        00401000     <linker-defined>
 0001:00010000       __enc$textbss$end          00411000     <linker-defined>
 0002:00002107       _WinMain@16                00413107 f   qtmain:qtmain_win.obj
 0002:000021b7       ?detach@?$QMemArray@PAD@@UAEXXZ 004131b7 f i qtmain:qtmain_win.obj
 0002:000021c1       ??_G?$QMemArray@H@@UAEPAXI@Z 004131c1 f i qtmain:qtmain_win.obj
 0002:000021ee       ??_G?$QMemArray@_N@@UAEPAXI@Z 004131ee f i qtmain:qtmain_win.obj
 0002:0000221b       ??_G?$QMemArray@D@@UAEPAXI@Z 0041321b f i qtmain:qtmain_win.obj
 0002:00002248       ??_G?$QMemArray@VQPoint@@@@UAEPAXI@Z 00413248 f i qtmain:qtmain_win.obj
 0002:00002275       ??_G?$QPtrList@D@@UAEPAXI@Z 00413275 f i qtmain:qtmain_win.obj
 0002:000022ac       ??_G?$QPtrList@VQObject@@@@UAEPAXI@Z 004132ac f i qtmain:qtmain_win.obj
 0002:000022e3       ??_G?$QPtrList@VQWidget@@@@UAEPAXI@Z 004132e3 f i qtmain:qtmain_win.obj
 0002:0000231a       ??_E?$QMemArray@PAD@@UAEPAXI@Z 0041331a f i qtmain:qtmain_win.obj
 0002:0000231a       ??_G?$QMemArray@PAD@@UAEPAXI@Z 0041331a f i qtmain:qtmain_win.obj
 0002:000037f0       _main                      004147f0 f   main.obj
 0002:00003980       ?parse@setlanaDialog@@AAEXVQStringList@@@Z 00414980 f   setlanadialog.obj
 0002:00004210       ?parse@setlanaDialog@@AAEXVQStringList@@AAVQTextStream@@@Z 00415210 f   setlanadialog.obj
 0002:00004630       ??0setlanaDialog@@QAE@PAVQWidget@@PBD_NI@Z 00415630 f   setlanadialog.obj
 0002:00005fd0       ??1setlanaDialog@@UAE@XZ   00416fd0 f   setlanadialog.obj
 0002:000060b0       ?accept@setlanaDialog@@UAEXXZ 004170b0 f   setlanadialog.obj
 0002:000067c0       ?processExited@setlanaDialog@@QAEXXZ 004177c0 f   setlanadialog.obj
 0002:000069a0       ?readyReadStdout@setlanaDialog@@QAEXXZ 004179a0 f   setlanadialog.obj
 0002:00006af0       ?lvSelectionChanged@setlanaDialog@@QAEXPAVQListViewItem@@@Z 00417af0 f   setlanadialog.obj
 0002:00006b70       ?doHelp@setlanaDialog@@QAEXXZ 00417b70 f   setlanadialog.obj
 0002:00006c90       ?GetRootDevice@setlanaDialog@@AAEXPAUHKEY__@@VQString@@AAVQStringList@@@Z 00417c90 f   setlanadialog.obj
 0002:00006eb0       ?GetNetBiosLinkageData@setlanaDialog@@AAEXAAV?$QValueList@UNetBinding@setlanaDialog@@@@@Z 00417eb0 f   setlanadialog.obj
 0002:00007bc0       ?GetAdapterDescriptionData@setlanaDialog@@AAEXAAV?$QMap@VQString@@V1@@@@Z 00418bc0 f   setlanadialog.obj
 0002:00008700       ?ShowLastError@setlanaDialog@@AAEXABVQString@@@Z 00419700 f   setlanadialog.obj
 0002:00008980       ?GetKey@setlanaDialog@@AAEJPAUHKEY__@@ABVQString@@KAAPAEAAKAAV3@@Z 00419980 f   setlanadialog.obj
 0002:00008f50       ?GetString@setlanaDialog@@AAEJPAUHKEY__@@QBDAAVQString@@2@Z 00419f50 f   setlanadialog.obj
 0002:00009100       ?GetMultiString@setlanaDialog@@AAEJPAUHKEY__@@QBDAAVQStringList@@AAVQString@@@Z 0041a100 f   setlanadialog.obj
 0002:000092d0       ?GetBinary@setlanaDialog@@AAEJPAUHKEY__@@QBDAAPAEAAKAAVQString@@@Z 0041a2d0 f   setlanadialog.obj
 0002:000093a0       ?TestData@@YAXKPAEAAVQRegExp@@VQString@@AAVQTextStream@@@Z 0041a3a0 f   setlanadialog.obj
 0002:00009860       ?TestScanKeys@@YAXPAUHKEY__@@AAVQRegExp@@AAHVQString@@AAVQTextStream@@@Z 0041a860 f   setlanadialog.obj
 0002:0000a1c0       ?ScanRegistry@@YAXAAVQRegExp@@AAVQString@@AAVQTextStream@@@Z 0041b1c0 f   setlanadialog.obj
 0002:0000bfc0       ??0?$QValueList@UNetBinding@setlanaDialog@@@@QAE@XZ 0041cfc0 f i setlanadialog.obj
 0002:0000c0b0       ??0?$QValueListIterator@UNetBinding@setlanaDialog@@@@QAE@ABV0@@Z 0041d0b0 f i setlanadialog.obj
 0002:0000c100       ??0?$QValueListIterator@UNetBinding@setlanaDialog@@@@QAE@PAV?$QValueListNode@UNetBinding@setlanaDialog@@@@@Z 0041d100 f i setlanadialog.obj
 0002:0000c150       ??0?$QValueListNode@UNetBinding@setlanaDialog@@@@QAE@ABUNetBinding@setlanaDialog@@@Z 0041d150 f i setlanadialog.obj
 0002:0000c1c0       ??0?$QValueListNode@UNetBinding@setlanaDialog@@@@QAE@XZ 0041d1c0 f i setlanadialog.obj
 0002:0000c230       ??0?$QValueListPrivate@UNetBinding@setlanaDialog@@@@QAE@ABV0@@Z 0041d230 f i setlanadialog.obj
 0002:0000c480       ??0?$QValueListPrivate@UNetBinding@setlanaDialog@@@@QAE@XZ 0041d480 f i setlanadialog.obj
 0002:0000c5d0       ??0NetBinding@setlanaDialog@@QAE@ABU01@@Z 0041d5d0 f i setlanadialog.obj
 0002:0000c6d0       ??0NetBinding@setlanaDialog@@QAE@XZ 0041d6d0 f i setlanadialog.obj
 0002:0000c7b0       ??1?$QValueList@UNetBinding@setlanaDialog@@@@QAE@XZ 0041d7b0 f i setlanadialog.obj
 0002:0000c810       ??1?$QValueListNode@UNetBinding@setlanaDialog@@@@UAE@XZ 0041d810 f i setlanadialog.obj
 0002:0000c870       ??1?$QValueListPrivate@UNetBinding@setlanaDialog@@@@UAE@XZ 0041d870 f i setlanadialog.obj
 0002:0000c9c0       ??1NetBinding@setlanaDialog@@QAE@XZ 0041d9c0 f i setlanadialog.obj
 0002:0000ca80       ??9?$QMapIterator@VQString@@V1@@@QBE_NABV0@@Z 0041da80 f i setlanadialog.obj
 0002:0000caf0       ??9?$QValueListIterator@UNetBinding@setlanaDialog@@@@QBE_NABV0@@Z 0041daf0 f i setlanadialog.obj
 0002:0000cb60       ??A?$QValueList@UNetBinding@setlanaDialog@@@@QAEAAUNetBinding@setlanaDialog@@I@Z 0041db60 f i setlanadialog.obj
 0002:0000cbd0       ??D?$QValueListIterator@UNetBinding@setlanaDialog@@@@QAEAAUNetBinding@setlanaDialog@@XZ 0041dbd0 f i setlanadialog.obj
 0002:0000cc10       ??E?$QMapIterator@VQString@@V1@@@QAEAAV0@XZ 0041dc10 f i setlanadialog.obj
 0002:0000cc70       ??E?$QValueListIterator@UNetBinding@setlanaDialog@@@@QAE?AV0@H@Z 0041dc70 f i setlanadialog.obj
 0002:0000cd20       ??E?$QValueListIterator@UNetBinding@setlanaDialog@@@@QAEAAV0@XZ 0041dd20 f i setlanadialog.obj
 0002:0000cd68       ??_EsetlanaDialog@@WCI@AEPAXI@Z 0041dd68 f i setlanadialog.obj
 0002:0000cd80       ??_E?$QValueListNode@UNetBinding@setlanaDialog@@@@UAEPAXI@Z 0041dd80 f i setlanadialog.obj
 0002:0000cd80       ??_G?$QValueListNode@UNetBinding@setlanaDialog@@@@UAEPAXI@Z 0041dd80 f i setlanadialog.obj
 0002:0000cdf0       ??_G?$QValueListPrivate@UNetBinding@setlanaDialog@@@@UAEPAXI@Z 0041ddf0 f i setlanadialog.obj
 0002:0000cdf0       ??_E?$QValueListPrivate@UNetBinding@setlanaDialog@@@@UAEPAXI@Z 0041ddf0 f i setlanadialog.obj
 0002:0000ce60       ??_GQListViewItem@@UAEPAXI@Z 0041de60 f i setlanadialog.obj
 0002:0000ce60       ??_EQListViewItem@@UAEPAXI@Z 0041de60 f i setlanadialog.obj
 0002:0000cee0       ??_EQProcess@@UAEPAXI@Z    0041dee0 f i setlanadialog.obj
 0002:0000cee0       ??_GQProcess@@UAEPAXI@Z    0041dee0 f i setlanadialog.obj
 0002:0000cf60       ??_EsetlanaDialog@@UAEPAXI@Z 0041df60 f i setlanadialog.obj
 0002:0000cf60       ??_GsetlanaDialog@@UAEPAXI@Z 0041df60 f i setlanadialog.obj
 0002:0000cfd0       ?append@?$QValueList@UNetBinding@setlanaDialog@@@@QAE?AV?$QValueListIterator@UNetBinding@setlanaDialog@@@@ABUNetBinding@setlanaDialog@@@Z 0041dfd0 f i setlanadialog.obj
 0002:0000d050       ?at@?$QValueListPrivate@UNetBinding@setlanaDialog@@@@QBEPAV?$QValueListNode@UNetBinding@setlanaDialog@@@@I@Z 0041e050 f i setlanadialog.obj
 0002:0000d120       ?begin@?$QValueList@UNetBinding@setlanaDialog@@@@QAE?AV?$QValueListIterator@UNetBinding@setlanaDialog@@@@XZ 0041e120 f i setlanadialog.obj
 0002:0000d190       ?count@?$QValueList@UNetBinding@setlanaDialog@@@@QBEIXZ 0041e190 f i setlanadialog.obj
 0002:0000d1d0       ?data@?$QMapIterator@VQString@@V1@@@QAEAAVQString@@XZ 0041e1d0 f i setlanadialog.obj
 0002:0000d210       ?derefAndDelete@?$QValueListPrivate@UNetBinding@setlanaDialog@@@@QAEXXZ 0041e210 f i setlanadialog.obj
 0002:0000d2e0       ?detach@?$QValueList@UNetBinding@setlanaDialog@@@@IAEXXZ 0041e2e0 f i setlanadialog.obj
 0002:0000d340       ?detachInternal@?$QValueList@UNetBinding@setlanaDialog@@@@AAEXXZ 0041e340 f i setlanadialog.obj
 0002:0000d450       ?end@?$QValueList@UNetBinding@setlanaDialog@@@@QAE?AV?$QValueListIterator@UNetBinding@setlanaDialog@@@@XZ 0041e450 f i setlanadialog.obj
 0002:0000d4c0       ?inc@?$QMapIterator@VQString@@V1@@@AAEHXZ 0041e4c0 f i setlanadialog.obj
 0002:0000d580       ?insert@?$QValueListPrivate@UNetBinding@setlanaDialog@@@@QAE?AV?$QValueListIterator@UNetBinding@setlanaDialog@@@@V2@ABUNetBinding@setlanaDialog@@@Z 0041e580 f i setlanadialog.obj
 0002:0000d6d0       ?key@?$QMapIterator@VQString@@V1@@@QBEABVQString@@XZ 0041e6d0 f i setlanadialog.obj
 0002:0000d710       ?metaObject@setlanaDialog@@UBEPAVQMetaObject@@XZ 0041e710 f i setlanadialog.obj
 0002:0000d760       ?className@setlanaDialog@@UBEPBDXZ 0041e760 f   moc_setlanadialog.obj
 0002:0000d790       ?qt_cast@setlanaDialog@@UAEPAXPBD@Z 0041e790 f   moc_setlanadialog.obj
 0002:0000d800       ?qt_invoke@setlanaDialog@@UAE_NHPAUQUObject@@@Z 0041e800 f   moc_setlanadialog.obj
 0002:0000d8e0       ?qt_emit@setlanaDialog@@UAE_NHPAUQUObject@@@Z 0041e8e0 f   moc_setlanadialog.obj
 0002:0000d930       ?qt_property@setlanaDialog@@UAE_NHHPAVQVariant@@@Z 0041e930 f   moc_setlanadialog.obj
 0002:0000d980       ?qt_static_property@setlanaDialog@@SA_NPAVQObject@@HHPAVQVariant@@@Z 0041e980 f   moc_setlanadialog.obj
 0002:0000d9b0       ?staticMetaObject@setlanaDialog@@SAPAVQMetaObject@@XZ 0041e9b0 f   moc_setlanadialog.obj
 0002:0000da90       ?tr@setlanaDialog@@SA?AVQString@@PBD0@Z 0041ea90 f   moc_setlanadialog.obj
 0002:0000db50       ?trUtf8@setlanaDialog@@SA?AVQString@@PBD0@Z 0041eb50 f   moc_setlanadialog.obj
 0002:0000dd30       ?className@setlanaDialogBase@@UBEPBDXZ 0041ed30 f   moc_setlanadialogbase.obj
 0002:0000dd60       ?qt_cast@setlanaDialogBase@@UAEPAXPBD@Z 0041ed60 f   moc_setlanadialogbase.obj
 0002:0000dde0       ?qt_invoke@setlanaDialogBase@@UAE_NHPAUQUObject@@@Z 0041ede0 f   moc_setlanadialogbase.obj
 0002:0000de80       ?qt_emit@setlanaDialogBase@@UAE_NHPAUQUObject@@@Z 0041ee80 f   moc_setlanadialogbase.obj
 0002:0000dee0       ?qt_property@setlanaDialogBase@@UAE_NHHPAVQVariant@@@Z 0041eee0 f   moc_setlanadialogbase.obj
 0002:0000df40       ?qt_static_property@setlanaDialogBase@@SA_NPAVQObject@@HHPAVQVariant@@@Z 0041ef40 f   moc_setlanadialogbase.obj
 0002:0000df70       ?staticMetaObject@setlanaDialogBase@@SAPAVQMetaObject@@XZ 0041ef70 f   moc_setlanadialogbase.obj
 0002:0000e020       ?tr@setlanaDialogBase@@SA?AVQString@@PBD0@Z 0041f020 f   moc_setlanadialogbase.obj
 0002:0000e0e0       ?trUtf8@setlanaDialogBase@@SA?AVQString@@PBD0@Z 0041f0e0 f   moc_setlanadialogbase.obj
 0002:0000e2b0       ??0setlanaDialogBase@@QAE@PAVQWidget@@PBD_NI@Z 0041f2b0 f   setlanadialogbase.obj
 0002:000100d0       ??1setlanaDialogBase@@UAE@XZ 004210d0 f   setlanadialogbase.obj
 0002:00010130       ?languageChange@setlanaDialogBase@@MAEXXZ 00421130 f   setlanadialogbase.obj
 0002:000119fb       ??_EQGroupBox@@WCI@AEPAXI@Z 004229fb f i setlanadialogbase.obj
 0002:00011a05       ??_EQHBoxLayout@@WCI@AEPAXI@Z 00422a05 f i setlanadialogbase.obj
 0002:00011a0f       ??_EQLabel@@WCI@AEPAXI@Z   00422a0f f i setlanadialogbase.obj
 0002:00011a19       ??_EQLineEdit@@WCI@AEPAXI@Z 00422a19 f i setlanadialogbase.obj
 0002:00011a23       ??_EQListView@@WCI@AEPAXI@Z 00422a23 f i setlanadialogbase.obj
 0002:00011a2d       ??_EQPushButton@@WCI@AEPAXI@Z 00422a2d f i setlanadialogbase.obj
 0002:00011a37       ??_EQVBoxLayout@@WCI@AEPAXI@Z 00422a37 f i setlanadialogbase.obj
 0002:00011a41       ??_EsetlanaDialogBase@@WCI@AEPAXI@Z 00422a41 f i setlanadialogbase.obj
 0002:00011a50       ??_GQGroupBox@@UAEPAXI@Z   00422a50 f i setlanadialogbase.obj
 0002:00011a50       ??_EQGroupBox@@UAEPAXI@Z   00422a50 f i setlanadialogbase.obj
 0002:00011ad0       ??_GQHBoxLayout@@UAEPAXI@Z 00422ad0 f i setlanadialogbase.obj
 0002:00011ad0       ??_EQHBoxLayout@@UAEPAXI@Z 00422ad0 f i setlanadialogbase.obj
 0002:00011b50       ??_GQLabel@@UAEPAXI@Z      00422b50 f i setlanadialogbase.obj
 0002:00011b50       ??_EQLabel@@UAEPAXI@Z      00422b50 f i setlanadialogbase.obj
 0002:00011bd0       ??_EQLineEdit@@UAEPAXI@Z   00422bd0 f i setlanadialogbase.obj
 0002:00011bd0       ??_GQLineEdit@@UAEPAXI@Z   00422bd0 f i setlanadialogbase.obj
 0002:00011c50       ??_EQListView@@UAEPAXI@Z   00422c50 f i setlanadialogbase.obj
 0002:00011c50       ??_GQListView@@UAEPAXI@Z   00422c50 f i setlanadialogbase.obj
 0002:00011cd0       ??_EQPushButton@@UAEPAXI@Z 00422cd0 f i setlanadialogbase.obj
 0002:00011cd0       ??_GQPushButton@@UAEPAXI@Z 00422cd0 f i setlanadialogbase.obj
 0002:00011d50       ??_GQSpacerItem@@UAEPAXI@Z 00422d50 f i setlanadialogbase.obj
 0002:00011d50       ??_EQSpacerItem@@UAEPAXI@Z 00422d50 f i setlanadialogbase.obj
 0002:00011dd0       ??_EQVBoxLayout@@UAEPAXI@Z 00422dd0 f i setlanadialogbase.obj
 0002:00011dd0       ??_GQVBoxLayout@@UAEPAXI@Z 00422dd0 f i setlanadialogbase.obj
 0002:00011e50       ??_EsetlanaDialogBase@@UAEPAXI@Z 00422e50 f i setlanadialogbase.obj
 0002:00011e50       ??_GsetlanaDialogBase@@UAEPAXI@Z 00422e50 f i setlanadialogbase.obj
 0002:00011ec0       ?metaObject@setlanaDialogBase@@UBEPAVQMetaObject@@XZ 00422ec0 f i setlanadialogbase.obj
 0002:00011f0c       ??0QApplication@@QAE@AAHPAPAD@Z 00422f0c f   qt-mt323:qt-mt323.dll
 0002:00011f12       ??1QApplication@@UAE@XZ    00422f12 f   qt-mt323:qt-mt323.dll
 0002:00011f18       ?setMainWidget@QApplication@@UAEXPAVQWidget@@@Z 00422f18 f   qt-mt323:qt-mt323.dll
 0002:00011f1e       ?exec@QDialog@@QAEHXZ      00422f1e f   qt-mt323:qt-mt323.dll
 0002:00011f24       ?qDebug@@YAXPBDZZ          00422f24 f   qt-mt323:qt-mt323.dll
 0002:00011f2a       ?qWarning@@YAXPBDZZ        00422f2a f   qt-mt323:qt-mt323.dll
 0002:00011f30       ??0QShared@@QAE@XZ         00422f30 f   qt-mt323:qt-mt323.dll
 0002:00011f36       ?deref@QShared@@QAE_NXZ    00422f36 f   qt-mt323:qt-mt323.dll
 0002:00011f3c       ??1?$QMemArray@D@@UAE@XZ   00422f3c f   qt-mt323:qt-mt323.dll
 0002:00011f42       ??0QString@@QAE@XZ         00422f42 f   qt-mt323:qt-mt323.dll
 0002:00011f48       ??0QString@@QAE@ABV0@@Z    00422f48 f   qt-mt323:qt-mt323.dll
 0002:00011f4e       ??0QString@@QAE@ABV?$QMemArray@D@@@Z 00422f4e f   qt-mt323:qt-mt323.dll
 0002:00011f54       ??0QString@@QAE@PBD@Z      00422f54 f   qt-mt323:qt-mt323.dll
 0002:00011f5a       ??1QString@@QAE@XZ         00422f5a f   qt-mt323:qt-mt323.dll
 0002:00011f60       ??4QString@@QAEAAV0@ABV0@@Z 00422f60 f   qt-mt323:qt-mt323.dll
 0002:00011f66       ??4QString@@QAEAAV0@PBD@Z  00422f66 f   qt-mt323:qt-mt323.dll
 0002:00011f6c       ?length@QString@@QBEIXZ    00422f6c f   qt-mt323:qt-mt323.dll
 0002:00011f72       ?arg@QString@@QBE?AV1@KHH@Z 00422f72 f   qt-mt323:qt-mt323.dll
 0002:00011f78       ?arg@QString@@QBE?AV1@HHH@Z 00422f78 f   qt-mt323:qt-mt323.dll
 0002:00011f7e       ?arg@QString@@QBE?AV1@IHH@Z 00422f7e f   qt-mt323:qt-mt323.dll
 0002:00011f84       ?arg@QString@@QBE?AV1@ABV1@H@Z 00422f84 f   qt-mt323:qt-mt323.dll
 0002:00011f8a       ?find@QString@@QBEHABV1@H_N@Z 00422f8a f   qt-mt323:qt-mt323.dll
 0002:00011f90       ?find@QString@@QBEHPBDH@Z  00422f90 f   qt-mt323:qt-mt323.dll
 0002:00011f96       ?remove@QString@@QAEAAV1@II@Z 00422f96 f   qt-mt323:qt-mt323.dll
 0002:00011f9c       ?toInt@QString@@QBEHPA_NH@Z 00422f9c f   qt-mt323:qt-mt323.dll
 0002:00011fa2       ?number@QString@@SA?AV1@HH@Z 00422fa2 f   qt-mt323:qt-mt323.dll
 0002:00011fa8       ?number@QString@@SA?AV1@IH@Z 00422fa8 f   qt-mt323:qt-mt323.dll
 0002:00011fae       ??YQString@@QAEAAV0@ABV0@@Z 00422fae f   qt-mt323:qt-mt323.dll
 0002:00011fb4       ??BQString@@QBEPBDXZ       00422fb4 f   qt-mt323:qt-mt323.dll
 0002:00011fba       ?startsWith@QString@@QBE_NABV1@@Z 00422fba f   qt-mt323:qt-mt323.dll
 0002:00011fc0       ??8@YA_NABVQString@@PBD@Z  00422fc0 f   qt-mt323:qt-mt323.dll
 0002:00011fc6       ??H@YA?BVQString@@ABV0@0@Z 00422fc6 f   qt-mt323:qt-mt323.dll
 0002:00011fcc       ??H@YA?BVQString@@ABV0@PBD@Z 00422fcc f   qt-mt323:qt-mt323.dll
 0002:00011fd2       ??H@YA?BVQString@@PBDABV0@@Z 00422fd2 f   qt-mt323:qt-mt323.dll
 0002:00011fd8       ??6QTextStream@@QAEAAV0@PBD@Z 00422fd8 f   qt-mt323:qt-mt323.dll
 0002:00011fde       ??6QTextStream@@QAEAAV0@ABVQString@@@Z 00422fde f   qt-mt323:qt-mt323.dll
 0002:00011fe4       ??6@YAAAVQTextStream@@AAV0@P6AAAV0@0@Z@Z 00422fe4 f   qt-mt323:qt-mt323.dll
 0002:00011fea       ?endl@@YAAAVQTextStream@@AAV1@@Z 00422fea f   qt-mt323:qt-mt323.dll
 0002:00011ff0       ??6?$QValueList@VQString@@@@QAEAAV0@ABVQString@@@Z 00422ff0 f   qt-mt323:qt-mt323.dll
 0002:00011ff6       ?append@?$QValueList@VQString@@@@QAE?AV?$QValueListIterator@VQString@@@@ABVQString@@@Z 00422ff6 f   qt-mt323:qt-mt323.dll
 0002:00011ffc       ??A?$QValueList@VQString@@@@QAEAAVQString@@I@Z 00422ffc f   qt-mt323:qt-mt323.dll
 0002:00012002       ?count@?$QValueList@VQString@@@@QBEIXZ 00423002 f   qt-mt323:qt-mt323.dll
 0002:00012008       ??0?$QMap@VQString@@V1@@@QAE@XZ 00423008 f   qt-mt323:qt-mt323.dll
 0002:0001200e       ??1?$QMap@VQString@@V1@@@QAE@XZ 0042300e f   qt-mt323:qt-mt323.dll
 0002:00012014       ?begin@?$QMap@VQString@@V1@@@QAE?AV?$QMapIterator@VQString@@V1@@@XZ 00423014 f   qt-mt323:qt-mt323.dll
 0002:0001201a       ?end@?$QMap@VQString@@V1@@@QAE?AV?$QMapIterator@VQString@@V1@@@XZ 0042301a f   qt-mt323:qt-mt323.dll
 0002:00012020       ?size@?$QMap@VQString@@V1@@@QBEIXZ 00423020 f   qt-mt323:qt-mt323.dll
 0002:00012026       ?find@?$QMap@VQString@@V1@@@QAE?AV?$QMapIterator@VQString@@V1@@@ABVQString@@@Z 00423026 f   qt-mt323:qt-mt323.dll
 0002:0001202c       ?insert@?$QMap@VQString@@V1@@@QAE?AV?$QMapIterator@VQString@@V1@@@ABVQString@@0_N@Z 0042302c f   qt-mt323:qt-mt323.dll
 0002:00012032       ?connect@QObject@@SA_NPBV1@PBD01@Z 00423032 f   qt-mt323:qt-mt323.dll
 0002:00012038       ??0QStringList@@QAE@XZ     00423038 f   qt-mt323:qt-mt323.dll
 0002:0001203e       ??0QStringList@@QAE@ABV0@@Z 0042303e f   qt-mt323:qt-mt323.dll
 0002:00012044       ?split@QStringList@@SA?AV1@ABVQString@@0_N@Z 00423044 f   qt-mt323:qt-mt323.dll
 0002:0001204a       ?join@QStringList@@QBE?AVQString@@ABV2@@Z 0042304a f   qt-mt323:qt-mt323.dll
 0002:00012050       ??1QStringList@@QAE@XZ     00423050 f   qt-mt323:qt-mt323.dll
 0002:00012056       ?setIcon@QWidget@@UAEXABVQPixmap@@@Z 00423056 f   qt-mt323:qt-mt323.dll
 0002:0001205c       ?accept@QDialog@@MAEXXZ    0042305c f   qt-mt323:qt-mt323.dll
 0002:00012062       ?information@QMessageBox@@SAHPAVQWidget@@ABVQString@@1111HH@Z 00423062 f   qt-mt323:qt-mt323.dll
 0002:00012068       ?critical@QMessageBox@@SAHPAVQWidget@@ABVQString@@1111HH@Z 00423068 f   qt-mt323:qt-mt323.dll
 0002:0001206e       ?argc@QApplication@@QBEHXZ 0042306e f   qt-mt323:qt-mt323.dll
 0002:00012074       ?argv@QApplication@@QBEPAPADXZ 00423074 f   qt-mt323:qt-mt323.dll
 0002:0001207a       ??0QListViewItem@@QAE@PAVQListView@@VQString@@1111111@Z 0042307a f   qt-mt323:qt-mt323.dll
 0002:00012080       ??1QListViewItem@@UAE@XZ   00423080 f   qt-mt323:qt-mt323.dll
 0002:00012086       ?currentItem@QListView@@QBEPAVQListViewItem@@XZ 00423086 f   qt-mt323:qt-mt323.dll
 0002:0001208c       ?findItem@QListView@@QBEPAVQListViewItem@@ABVQString@@HI@Z 0042308c f   qt-mt323:qt-mt323.dll
 0002:00012092       ??0QProcess@@QAE@ABVQStringList@@PAVQObject@@PBD@Z 00423092 f   qt-mt323:qt-mt323.dll
 0002:00012098       ??1QProcess@@UAE@XZ        00423098 f   qt-mt323:qt-mt323.dll
 0002:0001209e       ??0QPixmap@@QAE@QAPBD@Z    0042309e f   qt-mt323:qt-mt323.dll
 0002:000120a4       ??1QPixmap@@UAE@XZ         004230a4 f   qt-mt323:qt-mt323.dll
 0002:000120aa       ??0QRegExp@@QAE@ABVQString@@_N1@Z 004230aa f   qt-mt323:qt-mt323.dll
 0002:000120b0       ??1QRegExp@@QAE@XZ         004230b0 f   qt-mt323:qt-mt323.dll
 0002:000120b6       ??4QRegExp@@QAEAAV0@ABV0@@Z 004230b6 f   qt-mt323:qt-mt323.dll
 0002:000120bc       ?search@QRegExp@@QBEHABVQString@@H@Z 004230bc f   qt-mt323:qt-mt323.dll
 0002:000120c2       ?cap@QRegExp@@QAE?AVQString@@H@Z 004230c2 f   qt-mt323:qt-mt323.dll
 0002:000120c8       ?acceptDrop@QListViewItem@@UBE_NPBVQMimeSource@@@Z 004230c8 f   qt-mt323:qt-mt323.dll
 0002:000120ce       ?activate@QListViewItem@@MAEXXZ 004230ce f   qt-mt323:qt-mt323.dll
 0002:000120d4       ?addArgument@QProcess@@UAEXABVQString@@@Z 004230d4 f   qt-mt323:qt-mt323.dll
 0002:000120da       ?adjustSize@QWidget@@UAEXXZ 004230da f   qt-mt323:qt-mt323.dll
 0002:000120e0       ?cancelRename@QListViewItem@@MAEXH@Z 004230e0 f   qt-mt323:qt-mt323.dll
 0002:000120e6       ?checkConnectArgs@QObject@@MAE_NPBDPBV1@0@Z 004230e6 f   qt-mt323:qt-mt323.dll
 0002:000120ec       ?childEvent@QObject@@MAEXPAVQChildEvent@@@Z 004230ec f   qt-mt323:qt-mt323.dll
 0002:000120f2       ?className@QProcess@@UBEPBDXZ 004230f2 f   qt-mt323:qt-mt323.dll
 0002:000120f8       ?close@QWidget@@UAE_N_N@Z  004230f8 f   qt-mt323:qt-mt323.dll
 0002:000120fe       ?closeEvent@QDialog@@MAEXPAVQCloseEvent@@@Z 004230fe f   qt-mt323:qt-mt323.dll
 0002:00012104       ?closeStdin@QProcess@@UAEXXZ 00423104 f   qt-mt323:qt-mt323.dll
 0002:0001210a       ?cmd@QPaintDevice@@MAE_NHPAVQPainter@@PATQPDevCmdParam@@@Z 0042310a f   qt-mt323:qt-mt323.dll
 0002:00012110       ?compare@QListViewItem@@UBEHPAV1@H_N@Z 00423110 f   qt-mt323:qt-mt323.dll
 0002:00012116       ?connectNotify@QObject@@MAEXPBD@Z 00423116 f   qt-mt323:qt-mt323.dll
 0002:0001211c       ?connectNotify@QProcess@@MAEXPBD@Z 0042311c f   qt-mt323:qt-mt323.dll
 0002:00012122       ?contextMenuEvent@QDialog@@MAEXPAVQContextMenuEvent@@@Z 00423122 f   qt-mt323:qt-mt323.dll
 0002:00012128       ?create@QWidget@@MAEXPAUHWND__@@_N1@Z 00423128 f   qt-mt323:qt-mt323.dll
 0002:0001212e       ?customEvent@QObject@@MAEXPAVQCustomEvent@@@Z 0042312e f   qt-mt323:qt-mt323.dll
 0002:00012134       ?customWhatsThis@QWidget@@UBE_NXZ 00423134 f   qt-mt323:qt-mt323.dll
 0002:0001213a       ?destroy@QWidget@@MAEX_N0@Z 0042313a f   qt-mt323:qt-mt323.dll
 0002:00012140       ?disconnectNotify@QObject@@MAEXPBD@Z 00423140 f   qt-mt323:qt-mt323.dll
 0002:00012146       ?disconnectNotify@QProcess@@MAEXPBD@Z 00423146 f   qt-mt323:qt-mt323.dll
 0002:0001214c       ?done@QDialog@@MAEXH@Z     0042314c f   qt-mt323:qt-mt323.dll
 0002:00012152       ?dragEnterEvent@QWidget@@MAEXPAVQDragEnterEvent@@@Z 00423152 f   qt-mt323:qt-mt323.dll
 0002:00012158       ?dragEntered@QListViewItem@@MAEXXZ 00423158 f   qt-mt323:qt-mt323.dll
 0002:0001215e       ?dragLeaveEvent@QWidget@@MAEXPAVQDragLeaveEvent@@@Z 0042315e f   qt-mt323:qt-mt323.dll
 0002:00012164       ?dragLeft@QListViewItem@@MAEXXZ 00423164 f   qt-mt323:qt-mt323.dll
 0002:0001216a       ?dragMoveEvent@QWidget@@MAEXPAVQDragMoveEvent@@@Z 0042316a f   qt-mt323:qt-mt323.dll
 0002:00012170       ?dropEvent@QWidget@@MAEXPAVQDropEvent@@@Z 00423170 f   qt-mt323:qt-mt323.dll
 0002:00012176       ?dropped@QListViewItem@@MAEXPAVQDropEvent@@@Z 00423176 f   qt-mt323:qt-mt323.dll
 0002:0001217c       ?enabledChange@QWidget@@MAEX_N@Z 0042317c f   qt-mt323:qt-mt323.dll
 0002:00012182       ?enforceSortOrder@QListViewItem@@MBEXXZ 00423182 f   qt-mt323:qt-mt323.dll
 0002:00012188       ?enterEvent@QWidget@@MAEXPAVQEvent@@@Z 00423188 f   qt-mt323:qt-mt323.dll
 0002:0001218e       ?event@QObject@@UAE_NPAVQEvent@@@Z 0042318e f   qt-mt323:qt-mt323.dll
 0002:00012194       ?event@QWidget@@MAE_NPAVQEvent@@@Z 00423194 f   qt-mt323:qt-mt323.dll
 0002:0001219a       ?eventFilter@QDialog@@MAE_NPAVQObject@@PAVQEvent@@@Z 0042319a f   qt-mt323:qt-mt323.dll
 0002:000121a0       ?eventFilter@QObject@@UAE_NPAV1@PAVQEvent@@@Z 004231a0 f   qt-mt323:qt-mt323.dll
 0002:000121a6       ?focusInEvent@QWidget@@MAEXPAVQFocusEvent@@@Z 004231a6 f   qt-mt323:qt-mt323.dll
 0002:000121ac       ?focusNextPrevChild@QWidget@@MAE_N_N@Z 004231ac f   qt-mt323:qt-mt323.dll
 0002:000121b2       ?focusOutEvent@QWidget@@MAEXPAVQFocusEvent@@@Z 004231b2 f   qt-mt323:qt-mt323.dll
 0002:000121b8       ?fontChange@QWidget@@MAEXABVQFont@@@Z 004231b8 f   qt-mt323:qt-mt323.dll
 0002:000121be       ?fontInf@QPaintDevice@@MBEHPAVQFont@@H@Z 004231be f   qt-mt323:qt-mt323.dll
 0002:000121c4       ?fontMet@QPaintDevice@@MBEHPAVQFont@@HPBDH@Z 004231c4 f   qt-mt323:qt-mt323.dll
 0002:000121ca       ?handle@QPaintDevice@@UBEPAUHDC__@@XZ 004231ca f   qt-mt323:qt-mt323.dll
 0002:000121d0       ?heightForWidth@QWidget@@UBEHH@Z 004231d0 f   qt-mt323:qt-mt323.dll
 0002:000121d6       ?hide@QDialog@@UAEXXZ      004231d6 f   qt-mt323:qt-mt323.dll
 0002:000121dc       ?hideEvent@QWidget@@MAEXPAVQHideEvent@@@Z 004231dc f   qt-mt323:qt-mt323.dll
 0002:000121e2       ?imComposeEvent@QWidget@@MAEXPAVQIMEvent@@@Z 004231e2 f   qt-mt323:qt-mt323.dll
 0002:000121e8       ?imEndEvent@QWidget@@MAEXPAVQIMEvent@@@Z 004231e8 f   qt-mt323:qt-mt323.dll
 0002:000121ee       ?imStartEvent@QWidget@@MAEXPAVQIMEvent@@@Z 004231ee f   qt-mt323:qt-mt323.dll
 0002:000121f4       ?insertChild@QObject@@UAEXPAV1@@Z 004231f4 f   qt-mt323:qt-mt323.dll
 0002:000121fa       ?insertItem@QListViewItem@@UAEXPAV1@@Z 004231fa f   qt-mt323:qt-mt323.dll
 0002:00012200       ?invalidateHeight@QListViewItem@@UAEXXZ 00423200 f   qt-mt323:qt-mt323.dll
 0002:00012206       ?key@QListViewItem@@UBE?AVQString@@H_N@Z 00423206 f   qt-mt323:qt-mt323.dll
 0002:0001220c       ?keyPressEvent@QDialog@@MAEXPAVQKeyEvent@@@Z 0042320c f   qt-mt323:qt-mt323.dll
 0002:00012212       ?keyReleaseEvent@QWidget@@MAEXPAVQKeyEvent@@@Z 00423212 f   qt-mt323:qt-mt323.dll
 0002:00012218       ?launch@QProcess@@UAE_NABV?$QMemArray@D@@PAVQStringList@@@Z 00423218 f   qt-mt323:qt-mt323.dll
 0002:0001221e       ?launch@QProcess@@UAE_NABVQString@@PAVQStringList@@@Z 0042321e f   qt-mt323:qt-mt323.dll
 0002:00012224       ?leaveEvent@QWidget@@MAEXPAVQEvent@@@Z 00423224 f   qt-mt323:qt-mt323.dll
 0002:0001222a       ?metaObject@QProcess@@UBEPAVQMetaObject@@XZ 0042322a f   qt-mt323:qt-mt323.dll
 0002:00012230       ?metric@QWidget@@MBEHH@Z   00423230 f   qt-mt323:qt-mt323.dll
 0002:00012236       ?minimumSizeHint@QDialog@@UBE?AVQSize@@XZ 00423236 f   qt-mt323:qt-mt323.dll
 0002:0001223c       ?mouseDoubleClickEvent@QWidget@@MAEXPAVQMouseEvent@@@Z 0042323c f   qt-mt323:qt-mt323.dll
 0002:00012242       ?mouseMoveEvent@QWidget@@MAEXPAVQMouseEvent@@@Z 00423242 f   qt-mt323:qt-mt323.dll
 0002:00012248       ?mousePressEvent@QWidget@@MAEXPAVQMouseEvent@@@Z 00423248 f   qt-mt323:qt-mt323.dll
 0002:0001224e       ?mouseReleaseEvent@QWidget@@MAEXPAVQMouseEvent@@@Z 0042324e f   qt-mt323:qt-mt323.dll
 0002:00012254       ?move@QDialog@@UAEXHH@Z    00423254 f   qt-mt323:qt-mt323.dll
 0002:0001225a       ?moveEvent@QWidget@@MAEXPAVQMoveEvent@@@Z 0042325a f   qt-mt323:qt-mt323.dll
 0002:00012260       ?okRename@QListViewItem@@MAEXH@Z 00423260 f   qt-mt323:qt-mt323.dll
 0002:00012266       ?paintBranches@QListViewItem@@UAEXPAVQPainter@@ABVQColorGroup@@HHH@Z 00423266 f   qt-mt323:qt-mt323.dll
 0002:0001226c       ?paintCell@QListViewItem@@UAEXPAVQPainter@@ABVQColorGroup@@HHH@Z 0042326c f   qt-mt323:qt-mt323.dll
 0002:00012272       ?paintEvent@QWidget@@MAEXPAVQPaintEvent@@@Z 00423272 f   qt-mt323:qt-mt323.dll
 0002:00012278       ?paintFocus@QListViewItem@@UAEXPAVQPainter@@ABVQColorGroup@@ABVQRect@@@Z 00423278 f   qt-mt323:qt-mt323.dll
 0002:0001227e       ?paletteChange@QWidget@@MAEXABVQPalette@@@Z 0042327e f   qt-mt323:qt-mt323.dll
 0002:00012284       ?pixmap@QListViewItem@@UBEPBVQPixmap@@H@Z 00423284 f   qt-mt323:qt-mt323.dll
 0002:0001228a       ?polish@QWidget@@UAEXXZ    0042328a f   qt-mt323:qt-mt323.dll
 0002:00012290       ?property@QObject@@UBE?AVQVariant@@PBD@Z 00423290 f   qt-mt323:qt-mt323.dll
 0002:00012296       ?qt_cast@QProcess@@UAEPAXPBD@Z 00423296 f   qt-mt323:qt-mt323.dll
 0002:0001229c       ?qt_emit@QProcess@@UAE_NHPAUQUObject@@@Z 0042329c f   qt-mt323:qt-mt323.dll
 0002:000122a2       ?qt_invoke@QProcess@@UAE_NHPAUQUObject@@@Z 004232a2 f   qt-mt323:qt-mt323.dll
 0002:000122a8       ?qt_property@QProcess@@UAE_NHHPAVQVariant@@@Z 004232a8 f   qt-mt323:qt-mt323.dll
 0002:000122ae       ?readLineStderr@QProcess@@UAE?AVQString@@XZ 004232ae f   qt-mt323:qt-mt323.dll
 0002:000122b4       ?readLineStdout@QProcess@@UAE?AVQString@@XZ 004232b4 f   qt-mt323:qt-mt323.dll
 0002:000122ba       ?readStderr@QProcess@@UAE?AV?$QMemArray@D@@XZ 004232ba f   qt-mt323:qt-mt323.dll
 0002:000122c0       ?readStdout@QProcess@@UAE?AV?$QMemArray@D@@XZ 004232c0 f   qt-mt323:qt-mt323.dll
 0002:000122c6       ?reject@QDialog@@MAEXXZ    004232c6 f   qt-mt323:qt-mt323.dll
 0002:000122cc       ?removeChild@QObject@@UAEXPAV1@@Z 004232cc f   qt-mt323:qt-mt323.dll
 0002:000122d2       ?removeItem@QListViewItem@@UAEXPAV1@@Z 004232d2 f   qt-mt323:qt-mt323.dll
 0002:000122d8       ?reparent@QWidget@@UAEXPAV1@IABVQPoint@@_N@Z 004232d8 f   qt-mt323:qt-mt323.dll
 0002:000122de       ?resize@QDialog@@UAEXHH@Z  004232de f   qt-mt323:qt-mt323.dll
 0002:000122e4       ?resizeEvent@QDialog@@MAEXPAVQResizeEvent@@@Z 004232e4 f   qt-mt323:qt-mt323.dll
 0002:000122ea       ?resolution@QPaintDevice@@UBEHXZ 004232ea f   qt-mt323:qt-mt323.dll
 0002:000122f0       ?rtti@QListViewItem@@UBEHXZ 004232f0 f   qt-mt323:qt-mt323.dll
 0002:000122f6       ?setAcceptDrops@QWidget@@UAEX_N@Z 004232f6 f   qt-mt323:qt-mt323.dll
 0002:000122fc       ?setActiveWindow@QWidget@@UAEXXZ 004232fc f   qt-mt323:qt-mt323.dll
 0002:00012302       ?setArguments@QProcess@@UAEXABVQStringList@@@Z 00423302 f   qt-mt323:qt-mt323.dll
 0002:00012308       ?setAutoMask@QWidget@@UAEX_N@Z 00423308 f   qt-mt323:qt-mt323.dll
 0002:0001230e       ?setBackgroundColor@QWidget@@UAEXABVQColor@@@Z 0042330e f   qt-mt323:qt-mt323.dll
 0002:00012314       ?setBackgroundMode@QWidget@@UAEXW4BackgroundMode@Qt@@@Z 00423314 f   qt-mt323:qt-mt323.dll
 0002:0001231a       ?setBackgroundOrigin@QWidget@@UAEXW4BackgroundOrigin@1@@Z 0042331a f   qt-mt323:qt-mt323.dll
 0002:00012320       ?setBackgroundPixmap@QWidget@@UAEXABVQPixmap@@@Z 00423320 f   qt-mt323:qt-mt323.dll
 0002:00012326       ?setCaption@QWidget@@UAEXABVQString@@@Z 00423326 f   qt-mt323:qt-mt323.dll
 0002:0001232c       ?setCursor@QWidget@@UAEXABVQCursor@@@Z 0042332c f   qt-mt323:qt-mt323.dll
 0002:00012332       ?setDragEnabled@QListViewItem@@UAEX_N@Z 00423332 f   qt-mt323:qt-mt323.dll
 0002:00012338       ?setDropEnabled@QListViewItem@@UAEX_N@Z 00423338 f   qt-mt323:qt-mt323.dll
 0002:0001233e       ?setEnabled@QListViewItem@@UAEX_N@Z 0042333e f   qt-mt323:qt-mt323.dll
 0002:00012344       ?setEnabled@QWidget@@UAEX_N@Z 00423344 f   qt-mt323:qt-mt323.dll
 0002:0001234a       ?setEraseColor@QWidget@@UAEXABVQColor@@@Z 0042334a f   qt-mt323:qt-mt323.dll
 0002:00012350       ?setErasePixmap@QWidget@@UAEXABVQPixmap@@@Z 00423350 f   qt-mt323:qt-mt323.dll
 0002:00012356       ?setExpandable@QListViewItem@@UAEX_N@Z 00423356 f   qt-mt323:qt-mt323.dll
 0002:0001235c       ?setFocus@QWidget@@UAEXXZ  0042335c f   qt-mt323:qt-mt323.dll
 0002:00012362       ?setFocusPolicy@QWidget@@UAEXW4FocusPolicy@1@@Z 00423362 f   qt-mt323:qt-mt323.dll
 0002:00012368       ?setFocusProxy@QWidget@@UAEXPAV1@@Z 00423368 f   qt-mt323:qt-mt323.dll
 0002:0001236e       ?setFont@QWidget@@UAEXABVQFont@@@Z 0042336e f   qt-mt323:qt-mt323.dll
 0002:00012374       ?setGeometry@QDialog@@UAEXABVQRect@@@Z 00423374 f   qt-mt323:qt-mt323.dll
 0002:0001237a       ?setGeometry@QDialog@@UAEXHHHH@Z 0042337a f   qt-mt323:qt-mt323.dll
 0002:00012380       ?setHeight@QListViewItem@@MAEXH@Z 00423380 f   qt-mt323:qt-mt323.dll
 0002:00012386       ?setIconText@QWidget@@UAEXABVQString@@@Z 00423386 f   qt-mt323:qt-mt323.dll
 0002:0001238c       ?setKeyCompression@QWidget@@MAEX_N@Z 0042338c f   qt-mt323:qt-mt323.dll
 0002:00012392       ?setMask@QWidget@@UAEXABVQBitmap@@@Z 00423392 f   qt-mt323:qt-mt323.dll
 0002:00012398       ?setMask@QWidget@@UAEXABVQRegion@@@Z 00423398 f   qt-mt323:qt-mt323.dll
 0002:0001239e       ?setMaximumSize@QWidget@@UAEXHH@Z 0042339e f   qt-mt323:qt-mt323.dll
 0002:000123a4       ?setMicroFocusHint@QWidget@@MAEXHHHH_NPAVQFont@@@Z 004233a4 f   qt-mt323:qt-mt323.dll
 0002:000123aa       ?setMinimumSize@QWidget@@UAEXHH@Z 004233aa f   qt-mt323:qt-mt323.dll
 0002:000123b0       ?setMouseTracking@QWidget@@UAEX_N@Z 004233b0 f   qt-mt323:qt-mt323.dll
 0002:000123b6       ?setMultiLinesEnabled@QListViewItem@@UAEX_N@Z 004233b6 f   qt-mt323:qt-mt323.dll
 0002:000123bc       ?setName@QObject@@UAEXPBD@Z 004233bc f   qt-mt323:qt-mt323.dll
 0002:000123c2       ?setName@QWidget@@UAEXPBD@Z 004233c2 f   qt-mt323:qt-mt323.dll
 0002:000123c8       ?setOpen@QListViewItem@@UAEX_N@Z 004233c8 f   qt-mt323:qt-mt323.dll
 0002:000123ce       ?setPalette@QWidget@@UAEXABVQPalette@@@Z 004233ce f   qt-mt323:qt-mt323.dll
 0002:000123d4       ?setPaletteBackgroundColor@QWidget@@UAEXABVQColor@@@Z 004233d4 f   qt-mt323:qt-mt323.dll
 0002:000123da       ?setPaletteBackgroundPixmap@QWidget@@UAEXABVQPixmap@@@Z 004233da f   qt-mt323:qt-mt323.dll
 0002:000123e0       ?setPixmap@QListViewItem@@UAEXHABVQPixmap@@@Z 004233e0 f   qt-mt323:qt-mt323.dll
 0002:000123e6       ?setProperty@QObject@@UAE_NPBDABVQVariant@@@Z 004233e6 f   qt-mt323:qt-mt323.dll
 0002:000123ec       ?setRenameEnabled@QListViewItem@@UAEXH_N@Z 004233ec f   qt-mt323:qt-mt323.dll
 0002:000123f2       ?setResolution@QPaintDevice@@UAEXH@Z 004233f2 f   qt-mt323:qt-mt323.dll
 0002:000123f8       ?setSelectable@QListViewItem@@UAEX_N@Z 004233f8 f   qt-mt323:qt-mt323.dll
 0002:000123fe       ?setSelected@QListViewItem@@UAEX_N@Z 004233fe f   qt-mt323:qt-mt323.dll
 0002:00012404       ?setSizeIncrement@QWidget@@UAEXHH@Z 00423404 f   qt-mt323:qt-mt323.dll
 0002:0001240a       ?setSizePolicy@QWidget@@UAEXVQSizePolicy@@@Z 0042340a f   qt-mt323:qt-mt323.dll
 0002:00012410       ?setText@QListViewItem@@UAEXHABVQString@@@Z 00423410 f   qt-mt323:qt-mt323.dll
 0002:00012416       ?setUpdatesEnabled@QWidget@@UAEX_N@Z 00423416 f   qt-mt323:qt-mt323.dll
 0002:0001241c       ?setWFlags@QWidget@@MAEXI@Z 0042341c f   qt-mt323:qt-mt323.dll
 0002:00012422       ?setWState@QWidget@@MAEXI@Z 00423422 f   qt-mt323:qt-mt323.dll
 0002:00012428       ?setWorkingDirectory@QProcess@@UAEXABVQDir@@@Z 00423428 f   qt-mt323:qt-mt323.dll
 0002:0001242e       ?setup@QListViewItem@@UAEXXZ 0042342e f   qt-mt323:qt-mt323.dll
 0002:00012434       ?show@QDialog@@UAEXXZ      00423434 f   qt-mt323:qt-mt323.dll
 0002:0001243a       ?showEvent@QWidget@@MAEXPAVQShowEvent@@@Z 0042343a f   qt-mt323:qt-mt323.dll
 0002:00012440       ?showMaximized@QWidget@@UAEXXZ 00423440 f   qt-mt323:qt-mt323.dll
 0002:00012446       ?showMinimized@QWidget@@UAEXXZ 00423446 f   qt-mt323:qt-mt323.dll
 0002:0001244c       ?showNormal@QWidget@@UAEXXZ 0042344c f   qt-mt323:qt-mt323.dll
 0002:00012452       ?sizeHint@QDialog@@UBE?AVQSize@@XZ 00423452 f   qt-mt323:qt-mt323.dll
 0002:00012458       ?sizePolicy@QWidget@@UBE?AVQSizePolicy@@XZ 00423458 f   qt-mt323:qt-mt323.dll
 0002:0001245e       ?sort@QListViewItem@@UAEXXZ 0042345e f   qt-mt323:qt-mt323.dll
 0002:00012464       ?sortChildItems@QListViewItem@@UAEXH_N@Z 00423464 f   qt-mt323:qt-mt323.dll
 0002:0001246a       ?start@QProcess@@UAE_NPAVQStringList@@@Z 0042346a f   qt-mt323:qt-mt323.dll
 0002:00012470       ?startRename@QListViewItem@@UAEXH@Z 00423470 f   qt-mt323:qt-mt323.dll
 0002:00012476       ?styleChange@QWidget@@MAEXAAVQStyle@@@Z 00423476 f   qt-mt323:qt-mt323.dll
 0002:0001247c       ?tabletEvent@QWidget@@MAEXPAVQTabletEvent@@@Z 0042347c f   qt-mt323:qt-mt323.dll
 0002:00012482       ?takeItem@QListViewItem@@UAEXPAV1@@Z 00423482 f   qt-mt323:qt-mt323.dll
 0002:00012488       ?text@QListViewItem@@UBE?AVQString@@H@Z 00423488 f   qt-mt323:qt-mt323.dll
 0002:0001248e       ?timerEvent@QObject@@MAEXPAVQTimerEvent@@@Z 0042348e f   qt-mt323:qt-mt323.dll
 0002:00012494       ?unsetCursor@QWidget@@UAEXXZ 00423494 f   qt-mt323:qt-mt323.dll
 0002:0001249a       ?updateMask@QWidget@@MAEXXZ 0042349a f   qt-mt323:qt-mt323.dll
 0002:000124a0       ?wheelEvent@QWidget@@MAEXPAVQWheelEvent@@@Z 004234a0 f   qt-mt323:qt-mt323.dll
 0002:000124a6       ?width@QListViewItem@@UBEHABVQFontMetrics@@PBVQListView@@H@Z 004234a6 f   qt-mt323:qt-mt323.dll
 0002:000124ac       ?winEvent@QWidget@@MAE_NPAUtagMSG@@@Z 004234ac f   qt-mt323:qt-mt323.dll
 0002:000124b2       ?windowActivationChange@QWidget@@MAEX_N@Z 004234b2 f   qt-mt323:qt-mt323.dll
 0002:000124b8       ?writeToStdin@QProcess@@UAEXABV?$QMemArray@D@@@Z 004234b8 f   qt-mt323:qt-mt323.dll
 0002:000124be       ?writeToStdin@QProcess@@UAEXABVQString@@@Z 004234be f   qt-mt323:qt-mt323.dll
 0002:000124c4       ?qstrcmp@@YAHPBD0@Z        004234c4 f   qt-mt323:qt-mt323.dll
 0002:000124ca       ?fromLatin1@QString@@SA?AV1@PBDH@Z 004234ca f   qt-mt323:qt-mt323.dll
 0002:000124d0       ?fromUtf8@QString@@SA?AV1@PBDH@Z 004234d0 f   qt-mt323:qt-mt323.dll
 0002:000124d6       ?slotOffset@QMetaObject@@QBEHXZ 004234d6 f   qt-mt323:qt-mt323.dll
 0002:000124dc       ?new_metaobject@QMetaObject@@SAPAV1@PBDPAV1@QBUQMetaData@@H2HQBVQMetaProperty@@HQBUQMetaEnum@@HQBUQClassInfo@@H@Z 004234dc f   qt-mt323:qt-mt323.dll
 0002:000124e2       ??0QMetaObjectCleanUp@@QAE@PBDP6APAVQMetaObject@@XZ@Z 004234e2 f   qt-mt323:qt-mt323.dll
 0002:000124e8       ??1QMetaObjectCleanUp@@QAE@XZ 004234e8 f   qt-mt323:qt-mt323.dll
 0002:000124ee       ?setMetaObject@QMetaObjectCleanUp@@QAEXAAPAVQMetaObject@@@Z 004234ee f   qt-mt323:qt-mt323.dll
 0002:000124f4       ?translate@QApplication@@QBE?AVQString@@PBD00W4Encoding@1@@Z 004234f4 f   qt-mt323:qt-mt323.dll
 0002:000124fa       ?get@QUType_ptr@@QAEAAPAXPAUQUObject@@@Z 004234fa f   qt-mt323:qt-mt323.dll
 0002:00012500       ?qt_cast@QDialog@@UAEPAXPBD@Z 00423500 f   qt-mt323:qt-mt323.dll
 0002:00012506       ?qt_invoke@QDialog@@UAE_NHPAUQUObject@@@Z 00423506 f   qt-mt323:qt-mt323.dll
 0002:0001250c       ?qt_emit@QDialog@@UAE_NHPAUQUObject@@@Z 0042350c f   qt-mt323:qt-mt323.dll
 0002:00012512       ?qt_property@QDialog@@UAE_NHHPAVQVariant@@@Z 00423512 f   qt-mt323:qt-mt323.dll
 0002:00012518       ?staticMetaObject@QDialog@@SAPAVQMetaObject@@XZ 00423518 f   qt-mt323:qt-mt323.dll
 0002:0001251e       ??0QSize@@QAE@HH@Z         0042351e f   qt-mt323:qt-mt323.dll
 0002:00012524       ?expandedTo@QSize@@QBE?AV1@ABV1@@Z 00423524 f   qt-mt323:qt-mt323.dll
 0002:0001252a       ??0QSizePolicy@@QAE@W4SizeType@0@0EE_N@Z 0042352a f   qt-mt323:qt-mt323.dll
 0002:00012530       ?hasHeightForWidth@QSizePolicy@@QBE_NXZ 00423530 f   qt-mt323:qt-mt323.dll
 0002:00012536       ?setMinimumSize@QWidget@@QAEXABVQSize@@@Z 00423536 f   qt-mt323:qt-mt323.dll
 0002:0001253c       ?setMaximumSize@QWidget@@QAEXABVQSize@@@Z 0042353c f   qt-mt323:qt-mt323.dll
 0002:00012542       ?setTabOrder@QWidget@@SAXPAV1@0@Z 00423542 f   qt-mt323:qt-mt323.dll
 0002:00012548       ?layout@QWidget@@QBEPAVQLayout@@XZ 00423548 f   qt-mt323:qt-mt323.dll
 0002:0001254e       ?clearWState@QWidget@@IAEXI@Z 0042354e f   qt-mt323:qt-mt323.dll
 0002:00012554       ??0QDialog@@QAE@PAVQWidget@@PBD_NI@Z 00423554 f   qt-mt323:qt-mt323.dll
 0002:0001255a       ??1QDialog@@UAE@XZ         0042355a f   qt-mt323:qt-mt323.dll
 0002:00012560       ?resize@QDialog@@QAEXABVQSize@@@Z 00423560 f   qt-mt323:qt-mt323.dll
 0002:00012566       ?setSizeGripEnabled@QDialog@@QAEX_N@Z 00423566 f   qt-mt323:qt-mt323.dll
 0002:0001256c       ??0QKeySequence@@QAE@ABVQString@@@Z 0042356c f   qt-mt323:qt-mt323.dll
 0002:00012572       ??1QKeySequence@@QAE@XZ    00423572 f   qt-mt323:qt-mt323.dll
 0002:00012578       ??0QPushButton@@QAE@PAVQWidget@@PBD@Z 00423578 f   qt-mt323:qt-mt323.dll
 0002:0001257e       ??1QPushButton@@UAE@XZ     0042357e f   qt-mt323:qt-mt323.dll
 0002:00012584       ?setFrameShape@QFrame@@QAEXW4Shape@1@@Z 00423584 f   qt-mt323:qt-mt323.dll
 0002:0001258a       ?setFrameShadow@QFrame@@QAEXW4Shadow@1@@Z 0042358a f   qt-mt323:qt-mt323.dll
 0002:00012590       ??0QLabel@@QAE@PAVQWidget@@PBDI@Z 00423590 f   qt-mt323:qt-mt323.dll
 0002:00012596       ??1QLabel@@UAE@XZ          00423596 f   qt-mt323:qt-mt323.dll
 0002:0001259c       ??0QGroupBox@@QAE@PAVQWidget@@PBD@Z 0042359c f   qt-mt323:qt-mt323.dll
 0002:000125a2       ??1QGroupBox@@UAE@XZ       004235a2 f   qt-mt323:qt-mt323.dll
 0002:000125a8       ??0QLineEdit@@QAE@PAVQWidget@@PBD@Z 004235a8 f   qt-mt323:qt-mt323.dll
 0002:000125ae       ??1QLineEdit@@UAE@XZ       004235ae f   qt-mt323:qt-mt323.dll
 0002:000125b4       ??0QListView@@QAE@PAVQWidget@@PBDI@Z 004235b4 f   qt-mt323:qt-mt323.dll
 0002:000125ba       ??1QListView@@UAE@XZ       004235ba f   qt-mt323:qt-mt323.dll
 0002:000125c0       ?header@QListView@@QBEPAVQHeader@@XZ 004235c0 f   qt-mt323:qt-mt323.dll
 0002:000125c6       ??0QSpacerItem@@QAE@HHW4SizeType@QSizePolicy@@0@Z 004235c6 f   qt-mt323:qt-mt323.dll
 0002:000125cc       ??1QSpacerItem@@UAE@XZ     004235cc f   qt-mt323:qt-mt323.dll
 0002:000125d2       ?addWidget@QBoxLayout@@QAEXPAVQWidget@@HH@Z 004235d2 f   qt-mt323:qt-mt323.dll
 0002:000125d8       ?addLayout@QBoxLayout@@QAEXPAVQLayout@@H@Z 004235d8 f   qt-mt323:qt-mt323.dll
 0002:000125de       ??0QHBoxLayout@@QAE@PAVQWidget@@HHPBD@Z 004235de f   qt-mt323:qt-mt323.dll
 0002:000125e4       ??0QHBoxLayout@@QAE@PAVQLayout@@HPBD@Z 004235e4 f   qt-mt323:qt-mt323.dll
 0002:000125ea       ??1QHBoxLayout@@UAE@XZ     004235ea f   qt-mt323:qt-mt323.dll
 0002:000125f0       ??0QVBoxLayout@@QAE@PAVQWidget@@HHPBD@Z 004235f0 f   qt-mt323:qt-mt323.dll
 0002:000125f6       ??0QVBoxLayout@@QAE@PAVQLayout@@HPBD@Z 004235f6 f   qt-mt323:qt-mt323.dll
 0002:000125fc       ??1QVBoxLayout@@UAE@XZ     004235fc f   qt-mt323:qt-mt323.dll
 0002:00012602       ?add@QToolTip@@SAXPAVQWidget@@ABVQString@@@Z 00423602 f   qt-mt323:qt-mt323.dll
 0002:00012608       ?add@QWhatsThis@@SAXPAVQWidget@@ABVQString@@@Z 00423608 f   qt-mt323:qt-mt323.dll
 0002:0001260e       ?addChild@QScrollView@@UAEXPAVQWidget@@HH@Z 0042360e f   qt-mt323:qt-mt323.dll
 0002:00012614       ?addColumn@QListView@@UAEHABVQIconSet@@ABVQString@@H@Z 00423614 f   qt-mt323:qt-mt323.dll
 0002:0001261a       ?addColumn@QListView@@UAEHABVQString@@H@Z 0042361a f   qt-mt323:qt-mt323.dll
 0002:00012620       ?addItem@QBoxLayout@@UAEXPAVQLayoutItem@@@Z 00423620 f   qt-mt323:qt-mt323.dll
 0002:00012626       ?childEvent@QGroupBox@@MAEXPAVQChildEvent@@@Z 00423626 f   qt-mt323:qt-mt323.dll
 0002:0001262c       ?childEvent@QLayout@@MAEXPAVQChildEvent@@@Z 0042362c f   qt-mt323:qt-mt323.dll
 0002:00012632       ?className@QGroupBox@@UBEPBDXZ 00423632 f   qt-mt323:qt-mt323.dll
 0002:00012638       ?className@QHBoxLayout@@UBEPBDXZ 00423638 f   qt-mt323:qt-mt323.dll
 0002:0001263e       ?className@QLabel@@UBEPBDXZ 0042363e f   qt-mt323:qt-mt323.dll
 0002:00012644       ?className@QLineEdit@@UBEPBDXZ 00423644 f   qt-mt323:qt-mt323.dll
 0002:0001264a       ?className@QListView@@UBEPBDXZ 0042364a f   qt-mt323:qt-mt323.dll
 0002:00012650       ?className@QPushButton@@UBEPBDXZ 00423650 f   qt-mt323:qt-mt323.dll
 0002:00012656       ?className@QVBoxLayout@@UBEPBDXZ 00423656 f   qt-mt323:qt-mt323.dll
 0002:0001265c       ?clear@QLineEdit@@UAEXXZ   0042365c f   qt-mt323:qt-mt323.dll
 0002:00012662       ?clear@QListView@@UAEXXZ   00423662 f   qt-mt323:qt-mt323.dll
 0002:00012668       ?clearSelection@QListView@@UAEXXZ 00423668 f   qt-mt323:qt-mt323.dll
 0002:0001266e       ?clearValidator@QLineEdit@@UAEXXZ 0042366e f   qt-mt323:qt-mt323.dll
 0002:00012674       ?closeEvent@QWidget@@MAEXPAVQCloseEvent@@@Z 00423674 f   qt-mt323:qt-mt323.dll
 0002:0001267a       ?contentsContextMenuEvent@QListView@@MAEXPAVQContextMenuEvent@@@Z 0042367a f   qt-mt323:qt-mt323.dll
 0002:00012680       ?contentsDragEnterEvent@QListView@@MAEXPAVQDragEnterEvent@@@Z 00423680 f   qt-mt323:qt-mt323.dll
 0002:00012686       ?contentsDragLeaveEvent@QListView@@MAEXPAVQDragLeaveEvent@@@Z 00423686 f   qt-mt323:qt-mt323.dll
 0002:0001268c       ?contentsDragMoveEvent@QListView@@MAEXPAVQDragMoveEvent@@@Z 0042368c f   qt-mt323:qt-mt323.dll
 0002:00012692       ?contentsDropEvent@QListView@@MAEXPAVQDropEvent@@@Z 00423692 f   qt-mt323:qt-mt323.dll
 0002:00012698       ?contentsMouseDoubleClickEvent@QListView@@MAEXPAVQMouseEvent@@@Z 00423698 f   qt-mt323:qt-mt323.dll
 0002:0001269e       ?contentsMouseMoveEvent@QListView@@MAEXPAVQMouseEvent@@@Z 0042369e f   qt-mt323:qt-mt323.dll
 0002:000126a4       ?contentsMousePressEvent@QListView@@MAEXPAVQMouseEvent@@@Z 004236a4 f   qt-mt323:qt-mt323.dll
 0002:000126aa       ?contentsMouseReleaseEvent@QListView@@MAEXPAVQMouseEvent@@@Z 004236aa f   qt-mt323:qt-mt323.dll
 0002:000126b0       ?contentsWheelEvent@QScrollView@@MAEXPAVQWheelEvent@@@Z 004236b0 f   qt-mt323:qt-mt323.dll
 0002:000126b6       ?contextMenuEvent@QLineEdit@@MAEXPAVQContextMenuEvent@@@Z 004236b6 f   qt-mt323:qt-mt323.dll
 0002:000126bc       ?contextMenuEvent@QScrollView@@MAEXPAVQContextMenuEvent@@@Z 004236bc f   qt-mt323:qt-mt323.dll
 0002:000126c2       ?contextMenuEvent@QWidget@@MAEXPAVQContextMenuEvent@@@Z 004236c2 f   qt-mt323:qt-mt323.dll
 0002:000126c8       ?copy@QLineEdit@@UBEXXZ    004236c8 f   qt-mt323:qt-mt323.dll
 0002:000126ce       ?createPopupMenu@QLineEdit@@MAEPAVQPopupMenu@@XZ 004236ce f   qt-mt323:qt-mt323.dll
 0002:000126d4       ?cut@QLineEdit@@UAEXXZ     004236d4 f   qt-mt323:qt-mt323.dll
 0002:000126da       ?deselect@QLineEdit@@UAEXXZ 004236da f   qt-mt323:qt-mt323.dll
 0002:000126e0       ?dragEnterEvent@QLineEdit@@MAEXPAVQDragEnterEvent@@@Z 004236e0 f   qt-mt323:qt-mt323.dll
 0002:000126e6       ?dragLeaveEvent@QLineEdit@@MAEXPAVQDragLeaveEvent@@@Z 004236e6 f   qt-mt323:qt-mt323.dll
 0002:000126ec       ?dragMoveEvent@QLineEdit@@MAEXPAVQDragMoveEvent@@@Z 004236ec f   qt-mt323:qt-mt323.dll
 0002:000126f2       ?dragObject@QListView@@MAEPAVQDragObject@@XZ 004236f2 f   qt-mt323:qt-mt323.dll
 0002:000126f8       ?drawButton@QPushButton@@MAEXPAVQPainter@@@Z 004236f8 f   qt-mt323:qt-mt323.dll
 0002:000126fe       ?drawButtonLabel@QPushButton@@MAEXPAVQPainter@@@Z 004236fe f   qt-mt323:qt-mt323.dll
 0002:00012704       ?drawContents@QFrame@@MAEXPAVQPainter@@@Z 00423704 f   qt-mt323:qt-mt323.dll
 0002:0001270a       ?drawContents@QLabel@@MAEXPAVQPainter@@@Z 0042370a f   qt-mt323:qt-mt323.dll
 0002:00012710       ?drawContents@QLineEdit@@MAEXPAVQPainter@@@Z 00423710 f   qt-mt323:qt-mt323.dll
 0002:00012716       ?drawContents@QScrollView@@EAEXPAVQPainter@@@Z 00423716 f   qt-mt323:qt-mt323.dll
 0002:0001271c       ?drawContents@QScrollView@@MAEXPAVQPainter@@HHHH@Z 0042371c f   qt-mt323:qt-mt323.dll
 0002:00012722       ?drawContentsOffset@QListView@@MAEXPAVQPainter@@HHHHHH@Z 00423722 f   qt-mt323:qt-mt323.dll
 0002:00012728       ?drawFrame@QFrame@@MAEXPAVQPainter@@@Z 00423728 f   qt-mt323:qt-mt323.dll
 0002:0001272e       ?dropEvent@QLineEdit@@MAEXPAVQDropEvent@@@Z 0042372e f   qt-mt323:qt-mt323.dll
 0002:00012734       ?enabledChange@QButton@@MAEX_N@Z 00423734 f   qt-mt323:qt-mt323.dll
 0002:0001273a       ?event@QGroupBox@@MAE_NPAVQEvent@@@Z 0042373a f   qt-mt323:qt-mt323.dll
 0002:00012740       ?event@QLineEdit@@MAE_NPAVQEvent@@@Z 00423740 f   qt-mt323:qt-mt323.dll
 0002:00012746       ?eventFilter@QLayout@@MAE_NPAVQObject@@PAVQEvent@@@Z 00423746 f   qt-mt323:qt-mt323.dll
 0002:0001274c       ?eventFilter@QListView@@UAE_NPAVQObject@@PAVQEvent@@@Z 0042374c f   qt-mt323:qt-mt323.dll
 0002:00012752       ?expanding@QBoxLayout@@UBE?AW4ExpandData@QSizePolicy@@XZ 00423752 f   qt-mt323:qt-mt323.dll
 0002:00012758       ?expanding@QSpacerItem@@UBE?AW4ExpandData@QSizePolicy@@XZ 00423758 f   qt-mt323:qt-mt323.dll
 0002:0001275e       ?focusInEvent@QGroupBox@@MAEXPAVQFocusEvent@@@Z 0042375e f   qt-mt323:qt-mt323.dll
 0002:00012764       ?focusInEvent@QLineEdit@@MAEXPAVQFocusEvent@@@Z 00423764 f   qt-mt323:qt-mt323.dll
 0002:0001276a       ?focusInEvent@QListView@@MAEXPAVQFocusEvent@@@Z 0042376a f   qt-mt323:qt-mt323.dll
 0002:00012770       ?focusInEvent@QPushButton@@MAEXPAVQFocusEvent@@@Z 00423770 f   qt-mt323:qt-mt323.dll
 0002:00012776       ?focusNextPrevChild@QScrollView@@MAE_N_N@Z 00423776 f   qt-mt323:qt-mt323.dll
 0002:0001277c       ?focusOutEvent@QLineEdit@@MAEXPAVQFocusEvent@@@Z 0042377c f   qt-mt323:qt-mt323.dll
 0002:00012782       ?focusOutEvent@QListView@@MAEXPAVQFocusEvent@@@Z 00423782 f   qt-mt323:qt-mt323.dll
 0002:00012788       ?focusOutEvent@QPushButton@@MAEXPAVQFocusEvent@@@Z 00423788 f   qt-mt323:qt-mt323.dll
 0002:0001278e       ?fontChange@QGroupBox@@MAEXABVQFont@@@Z 0042378e f   qt-mt323:qt-mt323.dll
 0002:00012794       ?fontChange@QLabel@@MAEXABVQFont@@@Z 00423794 f   qt-mt323:qt-mt323.dll
 0002:0001279a       ?fontChange@QScrollView@@MAEXABVQFont@@@Z 0042379a f   qt-mt323:qt-mt323.dll
 0002:000127a0       ?frameChanged@QFrame@@MAEXXZ 004237a0 f   qt-mt323:qt-mt323.dll
 0002:000127a6       ?frameChanged@QScrollView@@MAEXXZ 004237a6 f   qt-mt323:qt-mt323.dll
 0002:000127ac       ?geometry@QLayout@@UBE?AVQRect@@XZ 004237ac f   qt-mt323:qt-mt323.dll
 0002:000127b2       ?geometry@QSpacerItem@@UBE?AVQRect@@XZ 004237b2 f   qt-mt323:qt-mt323.dll
 0002:000127b8       ?hasHeightForWidth@QBoxLayout@@UBE_NXZ 004237b8 f   qt-mt323:qt-mt323.dll
 0002:000127be       ?hasHeightForWidth@QLayoutItem@@UBE_NXZ 004237be f   qt-mt323:qt-mt323.dll
 0002:000127c4       ?heightForWidth@QBoxLayout@@UBEHH@Z 004237c4 f   qt-mt323:qt-mt323.dll
 0002:000127ca       ?heightForWidth@QLabel@@UBEHH@Z 004237ca f   qt-mt323:qt-mt323.dll
 0002:000127d0       ?heightForWidth@QLayoutItem@@UBEHH@Z 004237d0 f   qt-mt323:qt-mt323.dll
 0002:000127d6       ?hide@QWidget@@UAEXXZ      004237d6 f   qt-mt323:qt-mt323.dll
 0002:000127dc       ?hitButton@QButton@@MBE_NABVQPoint@@@Z 004237dc f   qt-mt323:qt-mt323.dll
 0002:000127e2       ?imComposeEvent@QLineEdit@@MAEXPAVQIMEvent@@@Z 004237e2 f   qt-mt323:qt-mt323.dll
 0002:000127e8       ?imEndEvent@QLineEdit@@MAEXPAVQIMEvent@@@Z 004237e8 f   qt-mt323:qt-mt323.dll
 0002:000127ee       ?imStartEvent@QLineEdit@@MAEXPAVQIMEvent@@@Z 004237ee f   qt-mt323:qt-mt323.dll
 0002:000127f4       ?insert@QLineEdit@@UAEXABVQString@@@Z 004237f4 f   qt-mt323:qt-mt323.dll
 0002:000127fa       ?insertItem@QListView@@UAEXPAVQListViewItem@@@Z 004237fa f   qt-mt323:qt-mt323.dll
 0002:00012800       ?invalidate@QBoxLayout@@UAEXXZ 00423800 f   qt-mt323:qt-mt323.dll
 0002:00012806       ?invalidate@QLayoutItem@@UAEXXZ 00423806 f   qt-mt323:qt-mt323.dll
 0002:0001280c       ?invertSelection@QListView@@UAEXXZ 0042380c f   qt-mt323:qt-mt323.dll
 0002:00012812       ?isEmpty@QLayout@@UBE_NXZ  00423812 f   qt-mt323:qt-mt323.dll
 0002:00012818       ?isEmpty@QSpacerItem@@UBE_NXZ 00423818 f   qt-mt323:qt-mt323.dll
 0002:0001281e       ?iterator@QBoxLayout@@UAE?AVQLayoutIterator@@XZ 0042381e f   qt-mt323:qt-mt323.dll
 0002:00012824       ?iterator@QLayoutItem@@UAE?AVQLayoutIterator@@XZ 00423824 f   qt-mt323:qt-mt323.dll
 0002:0001282a       ?keyPressEvent@QButton@@MAEXPAVQKeyEvent@@@Z 0042382a f   qt-mt323:qt-mt323.dll
 0002:00012830       ?keyPressEvent@QLineEdit@@MAEXPAVQKeyEvent@@@Z 00423830 f   qt-mt323:qt-mt323.dll
 0002:00012836       ?keyPressEvent@QListView@@MAEXPAVQKeyEvent@@@Z 00423836 f   qt-mt323:qt-mt323.dll
 0002:0001283c       ?keyPressEvent@QWidget@@MAEXPAVQKeyEvent@@@Z 0042383c f   qt-mt323:qt-mt323.dll
 0002:00012842       ?keyReleaseEvent@QButton@@MAEXPAVQKeyEvent@@@Z 00423842 f   qt-mt323:qt-mt323.dll
 0002:00012848       ?layout@QLayout@@UAEPAV1@XZ 00423848 f   qt-mt323:qt-mt323.dll
 0002:0001284e       ?layout@QLayoutItem@@UAEPAVQLayout@@XZ 0042384e f   qt-mt323:qt-mt323.dll
 0002:00012854       ?maximumSize@QBoxLayout@@UBE?AVQSize@@XZ 00423854 f   qt-mt323:qt-mt323.dll
 0002:0001285a       ?maximumSize@QSpacerItem@@UBE?AVQSize@@XZ 0042385a f   qt-mt323:qt-mt323.dll
 0002:00012860       ?metaObject@QGroupBox@@UBEPAVQMetaObject@@XZ 00423860 f   qt-mt323:qt-mt323.dll
 0002:00012866       ?metaObject@QHBoxLayout@@UBEPAVQMetaObject@@XZ 00423866 f   qt-mt323:qt-mt323.dll
 0002:0001286c       ?metaObject@QLabel@@UBEPAVQMetaObject@@XZ 0042386c f   qt-mt323:qt-mt323.dll
 0002:00012872       ?metaObject@QLineEdit@@UBEPAVQMetaObject@@XZ 00423872 f   qt-mt323:qt-mt323.dll
 0002:00012878       ?metaObject@QListView@@UBEPAVQMetaObject@@XZ 00423878 f   qt-mt323:qt-mt323.dll
 0002:0001287e       ?metaObject@QPushButton@@UBEPAVQMetaObject@@XZ 0042387e f   qt-mt323:qt-mt323.dll
 0002:00012884       ?metaObject@QVBoxLayout@@UBEPAVQMetaObject@@XZ 00423884 f   qt-mt323:qt-mt323.dll
 0002:0001288a       ?minimumSize@QBoxLayout@@UBE?AVQSize@@XZ 0042388a f   qt-mt323:qt-mt323.dll
 0002:00012890       ?minimumSize@QSpacerItem@@UBE?AVQSize@@XZ 00423890 f   qt-mt323:qt-mt323.dll
 0002:00012896       ?minimumSizeHint@QLabel@@UBE?AVQSize@@XZ 00423896 f   qt-mt323:qt-mt323.dll
 0002:0001289c       ?minimumSizeHint@QLineEdit@@UBE?AVQSize@@XZ 0042389c f   qt-mt323:qt-mt323.dll
 0002:000128a2       ?minimumSizeHint@QListView@@UBE?AVQSize@@XZ 004238a2 f   qt-mt323:qt-mt323.dll
 0002:000128a8       ?minimumSizeHint@QWidget@@UBE?AVQSize@@XZ 004238a8 f   qt-mt323:qt-mt323.dll
 0002:000128ae       ?mouseDoubleClickEvent@QLineEdit@@MAEXPAVQMouseEvent@@@Z 004238ae f   qt-mt323:qt-mt323.dll
 0002:000128b4       ?mouseDoubleClickEvent@QScrollView@@MAEXPAVQMouseEvent@@@Z 004238b4 f   qt-mt323:qt-mt323.dll
 0002:000128ba       ?mouseMoveEvent@QButton@@MAEXPAVQMouseEvent@@@Z 004238ba f   qt-mt323:qt-mt323.dll
 0002:000128c0       ?mouseMoveEvent@QLineEdit@@MAEXPAVQMouseEvent@@@Z 004238c0 f   qt-mt323:qt-mt323.dll
 0002:000128c6       ?mouseMoveEvent@QScrollView@@MAEXPAVQMouseEvent@@@Z 004238c6 f   qt-mt323:qt-mt323.dll
 0002:000128cc       ?mousePressEvent@QButton@@MAEXPAVQMouseEvent@@@Z 004238cc f   qt-mt323:qt-mt323.dll
 0002:000128d2       ?mousePressEvent@QLineEdit@@MAEXPAVQMouseEvent@@@Z 004238d2 f   qt-mt323:qt-mt323.dll
 0002:000128d8       ?mousePressEvent@QScrollView@@MAEXPAVQMouseEvent@@@Z 004238d8 f   qt-mt323:qt-mt323.dll
 0002:000128de       ?mouseReleaseEvent@QButton@@MAEXPAVQMouseEvent@@@Z 004238de f   qt-mt323:qt-mt323.dll
 0002:000128e4       ?mouseReleaseEvent@QLineEdit@@MAEXPAVQMouseEvent@@@Z 004238e4 f   qt-mt323:qt-mt323.dll
 0002:000128ea       ?mouseReleaseEvent@QScrollView@@MAEXPAVQMouseEvent@@@Z 004238ea f   qt-mt323:qt-mt323.dll
 0002:000128f0       ?move@QPushButton@@UAEXHH@Z 004238f0 f   qt-mt323:qt-mt323.dll
 0002:000128f6       ?move@QWidget@@UAEXHH@Z    004238f6 f   qt-mt323:qt-mt323.dll
 0002:000128fc       ?moveChild@QScrollView@@UAEXPAVQWidget@@HH@Z 004238fc f   qt-mt323:qt-mt323.dll
 0002:00012902       ?paintEmptyArea@QListView@@MAEXPAVQPainter@@ABVQRect@@@Z 00423902 f   qt-mt323:qt-mt323.dll
 0002:00012908       ?paintEvent@QButton@@MAEXPAVQPaintEvent@@@Z 00423908 f   qt-mt323:qt-mt323.dll
 0002:0001290e       ?paintEvent@QFrame@@MAEXPAVQPaintEvent@@@Z 0042390e f   qt-mt323:qt-mt323.dll
 0002:00012914       ?paintEvent@QGroupBox@@MAEXPAVQPaintEvent@@@Z 00423914 f   qt-mt323:qt-mt323.dll
 0002:0001291a       ?paste@QLineEdit@@UAEXXZ   0042391a f   qt-mt323:qt-mt323.dll
 0002:00012920       ?qt_cast@QGroupBox@@UAEPAXPBD@Z 00423920 f   qt-mt323:qt-mt323.dll
 0002:00012926       ?qt_cast@QHBoxLayout@@UAEPAXPBD@Z 00423926 f   qt-mt323:qt-mt323.dll
 0002:0001292c       ?qt_cast@QLabel@@UAEPAXPBD@Z 0042392c f   qt-mt323:qt-mt323.dll
 0002:00012932       ?qt_cast@QLineEdit@@UAEPAXPBD@Z 00423932 f   qt-mt323:qt-mt323.dll
 0002:00012938       ?qt_cast@QListView@@UAEPAXPBD@Z 00423938 f   qt-mt323:qt-mt323.dll
 0002:0001293e       ?qt_cast@QPushButton@@UAEPAXPBD@Z 0042393e f   qt-mt323:qt-mt323.dll
 0002:00012944       ?qt_cast@QVBoxLayout@@UAEPAXPBD@Z 00423944 f   qt-mt323:qt-mt323.dll
 0002:0001294a       ?qt_emit@QGroupBox@@UAE_NHPAUQUObject@@@Z 0042394a f   qt-mt323:qt-mt323.dll
 0002:00012950       ?qt_emit@QHBoxLayout@@UAE_NHPAUQUObject@@@Z 00423950 f   qt-mt323:qt-mt323.dll
 0002:00012956       ?qt_emit@QLabel@@UAE_NHPAUQUObject@@@Z 00423956 f   qt-mt323:qt-mt323.dll
 0002:0001295c       ?qt_emit@QLineEdit@@UAE_NHPAUQUObject@@@Z 0042395c f   qt-mt323:qt-mt323.dll
 0002:00012962       ?qt_emit@QListView@@UAE_NHPAUQUObject@@@Z 00423962 f   qt-mt323:qt-mt323.dll
 0002:00012968       ?qt_emit@QPushButton@@UAE_NHPAUQUObject@@@Z 00423968 f   qt-mt323:qt-mt323.dll
 0002:0001296e       ?qt_emit@QVBoxLayout@@UAE_NHPAUQUObject@@@Z 0042396e f   qt-mt323:qt-mt323.dll
 0002:00012974       ?qt_invoke@QGroupBox@@UAE_NHPAUQUObject@@@Z 00423974 f   qt-mt323:qt-mt323.dll
 0002:0001297a       ?qt_invoke@QHBoxLayout@@UAE_NHPAUQUObject@@@Z 0042397a f   qt-mt323:qt-mt323.dll
 0002:00012980       ?qt_invoke@QLabel@@UAE_NHPAUQUObject@@@Z 00423980 f   qt-mt323:qt-mt323.dll
 0002:00012986       ?qt_invoke@QLineEdit@@UAE_NHPAUQUObject@@@Z 00423986 f   qt-mt323:qt-mt323.dll
 0002:0001298c       ?qt_invoke@QListView@@UAE_NHPAUQUObject@@@Z 0042398c f   qt-mt323:qt-mt323.dll
 0002:00012992       ?qt_invoke@QPushButton@@UAE_NHPAUQUObject@@@Z 00423992 f   qt-mt323:qt-mt323.dll
 0002:00012998       ?qt_invoke@QVBoxLayout@@UAE_NHPAUQUObject@@@Z 00423998 f   qt-mt323:qt-mt323.dll
 0002:0001299e       ?qt_property@QGroupBox@@UAE_NHHPAVQVariant@@@Z 0042399e f   qt-mt323:qt-mt323.dll
 0002:000129a4       ?qt_property@QHBoxLayout@@UAE_NHHPAVQVariant@@@Z 004239a4 f   qt-mt323:qt-mt323.dll
 0002:000129aa       ?qt_property@QLabel@@UAE_NHHPAVQVariant@@@Z 004239aa f   qt-mt323:qt-mt323.dll
 0002:000129b0       ?qt_property@QLineEdit@@UAE_NHHPAVQVariant@@@Z 004239b0 f   qt-mt323:qt-mt323.dll
 0002:000129b6       ?qt_property@QListView@@UAE_NHHPAVQVariant@@@Z 004239b6 f   qt-mt323:qt-mt323.dll
 0002:000129bc       ?qt_property@QPushButton@@UAE_NHHPAVQVariant@@@Z 004239bc f   qt-mt323:qt-mt323.dll
 0002:000129c2       ?qt_property@QVBoxLayout@@UAE_NHHPAVQVariant@@@Z 004239c2 f   qt-mt323:qt-mt323.dll
 0002:000129c8       ?redo@QLineEdit@@UAEXXZ    004239c8 f   qt-mt323:qt-mt323.dll
 0002:000129ce       ?removeChild@QScrollView@@UAEXPAVQObject@@@Z 004239ce f   qt-mt323:qt-mt323.dll
 0002:000129d4       ?removeColumn@QListView@@UAEXH@Z 004239d4 f   qt-mt323:qt-mt323.dll
 0002:000129da       ?removeItem@QListView@@UAEXPAVQListViewItem@@@Z 004239da f   qt-mt323:qt-mt323.dll
 0002:000129e0       ?resize@QPushButton@@UAEXHH@Z 004239e0 f   qt-mt323:qt-mt323.dll
 0002:000129e6       ?resize@QScrollView@@UAEXHH@Z 004239e6 f   qt-mt323:qt-mt323.dll
 0002:000129ec       ?resize@QWidget@@UAEXHH@Z  004239ec f   qt-mt323:qt-mt323.dll
 0002:000129f2       ?resizeContents@QScrollView@@UAEXHH@Z 004239f2 f   qt-mt323:qt-mt323.dll
 0002:000129f8       ?resizeEvent@QGroupBox@@MAEXPAVQResizeEvent@@@Z 004239f8 f   qt-mt323:qt-mt323.dll
 0002:000129fe       ?resizeEvent@QLabel@@MAEXPAVQResizeEvent@@@Z 004239fe f   qt-mt323:qt-mt323.dll
 0002:00012a04       ?resizeEvent@QLineEdit@@MAEXPAVQResizeEvent@@@Z 00423a04 f   qt-mt323:qt-mt323.dll
 0002:00012a0a       ?resizeEvent@QListView@@MAEXPAVQResizeEvent@@@Z 00423a0a f   qt-mt323:qt-mt323.dll
 0002:00012a10       ?resizeEvent@QPushButton@@MAEXPAVQResizeEvent@@@Z 00423a10 f   qt-mt323:qt-mt323.dll
 0002:00012a16       ?selectAll@QLineEdit@@UAEXXZ 00423a16 f   qt-mt323:qt-mt323.dll
 0002:00012a1c       ?selectAll@QListView@@UAEX_N@Z 00423a1c f   qt-mt323:qt-mt323.dll
 0002:00012a22       ?setAccel@QButton@@UAEXABVQKeySequence@@@Z 00423a22 f   qt-mt323:qt-mt323.dll
 0002:00012a28       ?setAlignment@QGroupBox@@UAEXH@Z 00423a28 f   qt-mt323:qt-mt323.dll
 0002:00012a2e       ?setAlignment@QLabel@@UAEXH@Z 00423a2e f   qt-mt323:qt-mt323.dll
 0002:00012a34       ?setAlignment@QLayoutItem@@UAEXH@Z 00423a34 f   qt-mt323:qt-mt323.dll
 0002:00012a3a       ?setAlignment@QLineEdit@@UAEXH@Z 00423a3a f   qt-mt323:qt-mt323.dll
 0002:00012a40       ?setAllColumnsShowFocus@QListView@@UAEX_N@Z 00423a40 f   qt-mt323:qt-mt323.dll
 0002:00012a46       ?setAutoAdd@QLayout@@UAEX_N@Z 00423a46 f   qt-mt323:qt-mt323.dll
 0002:00012a4c       ?setAutoDefault@QPushButton@@UAEX_N@Z 00423a4c f   qt-mt323:qt-mt323.dll
 0002:00012a52       ?setAutoRepeat@QButton@@UAEX_N@Z 00423a52 f   qt-mt323:qt-mt323.dll
 0002:00012a58       ?setAutoResize@QLabel@@UAEX_N@Z 00423a58 f   qt-mt323:qt-mt323.dll
 0002:00012a5e       ?setBuddy@QLabel@@UAEXPAVQWidget@@@Z 00423a5e f   qt-mt323:qt-mt323.dll
 0002:00012a64       ?setColumnAlignment@QListView@@UAEXHH@Z 00423a64 f   qt-mt323:qt-mt323.dll
 0002:00012a6a       ?setColumnLayout@QGroupBox@@UAEXHW4Orientation@Qt@@@Z 00423a6a f   qt-mt323:qt-mt323.dll
 0002:00012a70       ?setColumnText@QListView@@UAEXHABVQIconSet@@ABVQString@@@Z 00423a70 f   qt-mt323:qt-mt323.dll
 0002:00012a76       ?setColumnText@QListView@@UAEXHABVQString@@@Z 00423a76 f   qt-mt323:qt-mt323.dll
 0002:00012a7c       ?setColumnWidth@QListView@@UAEXHH@Z 00423a7c f   qt-mt323:qt-mt323.dll
 0002:00012a82       ?setColumnWidthMode@QListView@@UAEXHW4WidthMode@1@@Z 00423a82 f   qt-mt323:qt-mt323.dll
 0002:00012a88       ?setContentsPos@QListView@@UAEXHH@Z 00423a88 f   qt-mt323:qt-mt323.dll
 0002:00012a8e       ?setCornerWidget@QScrollView@@UAEXPAVQWidget@@@Z 00423a8e f   qt-mt323:qt-mt323.dll
 0002:00012a94       ?setCurrentItem@QListView@@UAEXPAVQListViewItem@@@Z 00423a94 f   qt-mt323:qt-mt323.dll
 0002:00012a9a       ?setCursorPosition@QLineEdit@@UAEXH@Z 00423a9a f   qt-mt323:qt-mt323.dll
 0002:00012aa0       ?setDefault@QPushButton@@UAEX_N@Z 00423aa0 f   qt-mt323:qt-mt323.dll
 0002:00012aa6       ?setDefaultRenameAction@QListView@@UAEXW4RenameAction@1@@Z 00423aa6 f   qt-mt323:qt-mt323.dll
 0002:00012aac       ?setDown@QButton@@UAEX_N@Z 00423aac f   qt-mt323:qt-mt323.dll
 0002:00012ab2       ?setDragAutoScroll@QScrollView@@UAEX_N@Z 00423ab2 f   qt-mt323:qt-mt323.dll
 0002:00012ab8       ?setDragEnabled@QLineEdit@@UAEX_N@Z 00423ab8 f   qt-mt323:qt-mt323.dll
 0002:00012abe       ?setEchoMode@QLineEdit@@UAEXW4EchoMode@1@@Z 00423abe f   qt-mt323:qt-mt323.dll
 0002:00012ac4       ?setEnabled@QGroupBox@@UAEX_N@Z 00423ac4 f   qt-mt323:qt-mt323.dll
 0002:00012aca       ?setEnabled@QScrollView@@UAEX_N@Z 00423aca f   qt-mt323:qt-mt323.dll
 0002:00012ad0       ?setFont@QLabel@@UAEXABVQFont@@@Z 00423ad0 f   qt-mt323:qt-mt323.dll
 0002:00012ad6       ?setFont@QLineEdit@@UAEXABVQFont@@@Z 00423ad6 f   qt-mt323:qt-mt323.dll
 0002:00012adc       ?setFont@QListView@@UAEXABVQFont@@@Z 00423adc f   qt-mt323:qt-mt323.dll
 0002:00012ae2       ?setFrame@QLineEdit@@UAEX_N@Z 00423ae2 f   qt-mt323:qt-mt323.dll
 0002:00012ae8       ?setFrameRect@QFrame@@UAEXABVQRect@@@Z 00423ae8 f   qt-mt323:qt-mt323.dll
 0002:00012aee       ?setFrameStyle@QFrame@@UAEXH@Z 00423aee f   qt-mt323:qt-mt323.dll
 0002:00012af4       ?setGeometry@QBoxLayout@@UAEXABVQRect@@@Z 00423af4 f   qt-mt323:qt-mt323.dll
 0002:00012afa       ?setGeometry@QPushButton@@UAEXABVQRect@@@Z 00423afa f   qt-mt323:qt-mt323.dll
 0002:00012b00       ?setGeometry@QPushButton@@UAEXHHHH@Z 00423b00 f   qt-mt323:qt-mt323.dll
 0002:00012b06       ?setGeometry@QSpacerItem@@UAEXABVQRect@@@Z 00423b06 f   qt-mt323:qt-mt323.dll
 0002:00012b0c       ?setGeometry@QWidget@@UAEXABVQRect@@@Z 00423b0c f   qt-mt323:qt-mt323.dll
 0002:00012b12       ?setGeometry@QWidget@@UAEXHHHH@Z 00423b12 f   qt-mt323:qt-mt323.dll
 0002:00012b18       ?setGroup@QButton@@EAEXPAVQButtonGroup@@@Z 00423b18 f   qt-mt323:qt-mt323.dll
 0002:00012b1e       ?setHBarGeometry@QScrollView@@MAEXAAVQScrollBar@@HHHH@Z 00423b1e f   qt-mt323:qt-mt323.dll
 0002:00012b24       ?setHScrollBarMode@QScrollView@@UAEXW4ScrollBarMode@1@@Z 00423b24 f   qt-mt323:qt-mt323.dll
 0002:00012b2a       ?setIsMenuButton@QPushButton@@UAEX_N@Z 00423b2a f   qt-mt323:qt-mt323.dll
 0002:00012b30       ?setItemMargin@QListView@@UAEXH@Z 00423b30 f   qt-mt323:qt-mt323.dll
 0002:00012b36       ?setLineWidth@QFrame@@UAEXH@Z 00423b36 f   qt-mt323:qt-mt323.dll
 0002:00012b3c       ?setMargin@QFrame@@UAEXH@Z 00423b3c f   qt-mt323:qt-mt323.dll
 0002:00012b42       ?setMargin@QLayout@@UAEXH@Z 00423b42 f   qt-mt323:qt-mt323.dll
 0002:00012b48       ?setMargins@QScrollView@@MAEXHHHH@Z 00423b48 f   qt-mt323:qt-mt323.dll
 0002:00012b4e       ?setMaxLength@QLineEdit@@UAEXH@Z 00423b4e f   qt-mt323:qt-mt323.dll
 0002:00012b54       ?setMenuBar@QLayout@@UAEXPAVQMenuBar@@@Z 00423b54 f   qt-mt323:qt-mt323.dll
 0002:00012b5a       ?setMidLineWidth@QFrame@@UAEXH@Z 00423b5a f   qt-mt323:qt-mt323.dll
 0002:00012b60       ?setMovie@QLabel@@UAEXABVQMovie@@@Z 00423b60 f   qt-mt323:qt-mt323.dll
 0002:00012b66       ?setMultiSelection@QListView@@UAEX_N@Z 00423b66 f   qt-mt323:qt-mt323.dll
 0002:00012b6c       ?setNum@QLabel@@UAEXH@Z    00423b6c f   qt-mt323:qt-mt323.dll
 0002:00012b72       ?setNum@QLabel@@UAEXN@Z    00423b72 f   qt-mt323:qt-mt323.dll
 0002:00012b78       ?setOn@QPushButton@@UAEX_N@Z 00423b78 f   qt-mt323:qt-mt323.dll
 0002:00012b7e       ?setOpen@QListView@@UAEXPAVQListViewItem@@_N@Z 00423b7e f   qt-mt323:qt-mt323.dll
 0002:00012b84       ?setPalette@QLineEdit@@UAEXABVQPalette@@@Z 00423b84 f   qt-mt323:qt-mt323.dll
 0002:00012b8a       ?setPalette@QListView@@UAEXABVQPalette@@@Z 00423b8a f   qt-mt323:qt-mt323.dll
 0002:00012b90       ?setPicture@QLabel@@UAEXABVQPicture@@@Z 00423b90 f   qt-mt323:qt-mt323.dll
 0002:00012b96       ?setPixmap@QButton@@UAEXABVQPixmap@@@Z 00423b96 f   qt-mt323:qt-mt323.dll
 0002:00012b9c       ?setPixmap@QLabel@@UAEXABVQPixmap@@@Z 00423b9c f   qt-mt323:qt-mt323.dll
 0002:00012ba2       ?setReadOnly@QLineEdit@@UAEX_N@Z 00423ba2 f   qt-mt323:qt-mt323.dll
 0002:00012ba8       ?setResizeMode@QListView@@UAEXW4ResizeMode@1@@Z 00423ba8 f   qt-mt323:qt-mt323.dll
 0002:00012bae       ?setResizePolicy@QScrollView@@UAEXW4ResizePolicy@1@@Z 00423bae f   qt-mt323:qt-mt323.dll
 0002:00012bb4       ?setRootIsDecorated@QListView@@UAEX_N@Z 00423bb4 f   qt-mt323:qt-mt323.dll
 0002:00012bba       ?setSelected@QListView@@UAEXPAVQListViewItem@@_N@Z 00423bba f   qt-mt323:qt-mt323.dll
 0002:00012bc0       ?setSelection@QLineEdit@@UAEXHH@Z 00423bc0 f   qt-mt323:qt-mt323.dll
 0002:00012bc6       ?setShowSortIndicator@QListView@@UAEX_N@Z 00423bc6 f   qt-mt323:qt-mt323.dll
 0002:00012bcc       ?setShowToolTips@QListView@@UAEX_N@Z 00423bcc f   qt-mt323:qt-mt323.dll
 0002:00012bd2       ?setSorting@QListView@@UAEXH_N@Z 00423bd2 f   qt-mt323:qt-mt323.dll
 0002:00012bd8       ?setSpacing@QLayout@@UAEXH@Z 00423bd8 f   qt-mt323:qt-mt323.dll
 0002:00012bde       ?setState@QButton@@MAEXW4ToggleState@1@@Z 00423bde f   qt-mt323:qt-mt323.dll
 0002:00012be4       ?setText@QButton@@UAEXABVQString@@@Z 00423be4 f   qt-mt323:qt-mt323.dll
 0002:00012bea       ?setText@QLabel@@UAEXABVQString@@@Z 00423bea f   qt-mt323:qt-mt323.dll
 0002:00012bf0       ?setText@QLineEdit@@UAEXABVQString@@@Z 00423bf0 f   qt-mt323:qt-mt323.dll
 0002:00012bf6       ?setTitle@QGroupBox@@UAEXABVQString@@@Z 00423bf6 f   qt-mt323:qt-mt323.dll
 0002:00012bfc       ?setToggleType@QButton@@MAEXW4ToggleType@1@@Z 00423bfc f   qt-mt323:qt-mt323.dll
 0002:00012c02       ?setTreeStepSize@QListView@@UAEXH@Z 00423c02 f   qt-mt323:qt-mt323.dll
 0002:00012c08       ?setVBarGeometry@QScrollView@@MAEXAAVQScrollBar@@HHHH@Z 00423c08 f   qt-mt323:qt-mt323.dll
 0002:00012c0e       ?setVScrollBarMode@QScrollView@@UAEXW4ScrollBarMode@1@@Z 00423c0e f   qt-mt323:qt-mt323.dll
 0002:00012c14       ?setValidator@QLineEdit@@UAEXPBVQValidator@@@Z 00423c14 f   qt-mt323:qt-mt323.dll
 0002:00012c1a       ?show@QListView@@UAEXXZ    00423c1a f   qt-mt323:qt-mt323.dll
 0002:00012c20       ?show@QWidget@@UAEXXZ      00423c20 f   qt-mt323:qt-mt323.dll
 0002:00012c26       ?showEvent@QListView@@MAEXPAVQShowEvent@@@Z 00423c26 f   qt-mt323:qt-mt323.dll
 0002:00012c2c       ?sizeHint@QBoxLayout@@UBE?AVQSize@@XZ 00423c2c f   qt-mt323:qt-mt323.dll
 0002:00012c32       ?sizeHint@QGroupBox@@UBE?AVQSize@@XZ 00423c32 f   qt-mt323:qt-mt323.dll
 0002:00012c38       ?sizeHint@QLabel@@UBE?AVQSize@@XZ 00423c38 f   qt-mt323:qt-mt323.dll
 0002:00012c3e       ?sizeHint@QLineEdit@@UBE?AVQSize@@XZ 00423c3e f   qt-mt323:qt-mt323.dll
 0002:00012c44       ?sizeHint@QListView@@UBE?AVQSize@@XZ 00423c44 f   qt-mt323:qt-mt323.dll
 0002:00012c4a       ?sizeHint@QPushButton@@UBE?AVQSize@@XZ 00423c4a f   qt-mt323:qt-mt323.dll
 0002:00012c50       ?sizeHint@QSpacerItem@@UBE?AVQSize@@XZ 00423c50 f   qt-mt323:qt-mt323.dll
 0002:00012c56       ?sort@QListView@@UAEXXZ    00423c56 f   qt-mt323:qt-mt323.dll
 0002:00012c5c       ?spacerItem@QLayoutItem@@UAEPAVQSpacerItem@@XZ 00423c5c f   qt-mt323:qt-mt323.dll
 0002:00012c62       ?spacerItem@QSpacerItem@@UAEPAV1@XZ 00423c62 f   qt-mt323:qt-mt323.dll
 0002:00012c68       ?startDrag@QListView@@MAEXXZ 00423c68 f   qt-mt323:qt-mt323.dll
 0002:00012c6e       ?styleChange@QFrame@@MAEXAAVQStyle@@@Z 00423c6e f   qt-mt323:qt-mt323.dll
 0002:00012c74       ?styleChange@QListView@@MAEXAAVQStyle@@@Z 00423c74 f   qt-mt323:qt-mt323.dll
 0002:00012c7a       ?takeItem@QListView@@UAEXPAVQListViewItem@@@Z 00423c7a f   qt-mt323:qt-mt323.dll
 0002:00012c80       ?undo@QLineEdit@@UAEXXZ    00423c80 f   qt-mt323:qt-mt323.dll
 0002:00012c86       ?updateMask@QPushButton@@MAEXXZ 00423c86 f   qt-mt323:qt-mt323.dll
 0002:00012c8c       ?viewportContextMenuEvent@QScrollView@@MAEXPAVQContextMenuEvent@@@Z 00423c8c f   qt-mt323:qt-mt323.dll
 0002:00012c92       ?viewportDragEnterEvent@QScrollView@@MAEXPAVQDragEnterEvent@@@Z 00423c92 f   qt-mt323:qt-mt323.dll
 0002:00012c98       ?viewportDragLeaveEvent@QScrollView@@MAEXPAVQDragLeaveEvent@@@Z 00423c98 f   qt-mt323:qt-mt323.dll
 0002:00012c9e       ?viewportDragMoveEvent@QScrollView@@MAEXPAVQDragMoveEvent@@@Z 00423c9e f   qt-mt323:qt-mt323.dll
 0002:00012ca4       ?viewportDropEvent@QScrollView@@MAEXPAVQDropEvent@@@Z 00423ca4 f   qt-mt323:qt-mt323.dll
 0002:00012caa       ?viewportMouseDoubleClickEvent@QScrollView@@MAEXPAVQMouseEvent@@@Z 00423caa f   qt-mt323:qt-mt323.dll
 0002:00012cb0       ?viewportMouseMoveEvent@QScrollView@@MAEXPAVQMouseEvent@@@Z 00423cb0 f   qt-mt323:qt-mt323.dll
 0002:00012cb6       ?viewportMousePressEvent@QScrollView@@MAEXPAVQMouseEvent@@@Z 00423cb6 f   qt-mt323:qt-mt323.dll
 0002:00012cbc       ?viewportMouseReleaseEvent@QScrollView@@MAEXPAVQMouseEvent@@@Z 00423cbc f   qt-mt323:qt-mt323.dll
 0002:00012cc2       ?viewportPaintEvent@QScrollView@@MAEXPAVQPaintEvent@@@Z 00423cc2 f   qt-mt323:qt-mt323.dll
 0002:00012cc8       ?viewportResizeEvent@QListView@@MAEXPAVQResizeEvent@@@Z 00423cc8 f   qt-mt323:qt-mt323.dll
 0002:00012cce       ?viewportWheelEvent@QScrollView@@MAEXPAVQWheelEvent@@@Z 00423cce f   qt-mt323:qt-mt323.dll
 0002:00012cd4       ?wheelEvent@QScrollView@@MAEXPAVQWheelEvent@@@Z 00423cd4 f   qt-mt323:qt-mt323.dll
 0002:00012cda       ?widget@QLayoutItem@@UAEPAVQWidget@@XZ 00423cda f   qt-mt323:qt-mt323.dll
 0002:00012ce0       ?windowActivationChange@QLineEdit@@MAEX_N@Z 00423ce0 f   qt-mt323:qt-mt323.dll
 0002:00012ce6       ?windowActivationChange@QListView@@MAEX_N@Z 00423ce6 f   qt-mt323:qt-mt323.dll
 0002:00012cec       _LocalFree@4               00423cec f   kernel32:KERNEL32.dll
 0002:00012cf2       _GetLastError@0            00423cf2 f   kernel32:KERNEL32.dll
 0002:00012cf8       _FormatMessageA@28         00423cf8 f   kernel32:KERNEL32.dll
 0002:00012cfe       _ExpandEnvironmentStringsA@12 00423cfe f   kernel32:KERNEL32.dll
 0002:00012d04       _GetPrivateProfileIntA@16  00423d04 f   kernel32:KERNEL32.dll
 0002:00012d0a       _GetPrivateProfileStringA@24 00423d0a f   kernel32:KERNEL32.dll
 0002:00012d10       _WritePrivateProfileStringA@16 00423d10 f   kernel32:KERNEL32.dll
 0002:00012d16       _GetWindowsDirectoryA@8    00423d16 f   kernel32:KERNEL32.dll
 0002:00012d1c       _RegEnumKeyExA@32          00423d1c f   advapi32:ADVAPI32.dll
 0002:00012d22       _RegEnumValueA@32          00423d22 f   advapi32:ADVAPI32.dll
 0002:00012d28       _RegOpenKeyExA@20          00423d28 f   advapi32:ADVAPI32.dll
 0002:00012d2e       _RegQueryInfoKeyA@48       00423d2e f   advapi32:ADVAPI32.dll
 0002:00012d34       _RegQueryValueExA@24       00423d34 f   advapi32:ADVAPI32.dll
 0002:00012d3a       @_RTC_AllocaHelper@12      00423d3a f   MSVCRT:stack.obj
 0002:00012d78       @_RTC_CheckStackVars2@12   00423d78 f   MSVCRT:stack.obj
 0002:00012e6f       @_RTC_CheckStackVars@8     00423e6f f   MSVCRT:stack.obj
 0002:00012edd       __RTC_CheckEsp             00423edd f   MSVCRT:stack.obj
 0002:00012f08       @__security_check_cookie@4 00423f08 f   MSVCRT:secchk.obj
 0002:00012f1a       __RTC_InitBase             00423f1a f   MSVCRT:init.obj
 0002:00012f4a       __RTC_Shutdown             00423f4a f   MSVCRT:init.obj
 0002:00012f60       ___CxxFrameHandler3        00423f60 f   MSVCRT:MSVCR120.dll
 0002:00012f66       ??2@YAPAXI@Z               00423f66 f   MSVCRT:MSVCR120.dll
 0002:00012f6c       ??3@YAXPAX@Z               00423f6c f   MSVCRT:MSVCR120.dll
 0002:00012f72       _memcpy                    00423f72 f   MSVCRT:MSVCR120.dll
 0002:00012f78       _strlen                    00423f78 f   MSVCRT:MSVCR120.dll
 0002:00012f7e       _exit                      00423f7e f   MSVCRT:MSVCR120.dll
 0002:00012f84       _getenv                    00423f84 f   MSVCRT:MSVCR120.dll
 0002:00012f8a       _free                      00423f8a f   MSVCRT:MSVCR120.dll
 0002:00012f90       _malloc                    00423f90 f   MSVCRT:MSVCR120.dll
 0002:00012f96       _sprintf                   00423f96 f   MSVCRT:MSVCR120.dll
 0002:00012fa0       __alloca_probe_16          00423fa0 f   MSVCRT:alloca16.obj
 0002:00012fb6       __alloca_probe_8           00423fb6     MSVCRT:alloca16.obj
 0002:00012fd7       ??0type_info@@AAE@ABV0@@Z  00423fd7 f   MSVCRT:ti_inst.obj
 0002:00012fe4       ??4type_info@@AAEAAV0@ABV0@@Z 00423fe4 f   MSVCRT:ti_inst.obj
 0002:00012fe9       ??_Etype_info@@UAEPAXI@Z   00423fe9 f i MSVCRT:ti_inst.obj
 0002:00013045       ___atonexitinit            00424045 f   MSVCRT:atonexit.obj
 0002:00013090       __onexit                   00424090 f   MSVCRT:atonexit.obj
 0002:00013163       _atexit                    00424163 f   MSVCRT:atonexit.obj
 0002:000132c1       _NtCurrentTeb              004242c1 f i MSVCRT:crtexew.obj
 0002:000132c8       _WinMainCRTStartup         004242c8 f   MSVCRT:crtexew.obj
 0002:00013657       ?_RTC_AllocaFailure@@YAXPAXPAU_RTC_ALLOCA_NODE@@H@Z 00424657 f   MSVCRT:error.obj
 0002:00013803       ?_RTC_Failure@@YAXPAXH@Z   00424803 f   MSVCRT:error.obj
 0002:0001384e       ?_RTC_StackFailure@@YAXPAXPBD@Z 0042484e f   MSVCRT:error.obj
 0002:00013c75       __RTC_UninitUse            00424c75 f   MSVCRT:error.obj
 0002:00013d8b       ___raise_securityfailure   00424d8b f   MSVCRT:gs_report.obj
 0002:00013dd7       ___report_gsfailure        00424dd7 f   MSVCRT:gs_report.obj
 0002:00013f10       ___report_rangecheckfailure 00424f10 f   MSVCRT:gs_report.obj
 0002:00013f1f       ___report_securityfailure  00424f1f f   MSVCRT:gs_report.obj
 0002:00014023       ___report_securityfailureEx 00425023 f   MSVCRT:gs_report.obj
 0002:0001417e       ?_RTC_GetErrorFunc@@YAP6AHHPBDH00ZZPBX@Z 0042517e f   MSVCRT:userapi.obj
 0002:00014184       ?_RTC_GetErrorFuncW@@YAP6AHHPB_WH00ZZPBX@Z 00425184 f   MSVCRT:userapi.obj
 0002:0001418a       __RTC_GetErrDesc           0042518a f   MSVCRT:userapi.obj
 0002:000141a8       __RTC_NumErrors            004251a8 f   MSVCRT:userapi.obj
 0002:000141ac       __RTC_SetErrorFunc         004251ac f   MSVCRT:userapi.obj
 0002:000141cc       __RTC_SetErrorFuncW        004251cc f   MSVCRT:userapi.obj
 0002:000141ec       __RTC_SetErrorType         004251ec f   MSVCRT:userapi.obj
 0002:00014218       __CRT_RTC_INITW            00425218 f   MSVCRT:MSVCR120.dll
 0002:00014220       __alloca_probe             00425220 f   MSVCRT:chkstk.obj
 0002:00014220       __chkstk                   00425220 f   MSVCRT:chkstk.obj
 0002:00014255       ??_M@YGXPAXIHP6EX0@Z@Z     00425255 f   MSVCRT:ehvecdtr.obj
 0002:000142fe       ?__ArrayUnwind@@YGXPAXIHP6EX0@Z@Z 004252fe f   MSVCRT:ehvecdtr.obj
 0002:00014374       ??1type_info@@UAE@XZ       00425374 f   MSVCRT:MSVCR120.dll
 0002:0001437a       __lock                     0042537a f   MSVCRT:MSVCR120.dll
 0002:00014380       __unlock                   00425380 f   MSVCRT:MSVCR120.dll
 0002:00014386       __calloc_crt               00425386 f   MSVCRT:MSVCR120.dll
 0002:0001438c       ___dllonexit               0042538c f   MSVCRT:MSVCR120.dll
 0002:000143a0       __SEH_prolog4              004253a0 f   MSVCRT:sehprolg4.obj
 0002:000143e5       __SEH_epilog4              004253e5 f   MSVCRT:sehprolg4.obj
 0002:0001440f       __except_handler4          0042540f f   MSVCRT:chandler4gs.obj
 0002:0001443a       ?__CxxUnhandledExceptionFilter@@YGJPAU_EXCEPTION_POINTERS@@@Z 0042543a f   MSVCRT:unhandld.obj
 0002:0001448b       ___CxxSetUnhandledExceptionFilter 0042548b f   MSVCRT:unhandld.obj
 0002:0001449c       __XcptFilter               0042549c f   MSVCRT:MSVCR120.dll
 0002:000144a2       ___crtGetShowWindowMode    004254a2 f   MSVCRT:MSVCR120.dll
 0002:000144a8       __amsg_exit                004254a8 f   MSVCRT:MSVCR120.dll
 0002:000144ae       __setargv                  004254ae f   MSVCRT:dllargv.obj
 0002:000144b2       ___getmainargs             004254b2 f   MSVCRT:MSVCR120.dll
 0002:000144b8       ___set_app_type            004254b8 f   MSVCRT:MSVCR120.dll
 0002:000144c0       __FindPESection            004254c0 f   MSVCRT:pesect.obj
 0002:00014520       __IsNonwritableInCurrentImage 00425520 f   MSVCRT:pesect.obj
 0002:00014610       __ValidateImageBase        00425610 f   MSVCRT:pesect.obj
 0002:0001464e       __exit                     0042564e f   MSVCRT:MSVCR120.dll
 0002:00014654       __cexit                    00425654 f   MSVCRT:MSVCR120.dll
 0002:0001465a       ___security_init_cookie    0042565a f   MSVCRT:gs_support.obj
 0002:0001471d       __matherr                  0042571d f   MSVCRT:merr.obj
 0002:00014720       __ismbblead                00425720 f   MSVCRT:MSVCR120.dll
 0002:00014726       __RTC_Initialize           00425726 f   MSVCRT:initsect.obj
 0002:0001474e       __RTC_Terminate            0042574e f   MSVCRT:initsect.obj
 0002:00014776       __configthreadlocale       00425776 f   MSVCRT:MSVCR120.dll
 0002:0001477c       __invoke_watson_if_error   0042577c f i MSVCRT:fp8.obj
 0002:000147a4       __setdefaultprecision      004257a4 f   MSVCRT:fp8.obj
 0002:000147d4       ___setusermatherr          004257d4 f   MSVCRT:MSVCR120.dll
 0002:000147da       __initterm_e               004257da f   MSVCRT:MSVCR120.dll
 0002:000147e0       __initterm                 004257e0 f   MSVCRT:MSVCR120.dll
 0002:00014a3a       ?_RTC_GetSrcLine@@YAHPAEPA_WKPAH1K@Z 00425a3a f   MSVCRT:pdblkup.obj
 0002:00014d62       __crt_debugger_hook        00425d62 f   MSVCRT:MSVCR120.dll
 0002:00014d68       ___crtUnhandledException   00425d68 f   MSVCRT:MSVCR120.dll
 0002:00014d6e       ___crtTerminateProcess     00425d6e f   MSVCRT:MSVCR120.dll
 0002:00014d74       ?terminate@@YAXXZ          00425d74 f   MSVCRT:MSVCR120.dll
 0002:00014d7a       __except_handler4_common   00425d7a f   MSVCRT:MSVCR120.dll
 0002:00014d80       ___crtSetUnhandledExceptionFilter 00425d80 f   MSVCRT:MSVCR120.dll
 0002:00014d86       __invoke_watson            00425d86 f   MSVCRT:MSVCR120.dll
 0002:00014d8c       __controlfp_s              00425d8c f   MSVCRT:MSVCR120.dll
 0002:00014d92       _EncodePointer@4           00425d92 f   kernel32:KERNEL32.dll
 0002:00014d98       _DecodePointer@4           00425d98 f   kernel32:KERNEL32.dll
 0002:00014d9e       _IsDebuggerPresent@0       00425d9e f   kernel32:KERNEL32.dll
 0002:00014da4       _RaiseException@16         00425da4 f   kernel32:KERNEL32.dll
 0002:00014daa       _GetProcAddress@8          00425daa f   kernel32:KERNEL32.dll
 0002:00014db0       _LoadLibraryExW@12         00425db0 f   kernel32:KERNEL32.dll
 0002:00014db6       _MultiByteToWideChar@24    00425db6 f   kernel32:KERNEL32.dll
 0002:00014dbc       _WideCharToMultiByte@32    00425dbc f   kernel32:KERNEL32.dll
 0002:00014dc2       _IsProcessorFeaturePresent@4 00425dc2 f   kernel32:KERNEL32.dll
 0002:00014dc8       _QueryPerformanceCounter@4 00425dc8 f   kernel32:KERNEL32.dll
 0002:00014dce       _GetCurrentProcessId@0     00425dce f   kernel32:KERNEL32.dll
 0002:00014dd4       _GetCurrentThreadId@0      00425dd4 f   kernel32:KERNEL32.dll
 0002:00014dda       _GetSystemTimeAsFileTime@4 00425dda f   kernel32:KERNEL32.dll
 0002:00014de0       _HeapAlloc@12              00425de0 f   kernel32:KERNEL32.dll
 0002:00014de6       _HeapFree@12               00425de6 f   kernel32:KERNEL32.dll
 0002:00014dec       _GetProcessHeap@0          00425dec f   kernel32:KERNEL32.dll
 0002:00014df2       _VirtualQuery@12           00425df2 f   kernel32:KERNEL32.dll
 0002:00014df8       _FreeLibrary@4             00425df8 f   kernel32:KERNEL32.dll
 0002:00014dfe       _GetModuleFileNameW@12     00425dfe f   kernel32:KERNEL32.dll
 0002:00014e04       _strcpy                    00425e04 f   MSVCRT:MSVCR120.dll
 0002:00014e0a       ?deleteData@QGArray@@MAEXPAUarray_data@1@@Z 00425e0a f   qt-mt323:qt-mt323.dll
 0002:00014e10       ?newData@QGArray@@MAEPAUarray_data@1@XZ 00425e10 f   qt-mt323:qt-mt323.dll
 0002:00014e16       ??1QGArray@@MAE@XZ         00425e16 f   qt-mt323:qt-mt323.dll
 0002:00014e1c       ?qWinMain@@YAXPAUHINSTANCE__@@0PADHAAHAAV?$QMemArray@PAD@@@Z 00425e1c f   qt-mt323:qt-mt323.dll
 0002:00014e22       ??0QGArray@@IAE@H@Z        00425e22 f   qt-mt323:qt-mt323.dll
 0002:00014e28       ?duplicate@QGArray@@IAEAAV1@ABV1@@Z 00425e28 f   qt-mt323:qt-mt323.dll
 0002:00014e2e       ??1QGList@@MAE@XZ          00425e2e f   qt-mt323:qt-mt323.dll
 0002:00014e34       ?clear@QGList@@MAEXXZ      00425e34 f   qt-mt323:qt-mt323.dll
 0003:00000000       ___xc_a                    0042c000     MSVCRT:cinitexe.obj
 0003:00000314       ___xc_z                    0042c314     MSVCRT:cinitexe.obj
 0003:00000418       ___xi_a                    0042c418     MSVCRT:cinitexe.obj
 0003:00000828       ___xi_z                    0042c828     MSVCRT:cinitexe.obj
 0003:00000968       ??_C@_0N@EMCBFMFI@32?532?5131?52?5?$AA@ 0042c968     setlanadialog.obj
 0003:00000978       ??_C@_0N@MBCHPPO@?5?5?5c?5?$CD6C6C00?$AA@ 0042c978     setlanadialog.obj
 0003:00000988       ??_C@_0N@JDDJAJIL@?4?5?5c?5?$CD7A7A01?$AA@ 0042c988     setlanadialog.obj
 0003:00000998       ??_C@_0N@JJMJFFKG@X?5?5c?5?$CD7E7E0B?$AA@ 0042c998     setlanadialog.obj
 0003:000009a8       ??_C@_0N@HCDCCDJD@o?5?5c?5?$CD7F7F11?$AA@ 0042c9a8     setlanadialog.obj
 0003:000009b8       ??_C@_0N@KKIDBIPE@O?5?5c?5?$CD838300?$AA@ 0042c9b8     setlanadialog.obj
 0003:000009c8       ??_C@_0N@GOCPIAOA@?$CL?5?5c?5?$CD8B8B01?$AA@ 0042c9c8     setlanadialog.obj
 0003:000009d8       ??_C@_0N@CBGBBILD@?$EA?5?5c?5?$CD81810D?$AA@ 0042c9d8     setlanadialog.obj
 0003:000009e8       ??_C@_0N@LCFBCIJB@?$CD?5?5c?5?$CD929204?$AA@ 0042c9e8     setlanadialog.obj
 0003:000009f8       ??_C@_0N@EFHFEMHI@$?5?5c?5?$CD94940B?$AA@ 0042c9f8     setlanadialog.obj
 0003:00000a08       ??_C@_0N@MJLHPOKH@?$CF?5?5c?5?$CD9A9A0D?$AA@ 0042ca08     setlanadialog.obj
 0003:00000a18       ??_C@_0N@JAKPBLG@?$CG?5?5c?5?$CD838313?$AA@ 0042ca18     setlanadialog.obj
 0003:00000a28       ??_C@_0N@FGKGLMDL@?$CK?5?5c?5?$CD85851B?$AA@ 0042ca28     setlanadialog.obj
 0003:00000a38       ??_C@_0N@LLNNFCDL@?$DN?5?5c?5?$CD89891C?$AA@ 0042ca38     setlanadialog.obj
 0003:00000a48       ??_C@_0N@MNCPAAN@?9?5?5c?5?$CD9C9C12?$AA@ 0042ca48     setlanadialog.obj
 0003:00000a58       ??_C@_0N@KMGILNDA@?$DL?5?5c?5?$CDBABA00?$AA@ 0042ca58     setlanadialog.obj
 0003:00000a68       ??_C@_0N@NHPCANJE@?3?5?5c?5?$CDA3A316?$AA@ 0042ca68     setlanadialog.obj
 0003:00000a78       ??_C@_0N@NMMKNDPB@?$DO?5?5c?5?$CDA4A41B?$AA@ 0042ca78     setlanadialog.obj
 0003:00000a88       ??_C@_0N@FJMFKLDK@?0?5?5c?5?$CDAAAA1D?$AA@ 0042ca88     setlanadialog.obj
 0003:00000a98       ??_C@_0N@JBOHFKFC@?$DM?5?5c?5?$CD878723?$AA@ 0042ca98     setlanadialog.obj
 0003:00000aa8       ??_C@_0N@EDFPLKKI@1?5?5c?5?$CD898924?$AA@ 0042caa8     setlanadialog.obj
 0003:00000ab8       ??_C@_0N@FKCLNCIJ@2?5?5c?5?$CD8B8B2B?$AA@ 0042cab8     setlanadialog.obj
 0003:00000ac8       ??_C@_0N@GLDLPFJB@3?5?5c?5?$CD93932F?$AA@ 0042cac8     setlanadialog.obj
 0003:00000ad8       ??_C@_0N@MAMAMLNE@4?5?5c?5?$CD8F8F32?$AA@ 0042cad8     setlanadialog.obj
 0003:00000ae8       ??_C@_0N@LNOONOIO@5?5?5c?5?$CD929235?$AA@ 0042cae8     setlanadialog.obj
 0003:00000af8       ??_C@_0N@OAIIFFHA@6?5?5c?5?$CD95953B?$AA@ 0042caf8     setlanadialog.obj
 0003:00000b08       ??_C@_0N@BPKKFDGP@7?5?5c?5?$CD9A9A3D?$AA@ 0042cb08     setlanadialog.obj
 0003:00000b18       ??_C@_0N@CIFAFHJP@8?5?5c?5?$CDADAD23?$AA@ 0042cb18     setlanadialog.obj
 0003:00000b28       ??_C@_0N@NFLHALLN@9?5?5c?5?$CDB4B42B?$AA@ 0042cb28     setlanadialog.obj
 0003:00000b38       ??_C@_0N@FMNPLBH@0?5?5c?5?$CDB9B92C?$AA@ 0042cb38     setlanadialog.obj
 0003:00000b48       ??_C@_0N@JGPAHKGH@q?5?5c?5?$CDBBBB33?$AA@ 0042cb48     setlanadialog.obj
 0003:00000b58       ??_C@_0N@JJPINEEN@w?5?5c?5?$CDBEBE3C?$AA@ 0042cb58     setlanadialog.obj
 0003:00000b68       ??_C@_0N@LAPNNMOJ@e?5?5c?5?$CDC5C500?$AA@ 0042cb68     setlanadialog.obj
 0003:00000b78       ??_C@_0N@BJJENBDG@r?5?5c?5?$CDCECE00?$AA@ 0042cb78     setlanadialog.obj
 0003:00000b88       ??_C@_0N@NKAFDJDE@t?5?5c?5?$CDDADA00?$AA@ 0042cb88     setlanadialog.obj
 0003:00000b98       ??_C@_0N@LJDCPFMN@y?5?5c?5?$CDEBEB03?$AA@ 0042cb98     setlanadialog.obj
 0003:00000ba8       ??_C@_0N@MLHDFMA@u?5?5c?5?$CDEBEB0C?$AA@ 0042cba8     setlanadialog.obj
 0003:00000bb8       ??_C@_0N@FKLGEIEF@i?5?5c?5?$CDF3F301?$AA@ 0042cbb8     setlanadialog.obj
 0003:00000bc8       ??_C@_0N@PKALPFOL@p?5?5c?5?$CDFEFE01?$AA@ 0042cbc8     setlanadialog.obj
 0003:00000bd8       ??_C@_0N@DLHJDHJP@a?5?5c?5?$CDF7F70A?$AA@ 0042cbd8     setlanadialog.obj
 0003:00000be8       ??_C@_0N@NEINMKNF@s?5?5c?5?$CDFCFC0F?$AA@ 0042cbe8     setlanadialog.obj
 0003:00000bf8       ??_C@_0N@HOODPHAA@d?5?5c?5?$CDE7E711?$AA@ 0042cbf8     setlanadialog.obj
 0003:00000c08       ??_C@_0N@FIGHFINF@f?5?5c?5?$CDECEC13?$AA@ 0042cc08     setlanadialog.obj
 0003:00000c18       ??_C@_0N@KGNHFAA@g?5?5c?5?$CDF4F412?$AA@ 0042cc18     setlanadialog.obj
 0003:00000c28       ??_C@_0N@NEMJDECI@h?5?5c?5?$CDFCFC13?$AA@ 0042cc28     setlanadialog.obj
 0003:00000c38       ??_C@_0N@JLKKPIJF@j?5?5c?5?$CDFCFC1C?$AA@ 0042cc38     setlanadialog.obj
 0003:00000c48       ??_C@_0N@OHNDFNJL@k?5?5c?5?$CDCBCB37?$AA@ 0042cc48     setlanadialog.obj
 0003:00000c58       ??_C@_0N@HAOKJECP@l?5?5c?5?$CDC4C43A?$AA@ 0042cc58     setlanadialog.obj
 0003:00000c68       ??_C@_0N@LGPBCKPG@z?5?5c?5?$CDCCCC3C?$AA@ 0042cc68     setlanadialog.obj
 0003:00000c78       ??_C@_0N@OEINMDDI@x?5?5c?5?$CDD2D23E?$AA@ 0042cc78     setlanadialog.obj
 0003:00000c88       ??_C@_0N@NCLCOMBJ@c?5?5c?5?$CDFCFC28?$AA@ 0042cc88     setlanadialog.obj
 0003:00000c98       ??_C@_0N@LMBGFJGK@v?5?5c?5?$CDFBFB35?$AA@ 0042cc98     setlanadialog.obj
 0003:00000ca8       ??_C@_0N@CMMHGGGJ@b?5?5c?5?$CD888848?$AA@ 0042cca8     setlanadialog.obj
 0003:00000cb8       ??_C@_0N@EMIGNFBN@n?5?5c?5?$CD979740?$AA@ 0042ccb8     setlanadialog.obj
 0003:00000cc8       ??_C@_0N@JCCOLAAL@m?5?5c?5?$CD9B9B44?$AA@ 0042ccc8     setlanadialog.obj
 0003:00000cd8       ??_C@_0N@MBPMBMMO@M?5?5c?5?$CD9E9E4C?$AA@ 0042ccd8     setlanadialog.obj
 0003:00000ce8       ??_C@_0N@PFHNGDMC@N?5?5c?5?$CD8D8D54?$AA@ 0042cce8     setlanadialog.obj
 0003:00000cf8       ??_C@_0N@BAGGFJOF@B?5?5c?5?$CDA2A24C?$AA@ 0042ccf8     setlanadialog.obj
 0003:00000d08       ??_C@_0N@IEBHDAPF@V?5?5c?5?$CDAEAE4C?$AA@ 0042cd08     setlanadialog.obj
 0003:00000d18       ??_C@_0N@GOEPOLCP@C?5?5c?5?$CDB0B04A?$AA@ 0042cd18     setlanadialog.obj
 0003:00000d28       ??_C@_0N@OMDOBNJE@Z?5?5c?5?$CDA3A354?$AA@ 0042cd28     setlanadialog.obj
 0003:00000d38       ??_C@_0N@NCGGAPNM@A?5?5c?5?$CDA7A75B?$AA@ 0042cd38     setlanadialog.obj
 0003:00000d48       ??_C@_0N@NKFDJLBG@S?5?5c?5?$CDAAAA5E?$AA@ 0042cd48     setlanadialog.obj
 0003:00000d58       ??_C@_0N@LEABGFMN@D?5?5c?5?$CD8D8D6B?$AA@ 0042cd58     setlanadialog.obj
 0003:00000d68       ??_C@_0N@KJKHLGK@F?5?5c?5?$CD98987C?$AA@ 0042cd68     setlanadialog.obj
 0003:00000d78       ??_C@_0N@PNJMMADF@G?5?5c?5?$CDADAD64?$AA@ 0042cd78     setlanadialog.obj
 0003:00000d88       ??_C@_0N@IIIDACMN@H?5?5c?5?$CDAFAF69?$AA@ 0042cd88     setlanadialog.obj
 0003:00000d98       ??_C@_0N@DPKJDOKL@J?5?5c?5?$CDB2B26C?$AA@ 0042cd98     setlanadialog.obj
 0003:00000da8       ??_C@_0N@HOCGJOGM@K?5?5c?5?$CDB5B571?$AA@ 0042cda8     setlanadialog.obj
 0003:00000db8       ??_C@_0N@COAMFPA@L?5?5c?5?$CDB8B876?$AA@ 0042cdb8     setlanadialog.obj
 0003:00000dc8       ??_C@_0N@KDMOINPN@P?5?5c?5?$CDBCBC7C?$AA@ 0042cdc8     setlanadialog.obj
 0003:00000dd8       ??_C@_0N@INMNJPKG@I?5?5c?5?$CDCDCD40?$AA@ 0042cdd8     setlanadialog.obj
 0003:00000de8       ??_C@_0N@FAFEACEB@U?5?5c?5?$CDD3D344?$AA@ 0042cde8     setlanadialog.obj
 0003:00000df8       ??_C@_0N@HPAEBNOF@Y?5?5c?5?$CDDADA46?$AA@ 0042cdf8     setlanadialog.obj
 0003:00000e08       ??_C@_0N@FPHPMEAI@T?5?5c?5?$CDD6D649?$AA@ 0042ce08     setlanadialog.obj
 0003:00000e18       ??_C@_0N@CNEEEGHF@R?5?5c?5?$CDDCDC4C?$AA@ 0042ce18     setlanadialog.obj
 0003:00000e28       ??_C@_0N@LMJCLHF@E?5?5c?5?$CDDEDE51?$AA@ 0042ce28     setlanadialog.obj
 0003:00000e38       ??_C@_0N@OONLGJHJ@W?5?5c?5?$CDE2E24E?$AA@ 0042ce38     setlanadialog.obj
 0003:00000e48       ??_C@_0N@IKOKCIOF@Q?5?5c?5?$CDE4E454?$AA@ 0042ce48     setlanadialog.obj
 0003:00000e58       ??_C@_0N@GHPBKOCD@?$CB?5?5c?5?$CDE9E955?$AA@ 0042ce58     setlanadialog.obj
 0003:00000e68       ??_C@_0N@MBLBENOJ@?$HO?5?5c?5?$CDE5E558?$AA@ 0042ce68     setlanadialog.obj
 0003:00000e78       ??_C@_0N@DEDAIGPM@?$FO?5?5c?5?$CDECEC5B?$AA@ 0042ce78     setlanadialog.obj
 0003:00000e88       ??_C@_0N@PEJMCAOL@?1?5?5c?5?$CDF1F15D?$AA@ 0042ce88     setlanadialog.obj
 0003:00000e98       ??_C@_0N@LHBDPLJE@?$CI?5?5c?5?$CDD3D365?$AA@ 0042ce98     setlanadialog.obj
 0003:00000ea8       ??_C@_0N@BDIDLOAN@?$CJ?5?5c?5?$CDDCDC64?$AA@ 0042cea8     setlanadialog.obj
 0003:00000eb8       ??_C@_0N@HGDLPCFF@_?5?5c?5?$CDEDED60?$AA@ 0042ceb8     setlanadialog.obj
 0003:00000ec8       ??_C@_0N@CEALMCFL@?$GA?5?5c?5?$CDF4F464?$AA@ 0042cec8     setlanadialog.obj
 0003:00000ed8       ??_C@_0N@DIPNBCGF@?8?5?5c?5?$CD8A8A87?$AA@ 0042ced8     setlanadialog.obj
 0003:00000ee8       ??_C@_0M@OFBNPEMJ@?$FN?5?5c?5gray59?$AA@ 0042cee8     setlanadialog.obj
 0003:00000ef8       ??_C@_0N@LHDNHDBL@?$FL?5?5c?5?$CD9D9D9B?$AA@ 0042cef8     setlanadialog.obj
 0003:00000f08       ??_C@_0N@PLEILACG@?$HL?5?5c?5?$CDBFBF84?$AA@ 0042cf08     setlanadialog.obj
 0003:00000f18       ??_C@_0N@IOBOLMOL@?$HN?5?5c?5?$CDB6B689?$AA@ 0042cf18     setlanadialog.obj
 0003:00000f28       ??_C@_0N@KHLEBFHD@?$HM?5?5c?5?$CDBEBE89?$AA@ 0042cf28     setlanadialog.obj
 0003:00000f38       ??_C@_0N@LCLJBHBK@?5?4?5c?5?$CDBFBF93?$AA@ 0042cf38     setlanadialog.obj
 0003:00000f48       ??_C@_0N@ODCJIGNC@?4?4?5c?5?$CDA4A4A3?$AA@ 0042cf48     setlanadialog.obj
 0003:00000f58       ??_C@_0N@NDKACLIM@X?4?5c?5?$CDA9A9A7?$AA@ 0042cf58     setlanadialog.obj
 0003:00000f68       ??_C@_0N@CGDJJHNH@o?4?5c?5?$CDABABAB?$AA@ 0042cf68     setlanadialog.obj
 0003:00000f78       ??_C@_0N@GBPIEIFL@O?4?5c?5?$CDB5B5B5?$AA@ 0042cf78     setlanadialog.obj
 0003:00000f88       ??_C@_0N@CPADLCPO@?$CL?4?5c?5?$CDBBBBBB?$AA@ 0042cf88     setlanadialog.obj
 0003:00000f98       ??_C@_0N@BNDAGLKM@?$EA?4?5c?5?$CDC2C284?$AA@ 0042cf98     setlanadialog.obj
 0003:00000fa8       ??_C@_0N@MDJPNGAN@?$CD?4?5c?5?$CDC6C68B?$AA@ 0042cfa8     setlanadialog.obj
 0003:00000fb8       ??_C@_0N@FCGKLJFC@$?4?5c?5?$CDC5C594?$AA@ 0042cfb8     setlanadialog.obj
 0003:00000fc8       ??_C@_0N@GPDDMFIL@?$CF?4?5c?5?$CDCBCB94?$AA@ 0042cfc8     setlanadialog.obj
 0003:00000fd8       ??_C@_0N@KKCJOFF@?$CG?4?5c?5?$CDC6C698?$AA@ 0042cfd8     setlanadialog.obj
 0003:00000fe8       ??_C@_0N@GHHMGJEI@?$CK?4?5c?5?$CDCBCB9D?$AA@ 0042cfe8     setlanadialog.obj
 0003:00000ff8       ??_C@_0N@OPMICBIP@?$DN?4?5c?5?$CDD2D29B?$AA@ 0042cff8     setlanadialog.obj
 0003:00001008       ??_C@_0N@BFFHDKNM@?9?4?5c?5?$CDF1F183?$AA@ 0042d008     setlanadialog.obj
 0003:00001018       ??_C@_0N@IGJFKKEN@?$DL?4?5c?5?$CDCECEA1?$AA@ 0042d018     setlanadialog.obj
 0003:00001028       ??_C@_0N@ECAOHMIO@?3?4?5c?5?$CDD4D4A4?$AA@ 0042d028     setlanadialog.obj
 0003:00001038       ??_C@_0N@NFFIOMFK@?$DO?4?5c?5?$CDD9D9A5?$AA@ 0042d038     setlanadialog.obj
 0003:00001048       ??_C@_0N@CPIJNLPJ@?0?4?5c?5?$CDD4D4AB?$AA@ 0042d048     setlanadialog.obj
 0003:00001058       ??_C@_0N@CCNGGHMM@?$DM?4?5c?5?$CDD7D7B2?$AA@ 0042d058     setlanadialog.obj
 0003:00001068       ??_C@_0N@ILKCOCGL@1?4?5c?5?$CDDADAB7?$AA@ 0042d068     setlanadialog.obj
 0003:00001078       ??_C@_0N@PAABNOFG@2?4?5c?5?$CDDBDBBB?$AA@ 0042d078     setlanadialog.obj
 0003:00001088       ??_C@_0N@LBJIEAJG@3?4?5c?5?$CDC4C4C4?$AA@ 0042d088     setlanadialog.obj
 0003:00001098       ??_C@_0N@FFEBDNOC@4?4?5c?5?$CDCCCCCB?$AA@ 0042d098     setlanadialog.obj
 0003:000010a8       ??_C@_0N@LHHMBOIO@5?4?5c?5?$CDDFDFC2?$AA@ 0042d0a8     setlanadialog.obj
 0003:000010b8       ??_C@_0N@NOHPAHJO@6?4?5c?5?$CDD4D4D4?$AA@ 0042d0b8     setlanadialog.obj
 0003:000010c8       ??_C@_0N@OJKDBBPH@7?4?5c?5?$CDDBDBDB?$AA@ 0042d0c8     setlanadialog.obj
 0003:000010d8       ??_C@_0N@MEMJGPGP@8?4?5c?5?$CDE1E1C5?$AA@ 0042d0d8     setlanadialog.obj
 0003:000010e8       ??_C@_0N@DLIICLBM@9?4?5c?5?$CDE5E5CD?$AA@ 0042d0e8     setlanadialog.obj
 0003:000010f8       ??_C@_0N@GGCAFGMD@0?4?5c?5?$CDE6E6D0?$AA@ 0042d0f8     setlanadialog.obj
 0003:00001108       ??_C@_0N@KAEPODED@q?4?5c?5?$CDEEEEDE?$AA@ 0042d108     setlanadialog.obj
 0003:00001118       ??_C@_0N@CELBAHID@w?4?5c?5?$CDE4E4E4?$AA@ 0042d118     setlanadialog.obj
 0003:00001128       ??_C@_0N@KEBCEIK@e?4?5c?5?$CDEFEFE1?$AA@ 0042d128     setlanadialog.obj
 0003:00001138       ??_C@_0N@LJCPPOPN@r?4?5c?5?$CDECECEC?$AA@ 0042d138     setlanadialog.obj
 0003:00001148       ??_C@_0N@IICAGKIB@t?4?5c?5?$CDF1F1E4?$AA@ 0042d148     setlanadialog.obj
 0003:00001158       ??_C@_0N@GAOBHLAI@y?4?5c?5?$CDF6F6ED?$AA@ 0042d158     setlanadialog.obj
 0003:00001168       ??_C@_0N@NJLFEFNJ@u?4?5c?5?$CDF7F7F1?$AA@ 0042d168     setlanadialog.obj
 0003:00001178       ??_C@_0N@BPOLCODJ@i?4?5c?5?$CDF9F9F3?$AA@ 0042d178     setlanadialog.obj
 0003:00001188       ??_C@_0N@LHBJAAGG@p?4?5c?5?$CDFFFFFF?$AA@ 0042d188     setlanadialog.obj
 0003:00001198       ??_C@_09PCKCOIFL@a?4?5c?5None?$AA@ 0042d198     setlanadialog.obj
 0003:000011a8       ??_C@_0EB@CINDJOCI@a?4a?4a?4a?4a?4a?4?9?4?$GA?5?$GA?5?1?5?$GA?5?1?5?$GA?5?1?5?$GA?5?1?5@ 0042d1a8     setlanadialog.obj
 0003:000011f8       ??_C@_0EB@EIKJNCAG@a?4a?4a?4a?4a?4?9?4v?5s?5f?5u?5u?5y?5y?5g?5u?5y?5@ 0042d1f8     setlanadialog.obj
 0003:00001248       ??_C@_0EB@OOECHPF@a?4a?4a?4a?4?9?4c?5h?5?9?5?$EA?5?$CG?5?$CG?5X?5?$EA?5?$DN?5?$CG?5?$EA?5@ 0042d248     setlanadialog.obj
 0003:00001298       ??_C@_0EB@IDNEJKJO@a?4a?4a?4?9?4j?5a?5?9?5X?5?4?5?$CG?5?$CG?5?4?5?$CG?5?$CG?5?$CG?5?$EA?5@ 0042d298     setlanadialog.obj
 0003:000012e8       ??_C@_0EB@JFELFOAO@a?4a?4?9?4j?5i?5?9?5?$CG?5?$CG?5?$EA?5?$CG?5O?5?4?5?$CG?5?$EA?5?$CG?5?$CG?5@ 0042d2e8     setlanadialog.obj
 0003:00001338       ??_C@_0EB@GCLMEIFN@a?4?9?4h?5i?5?$CD?5?$CG?5?$CG?5X?5?$EA?5?$DN?5?$CG?5X?5?$CG?5X?5X?5?$CG?5@ 0042d338     setlanadialog.obj
 0003:00001388       ??_C@_0EB@NOCIICBF@?9?4h?5i?5?$CL?5X?5?$CG?5?$EA?5?4?5?4?5?$CG?5?$CG?5?$EA?5?$CG?5X?5?4?5?$CG?5@ 0042d388     setlanadialog.obj
 0003:000013d8       ??_C@_0EB@JMBCEEE@?$GA?5p?5?$CL?5?4?5?$EA?5?$CG?5?$EA?5X?5?$EA?51?5?$DN?5?$CG?5?$CG?5?4?5?4?5?$CG?5@ 0042d3d8     setlanadialog.obj
 0003:00001428       ??_C@_0EB@NDEODEGO@?$GA?5i?5?4?5?4?5?$EA?5?$CG?5m?5?$DM?4i?4p?4p?4p?4e?4L?5?4?5X?5@ 0042d428     setlanadialog.obj
 0003:00001478       ??_C@_0EB@JFOGGPCH@?$GA?5i?5?4?5?4?5?4?5Z?5p?4p?4p?4p?4p?4p?4p?4?0?4?4?5?4?5@ 0042d478     setlanadialog.obj
 0003:000014c8       ??_C@_0EB@DJDKLKL@?$GA?5i?5?4?5?4?5X?5y?4p?4p?4$?4B?56?5B?5L?5L?5?4?5?4?5@ 0042d4c8     setlanadialog.obj
 0003:00001518       ??_C@_0EB@HKKPBDKD@?$GA?5i?5?4?5?4?57?5p?4p?41?4?4?5?4?5?4?5?4?5?4?5?4?5?4?5?4?5@ 0042d518     setlanadialog.obj
 0003:00001568       ??_C@_0EB@GOLBIDF@?$GA?5i?5?4?5?4?57?5p?4p?4q?4?$DN?5?4?5?4?5?4?5?4?5?4?5?4?5?4?5@ 0042d568     setlanadialog.obj
 0003:000015b8       ??_C@_0EB@ELBJAHEC@?$GA?5i?5?4?5?4?5?$EA?5u?4p?4p?4y?4?$EA?4?$DN?5?4?5?4?5?4?5?4?5?4?5@ 0042d5b8     setlanadialog.obj
 0003:00001608       ??_C@_0EB@PPHFOJLE@?$GA?5i?5?4?5?4?5?4?5S?5p?4p?4p?4p?4p?4?$DM?47?5?4?5?4?5?4?5@ 0042d608     setlanadialog.obj
 0003:00001658       ??_C@_0EB@DIHNOEA@?$GA?5u?5?4?5?4?5?4?5?4?5m?59?4p?4p?4p?4p?4p?4?$HL?5?4?5?4?5@ 0042d658     setlanadialog.obj
 0003:000016a8       ??_C@_0EB@JCAHFAOG@_?5i?5?4?5?4?5?4?5?4?5?4?5?4?56?5?$DL?4i?4p?4p?4p?4m?5?4?5@ 0042d6a8     setlanadialog.obj
 0003:000016f8       ??_C@_0EB@OANOHNAI@_?5i?5?4?5?4?5?4?5?4?5?4?5?4?5?4?5?4?5?$DN?58?4p?4p?4?$DL?4?4?5@ 0042d6f8     setlanadialog.obj
 0003:00001748       ??_C@_0EB@BELFBDMC@?$FO?5i?5?4?5?4?5?4?5?4?5?4?5?4?5?4?5?4?5?4?5B?5p?4p?4?0?4?4?5@ 0042d748     setlanadialog.obj
 0003:00001798       ??_C@_0EB@EELGNOBK@?$FO?5i?5?4?5?4?53?56?5?4?5?4?5?4?5?4?5X?5?$DL?4p?4p?4P?5?4?5@ 0042d798     setlanadialog.obj
 0003:000017e8       ??_C@_0EB@LEACFFOF@?$HO?5i?5?4?5?4?5J?5p?4i?45?4?0?4?$DM?4t?4p?4p?4u?41?5X?5@ 0042d7e8     setlanadialog.obj
 0003:00001838       ??_C@_0EB@PDLJKDID@Q?5i?5?4?5?4?5J?5p?4p?4p?4p?4p?4p?4p?4t?4m?5X?5?$CG?5@ 0042d838     setlanadialog.obj
 0003:00001888       ??_C@_0EB@IMMCGDCN@E?5i?5?4?5?4?5?$CK?5G?5$?4?$DM?42?4?$DM?4?$CF?4H?5?$CK?5o?5?$CK?5?$DM?5@ 0042d888     setlanadialog.obj
 0003:000018d8       ??_C@_0EB@GJCBIDAK@R?5y?5?4?5?4?5?4?5?4?5?4?5X?5X?5o?5?$CG?5?$CK?5?$CK?5?$DM?52?52?5@ 0042d8d8     setlanadialog.obj
 0003:00001928       ??_C@_0EB@OJHCDEKH@R?5i?5?4?5?4?5X?5X?5o?5o?5?$CG?5?$CK?5?$DM?52?52?54?55?56?5@ 0042d928     setlanadialog.obj
 0003:00001978       ??_C@_0EB@KBCBKOFD@T?5i?5?4?5X?5o?5o?5?$CK?5?$CK?5?$DM?52?52?5b?5?$FL?5?4?4D?5M?5@ 0042d978     setlanadialog.obj
 0003:000019c8       ??_C@_0EB@MBCKDELK@U?5i?5o?5?$CG?5?$CK?5?$DM?5?$DM?52?52?55?56?5N?53?46?4F?5G?5@ 0042d9c8     setlanadialog.obj
 0003:00001a18       ??_C@_0EB@HBFMJGAA@I?5d?5?8?5?$FL?5?$FL?5?$FL?5?$FL?5?$FL?5?4?4?4?4X?4o?46?46?4O?4O?4@ 0042da18     setlanadialog.obj
 0003:00001a68       ??_C@_0EB@EFKBBJDL@I?5d?5X?43?43?43?44?44?44?46?46?46?47?47?4w?4w?4@ 0042da68     setlanadialog.obj
 0003:00001ab8       ??_C@_0EB@EOOIANLE@I?5d?5?$FN?5o?4o?4O?4O?4O?4?$CL?4?$CL?4?$CL?4?$CL?43?43?44?44?4@ 0042dab8     setlanadialog.obj
 0003:00001b08       ??_C@_0EB@JFAHNDNP@l?5p?5f?5d?5d?5f?5f?5f?5u?5f?5d?5d?5d?5d?5f?5f?5@ 0042db08     setlanadialog.obj
 0003:00001b58       ??_C@_0EB@BCGMBGBM@V?5w?5q?5q?59?59?58?58?5?0?53?58?58?5?9?5?9?5$?5$?5@ 0042db58     setlanadialog.obj
 0003:00001bac       ??_SQListViewItem@@6B@     0042dbac     setlanadialog.obj
 0003:00001c68       ??_7setlanaDialog@@6BQObject@@@ 0042dc68     setlanadialog.obj
 0003:00001e88       ??_7setlanaDialog@@6BQPaintDevice@@@ 0042de88     setlanadialog.obj
 0003:00001eb4       ??_SQProcess@@6B@          0042deb4     setlanadialog.obj
 0003:00001f54       ??_C@_09PJDIALKE@1doHelp?$CI?$CJ?$AA@ 0042df54     setlanadialog.obj
 0003:00001f60       ??_C@_0L@OELOHDKG@2clicked?$CI?$CJ?$AA@ 0042df60     setlanadialog.obj
 0003:00001f70       ??_C@_0CG@HIHELBH@1lvSelectionChanged?$CI?5QListViewIt@ 0042df70     setlanadialog.obj
 0003:00001fa0       ??_C@_0CF@LFIPBHPN@2selectionChanged?$CI?5QListViewItem@ 0042dfa0     setlanadialog.obj
 0003:00001fcc       ??_C@_07JBEBLGDD@CC_ROOT?$AA@ 0042dfcc     setlanadialog.obj
 0003:00001fd8       ??_C@_09DDAHAMBK@CC_SYSTEM?$AA@ 0042dfd8     setlanadialog.obj
 0003:00001fe4       ??_C@_07BBNAADON@?1silent?$AA@ 0042dfe4     setlanadialog.obj
 0003:00001ff0       ??_C@_06FMLLEKMF@?1root?$DN?$AA@ 0042dff0     setlanadialog.obj
 0003:00001ff8       ??_C@_01NEMOKFLO@?$DN?$AA@ 0042dff8     setlanadialog.obj
 0003:00001ffc       ??_C@_08LIGKILDE@?1system?$DN?$AA@ 0042dffc     setlanadialog.obj
 0003:00002008       ??_C@_0M@BJCMKJLF@?1uselanacfg?$AA@ 0042e008     setlanadialog.obj
 0003:00002018       ??_C@_06HAHILENG@?1debug?$AA@ 0042e018     setlanadialog.obj
 0003:00002020       ??_C@_0M@CPIMCBPO@lanacfg?4exe?$AA@ 0042e020     setlanadialog.obj
 0003:00002030       ??_C@_0O@PNPNAH@showlanapaths?$AA@ 0042e030     setlanadialog.obj
 0003:00002040       ??_C@_0BD@EFOOFMLL@1readyReadStdout?$CI?$CJ?$AA@ 0042e040     setlanadialog.obj
 0003:00002058       ??_C@_0BD@OGLINKBC@2readyReadStdout?$CI?$CJ?$AA@ 0042e058     setlanadialog.obj
 0003:00002070       ??_C@_0BB@KIGELAMK@1processExited?$CI?$CJ?$AA@ 0042e070     setlanadialog.obj
 0003:00002084       ??_C@_0BB@PLPOOLEO@2processExited?$CI?$CJ?$AA@ 0042e084     setlanadialog.obj
 0003:00002098       ??_C@_0FF@NGJIFMMJ@?1uselanacfg?5parameter?5present?5bu@ 0042e098     setlanadialog.obj
 0003:00002100       ??_C@_0BB@KFNAAMBK@Error?5in?5SetLana?$AA@ 0042e100     setlanadialog.obj
 0003:00002114       ??_C@_0L@IMPAINPM@NetBIOS?1IP?$AA@ 0042e114     setlanadialog.obj
 0003:00002124       ??_C@_07CKMCGHON@NetBEUI?$AA@ 0042e124     setlanadialog.obj
 0003:00002130       ??_C@_02PIGFKFFE@?$CF1?$AA@ 0042e130     setlanadialog.obj
 0003:00002134       ??_C@_0BD@FFAKGAPP@c?3?2bncs_config?4ini?$AA@ 0042e134     setlanadialog.obj
 0003:0000214c       ??_C@_0L@DHJBNFFA@ConfigPath?$AA@ 0042e14c     setlanadialog.obj
 0003:0000215c       ??_C@_06LLCHJONG@Config?$AA@ 0042e15c     setlanadialog.obj
 0003:00002164       ??_C@_0L@IIBNMNCL@?$CFs?2csi?4ini?$AA@ 0042e164     setlanadialog.obj
 0003:00002174       ??_C@_0P@IOLOJICH@DefaultAdaptor?$AA@ 0042e174     setlanadialog.obj
 0003:00002188       ??_C@_07BGDMAJAE@Network?$AA@ 0042e188     setlanadialog.obj
 0003:00002194       ??_C@_0N@NDCBAOKK@bbc_nbif?4ini?$AA@ 0042e194     setlanadialog.obj
 0003:000021a4       ??_C@_07IALGBGIB@Adaptor?$AA@ 0042e1a4     setlanadialog.obj
 0003:000021b0       ??_C@_07MBIIAECI@NetBIOS?$AA@ 0042e1b0     setlanadialog.obj
 0003:000021bc       ??_C@_0N@PHDIIBGK@bbc2nbif?4ini?$AA@ 0042e1bc     setlanadialog.obj
 0003:000021cc       ??_C@_0CE@EHDKCKCA@?$CF1?2?$CF2?2config?2system?2bncs_system?4@ 0042e1cc     setlanadialog.obj
 0003:000021f8       ??_C@_0BG@LEPEFEGG@?$CF1?2local_settings?4ini?$AA@ 0042e1f8     setlanadialog.obj
 0003:00002214       ??_C@_0BF@PBDNALFE@Opening?5key?5?8?$CF2?8?6?$CF1?5?$AA@ 0042e214     setlanadialog.obj
 0003:00002230       ??_C@_0N@EAJPAAFD@BBC_NBIF?4INI?$AA@ 0042e230     setlanadialog.obj
 0003:00002240       ??_C@_0N@GEIGIPJD@BBC2NBIF?4INI?$AA@ 0042e240     setlanadialog.obj
 0003:00002250       ??_C@_0FA@OCICLJEO@Adaptor?5set?5to?5?$CF1?6You?5need?5to?5re@ 0042e250     setlanadialog.obj
 0003:000022b0       ??_C@_0M@EBFEGAAI@Information?$AA@ 0042e2b0     setlanadialog.obj
 0003:000022c0       ??_C@_0P@FOJGBABJ@process?5exited?$AA@ 0042e2c0     setlanadialog.obj
 0003:000022d4       ??_C@_01EEMJAFIK@?6?$AA@   0042e2d4     setlanadialog.obj
 0003:000022d8       ??_C@_05CFLADFOI@Lana?3?$AA@ 0042e2d8     setlanadialog.obj
 0003:000022e0       ??_C@_0BE@HLBHPMKH@?9?9?$DONetBEUI?5Protocol?$AA@ 0042e2e0     setlanadialog.obj
 0003:000022f8       ??_C@_0CA@IJLJMFCA@?9?9?$DOWINS?5Client?$CITCP?1IP?$CJ?5Protocol?$AA@ 0042e2f8     setlanadialog.obj
 0003:00002320       ??_C@_08BMAEPLJM@Dial?5Out?$AA@ 0042e320     setlanadialog.obj
 0003:0000232c       ??_C@_0L@DPPOCIOB@Lana?5is?5?$CFd?$AA@ 0042e32c     setlanadialog.obj
 0003:0000233c       ??_C@_03PNLDJJMO@?9?9?$DO?$AA@ 0042e33c     setlanadialog.obj
 0003:00002340       ??_C@_0M@FGLFOBKE@Adaptor?5is?5?$AA@ 0042e340     setlanadialog.obj
 0003:00002350       ??_C@_0BB@NAGNIJPM@Protocol?$DNNetBEUI?$AA@ 0042e350     setlanadialog.obj
 0003:00002364       ??_C@_0BE@BHIACEFK@Protocol?$DNNetBIOS?1IP?$AA@ 0042e364     setlanadialog.obj
 0003:0000237c       ??_C@_0BM@OBNKIAKO@Heap?5Full?5reading?5registry?4?$AA@ 0042e37c     setlanadialog.obj
 0003:000023a0       ??_C@_04GJPPFNOH@?5in?5?$AA@ 0042e3a0     setlanadialog.obj
 0003:000023a8       ??_C@_0N@FNHMLCCJ@Didn?8t?5find?5?$AA@ 0042e3a8     setlanadialog.obj
 0003:000023b8       ??_C@_0DH@IPGIDNGH@Wrong?5data?5type?5?$CF1?0?5wanting?5?$CF2?0?5@ 0042e3b8     setlanadialog.obj
 0003:000023fc       ??_C@_01KMDKNFGN@?1?$AA@   0042e3fc     setlanadialog.obj
 0003:00002400       ??_C@_03JLFNFEKL@at?5?$AA@ 0042e400     setlanadialog.obj
 0003:00002404       ??_C@_0BA@GDBNCIIO@?5in?5data?5?$CImsz?$CJ?5?$AA@ 0042e404     setlanadialog.obj
 0003:00002418       ??_C@_0P@DNMKDKBM@?5in?5data?5?$CIsz?$CJ?5?$AA@ 0042e418     setlanadialog.obj
 0003:0000242c       ??_C@_0BE@OIJBALEP@Reg?5Query?5returned?5?$AA@ 0042e42c     setlanadialog.obj
 0003:00002444       ??_C@_0L@MFGKAIHL@?5in?5value?5?$AA@ 0042e444     setlanadialog.obj
 0003:00002454       ??_C@_08KEDINGPM@?5in?5key?5?$AA@ 0042e454     setlanadialog.obj
 0003:00002460       ??_C@_0CK@LKNFBOCI@Intel?2?$CIR?2?$CJ?5PRO?11000?5MT?5Network?5C@ 0042e460     setlanadialog.obj
 0003:00002494       ??_C@_05CLNGFHP@Find?5?$AA@ 0042e494     setlanadialog.obj
 0003:0000249c       ??_C@_0BI@GKAPCGHO@?5in?5HKEY_LOCAL_MACHINE?5?$AA@ 0042e49c     setlanadialog.obj
 0003:000024b8       ??_C@_04CBBMIBLK@HKLM?$AA@ 0042e4b8     setlanadialog.obj
 0003:000024c0       ??_C@_0CK@CLPKFDOI@VMware?5Virtual?5Ethernet?5Adapter?5@ 0042e4c0     setlanadialog.obj
 0003:000024f4       ??_C@_0DL@CGNGLNMM@?2?2Device?2?2NetBT_Tcpip_?2?$HL?$CI?2w?$HL8?$HN?9?2@ 0042e4f4     setlanadialog.obj
 0003:0000253c       ??_C@_01DNKMNLPK@?$HM?$AA@ 0042e53c     setlanadialog.obj
 0003:00002540       ??_C@_0EAI@LNOKPHFE@?$DMp?$DOThe?5LANA?5number?5sets?5how?5your@ 0042e540     setlanadialog.obj
 0003:00002a18       ??_C@_0N@CEOANMOO@SetLANA?5Help?$AA@ 0042ea18     setlanadialog.obj
 0003:00002a28       ??_C@_0DC@LMCEEPPL@SYSTEM?2CurrentControlSet?2Service@ 0042ea28     setlanadialog.obj
 0003:00002a64       ??_C@_04BOBIPDML@Bind?$AA@ 0042ea64     setlanadialog.obj
 0003:00002a6c       ??_C@_0DL@GDAKBCIH@?2?2Device?2?2NetBT_Tcpip_?$CI?2?$HL?2w?$HL8?$HN?9?2@ 0042ea6c     setlanadialog.obj
 0003:00002ab4       ??_C@_0DD@MAMKBMDK@?2?2Device?2?2Nbf_?$CI?2?$HL?2w?$HL8?$HN?9?2w?$HL4?$HN?9?2w?$HL@ 0042eab4     setlanadialog.obj
 0003:00002af4       ??_C@_07FANGNILD@LanaMap?$AA@ 0042eaf4     setlanadialog.obj
 0003:00002b00       ??_C@_0CG@IAAJNEPO@Failed?5to?5read?5binary?5data?5?$CILana@ 0042eb00     setlanadialog.obj
 0003:00002b30       ??_C@_0CH@MCDIHIEB@Sizes?5of?5Bind?5and?5LanaMap?5don?8t?5@ 0042eb30     setlanadialog.obj
 0003:00002b60       ??_C@_07EDAOMBJJ@?0?5guid?5?$AA@ 0042eb60     setlanadialog.obj
 0003:00002b6c       ??_C@_07HPMBFMHD@?0?5name?5?$AA@ 0042eb6c     setlanadialog.obj
 0003:00002b78       ??_C@_07CABJPPHM@?0?5Lana?5?$AA@ 0042eb78     setlanadialog.obj
 0003:00002b84       ??_C@_06CBIIEFGI@Valid?5?$AA@ 0042eb84     setlanadialog.obj
 0003:00002b90       ??_C@_0EO@IIFOCHEG@SYSTEM?2CurrentControlSet?2Control@ 0042eb90     setlanadialog.obj
 0003:00002bf0       ??_C@_0L@LMCCAGGO@DriverDesc?$AA@ 0042ebf0     setlanadialog.obj
 0003:00002c00       ??_C@_0BB@BKNOGGLI@NetCfgInstanceId?$AA@ 0042ec00     setlanadialog.obj
 0003:00002c14       ??_C@_02KIDIFCCK@?8?5?$AA@ 0042ec14     setlanadialog.obj
 0003:00002c18       ??_C@_0BA@ECDOHNGH@?5NetBios?5item?5?8?$AA@ 0042ec18     setlanadialog.obj
 0003:00002c2c       ??_C@_02LMMGGCAJ@?3?5?$AA@ 0042ec2c     setlanadialog.obj
 0003:00002c30       ??_C@_0BA@HCIOLHDC@?5?5Linkage?5Root?5?$AA@ 0042ec30     setlanadialog.obj
 0003:00002c44       ??_C@_07PAFFAEFF@Linkage?$AA@ 0042ec44     setlanadialog.obj
 0003:00002c50       ??_C@_0L@LFFMCMOK@RootDevice?$AA@ 0042ec50     setlanadialog.obj
 0003:00002c60       ??_C@_0BL@GLIJEECD@Didn?8t?5find?5RootDevice?5in?5?$AA@ 0042ec60     setlanadialog.obj
 0003:00002c80       ??_C@_0CF@FOBFKKCK@RootDevice?5with?5more?5than?5one?5en@ 0042ec80     setlanadialog.obj
 0003:00002cb0       ??_7?$QValueListPrivate@UNetBinding@setlanaDialog@@@@6B@ 0042ecb0     setlanadialog.obj
 0003:00002cbc       ??_7?$QValueListNode@UNetBinding@setlanaDialog@@@@6B@ 0042ecbc     setlanadialog.obj
 0003:00002cc4       ??_C@_0CB@IDGGHGGM@c?3?2qt?23?42?43?2include?2qvaluelist?4h@ 0042ecc4     setlanadialog.obj
 0003:00002cec       ??_C@_0L@DOBKGEJE@i?5?$DM?$DN?5nodes?$AA@ 0042ecec     setlanadialog.obj
 0003:00002cfc       ??_C@_0BI@FLHBKBFO@ASSERT?3?5?$CC?$CFs?$CC?5in?5?$CFs?5?$CI?$CFd?$CJ?$AA@ 0042ecfc     setlanadialog.obj
 0003:00002d8c       ??_C@_0O@JPPMAJEI@processExited?$AA@ 0042ed8c     moc_setlanadialog.obj
 0003:00002d9c       ??_C@_0BA@MAPFLAFB@readyReadStdout?$AA@ 0042ed9c     moc_setlanadialog.obj
 0003:00002db0       ??_C@_02PFEMMEEH@li?$AA@   0042edb0     moc_setlanadialog.obj
 0003:00002db4       ??_C@_0BD@CELKHFDJ@lvSelectionChanged?$AA@ 0042edb4     moc_setlanadialog.obj
 0003:00002dcc       ??_C@_06OOEBKKPD@doHelp?$AA@ 0042edcc     moc_setlanadialog.obj
 0003:00002dd4       ??_C@_0BA@DDGEGKOG@processExited?$CI?$CJ?$AA@ 0042edd4     moc_setlanadialog.obj
 0003:00002de8       ??_C@_0BC@BKNJJHNP@readyReadStdout?$CI?$CJ?$AA@ 0042ede8     moc_setlanadialog.obj
 0003:00002e00       ??_C@_0CD@BGCCMDOI@lvSelectionChanged?$CIQListViewItem@ 0042ee00     moc_setlanadialog.obj
 0003:00002e2c       ??_C@_08HLIKJOHK@doHelp?$CI?$CJ?$AA@ 0042ee2c     moc_setlanadialog.obj
 0003:00002e38       ??_C@_0O@EDPLDKAB@setlanaDialog?$AA@ 0042ee38     moc_setlanadialog.obj
 0003:00002e48       ??_C@_0O@LAFKAPIP@QListViewItem?$AA@ 0042ee48     moc_setlanadialog.obj
 0003:00002e74       ??_C@_0P@DMEOIADN@languageChange?$AA@ 0042ee74     moc_setlanadialogbase.obj
 0003:00002e88       ??_C@_0BB@PFEIHPGD@languageChange?$CI?$CJ?$AA@ 0042ee88     moc_setlanadialogbase.obj
 0003:00002e9c       ??_C@_0BC@GGEJPNNL@setlanaDialogBase?$AA@ 0042ee9c     moc_setlanadialogbase.obj
 0003:00002eb8       ??_7setlanaDialogBase@@6BQObject@@@ 0042eeb8     setlanadialogbase.obj
 0003:000030d8       ??_7setlanaDialogBase@@6BQPaintDevice@@@ 0042f0d8     setlanadialogbase.obj
 0003:00003104       ??_SQPushButton@@6BQObject@@@ 0042f104     setlanadialogbase.obj
 0003:00003358       ??_SQPushButton@@6BQPaintDevice@@@ 0042f358     setlanadialogbase.obj
 0003:00003384       ??_SQLabel@@6BQObject@@@   0042f384     setlanadialogbase.obj
 0003:000035e0       ??_SQLabel@@6BQPaintDevice@@@ 0042f5e0     setlanadialogbase.obj
 0003:0000360c       ??_SQGroupBox@@6BQObject@@@ 0042f60c     setlanadialogbase.obj
 0003:0000384c       ??_SQGroupBox@@6BQPaintDevice@@@ 0042f84c     setlanadialogbase.obj
 0003:0000387c       ??_SQLineEdit@@6BQObject@@@ 0042f87c     setlanadialogbase.obj
 0003:00003b14       ??_SQLineEdit@@6BQPaintDevice@@@ 0042fb14     setlanadialogbase.obj
 0003:00003b44       ??_SQListView@@6BQObject@@@ 0042fb44     setlanadialogbase.obj
 0003:00003ebc       ??_SQListView@@6BQPaintDevice@@@ 0042febc     setlanadialogbase.obj
 0003:00003eec       ??_SQSpacerItem@@6B@       0042feec     setlanadialogbase.obj
 0003:00003f44       ??_SQHBoxLayout@@6BQObject@@@ 0042ff44     setlanadialogbase.obj
 0003:00003fc4       ??_SQHBoxLayout@@6BQLayoutItem@@@ 0042ffc4     setlanadialogbase.obj
 0003:0000401c       ??_SQVBoxLayout@@6BQObject@@@ 0043001c     setlanadialogbase.obj
 0003:0000409c       ??_SQVBoxLayout@@6BQLayoutItem@@@ 0043009c     setlanadialogbase.obj
 0003:000040ec       ??_C@_0BI@KMPGGIHF@setlanaDialogBaseLayout?$AA@ 004300ec     setlanadialogbase.obj
 0003:00004108       ??_C@_0L@KGLFILOJ@textLabel1?$AA@ 00430108     setlanadialogbase.obj
 0003:00004118       ??_C@_09JAGLPBKP@groupBox1?$AA@ 00430118     setlanadialogbase.obj
 0003:00004124       ??_C@_0N@HPEGIJEE@textLabel1_2?$AA@ 00430124     setlanadialogbase.obj
 0003:00004134       ??_C@_03BFKAHOOJ@csi?$AA@  00430134     setlanadialogbase.obj
 0003:00004138       ??_C@_0P@IKOBPDDP@textLabel1_2_2?$AA@ 00430138     setlanadialogbase.obj
 0003:0000414c       ??_C@_08HNKHMDMF@bbc_nbif?$AA@ 0043014c     setlanadialogbase.obj
 0003:00004158       ??_C@_0P@JDPKMCHO@textLabel1_2_3?$AA@ 00430158     setlanadialogbase.obj
 0003:0000416c       ??_C@_08MJMNNPEB@bbc2nbif?$AA@ 0043016c     setlanadialogbase.obj
 0003:00004178       ??_C@_0BB@EOEGFJOC@textLabel1_2_3_2?$AA@ 00430178     setlanadialogbase.obj
 0003:0000418c       ??_C@_0M@INEPAHK@bncs_system?$AA@ 0043018c     setlanadialogbase.obj
 0003:0000419c       ??_C@_0BB@FHFNGIKD@textLabel1_2_3_3?$AA@ 0043019c     setlanadialogbase.obj
 0003:000041b0       ??_C@_06ECGAGODA@master?$AA@ 004301b0     setlanadialogbase.obj
 0003:000041b8       ??_C@_09LLEGKCGM@groupBox2?$AA@ 004301b8     setlanadialogbase.obj
 0003:000041c4       ??_C@_02DIBGMKNJ@lv?$AA@   004301c4     setlanadialogbase.obj
 0003:000041c8       ??_C@_04BJOLJBAA@Lana?$AA@ 004301c8     setlanadialogbase.obj
 0003:000041d0       ??_C@_08NAKOFPNG@Protocol?$AA@ 004301d0     setlanadialogbase.obj
 0003:000041dc       ??_C@_07OFHOKKPF@layout2?$AA@ 004301dc     setlanadialogbase.obj
 0003:000041e8       ??_C@_0L@EMHMCPKI@buttonHelp?$AA@ 004301e8     setlanadialogbase.obj
 0003:000041f8       ??_C@_08DKBDHOFF@buttonOk?$AA@ 004301f8     setlanadialogbase.obj
 0003:00004204       ??_C@_0N@OLKBNHFJ@buttonCancel?$AA@ 00430204     setlanadialogbase.obj
 0003:00004214       ??_C@_09DMINLBG@1accept?$CI?$CJ?$AA@ 00430214     setlanadialogbase.obj
 0003:00004220       ??_C@_09OCDCAEKE@1reject?$CI?$CJ?$AA@ 00430220     setlanadialogbase.obj
 0003:0000422c       ??_C@_0CG@LPJEGMM@Set?5BNCS?1Colledia?5Control?5LANA?5N@ 0043022c     setlanadialogbase.obj
 0003:00004260       ??_C@_0FH@DIJBBGGC@?$DMb?$DOSelect?5the?5card?5?1?5protocol?5re@ 00430260     setlanadialogbase.obj
 0003:000042c8       ??_C@_0BB@LGCALMAN@Current?5Settings?$AA@ 004302c8     setlanadialogbase.obj
 0003:000042dc       ??_C@_07PIGLAMMC@csi?4ini?$AA@ 004302dc     setlanadialogbase.obj
 0003:000042e8       ??_C@_0MJ@NLILKFA@?$DMp?$DOThe?5following?5setting?5in?5?$CGlt?$DL@ 004302e8     setlanadialogbase.obj
 0003:000043e0       ??_C@_0KC@KBOBEDPC@?$DMp?$DOThe?5following?5setting?5in?5?$CGlt?$DL@ 004303e0     setlanadialogbase.obj
 0003:000044a8       ??_C@_0KC@CCJMLEMF@?$DMp?$DOThe?5following?5setting?5in?5?$CGlt?$DL@ 004304a8     setlanadialogbase.obj
 0003:0000456c       ??_C@_0BA@JEGAKECJ@bncs_system?4ini?$AA@ 0043056c     setlanadialogbase.obj
 0003:00004580       ??_C@_0NE@PNNPEHKM@?$DMp?$DOThe?5following?5setting?5in?5?$CGlt?$DL@ 00430580     setlanadialogbase.obj
 0003:00004680       ??_C@_06INNNFHKM@Master?$AA@ 00430680     setlanadialogbase.obj
 0003:00004688       ??_C@_0LF@HIMCOPFB@?$DMp?$DOThe?5following?5setting?5in?5?$CGlt?$DL@ 00430688     setlanadialogbase.obj
 0003:00004768       ??_C@_0BAA@PKLMPPII@?$DMp?$DOThe?5following?5setting?5in?5?$CGlt?$DL@ 00430768     setlanadialogbase.obj
 0003:0000489c       ??_C@_0BD@OFBJCEI@Available?5Settings?$AA@ 0043089c     setlanadialogbase.obj
 0003:000048b4       ??_C@_05JFEBOHHM@?$CGHelp?$AA@ 004308b4     setlanadialogbase.obj
 0003:000048bc       ??_C@_05DOBOEGBO@Alt?$CLH?$AA@ 004308bc     setlanadialogbase.obj
 0003:000048c4       ??_C@_03DDKJIMDC@?$CGOK?$AA@ 004308c4     setlanadialogbase.obj
 0003:000048c8       ??_C@_05HBFPNANJ@Alt?$CLO?$AA@ 004308c8     setlanadialogbase.obj
 0003:000048d0       ??_C@_07JLEKEEPN@?$CGCancel?$AA@ 004308d0     setlanadialogbase.obj
 0003:000048d9       ?value@?$integral_constant@_N$0A@@std@@2_NB 004308d9     MSVCRT:ti_inst.obj
 0003:000048da       ?value@?$integral_constant@_N$00@std@@2_NB 004308da     MSVCRT:ti_inst.obj
 0003:000048e0       ??_7type_info@@6B@         004308e0     MSVCRT:ti_inst.obj
 0003:000049a8       ??_C@_0NN@NGPKDKPD@The?5value?5of?5ESP?5was?5not?5properl@ 004309a8     MSVCRT:error.obj
 0003:00004ab8       ??_C@_0BBN@GPMLNJCF@A?5cast?5to?5a?5smaller?5data?5type?5ha@ 00430ab8     MSVCRT:error.obj
 0003:00004c10       ??_C@_0BN@FFOINMNJ@Stack?5memory?5was?5corrupted?6?$AN?$AA@ 00430c10     MSVCRT:error.obj
 0003:00004c34       ??_C@_0DG@HKJMLLLP@A?5local?5variable?5was?5used?5before@ 00430c34     MSVCRT:error.obj
 0003:00004c74       ??_C@_0CM@NGINOKPC@Stack?5memory?5around?5_alloca?5was?5@ 00430c74     MSVCRT:error.obj
 0003:00004ca8       ??_C@_0BO@GNIAFIKK@Unknown?5Runtime?5Check?5Error?6?$AN?$AA@ 00430ca8     MSVCRT:error.obj
 0003:00004cd0       ??_C@_1GM@OLMCBDMB@?$AAR?$AAu?$AAn?$AAt?$AAi?$AAm?$AAe?$AA?5?$AAC?$AAh?$AAe?$AAc?$AAk?$AA?5?$AAE?$AAr?$AAr?$AAo?$AAr?$AA?4?$AA?6?$AA?$AN?$AA?5?$AAU?$AAn?$AAa?$AAb?$AAl?$AAe?$AA?5?$AAt?$AAo@ 00430cd0     MSVCRT:error.obj
 0003:00004d58       ??_C@_1EA@NFKNIFJP@?$AAR?$AAu?$AAn?$AA?9?$AAT?$AAi?$AAm?$AAe?$AA?5?$AAC?$AAh?$AAe?$AAc?$AAk?$AA?5?$AAF?$AAa?$AAi?$AAl?$AAu?$AAr?$AAe?$AA?5?$AA?$CD?$AA?$CF?$AAd?$AA?5?$AA?9?$AA?5?$AA?$CF?$AAs?$AA?$AA@ 00430d58     MSVCRT:error.obj
 0003:00004da4       ??_C@_0BB@PFFGGCJP@Unknown?5Filename?$AA@ 00430da4     MSVCRT:error.obj
 0003:00004db8       ??_C@_0BE@GNBOBNCK@Unknown?5Module?5Name?$AA@ 00430db8     MSVCRT:error.obj
 0003:00004dd0       ??_C@_0CA@IODNCDPG@Run?9Time?5Check?5Failure?5?$CD?$CFd?5?9?5?$CFs?$AA@ 00430dd0     MSVCRT:error.obj
 0003:00004df8       ??_C@_0CG@IAFNJNEE@Stack?5corrupted?5near?5unknown?5var@ 00430df8     MSVCRT:error.obj
 0003:00004e28       ??_C@_05MKKEDADM@?$CF?42X?5?$AA@ 00430e28     MSVCRT:error.obj
 0003:00004e30       ??_C@_1BG@OILDLIOJ@?$AAu?$AAs?$AAe?$AAr?$AA3?$AA2?$AA?4?$AAd?$AAl?$AAl?$AA?$AA@ 00430e30     MSVCRT:error.obj
 0003:00004e4c       ??_C@_09FOPFMPEJ@wsprintfA?$AA@ 00430e4c     MSVCRT:error.obj
 0003:00004e58       ??_C@_0EJ@LJKNEOLN@Stack?5area?5around?5_alloca?5memory@ 00430e58     MSVCRT:error.obj
 0003:00004eb0       ??_C@_08OMAHNMHJ@?6Data?3?5?$DM?$AA@ 00430eb0     MSVCRT:error.obj
 0003:00004ebc       ??_C@_0CK@DKGBICFE@?6Allocation?5number?5within?5this?5f@ 00430ebc     MSVCRT:error.obj
 0003:00004ef0       ??_C@_07DFDJCKFN@?6Size?3?5?$AA@ 00430ef0     MSVCRT:error.obj
 0003:00004efc       ??_C@_0N@MHFFIMFG@?6Address?3?50x?$AA@ 00430efc     MSVCRT:error.obj
 0003:00004f10       ??_C@_0EI@CLEPFNGI@Stack?5area?5around?5_alloca?5memory@ 00430f10     MSVCRT:error.obj
 0003:00004f68       ??_C@_0BC@KIBAILCI@?$CFs?$CFs?$CFp?$CFs?$CFld?$CFs?$CFd?$CFs?$AA@ 00430f68     MSVCRT:error.obj
 0003:00004f80       ??_C@_02LLMPMKNF@?$DO?5?$AA@ 00430f80     MSVCRT:error.obj
 0003:00004f84       ??_C@_08KJEDNCKC@?$CFs?$CFs?$CFs?$CFs?$AA@ 00430f84     MSVCRT:error.obj
 0003:00004f90       ??_C@_0DE@OHJBPMBP@A?5variable?5is?5being?5used?5without@ 00430f90     MSVCRT:error.obj
 0003:00004ff4       ??_C@_0BJ@HEGAHDFO@Stack?5pointer?5corruption?$AA@ 00430ff4     MSVCRT:userapi.obj
 0003:00005014       ??_C@_0CK@FEGOIOPB@Cast?5to?5smaller?5type?5causing?5los@ 00431014     MSVCRT:userapi.obj
 0003:00005048       ??_C@_0BI@CIGMDCBH@Stack?5memory?5corruption?$AA@ 00431048     MSVCRT:userapi.obj
 0003:00005064       ??_C@_0CK@CNLNOEPB@Local?5variable?5used?5before?5initi@ 00431064     MSVCRT:userapi.obj
 0003:00005098       ??_C@_0BP@OGBCLIBO@Stack?5around?5_alloca?5corrupted?$AA@ 00431098     MSVCRT:userapi.obj
 0003:000050c0       ?ProcessDetach@NativeDll@<CrtImplementationDetails>@@0IB 004310c0     MSVCRT:unhandld.obj
 0003:000050c4       ?ProcessAttach@NativeDll@<CrtImplementationDetails>@@0IB 004310c4     MSVCRT:unhandld.obj
 0003:000050c8       ?ThreadAttach@NativeDll@<CrtImplementationDetails>@@0IB 004310c8     MSVCRT:unhandld.obj
 0003:000050cc       ?ThreadDetach@NativeDll@<CrtImplementationDetails>@@0IB 004310cc     MSVCRT:unhandld.obj
 0003:000050d0       ?ProcessVerifier@NativeDll@<CrtImplementationDetails>@@0IB 004310d0     MSVCRT:unhandld.obj
 0003:000050d4       ?LocalIdBitWidth@CrossScopeId@CodeViewInfo@@2IB 004310d4     MSVCRT:pdblkup.obj
 0003:000050d8       ?IdScopeBitWidth@CrossScopeId@CodeViewInfo@@2IB 004310d8     MSVCRT:pdblkup.obj
 0003:000050dc       ?StartCrossScopeId@CrossScopeId@CodeViewInfo@@2IB 004310dc     MSVCRT:pdblkup.obj
 0003:000050e0       ?LocalIdMask@CrossScopeId@CodeViewInfo@@2IB 004310e0     MSVCRT:pdblkup.obj
 0003:000050e4       ?ScopeIdMask@CrossScopeId@CodeViewInfo@@2IB 004310e4     MSVCRT:pdblkup.obj
 0003:000050e8       ?MaxLocalId@CrossScopeId@CodeViewInfo@@2IB 004310e8     MSVCRT:pdblkup.obj
 0003:000050ec       ?MaxScopeId@CrossScopeId@CodeViewInfo@@2IB 004310ec     MSVCRT:pdblkup.obj
 0003:00005118       ??_C@_1BK@GAEMIDIL@?$AAA?$AAD?$AAV?$AAA?$AAP?$AAI?$AA3?$AA2?$AA?4?$AAD?$AAL?$AAL?$AA?$AA@ 00431118     MSVCRT:pdblkup.obj
 0003:00005138       ??_C@_0O@COHOBMLB@RegOpenKeyExW?$AA@ 00431138     MSVCRT:pdblkup.obj
 0003:00005148       ??_C@_0BB@GLNAEDBD@RegQueryValueExW?$AA@ 00431148     MSVCRT:pdblkup.obj
 0003:0000515c       ??_C@_0M@HLOHPNFA@RegCloseKey?$AA@ 0043115c     MSVCRT:pdblkup.obj
 0003:00005170       ??_C@_1FM@EGIBBNPP@?$AAS?$AAO?$AAF?$AAT?$AAW?$AAA?$AAR?$AAE?$AA?2?$AAM?$AAi?$AAc?$AAr?$AAo?$AAs?$AAo?$AAf?$AAt?$AA?2?$AAV?$AAi?$AAs?$AAu?$AAa?$AAl?$AAS?$AAt?$AAu?$AAd?$AAi?$AAo?$AA?2@ 00431170     MSVCRT:pdblkup.obj
 0003:000051e0       ??_C@_1BG@EABPBLLF@?$AAP?$AAr?$AAo?$AAd?$AAu?$AAc?$AAt?$AAD?$AAi?$AAr?$AA?$AA@ 004311e0     MSVCRT:pdblkup.obj
 0003:000051fc       ??_C@_0BB@KCIACLNC@PDBOpenValidate5?$AA@ 004311fc     MSVCRT:pdblkup.obj
 0003:00005210       ??_C@_01KDCPPGHE@r?$AA@    00431210     MSVCRT:pdblkup.obj
 0003:00005214       ??_7?$QMemArray@PAD@@6B@   00431214     qtmain:qtmain_win.obj
 0003:00005228       __load_config_used         00431228     MSVCRT:loadcfg.obj
 0003:00005624       ??_R13?0A@EA@QShared@@8    00431624     setlanadialog.obj
 0003:00005648       ??_R3QShared@@8            00431648     setlanadialog.obj
 0003:0000565c       ??_R2QShared@@8            0043165c     setlanadialog.obj
 0003:00005664       ??_R1A@?0A@EA@QShared@@8   00431664     setlanadialog.obj
 0003:00005688       ??_R4QListViewItem@@6B@    00431688     setlanadialog.obj
 0003:000056a0       ??_R3QListViewItem@@8      004316a0     setlanadialog.obj
 0003:000056b4       ??_R2QListViewItem@@8      004316b4     setlanadialog.obj
 0003:000056c0       ??_R1A@?0A@EA@QListViewItem@@8 004316c0     setlanadialog.obj
 0003:000056e4       ??_R13?0A@EA@Qt@@8         004316e4     setlanadialog.obj
 0003:00005708       ??_R3Qt@@8                 00431708     setlanadialog.obj
 0003:0000571c       ??_R2Qt@@8                 0043171c     setlanadialog.obj
 0003:00005724       ??_R1A@?0A@EA@Qt@@8        00431724     setlanadialog.obj
 0003:00005748       ??_R4QProcess@@6B@         00431748     setlanadialog.obj
 0003:00005760       ??_R3QProcess@@8           00431760     setlanadialog.obj
 0003:00005774       ??_R2QProcess@@8           00431774     setlanadialog.obj
 0003:00005784       ??_R1A@?0A@EA@QProcess@@8  00431784     setlanadialog.obj
 0003:000057a8       ??_R1A@?0A@EA@QObject@@8   004317a8     setlanadialog.obj
 0003:000057cc       ??_R3QObject@@8            004317cc     setlanadialog.obj
 0003:000057e0       ??_R2QObject@@8            004317e0     setlanadialog.obj
 0003:000057ec       ??_R4setlanaDialog@@6BQObject@@@ 004317ec     setlanadialog.obj
 0003:00005804       ??_R3setlanaDialog@@8      00431804     setlanadialog.obj
 0003:00005818       ??_R2setlanaDialog@@8      00431818     setlanadialog.obj
 0003:0000583c       ??_R1A@?0A@EA@setlanaDialog@@8 0043183c     setlanadialog.obj
 0003:00005860       ??_R1A@?0A@EA@setlanaDialogBase@@8 00431860     setlanadialog.obj
 0003:00005884       ??_R3setlanaDialogBase@@8  00431884     setlanadialog.obj
 0003:00005898       ??_R2setlanaDialogBase@@8  00431898     setlanadialog.obj
 0003:000058b8       ??_R1A@?0A@EA@QDialog@@8   004318b8     setlanadialog.obj
 0003:000058dc       ??_R3QDialog@@8            004318dc     setlanadialog.obj
 0003:000058f0       ??_R2QDialog@@8            004318f0     setlanadialog.obj
 0003:0000590c       ??_R1A@?0A@EA@QWidget@@8   0043190c     setlanadialog.obj
 0003:00005930       ??_R3QWidget@@8            00431930     setlanadialog.obj
 0003:00005944       ??_R2QWidget@@8            00431944     setlanadialog.obj
 0003:00005958       ??_R1CI@?0A@EA@QPaintDevice@@8 00431958     setlanadialog.obj
 0003:0000597c       ??_R3QPaintDevice@@8       0043197c     setlanadialog.obj
 0003:00005990       ??_R2QPaintDevice@@8       00431990     setlanadialog.obj
 0003:00005998       ??_R1A@?0A@EA@QPaintDevice@@8 00431998     setlanadialog.obj
 0003:000059bc       ??_R4setlanaDialog@@6BQPaintDevice@@@ 004319bc     setlanadialog.obj
 0003:000059d4       ??_R4?$QValueListPrivate@UNetBinding@setlanaDialog@@@@6B@ 004319d4     setlanadialog.obj
 0003:000059ec       ??_R3?$QValueListPrivate@UNetBinding@setlanaDialog@@@@8 004319ec     setlanadialog.obj
 0003:00005a00       ??_R2?$QValueListPrivate@UNetBinding@setlanaDialog@@@@8 00431a00     setlanadialog.obj
 0003:00005a0c       ??_R1A@?0A@EA@?$QValueListPrivate@UNetBinding@setlanaDialog@@@@8 00431a0c     setlanadialog.obj
 0003:00005a30       ??_R4?$QValueListNode@UNetBinding@setlanaDialog@@@@6B@ 00431a30     setlanadialog.obj
 0003:00005a48       ??_R3?$QValueListNode@UNetBinding@setlanaDialog@@@@8 00431a48     setlanadialog.obj
 0003:00005a5c       ??_R2?$QValueListNode@UNetBinding@setlanaDialog@@@@8 00431a5c     setlanadialog.obj
 0003:00005a64       ??_R1A@?0A@EA@?$QValueListNode@UNetBinding@setlanaDialog@@@@8 00431a64     setlanadialog.obj
 0003:00005a88       ??_R4QPushButton@@6BQObject@@@ 00431a88     setlanadialogbase.obj
 0003:00005aa0       ??_R3QPushButton@@8        00431aa0     setlanadialogbase.obj
 0003:00005ab4       ??_R2QPushButton@@8        00431ab4     setlanadialogbase.obj
 0003:00005ad4       ??_R1A@?0A@EA@QPushButton@@8 00431ad4     setlanadialogbase.obj
 0003:00005af8       ??_R1A@?0A@EA@QButton@@8   00431af8     setlanadialogbase.obj
 0003:00005b1c       ??_R3QButton@@8            00431b1c     setlanadialogbase.obj
 0003:00005b30       ??_R2QButton@@8            00431b30     setlanadialogbase.obj
 0003:00005b4c       ??_R4QPushButton@@6BQPaintDevice@@@ 00431b4c     setlanadialogbase.obj
 0003:00005b64       ??_R4QVBoxLayout@@6BQObject@@@ 00431b64     setlanadialogbase.obj
 0003:00005b7c       ??_R3QVBoxLayout@@8        00431b7c     setlanadialogbase.obj
 0003:00005b90       ??_R2QVBoxLayout@@8        00431b90     setlanadialogbase.obj
 0003:00005bb0       ??_R1A@?0A@EA@QVBoxLayout@@8 00431bb0     setlanadialogbase.obj
 0003:00005bd4       ??_R1A@?0A@EA@QBoxLayout@@8 00431bd4     setlanadialogbase.obj
 0003:00005bf8       ??_R3QBoxLayout@@8         00431bf8     setlanadialogbase.obj
 0003:00005c0c       ??_R2QBoxLayout@@8         00431c0c     setlanadialogbase.obj
 0003:00005c28       ??_R1A@?0A@EA@QLayout@@8   00431c28     setlanadialogbase.obj
 0003:00005c4c       ??_R3QLayout@@8            00431c4c     setlanadialogbase.obj
 0003:00005c60       ??_R2QLayout@@8            00431c60     setlanadialogbase.obj
 0003:00005c74       ??_R1CI@?0A@EA@QLayoutItem@@8 00431c74     setlanadialogbase.obj
 0003:00005c98       ??_R3QLayoutItem@@8        00431c98     setlanadialogbase.obj
 0003:00005cac       ??_R2QLayoutItem@@8        00431cac     setlanadialogbase.obj
 0003:00005cb4       ??_R1A@?0A@EA@QLayoutItem@@8 00431cb4     setlanadialogbase.obj
 0003:00005cd8       ??_R4QVBoxLayout@@6BQLayoutItem@@@ 00431cd8     setlanadialogbase.obj
 0003:00005cf0       ??_R4QHBoxLayout@@6BQObject@@@ 00431cf0     setlanadialogbase.obj
 0003:00005d08       ??_R3QHBoxLayout@@8        00431d08     setlanadialogbase.obj
 0003:00005d1c       ??_R2QHBoxLayout@@8        00431d1c     setlanadialogbase.obj
 0003:00005d3c       ??_R1A@?0A@EA@QHBoxLayout@@8 00431d3c     setlanadialogbase.obj
 0003:00005d60       ??_R4QHBoxLayout@@6BQLayoutItem@@@ 00431d60     setlanadialogbase.obj
 0003:00005d78       ??_R4QLabel@@6BQObject@@@  00431d78     setlanadialogbase.obj
 0003:00005d90       ??_R3QLabel@@8             00431d90     setlanadialogbase.obj
 0003:00005da4       ??_R2QLabel@@8             00431da4     setlanadialogbase.obj
 0003:00005dc4       ??_R1A@?0A@EA@QLabel@@8    00431dc4     setlanadialogbase.obj
 0003:00005de8       ??_R1A@?0A@EA@QFrame@@8    00431de8     setlanadialogbase.obj
 0003:00005e0c       ??_R3QFrame@@8             00431e0c     setlanadialogbase.obj
 0003:00005e20       ??_R2QFrame@@8             00431e20     setlanadialogbase.obj
 0003:00005e3c       ??_R4QLabel@@6BQPaintDevice@@@ 00431e3c     setlanadialogbase.obj
 0003:00005e54       ??_R4QGroupBox@@6BQObject@@@ 00431e54     setlanadialogbase.obj
 0003:00005e6c       ??_R3QGroupBox@@8          00431e6c     setlanadialogbase.obj
 0003:00005e80       ??_R2QGroupBox@@8          00431e80     setlanadialogbase.obj
 0003:00005ea0       ??_R1A@?0A@EA@QGroupBox@@8 00431ea0     setlanadialogbase.obj
 0003:00005ec4       ??_R4QGroupBox@@6BQPaintDevice@@@ 00431ec4     setlanadialogbase.obj
 0003:00005edc       ??_R4QLineEdit@@6BQObject@@@ 00431edc     setlanadialogbase.obj
 0003:00005ef4       ??_R3QLineEdit@@8          00431ef4     setlanadialogbase.obj
 0003:00005f08       ??_R2QLineEdit@@8          00431f08     setlanadialogbase.obj
 0003:00005f28       ??_R1A@?0A@EA@QLineEdit@@8 00431f28     setlanadialogbase.obj
 0003:00005f4c       ??_R4QLineEdit@@6BQPaintDevice@@@ 00431f4c     setlanadialogbase.obj
 0003:00005f64       ??_R4QListView@@6BQObject@@@ 00431f64     setlanadialogbase.obj
 0003:00005f7c       ??_R3QListView@@8          00431f7c     setlanadialogbase.obj
 0003:00005f90       ??_R2QListView@@8          00431f90     setlanadialogbase.obj
 0003:00005fb4       ??_R1A@?0A@EA@QListView@@8 00431fb4     setlanadialogbase.obj
 0003:00005fd8       ??_R1A@?0A@EA@QScrollView@@8 00431fd8     setlanadialogbase.obj
 0003:00005ffc       ??_R3QScrollView@@8        00431ffc     setlanadialogbase.obj
 0003:00006010       ??_R2QScrollView@@8        00432010     setlanadialogbase.obj
 0003:00006030       ??_R4QListView@@6BQPaintDevice@@@ 00432030     setlanadialogbase.obj
 0003:00006048       ??_R4setlanaDialogBase@@6BQObject@@@ 00432048     setlanadialogbase.obj
 0003:00006060       ??_R4setlanaDialogBase@@6BQPaintDevice@@@ 00432060     setlanadialogbase.obj
 0003:00006078       ??_R4QSpacerItem@@6B@      00432078     setlanadialogbase.obj
 0003:00006090       ??_R3QSpacerItem@@8        00432090     setlanadialogbase.obj
 0003:000060a4       ??_R2QSpacerItem@@8        004320a4     setlanadialogbase.obj
 0003:000060b0       ??_R1A@?0A@EA@QSpacerItem@@8 004320b0     setlanadialogbase.obj
 0003:000060d4       ??_R4type_info@@6B@        004320d4     MSVCRT:ti_inst.obj
 0003:000060ec       ??_R3type_info@@8          004320ec     MSVCRT:ti_inst.obj
 0003:00006100       ??_R2type_info@@8          00432100     MSVCRT:ti_inst.obj
 0003:00006108       ??_R1A@?0A@EA@type_info@@8 00432108     MSVCRT:ti_inst.obj
 0003:0000626c       ___rtc_iaa                 0043226c     MSVCRT:initsect.obj
 0003:00006488       ___rtc_izz                 00432488     MSVCRT:initsect.obj
 0003:0000658c       ___rtc_taa                 0043258c     MSVCRT:initsect.obj
 0003:000067a8       ___rtc_tzz                 004327a8     MSVCRT:initsect.obj
 0004:00000328       ___security_cookie         00434328     MSVCRT:gs_cookie.obj
 0004:0000032c       ___security_cookie_complement 0043432c     MSVCRT:gs_cookie.obj
 0004:00000330       ?_RTC_ErrorLevels@@3PAHA   00434330     MSVCRT:error.obj
 0004:00000350       ___defaultmatherr          00434350     MSVCRT:merr.obj
 0004:00000354       ___globallocalestatus      00434354     MSVCRT:xthdloc.obj
 0004:00000358       ___native_dllmain_reason   00434358     MSVCRT:natstart.obj
 0004:00000464       ??_R0?AUQShared@@@8        00434464     setlanadialog.obj
 0004:00000480       ??_R0?AVQListViewItem@@@8  00434480     setlanadialog.obj
 0004:000004a4       ??_R0?AVQt@@@8             004344a4     setlanadialog.obj
 0004:000004b8       ??_R0?AVQProcess@@@8       004344b8     setlanadialog.obj
 0004:000004d4       ??_R0?AVQObject@@@8        004344d4     setlanadialog.obj
 0004:000004f0       ??_R0?AVsetlanaDialog@@@8  004344f0     setlanadialog.obj
 0004:00000514       ??_R0?AVsetlanaDialogBase@@@8 00434514     setlanadialog.obj
 0004:0000053c       ??_R0?AVQDialog@@@8        0043453c     setlanadialog.obj
 0004:00000558       ??_R0?AVQWidget@@@8        00434558     setlanadialog.obj
 0004:00000574       ??_R0?AVQPaintDevice@@@8   00434574     setlanadialog.obj
 0004:00000594       ??_R0?AV?$QValueListPrivate@UNetBinding@setlanaDialog@@@@@8 00434594     setlanadialog.obj
 0004:000005e0       ??_R0?AV?$QValueListNode@UNetBinding@setlanaDialog@@@@@8 004345e0     setlanadialog.obj
 0004:00000628       ??_R0?AVQPushButton@@@8    00434628     setlanadialogbase.obj
 0004:00000648       ??_R0?AVQButton@@@8        00434648     setlanadialogbase.obj
 0004:00000664       ??_R0?AVQVBoxLayout@@@8    00434664     setlanadialogbase.obj
 0004:00000684       ??_R0?AVQBoxLayout@@@8     00434684     setlanadialogbase.obj
 0004:000006a4       ??_R0?AVQLayout@@@8        004346a4     setlanadialogbase.obj
 0004:000006c0       ??_R0?AVQLayoutItem@@@8    004346c0     setlanadialogbase.obj
 0004:000006e0       ??_R0?AVQHBoxLayout@@@8    004346e0     setlanadialogbase.obj
 0004:00000700       ??_R0?AVQLabel@@@8         00434700     setlanadialogbase.obj
 0004:0000071c       ??_R0?AVQFrame@@@8         0043471c     setlanadialogbase.obj
 0004:00000738       ??_R0?AVQGroupBox@@@8      00434738     setlanadialogbase.obj
 0004:00000754       ??_R0?AVQLineEdit@@@8      00434754     setlanadialogbase.obj
 0004:00000770       ??_R0?AVQListView@@@8      00434770     setlanadialogbase.obj
 0004:0000078c       ??_R0?AVQScrollView@@@8    0043478c     setlanadialogbase.obj
 0004:000007ac       ??_R0?AVQSpacerItem@@@8    004347ac     setlanadialogbase.obj
 0004:000007cc       ??_R0?AVtype_info@@@8      004347cc     MSVCRT:ti_inst.obj
 0004:00000900       ?metaObj@setlanaDialog@@0PAVQMetaObject@@A 00434900     moc_setlanadialog.obj
 0004:00000910       ?metaObj@setlanaDialogBase@@0PAVQMetaObject@@A 00434910     moc_setlanadialogbase.obj
 0004:00000944       ?wsprintffp@@3P6AHPADPBDZZA 00434944     MSVCRT:error.obj
 0004:00000d14       __commode                  00434d14     MSVCRT:xncommod.obj
 0004:00000d18       __dowildcard               00434d18     MSVCRT:wildcard.obj
 0004:00000d1c       __newmode                  00434d1c     MSVCRT:_newmode.obj
 0004:00000d20       __fmode                    00434d20     MSVCRT:xtxtmode.obj
 0004:00000d2c       ___native_startup_lock     00434d2c     <common>
 0004:00000d3c       ___native_startup_state    00434d3c     <common>
 0004:00000d40       ___dyn_tls_init_callback   00434d40     <common>
 0004:00000d50       ___onexitend               00434d50     <common>
 0004:00000d60       ___onexitbegin             00434d60     <common>
 0005:00000000       __imp__RegQueryInfoKeyA@48 00435000     advapi32:ADVAPI32.dll
 0005:00000004       __imp__RegOpenKeyExA@20    00435004     advapi32:ADVAPI32.dll
 0005:00000008       __imp__RegEnumValueA@32    00435008     advapi32:ADVAPI32.dll
 0005:0000000c       __imp__RegEnumKeyExA@32    0043500c     advapi32:ADVAPI32.dll
 0005:00000010       __imp__RegQueryValueExA@24 00435010     advapi32:ADVAPI32.dll
 0005:00000014       \177ADVAPI32_NULL_THUNK_DATA 00435014     advapi32:ADVAPI32.dll
 0005:00000044       __imp__GetSystemTimeAsFileTime@4 00435044     kernel32:KERNEL32.dll
 0005:00000048       __imp__GetCurrentThreadId@0 00435048     kernel32:KERNEL32.dll
 0005:0000004c       __imp__GetCurrentProcessId@0 0043504c     kernel32:KERNEL32.dll
 0005:00000050       __imp__QueryPerformanceCounter@4 00435050     kernel32:KERNEL32.dll
 0005:00000054       __imp__IsProcessorFeaturePresent@4 00435054     kernel32:KERNEL32.dll
 0005:00000058       __imp__WideCharToMultiByte@32 00435058     kernel32:KERNEL32.dll
 0005:0000005c       __imp__MultiByteToWideChar@24 0043505c     kernel32:KERNEL32.dll
 0005:00000060       __imp__LoadLibraryExW@12   00435060     kernel32:KERNEL32.dll
 0005:00000064       __imp__GetProcAddress@8    00435064     kernel32:KERNEL32.dll
 0005:00000068       __imp__RaiseException@16   00435068     kernel32:KERNEL32.dll
 0005:0000006c       __imp__HeapAlloc@12        0043506c     kernel32:KERNEL32.dll
 0005:00000070       __imp__DecodePointer@4     00435070     kernel32:KERNEL32.dll
 0005:00000074       __imp__EncodePointer@4     00435074     kernel32:KERNEL32.dll
 0005:00000078       __imp__GetLastError@0      00435078     kernel32:KERNEL32.dll
 0005:0000007c       __imp__FormatMessageA@28   0043507c     kernel32:KERNEL32.dll
 0005:00000080       __imp__ExpandEnvironmentStringsA@12 00435080     kernel32:KERNEL32.dll
 0005:00000084       __imp__GetPrivateProfileIntA@16 00435084     kernel32:KERNEL32.dll
 0005:00000088       __imp__GetPrivateProfileStringA@24 00435088     kernel32:KERNEL32.dll
 0005:0000008c       __imp__WritePrivateProfileStringA@16 0043508c     kernel32:KERNEL32.dll
 0005:00000090       __imp__GetWindowsDirectoryA@8 00435090     kernel32:KERNEL32.dll
 0005:00000094       __imp__HeapFree@12         00435094     kernel32:KERNEL32.dll
 0005:00000098       __imp__GetProcessHeap@0    00435098     kernel32:KERNEL32.dll
 0005:0000009c       __imp__VirtualQuery@12     0043509c     kernel32:KERNEL32.dll
 0005:000000a0       __imp__FreeLibrary@4       004350a0     kernel32:KERNEL32.dll
 0005:000000a4       __imp__IsDebuggerPresent@0 004350a4     kernel32:KERNEL32.dll
 0005:000000a8       __imp__GetModuleFileNameW@12 004350a8     kernel32:KERNEL32.dll
 0005:000000ac       __imp__LocalFree@4         004350ac     kernel32:KERNEL32.dll
 0005:000000b0       \177KERNEL32_NULL_THUNK_DATA 004350b0     kernel32:KERNEL32.dll
 0005:000000f0       __imp___configthreadlocale 004350f0     MSVCRT:MSVCR120.dll
 0005:000000f4       __imp___ismbblead          004350f4     MSVCRT:MSVCR120.dll
 0005:000000f8       __imp___cexit              004350f8     MSVCRT:MSVCR120.dll
 0005:000000fc       __imp____setusermatherr    004350fc     MSVCRT:MSVCR120.dll
 0005:00000100       __imp____set_app_type      00435100     MSVCRT:MSVCR120.dll
 0005:00000104       __imp____getmainargs       00435104     MSVCRT:MSVCR120.dll
 0005:00000108       __imp___amsg_exit          00435108     MSVCRT:MSVCR120.dll
 0005:0000010c       __imp____crtGetShowWindowMode 0043510c     MSVCRT:MSVCR120.dll
 0005:00000110       __imp___XcptFilter         00435110     MSVCRT:MSVCR120.dll
 0005:00000114       __imp___onexit             00435114     MSVCRT:MSVCR120.dll
 0005:00000118       __imp____dllonexit         00435118     MSVCRT:MSVCR120.dll
 0005:0000011c       __imp___calloc_crt         0043511c     MSVCRT:MSVCR120.dll
 0005:00000120       __imp___unlock             00435120     MSVCRT:MSVCR120.dll
 0005:00000124       __imp___lock               00435124     MSVCRT:MSVCR120.dll
 0005:00000128       __imp_??1type_info@@UAE@XZ 00435128     MSVCRT:MSVCR120.dll
 0005:0000012c       __imp___CRT_RTC_INITW      0043512c     MSVCRT:MSVCR120.dll
 0005:00000130       __imp__sprintf             00435130     MSVCRT:MSVCR120.dll
 0005:00000134       __imp__malloc              00435134     MSVCRT:MSVCR120.dll
 0005:00000138       __imp__free                00435138     MSVCRT:MSVCR120.dll
 0005:0000013c       __imp__getenv              0043513c     MSVCRT:MSVCR120.dll
 0005:00000140       __imp__exit                00435140     MSVCRT:MSVCR120.dll
 0005:00000144       __imp__strlen              00435144     MSVCRT:MSVCR120.dll
 0005:00000148       __imp__memcpy              00435148     MSVCRT:MSVCR120.dll
 0005:0000014c       __imp_??3@YAXPAX@Z         0043514c     MSVCRT:MSVCR120.dll
 0005:00000150       __imp_??2@YAPAXI@Z         00435150     MSVCRT:MSVCR120.dll
 0005:00000154       __imp____CxxFrameHandler3  00435154     MSVCRT:MSVCR120.dll
 0005:00000158       __imp___initterm_e         00435158     MSVCRT:MSVCR120.dll
 0005:0000015c       __imp___initterm           0043515c     MSVCRT:MSVCR120.dll
 0005:00000160       __imp___acmdln             00435160     MSVCRT:MSVCR120.dll
 0005:00000164       __imp___fmode              00435164     MSVCRT:MSVCR120.dll
 0005:00000168       __imp___commode            00435168     MSVCRT:MSVCR120.dll
 0005:0000016c       __imp___crt_debugger_hook  0043516c     MSVCRT:MSVCR120.dll
 0005:00000170       __imp____crtUnhandledException 00435170     MSVCRT:MSVCR120.dll
 0005:00000174       __imp____crtTerminateProcess 00435174     MSVCRT:MSVCR120.dll
 0005:00000178       __imp_?terminate@@YAXXZ    00435178     MSVCRT:MSVCR120.dll
 0005:0000017c       __imp___except_handler4_common 0043517c     MSVCRT:MSVCR120.dll
 0005:00000180       __imp____crtSetUnhandledExceptionFilter 00435180     MSVCRT:MSVCR120.dll
 0005:00000184       __imp___invoke_watson      00435184     MSVCRT:MSVCR120.dll
 0005:00000188       __imp___controlfp_s        00435188     MSVCRT:MSVCR120.dll
 0005:0000018c       __imp___exit               0043518c     MSVCRT:MSVCR120.dll
 0005:00000190       __imp__strcpy              00435190     MSVCRT:MSVCR120.dll
 0005:00000194       \177MSVCR120_NULL_THUNK_DATA 00435194     MSVCRT:MSVCR120.dll
 0005:000001e0       __imp_?addArgument@QProcess@@UAEXABVQString@@@Z 004351e0     qt-mt323:qt-mt323.dll
 0005:000001e4       __imp_?adjustSize@QWidget@@UAEXXZ 004351e4     qt-mt323:qt-mt323.dll
 0005:000001e8       __imp_?cancelRename@QListViewItem@@MAEXH@Z 004351e8     qt-mt323:qt-mt323.dll
 0005:000001ec       __imp_?checkConnectArgs@QObject@@MAE_NPBDPBV1@0@Z 004351ec     qt-mt323:qt-mt323.dll
 0005:000001f0       __imp_?childEvent@QObject@@MAEXPAVQChildEvent@@@Z 004351f0     qt-mt323:qt-mt323.dll
 0005:000001f4       __imp_?className@QProcess@@UBEPBDXZ 004351f4     qt-mt323:qt-mt323.dll
 0005:000001f8       __imp_?close@QWidget@@UAE_N_N@Z 004351f8     qt-mt323:qt-mt323.dll
 0005:000001fc       __imp_?closeEvent@QDialog@@MAEXPAVQCloseEvent@@@Z 004351fc     qt-mt323:qt-mt323.dll
 0005:00000200       __imp_?closeStdin@QProcess@@UAEXXZ 00435200     qt-mt323:qt-mt323.dll
 0005:00000204       __imp_?cmd@QPaintDevice@@MAE_NHPAVQPainter@@PATQPDevCmdParam@@@Z 00435204     qt-mt323:qt-mt323.dll
 0005:00000208       __imp_?compare@QListViewItem@@UBEHPAV1@H_N@Z 00435208     qt-mt323:qt-mt323.dll
 0005:0000020c       __imp_?connectNotify@QObject@@MAEXPBD@Z 0043520c     qt-mt323:qt-mt323.dll
 0005:00000210       __imp_?connectNotify@QProcess@@MAEXPBD@Z 00435210     qt-mt323:qt-mt323.dll
 0005:00000214       __imp_?contextMenuEvent@QDialog@@MAEXPAVQContextMenuEvent@@@Z 00435214     qt-mt323:qt-mt323.dll
 0005:00000218       __imp_?create@QWidget@@MAEXPAUHWND__@@_N1@Z 00435218     qt-mt323:qt-mt323.dll
 0005:0000021c       __imp_?customEvent@QObject@@MAEXPAVQCustomEvent@@@Z 0043521c     qt-mt323:qt-mt323.dll
 0005:00000220       __imp_?customWhatsThis@QWidget@@UBE_NXZ 00435220     qt-mt323:qt-mt323.dll
 0005:00000224       __imp_?destroy@QWidget@@MAEX_N0@Z 00435224     qt-mt323:qt-mt323.dll
 0005:00000228       __imp_?disconnectNotify@QObject@@MAEXPBD@Z 00435228     qt-mt323:qt-mt323.dll
 0005:0000022c       __imp_?disconnectNotify@QProcess@@MAEXPBD@Z 0043522c     qt-mt323:qt-mt323.dll
 0005:00000230       __imp_?done@QDialog@@MAEXH@Z 00435230     qt-mt323:qt-mt323.dll
 0005:00000234       __imp_?dragEnterEvent@QWidget@@MAEXPAVQDragEnterEvent@@@Z 00435234     qt-mt323:qt-mt323.dll
 0005:00000238       __imp_?dragEntered@QListViewItem@@MAEXXZ 00435238     qt-mt323:qt-mt323.dll
 0005:0000023c       __imp_?dragLeaveEvent@QWidget@@MAEXPAVQDragLeaveEvent@@@Z 0043523c     qt-mt323:qt-mt323.dll
 0005:00000240       __imp_?dragLeft@QListViewItem@@MAEXXZ 00435240     qt-mt323:qt-mt323.dll
 0005:00000244       __imp_?dragMoveEvent@QWidget@@MAEXPAVQDragMoveEvent@@@Z 00435244     qt-mt323:qt-mt323.dll
 0005:00000248       __imp_?dropEvent@QWidget@@MAEXPAVQDropEvent@@@Z 00435248     qt-mt323:qt-mt323.dll
 0005:0000024c       __imp_?dropped@QListViewItem@@MAEXPAVQDropEvent@@@Z 0043524c     qt-mt323:qt-mt323.dll
 0005:00000250       __imp_?enabledChange@QWidget@@MAEX_N@Z 00435250     qt-mt323:qt-mt323.dll
 0005:00000254       __imp_?enforceSortOrder@QListViewItem@@MBEXXZ 00435254     qt-mt323:qt-mt323.dll
 0005:00000258       __imp_?enterEvent@QWidget@@MAEXPAVQEvent@@@Z 00435258     qt-mt323:qt-mt323.dll
 0005:0000025c       __imp_?event@QObject@@UAE_NPAVQEvent@@@Z 0043525c     qt-mt323:qt-mt323.dll
 0005:00000260       __imp_?event@QWidget@@MAE_NPAVQEvent@@@Z 00435260     qt-mt323:qt-mt323.dll
 0005:00000264       __imp_?eventFilter@QDialog@@MAE_NPAVQObject@@PAVQEvent@@@Z 00435264     qt-mt323:qt-mt323.dll
 0005:00000268       __imp_?eventFilter@QObject@@UAE_NPAV1@PAVQEvent@@@Z 00435268     qt-mt323:qt-mt323.dll
 0005:0000026c       __imp_?focusInEvent@QWidget@@MAEXPAVQFocusEvent@@@Z 0043526c     qt-mt323:qt-mt323.dll
 0005:00000270       __imp_?focusNextPrevChild@QWidget@@MAE_N_N@Z 00435270     qt-mt323:qt-mt323.dll
 0005:00000274       __imp_?focusOutEvent@QWidget@@MAEXPAVQFocusEvent@@@Z 00435274     qt-mt323:qt-mt323.dll
 0005:00000278       __imp_?fontChange@QWidget@@MAEXABVQFont@@@Z 00435278     qt-mt323:qt-mt323.dll
 0005:0000027c       __imp_?fontInf@QPaintDevice@@MBEHPAVQFont@@H@Z 0043527c     qt-mt323:qt-mt323.dll
 0005:00000280       __imp_?fontMet@QPaintDevice@@MBEHPAVQFont@@HPBDH@Z 00435280     qt-mt323:qt-mt323.dll
 0005:00000284       __imp_?handle@QPaintDevice@@UBEPAUHDC__@@XZ 00435284     qt-mt323:qt-mt323.dll
 0005:00000288       __imp_?heightForWidth@QWidget@@UBEHH@Z 00435288     qt-mt323:qt-mt323.dll
 0005:0000028c       __imp_?hide@QDialog@@UAEXXZ 0043528c     qt-mt323:qt-mt323.dll
 0005:00000290       __imp_?hideEvent@QWidget@@MAEXPAVQHideEvent@@@Z 00435290     qt-mt323:qt-mt323.dll
 0005:00000294       __imp_?imComposeEvent@QWidget@@MAEXPAVQIMEvent@@@Z 00435294     qt-mt323:qt-mt323.dll
 0005:00000298       __imp_?imEndEvent@QWidget@@MAEXPAVQIMEvent@@@Z 00435298     qt-mt323:qt-mt323.dll
 0005:0000029c       __imp_?imStartEvent@QWidget@@MAEXPAVQIMEvent@@@Z 0043529c     qt-mt323:qt-mt323.dll
 0005:000002a0       __imp_?insertChild@QObject@@UAEXPAV1@@Z 004352a0     qt-mt323:qt-mt323.dll
 0005:000002a4       __imp_?insertItem@QListViewItem@@UAEXPAV1@@Z 004352a4     qt-mt323:qt-mt323.dll
 0005:000002a8       __imp_?invalidateHeight@QListViewItem@@UAEXXZ 004352a8     qt-mt323:qt-mt323.dll
 0005:000002ac       __imp_?key@QListViewItem@@UBE?AVQString@@H_N@Z 004352ac     qt-mt323:qt-mt323.dll
 0005:000002b0       __imp_?keyPressEvent@QDialog@@MAEXPAVQKeyEvent@@@Z 004352b0     qt-mt323:qt-mt323.dll
 0005:000002b4       __imp_?keyReleaseEvent@QWidget@@MAEXPAVQKeyEvent@@@Z 004352b4     qt-mt323:qt-mt323.dll
 0005:000002b8       __imp_?launch@QProcess@@UAE_NABV?$QMemArray@D@@PAVQStringList@@@Z 004352b8     qt-mt323:qt-mt323.dll
 0005:000002bc       __imp_?launch@QProcess@@UAE_NABVQString@@PAVQStringList@@@Z 004352bc     qt-mt323:qt-mt323.dll
 0005:000002c0       __imp_?leaveEvent@QWidget@@MAEXPAVQEvent@@@Z 004352c0     qt-mt323:qt-mt323.dll
 0005:000002c4       __imp_?metaObject@QProcess@@UBEPAVQMetaObject@@XZ 004352c4     qt-mt323:qt-mt323.dll
 0005:000002c8       __imp_?metric@QWidget@@MBEHH@Z 004352c8     qt-mt323:qt-mt323.dll
 0005:000002cc       __imp_?minimumSizeHint@QDialog@@UBE?AVQSize@@XZ 004352cc     qt-mt323:qt-mt323.dll
 0005:000002d0       __imp_?mouseDoubleClickEvent@QWidget@@MAEXPAVQMouseEvent@@@Z 004352d0     qt-mt323:qt-mt323.dll
 0005:000002d4       __imp_?mouseMoveEvent@QWidget@@MAEXPAVQMouseEvent@@@Z 004352d4     qt-mt323:qt-mt323.dll
 0005:000002d8       __imp_?mousePressEvent@QWidget@@MAEXPAVQMouseEvent@@@Z 004352d8     qt-mt323:qt-mt323.dll
 0005:000002dc       __imp_?mouseReleaseEvent@QWidget@@MAEXPAVQMouseEvent@@@Z 004352dc     qt-mt323:qt-mt323.dll
 0005:000002e0       __imp_?move@QDialog@@UAEXHH@Z 004352e0     qt-mt323:qt-mt323.dll
 0005:000002e4       __imp_?moveEvent@QWidget@@MAEXPAVQMoveEvent@@@Z 004352e4     qt-mt323:qt-mt323.dll
 0005:000002e8       __imp_?okRename@QListViewItem@@MAEXH@Z 004352e8     qt-mt323:qt-mt323.dll
 0005:000002ec       __imp_?paintBranches@QListViewItem@@UAEXPAVQPainter@@ABVQColorGroup@@HHH@Z 004352ec     qt-mt323:qt-mt323.dll
 0005:000002f0       __imp_?paintCell@QListViewItem@@UAEXPAVQPainter@@ABVQColorGroup@@HHH@Z 004352f0     qt-mt323:qt-mt323.dll
 0005:000002f4       __imp_?paintEvent@QWidget@@MAEXPAVQPaintEvent@@@Z 004352f4     qt-mt323:qt-mt323.dll
 0005:000002f8       __imp_?paintFocus@QListViewItem@@UAEXPAVQPainter@@ABVQColorGroup@@ABVQRect@@@Z 004352f8     qt-mt323:qt-mt323.dll
 0005:000002fc       __imp_?paletteChange@QWidget@@MAEXABVQPalette@@@Z 004352fc     qt-mt323:qt-mt323.dll
 0005:00000300       __imp_?pixmap@QListViewItem@@UBEPBVQPixmap@@H@Z 00435300     qt-mt323:qt-mt323.dll
 0005:00000304       __imp_?polish@QWidget@@UAEXXZ 00435304     qt-mt323:qt-mt323.dll
 0005:00000308       __imp_?property@QObject@@UBE?AVQVariant@@PBD@Z 00435308     qt-mt323:qt-mt323.dll
 0005:0000030c       __imp_?qt_cast@QProcess@@UAEPAXPBD@Z 0043530c     qt-mt323:qt-mt323.dll
 0005:00000310       __imp_?qt_emit@QProcess@@UAE_NHPAUQUObject@@@Z 00435310     qt-mt323:qt-mt323.dll
 0005:00000314       __imp_?qt_invoke@QProcess@@UAE_NHPAUQUObject@@@Z 00435314     qt-mt323:qt-mt323.dll
 0005:00000318       __imp_?qt_property@QProcess@@UAE_NHHPAVQVariant@@@Z 00435318     qt-mt323:qt-mt323.dll
 0005:0000031c       __imp_?readLineStderr@QProcess@@UAE?AVQString@@XZ 0043531c     qt-mt323:qt-mt323.dll
 0005:00000320       __imp_?readLineStdout@QProcess@@UAE?AVQString@@XZ 00435320     qt-mt323:qt-mt323.dll
 0005:00000324       __imp_?readStderr@QProcess@@UAE?AV?$QMemArray@D@@XZ 00435324     qt-mt323:qt-mt323.dll
 0005:00000328       __imp_?readStdout@QProcess@@UAE?AV?$QMemArray@D@@XZ 00435328     qt-mt323:qt-mt323.dll
 0005:0000032c       __imp_?reject@QDialog@@MAEXXZ 0043532c     qt-mt323:qt-mt323.dll
 0005:00000330       __imp_?removeChild@QObject@@UAEXPAV1@@Z 00435330     qt-mt323:qt-mt323.dll
 0005:00000334       __imp_?removeItem@QListViewItem@@UAEXPAV1@@Z 00435334     qt-mt323:qt-mt323.dll
 0005:00000338       __imp_?reparent@QWidget@@UAEXPAV1@IABVQPoint@@_N@Z 00435338     qt-mt323:qt-mt323.dll
 0005:0000033c       __imp_?resize@QDialog@@UAEXHH@Z 0043533c     qt-mt323:qt-mt323.dll
 0005:00000340       __imp_?resizeEvent@QDialog@@MAEXPAVQResizeEvent@@@Z 00435340     qt-mt323:qt-mt323.dll
 0005:00000344       __imp_?resolution@QPaintDevice@@UBEHXZ 00435344     qt-mt323:qt-mt323.dll
 0005:00000348       __imp_?rtti@QListViewItem@@UBEHXZ 00435348     qt-mt323:qt-mt323.dll
 0005:0000034c       __imp_?setAcceptDrops@QWidget@@UAEX_N@Z 0043534c     qt-mt323:qt-mt323.dll
 0005:00000350       __imp_?setActiveWindow@QWidget@@UAEXXZ 00435350     qt-mt323:qt-mt323.dll
 0005:00000354       __imp_?setArguments@QProcess@@UAEXABVQStringList@@@Z 00435354     qt-mt323:qt-mt323.dll
 0005:00000358       __imp_?setAutoMask@QWidget@@UAEX_N@Z 00435358     qt-mt323:qt-mt323.dll
 0005:0000035c       __imp_?setBackgroundColor@QWidget@@UAEXABVQColor@@@Z 0043535c     qt-mt323:qt-mt323.dll
 0005:00000360       __imp_?setBackgroundMode@QWidget@@UAEXW4BackgroundMode@Qt@@@Z 00435360     qt-mt323:qt-mt323.dll
 0005:00000364       __imp_?setBackgroundOrigin@QWidget@@UAEXW4BackgroundOrigin@1@@Z 00435364     qt-mt323:qt-mt323.dll
 0005:00000368       __imp_?setBackgroundPixmap@QWidget@@UAEXABVQPixmap@@@Z 00435368     qt-mt323:qt-mt323.dll
 0005:0000036c       __imp_?setCaption@QWidget@@UAEXABVQString@@@Z 0043536c     qt-mt323:qt-mt323.dll
 0005:00000370       __imp_?setCursor@QWidget@@UAEXABVQCursor@@@Z 00435370     qt-mt323:qt-mt323.dll
 0005:00000374       __imp_?setDragEnabled@QListViewItem@@UAEX_N@Z 00435374     qt-mt323:qt-mt323.dll
 0005:00000378       __imp_?setDropEnabled@QListViewItem@@UAEX_N@Z 00435378     qt-mt323:qt-mt323.dll
 0005:0000037c       __imp_?setEnabled@QListViewItem@@UAEX_N@Z 0043537c     qt-mt323:qt-mt323.dll
 0005:00000380       __imp_?setEnabled@QWidget@@UAEX_N@Z 00435380     qt-mt323:qt-mt323.dll
 0005:00000384       __imp_?setEraseColor@QWidget@@UAEXABVQColor@@@Z 00435384     qt-mt323:qt-mt323.dll
 0005:00000388       __imp_?setErasePixmap@QWidget@@UAEXABVQPixmap@@@Z 00435388     qt-mt323:qt-mt323.dll
 0005:0000038c       __imp_?setExpandable@QListViewItem@@UAEX_N@Z 0043538c     qt-mt323:qt-mt323.dll
 0005:00000390       __imp_?setFocus@QWidget@@UAEXXZ 00435390     qt-mt323:qt-mt323.dll
 0005:00000394       __imp_?setFocusPolicy@QWidget@@UAEXW4FocusPolicy@1@@Z 00435394     qt-mt323:qt-mt323.dll
 0005:00000398       __imp_?setFocusProxy@QWidget@@UAEXPAV1@@Z 00435398     qt-mt323:qt-mt323.dll
 0005:0000039c       __imp_?setFont@QWidget@@UAEXABVQFont@@@Z 0043539c     qt-mt323:qt-mt323.dll
 0005:000003a0       __imp_?setGeometry@QDialog@@UAEXABVQRect@@@Z 004353a0     qt-mt323:qt-mt323.dll
 0005:000003a4       __imp_?setGeometry@QDialog@@UAEXHHHH@Z 004353a4     qt-mt323:qt-mt323.dll
 0005:000003a8       __imp_?setHeight@QListViewItem@@MAEXH@Z 004353a8     qt-mt323:qt-mt323.dll
 0005:000003ac       __imp_?setIconText@QWidget@@UAEXABVQString@@@Z 004353ac     qt-mt323:qt-mt323.dll
 0005:000003b0       __imp_?setKeyCompression@QWidget@@MAEX_N@Z 004353b0     qt-mt323:qt-mt323.dll
 0005:000003b4       __imp_?setMask@QWidget@@UAEXABVQBitmap@@@Z 004353b4     qt-mt323:qt-mt323.dll
 0005:000003b8       __imp_?setMask@QWidget@@UAEXABVQRegion@@@Z 004353b8     qt-mt323:qt-mt323.dll
 0005:000003bc       __imp_?setMaximumSize@QWidget@@UAEXHH@Z 004353bc     qt-mt323:qt-mt323.dll
 0005:000003c0       __imp_?setMicroFocusHint@QWidget@@MAEXHHHH_NPAVQFont@@@Z 004353c0     qt-mt323:qt-mt323.dll
 0005:000003c4       __imp_?setMinimumSize@QWidget@@UAEXHH@Z 004353c4     qt-mt323:qt-mt323.dll
 0005:000003c8       __imp_?setMouseTracking@QWidget@@UAEX_N@Z 004353c8     qt-mt323:qt-mt323.dll
 0005:000003cc       __imp_?setMultiLinesEnabled@QListViewItem@@UAEX_N@Z 004353cc     qt-mt323:qt-mt323.dll
 0005:000003d0       __imp_?setName@QObject@@UAEXPBD@Z 004353d0     qt-mt323:qt-mt323.dll
 0005:000003d4       __imp_?setName@QWidget@@UAEXPBD@Z 004353d4     qt-mt323:qt-mt323.dll
 0005:000003d8       __imp_?setOpen@QListViewItem@@UAEX_N@Z 004353d8     qt-mt323:qt-mt323.dll
 0005:000003dc       __imp_?setPalette@QWidget@@UAEXABVQPalette@@@Z 004353dc     qt-mt323:qt-mt323.dll
 0005:000003e0       __imp_?setPaletteBackgroundColor@QWidget@@UAEXABVQColor@@@Z 004353e0     qt-mt323:qt-mt323.dll
 0005:000003e4       __imp_?setPaletteBackgroundPixmap@QWidget@@UAEXABVQPixmap@@@Z 004353e4     qt-mt323:qt-mt323.dll
 0005:000003e8       __imp_?setPixmap@QListViewItem@@UAEXHABVQPixmap@@@Z 004353e8     qt-mt323:qt-mt323.dll
 0005:000003ec       __imp_?setProperty@QObject@@UAE_NPBDABVQVariant@@@Z 004353ec     qt-mt323:qt-mt323.dll
 0005:000003f0       __imp_?setRenameEnabled@QListViewItem@@UAEXH_N@Z 004353f0     qt-mt323:qt-mt323.dll
 0005:000003f4       __imp_?setResolution@QPaintDevice@@UAEXH@Z 004353f4     qt-mt323:qt-mt323.dll
 0005:000003f8       __imp_?setSelectable@QListViewItem@@UAEX_N@Z 004353f8     qt-mt323:qt-mt323.dll
 0005:000003fc       __imp_?setSelected@QListViewItem@@UAEX_N@Z 004353fc     qt-mt323:qt-mt323.dll
 0005:00000400       __imp_?setSizeIncrement@QWidget@@UAEXHH@Z 00435400     qt-mt323:qt-mt323.dll
 0005:00000404       __imp_?setSizePolicy@QWidget@@UAEXVQSizePolicy@@@Z 00435404     qt-mt323:qt-mt323.dll
 0005:00000408       __imp_?setText@QListViewItem@@UAEXHABVQString@@@Z 00435408     qt-mt323:qt-mt323.dll
 0005:0000040c       __imp_?setUpdatesEnabled@QWidget@@UAEX_N@Z 0043540c     qt-mt323:qt-mt323.dll
 0005:00000410       __imp_?setWFlags@QWidget@@MAEXI@Z 00435410     qt-mt323:qt-mt323.dll
 0005:00000414       __imp_?setWState@QWidget@@MAEXI@Z 00435414     qt-mt323:qt-mt323.dll
 0005:00000418       __imp_?setWorkingDirectory@QProcess@@UAEXABVQDir@@@Z 00435418     qt-mt323:qt-mt323.dll
 0005:0000041c       __imp_?setup@QListViewItem@@UAEXXZ 0043541c     qt-mt323:qt-mt323.dll
 0005:00000420       __imp_?show@QDialog@@UAEXXZ 00435420     qt-mt323:qt-mt323.dll
 0005:00000424       __imp_?showEvent@QWidget@@MAEXPAVQShowEvent@@@Z 00435424     qt-mt323:qt-mt323.dll
 0005:00000428       __imp_?showMaximized@QWidget@@UAEXXZ 00435428     qt-mt323:qt-mt323.dll
 0005:0000042c       __imp_?showMinimized@QWidget@@UAEXXZ 0043542c     qt-mt323:qt-mt323.dll
 0005:00000430       __imp_?showNormal@QWidget@@UAEXXZ 00435430     qt-mt323:qt-mt323.dll
 0005:00000434       __imp_?sizeHint@QDialog@@UBE?AVQSize@@XZ 00435434     qt-mt323:qt-mt323.dll
 0005:00000438       __imp_?sizePolicy@QWidget@@UBE?AVQSizePolicy@@XZ 00435438     qt-mt323:qt-mt323.dll
 0005:0000043c       __imp_?sort@QListViewItem@@UAEXXZ 0043543c     qt-mt323:qt-mt323.dll
 0005:00000440       __imp_?sortChildItems@QListViewItem@@UAEXH_N@Z 00435440     qt-mt323:qt-mt323.dll
 0005:00000444       __imp_?start@QProcess@@UAE_NPAVQStringList@@@Z 00435444     qt-mt323:qt-mt323.dll
 0005:00000448       __imp_?startRename@QListViewItem@@UAEXH@Z 00435448     qt-mt323:qt-mt323.dll
 0005:0000044c       __imp_?styleChange@QWidget@@MAEXAAVQStyle@@@Z 0043544c     qt-mt323:qt-mt323.dll
 0005:00000450       __imp_?tabletEvent@QWidget@@MAEXPAVQTabletEvent@@@Z 00435450     qt-mt323:qt-mt323.dll
 0005:00000454       __imp_?takeItem@QListViewItem@@UAEXPAV1@@Z 00435454     qt-mt323:qt-mt323.dll
 0005:00000458       __imp_?text@QListViewItem@@UBE?AVQString@@H@Z 00435458     qt-mt323:qt-mt323.dll
 0005:0000045c       __imp_?timerEvent@QObject@@MAEXPAVQTimerEvent@@@Z 0043545c     qt-mt323:qt-mt323.dll
 0005:00000460       __imp_?unsetCursor@QWidget@@UAEXXZ 00435460     qt-mt323:qt-mt323.dll
 0005:00000464       __imp_?updateMask@QWidget@@MAEXXZ 00435464     qt-mt323:qt-mt323.dll
 0005:00000468       __imp_?wheelEvent@QWidget@@MAEXPAVQWheelEvent@@@Z 00435468     qt-mt323:qt-mt323.dll
 0005:0000046c       __imp_?width@QListViewItem@@UBEHABVQFontMetrics@@PBVQListView@@H@Z 0043546c     qt-mt323:qt-mt323.dll
 0005:00000470       __imp_?winEvent@QWidget@@MAE_NPAUtagMSG@@@Z 00435470     qt-mt323:qt-mt323.dll
 0005:00000474       __imp_?windowActivationChange@QWidget@@MAEX_N@Z 00435474     qt-mt323:qt-mt323.dll
 0005:00000478       __imp_?writeToStdin@QProcess@@UAEXABV?$QMemArray@D@@@Z 00435478     qt-mt323:qt-mt323.dll
 0005:0000047c       __imp_?writeToStdin@QProcess@@UAEXABVQString@@@Z 0043547c     qt-mt323:qt-mt323.dll
 0005:00000480       __imp_?null@QString@@2V1@A 00435480     qt-mt323:qt-mt323.dll
 0005:00000484       __imp_?qApp@@3PAVQApplication@@A 00435484     qt-mt323:qt-mt323.dll
 0005:00000488       __imp_?qstrcmp@@YAHPBD0@Z  00435488     qt-mt323:qt-mt323.dll
 0005:0000048c       __imp_?fromLatin1@QString@@SA?AV1@PBDH@Z 0043548c     qt-mt323:qt-mt323.dll
 0005:00000490       __imp_?fromUtf8@QString@@SA?AV1@PBDH@Z 00435490     qt-mt323:qt-mt323.dll
 0005:00000494       __imp_?slotOffset@QMetaObject@@QBEHXZ 00435494     qt-mt323:qt-mt323.dll
 0005:00000498       __imp_?new_metaobject@QMetaObject@@SAPAV1@PBDPAV1@QBUQMetaData@@H2HQBVQMetaProperty@@HQBUQMetaEnum@@HQBUQClassInfo@@H@Z 00435498     qt-mt323:qt-mt323.dll
 0005:0000049c       __imp_??0QMetaObjectCleanUp@@QAE@PBDP6APAVQMetaObject@@XZ@Z 0043549c     qt-mt323:qt-mt323.dll
 0005:000004a0       __imp_??1QMetaObjectCleanUp@@QAE@XZ 004354a0     qt-mt323:qt-mt323.dll
 0005:000004a4       __imp_?setMetaObject@QMetaObjectCleanUp@@QAEXAAPAVQMetaObject@@@Z 004354a4     qt-mt323:qt-mt323.dll
 0005:000004a8       __imp_?translate@QApplication@@QBE?AVQString@@PBD00W4Encoding@1@@Z 004354a8     qt-mt323:qt-mt323.dll
 0005:000004ac       __imp_?get@QUType_ptr@@QAEAAPAXPAUQUObject@@@Z 004354ac     qt-mt323:qt-mt323.dll
 0005:000004b0       __imp_?static_QUType_ptr@@3UQUType_ptr@@A 004354b0     qt-mt323:qt-mt323.dll
 0005:000004b4       __imp_?qt_cast@QDialog@@UAEPAXPBD@Z 004354b4     qt-mt323:qt-mt323.dll
 0005:000004b8       __imp_?qt_invoke@QDialog@@UAE_NHPAUQUObject@@@Z 004354b8     qt-mt323:qt-mt323.dll
 0005:000004bc       __imp_?qt_emit@QDialog@@UAE_NHPAUQUObject@@@Z 004354bc     qt-mt323:qt-mt323.dll
 0005:000004c0       __imp_?qt_property@QDialog@@UAE_NHHPAVQVariant@@@Z 004354c0     qt-mt323:qt-mt323.dll
 0005:000004c4       __imp_?staticMetaObject@QDialog@@SAPAVQMetaObject@@XZ 004354c4     qt-mt323:qt-mt323.dll
 0005:000004c8       __imp_??0QSize@@QAE@HH@Z   004354c8     qt-mt323:qt-mt323.dll
 0005:000004cc       __imp_?expandedTo@QSize@@QBE?AV1@ABV1@@Z 004354cc     qt-mt323:qt-mt323.dll
 0005:000004d0       __imp_??0QSizePolicy@@QAE@W4SizeType@0@0EE_N@Z 004354d0     qt-mt323:qt-mt323.dll
 0005:000004d4       __imp_?hasHeightForWidth@QSizePolicy@@QBE_NXZ 004354d4     qt-mt323:qt-mt323.dll
 0005:000004d8       __imp_?setMinimumSize@QWidget@@QAEXABVQSize@@@Z 004354d8     qt-mt323:qt-mt323.dll
 0005:000004dc       __imp_?setMaximumSize@QWidget@@QAEXABVQSize@@@Z 004354dc     qt-mt323:qt-mt323.dll
 0005:000004e0       __imp_?setTabOrder@QWidget@@SAXPAV1@0@Z 004354e0     qt-mt323:qt-mt323.dll
 0005:000004e4       __imp_?layout@QWidget@@QBEPAVQLayout@@XZ 004354e4     qt-mt323:qt-mt323.dll
 0005:000004e8       __imp_?clearWState@QWidget@@IAEXI@Z 004354e8     qt-mt323:qt-mt323.dll
 0005:000004ec       __imp_??0QDialog@@QAE@PAVQWidget@@PBD_NI@Z 004354ec     qt-mt323:qt-mt323.dll
 0005:000004f0       __imp_??1QDialog@@UAE@XZ   004354f0     qt-mt323:qt-mt323.dll
 0005:000004f4       __imp_?resize@QDialog@@QAEXABVQSize@@@Z 004354f4     qt-mt323:qt-mt323.dll
 0005:000004f8       __imp_?setSizeGripEnabled@QDialog@@QAEX_N@Z 004354f8     qt-mt323:qt-mt323.dll
 0005:000004fc       __imp_??0QKeySequence@@QAE@ABVQString@@@Z 004354fc     qt-mt323:qt-mt323.dll
 0005:00000500       __imp_??1QKeySequence@@QAE@XZ 00435500     qt-mt323:qt-mt323.dll
 0005:00000504       __imp_??0QPushButton@@QAE@PAVQWidget@@PBD@Z 00435504     qt-mt323:qt-mt323.dll
 0005:00000508       __imp_??1QPushButton@@UAE@XZ 00435508     qt-mt323:qt-mt323.dll
 0005:0000050c       __imp_?setFrameShape@QFrame@@QAEXW4Shape@1@@Z 0043550c     qt-mt323:qt-mt323.dll
 0005:00000510       __imp_?setFrameShadow@QFrame@@QAEXW4Shadow@1@@Z 00435510     qt-mt323:qt-mt323.dll
 0005:00000514       __imp_??0QLabel@@QAE@PAVQWidget@@PBDI@Z 00435514     qt-mt323:qt-mt323.dll
 0005:00000518       __imp_??1QLabel@@UAE@XZ    00435518     qt-mt323:qt-mt323.dll
 0005:0000051c       __imp_??0QGroupBox@@QAE@PAVQWidget@@PBD@Z 0043551c     qt-mt323:qt-mt323.dll
 0005:00000520       __imp_??1QGroupBox@@UAE@XZ 00435520     qt-mt323:qt-mt323.dll
 0005:00000524       __imp_??0QLineEdit@@QAE@PAVQWidget@@PBD@Z 00435524     qt-mt323:qt-mt323.dll
 0005:00000528       __imp_??1QLineEdit@@UAE@XZ 00435528     qt-mt323:qt-mt323.dll
 0005:0000052c       __imp_??0QListView@@QAE@PAVQWidget@@PBDI@Z 0043552c     qt-mt323:qt-mt323.dll
 0005:00000530       __imp_??1QListView@@UAE@XZ 00435530     qt-mt323:qt-mt323.dll
 0005:00000534       __imp_?header@QListView@@QBEPAVQHeader@@XZ 00435534     qt-mt323:qt-mt323.dll
 0005:00000538       __imp_??0QSpacerItem@@QAE@HHW4SizeType@QSizePolicy@@0@Z 00435538     qt-mt323:qt-mt323.dll
 0005:0000053c       __imp_??1QSpacerItem@@UAE@XZ 0043553c     qt-mt323:qt-mt323.dll
 0005:00000540       __imp_?addWidget@QBoxLayout@@QAEXPAVQWidget@@HH@Z 00435540     qt-mt323:qt-mt323.dll
 0005:00000544       __imp_?addLayout@QBoxLayout@@QAEXPAVQLayout@@H@Z 00435544     qt-mt323:qt-mt323.dll
 0005:00000548       __imp_??0QHBoxLayout@@QAE@PAVQWidget@@HHPBD@Z 00435548     qt-mt323:qt-mt323.dll
 0005:0000054c       __imp_??0QHBoxLayout@@QAE@PAVQLayout@@HPBD@Z 0043554c     qt-mt323:qt-mt323.dll
 0005:00000550       __imp_??1QHBoxLayout@@UAE@XZ 00435550     qt-mt323:qt-mt323.dll
 0005:00000554       __imp_??0QVBoxLayout@@QAE@PAVQWidget@@HHPBD@Z 00435554     qt-mt323:qt-mt323.dll
 0005:00000558       __imp_??0QVBoxLayout@@QAE@PAVQLayout@@HPBD@Z 00435558     qt-mt323:qt-mt323.dll
 0005:0000055c       __imp_??1QVBoxLayout@@UAE@XZ 0043555c     qt-mt323:qt-mt323.dll
 0005:00000560       __imp_?add@QToolTip@@SAXPAVQWidget@@ABVQString@@@Z 00435560     qt-mt323:qt-mt323.dll
 0005:00000564       __imp_?add@QWhatsThis@@SAXPAVQWidget@@ABVQString@@@Z 00435564     qt-mt323:qt-mt323.dll
 0005:00000568       __imp_?addChild@QScrollView@@UAEXPAVQWidget@@HH@Z 00435568     qt-mt323:qt-mt323.dll
 0005:0000056c       __imp_?addColumn@QListView@@UAEHABVQIconSet@@ABVQString@@H@Z 0043556c     qt-mt323:qt-mt323.dll
 0005:00000570       __imp_?addColumn@QListView@@UAEHABVQString@@H@Z 00435570     qt-mt323:qt-mt323.dll
 0005:00000574       __imp_?addItem@QBoxLayout@@UAEXPAVQLayoutItem@@@Z 00435574     qt-mt323:qt-mt323.dll
 0005:00000578       __imp_?childEvent@QGroupBox@@MAEXPAVQChildEvent@@@Z 00435578     qt-mt323:qt-mt323.dll
 0005:0000057c       __imp_?childEvent@QLayout@@MAEXPAVQChildEvent@@@Z 0043557c     qt-mt323:qt-mt323.dll
 0005:00000580       __imp_?className@QGroupBox@@UBEPBDXZ 00435580     qt-mt323:qt-mt323.dll
 0005:00000584       __imp_?className@QHBoxLayout@@UBEPBDXZ 00435584     qt-mt323:qt-mt323.dll
 0005:00000588       __imp_?className@QLabel@@UBEPBDXZ 00435588     qt-mt323:qt-mt323.dll
 0005:0000058c       __imp_?className@QLineEdit@@UBEPBDXZ 0043558c     qt-mt323:qt-mt323.dll
 0005:00000590       __imp_?className@QListView@@UBEPBDXZ 00435590     qt-mt323:qt-mt323.dll
 0005:00000594       __imp_?className@QPushButton@@UBEPBDXZ 00435594     qt-mt323:qt-mt323.dll
 0005:00000598       __imp_?className@QVBoxLayout@@UBEPBDXZ 00435598     qt-mt323:qt-mt323.dll
 0005:0000059c       __imp_?clear@QLineEdit@@UAEXXZ 0043559c     qt-mt323:qt-mt323.dll
 0005:000005a0       __imp_?clear@QListView@@UAEXXZ 004355a0     qt-mt323:qt-mt323.dll
 0005:000005a4       __imp_?clearSelection@QListView@@UAEXXZ 004355a4     qt-mt323:qt-mt323.dll
 0005:000005a8       __imp_?clearValidator@QLineEdit@@UAEXXZ 004355a8     qt-mt323:qt-mt323.dll
 0005:000005ac       __imp_?closeEvent@QWidget@@MAEXPAVQCloseEvent@@@Z 004355ac     qt-mt323:qt-mt323.dll
 0005:000005b0       __imp_?contentsContextMenuEvent@QListView@@MAEXPAVQContextMenuEvent@@@Z 004355b0     qt-mt323:qt-mt323.dll
 0005:000005b4       __imp_?contentsDragEnterEvent@QListView@@MAEXPAVQDragEnterEvent@@@Z 004355b4     qt-mt323:qt-mt323.dll
 0005:000005b8       __imp_?contentsDragLeaveEvent@QListView@@MAEXPAVQDragLeaveEvent@@@Z 004355b8     qt-mt323:qt-mt323.dll
 0005:000005bc       __imp_?contentsDragMoveEvent@QListView@@MAEXPAVQDragMoveEvent@@@Z 004355bc     qt-mt323:qt-mt323.dll
 0005:000005c0       __imp_?contentsDropEvent@QListView@@MAEXPAVQDropEvent@@@Z 004355c0     qt-mt323:qt-mt323.dll
 0005:000005c4       __imp_?contentsMouseDoubleClickEvent@QListView@@MAEXPAVQMouseEvent@@@Z 004355c4     qt-mt323:qt-mt323.dll
 0005:000005c8       __imp_?contentsMouseMoveEvent@QListView@@MAEXPAVQMouseEvent@@@Z 004355c8     qt-mt323:qt-mt323.dll
 0005:000005cc       __imp_?contentsMousePressEvent@QListView@@MAEXPAVQMouseEvent@@@Z 004355cc     qt-mt323:qt-mt323.dll
 0005:000005d0       __imp_?contentsMouseReleaseEvent@QListView@@MAEXPAVQMouseEvent@@@Z 004355d0     qt-mt323:qt-mt323.dll
 0005:000005d4       __imp_?contentsWheelEvent@QScrollView@@MAEXPAVQWheelEvent@@@Z 004355d4     qt-mt323:qt-mt323.dll
 0005:000005d8       __imp_?contextMenuEvent@QLineEdit@@MAEXPAVQContextMenuEvent@@@Z 004355d8     qt-mt323:qt-mt323.dll
 0005:000005dc       __imp_?contextMenuEvent@QScrollView@@MAEXPAVQContextMenuEvent@@@Z 004355dc     qt-mt323:qt-mt323.dll
 0005:000005e0       __imp_?contextMenuEvent@QWidget@@MAEXPAVQContextMenuEvent@@@Z 004355e0     qt-mt323:qt-mt323.dll
 0005:000005e4       __imp_?copy@QLineEdit@@UBEXXZ 004355e4     qt-mt323:qt-mt323.dll
 0005:000005e8       __imp_?createPopupMenu@QLineEdit@@MAEPAVQPopupMenu@@XZ 004355e8     qt-mt323:qt-mt323.dll
 0005:000005ec       __imp_?activate@QListViewItem@@MAEXXZ 004355ec     qt-mt323:qt-mt323.dll
 0005:000005f0       __imp_?deselect@QLineEdit@@UAEXXZ 004355f0     qt-mt323:qt-mt323.dll
 0005:000005f4       __imp_?dragEnterEvent@QLineEdit@@MAEXPAVQDragEnterEvent@@@Z 004355f4     qt-mt323:qt-mt323.dll
 0005:000005f8       __imp_?dragLeaveEvent@QLineEdit@@MAEXPAVQDragLeaveEvent@@@Z 004355f8     qt-mt323:qt-mt323.dll
 0005:000005fc       __imp_?dragMoveEvent@QLineEdit@@MAEXPAVQDragMoveEvent@@@Z 004355fc     qt-mt323:qt-mt323.dll
 0005:00000600       __imp_?dragObject@QListView@@MAEPAVQDragObject@@XZ 00435600     qt-mt323:qt-mt323.dll
 0005:00000604       __imp_?drawButton@QPushButton@@MAEXPAVQPainter@@@Z 00435604     qt-mt323:qt-mt323.dll
 0005:00000608       __imp_?drawButtonLabel@QPushButton@@MAEXPAVQPainter@@@Z 00435608     qt-mt323:qt-mt323.dll
 0005:0000060c       __imp_?drawContents@QFrame@@MAEXPAVQPainter@@@Z 0043560c     qt-mt323:qt-mt323.dll
 0005:00000610       __imp_?drawContents@QLabel@@MAEXPAVQPainter@@@Z 00435610     qt-mt323:qt-mt323.dll
 0005:00000614       __imp_?drawContents@QLineEdit@@MAEXPAVQPainter@@@Z 00435614     qt-mt323:qt-mt323.dll
 0005:00000618       __imp_?drawContents@QScrollView@@EAEXPAVQPainter@@@Z 00435618     qt-mt323:qt-mt323.dll
 0005:0000061c       __imp_?drawContents@QScrollView@@MAEXPAVQPainter@@HHHH@Z 0043561c     qt-mt323:qt-mt323.dll
 0005:00000620       __imp_?drawContentsOffset@QListView@@MAEXPAVQPainter@@HHHHHH@Z 00435620     qt-mt323:qt-mt323.dll
 0005:00000624       __imp_?drawFrame@QFrame@@MAEXPAVQPainter@@@Z 00435624     qt-mt323:qt-mt323.dll
 0005:00000628       __imp_?dropEvent@QLineEdit@@MAEXPAVQDropEvent@@@Z 00435628     qt-mt323:qt-mt323.dll
 0005:0000062c       __imp_?enabledChange@QButton@@MAEX_N@Z 0043562c     qt-mt323:qt-mt323.dll
 0005:00000630       __imp_?event@QGroupBox@@MAE_NPAVQEvent@@@Z 00435630     qt-mt323:qt-mt323.dll
 0005:00000634       __imp_?event@QLineEdit@@MAE_NPAVQEvent@@@Z 00435634     qt-mt323:qt-mt323.dll
 0005:00000638       __imp_?eventFilter@QLayout@@MAE_NPAVQObject@@PAVQEvent@@@Z 00435638     qt-mt323:qt-mt323.dll
 0005:0000063c       __imp_?eventFilter@QListView@@UAE_NPAVQObject@@PAVQEvent@@@Z 0043563c     qt-mt323:qt-mt323.dll
 0005:00000640       __imp_?expanding@QBoxLayout@@UBE?AW4ExpandData@QSizePolicy@@XZ 00435640     qt-mt323:qt-mt323.dll
 0005:00000644       __imp_?expanding@QSpacerItem@@UBE?AW4ExpandData@QSizePolicy@@XZ 00435644     qt-mt323:qt-mt323.dll
 0005:00000648       __imp_?focusInEvent@QGroupBox@@MAEXPAVQFocusEvent@@@Z 00435648     qt-mt323:qt-mt323.dll
 0005:0000064c       __imp_?focusInEvent@QLineEdit@@MAEXPAVQFocusEvent@@@Z 0043564c     qt-mt323:qt-mt323.dll
 0005:00000650       __imp_?focusInEvent@QListView@@MAEXPAVQFocusEvent@@@Z 00435650     qt-mt323:qt-mt323.dll
 0005:00000654       __imp_?focusInEvent@QPushButton@@MAEXPAVQFocusEvent@@@Z 00435654     qt-mt323:qt-mt323.dll
 0005:00000658       __imp_?focusNextPrevChild@QScrollView@@MAE_N_N@Z 00435658     qt-mt323:qt-mt323.dll
 0005:0000065c       __imp_?focusOutEvent@QLineEdit@@MAEXPAVQFocusEvent@@@Z 0043565c     qt-mt323:qt-mt323.dll
 0005:00000660       __imp_?focusOutEvent@QListView@@MAEXPAVQFocusEvent@@@Z 00435660     qt-mt323:qt-mt323.dll
 0005:00000664       __imp_?focusOutEvent@QPushButton@@MAEXPAVQFocusEvent@@@Z 00435664     qt-mt323:qt-mt323.dll
 0005:00000668       __imp_?fontChange@QGroupBox@@MAEXABVQFont@@@Z 00435668     qt-mt323:qt-mt323.dll
 0005:0000066c       __imp_?fontChange@QLabel@@MAEXABVQFont@@@Z 0043566c     qt-mt323:qt-mt323.dll
 0005:00000670       __imp_?fontChange@QScrollView@@MAEXABVQFont@@@Z 00435670     qt-mt323:qt-mt323.dll
 0005:00000674       __imp_?frameChanged@QFrame@@MAEXXZ 00435674     qt-mt323:qt-mt323.dll
 0005:00000678       __imp_?frameChanged@QScrollView@@MAEXXZ 00435678     qt-mt323:qt-mt323.dll
 0005:0000067c       __imp_?geometry@QLayout@@UBE?AVQRect@@XZ 0043567c     qt-mt323:qt-mt323.dll
 0005:00000680       __imp_?geometry@QSpacerItem@@UBE?AVQRect@@XZ 00435680     qt-mt323:qt-mt323.dll
 0005:00000684       __imp_?hasHeightForWidth@QBoxLayout@@UBE_NXZ 00435684     qt-mt323:qt-mt323.dll
 0005:00000688       __imp_?hasHeightForWidth@QLayoutItem@@UBE_NXZ 00435688     qt-mt323:qt-mt323.dll
 0005:0000068c       __imp_?heightForWidth@QBoxLayout@@UBEHH@Z 0043568c     qt-mt323:qt-mt323.dll
 0005:00000690       __imp_?heightForWidth@QLabel@@UBEHH@Z 00435690     qt-mt323:qt-mt323.dll
 0005:00000694       __imp_?heightForWidth@QLayoutItem@@UBEHH@Z 00435694     qt-mt323:qt-mt323.dll
 0005:00000698       __imp_?hide@QWidget@@UAEXXZ 00435698     qt-mt323:qt-mt323.dll
 0005:0000069c       __imp_?hitButton@QButton@@MBE_NABVQPoint@@@Z 0043569c     qt-mt323:qt-mt323.dll
 0005:000006a0       __imp_?imComposeEvent@QLineEdit@@MAEXPAVQIMEvent@@@Z 004356a0     qt-mt323:qt-mt323.dll
 0005:000006a4       __imp_?imEndEvent@QLineEdit@@MAEXPAVQIMEvent@@@Z 004356a4     qt-mt323:qt-mt323.dll
 0005:000006a8       __imp_?imStartEvent@QLineEdit@@MAEXPAVQIMEvent@@@Z 004356a8     qt-mt323:qt-mt323.dll
 0005:000006ac       __imp_?insert@QLineEdit@@UAEXABVQString@@@Z 004356ac     qt-mt323:qt-mt323.dll
 0005:000006b0       __imp_?insertItem@QListView@@UAEXPAVQListViewItem@@@Z 004356b0     qt-mt323:qt-mt323.dll
 0005:000006b4       __imp_?invalidate@QBoxLayout@@UAEXXZ 004356b4     qt-mt323:qt-mt323.dll
 0005:000006b8       __imp_?invalidate@QLayoutItem@@UAEXXZ 004356b8     qt-mt323:qt-mt323.dll
 0005:000006bc       __imp_?invertSelection@QListView@@UAEXXZ 004356bc     qt-mt323:qt-mt323.dll
 0005:000006c0       __imp_?isEmpty@QLayout@@UBE_NXZ 004356c0     qt-mt323:qt-mt323.dll
 0005:000006c4       __imp_?isEmpty@QSpacerItem@@UBE_NXZ 004356c4     qt-mt323:qt-mt323.dll
 0005:000006c8       __imp_?iterator@QBoxLayout@@UAE?AVQLayoutIterator@@XZ 004356c8     qt-mt323:qt-mt323.dll
 0005:000006cc       __imp_?iterator@QLayoutItem@@UAE?AVQLayoutIterator@@XZ 004356cc     qt-mt323:qt-mt323.dll
 0005:000006d0       __imp_?keyPressEvent@QButton@@MAEXPAVQKeyEvent@@@Z 004356d0     qt-mt323:qt-mt323.dll
 0005:000006d4       __imp_?keyPressEvent@QLineEdit@@MAEXPAVQKeyEvent@@@Z 004356d4     qt-mt323:qt-mt323.dll
 0005:000006d8       __imp_?keyPressEvent@QListView@@MAEXPAVQKeyEvent@@@Z 004356d8     qt-mt323:qt-mt323.dll
 0005:000006dc       __imp_?keyPressEvent@QWidget@@MAEXPAVQKeyEvent@@@Z 004356dc     qt-mt323:qt-mt323.dll
 0005:000006e0       __imp_?keyReleaseEvent@QButton@@MAEXPAVQKeyEvent@@@Z 004356e0     qt-mt323:qt-mt323.dll
 0005:000006e4       __imp_?layout@QLayout@@UAEPAV1@XZ 004356e4     qt-mt323:qt-mt323.dll
 0005:000006e8       __imp_?layout@QLayoutItem@@UAEPAVQLayout@@XZ 004356e8     qt-mt323:qt-mt323.dll
 0005:000006ec       __imp_?maximumSize@QBoxLayout@@UBE?AVQSize@@XZ 004356ec     qt-mt323:qt-mt323.dll
 0005:000006f0       __imp_?maximumSize@QSpacerItem@@UBE?AVQSize@@XZ 004356f0     qt-mt323:qt-mt323.dll
 0005:000006f4       __imp_?metaObject@QGroupBox@@UBEPAVQMetaObject@@XZ 004356f4     qt-mt323:qt-mt323.dll
 0005:000006f8       __imp_?metaObject@QHBoxLayout@@UBEPAVQMetaObject@@XZ 004356f8     qt-mt323:qt-mt323.dll
 0005:000006fc       __imp_?metaObject@QLabel@@UBEPAVQMetaObject@@XZ 004356fc     qt-mt323:qt-mt323.dll
 0005:00000700       __imp_?metaObject@QLineEdit@@UBEPAVQMetaObject@@XZ 00435700     qt-mt323:qt-mt323.dll
 0005:00000704       __imp_?metaObject@QListView@@UBEPAVQMetaObject@@XZ 00435704     qt-mt323:qt-mt323.dll
 0005:00000708       __imp_?metaObject@QPushButton@@UBEPAVQMetaObject@@XZ 00435708     qt-mt323:qt-mt323.dll
 0005:0000070c       __imp_?metaObject@QVBoxLayout@@UBEPAVQMetaObject@@XZ 0043570c     qt-mt323:qt-mt323.dll
 0005:00000710       __imp_?minimumSize@QBoxLayout@@UBE?AVQSize@@XZ 00435710     qt-mt323:qt-mt323.dll
 0005:00000714       __imp_?minimumSize@QSpacerItem@@UBE?AVQSize@@XZ 00435714     qt-mt323:qt-mt323.dll
 0005:00000718       __imp_?minimumSizeHint@QLabel@@UBE?AVQSize@@XZ 00435718     qt-mt323:qt-mt323.dll
 0005:0000071c       __imp_?minimumSizeHint@QLineEdit@@UBE?AVQSize@@XZ 0043571c     qt-mt323:qt-mt323.dll
 0005:00000720       __imp_?minimumSizeHint@QListView@@UBE?AVQSize@@XZ 00435720     qt-mt323:qt-mt323.dll
 0005:00000724       __imp_?minimumSizeHint@QWidget@@UBE?AVQSize@@XZ 00435724     qt-mt323:qt-mt323.dll
 0005:00000728       __imp_?mouseDoubleClickEvent@QLineEdit@@MAEXPAVQMouseEvent@@@Z 00435728     qt-mt323:qt-mt323.dll
 0005:0000072c       __imp_?mouseDoubleClickEvent@QScrollView@@MAEXPAVQMouseEvent@@@Z 0043572c     qt-mt323:qt-mt323.dll
 0005:00000730       __imp_?mouseMoveEvent@QButton@@MAEXPAVQMouseEvent@@@Z 00435730     qt-mt323:qt-mt323.dll
 0005:00000734       __imp_?mouseMoveEvent@QLineEdit@@MAEXPAVQMouseEvent@@@Z 00435734     qt-mt323:qt-mt323.dll
 0005:00000738       __imp_?mouseMoveEvent@QScrollView@@MAEXPAVQMouseEvent@@@Z 00435738     qt-mt323:qt-mt323.dll
 0005:0000073c       __imp_?mousePressEvent@QButton@@MAEXPAVQMouseEvent@@@Z 0043573c     qt-mt323:qt-mt323.dll
 0005:00000740       __imp_?mousePressEvent@QLineEdit@@MAEXPAVQMouseEvent@@@Z 00435740     qt-mt323:qt-mt323.dll
 0005:00000744       __imp_?mousePressEvent@QScrollView@@MAEXPAVQMouseEvent@@@Z 00435744     qt-mt323:qt-mt323.dll
 0005:00000748       __imp_?mouseReleaseEvent@QButton@@MAEXPAVQMouseEvent@@@Z 00435748     qt-mt323:qt-mt323.dll
 0005:0000074c       __imp_?mouseReleaseEvent@QLineEdit@@MAEXPAVQMouseEvent@@@Z 0043574c     qt-mt323:qt-mt323.dll
 0005:00000750       __imp_?mouseReleaseEvent@QScrollView@@MAEXPAVQMouseEvent@@@Z 00435750     qt-mt323:qt-mt323.dll
 0005:00000754       __imp_?move@QPushButton@@UAEXHH@Z 00435754     qt-mt323:qt-mt323.dll
 0005:00000758       __imp_?move@QWidget@@UAEXHH@Z 00435758     qt-mt323:qt-mt323.dll
 0005:0000075c       __imp_?moveChild@QScrollView@@UAEXPAVQWidget@@HH@Z 0043575c     qt-mt323:qt-mt323.dll
 0005:00000760       __imp_?paintEmptyArea@QListView@@MAEXPAVQPainter@@ABVQRect@@@Z 00435760     qt-mt323:qt-mt323.dll
 0005:00000764       __imp_?paintEvent@QButton@@MAEXPAVQPaintEvent@@@Z 00435764     qt-mt323:qt-mt323.dll
 0005:00000768       __imp_?paintEvent@QFrame@@MAEXPAVQPaintEvent@@@Z 00435768     qt-mt323:qt-mt323.dll
 0005:0000076c       __imp_?paintEvent@QGroupBox@@MAEXPAVQPaintEvent@@@Z 0043576c     qt-mt323:qt-mt323.dll
 0005:00000770       __imp_?paste@QLineEdit@@UAEXXZ 00435770     qt-mt323:qt-mt323.dll
 0005:00000774       __imp_?qt_cast@QGroupBox@@UAEPAXPBD@Z 00435774     qt-mt323:qt-mt323.dll
 0005:00000778       __imp_?qt_cast@QHBoxLayout@@UAEPAXPBD@Z 00435778     qt-mt323:qt-mt323.dll
 0005:0000077c       __imp_?qt_cast@QLabel@@UAEPAXPBD@Z 0043577c     qt-mt323:qt-mt323.dll
 0005:00000780       __imp_?qt_cast@QLineEdit@@UAEPAXPBD@Z 00435780     qt-mt323:qt-mt323.dll
 0005:00000784       __imp_?qt_cast@QListView@@UAEPAXPBD@Z 00435784     qt-mt323:qt-mt323.dll
 0005:00000788       __imp_?qt_cast@QPushButton@@UAEPAXPBD@Z 00435788     qt-mt323:qt-mt323.dll
 0005:0000078c       __imp_?qt_cast@QVBoxLayout@@UAEPAXPBD@Z 0043578c     qt-mt323:qt-mt323.dll
 0005:00000790       __imp_?qt_emit@QGroupBox@@UAE_NHPAUQUObject@@@Z 00435790     qt-mt323:qt-mt323.dll
 0005:00000794       __imp_?qt_emit@QHBoxLayout@@UAE_NHPAUQUObject@@@Z 00435794     qt-mt323:qt-mt323.dll
 0005:00000798       __imp_?qt_emit@QLabel@@UAE_NHPAUQUObject@@@Z 00435798     qt-mt323:qt-mt323.dll
 0005:0000079c       __imp_?qt_emit@QLineEdit@@UAE_NHPAUQUObject@@@Z 0043579c     qt-mt323:qt-mt323.dll
 0005:000007a0       __imp_?qt_emit@QListView@@UAE_NHPAUQUObject@@@Z 004357a0     qt-mt323:qt-mt323.dll
 0005:000007a4       __imp_?qt_emit@QPushButton@@UAE_NHPAUQUObject@@@Z 004357a4     qt-mt323:qt-mt323.dll
 0005:000007a8       __imp_?qt_emit@QVBoxLayout@@UAE_NHPAUQUObject@@@Z 004357a8     qt-mt323:qt-mt323.dll
 0005:000007ac       __imp_?qt_invoke@QGroupBox@@UAE_NHPAUQUObject@@@Z 004357ac     qt-mt323:qt-mt323.dll
 0005:000007b0       __imp_?qt_invoke@QHBoxLayout@@UAE_NHPAUQUObject@@@Z 004357b0     qt-mt323:qt-mt323.dll
 0005:000007b4       __imp_?qt_invoke@QLabel@@UAE_NHPAUQUObject@@@Z 004357b4     qt-mt323:qt-mt323.dll
 0005:000007b8       __imp_?qt_invoke@QLineEdit@@UAE_NHPAUQUObject@@@Z 004357b8     qt-mt323:qt-mt323.dll
 0005:000007bc       __imp_?qt_invoke@QListView@@UAE_NHPAUQUObject@@@Z 004357bc     qt-mt323:qt-mt323.dll
 0005:000007c0       __imp_?qt_invoke@QPushButton@@UAE_NHPAUQUObject@@@Z 004357c0     qt-mt323:qt-mt323.dll
 0005:000007c4       __imp_?qt_invoke@QVBoxLayout@@UAE_NHPAUQUObject@@@Z 004357c4     qt-mt323:qt-mt323.dll
 0005:000007c8       __imp_?qt_property@QGroupBox@@UAE_NHHPAVQVariant@@@Z 004357c8     qt-mt323:qt-mt323.dll
 0005:000007cc       __imp_?qt_property@QHBoxLayout@@UAE_NHHPAVQVariant@@@Z 004357cc     qt-mt323:qt-mt323.dll
 0005:000007d0       __imp_?qt_property@QLabel@@UAE_NHHPAVQVariant@@@Z 004357d0     qt-mt323:qt-mt323.dll
 0005:000007d4       __imp_?qt_property@QLineEdit@@UAE_NHHPAVQVariant@@@Z 004357d4     qt-mt323:qt-mt323.dll
 0005:000007d8       __imp_?qt_property@QListView@@UAE_NHHPAVQVariant@@@Z 004357d8     qt-mt323:qt-mt323.dll
 0005:000007dc       __imp_?qt_property@QPushButton@@UAE_NHHPAVQVariant@@@Z 004357dc     qt-mt323:qt-mt323.dll
 0005:000007e0       __imp_?qt_property@QVBoxLayout@@UAE_NHHPAVQVariant@@@Z 004357e0     qt-mt323:qt-mt323.dll
 0005:000007e4       __imp_?redo@QLineEdit@@UAEXXZ 004357e4     qt-mt323:qt-mt323.dll
 0005:000007e8       __imp_?removeChild@QScrollView@@UAEXPAVQObject@@@Z 004357e8     qt-mt323:qt-mt323.dll
 0005:000007ec       __imp_?removeColumn@QListView@@UAEXH@Z 004357ec     qt-mt323:qt-mt323.dll
 0005:000007f0       __imp_?removeItem@QListView@@UAEXPAVQListViewItem@@@Z 004357f0     qt-mt323:qt-mt323.dll
 0005:000007f4       __imp_?resize@QPushButton@@UAEXHH@Z 004357f4     qt-mt323:qt-mt323.dll
 0005:000007f8       __imp_?resize@QScrollView@@UAEXHH@Z 004357f8     qt-mt323:qt-mt323.dll
 0005:000007fc       __imp_?resize@QWidget@@UAEXHH@Z 004357fc     qt-mt323:qt-mt323.dll
 0005:00000800       __imp_?resizeContents@QScrollView@@UAEXHH@Z 00435800     qt-mt323:qt-mt323.dll
 0005:00000804       __imp_?resizeEvent@QGroupBox@@MAEXPAVQResizeEvent@@@Z 00435804     qt-mt323:qt-mt323.dll
 0005:00000808       __imp_?resizeEvent@QLabel@@MAEXPAVQResizeEvent@@@Z 00435808     qt-mt323:qt-mt323.dll
 0005:0000080c       __imp_?resizeEvent@QLineEdit@@MAEXPAVQResizeEvent@@@Z 0043580c     qt-mt323:qt-mt323.dll
 0005:00000810       __imp_?resizeEvent@QListView@@MAEXPAVQResizeEvent@@@Z 00435810     qt-mt323:qt-mt323.dll
 0005:00000814       __imp_?resizeEvent@QPushButton@@MAEXPAVQResizeEvent@@@Z 00435814     qt-mt323:qt-mt323.dll
 0005:00000818       __imp_?selectAll@QLineEdit@@UAEXXZ 00435818     qt-mt323:qt-mt323.dll
 0005:0000081c       __imp_?selectAll@QListView@@UAEX_N@Z 0043581c     qt-mt323:qt-mt323.dll
 0005:00000820       __imp_?setAccel@QButton@@UAEXABVQKeySequence@@@Z 00435820     qt-mt323:qt-mt323.dll
 0005:00000824       __imp_?setAlignment@QGroupBox@@UAEXH@Z 00435824     qt-mt323:qt-mt323.dll
 0005:00000828       __imp_?setAlignment@QLabel@@UAEXH@Z 00435828     qt-mt323:qt-mt323.dll
 0005:0000082c       __imp_?setAlignment@QLayoutItem@@UAEXH@Z 0043582c     qt-mt323:qt-mt323.dll
 0005:00000830       __imp_?setAlignment@QLineEdit@@UAEXH@Z 00435830     qt-mt323:qt-mt323.dll
 0005:00000834       __imp_?setAllColumnsShowFocus@QListView@@UAEX_N@Z 00435834     qt-mt323:qt-mt323.dll
 0005:00000838       __imp_?setAutoAdd@QLayout@@UAEX_N@Z 00435838     qt-mt323:qt-mt323.dll
 0005:0000083c       __imp_?setAutoDefault@QPushButton@@UAEX_N@Z 0043583c     qt-mt323:qt-mt323.dll
 0005:00000840       __imp_?setAutoRepeat@QButton@@UAEX_N@Z 00435840     qt-mt323:qt-mt323.dll
 0005:00000844       __imp_?setAutoResize@QLabel@@UAEX_N@Z 00435844     qt-mt323:qt-mt323.dll
 0005:00000848       __imp_?setBuddy@QLabel@@UAEXPAVQWidget@@@Z 00435848     qt-mt323:qt-mt323.dll
 0005:0000084c       __imp_?setColumnAlignment@QListView@@UAEXHH@Z 0043584c     qt-mt323:qt-mt323.dll
 0005:00000850       __imp_?setColumnLayout@QGroupBox@@UAEXHW4Orientation@Qt@@@Z 00435850     qt-mt323:qt-mt323.dll
 0005:00000854       __imp_?setColumnText@QListView@@UAEXHABVQIconSet@@ABVQString@@@Z 00435854     qt-mt323:qt-mt323.dll
 0005:00000858       __imp_?setColumnText@QListView@@UAEXHABVQString@@@Z 00435858     qt-mt323:qt-mt323.dll
 0005:0000085c       __imp_?setColumnWidth@QListView@@UAEXHH@Z 0043585c     qt-mt323:qt-mt323.dll
 0005:00000860       __imp_?setColumnWidthMode@QListView@@UAEXHW4WidthMode@1@@Z 00435860     qt-mt323:qt-mt323.dll
 0005:00000864       __imp_?setContentsPos@QListView@@UAEXHH@Z 00435864     qt-mt323:qt-mt323.dll
 0005:00000868       __imp_?setCornerWidget@QScrollView@@UAEXPAVQWidget@@@Z 00435868     qt-mt323:qt-mt323.dll
 0005:0000086c       __imp_?setCurrentItem@QListView@@UAEXPAVQListViewItem@@@Z 0043586c     qt-mt323:qt-mt323.dll
 0005:00000870       __imp_?setCursorPosition@QLineEdit@@UAEXH@Z 00435870     qt-mt323:qt-mt323.dll
 0005:00000874       __imp_?setDefault@QPushButton@@UAEX_N@Z 00435874     qt-mt323:qt-mt323.dll
 0005:00000878       __imp_?setDefaultRenameAction@QListView@@UAEXW4RenameAction@1@@Z 00435878     qt-mt323:qt-mt323.dll
 0005:0000087c       __imp_?setDown@QButton@@UAEX_N@Z 0043587c     qt-mt323:qt-mt323.dll
 0005:00000880       __imp_?setDragAutoScroll@QScrollView@@UAEX_N@Z 00435880     qt-mt323:qt-mt323.dll
 0005:00000884       __imp_?setDragEnabled@QLineEdit@@UAEX_N@Z 00435884     qt-mt323:qt-mt323.dll
 0005:00000888       __imp_?setEchoMode@QLineEdit@@UAEXW4EchoMode@1@@Z 00435888     qt-mt323:qt-mt323.dll
 0005:0000088c       __imp_?setEnabled@QGroupBox@@UAEX_N@Z 0043588c     qt-mt323:qt-mt323.dll
 0005:00000890       __imp_?setEnabled@QScrollView@@UAEX_N@Z 00435890     qt-mt323:qt-mt323.dll
 0005:00000894       __imp_?setFont@QLabel@@UAEXABVQFont@@@Z 00435894     qt-mt323:qt-mt323.dll
 0005:00000898       __imp_?setFont@QLineEdit@@UAEXABVQFont@@@Z 00435898     qt-mt323:qt-mt323.dll
 0005:0000089c       __imp_?setFont@QListView@@UAEXABVQFont@@@Z 0043589c     qt-mt323:qt-mt323.dll
 0005:000008a0       __imp_?setFrame@QLineEdit@@UAEX_N@Z 004358a0     qt-mt323:qt-mt323.dll
 0005:000008a4       __imp_?setFrameRect@QFrame@@UAEXABVQRect@@@Z 004358a4     qt-mt323:qt-mt323.dll
 0005:000008a8       __imp_?setFrameStyle@QFrame@@UAEXH@Z 004358a8     qt-mt323:qt-mt323.dll
 0005:000008ac       __imp_?setGeometry@QBoxLayout@@UAEXABVQRect@@@Z 004358ac     qt-mt323:qt-mt323.dll
 0005:000008b0       __imp_?setGeometry@QPushButton@@UAEXABVQRect@@@Z 004358b0     qt-mt323:qt-mt323.dll
 0005:000008b4       __imp_?setGeometry@QPushButton@@UAEXHHHH@Z 004358b4     qt-mt323:qt-mt323.dll
 0005:000008b8       __imp_?setGeometry@QSpacerItem@@UAEXABVQRect@@@Z 004358b8     qt-mt323:qt-mt323.dll
 0005:000008bc       __imp_?setGeometry@QWidget@@UAEXABVQRect@@@Z 004358bc     qt-mt323:qt-mt323.dll
 0005:000008c0       __imp_?setGeometry@QWidget@@UAEXHHHH@Z 004358c0     qt-mt323:qt-mt323.dll
 0005:000008c4       __imp_?setGroup@QButton@@EAEXPAVQButtonGroup@@@Z 004358c4     qt-mt323:qt-mt323.dll
 0005:000008c8       __imp_?setHBarGeometry@QScrollView@@MAEXAAVQScrollBar@@HHHH@Z 004358c8     qt-mt323:qt-mt323.dll
 0005:000008cc       __imp_?setHScrollBarMode@QScrollView@@UAEXW4ScrollBarMode@1@@Z 004358cc     qt-mt323:qt-mt323.dll
 0005:000008d0       __imp_?setIsMenuButton@QPushButton@@UAEX_N@Z 004358d0     qt-mt323:qt-mt323.dll
 0005:000008d4       __imp_?setItemMargin@QListView@@UAEXH@Z 004358d4     qt-mt323:qt-mt323.dll
 0005:000008d8       __imp_?setLineWidth@QFrame@@UAEXH@Z 004358d8     qt-mt323:qt-mt323.dll
 0005:000008dc       __imp_?setMargin@QFrame@@UAEXH@Z 004358dc     qt-mt323:qt-mt323.dll
 0005:000008e0       __imp_?setMargin@QLayout@@UAEXH@Z 004358e0     qt-mt323:qt-mt323.dll
 0005:000008e4       __imp_?setMargins@QScrollView@@MAEXHHHH@Z 004358e4     qt-mt323:qt-mt323.dll
 0005:000008e8       __imp_?setMaxLength@QLineEdit@@UAEXH@Z 004358e8     qt-mt323:qt-mt323.dll
 0005:000008ec       __imp_?setMenuBar@QLayout@@UAEXPAVQMenuBar@@@Z 004358ec     qt-mt323:qt-mt323.dll
 0005:000008f0       __imp_?setMidLineWidth@QFrame@@UAEXH@Z 004358f0     qt-mt323:qt-mt323.dll
 0005:000008f4       __imp_?setMovie@QLabel@@UAEXABVQMovie@@@Z 004358f4     qt-mt323:qt-mt323.dll
 0005:000008f8       __imp_?setMultiSelection@QListView@@UAEX_N@Z 004358f8     qt-mt323:qt-mt323.dll
 0005:000008fc       __imp_?setNum@QLabel@@UAEXH@Z 004358fc     qt-mt323:qt-mt323.dll
 0005:00000900       __imp_?setNum@QLabel@@UAEXN@Z 00435900     qt-mt323:qt-mt323.dll
 0005:00000904       __imp_?setOn@QPushButton@@UAEX_N@Z 00435904     qt-mt323:qt-mt323.dll
 0005:00000908       __imp_?setOpen@QListView@@UAEXPAVQListViewItem@@_N@Z 00435908     qt-mt323:qt-mt323.dll
 0005:0000090c       __imp_?setPalette@QLineEdit@@UAEXABVQPalette@@@Z 0043590c     qt-mt323:qt-mt323.dll
 0005:00000910       __imp_?setPalette@QListView@@UAEXABVQPalette@@@Z 00435910     qt-mt323:qt-mt323.dll
 0005:00000914       __imp_?setPicture@QLabel@@UAEXABVQPicture@@@Z 00435914     qt-mt323:qt-mt323.dll
 0005:00000918       __imp_?setPixmap@QButton@@UAEXABVQPixmap@@@Z 00435918     qt-mt323:qt-mt323.dll
 0005:0000091c       __imp_?setPixmap@QLabel@@UAEXABVQPixmap@@@Z 0043591c     qt-mt323:qt-mt323.dll
 0005:00000920       __imp_?setReadOnly@QLineEdit@@UAEX_N@Z 00435920     qt-mt323:qt-mt323.dll
 0005:00000924       __imp_?setResizeMode@QListView@@UAEXW4ResizeMode@1@@Z 00435924     qt-mt323:qt-mt323.dll
 0005:00000928       __imp_?setResizePolicy@QScrollView@@UAEXW4ResizePolicy@1@@Z 00435928     qt-mt323:qt-mt323.dll
 0005:0000092c       __imp_?setRootIsDecorated@QListView@@UAEX_N@Z 0043592c     qt-mt323:qt-mt323.dll
 0005:00000930       __imp_?setSelected@QListView@@UAEXPAVQListViewItem@@_N@Z 00435930     qt-mt323:qt-mt323.dll
 0005:00000934       __imp_?setSelection@QLineEdit@@UAEXHH@Z 00435934     qt-mt323:qt-mt323.dll
 0005:00000938       __imp_?setShowSortIndicator@QListView@@UAEX_N@Z 00435938     qt-mt323:qt-mt323.dll
 0005:0000093c       __imp_?setShowToolTips@QListView@@UAEX_N@Z 0043593c     qt-mt323:qt-mt323.dll
 0005:00000940       __imp_?setSorting@QListView@@UAEXH_N@Z 00435940     qt-mt323:qt-mt323.dll
 0005:00000944       __imp_?setSpacing@QLayout@@UAEXH@Z 00435944     qt-mt323:qt-mt323.dll
 0005:00000948       __imp_?setState@QButton@@MAEXW4ToggleState@1@@Z 00435948     qt-mt323:qt-mt323.dll
 0005:0000094c       __imp_?setText@QButton@@UAEXABVQString@@@Z 0043594c     qt-mt323:qt-mt323.dll
 0005:00000950       __imp_?setText@QLabel@@UAEXABVQString@@@Z 00435950     qt-mt323:qt-mt323.dll
 0005:00000954       __imp_?setText@QLineEdit@@UAEXABVQString@@@Z 00435954     qt-mt323:qt-mt323.dll
 0005:00000958       __imp_?setTitle@QGroupBox@@UAEXABVQString@@@Z 00435958     qt-mt323:qt-mt323.dll
 0005:0000095c       __imp_?setToggleType@QButton@@MAEXW4ToggleType@1@@Z 0043595c     qt-mt323:qt-mt323.dll
 0005:00000960       __imp_?setTreeStepSize@QListView@@UAEXH@Z 00435960     qt-mt323:qt-mt323.dll
 0005:00000964       __imp_?setVBarGeometry@QScrollView@@MAEXAAVQScrollBar@@HHHH@Z 00435964     qt-mt323:qt-mt323.dll
 0005:00000968       __imp_?setVScrollBarMode@QScrollView@@UAEXW4ScrollBarMode@1@@Z 00435968     qt-mt323:qt-mt323.dll
 0005:0000096c       __imp_?setValidator@QLineEdit@@UAEXPBVQValidator@@@Z 0043596c     qt-mt323:qt-mt323.dll
 0005:00000970       __imp_?show@QListView@@UAEXXZ 00435970     qt-mt323:qt-mt323.dll
 0005:00000974       __imp_?show@QWidget@@UAEXXZ 00435974     qt-mt323:qt-mt323.dll
 0005:00000978       __imp_?showEvent@QListView@@MAEXPAVQShowEvent@@@Z 00435978     qt-mt323:qt-mt323.dll
 0005:0000097c       __imp_?sizeHint@QBoxLayout@@UBE?AVQSize@@XZ 0043597c     qt-mt323:qt-mt323.dll
 0005:00000980       __imp_?sizeHint@QGroupBox@@UBE?AVQSize@@XZ 00435980     qt-mt323:qt-mt323.dll
 0005:00000984       __imp_?sizeHint@QLabel@@UBE?AVQSize@@XZ 00435984     qt-mt323:qt-mt323.dll
 0005:00000988       __imp_?sizeHint@QLineEdit@@UBE?AVQSize@@XZ 00435988     qt-mt323:qt-mt323.dll
 0005:0000098c       __imp_?sizeHint@QListView@@UBE?AVQSize@@XZ 0043598c     qt-mt323:qt-mt323.dll
 0005:00000990       __imp_?sizeHint@QPushButton@@UBE?AVQSize@@XZ 00435990     qt-mt323:qt-mt323.dll
 0005:00000994       __imp_?sizeHint@QSpacerItem@@UBE?AVQSize@@XZ 00435994     qt-mt323:qt-mt323.dll
 0005:00000998       __imp_?sort@QListView@@UAEXXZ 00435998     qt-mt323:qt-mt323.dll
 0005:0000099c       __imp_?spacerItem@QLayoutItem@@UAEPAVQSpacerItem@@XZ 0043599c     qt-mt323:qt-mt323.dll
 0005:000009a0       __imp_?spacerItem@QSpacerItem@@UAEPAV1@XZ 004359a0     qt-mt323:qt-mt323.dll
 0005:000009a4       __imp_?startDrag@QListView@@MAEXXZ 004359a4     qt-mt323:qt-mt323.dll
 0005:000009a8       __imp_?styleChange@QFrame@@MAEXAAVQStyle@@@Z 004359a8     qt-mt323:qt-mt323.dll
 0005:000009ac       __imp_?styleChange@QListView@@MAEXAAVQStyle@@@Z 004359ac     qt-mt323:qt-mt323.dll
 0005:000009b0       __imp_?takeItem@QListView@@UAEXPAVQListViewItem@@@Z 004359b0     qt-mt323:qt-mt323.dll
 0005:000009b4       __imp_?undo@QLineEdit@@UAEXXZ 004359b4     qt-mt323:qt-mt323.dll
 0005:000009b8       __imp_?updateMask@QPushButton@@MAEXXZ 004359b8     qt-mt323:qt-mt323.dll
 0005:000009bc       __imp_?viewportContextMenuEvent@QScrollView@@MAEXPAVQContextMenuEvent@@@Z 004359bc     qt-mt323:qt-mt323.dll
 0005:000009c0       __imp_?viewportDragEnterEvent@QScrollView@@MAEXPAVQDragEnterEvent@@@Z 004359c0     qt-mt323:qt-mt323.dll
 0005:000009c4       __imp_?viewportDragLeaveEvent@QScrollView@@MAEXPAVQDragLeaveEvent@@@Z 004359c4     qt-mt323:qt-mt323.dll
 0005:000009c8       __imp_?viewportDragMoveEvent@QScrollView@@MAEXPAVQDragMoveEvent@@@Z 004359c8     qt-mt323:qt-mt323.dll
 0005:000009cc       __imp_?viewportDropEvent@QScrollView@@MAEXPAVQDropEvent@@@Z 004359cc     qt-mt323:qt-mt323.dll
 0005:000009d0       __imp_?viewportMouseDoubleClickEvent@QScrollView@@MAEXPAVQMouseEvent@@@Z 004359d0     qt-mt323:qt-mt323.dll
 0005:000009d4       __imp_?viewportMouseMoveEvent@QScrollView@@MAEXPAVQMouseEvent@@@Z 004359d4     qt-mt323:qt-mt323.dll
 0005:000009d8       __imp_?viewportMousePressEvent@QScrollView@@MAEXPAVQMouseEvent@@@Z 004359d8     qt-mt323:qt-mt323.dll
 0005:000009dc       __imp_?viewportMouseReleaseEvent@QScrollView@@MAEXPAVQMouseEvent@@@Z 004359dc     qt-mt323:qt-mt323.dll
 0005:000009e0       __imp_?viewportPaintEvent@QScrollView@@MAEXPAVQPaintEvent@@@Z 004359e0     qt-mt323:qt-mt323.dll
 0005:000009e4       __imp_?viewportResizeEvent@QListView@@MAEXPAVQResizeEvent@@@Z 004359e4     qt-mt323:qt-mt323.dll
 0005:000009e8       __imp_?viewportWheelEvent@QScrollView@@MAEXPAVQWheelEvent@@@Z 004359e8     qt-mt323:qt-mt323.dll
 0005:000009ec       __imp_?wheelEvent@QScrollView@@MAEXPAVQWheelEvent@@@Z 004359ec     qt-mt323:qt-mt323.dll
 0005:000009f0       __imp_?widget@QLayoutItem@@UAEPAVQWidget@@XZ 004359f0     qt-mt323:qt-mt323.dll
 0005:000009f4       __imp_?windowActivationChange@QLineEdit@@MAEX_N@Z 004359f4     qt-mt323:qt-mt323.dll
 0005:000009f8       __imp_?windowActivationChange@QListView@@MAEX_N@Z 004359f8     qt-mt323:qt-mt323.dll
 0005:000009fc       __imp_?acceptDrop@QListViewItem@@UBE_NPBVQMimeSource@@@Z 004359fc     qt-mt323:qt-mt323.dll
 0005:00000a00       __imp_?cap@QRegExp@@QAE?AVQString@@H@Z 00435a00     qt-mt323:qt-mt323.dll
 0005:00000a04       __imp_?search@QRegExp@@QBEHABVQString@@H@Z 00435a04     qt-mt323:qt-mt323.dll
 0005:00000a08       __imp_??4QRegExp@@QAEAAV0@ABV0@@Z 00435a08     qt-mt323:qt-mt323.dll
 0005:00000a0c       __imp_??1QRegExp@@QAE@XZ   00435a0c     qt-mt323:qt-mt323.dll
 0005:00000a10       __imp_??0QRegExp@@QAE@ABVQString@@_N1@Z 00435a10     qt-mt323:qt-mt323.dll
 0005:00000a14       __imp_??1QPixmap@@UAE@XZ   00435a14     qt-mt323:qt-mt323.dll
 0005:00000a18       __imp_??0QPixmap@@QAE@QAPBD@Z 00435a18     qt-mt323:qt-mt323.dll
 0005:00000a1c       __imp_??1QProcess@@UAE@XZ  00435a1c     qt-mt323:qt-mt323.dll
 0005:00000a20       __imp_??0QProcess@@QAE@ABVQStringList@@PAVQObject@@PBD@Z 00435a20     qt-mt323:qt-mt323.dll
 0005:00000a24       __imp_?findItem@QListView@@QBEPAVQListViewItem@@ABVQString@@HI@Z 00435a24     qt-mt323:qt-mt323.dll
 0005:00000a28       __imp_?currentItem@QListView@@QBEPAVQListViewItem@@XZ 00435a28     qt-mt323:qt-mt323.dll
 0005:00000a2c       __imp_??1QListViewItem@@UAE@XZ 00435a2c     qt-mt323:qt-mt323.dll
 0005:00000a30       __imp_??0QListViewItem@@QAE@PAVQListView@@VQString@@1111111@Z 00435a30     qt-mt323:qt-mt323.dll
 0005:00000a34       __imp_?argv@QApplication@@QBEPAPADXZ 00435a34     qt-mt323:qt-mt323.dll
 0005:00000a38       __imp_?argc@QApplication@@QBEHXZ 00435a38     qt-mt323:qt-mt323.dll
 0005:00000a3c       __imp_?critical@QMessageBox@@SAHPAVQWidget@@ABVQString@@1111HH@Z 00435a3c     qt-mt323:qt-mt323.dll
 0005:00000a40       __imp_?information@QMessageBox@@SAHPAVQWidget@@ABVQString@@1111HH@Z 00435a40     qt-mt323:qt-mt323.dll
 0005:00000a44       __imp_?accept@QDialog@@MAEXXZ 00435a44     qt-mt323:qt-mt323.dll
 0005:00000a48       __imp_?setIcon@QWidget@@UAEXABVQPixmap@@@Z 00435a48     qt-mt323:qt-mt323.dll
 0005:00000a4c       __imp_??1QStringList@@QAE@XZ 00435a4c     qt-mt323:qt-mt323.dll
 0005:00000a50       __imp_?join@QStringList@@QBE?AVQString@@ABV2@@Z 00435a50     qt-mt323:qt-mt323.dll
 0005:00000a54       __imp_?split@QStringList@@SA?AV1@ABVQString@@0_N@Z 00435a54     qt-mt323:qt-mt323.dll
 0005:00000a58       __imp_??0QStringList@@QAE@ABV0@@Z 00435a58     qt-mt323:qt-mt323.dll
 0005:00000a5c       __imp_??0QStringList@@QAE@XZ 00435a5c     qt-mt323:qt-mt323.dll
 0005:00000a60       __imp_?connect@QObject@@SA_NPBV1@PBD01@Z 00435a60     qt-mt323:qt-mt323.dll
 0005:00000a64       __imp_?insert@?$QMap@VQString@@V1@@@QAE?AV?$QMapIterator@VQString@@V1@@@ABVQString@@0_N@Z 00435a64     qt-mt323:qt-mt323.dll
 0005:00000a68       __imp_?find@?$QMap@VQString@@V1@@@QAE?AV?$QMapIterator@VQString@@V1@@@ABVQString@@@Z 00435a68     qt-mt323:qt-mt323.dll
 0005:00000a6c       __imp_?size@?$QMap@VQString@@V1@@@QBEIXZ 00435a6c     qt-mt323:qt-mt323.dll
 0005:00000a70       __imp_?end@?$QMap@VQString@@V1@@@QAE?AV?$QMapIterator@VQString@@V1@@@XZ 00435a70     qt-mt323:qt-mt323.dll
 0005:00000a74       __imp_?begin@?$QMap@VQString@@V1@@@QAE?AV?$QMapIterator@VQString@@V1@@@XZ 00435a74     qt-mt323:qt-mt323.dll
 0005:00000a78       __imp_??1?$QMap@VQString@@V1@@@QAE@XZ 00435a78     qt-mt323:qt-mt323.dll
 0005:00000a7c       __imp_??0?$QMap@VQString@@V1@@@QAE@XZ 00435a7c     qt-mt323:qt-mt323.dll
 0005:00000a80       __imp_?count@?$QValueList@VQString@@@@QBEIXZ 00435a80     qt-mt323:qt-mt323.dll
 0005:00000a84       __imp_??A?$QValueList@VQString@@@@QAEAAVQString@@I@Z 00435a84     qt-mt323:qt-mt323.dll
 0005:00000a88       __imp_?append@?$QValueList@VQString@@@@QAE?AV?$QValueListIterator@VQString@@@@ABVQString@@@Z 00435a88     qt-mt323:qt-mt323.dll
 0005:00000a8c       __imp_??6?$QValueList@VQString@@@@QAEAAV0@ABVQString@@@Z 00435a8c     qt-mt323:qt-mt323.dll
 0005:00000a90       __imp_?endl@@YAAAVQTextStream@@AAV1@@Z 00435a90     qt-mt323:qt-mt323.dll
 0005:00000a94       __imp_??6@YAAAVQTextStream@@AAV0@P6AAAV0@0@Z@Z 00435a94     qt-mt323:qt-mt323.dll
 0005:00000a98       __imp_??6QTextStream@@QAEAAV0@ABVQString@@@Z 00435a98     qt-mt323:qt-mt323.dll
 0005:00000a9c       __imp_??6QTextStream@@QAEAAV0@PBD@Z 00435a9c     qt-mt323:qt-mt323.dll
 0005:00000aa0       __imp_??H@YA?BVQString@@PBDABV0@@Z 00435aa0     qt-mt323:qt-mt323.dll
 0005:00000aa4       __imp_??H@YA?BVQString@@ABV0@PBD@Z 00435aa4     qt-mt323:qt-mt323.dll
 0005:00000aa8       __imp_??H@YA?BVQString@@ABV0@0@Z 00435aa8     qt-mt323:qt-mt323.dll
 0005:00000aac       __imp_??8@YA_NABVQString@@PBD@Z 00435aac     qt-mt323:qt-mt323.dll
 0005:00000ab0       __imp_?startsWith@QString@@QBE_NABV1@@Z 00435ab0     qt-mt323:qt-mt323.dll
 0005:00000ab4       __imp_??BQString@@QBEPBDXZ 00435ab4     qt-mt323:qt-mt323.dll
 0005:00000ab8       __imp_??YQString@@QAEAAV0@ABV0@@Z 00435ab8     qt-mt323:qt-mt323.dll
 0005:00000abc       __imp_?number@QString@@SA?AV1@IH@Z 00435abc     qt-mt323:qt-mt323.dll
 0005:00000ac0       __imp_?number@QString@@SA?AV1@HH@Z 00435ac0     qt-mt323:qt-mt323.dll
 0005:00000ac4       __imp_?toInt@QString@@QBEHPA_NH@Z 00435ac4     qt-mt323:qt-mt323.dll
 0005:00000ac8       __imp_?remove@QString@@QAEAAV1@II@Z 00435ac8     qt-mt323:qt-mt323.dll
 0005:00000acc       __imp_?find@QString@@QBEHPBDH@Z 00435acc     qt-mt323:qt-mt323.dll
 0005:00000ad0       __imp_?find@QString@@QBEHABV1@H_N@Z 00435ad0     qt-mt323:qt-mt323.dll
 0005:00000ad4       __imp_?arg@QString@@QBE?AV1@ABV1@H@Z 00435ad4     qt-mt323:qt-mt323.dll
 0005:00000ad8       __imp_?arg@QString@@QBE?AV1@IHH@Z 00435ad8     qt-mt323:qt-mt323.dll
 0005:00000adc       __imp_?arg@QString@@QBE?AV1@HHH@Z 00435adc     qt-mt323:qt-mt323.dll
 0005:00000ae0       __imp_?arg@QString@@QBE?AV1@KHH@Z 00435ae0     qt-mt323:qt-mt323.dll
 0005:00000ae4       __imp_?length@QString@@QBEIXZ 00435ae4     qt-mt323:qt-mt323.dll
 0005:00000ae8       __imp_??4QString@@QAEAAV0@PBD@Z 00435ae8     qt-mt323:qt-mt323.dll
 0005:00000aec       __imp_??4QString@@QAEAAV0@ABV0@@Z 00435aec     qt-mt323:qt-mt323.dll
 0005:00000af0       __imp_??1QString@@QAE@XZ   00435af0     qt-mt323:qt-mt323.dll
 0005:00000af4       __imp_??0QString@@QAE@PBD@Z 00435af4     qt-mt323:qt-mt323.dll
 0005:00000af8       __imp_??0QString@@QAE@ABV?$QMemArray@D@@@Z 00435af8     qt-mt323:qt-mt323.dll
 0005:00000afc       __imp_??0QString@@QAE@ABV0@@Z 00435afc     qt-mt323:qt-mt323.dll
 0005:00000b00       __imp_??0QString@@QAE@XZ   00435b00     qt-mt323:qt-mt323.dll
 0005:00000b04       __imp_??1?$QMemArray@D@@UAE@XZ 00435b04     qt-mt323:qt-mt323.dll
 0005:00000b08       __imp_?deref@QShared@@QAE_NXZ 00435b08     qt-mt323:qt-mt323.dll
 0005:00000b0c       __imp_??0QShared@@QAE@XZ   00435b0c     qt-mt323:qt-mt323.dll
 0005:00000b10       __imp_?qWarning@@YAXPBDZZ  00435b10     qt-mt323:qt-mt323.dll
 0005:00000b14       __imp_?qDebug@@YAXPBDZZ    00435b14     qt-mt323:qt-mt323.dll
 0005:00000b18       __imp_?exec@QDialog@@QAEHXZ 00435b18     qt-mt323:qt-mt323.dll
 0005:00000b1c       __imp_?setMainWidget@QApplication@@UAEXPAVQWidget@@@Z 00435b1c     qt-mt323:qt-mt323.dll
 0005:00000b20       __imp_??1QApplication@@UAE@XZ 00435b20     qt-mt323:qt-mt323.dll
 0005:00000b24       __imp_?cut@QLineEdit@@UAEXXZ 00435b24     qt-mt323:qt-mt323.dll
 0005:00000b28       __imp_??0QApplication@@QAE@AAHPAPAD@Z 00435b28     qt-mt323:qt-mt323.dll
 0005:00000b2c       __imp_?deleteData@QGArray@@MAEXPAUarray_data@1@@Z 00435b2c     qt-mt323:qt-mt323.dll
 0005:00000b30       __imp_?newData@QGArray@@MAEPAUarray_data@1@XZ 00435b30     qt-mt323:qt-mt323.dll
 0005:00000b34       __imp_??1QGArray@@MAE@XZ   00435b34     qt-mt323:qt-mt323.dll
 0005:00000b38       __imp_?qWinMain@@YAXPAUHINSTANCE__@@0PADHAAHAAV?$QMemArray@PAD@@@Z 00435b38     qt-mt323:qt-mt323.dll
 0005:00000b3c       __imp_??0QGArray@@IAE@H@Z  00435b3c     qt-mt323:qt-mt323.dll
 0005:00000b40       __imp_?duplicate@QGArray@@IAEAAV1@ABV1@@Z 00435b40     qt-mt323:qt-mt323.dll
 0005:00000b44       __imp_??_7?$QMemArray@H@@6B@ 00435b44     qt-mt323:qt-mt323.dll
 0005:00000b48       __imp_??_7?$QMemArray@_N@@6B@ 00435b48     qt-mt323:qt-mt323.dll
 0005:00000b4c       __imp_??_7?$QMemArray@D@@6B@ 00435b4c     qt-mt323:qt-mt323.dll
 0005:00000b50       __imp_??_7?$QMemArray@VQPoint@@@@6B@ 00435b50     qt-mt323:qt-mt323.dll
 0005:00000b54       __imp_??1QGList@@MAE@XZ    00435b54     qt-mt323:qt-mt323.dll
 0005:00000b58       __imp_?clear@QGList@@MAEXXZ 00435b58     qt-mt323:qt-mt323.dll
 0005:00000b5c       __imp_??_7?$QPtrList@D@@6B@ 00435b5c     qt-mt323:qt-mt323.dll
 0005:00000b60       __imp_??_7?$QPtrList@VQObject@@@@6B@ 00435b60     qt-mt323:qt-mt323.dll
 0005:00000b64       __imp_??_7?$QPtrList@VQWidget@@@@6B@ 00435b64     qt-mt323:qt-mt323.dll
 0005:00000b68       \177qt-mt323_NULL_THUNK_DATA 00435b68     qt-mt323:qt-mt323.dll
 0005:00000d7c       __IMPORT_DESCRIPTOR_qt-mt323 00435d7c     qt-mt323:qt-mt323.dll
 0005:00000d90       __IMPORT_DESCRIPTOR_KERNEL32 00435d90     kernel32:KERNEL32.dll
 0005:00000da4       __IMPORT_DESCRIPTOR_ADVAPI32 00435da4     advapi32:ADVAPI32.dll
 0005:00000db8       __IMPORT_DESCRIPTOR_MSVCR120 00435db8     MSVCRT:MSVCR120.dll
 0005:00000dcc       __NULL_IMPORT_DESCRIPTOR   00435dcc     qt-mt323:qt-mt323.dll
