 slinkClient

 Timestamp is 5e9dbcb0 (Mon Apr 20 16:16:00 2020)

 Preferred load address is 00400000

 Start         Length     Name                   Class
 0001:00000000 000000f8H .text                   CODE
 0001:00000100 000000bbH .text$di                CODE
 0001:000001c0 00020614H .text$mn                CODE
 0001:000207e0 00003837H .text$x                 CODE
 0001:00024020 000000c2H .text$yd                CODE
 0002:00000000 00000bf8H .idata$5                DATA
 0002:00000bf8 00000004H .CRT$XCA                DATA
 0002:00000bfc 00000004H .CRT$XCAA               DATA
 0002:00000c00 00000024H .CRT$XCU                DATA
 0002:00000c24 00000004H .CRT$XCZ                DATA
 0002:00000c28 00000004H .CRT$XIA                DATA
 0002:00000c2c 00000004H .CRT$XIAA               DATA
 0002:00000c30 00000004H .CRT$XIC                DATA
 0002:00000c34 00000004H .CRT$XIY                DATA
 0002:00000c38 00000004H .CRT$XIZ                DATA
 0002:00000c40 00005dc0H .rdata                  DATA
 0002:00006a00 00001270H .rdata$r                DATA
 0002:00007c70 00000004H .rtc$IAA                DATA
 0002:00007c74 00000004H .rtc$IZZ                DATA
 0002:00007c78 00000004H .rtc$TAA                DATA
 0002:00007c7c 00000004H .rtc$TZZ                DATA
 0002:00007c80 0000338cH .xdata$x                DATA
 0002:0000b00c 00000000H .edata                  DATA
 0002:0000b00c 000000f0H .idata$2                DATA
 0002:0000b0fc 00000014H .idata$3                DATA
 0002:0000b110 00000bf8H .idata$4                DATA
 0002:0000bd08 00007d48H .idata$6                DATA
 0003:00000000 000005ccH .data                   DATA
 0003:000005cc 00000614H .data$r                 DATA
 0003:00000be0 00000628H .bss                    DATA
 0004:00000000 000001c0H .rsrc$01                DATA
 0004:000001c0 00008da8H .rsrc$02                DATA

  Address         Publics by Value              Rva+Base       Lib:Object

 0000:00000000       ___safe_se_handler_count   00000000     <absolute>
 0000:00000000       __except_list              00000000     <absolute>
 0000:00000000       ___guard_fids_table        00000000     <absolute>
 0000:00000000       ___guard_flags             00000000     <absolute>
 0000:00000000       ___safe_se_handler_table   00000000     <absolute>
 0000:00000000       ___guard_fids_count        00000000     <absolute>
 0000:00009876       __ldused                   00009876     <absolute>
 0000:00009876       __fltused                  00009876     <absolute>
 0000:00000000       ___ImageBase               00400000     <linker-defined>
 0001:00000000       _HtmlHelpA@16              00401000 f   htmlhelp:init.obj
 0001:000001c0       ??0cBncsVersion@@QAE@PBD@Z 004011c0 f   cBncsVersion.obj
 0001:000007e0       ??1cBncsVersion@@UAE@XZ    004017e0 f   cBncsVersion.obj
 0001:000008c0       ??_GcBncsVersion@@UAEPAXI@Z 004018c0 f i cBncsVersion.obj
 0001:000008c0       ??_EcBncsVersion@@UAEPAXI@Z 004018c0 f i cBncsVersion.obj
 0001:000008f0       ??0bncs_disklog@@QAE@PBDW4filetype@0@@Z 004018f0 f   bncs_disklog.obj
 0001:00000920       ??_Gbncs_disklog@@UAEPAXI@Z 00401920 f i bncs_disklog.obj
 0001:00000920       ??_Ebncs_disklog@@UAEPAXI@Z 00401920 f i bncs_disklog.obj
 0001:00000960       ?createDirectory@bncs_disklog@@AAEXPBD@Z 00401960 f   bncs_disklog.obj
 0001:00000a60       ?openLogFile@bncs_disklog@@AAEXPBDW4filetype@1@@Z 00401a60 f   bncs_disklog.obj
 0001:00000ca0       ?write@bncs_disklog@@QAEXPBD00000@Z 00401ca0 f   bncs_disklog.obj
 0001:00000ee0       ??$?HDU?$char_traits@D@std@@V?$allocator@D@1@@std@@YA?AV?$basic_string@DU?$char_traits@D@std@@V?$allocator@D@2@@0@$$QAV10@ABV10@@Z 00401ee0 f i ccCheck.obj
 0001:00000f60       ??$?HDU?$char_traits@D@std@@V?$allocator@D@1@@std@@YA?AV?$basic_string@DU?$char_traits@D@std@@V?$allocator@D@2@@0@$$QAV10@PBD@Z 00401f60 f i ccCheck.obj
 0001:00001000       ??$?HDU?$char_traits@D@std@@V?$allocator@D@1@@std@@YA?AV?$basic_string@DU?$char_traits@D@std@@V?$allocator@D@2@@0@ABV10@PBD@Z 00402000 f i ccCheck.obj
 0001:000010f0       ??$?HDU?$char_traits@D@std@@V?$allocator@D@1@@std@@YA?AV?$basic_string@DU?$char_traits@D@std@@V?$allocator@D@2@@0@PBDABV10@@Z 004020f0 f i ccCheck.obj
 0001:000011e0       ??0?$basic_string@DU?$char_traits@D@std@@V?$allocator@D@2@@std@@QAE@$$QAV01@@Z 004021e0 f i ccCheck.obj
 0001:00001250       ??0?$basic_string@DU?$char_traits@D@std@@V?$allocator@D@2@@std@@QAE@PBD@Z 00402250 f i ccCheck.obj
 0001:000012b0       ??0ccCheck@@QAE@ABV?$basic_string@DU?$char_traits@D@std@@V?$allocator@D@2@@std@@@Z 004022b0 f   ccCheck.obj
 0001:00001310       ??1?$basic_string@DU?$char_traits@D@std@@V?$allocator@D@2@@std@@QAE@XZ 00402310 f i ccCheck.obj
 0001:00001340       ??1ccCheck@@UAE@XZ         00402340 f   ccCheck.obj
 0001:00001370       ??_EccCheck@@UAEPAXI@Z     00402370 f i ccCheck.obj
 0001:00001370       ??_GccCheck@@UAEPAXI@Z     00402370 f i ccCheck.obj
 0001:000013c0       ??_E_System_error_category@std@@UAEPAXI@Z 004023c0 f i ccCheck.obj
 0001:000013c0       ??_Eerror_category@std@@UAEPAXI@Z 004023c0 f i ccCheck.obj
 0001:000013c0       ??_Gerror_category@std@@UAEPAXI@Z 004023c0 f i ccCheck.obj
 0001:000013c0       ??_E_Generic_error_category@std@@UAEPAXI@Z 004023c0 f i ccCheck.obj
 0001:000013c0       ??_G_System_error_category@std@@UAEPAXI@Z 004023c0 f i ccCheck.obj
 0001:000013c0       ??_G_Generic_error_category@std@@UAEPAXI@Z 004023c0 f i ccCheck.obj
 0001:000013c0       ??_E_Iostream_error_category@std@@UAEPAXI@Z 004023c0 f i ccCheck.obj
 0001:000013c0       ??_G_Iostream_error_category@std@@UAEPAXI@Z 004023c0 f i ccCheck.obj
 0001:000013f0       ?_Assign_rv@?$basic_string@DU?$char_traits@D@std@@V?$allocator@D@2@@std@@QAEX$$QAV12@@Z 004023f0 f i ccCheck.obj
 0001:00001450       ?_Copy@?$basic_string@DU?$char_traits@D@std@@V?$allocator@D@2@@std@@QAEXII@Z 00402450 f i ccCheck.obj
 0001:000015a0       ?_Grow@?$basic_string@DU?$char_traits@D@std@@V?$allocator@D@2@@std@@QAE_NI_N@Z 004025a0 f i ccCheck.obj
 0001:00001650       ?allocate@?$_Wrap_alloc@V?$allocator@D@std@@@std@@QAEPADI@Z 00402650 f i ccCheck.obj
 0001:00001680       ?append@?$basic_string@DU?$char_traits@D@std@@V?$allocator@D@2@@std@@QAEAAV12@ABV12@II@Z 00402680 f i ccCheck.obj
 0001:00001740       ?append@?$basic_string@DU?$char_traits@D@std@@V?$allocator@D@2@@std@@QAEAAV12@PBDI@Z 00402740 f i ccCheck.obj
 0001:00001830       ?assign@?$basic_string@DU?$char_traits@D@std@@V?$allocator@D@2@@std@@QAEAAV12@ABV12@II@Z 00402830 f i ccCheck.obj
 0001:00001950       ?assign@?$basic_string@DU?$char_traits@D@std@@V?$allocator@D@2@@std@@QAEAAV12@PBDI@Z 00402950 f i ccCheck.obj
 0001:00001a50       ?checkDatabase@ccCheck@@QAE_NII@Z 00402a50 f   ccCheck.obj
 0001:00001af0       ?checkDevice@ccCheck@@QAE_NI@Z 00402af0 f   ccCheck.obj
 0001:00001bd0       ?checkIndex@ccCheck@@QAE_NI@Z 00402bd0 f   ccCheck.obj
 0001:00001cb0       ?checkString@ccCheck@@QAE_NABV?$basic_string@DU?$char_traits@D@std@@V?$allocator@D@2@@std@@@Z 00402cb0 f   ccCheck.obj
 0001:00001d40       ?checkWorkstation@ccCheck@@QAE_NI@Z 00402d40 f   ccCheck.obj
 0001:00001e60       ?default_error_condition@_System_error_category@std@@UBE?AVerror_condition@2@H@Z 00402e60 f i ccCheck.obj
 0001:00001ea0       ?default_error_condition@error_category@std@@UBE?AVerror_condition@2@H@Z 00402ea0 f i ccCheck.obj
 0001:00001ec0       ?equivalent@error_category@std@@UBE_NABVerror_code@2@H@Z 00402ec0 f i ccCheck.obj
 0001:00001ee0       ?equivalent@error_category@std@@UBE_NHABVerror_condition@2@@Z 00402ee0 f i ccCheck.obj
 0001:00001f20       ?erase@?$basic_string@DU?$char_traits@D@std@@V?$allocator@D@2@@std@@QAEAAV12@II@Z 00402f20 f i ccCheck.obj
 0001:00001fc0       ?log@ccCheck@@QAEXABV?$basic_string@DU?$char_traits@D@std@@V?$allocator@D@2@@std@@@Z 00402fc0 f   ccCheck.obj
 0001:000020b0       ?message@_Generic_error_category@std@@UBE?AV?$basic_string@DU?$char_traits@D@std@@V?$allocator@D@2@@2@H@Z 004030b0 f i ccCheck.obj
 0001:00002130       ?message@_Iostream_error_category@std@@UBE?AV?$basic_string@DU?$char_traits@D@std@@V?$allocator@D@2@@2@H@Z 00403130 f i ccCheck.obj
 0001:00002180       ?message@_System_error_category@std@@UBE?AV?$basic_string@DU?$char_traits@D@std@@V?$allocator@D@2@@2@H@Z 00403180 f i ccCheck.obj
 0001:00002200       ?name@_Generic_error_category@std@@UBEPBDXZ 00403200 f i ccCheck.obj
 0001:00002210       ?name@_Iostream_error_category@std@@UBEPBDXZ 00403210 f i ccCheck.obj
 0001:00002220       ?name@_System_error_category@std@@UBEPBDXZ 00403220 f i ccCheck.obj
 0001:00002230       ?setMaxDatabase@ccCheck@@QAEXI@Z 00403230 f   ccCheck.obj
 0001:00002240       ?setMaxDevice@ccCheck@@QAEXI@Z 00403240 f   ccCheck.obj
 0001:00002250       ?setMaxIndex@ccCheck@@QAEXI@Z 00403250 f   ccCheck.obj
 0001:00002260       ?setMaxSource@ccCheck@@QAEXH@Z 00403260 f   ccCheck.obj
 0001:00002270       ?setMaxString@ccCheck@@QAEXI@Z 00403270 f   ccCheck.obj
 0001:00002290       ??0ccClient@@QAE@PAVIccClientCallback@@ABV?$basic_string@DU?$char_traits@D@std@@V?$allocator@D@2@@std@@@Z 00403290 f   ccClient.obj
 0001:00002480       ??1?$queue@V?$basic_string@DU?$char_traits@D@std@@V?$allocator@D@2@@std@@V?$deque@V?$basic_string@DU?$char_traits@D@std@@V?$allocator@D@2@@std@@V?$allocator@V?$basic_string@DU?$char_traits@D@std@@V?$allocator@D@2@@std@@@2@@2@@std@@QAE@XZ 00403480 f i ccClient.obj
 0001:000024a0       ??1ccClient@@UAE@XZ        004034a0 f   ccClient.obj
 0001:00002550       ??4?$basic_string@DU?$char_traits@D@std@@V?$allocator@D@2@@std@@QAEAAV01@PBD@Z 00403550 f i ccClient.obj
 0001:00002590       ??_GccClient@@UAEPAXI@Z    00403590 f i ccClient.obj
 0001:00002590       ??_EccClient@@UAEPAXI@Z    00403590 f i ccClient.obj
 0001:000025c0       ?WndProc@ccClient@@CGJPAUHWND__@@IIJ@Z 004035c0 f   ccClient.obj
 0001:00002f70       ?_Growmap@?$deque@V?$basic_string@DU?$char_traits@D@std@@V?$allocator@D@2@@std@@V?$allocator@V?$basic_string@DU?$char_traits@D@std@@V?$allocator@D@2@@std@@@2@@std@@IAEXI@Z 00403f70 f i ccClient.obj
 0001:000030f0       ?_Tidy@?$deque@V?$basic_string@DU?$char_traits@D@std@@V?$allocator@D@2@@std@@V?$allocator@V?$basic_string@DU?$char_traits@D@std@@V?$allocator@D@2@@std@@@2@@std@@IAEXXZ 004040f0 f i ccClient.obj
 0001:00003190       ?begin@?$deque@VccDriverPost@@V?$allocator@VccDriverPost@@@std@@@std@@QAE?AV?$_Deque_iterator@V?$_Deque_val@U?$_Deque_simple_types@VccDriverPost@@@std@@@std@@@2@XZ 00404190 f i ccDriver.obj
 0001:00003190       ?begin@?$deque@V?$basic_string@DU?$char_traits@D@std@@V?$allocator@D@2@@std@@V?$allocator@V?$basic_string@DU?$char_traits@D@std@@V?$allocator@D@2@@std@@@2@@std@@QAE?AV?$_Deque_iterator@V?$_Deque_val@U?$_Deque_simple_types@V?$basic_string@DU?$char_traits@D@std@@V?$allocator@D@2@@std@@@std@@@std@@@2@XZ 00404190 f i ccClient.obj
 0001:00003190       ?begin@?$deque@VccInfodriverPost@@V?$allocator@VccInfodriverPost@@@std@@@std@@QAE?AV?$_Deque_iterator@V?$_Deque_val@U?$_Deque_simple_types@VccInfodriverPost@@@std@@@std@@@2@XZ 00404190 f i ccInfodriver.obj
 0001:000031b0       ?connect@ccClient@@QAE_NW4ipcType@cc@@J@Z 004041b0 f   ccClient.obj
 0001:00003440       ?deviceProfile@ccClient@@QAEXHAAH00AAV?$basic_string@DU?$char_traits@D@std@@V?$allocator@D@2@@std@@@Z 00404440 f   ccClient.obj
 0001:000035e0       ?disconnect@ccClient@@QAE_NXZ 004045e0 f   ccClient.obj
 0001:00003640       ?push_back@?$deque@V?$basic_string@DU?$char_traits@D@std@@V?$allocator@D@2@@std@@V?$allocator@V?$basic_string@DU?$char_traits@D@std@@V?$allocator@D@2@@std@@@2@@std@@QAEX$$QAV?$basic_string@DU?$char_traits@D@std@@V?$allocator@D@2@@2@@Z 00404640 f i ccClient.obj
 0001:000036b0       ?push_back@?$deque@V?$basic_string@DU?$char_traits@D@std@@V?$allocator@D@2@@std@@V?$allocator@V?$basic_string@DU?$char_traits@D@std@@V?$allocator@D@2@@std@@@2@@std@@QAEXABV?$basic_string@DU?$char_traits@D@std@@V?$allocator@D@2@@2@@Z 004046b0 f i ccClient.obj
 0001:00003770       ??$?0V?$basic_string@DU?$char_traits@D@std@@V?$allocator@D@2@@std@@V01@X@?$pair@$$CBV?$basic_string@DU?$char_traits@D@std@@V?$allocator@D@2@@std@@V12@@std@@QAE@$$QAU?$pair@V?$basic_string@DU?$char_traits@D@std@@V?$allocator@D@2@@std@@V12@@1@@Z 00404770 f i ccConfig.obj
 0001:00003840       ??$_Buynode@U?$pair@V?$basic_string@DU?$char_traits@D@std@@V?$allocator@D@2@@std@@V12@@std@@@?$_Tree_buy@U?$pair@$$CBV?$basic_string@DU?$char_traits@D@std@@V?$allocator@D@2@@std@@V12@@std@@V?$allocator@U?$pair@$$CBV?$basic_string@DU?$char_traits@D@std@@V?$allocator@D@2@@std@@V12@@std@@@2@@std@@QAEPAU?$_Tree_node@U?$pair@$$CBV?$basic_string@DU?$char_traits@D@std@@V?$allocator@D@2@@std@@V12@@std@@PAX@1@$$QAU?$pair@V?$basic_string@DU?$char_traits@D@std@@V?$allocator@D@2@@std@@V12@@1@@Z 00404840 f i ccConfig.obj
 0001:00003870       ??$_Insert_at@AAU?$pair@$$CBV?$basic_string@DU?$char_traits@D@std@@V?$allocator@D@2@@std@@V12@@std@@PAU?$_Tree_node@U?$pair@$$CBV?$basic_string@DU?$char_traits@D@std@@V?$allocator@D@2@@std@@V12@@std@@PAX@2@@?$_Tree@V?$_Tmap_traits@V?$basic_string@DU?$char_traits@D@std@@V?$allocator@D@2@@std@@V12@U?$less@V?$basic_string@DU?$char_traits@D@std@@V?$allocator@D@2@@std@@@2@V?$allocator@U?$pair@$$CBV?$basic_string@DU?$char_traits@D@std@@V?$allocator@D@2@@std@@V12@@std@@@2@$0A@@std@@@std@@IAE?AV?$_Tree_iterator@V?$_Tree_val@U?$_Tree_simple_types@U?$pair@$$CBV?$basic_string@DU?$char_traits@D@std@@V?$allocator@D@2@@std@@V12@@std@@@std@@@std@@@1@_NPAU?$_Tree_node@U?$pair@$$CBV?$basic_string@DU?$char_traits@D@std@@V?$allocator@D@2@@std@@V12@@std@@PAX@1@AAU?$pair@$$CBV?$basic_string@DU?$char_traits@D@std@@V?$allocator@D@2@@std@@V12@@1@1@Z 00404870 f i ccConfig.obj
 0001:00003a80       ??$_Insert_nohint@AAU?$pair@$$CBV?$basic_string@DU?$char_traits@D@std@@V?$allocator@D@2@@std@@V12@@std@@PAU?$_Tree_node@U?$pair@$$CBV?$basic_string@DU?$char_traits@D@std@@V?$allocator@D@2@@std@@V12@@std@@PAX@2@@?$_Tree@V?$_Tmap_traits@V?$basic_string@DU?$char_traits@D@std@@V?$allocator@D@2@@std@@V12@U?$less@V?$basic_string@DU?$char_traits@D@std@@V?$allocator@D@2@@std@@@2@V?$allocator@U?$pair@$$CBV?$basic_string@DU?$char_traits@D@std@@V?$allocator@D@2@@std@@V12@@std@@@2@$0A@@std@@@std@@IAE?AU?$pair@V?$_Tree_iterator@V?$_Tree_val@U?$_Tree_simple_types@U?$pair@$$CBV?$basic_string@DU?$char_traits@D@std@@V?$allocator@D@2@@std@@V12@@std@@@std@@@std@@@std@@_N@1@_NAAU?$pair@$$CBV?$basic_string@DU?$char_traits@D@std@@V?$allocator@D@2@@std@@V12@@1@PAU?$_Tree_node@U?$pair@$$CBV?$basic_string@DU?$char_traits@D@std@@V?$allocator@D@2@@std@@V12@@std@@PAX@1@@Z 00404a80 f i ccConfig.obj
 0001:00003cf0       ??0ccConfig@@QAE@ABV?$basic_string@DU?$char_traits@D@std@@V?$allocator@D@2@@std@@0@Z 00404cf0 f   ccConfig.obj
 0001:00003e10       ??1?$map@V?$basic_string@DU?$char_traits@D@std@@V?$allocator@D@2@@std@@V12@U?$less@V?$basic_string@DU?$char_traits@D@std@@V?$allocator@D@2@@std@@@2@V?$allocator@U?$pair@$$CBV?$basic_string@DU?$char_traits@D@std@@V?$allocator@D@2@@std@@V12@@std@@@2@@std@@QAE@XZ 00404e10 f i ccConfig.obj
 0001:00003e40       ??1?$pair@V?$basic_string@DU?$char_traits@D@std@@V?$allocator@D@2@@std@@V12@@std@@QAE@XZ 00404e40 f i ccConfig.obj
 0001:00003e90       ??1ccConfig@@UAE@XZ        00404e90 f   ccConfig.obj
 0001:00003f10       ??_EccConfig@@UAEPAXI@Z    00404f10 f i ccConfig.obj
 0001:00003f10       ??_GccConfig@@UAEPAXI@Z    00404f10 f i ccConfig.obj
 0001:00003f40       ?_Buyheadnode@?$_Tree_alloc@$0A@U?$_Tree_base_types@U?$pair@$$CBV?$basic_string@DU?$char_traits@D@std@@V?$allocator@D@2@@std@@V12@@std@@V?$allocator@U?$pair@$$CBV?$basic_string@DU?$char_traits@D@std@@V?$allocator@D@2@@std@@V12@@std@@@2@@std@@@std@@QAEPAU?$_Tree_node@U?$pair@$$CBV?$basic_string@DU?$char_traits@D@std@@V?$allocator@D@2@@std@@V12@@std@@PAX@2@XZ 00404f40 f i ccConfig.obj
 0001:00003f70       ?_Buynode0@?$_Tree_buy@U?$pair@$$CBV?$basic_string@DU?$char_traits@D@std@@V?$allocator@D@2@@std@@V12@@std@@V?$allocator@U?$pair@$$CBV?$basic_string@DU?$char_traits@D@std@@V?$allocator@D@2@@std@@V12@@std@@@2@@std@@QAEPAU?$_Tree_node@U?$pair@$$CBV?$basic_string@DU?$char_traits@D@std@@V?$allocator@D@2@@std@@V12@@std@@PAX@2@XZ 00404f70 f i ccConfig.obj
 0001:00003fb0       ?_Destroy_if_not_nil@?$_Tree@V?$_Tmap_traits@V?$basic_string@DU?$char_traits@D@std@@V?$allocator@D@2@@std@@V12@U?$less@V?$basic_string@DU?$char_traits@D@std@@V?$allocator@D@2@@std@@@2@V?$allocator@U?$pair@$$CBV?$basic_string@DU?$char_traits@D@std@@V?$allocator@D@2@@std@@V12@@std@@@2@$0A@@std@@@std@@IAEXPAU?$_Tree_node@U?$pair@$$CBV?$basic_string@DU?$char_traits@D@std@@V?$allocator@D@2@@std@@V12@@std@@PAX@2@@Z 00404fb0 f i ccConfig.obj
 0001:00004010       ?_Erase@?$_Tree@V?$_Tmap_traits@V?$basic_string@DU?$char_traits@D@std@@V?$allocator@D@2@@std@@V12@U?$less@V?$basic_string@DU?$char_traits@D@std@@V?$allocator@D@2@@std@@@2@V?$allocator@U?$pair@$$CBV?$basic_string@DU?$char_traits@D@std@@V?$allocator@D@2@@std@@V12@@std@@@2@$0A@@std@@@std@@IAEXPAU?$_Tree_node@U?$pair@$$CBV?$basic_string@DU?$char_traits@D@std@@V?$allocator@D@2@@std@@V12@@std@@PAX@2@@Z 00405010 f i ccConfig.obj
 0001:00004090       ?buftolower@ccConfig@@CAPADPAD@Z 00405090 f   ccConfig.obj
 0001:000040e0       ?compare@?$basic_string@DU?$char_traits@D@std@@V?$allocator@D@2@@std@@QBEHIIPBDI@Z 004050e0 f i ccConfig.obj
 0001:00004150       ?compare@?$char_traits@D@std@@SAHPBD0I@Z 00405150 f i ccConfig.obj
 0001:000041c0       ?erase@?$_Tree@V?$_Tmap_traits@V?$basic_string@DU?$char_traits@D@std@@V?$allocator@D@2@@std@@V12@U?$less@V?$basic_string@DU?$char_traits@D@std@@V?$allocator@D@2@@std@@@2@V?$allocator@U?$pair@$$CBV?$basic_string@DU?$char_traits@D@std@@V?$allocator@D@2@@std@@V12@@std@@@2@$0A@@std@@@std@@QAE?AV?$_Tree_iterator@V?$_Tree_val@U?$_Tree_simple_types@U?$pair@$$CBV?$basic_string@DU?$char_traits@D@std@@V?$allocator@D@2@@std@@V12@@std@@@std@@@std@@@2@V?$_Tree_const_iterator@V?$_Tree_val@U?$_Tree_simple_types@U?$pair@$$CBV?$basic_string@DU?$char_traits@D@std@@V?$allocator@D@2@@std@@V12@@std@@@std@@@std@@@2@0@Z 004051c0 f i ccConfig.obj
 0001:00004280       ?erase@?$_Tree@V?$_Tmap_traits@V?$basic_string@DU?$char_traits@D@std@@V?$allocator@D@2@@std@@V12@U?$less@V?$basic_string@DU?$char_traits@D@std@@V?$allocator@D@2@@std@@@2@V?$allocator@U?$pair@$$CBV?$basic_string@DU?$char_traits@D@std@@V?$allocator@D@2@@std@@V12@@std@@@2@$0A@@std@@@std@@QAE?AV?$_Tree_iterator@V?$_Tree_val@U?$_Tree_simple_types@U?$pair@$$CBV?$basic_string@DU?$char_traits@D@std@@V?$allocator@D@2@@std@@V12@@std@@@std@@@std@@@2@V?$_Tree_const_iterator@V?$_Tree_val@U?$_Tree_simple_types@U?$pair@$$CBV?$basic_string@DU?$char_traits@D@std@@V?$allocator@D@2@@std@@V12@@std@@@std@@@std@@@2@@Z 00405280 f i ccConfig.obj
 0001:00004550       ?find@ccConfig@@AAE?AV?$_Tree_iterator@V?$_Tree_val@U?$_Tree_simple_types@U?$pair@$$CBV?$basic_string@DU?$char_traits@D@std@@V?$allocator@D@2@@std@@V12@@std@@@std@@@std@@@std@@ABV?$basic_string@DU?$char_traits@D@std@@V?$allocator@D@2@@3@@Z 00405550 f   ccConfig.obj
 0001:00004710       ?getDevPath@ccConfig@@SA?AV?$basic_string@DU?$char_traits@D@std@@V?$allocator@D@2@@std@@ABV23@@Z 00405710 f   ccConfig.obj
 0001:000047d0       ?getDevPath@ccConfig@@SA?AV?$basic_string@DU?$char_traits@D@std@@V?$allocator@D@2@@std@@XZ 004057d0 f   ccConfig.obj
 0001:000049e0       ?getInt@ccConfig@@QAEHABV?$basic_string@DU?$char_traits@D@std@@V?$allocator@D@2@@std@@H_N@Z 004059e0 f   ccConfig.obj
 0001:00004aa0       ?getInt@ccConfig@@SAHABV?$basic_string@DU?$char_traits@D@std@@V?$allocator@D@2@@std@@00H_N@Z 00405aa0 f   ccConfig.obj
 0001:00004bf0       ?getInt@ccConfig@@SAHHABV?$basic_string@DU?$char_traits@D@std@@V?$allocator@D@2@@std@@0H_N@Z 00405bf0 f   ccConfig.obj
 0001:00004d40       ?getString@ccConfig@@QAE?AV?$basic_string@DU?$char_traits@D@std@@V?$allocator@D@2@@std@@ABV23@0_N@Z 00405d40 f   ccConfig.obj
 0001:00004de0       ?getString@ccConfig@@SA?AV?$basic_string@DU?$char_traits@D@std@@V?$allocator@D@2@@std@@HABV23@00_N@Z 00405de0 f   ccConfig.obj
 0001:00005030       ?isV3Based@ccConfig@@SA_NXZ 00406030 f   ccConfig.obj
 0001:000050e0       ?readConfigSectionAbs@ccConfig@@CAXABV?$basic_string@DU?$char_traits@D@std@@V?$allocator@D@2@@std@@0AAV?$map@V?$basic_string@DU?$char_traits@D@std@@V?$allocator@D@2@@std@@V12@U?$less@V?$basic_string@DU?$char_traits@D@std@@V?$allocator@D@2@@std@@@2@V?$allocator@U?$pair@$$CBV?$basic_string@DU?$char_traits@D@std@@V?$allocator@D@2@@std@@V12@@std@@@2@@3@@Z 004060e0 f   ccConfig.obj
 0001:00005500       ?setString@ccConfig@@QAEXABV?$basic_string@DU?$char_traits@D@std@@V?$allocator@D@2@@std@@0@Z 00406500 f   ccConfig.obj
 0001:00005570       ?strtolower@ccConfig@@CA?AV?$basic_string@DU?$char_traits@D@std@@V?$allocator@D@2@@std@@ABV23@@Z 00406570 f   ccConfig.obj
 0001:00005660       ?workstation@ccConfig@@SAHXZ 00406660 f   ccConfig.obj
 0001:000059c0       ??0ccDriver@@QAE@PAVIccDriverCallback@@ABV?$basic_string@DU?$char_traits@D@std@@V?$allocator@D@2@@std@@@Z 004069c0 f   ccDriver.obj
 0001:00005bc0       ??0ccInfodriverPost@@QAE@HHABV?$basic_string@DU?$char_traits@D@std@@V?$allocator@D@2@@std@@@Z 00406bc0 f i ccInfodriver.obj
 0001:00005bc0       ??0ccDriverPost@@QAE@HHABV?$basic_string@DU?$char_traits@D@std@@V?$allocator@D@2@@std@@@Z 00406bc0 f i ccDriver.obj
 0001:00005c40       ??1?$queue@VccInfodriverPost@@V?$deque@VccInfodriverPost@@V?$allocator@VccInfodriverPost@@@std@@@std@@@std@@QAE@XZ 00406c40 f i ccInfodriver.obj
 0001:00005c40       ??1?$queue@VccDriverPost@@V?$deque@VccDriverPost@@V?$allocator@VccDriverPost@@@std@@@std@@@std@@QAE@XZ 00406c40 f i ccDriver.obj
 0001:00005c60       ??1ccDriver@@UAE@XZ        00406c60 f   ccDriver.obj
 0001:00005cd0       ??1ccDriverPost@@QAE@XZ    00406cd0 f i ccDriver.obj
 0001:00005cd0       ??1ccInfodriverPost@@QAE@XZ 00406cd0 f i ccInfodriver.obj
 0001:00005d00       ??_GccDriver@@UAEPAXI@Z    00406d00 f i ccDriver.obj
 0001:00005d00       ??_EccDriver@@UAEPAXI@Z    00406d00 f i ccDriver.obj
 0001:00005d30       ?BNCSSendMessage@ccDriver@@AAEJIIJHHH@Z 00406d30 f   ccDriver.obj
 0001:00005da0       ?WndProc@ccDriver@@CGJPAUHWND__@@IIJ@Z 00406da0 f   ccDriver.obj
 0001:000063e0       ?_Tidy@?$deque@VccInfodriverPost@@V?$allocator@VccInfodriverPost@@@std@@@std@@IAEXXZ 004073e0 f i ccInfodriver.obj
 0001:000063e0       ?_Tidy@?$deque@VccDriverPost@@V?$allocator@VccDriverPost@@@std@@@std@@IAEXXZ 004073e0 f i ccDriver.obj
 0001:00006480       ?clientMessage@ccDriver@@QAEXHHABV?$basic_string@DU?$char_traits@D@std@@V?$allocator@D@2@@std@@00@Z 00407480 f   ccDriver.obj
 0001:00006570       ?connect@ccDriver@@QAE_NHW4ipcType@cc@@J@Z 00407570 f   ccDriver.obj
 0001:000067d0       ?counters@ccDriver@@QAE_NAAI0@Z 004077d0 f   ccDriver.obj
 0001:00006830       ?device@ccDriver@@QAEHXZ   00407830 f   ccDriver.obj
 0001:00006840       ?disconnect@ccDriver@@QAE_NXZ 00407840 f   ccDriver.obj
 0001:000068d0       ?maxIndexes@ccDriver@@QAEIXZ 004078d0 f   ccDriver.obj
 0001:000068f0       ?pop@?$queue@VccDriverPost@@V?$deque@VccDriverPost@@V?$allocator@VccDriverPost@@@std@@@std@@@std@@QAEXXZ 004078f0 f i ccDriver.obj
 0001:000068f0       ?pop@?$queue@VccInfodriverPost@@V?$deque@VccInfodriverPost@@V?$allocator@VccInfodriverPost@@@std@@@std@@@std@@QAEXXZ 004078f0 f i ccInfodriver.obj
 0001:00006940       ?push_back@?$deque@VccInfodriverPost@@V?$allocator@VccInfodriverPost@@@std@@@std@@QAEX$$QAVccInfodriverPost@@@Z 00407940 f i ccInfodriver.obj
 0001:00006940       ?push_back@?$deque@VccDriverPost@@V?$allocator@VccDriverPost@@@std@@@std@@QAEX$$QAVccDriverPost@@@Z 00407940 f i ccDriver.obj
 0001:00006a10       ?redundancyState@ccDriver@@QAE?AW40cc@@XZ 00407a10 f   ccDriver.obj
 0001:00006a20       ?resetCounters@ccDriver@@QAEXXZ 00407a20 f   ccDriver.obj
 0001:00006a50       ?routerDatabase@ccDriver@@QAE_NHHHABV?$basic_string@DU?$char_traits@D@std@@V?$allocator@D@2@@std@@@Z 00407a50 f   ccDriver.obj
 0001:00006b20       ?sendPollResponse@ccDriver@@QAEXHPBD_N@Z 00407b20 f   ccDriver.obj
 0001:00006ba0       ?setDriverState@ccDriver@@QAEXW4driverState@cc@@_N@Z 00407ba0 f   ccDriver.obj
 0001:00006c40       ?setRedundancyMaster@ccDriver@@QAEII@Z 00407c40 f   ccDriver.obj
 0001:00006c80       ?setRedundancyState@ccDriver@@QAEXW4redundancyState@cc@@_N@Z 00407c80 f   ccDriver.obj
 0001:00006d10       ?setType@ccDriver@@QAE_ND@Z 00407d10 f   ccDriver.obj
 0001:00006d30       ?type@ccDriver@@QAEDXZ     00407d30 f   ccDriver.obj
 0001:00006d40       ??0ccInfodriver@@QAE@PAVIccInfodriverCallback@@ABV?$basic_string@DU?$char_traits@D@std@@V?$allocator@D@2@@std@@@Z 00407d40 f   ccInfodriver.obj
 0001:00006ef0       ??0ccDriverPost@@QAE@ABV0@@Z 00407ef0 f i ccDriver.obj
 0001:00006ef0       ??0ccInfodriverPost@@QAE@ABV0@@Z 00407ef0 f i ccInfodriver.obj
 0001:00006f30       ??1ccInfodriver@@UAE@XZ    00407f30 f   ccInfodriver.obj
 0001:00006fe0       ??_GccInfodriver@@UAEPAXI@Z 00407fe0 f i ccInfodriver.obj
 0001:00006fe0       ??_EccInfodriver@@UAEPAXI@Z 00407fe0 f i ccInfodriver.obj
 0001:00007010       ?WndProc@ccInfodriver@@CGJPAUHWND__@@IIJ@Z 00408010 f   ccInfodriver.obj
 0001:000074b0       ?_Growmap@?$deque@VccDriverPost@@V?$allocator@VccDriverPost@@@std@@@std@@IAEXI@Z 004084b0 f i ccDriver.obj
 0001:000074b0       ?_Growmap@?$deque@VccInfodriverPost@@V?$allocator@VccInfodriverPost@@@std@@@std@@IAEXI@Z 004084b0 f i ccInfodriver.obj
 0001:00007630       ?connect@ccInfodriver@@QAE_NHW4ipcType@cc@@J@Z 00408630 f   ccInfodriver.obj
 0001:00007850       ?disconnect@ccInfodriver@@QAE_NXZ 00408850 f   ccInfodriver.obj
 0001:000078b0       ?front@?$queue@VccDriverPost@@V?$deque@VccDriverPost@@V?$allocator@VccDriverPost@@@std@@@std@@@std@@QAEAAVccDriverPost@@XZ 004088b0 f i ccDriver.obj
 0001:000078b0       ?front@?$queue@VccInfodriverPost@@V?$deque@VccInfodriverPost@@V?$allocator@VccInfodriverPost@@@std@@@std@@@std@@QAEAAVccInfodriverPost@@XZ 004088b0 f i ccInfodriver.obj
 0001:000078f0       ?setRedundancyState@ccInfodriver@@QAEXW4redundancyState@cc@@_N@Z 004088f0 f   ccInfodriver.obj
 0001:00007970       ?setSlot@ccInfodriver@@QAE_NHABV?$basic_string@DU?$char_traits@D@std@@V?$allocator@D@2@@std@@_N@Z 00408970 f   ccInfodriver.obj
 0001:00007a50       ?slot@ccInfodriver@@QAE_NHAAV?$basic_string@DU?$char_traits@D@std@@V?$allocator@D@2@@std@@@Z 00408a50 f   ccInfodriver.obj
 0001:00007b40       ?updateSlot@ccInfodriver@@QAE_NHABV?$basic_string@DU?$char_traits@D@std@@V?$allocator@D@2@@std@@AA_N@Z 00408b40 f   ccInfodriver.obj
 0001:00007c20       ??$?0HV?$basic_string@DU?$char_traits@D@std@@V?$allocator@D@2@@std@@X@?$pair@$$CBHV?$basic_string@DU?$char_traits@D@std@@V?$allocator@D@2@@std@@@std@@QAE@$$QAU?$pair@HV?$basic_string@DU?$char_traits@D@std@@V?$allocator@D@2@@std@@@1@@Z 00408c20 f i database.obj
 0001:00007c90       ??$_Buynode@U?$pair@HV?$basic_string@DU?$char_traits@D@std@@V?$allocator@D@2@@std@@@std@@@?$_Tree_buy@U?$pair@$$CBHV?$basic_string@DU?$char_traits@D@std@@V?$allocator@D@2@@std@@@std@@V?$allocator@U?$pair@$$CBHV?$basic_string@DU?$char_traits@D@std@@V?$allocator@D@2@@std@@@std@@@2@@std@@QAEPAU?$_Tree_node@U?$pair@$$CBHV?$basic_string@DU?$char_traits@D@std@@V?$allocator@D@2@@std@@@std@@PAX@1@$$QAU?$pair@HV?$basic_string@DU?$char_traits@D@std@@V?$allocator@D@2@@std@@@1@@Z 00408c90 f i database.obj
 0001:00007cc0       ??$_Insert_at@AAU?$pair@$$CBHV?$basic_string@DU?$char_traits@D@std@@V?$allocator@D@2@@std@@@std@@PAU?$_Tree_node@U?$pair@$$CBHV?$basic_string@DU?$char_traits@D@std@@V?$allocator@D@2@@std@@@std@@PAX@2@@?$_Tree@V?$_Tmap_traits@HV?$basic_string@DU?$char_traits@D@std@@V?$allocator@D@2@@std@@U?$less@H@2@V?$allocator@U?$pair@$$CBHV?$basic_string@DU?$char_traits@D@std@@V?$allocator@D@2@@std@@@std@@@2@$0A@@std@@@std@@IAE?AV?$_Tree_iterator@V?$_Tree_val@U?$_Tree_simple_types@U?$pair@$$CBHV?$basic_string@DU?$char_traits@D@std@@V?$allocator@D@2@@std@@@std@@@std@@@std@@@1@_NPAU?$_Tree_node@U?$pair@$$CBHV?$basic_string@DU?$char_traits@D@std@@V?$allocator@D@2@@std@@@std@@PAX@1@AAU?$pair@$$CBHV?$basic_string@DU?$char_traits@D@std@@V?$allocator@D@2@@std@@@1@1@Z 00408cc0 f i database.obj
 0001:00007ef0       ??$_Insert_nohint@AAU?$pair@$$CBHV?$basic_string@DU?$char_traits@D@std@@V?$allocator@D@2@@std@@@std@@PAU?$_Tree_node@U?$pair@$$CBHV?$basic_string@DU?$char_traits@D@std@@V?$allocator@D@2@@std@@@std@@PAX@2@@?$_Tree@V?$_Tmap_traits@HV?$basic_string@DU?$char_traits@D@std@@V?$allocator@D@2@@std@@U?$less@H@2@V?$allocator@U?$pair@$$CBHV?$basic_string@DU?$char_traits@D@std@@V?$allocator@D@2@@std@@@std@@@2@$0A@@std@@@std@@IAE?AU?$pair@V?$_Tree_iterator@V?$_Tree_val@U?$_Tree_simple_types@U?$pair@$$CBHV?$basic_string@DU?$char_traits@D@std@@V?$allocator@D@2@@std@@@std@@@std@@@std@@@std@@_N@1@_NAAU?$pair@$$CBHV?$basic_string@DU?$char_traits@D@std@@V?$allocator@D@2@@std@@@1@PAU?$_Tree_node@U?$pair@$$CBHV?$basic_string@DU?$char_traits@D@std@@V?$allocator@D@2@@std@@@std@@PAX@1@@Z 00408ef0 f i database.obj
 0001:00008030       ??0database@@QAE@PBDHH@Z   00409030 f   database.obj
 0001:000080e0       ??1?$map@HV?$basic_string@DU?$char_traits@D@std@@V?$allocator@D@2@@std@@U?$less@H@2@V?$allocator@U?$pair@$$CBHV?$basic_string@DU?$char_traits@D@std@@V?$allocator@D@2@@std@@@std@@@2@@std@@QAE@XZ 004090e0 f i database.obj
 0001:00008110       ??1?$pair@HV?$basic_string@DU?$char_traits@D@std@@V?$allocator@D@2@@std@@@std@@QAE@XZ 00409110 f i database.obj
 0001:00008140       ??_Edatabase@@UAEPAXI@Z    00409140 f i database.obj
 0001:00008140       ??_Gdatabase@@UAEPAXI@Z    00409140 f i database.obj
 0001:000081b0       ?_Buyheadnode@?$_Tree_alloc@$0A@U?$_Tree_base_types@U?$pair@$$CBHV?$basic_string@DU?$char_traits@D@std@@V?$allocator@D@2@@std@@@std@@V?$allocator@U?$pair@$$CBHV?$basic_string@DU?$char_traits@D@std@@V?$allocator@D@2@@std@@@std@@@2@@std@@@std@@QAEPAU?$_Tree_node@U?$pair@$$CBHV?$basic_string@DU?$char_traits@D@std@@V?$allocator@D@2@@std@@@std@@PAX@2@XZ 004091b0 f i database.obj
 0001:000081e0       ?_Buynode0@?$_Tree_buy@U?$pair@$$CBHV?$basic_string@DU?$char_traits@D@std@@V?$allocator@D@2@@std@@@std@@V?$allocator@U?$pair@$$CBHV?$basic_string@DU?$char_traits@D@std@@V?$allocator@D@2@@std@@@std@@@2@@std@@QAEPAU?$_Tree_node@U?$pair@$$CBHV?$basic_string@DU?$char_traits@D@std@@V?$allocator@D@2@@std@@@std@@PAX@2@XZ 004091e0 f i database.obj
 0001:00008220       ?_Destroy_if_not_nil@?$_Tree@V?$_Tmap_traits@HV?$basic_string@DU?$char_traits@D@std@@V?$allocator@D@2@@std@@U?$less@H@2@V?$allocator@U?$pair@$$CBHV?$basic_string@DU?$char_traits@D@std@@V?$allocator@D@2@@std@@@std@@@2@$0A@@std@@@std@@IAEXPAU?$_Tree_node@U?$pair@$$CBHV?$basic_string@DU?$char_traits@D@std@@V?$allocator@D@2@@std@@@std@@PAX@2@@Z 00409220 f i database.obj
 0001:00008260       ?_Erase@?$_Tree@V?$_Tmap_traits@HV?$basic_string@DU?$char_traits@D@std@@V?$allocator@D@2@@std@@U?$less@H@2@V?$allocator@U?$pair@$$CBHV?$basic_string@DU?$char_traits@D@std@@V?$allocator@D@2@@std@@@std@@@2@$0A@@std@@@std@@IAEXPAU?$_Tree_node@U?$pair@$$CBHV?$basic_string@DU?$char_traits@D@std@@V?$allocator@D@2@@std@@@std@@PAX@2@@Z 00409260 f i database.obj
 0001:000082c0       ?_Rrotate@?$_Tree@V?$_Tmap_traits@IIU?$less@I@std@@V?$allocator@U?$pair@$$CBII@std@@@2@$0A@@std@@@std@@IAEXPAU?$_Tree_node@U?$pair@$$CBII@std@@PAX@2@@Z 004092c0 f i slinkclient.obj
 0001:000082c0       ?_Rrotate@?$_Tree@V?$_Tmap_traits@HV?$basic_string@DU?$char_traits@D@std@@V?$allocator@D@2@@std@@U?$less@H@2@V?$allocator@U?$pair@$$CBHV?$basic_string@DU?$char_traits@D@std@@V?$allocator@D@2@@std@@@std@@@2@$0A@@std@@@std@@IAEXPAU?$_Tree_node@U?$pair@$$CBHV?$basic_string@DU?$char_traits@D@std@@V?$allocator@D@2@@std@@@std@@PAX@2@@Z 004092c0 f i database.obj
 0001:000082c0       ?_Rrotate@?$_Tree@V?$_Tset_traits@IU?$less@I@std@@V?$allocator@I@2@$0A@@std@@@std@@IAEXPAU?$_Tree_node@IPAX@2@@Z 004092c0 f i slinkclient.obj
 0001:000082c0       ?_Rrotate@?$_Tree@V?$_Tmap_traits@IPAVccDriver@@U?$less@I@std@@V?$allocator@U?$pair@$$CBIPAVccDriver@@@std@@@3@$0A@@std@@@std@@IAEXPAU?$_Tree_node@U?$pair@$$CBIPAVccDriver@@@std@@PAX@2@@Z 004092c0 f i slinkclient.obj
 0001:000082c0       ?_Rrotate@?$_Tree@V?$_Tmap_traits@HPAVdatabase@@U?$less@H@std@@V?$allocator@U?$pair@$$CBHPAVdatabase@@@std@@@3@$0A@@std@@@std@@IAEXPAU?$_Tree_node@U?$pair@$$CBHPAVdatabase@@@std@@PAX@2@@Z 004092c0 f i databaseMgr.obj
 0001:000082c0       ?_Rrotate@?$_Tree@V?$_Tmap_traits@V?$basic_string@DU?$char_traits@D@std@@V?$allocator@D@2@@std@@V12@U?$less@V?$basic_string@DU?$char_traits@D@std@@V?$allocator@D@2@@std@@@2@V?$allocator@U?$pair@$$CBV?$basic_string@DU?$char_traits@D@std@@V?$allocator@D@2@@std@@V12@@std@@@2@$0A@@std@@@std@@IAEXPAU?$_Tree_node@U?$pair@$$CBV?$basic_string@DU?$char_traits@D@std@@V?$allocator@D@2@@std@@V12@@std@@PAX@2@@Z 004092c0 f i ccConfig.obj
 0001:000082c0       ?_Rrotate@?$_Tree@V?$_Tmap_traits@VQString@@V1@U?$less@VQString@@@std@@V?$allocator@U?$pair@$$CBVQString@@V1@@std@@@3@$0A@@std@@@std@@IAEXPAU?$_Tree_node@U?$pair@$$CBVQString@@V1@@std@@PAX@2@@Z 004092c0 f i netStatus.obj
 0001:00008320       ?dump@database@@QAE_NPBD@Z 00409320 f   database.obj
 0001:00008440       ?erase@?$_Tree@V?$_Tmap_traits@HV?$basic_string@DU?$char_traits@D@std@@V?$allocator@D@2@@std@@U?$less@H@2@V?$allocator@U?$pair@$$CBHV?$basic_string@DU?$char_traits@D@std@@V?$allocator@D@2@@std@@@std@@@2@$0A@@std@@@std@@QAE?AV?$_Tree_iterator@V?$_Tree_val@U?$_Tree_simple_types@U?$pair@$$CBHV?$basic_string@DU?$char_traits@D@std@@V?$allocator@D@2@@std@@@std@@@std@@@std@@@2@V?$_Tree_const_iterator@V?$_Tree_val@U?$_Tree_simple_types@U?$pair@$$CBHV?$basic_string@DU?$char_traits@D@std@@V?$allocator@D@2@@std@@@std@@@std@@@std@@@2@0@Z 00409440 f i database.obj
 0001:00008500       ?erase@?$_Tree@V?$_Tmap_traits@HV?$basic_string@DU?$char_traits@D@std@@V?$allocator@D@2@@std@@U?$less@H@2@V?$allocator@U?$pair@$$CBHV?$basic_string@DU?$char_traits@D@std@@V?$allocator@D@2@@std@@@std@@@2@$0A@@std@@@std@@QAE?AV?$_Tree_iterator@V?$_Tree_val@U?$_Tree_simple_types@U?$pair@$$CBHV?$basic_string@DU?$char_traits@D@std@@V?$allocator@D@2@@std@@@std@@@std@@@std@@@2@V?$_Tree_const_iterator@V?$_Tree_val@U?$_Tree_simple_types@U?$pair@$$CBHV?$basic_string@DU?$char_traits@D@std@@V?$allocator@D@2@@std@@@std@@@std@@@std@@@2@@Z 00409500 f i database.obj
 0001:000087b0       ?exists@database@@QAE_NH@Z 004097b0 f   database.obj
 0001:00008800       ?getName@database@@QAEPBDH@Z 00409800 f   database.obj
 0001:00008880       ?load@database@@AAEXPBDHH@Z 00409880 f   database.obj
 0001:00008da0       ?loadDump@database@@QAE_NPBD@Z 00409da0 f   database.obj
 0001:00008f60       ?setName@database@@QAE_NHPBD_NPA_N@Z 00409f60 f   database.obj
 0001:00009210       ??$_Buynode@U?$pair@IPAVccDriver@@@std@@@?$_Tree_buy@U?$pair@$$CBIPAVccDriver@@@std@@V?$allocator@U?$pair@$$CBIPAVccDriver@@@std@@@2@@std@@QAEPAU?$_Tree_node@U?$pair@$$CBIPAVccDriver@@@std@@PAX@1@$$QAU?$pair@IPAVccDriver@@@1@@Z 0040a210 f i slinkclient.obj
 0001:00009210       ??$_Buynode@U?$pair@HPAVdatabase@@@std@@@?$_Tree_buy@U?$pair@$$CBHPAVdatabase@@@std@@V?$allocator@U?$pair@$$CBHPAVdatabase@@@std@@@2@@std@@QAEPAU?$_Tree_node@U?$pair@$$CBHPAVdatabase@@@std@@PAX@1@$$QAU?$pair@HPAVdatabase@@@1@@Z 0040a210 f i databaseMgr.obj
 0001:00009210       ??$_Buynode@U?$pair@II@std@@@?$_Tree_buy@U?$pair@$$CBII@std@@V?$allocator@U?$pair@$$CBII@std@@@2@@std@@QAEPAU?$_Tree_node@U?$pair@$$CBII@std@@PAX@1@$$QAU?$pair@II@1@@Z 0040a210 f i slinkclient.obj
 0001:00009240       ??$_Insert_nohint@AAU?$pair@$$CBHPAVdatabase@@@std@@PAU?$_Tree_node@U?$pair@$$CBHPAVdatabase@@@std@@PAX@2@@?$_Tree@V?$_Tmap_traits@HPAVdatabase@@U?$less@H@std@@V?$allocator@U?$pair@$$CBHPAVdatabase@@@std@@@3@$0A@@std@@@std@@IAE?AU?$pair@V?$_Tree_iterator@V?$_Tree_val@U?$_Tree_simple_types@U?$pair@$$CBHPAVdatabase@@@std@@@std@@@std@@@std@@_N@1@_NAAU?$pair@$$CBHPAVdatabase@@@1@PAU?$_Tree_node@U?$pair@$$CBHPAVdatabase@@@std@@PAX@1@@Z 0040a240 f i databaseMgr.obj
 0001:00009360       ??0databaseMgr@@QAE@PBD@Z  0040a360 f   databaseMgr.obj
 0001:000093d0       ??0databaseMgr@@QAE@XZ     0040a3d0 f   databaseMgr.obj
 0001:000094c0       ??1databaseMgr@@UAE@XZ     0040a4c0 f   databaseMgr.obj
 0001:00009530       ??_EdatabaseMgr@@UAEPAXI@Z 0040a530 f i databaseMgr.obj
 0001:00009530       ??_GdatabaseMgr@@UAEPAXI@Z 0040a530 f i databaseMgr.obj
 0001:000095b0       ?_Buynode0@?$_Tree_buy@U?$pair@$$CBHPAVdatabase@@@std@@V?$allocator@U?$pair@$$CBHPAVdatabase@@@std@@@2@@std@@QAEPAU?$_Tree_node@U?$pair@$$CBHPAVdatabase@@@std@@PAX@2@XZ 0040a5b0 f i databaseMgr.obj
 0001:000095b0       ?_Buynode0@?$_Tree_buy@U?$pair@$$CBIPAVccDriver@@@std@@V?$allocator@U?$pair@$$CBIPAVccDriver@@@std@@@2@@std@@QAEPAU?$_Tree_node@U?$pair@$$CBIPAVccDriver@@@std@@PAX@2@XZ 0040a5b0 f i slinkclient.obj
 0001:000095b0       ?_Buynode0@?$_Tree_buy@U?$pair@$$CBVQString@@V1@@std@@V?$allocator@U?$pair@$$CBVQString@@V1@@std@@@2@@std@@QAEPAU?$_Tree_node@U?$pair@$$CBVQString@@V1@@std@@PAX@2@XZ 0040a5b0 f i netStatus.obj
 0001:000095b0       ?_Buynode0@?$_Tree_buy@U?$pair@$$CBII@std@@V?$allocator@U?$pair@$$CBII@std@@@2@@std@@QAEPAU?$_Tree_node@U?$pair@$$CBII@std@@PAX@2@XZ 0040a5b0 f i slinkclient.obj
 0001:000095f0       ?_Lrotate@?$_Tree@V?$_Tmap_traits@IPAVccDriver@@U?$less@I@std@@V?$allocator@U?$pair@$$CBIPAVccDriver@@@std@@@3@$0A@@std@@@std@@IAEXPAU?$_Tree_node@U?$pair@$$CBIPAVccDriver@@@std@@PAX@2@@Z 0040a5f0 f i slinkclient.obj
 0001:000095f0       ?_Lrotate@?$_Tree@V?$_Tset_traits@IU?$less@I@std@@V?$allocator@I@2@$0A@@std@@@std@@IAEXPAU?$_Tree_node@IPAX@2@@Z 0040a5f0 f i slinkclient.obj
 0001:000095f0       ?_Lrotate@?$_Tree@V?$_Tmap_traits@HV?$basic_string@DU?$char_traits@D@std@@V?$allocator@D@2@@std@@U?$less@H@2@V?$allocator@U?$pair@$$CBHV?$basic_string@DU?$char_traits@D@std@@V?$allocator@D@2@@std@@@std@@@2@$0A@@std@@@std@@IAEXPAU?$_Tree_node@U?$pair@$$CBHV?$basic_string@DU?$char_traits@D@std@@V?$allocator@D@2@@std@@@std@@PAX@2@@Z 0040a5f0 f i database.obj
 0001:000095f0       ?_Lrotate@?$_Tree@V?$_Tmap_traits@HPAVdatabase@@U?$less@H@std@@V?$allocator@U?$pair@$$CBHPAVdatabase@@@std@@@3@$0A@@std@@@std@@IAEXPAU?$_Tree_node@U?$pair@$$CBHPAVdatabase@@@std@@PAX@2@@Z 0040a5f0 f i databaseMgr.obj
 0001:000095f0       ?_Lrotate@?$_Tree@V?$_Tmap_traits@IIU?$less@I@std@@V?$allocator@U?$pair@$$CBII@std@@@2@$0A@@std@@@std@@IAEXPAU?$_Tree_node@U?$pair@$$CBII@std@@PAX@2@@Z 0040a5f0 f i slinkclient.obj
 0001:000095f0       ?_Lrotate@?$_Tree@V?$_Tmap_traits@V?$basic_string@DU?$char_traits@D@std@@V?$allocator@D@2@@std@@V12@U?$less@V?$basic_string@DU?$char_traits@D@std@@V?$allocator@D@2@@std@@@2@V?$allocator@U?$pair@$$CBV?$basic_string@DU?$char_traits@D@std@@V?$allocator@D@2@@std@@V12@@std@@@2@$0A@@std@@@std@@IAEXPAU?$_Tree_node@U?$pair@$$CBV?$basic_string@DU?$char_traits@D@std@@V?$allocator@D@2@@std@@V12@@std@@PAX@2@@Z 0040a5f0 f i ccConfig.obj
 0001:000095f0       ?_Lrotate@?$_Tree@V?$_Tmap_traits@VQString@@V1@U?$less@VQString@@@std@@V?$allocator@U?$pair@$$CBVQString@@V1@@std@@@3@$0A@@std@@@std@@IAEXPAU?$_Tree_node@U?$pair@$$CBVQString@@V1@@std@@PAX@2@@Z 0040a5f0 f i netStatus.obj
 0001:00009650       ?clear@databaseMgr@@QAEXH@Z 0040a650 f   databaseMgr.obj
 0001:00009790       ?createDatabase@databaseMgr@@QAE_NPBDHHHHHHHHHHH@Z 0040a790 f   databaseMgr.obj
 0001:00009a00       ?dump@databaseMgr@@QAE_NXZ 0040aa00 f   databaseMgr.obj
 0001:00009b40       ?exists@databaseMgr@@QAE_NHHHH@Z 0040ab40 f   databaseMgr.obj
 0001:00009ba0       ?getDatabaseObject@databaseMgr@@AAEPAVdatabase@@HH_N@Z 0040aba0 f i databaseMgr.obj
 0001:00009cc0       ?getName@databaseMgr@@QAEPBDHHH@Z 0040acc0 f   databaseMgr.obj
 0001:00009d00       ?loadDump@databaseMgr@@QAE_NHH@Z 0040ad00 f   databaseMgr.obj
 0001:00009e10       ?setName@databaseMgr@@QAE_NHHHPBD_NPA_N@Z 0040ae10 f   databaseMgr.obj
 0001:00009e50       ?setPath@databaseMgr@@QAEXPBD@Z 0040ae50 f   databaseMgr.obj
 0001:00009ec0       ??0decodeBNCSString@@QAE@PBDD@Z 0040aec0 f   decodeBNCSString.obj
 0001:00009ef0       ??1decodeBNCSString@@UAE@XZ 0040aef0 f   decodeBNCSString.obj
 0001:00009f10       ??_GdecodeBNCSString@@UAEPAXI@Z 0040af10 f i decodeBNCSString.obj
 0001:00009f10       ??_EdecodeBNCSString@@UAEPAXI@Z 0040af10 f i decodeBNCSString.obj
 0001:00009f50       ?split@decodeBNCSString@@AAEXPBD@Z 0040af50 f i decodeBNCSString.obj
 0001:0000a180       ??H@YA?BVQString@@ABV0@0@Z 0040b180 f i appGlobal.obj
 0001:0000a1f0       ??H@YA?BVQString@@ABV0@PBD@Z 0040b1f0 f i appGlobal.obj
 0001:0000a280       ??H@YA?BVQString@@PBDABV0@@Z 0040b280 f i appGlobal.obj
 0001:0000a2f0       ?clearLog@appGlobal@@SAXXZ 0040b2f0 f   appGlobal.obj
 0001:0000a310       ?configFilename@appGlobal@@SA?AVQString@@XZ 0040b310 f   appGlobal.obj
 0001:0000a3e0       ?log@appGlobal@@SAXABVQString@@@Z 0040b3e0 f   appGlobal.obj
 0001:0000a500       ?logError@appGlobal@@SAXABVQString@@@Z 0040b500 f   appGlobal.obj
 0001:0000a660       ?profile@appGlobal@@SA?AVQString@@XZ 0040b660 f   appGlobal.obj
 0001:0000a6b0       ?setLog@appGlobal@@SAXPAVQTextEdit@@H@Z 0040b6b0 f   appGlobal.obj
 0001:0000a7f0       ?setProfile@appGlobal@@SAXABVQString@@@Z 0040b7f0 f   appGlobal.obj
 0001:0000a810       ??0fabianClient@@QAE@PAVQObject@@PAVIfabianClient_callback@@ABVQString@@I2I_N@Z 0040b810 f   fabianClient.obj
 0001:0000a9a0       ??_GfabianClient@@UAEPAXI@Z 0040b9a0 f i fabianClient.obj
 0001:0000a9a0       ??_EfabianClient@@UAEPAXI@Z 0040b9a0 f i fabianClient.obj
 0001:0000aa40       ?bufParse@fabianClient@@AAEHPADH@Z 0040ba40 f   fabianClient.obj
 0001:0000ab40       ?counters@fabianClient@@QAE_NAAI0@Z 0040bb40 f   fabianClient.obj
 0001:0000ab80       ?databaseChange@fabianClient@@QAEXIIIABVQString@@_NI@Z 0040bb80 f   fabianClient.obj
 0001:0000ab90       ?deviceProfile@fabianClient@@QAEXI@Z 0040bb90 f   fabianClient.obj
 0001:0000ac40       ?gpiLock@fabianClient@@QAEXIII_N@Z 0040bc40 f   fabianClient.obj
 0001:0000ad90       ?gpiPoll@fabianClient@@QAEXIII@Z 0040bd90 f   fabianClient.obj
 0001:0000aeb0       ?gpiSwitch@fabianClient@@QAEXII_N@Z 0040beb0 f   fabianClient.obj
 0001:0000afd0       ?infoLock@fabianClient@@QAEXIII_N@Z 0040bfd0 f   fabianClient.obj
 0001:0000b120       ?infoPoll@fabianClient@@QAEXIII@Z 0040c120 f   fabianClient.obj
 0001:0000b240       ?infoWrite@fabianClient@@QAEXIIABVQString@@@Z 0040c240 f   fabianClient.obj
 0001:0000b350       ?lineParse@fabianClient@@AAEXABVQString@@@Z 0040c350 f   fabianClient.obj
 0001:0000c200       ?peerAddress@fabianClient@@QAE?AVQString@@XZ 0040d200 f   fabianClient.obj
 0001:0000c2a0       ?peerName@fabianClient@@QAE?AVQString@@XZ 0040d2a0 f   fabianClient.obj
 0001:0000c2e0       ?peerPort@fabianClient@@QAEHXZ 0040d2e0 f   fabianClient.obj
 0001:0000c2f0       ?resetCounters@fabianClient@@QAEXXZ 0040d2f0 f   fabianClient.obj
 0001:0000c310       ?revertiveDeregister@fabianClient@@QAEXI@Z 0040d310 f   fabianClient.obj
 0001:0000c3c0       ?revertiveRegister@fabianClient@@QAEXIII@Z 0040d3c0 f   fabianClient.obj
 0001:0000c4e0       ?rtrCrosspoint@fabianClient@@QAEXIIHABVQString@@@Z 0040d4e0 f   fabianClient.obj
 0001:0000c630       ?rtrLock@fabianClient@@QAEXIII_N@Z 0040d630 f   fabianClient.obj
 0001:0000c780       ?rtrModify@fabianClient@@QAEXIIIABVQString@@_NI@Z 0040d780 f   fabianClient.obj
 0001:0000c8d0       ?rtrPoll@fabianClient@@QAEXIII@Z 0040d8d0 f   fabianClient.obj
 0001:0000c9f0       ?socketDisconnected@fabianClient@@AAEXXZ 0040d9f0 f   fabianClient.obj
 0001:0000ca00       ?socketReadyRead@fabianClient@@AAEXXZ 0040da00 f   fabianClient.obj
 0001:0000cb30       ?timerEvent@fabianClient@@MAEXPAVQTimerEvent@@@Z 0040db30 f   fabianClient.obj
 0001:0000cba0       ?useAlt@fabianClient@@QAE_NXZ 0040dba0 f   fabianClient.obj
 0001:0000cbb0       ?write@fabianClient@@AAEXABVQString@@@Z 0040dbb0 f   fabianClient.obj
 0001:0000ccd0       ?metaObject@fabianClient@@UBEPBUQMetaObject@@XZ 0040dcd0 f   moc_fabianClient.obj
 0001:0000ccf0       ?qt_metacall@fabianClient@@UAEHW4Call@QMetaObject@@HPAPAX@Z 0040dcf0 f   moc_fabianClient.obj
 0001:0000cd70       ?qt_metacast@fabianClient@@UAEPAXPBD@Z 0040dd70 f   moc_fabianClient.obj
 0001:0000cdd0       ?qt_static_metacall@fabianClient@@CAXPAVQObject@@W4Call@QMetaObject@@HPAPAX@Z 0040ddd0 f   moc_fabianClient.obj
 0001:0000ce00       ??0?$QList@VQSslError@@@@QAE@ABV0@@Z 0040de00 f i moc_persistentSocket.obj
 0001:0000cec0       ??1?$QList@VQSslError@@@@QAE@XZ 0040dec0 f i moc_persistentSocket.obj
 0001:0000cf30       ?Construct@?$QMetaTypeFunctionHelper@V?$QList@VQSslError@@@@$00@QtMetaTypePrivate@@SAPAXPAXPBX@Z 0040df30 f i moc_persistentSocket.obj
 0001:0000cfc0       ?Construct@?$QMetaTypeFunctionHelper@W4SocketError@QAbstractSocket@@$00@QtMetaTypePrivate@@SAPAXPAXPBX@Z 0040dfc0 f i moc_persistentSocket.obj
 0001:0000cff0       ?Destruct@?$QMetaTypeFunctionHelper@V?$QList@VQSslError@@@@$00@QtMetaTypePrivate@@SAXPAX@Z 0040dff0 f i moc_persistentSocket.obj
 0001:0000d000       ?disconnected@persistentSocket@@QAEXXZ 0040e000 f   moc_persistentSocket.obj
 0001:0000d020       ?metaObject@persistentSocket@@UBEPBUQMetaObject@@XZ 0040e020 f   moc_persistentSocket.obj
 0001:0000d040       ?node_copy@?$QList@VQSslError@@@@AAEXPAUNode@1@00@Z 0040e040 f i moc_persistentSocket.obj
 0001:0000d0e0       ?qt_metacall@persistentSocket@@UAEHW4Call@QMetaObject@@HPAPAX@Z 0040e0e0 f   moc_persistentSocket.obj
 0001:0000d140       ?qt_metacast@persistentSocket@@UAEPAXPBD@Z 0040e140 f   moc_persistentSocket.obj
 0001:0000d1a0       ?qt_metatype_id@?$QMetaTypeId@V?$QList@VQSslError@@@@@@SAHXZ 0040e1a0 f i moc_persistentSocket.obj
 0001:0000d240       ?qt_metatype_id@?$QMetaTypeId@W4SocketError@QAbstractSocket@@@@SAHXZ 0040e240 f i moc_persistentSocket.obj
 0001:0000d2e0       ?qt_static_metacall@persistentSocket@@CAXPAVQObject@@W4Call@QMetaObject@@HPAPAX@Z 0040e2e0 f   moc_persistentSocket.obj
 0001:0000d410       ?readyRead@persistentSocket@@QAEXXZ 0040e410 f   moc_persistentSocket.obj
 0001:0000d430       ?metaObject@slinkClient@@UBEPBUQMetaObject@@XZ 0040e430 f   moc_slinkclient.obj
 0001:0000d450       ?qt_metacall@slinkClient@@UAEHW4Call@QMetaObject@@HPAPAX@Z 0040e450 f   moc_slinkclient.obj
 0001:0000d4c0       ?qt_metacast@slinkClient@@UAEPAXPBD@Z 0040e4c0 f   moc_slinkclient.obj
 0001:0000d5e0       ?qt_static_metacall@slinkClient@@CAXPAVQObject@@W4Call@QMetaObject@@HPAPAX@Z 0040e5e0 f   moc_slinkclient.obj
 0001:0000d680       ??1?$QList@VQString@@@@QAE@XZ 0040e680 f i main.obj
 0001:0000d6e0       ??1QStringList@@QAE@XZ     0040e6e0 f i main.obj
 0001:0000d6f0       ?append@?$QList@VQString@@@@QAEXABVQString@@@Z 0040e6f0 f i main.obj
 0001:0000d7a0       ?detach_helper_grow@?$QList@VQString@@@@AAEPAUNode@1@HH@Z 0040e7a0 f i main.obj
 0001:0000d920       ?node_copy@?$QList@VQString@@@@AAEXPAUNode@1@00@Z 0040e920 f i main.obj
 0001:0000d960       ?node_destruct@?$QList@VQString@@@@AAEXPAUNode@1@0@Z 0040e960 f i main.obj
 0001:0000d990       _main                      0040e990 f   main.obj
 0001:0000dcb0       ??$_Buynode@U?$pair@VQString@@V1@@std@@@?$_Tree_buy@U?$pair@$$CBVQString@@V1@@std@@V?$allocator@U?$pair@$$CBVQString@@V1@@std@@@2@@std@@QAEPAU?$_Tree_node@U?$pair@$$CBVQString@@V1@@std@@PAX@1@$$QAU?$pair@VQString@@V1@@1@@Z 0040ecb0 f i netStatus.obj
 0001:0000dcf0       ??$_Insert_at@AAU?$pair@$$CBVQString@@V1@@std@@PAU?$_Tree_node@U?$pair@$$CBVQString@@V1@@std@@PAX@2@@?$_Tree@V?$_Tmap_traits@VQString@@V1@U?$less@VQString@@@std@@V?$allocator@U?$pair@$$CBVQString@@V1@@std@@@3@$0A@@std@@@std@@IAE?AV?$_Tree_iterator@V?$_Tree_val@U?$_Tree_simple_types@U?$pair@$$CBVQString@@V1@@std@@@std@@@std@@@1@_NPAU?$_Tree_node@U?$pair@$$CBVQString@@V1@@std@@PAX@1@AAU?$pair@$$CBVQString@@V1@@1@1@Z 0040ecf0 f i netStatus.obj
 0001:0000df50       ??$_Insert_nohint@AAU?$pair@$$CBVQString@@V1@@std@@PAU?$_Tree_node@U?$pair@$$CBVQString@@V1@@std@@PAX@2@@?$_Tree@V?$_Tmap_traits@VQString@@V1@U?$less@VQString@@@std@@V?$allocator@U?$pair@$$CBVQString@@V1@@std@@@3@$0A@@std@@@std@@IAE?AU?$pair@V?$_Tree_iterator@V?$_Tree_val@U?$_Tree_simple_types@U?$pair@$$CBVQString@@V1@@std@@@std@@@std@@@std@@_N@1@_NAAU?$pair@$$CBVQString@@V1@@1@PAU?$_Tree_node@U?$pair@$$CBVQString@@V1@@std@@PAX@1@@Z 0040ef50 f i netStatus.obj
 0001:0000e0b0       ??0initializer@?A0xcc4eed96@@QAE@XZ 0040f0b0 f i qrc_slinkclient.obj
 0001:0000e0b0       ??0?$_Wrap_alloc@V?$allocator@U?$_Tree_node@U?$pair@$$CBVQString@@V1@@std@@PAX@std@@@std@@@std@@QAE@XZ 0040f0b0 f i netStatus.obj
 0001:0000e0c0       ??1?$pair@VQString@@V1@@std@@QAE@XZ 0040f0c0 f i netStatus.obj
 0001:0000e120       ?_Destroy_if_not_nil@?$_Tree@V?$_Tmap_traits@VQString@@V1@U?$less@VQString@@@std@@V?$allocator@U?$pair@$$CBVQString@@V1@@std@@@3@$0A@@std@@@std@@IAEXPAU?$_Tree_node@U?$pair@$$CBVQString@@V1@@std@@PAX@2@@Z 0040f120 f i netStatus.obj
 0001:0000e190       ?_Erase@?$_Tree@V?$_Tmap_traits@VQString@@V1@U?$less@VQString@@@std@@V?$allocator@U?$pair@$$CBVQString@@V1@@std@@@3@$0A@@std@@@std@@IAEXPAU?$_Tree_node@U?$pair@$$CBVQString@@V1@@std@@PAX@2@@Z 0040f190 f i netStatus.obj
 0001:0000e220       ?erase@?$_Tree@V?$_Tmap_traits@VQString@@V1@U?$less@VQString@@@std@@V?$allocator@U?$pair@$$CBVQString@@V1@@std@@@3@$0A@@std@@@std@@QAE?AV?$_Tree_iterator@V?$_Tree_val@U?$_Tree_simple_types@U?$pair@$$CBVQString@@V1@@std@@@std@@@std@@@2@V?$_Tree_const_iterator@V?$_Tree_val@U?$_Tree_simple_types@U?$pair@$$CBVQString@@V1@@std@@@std@@@std@@@2@0@Z 0040f220 f i netStatus.obj
 0001:0000e2e0       ?erase@?$_Tree@V?$_Tmap_traits@VQString@@V1@U?$less@VQString@@@std@@V?$allocator@U?$pair@$$CBVQString@@V1@@std@@@3@$0A@@std@@@std@@QAE?AV?$_Tree_iterator@V?$_Tree_val@U?$_Tree_simple_types@U?$pair@$$CBVQString@@V1@@std@@@std@@@std@@@2@V?$_Tree_const_iterator@V?$_Tree_val@U?$_Tree_simple_types@U?$pair@$$CBVQString@@V1@@std@@@std@@@std@@@2@@Z 0040f2e0 f i netStatus.obj
 0001:0000e5a0       ?query@netStatus@@SA_NPAVccDriver@@ABVQString@@H11@Z 0040f5a0 f   netStatus.obj
 0001:0000eed0       ?setSendSpontaneous@netStatus@@SAX_N@Z 0040fed0 f   netStatus.obj
 0001:0000eee0       ?setValue@netStatus@@SA_NPAVccDriver@@ABVQString@@1@Z 0040fee0 f   netStatus.obj
 0001:0000f160       ?spontaneous@netStatus@@SA_NXZ 00410160 f   netStatus.obj
 0001:0000f170       ??0persistentSocket@@QAE@PAVQObject@@ABVQString@@H1H_N@Z 00410170 f   persistentSocket.obj
 0001:0000f420       ??1?$QForeachContainer@$$CBV?$QList@VQSslError@@@@@@QAE@XZ 00410420 f i persistentSocket.obj
 0001:0000f430       ??_EQSslSocket@@UAEPAXI@Z  00410430 f i persistentSocket.obj
 0001:0000f430       ??_GQSslSocket@@UAEPAXI@Z  00410430 f i persistentSocket.obj
 0001:0000f460       ??_GpersistentSocket@@UAEPAXI@Z 00410460 f i persistentSocket.obj
 0001:0000f460       ??_EpersistentSocket@@UAEPAXI@Z 00410460 f i persistentSocket.obj
 0001:0000f500       ?close@persistentSocket@@QAEX_N@Z 00410500 f   persistentSocket.obj
 0001:0000f520       ?connectionSummary@persistentSocket@@QAE?AVQString@@XZ 00410520 f   persistentSocket.obj
 0001:0000f550       ?enc@persistentSocket@@QAEXXZ 00410550 f   persistentSocket.obj
 0001:0000f750       ?join@?$QListSpecialMethods@VQString@@@@QBE?AVQString@@ABV2@@Z 00410750 f i persistentSocket.obj
 0001:0000f790       ?peerAddress@persistentSocket@@QAE?AVQHostAddress@@XZ 00410790 f   persistentSocket.obj
 0001:0000f7d0       ?peerName@persistentSocket@@QAE?AVQString@@XZ 004107d0 f   persistentSocket.obj
 0001:0000f820       ?peerPort@persistentSocket@@QAEHXZ 00410820 f   persistentSocket.obj
 0001:0000f840       ?read@persistentSocket@@QAE_JPAD_J@Z 00410840 f   persistentSocket.obj
 0001:0000f870       ?socketConnected@persistentSocket@@QAEXXZ 00410870 f   persistentSocket.obj
 0001:0000f8f0       ?socketDisconnected@persistentSocket@@QAEXXZ 004108f0 f   persistentSocket.obj
 0001:0000f9a0       ?socketError@persistentSocket@@QAEXW4SocketError@QAbstractSocket@@@Z 004109a0 f   persistentSocket.obj
 0001:0000fbf0       ?socketSslErrors@persistentSocket@@QAEXABV?$QList@VQSslError@@@@@Z 00410bf0 f   persistentSocket.obj
 0001:0000fde0       ?sslMode@persistentSocket@@QAEXW4SslMode@QSslSocket@@@Z 00410de0 f   persistentSocket.obj
 0001:0000fe10       ?timerEvent@persistentSocket@@MAEXPAVQTimerEvent@@@Z 00410e10 f   persistentSocket.obj
 0001:0000ff40       ?tryConnect@persistentSocket@@AAEXXZ 00410f40 f   persistentSocket.obj
 0001:000104f0       ?useAlt@persistentSocket@@QAE_NXZ 004114f0 f   persistentSocket.obj
 0001:00010500       ?write@persistentSocket@@QAEXABVQByteArray@@@Z 00411500 f   persistentSocket.obj
 0001:00010520       ??$_Buynode@ABI@?$_Tree_buy@IV?$allocator@I@std@@@std@@QAEPAU?$_Tree_node@IPAX@1@ABI@Z 00411520 f i slinkclient.obj
 0001:00010540       ??$_Insert_at@AAU?$pair@$$CBHPAVdatabase@@@std@@PAU?$_Tree_node@U?$pair@$$CBHPAVdatabase@@@std@@PAX@2@@?$_Tree@V?$_Tmap_traits@HPAVdatabase@@U?$less@H@std@@V?$allocator@U?$pair@$$CBHPAVdatabase@@@std@@@3@$0A@@std@@@std@@IAE?AV?$_Tree_iterator@V?$_Tree_val@U?$_Tree_simple_types@U?$pair@$$CBHPAVdatabase@@@std@@@std@@@std@@@1@_NPAU?$_Tree_node@U?$pair@$$CBHPAVdatabase@@@std@@PAX@1@AAU?$pair@$$CBHPAVdatabase@@@1@1@Z 00411540 f i databaseMgr.obj
 0001:00010540       ??$_Insert_at@AAU?$pair@$$CBII@std@@PAU?$_Tree_node@U?$pair@$$CBII@std@@PAX@2@@?$_Tree@V?$_Tmap_traits@IIU?$less@I@std@@V?$allocator@U?$pair@$$CBII@std@@@2@$0A@@std@@@std@@IAE?AV?$_Tree_iterator@V?$_Tree_val@U?$_Tree_simple_types@U?$pair@$$CBII@std@@@std@@@std@@@1@_NPAU?$_Tree_node@U?$pair@$$CBII@std@@PAX@1@AAU?$pair@$$CBII@1@1@Z 00411540 f i slinkclient.obj
 0001:00010540       ??$_Insert_at@AAU?$pair@$$CBIPAVccDriver@@@std@@PAU?$_Tree_node@U?$pair@$$CBIPAVccDriver@@@std@@PAX@2@@?$_Tree@V?$_Tmap_traits@IPAVccDriver@@U?$less@I@std@@V?$allocator@U?$pair@$$CBIPAVccDriver@@@std@@@3@$0A@@std@@@std@@IAE?AV?$_Tree_iterator@V?$_Tree_val@U?$_Tree_simple_types@U?$pair@$$CBIPAVccDriver@@@std@@@std@@@std@@@1@_NPAU?$_Tree_node@U?$pair@$$CBIPAVccDriver@@@std@@PAX@1@AAU?$pair@$$CBIPAVccDriver@@@1@1@Z 00411540 f i slinkclient.obj
 0001:00010750       ??$_Insert_at@ABIU_Nil@std@@@?$_Tree@V?$_Tset_traits@IU?$less@I@std@@V?$allocator@I@2@$0A@@std@@@std@@IAE?AV?$_Tree_const_iterator@V?$_Tree_val@U?$_Tree_simple_types@I@std@@@std@@@1@_NPAU?$_Tree_node@IPAX@1@ABIU_Nil@1@@Z 00411750 f i slinkclient.obj
 0001:00010950       ??$_Insert_nohint@AAU?$pair@$$CBII@std@@PAU?$_Tree_node@U?$pair@$$CBII@std@@PAX@2@@?$_Tree@V?$_Tmap_traits@IIU?$less@I@std@@V?$allocator@U?$pair@$$CBII@std@@@2@$0A@@std@@@std@@IAE?AU?$pair@V?$_Tree_iterator@V?$_Tree_val@U?$_Tree_simple_types@U?$pair@$$CBII@std@@@std@@@std@@@std@@_N@1@_NAAU?$pair@$$CBII@1@PAU?$_Tree_node@U?$pair@$$CBII@std@@PAX@1@@Z 00411950 f i slinkclient.obj
 0001:00010950       ??$_Insert_nohint@AAU?$pair@$$CBIPAVccDriver@@@std@@PAU?$_Tree_node@U?$pair@$$CBIPAVccDriver@@@std@@PAX@2@@?$_Tree@V?$_Tmap_traits@IPAVccDriver@@U?$less@I@std@@V?$allocator@U?$pair@$$CBIPAVccDriver@@@std@@@3@$0A@@std@@@std@@IAE?AU?$pair@V?$_Tree_iterator@V?$_Tree_val@U?$_Tree_simple_types@U?$pair@$$CBIPAVccDriver@@@std@@@std@@@std@@@std@@_N@1@_NAAU?$pair@$$CBIPAVccDriver@@@1@PAU?$_Tree_node@U?$pair@$$CBIPAVccDriver@@@std@@PAX@1@@Z 00411950 f i slinkclient.obj
 0001:00010a70       ??$_Insert_nohint@ABIU_Nil@std@@@?$_Tree@V?$_Tset_traits@IU?$less@I@std@@V?$allocator@I@2@$0A@@std@@@std@@IAE?AU?$pair@V?$_Tree_const_iterator@V?$_Tree_val@U?$_Tree_simple_types@I@std@@@std@@@std@@_N@1@_NABIU_Nil@1@@Z 00411a70 f i slinkclient.obj
 0001:00010b80       ??0slinkClient@@QAE@PAVQWidget@@@Z 00411b80 f   slinkclient.obj
 0001:000124f0       ??1?$QList@PAVQListWidgetItem@@@@QAE@XZ 004134f0 f i slinkclient.obj
 0001:00012520       ??1?$map@IIU?$less@I@std@@V?$allocator@U?$pair@$$CBII@std@@@2@@std@@QAE@XZ 00413520 f i slinkclient.obj
 0001:00012520       ??1?$set@IU?$less@I@std@@V?$allocator@I@2@@std@@QAE@XZ 00413520 f i slinkclient.obj
 0001:00012520       ??1?$map@HPAVdatabase@@U?$less@H@std@@V?$allocator@U?$pair@$$CBHPAVdatabase@@@std@@@3@@std@@QAE@XZ 00413520 f i databaseMgr.obj
 0001:00012520       ??1?$map@IPAVccDriver@@U?$less@I@std@@V?$allocator@U?$pair@$$CBIPAVccDriver@@@std@@@3@@std@@QAE@XZ 00413520 f i slinkclient.obj
 0001:00012550       ??1slinkClient@@UAE@XZ     00413550 f   slinkclient.obj
 0001:00012780       ??E?$_Tree_unchecked_const_iterator@V?$_Tree_val@U?$_Tree_simple_types@U?$pair@$$CBVQString@@V1@@std@@@std@@@std@@U_Iterator_base0@2@@std@@QAEAAV01@XZ 00413780 f i netStatus.obj
 0001:00012780       ??E?$_Tree_unchecked_const_iterator@V?$_Tree_val@U?$_Tree_simple_types@I@std@@@std@@U_Iterator_base0@2@@std@@QAEAAV01@XZ 00413780 f i slinkclient.obj
 0001:00012780       ??E?$_Tree_unchecked_const_iterator@V?$_Tree_val@U?$_Tree_simple_types@U?$pair@$$CBII@std@@@std@@@std@@U_Iterator_base0@2@@std@@QAEAAV01@XZ 00413780 f i slinkclient.obj
 0001:00012780       ??E?$_Tree_unchecked_const_iterator@V?$_Tree_val@U?$_Tree_simple_types@U?$pair@$$CBHPAVdatabase@@@std@@@std@@@std@@U_Iterator_base0@2@@std@@QAEAAV01@XZ 00413780 f i databaseMgr.obj
 0001:00012780       ??E?$_Tree_unchecked_const_iterator@V?$_Tree_val@U?$_Tree_simple_types@U?$pair@$$CBIPAVccDriver@@@std@@@std@@@std@@U_Iterator_base0@2@@std@@QAEAAV01@XZ 00413780 f i slinkclient.obj
 0001:00012780       ??E?$_Tree_unchecked_const_iterator@V?$_Tree_val@U?$_Tree_simple_types@U?$pair@$$CBV?$basic_string@DU?$char_traits@D@std@@V?$allocator@D@2@@std@@V12@@std@@@std@@@std@@U_Iterator_base0@2@@std@@QAEAAV01@XZ 00413780 f i ccConfig.obj
 0001:00012780       ??E?$_Tree_unchecked_const_iterator@V?$_Tree_val@U?$_Tree_simple_types@U?$pair@$$CBHV?$basic_string@DU?$char_traits@D@std@@V?$allocator@D@2@@std@@@std@@@std@@@std@@U_Iterator_base0@2@@std@@QAEAAV01@XZ 00413780 f i database.obj
 0001:000127d0       ??F?$_Tree_unchecked_const_iterator@V?$_Tree_val@U?$_Tree_simple_types@U?$pair@$$CBV?$basic_string@DU?$char_traits@D@std@@V?$allocator@D@2@@std@@V12@@std@@@std@@@std@@U_Iterator_base0@2@@std@@QAEAAV01@XZ 004137d0 f i ccConfig.obj
 0001:000127d0       ??F?$_Tree_unchecked_const_iterator@V?$_Tree_val@U?$_Tree_simple_types@U?$pair@$$CBIPAVccDriver@@@std@@@std@@@std@@U_Iterator_base0@2@@std@@QAEAAV01@XZ 004137d0 f i slinkclient.obj
 0001:000127d0       ??F?$_Tree_unchecked_const_iterator@V?$_Tree_val@U?$_Tree_simple_types@U?$pair@$$CBII@std@@@std@@@std@@U_Iterator_base0@2@@std@@QAEAAV01@XZ 004137d0 f i slinkclient.obj
 0001:000127d0       ??F?$_Tree_unchecked_const_iterator@V?$_Tree_val@U?$_Tree_simple_types@U?$pair@$$CBVQString@@V1@@std@@@std@@@std@@U_Iterator_base0@2@@std@@QAEAAV01@XZ 004137d0 f i netStatus.obj
 0001:000127d0       ??F?$_Tree_unchecked_const_iterator@V?$_Tree_val@U?$_Tree_simple_types@U?$pair@$$CBHV?$basic_string@DU?$char_traits@D@std@@V?$allocator@D@2@@std@@@std@@@std@@@std@@U_Iterator_base0@2@@std@@QAEAAV01@XZ 004137d0 f i database.obj
 0001:000127d0       ??F?$_Tree_unchecked_const_iterator@V?$_Tree_val@U?$_Tree_simple_types@U?$pair@$$CBHPAVdatabase@@@std@@@std@@@std@@U_Iterator_base0@2@@std@@QAEAAV01@XZ 004137d0 f i databaseMgr.obj
 0001:000127d0       ??F?$_Tree_unchecked_const_iterator@V?$_Tree_val@U?$_Tree_simple_types@I@std@@@std@@U_Iterator_base0@2@@std@@QAEAAV01@XZ 004137d0 f i slinkclient.obj
 0001:0001354a       ??_EQCheckBox@@W7AEPAXI@Z  0041454a f i slinkclient.obj
 0001:00013552       ??_EQDialogButtonBox@@W7AEPAXI@Z 00414552 f i slinkclient.obj
 0001:0001355a       ??_EQFormLayout@@W7AEPAXI@Z 0041455a f i slinkclient.obj
 0001:00013562       ??_EQGroupBox@@W7AEPAXI@Z  00414562 f i slinkclient.obj
 0001:0001356a       ??_EQHBoxLayout@@W7AEPAXI@Z 0041456a f i slinkclient.obj
 0001:00013572       ??_EQLabel@@W7AEPAXI@Z     00414572 f i slinkclient.obj
 0001:0001357a       ??_EQLineEdit@@W7AEPAXI@Z  0041457a f i slinkclient.obj
 0001:00013582       ??_EQListWidget@@W7AEPAXI@Z 00414582 f i slinkclient.obj
 0001:0001358a       ??_EQMenu@@W7AEPAXI@Z      0041458a f i slinkclient.obj
 0001:00013592       ??_EQMenuBar@@W7AEPAXI@Z   00414592 f i slinkclient.obj
 0001:0001359a       ??_EQPushButton@@W7AEPAXI@Z 0041459a f i slinkclient.obj
 0001:000135a2       ??_EQSplitter@@W7AEPAXI@Z  004145a2 f i slinkclient.obj
 0001:000135aa       ??_EQStatusBar@@W7AEPAXI@Z 004145aa f i slinkclient.obj
 0001:000135b2       ??_EQTextEdit@@W7AEPAXI@Z  004145b2 f i slinkclient.obj
 0001:000135ba       ??_EQToolBar@@W7AEPAXI@Z   004145ba f i slinkclient.obj
 0001:000135c2       ??_EQVBoxLayout@@W7AEPAXI@Z 004145c2 f i slinkclient.obj
 0001:000135ca       ??_EQWidget@@W7AEPAXI@Z    004145ca f i slinkclient.obj
 0001:000135d2       ??_EslinkClient@@W7AEPAXI@Z 004145d2 f i slinkclient.obj
 0001:000135e0       ??_EQAction@@UAEPAXI@Z     004145e0 f i slinkclient.obj
 0001:000135e0       ??_GQAction@@UAEPAXI@Z     004145e0 f i slinkclient.obj
 0001:00013610       ??_EQCheckBox@@UAEPAXI@Z   00414610 f i slinkclient.obj
 0001:00013610       ??_GQCheckBox@@UAEPAXI@Z   00414610 f i slinkclient.obj
 0001:00013640       ??_GQDialogButtonBox@@UAEPAXI@Z 00414640 f i slinkclient.obj
 0001:00013640       ??_EQDialogButtonBox@@UAEPAXI@Z 00414640 f i slinkclient.obj
 0001:00013670       ??_EQFormLayout@@UAEPAXI@Z 00414670 f i slinkclient.obj
 0001:00013670       ??_GQFormLayout@@UAEPAXI@Z 00414670 f i slinkclient.obj
 0001:000136a0       ??_GQGroupBox@@UAEPAXI@Z   004146a0 f i slinkclient.obj
 0001:000136a0       ??_EQGroupBox@@UAEPAXI@Z   004146a0 f i slinkclient.obj
 0001:000136d0       ??_EQHBoxLayout@@UAEPAXI@Z 004146d0 f i slinkclient.obj
 0001:000136d0       ??_GQHBoxLayout@@UAEPAXI@Z 004146d0 f i slinkclient.obj
 0001:00013700       ??_EQLabel@@UAEPAXI@Z      00414700 f i slinkclient.obj
 0001:00013700       ??_GQLabel@@UAEPAXI@Z      00414700 f i slinkclient.obj
 0001:00013730       ??_GQLineEdit@@UAEPAXI@Z   00414730 f i slinkclient.obj
 0001:00013730       ??_EQLineEdit@@UAEPAXI@Z   00414730 f i slinkclient.obj
 0001:00013760       ??_GQListWidget@@UAEPAXI@Z 00414760 f i slinkclient.obj
 0001:00013760       ??_EQListWidget@@UAEPAXI@Z 00414760 f i slinkclient.obj
 0001:00013790       ??_GQMenu@@UAEPAXI@Z       00414790 f i slinkclient.obj
 0001:00013790       ??_EQMenu@@UAEPAXI@Z       00414790 f i slinkclient.obj
 0001:000137c0       ??_EQMenuBar@@UAEPAXI@Z    004147c0 f i slinkclient.obj
 0001:000137c0       ??_GQMenuBar@@UAEPAXI@Z    004147c0 f i slinkclient.obj
 0001:000137f0       ??_EQPushButton@@UAEPAXI@Z 004147f0 f i slinkclient.obj
 0001:000137f0       ??_GQPushButton@@UAEPAXI@Z 004147f0 f i slinkclient.obj
 0001:00013820       ??_EQSpacerItem@@UAEPAXI@Z 00414820 f i slinkclient.obj
 0001:00013820       ??_GQSpacerItem@@UAEPAXI@Z 00414820 f i slinkclient.obj
 0001:00013850       ??_GQSplitter@@UAEPAXI@Z   00414850 f i slinkclient.obj
 0001:00013850       ??_EQSplitter@@UAEPAXI@Z   00414850 f i slinkclient.obj
 0001:00013880       ??_GQStatusBar@@UAEPAXI@Z  00414880 f i slinkclient.obj
 0001:00013880       ??_EQStatusBar@@UAEPAXI@Z  00414880 f i slinkclient.obj
 0001:000138b0       ??_GQTextEdit@@UAEPAXI@Z   004148b0 f i slinkclient.obj
 0001:000138b0       ??_EQTextEdit@@UAEPAXI@Z   004148b0 f i slinkclient.obj
 0001:000138e0       ??_GQToolBar@@UAEPAXI@Z    004148e0 f i slinkclient.obj
 0001:000138e0       ??_EQToolBar@@UAEPAXI@Z    004148e0 f i slinkclient.obj
 0001:00013910       ??_EQVBoxLayout@@UAEPAXI@Z 00414910 f i slinkclient.obj
 0001:00013910       ??_GQVBoxLayout@@UAEPAXI@Z 00414910 f i slinkclient.obj
 0001:00013940       ??_GQWidget@@UAEPAXI@Z     00414940 f i slinkclient.obj
 0001:00013940       ??_EQWidget@@UAEPAXI@Z     00414940 f i slinkclient.obj
 0001:00013970       ??_GslinkClient@@UAEPAXI@Z 00414970 f i slinkclient.obj
 0001:00013970       ??_EslinkClient@@UAEPAXI@Z 00414970 f i slinkclient.obj
 0001:000139a0       ?_Buyheadnode@?$_Tree_alloc@$0A@U?$_Tree_base_types@IV?$allocator@I@std@@@std@@@std@@QAEPAU?$_Tree_node@IPAX@2@XZ 004149a0 f i slinkclient.obj
 0001:000139d0       ?_Buyheadnode@?$_Tree_alloc@$0A@U?$_Tree_base_types@U?$pair@$$CBVQString@@V1@@std@@V?$allocator@U?$pair@$$CBVQString@@V1@@std@@@2@@std@@@std@@QAEPAU?$_Tree_node@U?$pair@$$CBVQString@@V1@@std@@PAX@2@XZ 004149d0 f i netStatus.obj
 0001:000139d0       ?_Buyheadnode@?$_Tree_alloc@$0A@U?$_Tree_base_types@U?$pair@$$CBHPAVdatabase@@@std@@V?$allocator@U?$pair@$$CBHPAVdatabase@@@std@@@2@@std@@@std@@QAEPAU?$_Tree_node@U?$pair@$$CBHPAVdatabase@@@std@@PAX@2@XZ 004149d0 f i databaseMgr.obj
 0001:000139d0       ?_Buyheadnode@?$_Tree_alloc@$0A@U?$_Tree_base_types@U?$pair@$$CBIPAVccDriver@@@std@@V?$allocator@U?$pair@$$CBIPAVccDriver@@@std@@@2@@std@@@std@@QAEPAU?$_Tree_node@U?$pair@$$CBIPAVccDriver@@@std@@PAX@2@XZ 004149d0 f i slinkclient.obj
 0001:000139d0       ?_Buyheadnode@?$_Tree_alloc@$0A@U?$_Tree_base_types@U?$pair@$$CBII@std@@V?$allocator@U?$pair@$$CBII@std@@@2@@std@@@std@@QAEPAU?$_Tree_node@U?$pair@$$CBII@std@@PAX@2@XZ 004149d0 f i slinkclient.obj
 0001:00013a00       ?_Buynode0@?$_Tree_buy@IV?$allocator@I@std@@@std@@QAEPAU?$_Tree_node@IPAX@2@XZ 00414a00 f i slinkclient.obj
 0001:00013a40       ?_Eqrange@?$_Tree@V?$_Tmap_traits@IIU?$less@I@std@@V?$allocator@U?$pair@$$CBII@std@@@2@$0A@@std@@@std@@IAE?AU?$pair@V?$_Tree_iterator@V?$_Tree_val@U?$_Tree_simple_types@U?$pair@$$CBII@std@@@std@@@std@@@std@@V12@@2@ABI@Z 00414a40 f i slinkclient.obj
 0001:00013ac0       ?_Erase@?$_Tree@V?$_Tmap_traits@HPAVdatabase@@U?$less@H@std@@V?$allocator@U?$pair@$$CBHPAVdatabase@@@std@@@3@$0A@@std@@@std@@IAEXPAU?$_Tree_node@U?$pair@$$CBHPAVdatabase@@@std@@PAX@2@@Z 00414ac0 f i databaseMgr.obj
 0001:00013ac0       ?_Erase@?$_Tree@V?$_Tmap_traits@IIU?$less@I@std@@V?$allocator@U?$pair@$$CBII@std@@@2@$0A@@std@@@std@@IAEXPAU?$_Tree_node@U?$pair@$$CBII@std@@PAX@2@@Z 00414ac0 f i slinkclient.obj
 0001:00013ac0       ?_Erase@?$_Tree@V?$_Tset_traits@IU?$less@I@std@@V?$allocator@I@2@$0A@@std@@@std@@IAEXPAU?$_Tree_node@IPAX@2@@Z 00414ac0 f i slinkclient.obj
 0001:00013ac0       ?_Erase@?$_Tree@V?$_Tmap_traits@IPAVccDriver@@U?$less@I@std@@V?$allocator@U?$pair@$$CBIPAVccDriver@@@std@@@3@$0A@@std@@@std@@IAEXPAU?$_Tree_node@U?$pair@$$CBIPAVccDriver@@@std@@PAX@2@@Z 00414ac0 f i slinkclient.obj
 0001:00013b00       ?about@slinkClient@@AAEXXZ 00414b00 f   slinkclient.obj
 0001:00013e80       ?addDriver@slinkClient@@AAEXIID@Z 00414e80 f   slinkclient.obj
 0001:000145e0       ??3@YAXPAX0@Z              004155e0 f i ccCheck.obj
 0001:000145e0       ??1initializer@?A0xcc4eed96@@QAE@XZ 004155e0 f i qrc_slinkclient.obj
 0001:000145e0       ?Destruct@?$QMetaTypeFunctionHelper@W4SocketError@QAbstractSocket@@$00@QtMetaTypePrivate@@SAXPAX@Z 004155e0 f i moc_persistentSocket.obj
 0001:000145e0       ?cccConnected@IccClientCallback@@MAEXXZ 004155e0 f i slinkclient.obj
 0001:000145e0       ?cccDisconnected@IccClientCallback@@MAEXXZ 004155e0 f i slinkclient.obj
 0001:000145f0       ?cccDeviceMessage@IccClientCallback@@MAEXHHABV?$basic_string@DU?$char_traits@D@std@@V?$allocator@D@2@@std@@H@Z 004155f0 f i slinkclient.obj
 0001:00014600       ?cccDisconnected@slinkClient@@MAEXXZ 00415600 f   slinkclient.obj
 0001:00014640       ?cccGpiRevertive@IccClientCallback@@MAEXHH_N@Z 00415640 f i slinkclient.obj
 0001:00014640       ?cccDatabaseChange@IccClientCallback@@MAEXHHH@Z 00415640 f i slinkclient.obj
 0001:00014640       ?cccDeviceMode@IccClientCallback@@MAEXHHW4redundancyState@cc@@@Z 00415640 f i slinkclient.obj
 0001:00014640       ?cccInfoRevertive@IccClientCallback@@MAEXHHABV?$basic_string@DU?$char_traits@D@std@@V?$allocator@D@2@@std@@@Z 00415640 f i slinkclient.obj
 0001:00014640       ?cccRtrRevertive@IccClientCallback@@MAEXHHH@Z 00415640 f i slinkclient.obj
 0001:00014650       ?ccdRedundancyState@IccDriverCallback@@MAEXPAVccDriver@@W4redundancyState@cc@@@Z 00415650 f i slinkclient.obj
 0001:00014650       ?cccPollError@IccClientCallback@@MAEXHH@Z 00415650 f i slinkclient.obj
 0001:00014650       ?cccSerialNumberError@IccClientCallback@@MAEXHH@Z 00415650 f i slinkclient.obj
 0001:00014660       ?ccdClientMessage@IccDriverCallback@@MAEXHHABV?$basic_string@DU?$char_traits@D@std@@V?$allocator@D@2@@std@@00@Z 00415660 f i slinkclient.obj
 0001:00014670       ?ccdClientMessage@slinkClient@@MAEXHHABV?$basic_string@DU?$char_traits@D@std@@V?$allocator@D@2@@std@@00@Z 00415670 f   slinkclient.obj
 0001:00014950       ?ccdCommand@slinkClient@@MAEXPAVccDriver@@PBD@Z 00415950 f   slinkclient.obj
 0001:00015570       ?ccdDatabaseChange@slinkClient@@MAEXIII@Z 00416570 f   slinkclient.obj
 0001:00015680       ?ccdConnected@slinkClient@@MAEXH@Z 00416680 f i slinkclient.obj
 0001:00015680       ?cccConfigChangeMessage@IccClientCallback@@MAEXABV?$basic_string@DU?$char_traits@D@std@@V?$allocator@D@2@@std@@@Z 00416680 f i slinkclient.obj
 0001:00015680       ??$destroy@PAU?$_Tree_node@U?$pair@$$CBVQString@@V1@@std@@PAX@std@@@?$_Wrap_alloc@V?$allocator@U?$_Tree_node@U?$pair@$$CBVQString@@V1@@std@@PAX@std@@@std@@@std@@QAEXPAPAU?$_Tree_node@U?$pair@$$CBVQString@@V1@@std@@PAX@1@@Z 00416680 f i netStatus.obj
 0001:00015680       ?ccdDisconnected@slinkClient@@MAEXH@Z 00416680 f i slinkclient.obj
 0001:00015680       ?ccdConnected@IccDriverCallback@@MAEXH@Z 00416680 f i slinkclient.obj
 0001:00015680       ?ccdDisconnected@IccDriverCallback@@MAEXH@Z 00416680 f i slinkclient.obj
 0001:00015690       ?ccdRedundancyState@slinkClient@@MAEXPAVccDriver@@W4redundancyState@cc@@@Z 00416690 f   slinkclient.obj
 0001:00015910       ?clear@?$_Tree@V?$_Tset_traits@IU?$less@I@std@@V?$allocator@I@2@$0A@@std@@@std@@QAEXXZ 00416910 f i slinkclient.obj
 0001:00015910       ?clear@?$_Tree@V?$_Tmap_traits@IPAVccDriver@@U?$less@I@std@@V?$allocator@U?$pair@$$CBIPAVccDriver@@@std@@@3@$0A@@std@@@std@@QAEXXZ 00416910 f i slinkclient.obj
 0001:00015910       ?clear@?$_Tree@V?$_Tmap_traits@IIU?$less@I@std@@V?$allocator@U?$pair@$$CBII@std@@@2@$0A@@std@@@std@@QAEXXZ 00416910 f i slinkclient.obj
 0001:00015910       ?clear@?$_Tree@V?$_Tmap_traits@HPAVdatabase@@U?$less@H@std@@V?$allocator@U?$pair@$$CBHPAVdatabase@@@std@@@3@$0A@@std@@@std@@QAEXXZ 00416910 f i databaseMgr.obj
 0001:00015960       ?connectStatusInfodriver@slinkClient@@AAEXXZ 00416960 f   slinkclient.obj
 0001:00015b20       ?detach_helper@?$QList@PAVQListWidgetItem@@@@AAEXH@Z 00416b20 f i slinkclient.obj
 0001:00015bf0       ?detach_helper@?$QList@VQString@@@@AAEXH@Z 00416bf0 f i slinkclient.obj
 0001:00015ce0       ?doClearDebug@slinkClient@@AAEXXZ 00416ce0 f   slinkclient.obj
 0001:00015d00       ?doConfigEdit@slinkClient@@AAEXXZ 00416d00 f   slinkclient.obj
 0001:000172a0       ?doHelp@slinkClient@@AAEXXZ 004182a0 f   slinkclient.obj
 0001:00017470       ?doResetCounters@slinkClient@@AAEXXZ 00418470 f   slinkclient.obj
 0001:000174e0       ?erase@?$_Tree@V?$_Tmap_traits@IPAVccDriver@@U?$less@I@std@@V?$allocator@U?$pair@$$CBIPAVccDriver@@@std@@@3@$0A@@std@@@std@@QAE?AV?$_Tree_iterator@V?$_Tree_val@U?$_Tree_simple_types@U?$pair@$$CBIPAVccDriver@@@std@@@std@@@std@@@2@V?$_Tree_const_iterator@V?$_Tree_val@U?$_Tree_simple_types@U?$pair@$$CBIPAVccDriver@@@std@@@std@@@std@@@2@0@Z 004184e0 f i slinkclient.obj
 0001:000174e0       ?erase@?$_Tree@V?$_Tmap_traits@HPAVdatabase@@U?$less@H@std@@V?$allocator@U?$pair@$$CBHPAVdatabase@@@std@@@3@$0A@@std@@@std@@QAE?AV?$_Tree_iterator@V?$_Tree_val@U?$_Tree_simple_types@U?$pair@$$CBHPAVdatabase@@@std@@@std@@@std@@@2@V?$_Tree_const_iterator@V?$_Tree_val@U?$_Tree_simple_types@U?$pair@$$CBHPAVdatabase@@@std@@@std@@@std@@@2@0@Z 004184e0 f i databaseMgr.obj
 0001:000174e0       ?erase@?$_Tree@V?$_Tset_traits@IU?$less@I@std@@V?$allocator@I@2@$0A@@std@@@std@@QAE?AV?$_Tree_const_iterator@V?$_Tree_val@U?$_Tree_simple_types@I@std@@@std@@@2@V32@0@Z 004184e0 f i slinkclient.obj
 0001:000174e0       ?erase@?$_Tree@V?$_Tmap_traits@IIU?$less@I@std@@V?$allocator@U?$pair@$$CBII@std@@@2@$0A@@std@@@std@@QAE?AV?$_Tree_iterator@V?$_Tree_val@U?$_Tree_simple_types@U?$pair@$$CBII@std@@@std@@@std@@@2@V?$_Tree_const_iterator@V?$_Tree_val@U?$_Tree_simple_types@U?$pair@$$CBII@std@@@std@@@std@@@2@0@Z 004184e0 f i slinkclient.obj
 0001:00017580       ?erase@?$_Tree@V?$_Tset_traits@IU?$less@I@std@@V?$allocator@I@2@$0A@@std@@@std@@QAE?AV?$_Tree_const_iterator@V?$_Tree_val@U?$_Tree_simple_types@I@std@@@std@@@2@V32@@Z 00418580 f i slinkclient.obj
 0001:00017580       ?erase@?$_Tree@V?$_Tmap_traits@IIU?$less@I@std@@V?$allocator@U?$pair@$$CBII@std@@@2@$0A@@std@@@std@@QAE?AV?$_Tree_iterator@V?$_Tree_val@U?$_Tree_simple_types@U?$pair@$$CBII@std@@@std@@@std@@@2@V?$_Tree_const_iterator@V?$_Tree_val@U?$_Tree_simple_types@U?$pair@$$CBII@std@@@std@@@std@@@2@@Z 00418580 f i slinkclient.obj
 0001:00017580       ?erase@?$_Tree@V?$_Tmap_traits@HPAVdatabase@@U?$less@H@std@@V?$allocator@U?$pair@$$CBHPAVdatabase@@@std@@@3@$0A@@std@@@std@@QAE?AV?$_Tree_iterator@V?$_Tree_val@U?$_Tree_simple_types@U?$pair@$$CBHPAVdatabase@@@std@@@std@@@std@@@2@V?$_Tree_const_iterator@V?$_Tree_val@U?$_Tree_simple_types@U?$pair@$$CBHPAVdatabase@@@std@@@std@@@std@@@2@@Z 00418580 f i databaseMgr.obj
 0001:00017580       ?erase@?$_Tree@V?$_Tmap_traits@IPAVccDriver@@U?$less@I@std@@V?$allocator@U?$pair@$$CBIPAVccDriver@@@std@@@3@$0A@@std@@@std@@QAE?AV?$_Tree_iterator@V?$_Tree_val@U?$_Tree_simple_types@U?$pair@$$CBIPAVccDriver@@@std@@@std@@@std@@@2@V?$_Tree_const_iterator@V?$_Tree_val@U?$_Tree_simple_types@U?$pair@$$CBIPAVccDriver@@@std@@@std@@@std@@@2@@Z 00418580 f i slinkclient.obj
 0001:000177f0       ?fccConnected@slinkClient@@MAEXABVQString@@H0@Z 004187f0 f   slinkclient.obj
 0001:00017ab0       ?fccDatabaseChange@slinkClient@@MAEXPAVfabianClient@@IIIABVQString@@@Z 00418ab0 f   slinkclient.obj
 0001:00017ba0       ?fccDeviceProfile@slinkClient@@MAEXPAVfabianClient@@III@Z 00418ba0 f   slinkclient.obj
 0001:00017f50       ?fccDisconnected@slinkClient@@MAEXXZ 00418f50 f   slinkclient.obj
 0001:00018130       ?fccGpiRevertive@slinkClient@@MAEXPAVfabianClient@@II_NI@Z 00419130 f   slinkclient.obj
 0001:00018410       ?fccInfoRevertive@slinkClient@@MAEXPAVfabianClient@@IIABVQString@@I@Z 00419410 f   slinkclient.obj
 0001:00018710       ?fccRouterRevertive@slinkClient@@MAEXPAVfabianClient@@IIHI@Z 00419710 f   slinkclient.obj
 0001:00018a60       ?find@?$_Tree@V?$_Tmap_traits@IPAVccDriver@@U?$less@I@std@@V?$allocator@U?$pair@$$CBIPAVccDriver@@@std@@@3@$0A@@std@@@std@@QAE?AV?$_Tree_iterator@V?$_Tree_val@U?$_Tree_simple_types@U?$pair@$$CBIPAVccDriver@@@std@@@std@@@std@@@2@ABI@Z 00419a60 f i slinkclient.obj
 0001:00018ab0       ?forceTx@slinkClient@@AAEXXZ 00419ab0 f   slinkclient.obj
 0001:00018b20       ?localToRemote@slinkClient@@AAEII@Z 00419b20 f   slinkclient.obj
 0001:00018b80       ?node_copy@?$QList@PAVQListWidgetItem@@@@AAEXPAUNode@1@00@Z 00419b80 f i slinkclient.obj
 0001:00018bb0       ?remoteToLocal@slinkClient@@AAEII@Z 00419bb0 f   slinkclient.obj
 0001:00018c10       ?removeDriver@slinkClient@@AAEXI@Z 00419c10 f   slinkclient.obj
 0001:00018e90       ?retranslateUi@Ui_configEdit@@QAEXPAVQDialog@@@Z 00419e90 f i slinkclient.obj
 0001:000193c0       ?retranslateUi@Ui_slinkClientClass@@QAEXPAVQMainWindow@@@Z 0041a3c0 f i slinkclient.obj
 0001:00019d50       ?sendConnectionString@slinkClient@@AAEXXZ 0041ad50 f   slinkclient.obj
 0001:00019fd0       ?setFabianStatus@slinkClient@@AAEXI@Z 0041afd0 f   slinkclient.obj
 0001:0001a0f0       ?setInfodriverStatusValue@slinkClient@@AAEXABVQString@@@Z 0041b0f0 f   slinkclient.obj
 0001:0001a220       ?setRxOnly@slinkClient@@AAEXXZ 0041b220 f   slinkclient.obj
 0001:0001a290       ?setSocksProxy@slinkClient@@AAEXXZ 0041b290 f   slinkclient.obj
 0001:0001a390       ?setTx@slinkClient@@AAEXXZ 0041b390 f   slinkclient.obj
 0001:0001a400       ?setupUi@Ui_configEdit@@QAEXPAVQDialog@@@Z 0041b400 f i slinkclient.obj
 0001:0001b980       ?setupUi@Ui_slinkClientClass@@QAEXPAVQMainWindow@@@Z 0041c980 f i slinkclient.obj
 0001:0001da80       ?showConfig@slinkClient@@AAEXXZ 0041ea80 f   slinkclient.obj
 0001:0001dd40       ?slotAddDriver@slinkClient@@AAEXXZ 0041ed40 f   slinkclient.obj
 0001:0001e350       ?slotRemoveDriver@slinkClient@@AAEXXZ 0041f350 f   slinkclient.obj
 0001:0001e660       ?timerEvent@slinkClient@@MAEXPAVQTimerEvent@@@Z 0041f660 f   slinkclient.obj
 0001:0001e940       ?writeDeviceConfig@slinkClient@@AAEXXZ 0041f940 f   slinkclient.obj
 0001:0001eff0       _GetFileVersionInfoSizeA@8 0041fff0 f   version:VERSION.dll
 0001:0001eff6       _GetFileVersionInfoA@16    0041fff6 f   version:VERSION.dll
 0001:0001effe       _VerQueryValueA@16         0041fffe f   version:VERSION.dll
 0001:0001f004       ?childEvent@QObject@@MAEXPAVQChildEvent@@@Z 00420004 f   Qt5Core:Qt5Core.dll
 0001:0001f00a       ?connectNotify@QObject@@MAEXABVQMetaMethod@@@Z 0042000a f   Qt5Core:Qt5Core.dll
 0001:0001f010       ?customEvent@QObject@@MAEXPAVQEvent@@@Z 00420010 f   Qt5Core:Qt5Core.dll
 0001:0001f016       ?disconnectNotify@QObject@@MAEXABVQMetaMethod@@@Z 00420016 f   Qt5Core:Qt5Core.dll
 0001:0001f01c       ?event@QObject@@UAE_NPAVQEvent@@@Z 0042001c f   Qt5Core:Qt5Core.dll
 0001:0001f022       ?eventFilter@QObject@@UAE_NPAV1@PAVQEvent@@@Z 00420022 f   Qt5Core:Qt5Core.dll
 0001:0001f028       ?open@QIODevice@@UAE_NV?$QFlags@W4OpenModeFlag@QIODevice@@@@@Z 00420028 f   Qt5Core:Qt5Core.dll
 0001:0001f02e       ?pos@QIODevice@@UBE_JXZ    0042002e f   Qt5Core:Qt5Core.dll
 0001:0001f034       ?reset@QIODevice@@UAE_NXZ  00420034 f   Qt5Core:Qt5Core.dll
 0001:0001f03a       ?seek@QIODevice@@UAE_N_J@Z 0042003a f   Qt5Core:Qt5Core.dll
 0001:0001f040       ?size@QIODevice@@UBE_JXZ   00420040 f   Qt5Core:Qt5Core.dll
 0001:0001f046       ?timerEvent@QObject@@MAEXPAVQTimerEvent@@@Z 00420046 f   Qt5Core:Qt5Core.dll
 0001:0001f04c       ?atEnd@QSslSocket@@UBE_NXZ 0042004c f   Qt5Network:Qt5Network.dll
 0001:0001f052       ?bytesAvailable@QSslSocket@@UBE_JXZ 00420052 f   Qt5Network:Qt5Network.dll
 0001:0001f058       ?bytesToWrite@QSslSocket@@UBE_JXZ 00420058 f   Qt5Network:Qt5Network.dll
 0001:0001f05e       ?canReadLine@QSslSocket@@UBE_NXZ 0042005e f   Qt5Network:Qt5Network.dll
 0001:0001f064       ?close@QSslSocket@@UAEXXZ  00420064 f   Qt5Network:Qt5Network.dll
 0001:0001f06a       ?connectToHost@QAbstractSocket@@UAEXABVQHostAddress@@GV?$QFlags@W4OpenModeFlag@QIODevice@@@@@Z 0042006a f   Qt5Network:Qt5Network.dll
 0001:0001f070       ?connectToHost@QSslSocket@@UAEXABVQString@@GV?$QFlags@W4OpenModeFlag@QIODevice@@@@W4NetworkLayerProtocol@QAbstractSocket@@@Z 00420070 f   Qt5Network:Qt5Network.dll
 0001:0001f076       ?disconnectFromHost@QSslSocket@@UAEXXZ 00420076 f   Qt5Network:Qt5Network.dll
 0001:0001f07c       ?isSequential@QAbstractSocket@@UBE_NXZ 0042007c f   Qt5Network:Qt5Network.dll
 0001:0001f082       ?metaObject@QSslSocket@@UBEPBUQMetaObject@@XZ 00420082 f   Qt5Network:Qt5Network.dll
 0001:0001f088       ?qt_metacall@QSslSocket@@UAEHW4Call@QMetaObject@@HPAPAX@Z 00420088 f   Qt5Network:Qt5Network.dll
 0001:0001f08e       ?qt_metacast@QSslSocket@@UAEPAXPBD@Z 0042008e f   Qt5Network:Qt5Network.dll
 0001:0001f094       ?readData@QSslSocket@@MAE_JPAD_J@Z 00420094 f   Qt5Network:Qt5Network.dll
 0001:0001f09a       ?readLineData@QAbstractSocket@@MAE_JPAD_J@Z 0042009a f   Qt5Network:Qt5Network.dll
 0001:0001f0a0       ?resume@QSslSocket@@UAEXXZ 004200a0 f   Qt5Network:Qt5Network.dll
 0001:0001f0a6       ?setReadBufferSize@QSslSocket@@UAEX_J@Z 004200a6 f   Qt5Network:Qt5Network.dll
 0001:0001f0ac       ?setSocketDescriptor@QSslSocket@@UAE_NHW4SocketState@QAbstractSocket@@V?$QFlags@W4OpenModeFlag@QIODevice@@@@@Z 004200ac f   Qt5Network:Qt5Network.dll
 0001:0001f0b2       ?setSocketOption@QSslSocket@@UAEXW4SocketOption@QAbstractSocket@@ABVQVariant@@@Z 004200b2 f   Qt5Network:Qt5Network.dll
 0001:0001f0b8       ?socketDescriptor@QAbstractSocket@@UBEHXZ 004200b8 f   Qt5Network:Qt5Network.dll
 0001:0001f0be       ?socketOption@QSslSocket@@UAE?AVQVariant@@W4SocketOption@QAbstractSocket@@@Z 004200be f   Qt5Network:Qt5Network.dll
 0001:0001f0c4       ?waitForBytesWritten@QSslSocket@@UAE_NH@Z 004200c4 f   Qt5Network:Qt5Network.dll
 0001:0001f0ca       ?waitForConnected@QSslSocket@@UAE_NH@Z 004200ca f   Qt5Network:Qt5Network.dll
 0001:0001f0d0       ?waitForDisconnected@QSslSocket@@UAE_NH@Z 004200d0 f   Qt5Network:Qt5Network.dll
 0001:0001f0d6       ?waitForReadyRead@QSslSocket@@UAE_NH@Z 004200d6 f   Qt5Network:Qt5Network.dll
 0001:0001f0dc       ?writeData@QSslSocket@@MAE_JPBD_J@Z 004200dc f   Qt5Network:Qt5Network.dll
 0001:0001f0e2       ?actionEvent@QMenu@@MAEXPAVQActionEvent@@@Z 004200e2 f   Qt5Widgets:Qt5Widgets.dll
 0001:0001f0e8       ?actionEvent@QMenuBar@@MAEXPAVQActionEvent@@@Z 004200e8 f   Qt5Widgets:Qt5Widgets.dll
 0001:0001f0ee       ?actionEvent@QToolBar@@MAEXPAVQActionEvent@@@Z 004200ee f   Qt5Widgets:Qt5Widgets.dll
 0001:0001f0f4       ?actionEvent@QWidget@@MAEXPAVQActionEvent@@@Z 004200f4 f   Qt5Widgets:Qt5Widgets.dll
 0001:0001f0fa       ?addItem@QBoxLayout@@UAEXPAVQLayoutItem@@@Z 004200fa f   Qt5Widgets:Qt5Widgets.dll
 0001:0001f100       ?addItem@QFormLayout@@UAEXPAVQLayoutItem@@@Z 00420100 f   Qt5Widgets:Qt5Widgets.dll
 0001:0001f106       ?canInsertFromMimeData@QTextEdit@@MBE_NPBVQMimeData@@@Z 00420106 f   Qt5Widgets:Qt5Widgets.dll
 0001:0001f10c       ?changeEvent@QAbstractButton@@MAEXPAVQEvent@@@Z 0042010c f   Qt5Widgets:Qt5Widgets.dll
 0001:0001f112       ?changeEvent@QDialogButtonBox@@MAEXPAVQEvent@@@Z 00420112 f   Qt5Widgets:Qt5Widgets.dll
 0001:0001f118       ?changeEvent@QFrame@@MAEXPAVQEvent@@@Z 00420118 f   Qt5Widgets:Qt5Widgets.dll
 0001:0001f11e       ?changeEvent@QGroupBox@@MAEXPAVQEvent@@@Z 0042011e f   Qt5Widgets:Qt5Widgets.dll
 0001:0001f124       ?changeEvent@QLabel@@MAEXPAVQEvent@@@Z 00420124 f   Qt5Widgets:Qt5Widgets.dll
 0001:0001f12a       ?changeEvent@QLineEdit@@MAEXPAVQEvent@@@Z 0042012a f   Qt5Widgets:Qt5Widgets.dll
 0001:0001f130       ?changeEvent@QMenu@@MAEXPAVQEvent@@@Z 00420130 f   Qt5Widgets:Qt5Widgets.dll
 0001:0001f136       ?changeEvent@QMenuBar@@MAEXPAVQEvent@@@Z 00420136 f   Qt5Widgets:Qt5Widgets.dll
 0001:0001f13c       ?changeEvent@QSplitter@@MAEXPAVQEvent@@@Z 0042013c f   Qt5Widgets:Qt5Widgets.dll
 0001:0001f142       ?changeEvent@QTextEdit@@MAEXPAVQEvent@@@Z 00420142 f   Qt5Widgets:Qt5Widgets.dll
 0001:0001f148       ?changeEvent@QToolBar@@MAEXPAVQEvent@@@Z 00420148 f   Qt5Widgets:Qt5Widgets.dll
 0001:0001f14e       ?changeEvent@QWidget@@MAEXPAVQEvent@@@Z 0042014e f   Qt5Widgets:Qt5Widgets.dll
 0001:0001f154       ?checkStateSet@QAbstractButton@@MAEXXZ 00420154 f   Qt5Widgets:Qt5Widgets.dll
 0001:0001f15a       ?checkStateSet@QCheckBox@@MAEXXZ 0042015a f   Qt5Widgets:Qt5Widgets.dll
 0001:0001f160       ?childEvent@QGroupBox@@MAEXPAVQChildEvent@@@Z 00420160 f   Qt5Widgets:Qt5Widgets.dll
 0001:0001f166       ?childEvent@QLayout@@MAEXPAVQChildEvent@@@Z 00420166 f   Qt5Widgets:Qt5Widgets.dll
 0001:0001f16c       ?childEvent@QSplitter@@MAEXPAVQChildEvent@@@Z 0042016c f   Qt5Widgets:Qt5Widgets.dll
 0001:0001f172       ?closeEditor@QAbstractItemView@@MAEXPAVQWidget@@W4EndEditHint@QAbstractItemDelegate@@@Z 00420172 f   Qt5Widgets:Qt5Widgets.dll
 0001:0001f178       ?closeEvent@QWidget@@MAEXPAVQCloseEvent@@@Z 00420178 f   Qt5Widgets:Qt5Widgets.dll
 0001:0001f17e       ?commitData@QAbstractItemView@@MAEXPAVQWidget@@@Z 0042017e f   Qt5Widgets:Qt5Widgets.dll
 0001:0001f184       ?contextMenuEvent@QAbstractScrollArea@@MAEXPAVQContextMenuEvent@@@Z 00420184 f   Qt5Widgets:Qt5Widgets.dll
 0001:0001f18a       ?contextMenuEvent@QLabel@@MAEXPAVQContextMenuEvent@@@Z 0042018a f   Qt5Widgets:Qt5Widgets.dll
 0001:0001f190       ?contextMenuEvent@QLineEdit@@MAEXPAVQContextMenuEvent@@@Z 00420190 f   Qt5Widgets:Qt5Widgets.dll
 0001:0001f196       ?contextMenuEvent@QMainWindow@@MAEXPAVQContextMenuEvent@@@Z 00420196 f   Qt5Widgets:Qt5Widgets.dll
 0001:0001f19c       ?contextMenuEvent@QTextEdit@@MAEXPAVQContextMenuEvent@@@Z 0042019c f   Qt5Widgets:Qt5Widgets.dll
 0001:0001f1a2       ?contextMenuEvent@QWidget@@MAEXPAVQContextMenuEvent@@@Z 004201a2 f   Qt5Widgets:Qt5Widgets.dll
 0001:0001f1a8       ?controlTypes@QLayout@@UBE?AV?$QFlags@W4ControlType@QSizePolicy@@@@XZ 004201a8 f   Qt5Widgets:Qt5Widgets.dll
 0001:0001f1ae       ?controlTypes@QLayoutItem@@UBE?AV?$QFlags@W4ControlType@QSizePolicy@@@@XZ 004201ae f   Qt5Widgets:Qt5Widgets.dll
 0001:0001f1b4       ?count@QBoxLayout@@UBEHXZ  004201b4 f   Qt5Widgets:Qt5Widgets.dll
 0001:0001f1ba       ?count@QFormLayout@@UBEHXZ 004201ba f   Qt5Widgets:Qt5Widgets.dll
 0001:0001f1c0       ?createHandle@QSplitter@@MAEPAVQSplitterHandle@@XZ 004201c0 f   Qt5Widgets:Qt5Widgets.dll
 0001:0001f1c6       ?createMimeDataFromSelection@QTextEdit@@MBEPAVQMimeData@@XZ 004201c6 f   Qt5Widgets:Qt5Widgets.dll
 0001:0001f1cc       ?createPopupMenu@QMainWindow@@UAEPAVQMenu@@XZ 004201cc f   Qt5Widgets:Qt5Widgets.dll
 0001:0001f1d2       ?currentChanged@QListView@@MAEXABVQModelIndex@@0@Z 004201d2 f   Qt5Widgets:Qt5Widgets.dll
 0001:0001f1d8       ?dataChanged@QListView@@MAEXABVQModelIndex@@0ABV?$QVector@H@@@Z 004201d8 f   Qt5Widgets:Qt5Widgets.dll
 0001:0001f1de       ?devType@QWidget@@UBEHXZ   004201de f   Qt5Widgets:Qt5Widgets.dll
 0001:0001f1e4       ?doItemsLayout@QListView@@UAEXXZ 004201e4 f   Qt5Widgets:Qt5Widgets.dll
 0001:0001f1ea       ?doSetTextCursor@QTextEdit@@MAEXABVQTextCursor@@@Z 004201ea f   Qt5Widgets:Qt5Widgets.dll
 0001:0001f1f0       ?dragEnterEvent@QAbstractItemView@@MAEXPAVQDragEnterEvent@@@Z 004201f0 f   Qt5Widgets:Qt5Widgets.dll
 0001:0001f1f6       ?dragEnterEvent@QLineEdit@@MAEXPAVQDragEnterEvent@@@Z 004201f6 f   Qt5Widgets:Qt5Widgets.dll
 0001:0001f1fc       ?dragEnterEvent@QTextEdit@@MAEXPAVQDragEnterEvent@@@Z 004201fc f   Qt5Widgets:Qt5Widgets.dll
 0001:0001f202       ?dragEnterEvent@QWidget@@MAEXPAVQDragEnterEvent@@@Z 00420202 f   Qt5Widgets:Qt5Widgets.dll
 0001:0001f208       ?dragLeaveEvent@QLineEdit@@MAEXPAVQDragLeaveEvent@@@Z 00420208 f   Qt5Widgets:Qt5Widgets.dll
 0001:0001f20e       ?dragLeaveEvent@QListView@@MAEXPAVQDragLeaveEvent@@@Z 0042020e f   Qt5Widgets:Qt5Widgets.dll
 0001:0001f214       ?dragLeaveEvent@QTextEdit@@MAEXPAVQDragLeaveEvent@@@Z 00420214 f   Qt5Widgets:Qt5Widgets.dll
 0001:0001f21a       ?dragLeaveEvent@QWidget@@MAEXPAVQDragLeaveEvent@@@Z 0042021a f   Qt5Widgets:Qt5Widgets.dll
 0001:0001f220       ?dragMoveEvent@QLineEdit@@MAEXPAVQDragMoveEvent@@@Z 00420220 f   Qt5Widgets:Qt5Widgets.dll
 0001:0001f226       ?dragMoveEvent@QListView@@MAEXPAVQDragMoveEvent@@@Z 00420226 f   Qt5Widgets:Qt5Widgets.dll
 0001:0001f22c       ?dragMoveEvent@QTextEdit@@MAEXPAVQDragMoveEvent@@@Z 0042022c f   Qt5Widgets:Qt5Widgets.dll
 0001:0001f232       ?dragMoveEvent@QWidget@@MAEXPAVQDragMoveEvent@@@Z 00420232 f   Qt5Widgets:Qt5Widgets.dll
 0001:0001f238       ?dropEvent@QLineEdit@@MAEXPAVQDropEvent@@@Z 00420238 f   Qt5Widgets:Qt5Widgets.dll
 0001:0001f23e       ?dropEvent@QListWidget@@UAEXPAVQDropEvent@@@Z 0042023e f   Qt5Widgets:Qt5Widgets.dll
 0001:0001f244       ?dropEvent@QTextEdit@@MAEXPAVQDropEvent@@@Z 00420244 f   Qt5Widgets:Qt5Widgets.dll
 0001:0001f24a       ?dropEvent@QWidget@@MAEXPAVQDropEvent@@@Z 0042024a f   Qt5Widgets:Qt5Widgets.dll
 0001:0001f250       ?dropMimeData@QListWidget@@MAE_NHPBVQMimeData@@W4DropAction@Qt@@@Z 00420250 f   Qt5Widgets:Qt5Widgets.dll
 0001:0001f256       ?edit@QAbstractItemView@@MAE_NABVQModelIndex@@W4EditTrigger@1@PAVQEvent@@@Z 00420256 f   Qt5Widgets:Qt5Widgets.dll
 0001:0001f25c       ?editorDestroyed@QAbstractItemView@@MAEXPAVQObject@@@Z 0042025c f   Qt5Widgets:Qt5Widgets.dll
 0001:0001f262       ?enterEvent@QMenu@@MAEXPAVQEvent@@@Z 00420262 f   Qt5Widgets:Qt5Widgets.dll
 0001:0001f268       ?enterEvent@QWidget@@MAEXPAVQEvent@@@Z 00420268 f   Qt5Widgets:Qt5Widgets.dll
 0001:0001f26e       ?event@QAction@@MAE_NPAVQEvent@@@Z 0042026e f   Qt5Widgets:Qt5Widgets.dll
 0001:0001f274       ?event@QCheckBox@@MAE_NPAVQEvent@@@Z 00420274 f   Qt5Widgets:Qt5Widgets.dll
 0001:0001f27a       ?event@QDialogButtonBox@@MAE_NPAVQEvent@@@Z 0042027a f   Qt5Widgets:Qt5Widgets.dll
 0001:0001f280       ?event@QGroupBox@@MAE_NPAVQEvent@@@Z 00420280 f   Qt5Widgets:Qt5Widgets.dll
 0001:0001f286       ?event@QLabel@@MAE_NPAVQEvent@@@Z 00420286 f   Qt5Widgets:Qt5Widgets.dll
 0001:0001f28c       ?event@QLineEdit@@UAE_NPAVQEvent@@@Z 0042028c f   Qt5Widgets:Qt5Widgets.dll
 0001:0001f292       ?event@QListWidget@@MAE_NPAVQEvent@@@Z 00420292 f   Qt5Widgets:Qt5Widgets.dll
 0001:0001f298       ?event@QMainWindow@@MAE_NPAVQEvent@@@Z 00420298 f   Qt5Widgets:Qt5Widgets.dll
 0001:0001f29e       ?event@QMenu@@MAE_NPAVQEvent@@@Z 0042029e f   Qt5Widgets:Qt5Widgets.dll
 0001:0001f2a4       ?event@QMenuBar@@MAE_NPAVQEvent@@@Z 004202a4 f   Qt5Widgets:Qt5Widgets.dll
 0001:0001f2aa       ?event@QPushButton@@MAE_NPAVQEvent@@@Z 004202aa f   Qt5Widgets:Qt5Widgets.dll
 0001:0001f2b0       ?event@QSplitter@@MAE_NPAVQEvent@@@Z 004202b0 f   Qt5Widgets:Qt5Widgets.dll
 0001:0001f2b6       ?event@QStatusBar@@MAE_NPAVQEvent@@@Z 004202b6 f   Qt5Widgets:Qt5Widgets.dll
 0001:0001f2bc       ?event@QTextEdit@@MAE_NPAVQEvent@@@Z 004202bc f   Qt5Widgets:Qt5Widgets.dll
 0001:0001f2c2       ?event@QToolBar@@MAE_NPAVQEvent@@@Z 004202c2 f   Qt5Widgets:Qt5Widgets.dll
 0001:0001f2c8       ?event@QWidget@@MAE_NPAVQEvent@@@Z 004202c8 f   Qt5Widgets:Qt5Widgets.dll
 0001:0001f2ce       ?eventFilter@QAbstractScrollArea@@MAE_NPAVQObject@@PAVQEvent@@@Z 004202ce f   Qt5Widgets:Qt5Widgets.dll
 0001:0001f2d4       ?eventFilter@QMenuBar@@MAE_NPAVQObject@@PAVQEvent@@@Z 004202d4 f   Qt5Widgets:Qt5Widgets.dll
 0001:0001f2da       ?expandingDirections@QBoxLayout@@UBE?AV?$QFlags@W4Orientation@Qt@@@@XZ 004202da f   Qt5Widgets:Qt5Widgets.dll
 0001:0001f2e0       ?expandingDirections@QFormLayout@@UBE?AV?$QFlags@W4Orientation@Qt@@@@XZ 004202e0 f   Qt5Widgets:Qt5Widgets.dll
 0001:0001f2e6       ?expandingDirections@QSpacerItem@@UBE?AV?$QFlags@W4Orientation@Qt@@@@XZ 004202e6 f   Qt5Widgets:Qt5Widgets.dll
 0001:0001f2ec       ?focusInEvent@QAbstractButton@@MAEXPAVQFocusEvent@@@Z 004202ec f   Qt5Widgets:Qt5Widgets.dll
 0001:0001f2f2       ?focusInEvent@QAbstractItemView@@MAEXPAVQFocusEvent@@@Z 004202f2 f   Qt5Widgets:Qt5Widgets.dll
 0001:0001f2f8       ?focusInEvent@QGroupBox@@MAEXPAVQFocusEvent@@@Z 004202f8 f   Qt5Widgets:Qt5Widgets.dll
 0001:0001f2fe       ?focusInEvent@QLabel@@MAEXPAVQFocusEvent@@@Z 004202fe f   Qt5Widgets:Qt5Widgets.dll
 0001:0001f304       ?focusInEvent@QLineEdit@@MAEXPAVQFocusEvent@@@Z 00420304 f   Qt5Widgets:Qt5Widgets.dll
 0001:0001f30a       ?focusInEvent@QMenuBar@@MAEXPAVQFocusEvent@@@Z 0042030a f   Qt5Widgets:Qt5Widgets.dll
 0001:0001f310       ?focusInEvent@QPushButton@@MAEXPAVQFocusEvent@@@Z 00420310 f   Qt5Widgets:Qt5Widgets.dll
 0001:0001f316       ?focusInEvent@QTextEdit@@MAEXPAVQFocusEvent@@@Z 00420316 f   Qt5Widgets:Qt5Widgets.dll
 0001:0001f31c       ?focusInEvent@QWidget@@MAEXPAVQFocusEvent@@@Z 0042031c f   Qt5Widgets:Qt5Widgets.dll
 0001:0001f322       ?focusNextPrevChild@QAbstractItemView@@MAE_N_N@Z 00420322 f   Qt5Widgets:Qt5Widgets.dll
 0001:0001f328       ?focusNextPrevChild@QLabel@@MAE_N_N@Z 00420328 f   Qt5Widgets:Qt5Widgets.dll
 0001:0001f32e       ?focusNextPrevChild@QMenu@@MAE_N_N@Z 0042032e f   Qt5Widgets:Qt5Widgets.dll
 0001:0001f334       ?focusNextPrevChild@QTextEdit@@MAE_N_N@Z 00420334 f   Qt5Widgets:Qt5Widgets.dll
 0001:0001f33a       ?focusNextPrevChild@QWidget@@MAE_N_N@Z 0042033a f   Qt5Widgets:Qt5Widgets.dll
 0001:0001f340       ?focusOutEvent@QAbstractButton@@MAEXPAVQFocusEvent@@@Z 00420340 f   Qt5Widgets:Qt5Widgets.dll
 0001:0001f346       ?focusOutEvent@QAbstractItemView@@MAEXPAVQFocusEvent@@@Z 00420346 f   Qt5Widgets:Qt5Widgets.dll
 0001:0001f34c       ?focusOutEvent@QLabel@@MAEXPAVQFocusEvent@@@Z 0042034c f   Qt5Widgets:Qt5Widgets.dll
 0001:0001f352       ?focusOutEvent@QLineEdit@@MAEXPAVQFocusEvent@@@Z 00420352 f   Qt5Widgets:Qt5Widgets.dll
 0001:0001f358       ?focusOutEvent@QMenuBar@@MAEXPAVQFocusEvent@@@Z 00420358 f   Qt5Widgets:Qt5Widgets.dll
 0001:0001f35e       ?focusOutEvent@QPushButton@@MAEXPAVQFocusEvent@@@Z 0042035e f   Qt5Widgets:Qt5Widgets.dll
 0001:0001f364       ?focusOutEvent@QTextEdit@@MAEXPAVQFocusEvent@@@Z 00420364 f   Qt5Widgets:Qt5Widgets.dll
 0001:0001f36a       ?focusOutEvent@QWidget@@MAEXPAVQFocusEvent@@@Z 0042036a f   Qt5Widgets:Qt5Widgets.dll
 0001:0001f370       ?geometry@QLayout@@UBE?AVQRect@@XZ 00420370 f   Qt5Widgets:Qt5Widgets.dll
 0001:0001f376       ?geometry@QSpacerItem@@UBE?AVQRect@@XZ 00420376 f   Qt5Widgets:Qt5Widgets.dll
 0001:0001f37c       ?hasHeightForWidth@QBoxLayout@@UBE_NXZ 0042037c f   Qt5Widgets:Qt5Widgets.dll
 0001:0001f382       ?hasHeightForWidth@QFormLayout@@UBE_NXZ 00420382 f   Qt5Widgets:Qt5Widgets.dll
 0001:0001f388       ?hasHeightForWidth@QLayoutItem@@UBE_NXZ 00420388 f   Qt5Widgets:Qt5Widgets.dll
 0001:0001f38e       ?hasHeightForWidth@QWidget@@UBE_NXZ 0042038e f   Qt5Widgets:Qt5Widgets.dll
 0001:0001f394       ?heightForWidth@QBoxLayout@@UBEHH@Z 00420394 f   Qt5Widgets:Qt5Widgets.dll
 0001:0001f39a       ?heightForWidth@QFormLayout@@UBEHH@Z 0042039a f   Qt5Widgets:Qt5Widgets.dll
 0001:0001f3a0       ?heightForWidth@QLabel@@UBEHH@Z 004203a0 f   Qt5Widgets:Qt5Widgets.dll
 0001:0001f3a6       ?heightForWidth@QLayoutItem@@UBEHH@Z 004203a6 f   Qt5Widgets:Qt5Widgets.dll
 0001:0001f3ac       ?heightForWidth@QMenuBar@@UBEHH@Z 004203ac f   Qt5Widgets:Qt5Widgets.dll
 0001:0001f3b2       ?heightForWidth@QWidget@@UBEHH@Z 004203b2 f   Qt5Widgets:Qt5Widgets.dll
 0001:0001f3b8       ?hideEvent@QMenu@@MAEXPAVQHideEvent@@@Z 004203b8 f   Qt5Widgets:Qt5Widgets.dll
 0001:0001f3be       ?hideEvent@QWidget@@MAEXPAVQHideEvent@@@Z 004203be f   Qt5Widgets:Qt5Widgets.dll
 0001:0001f3c4       ?hitButton@QAbstractButton@@MBE_NABVQPoint@@@Z 004203c4 f   Qt5Widgets:Qt5Widgets.dll
 0001:0001f3ca       ?hitButton@QCheckBox@@MBE_NABVQPoint@@@Z 004203ca f   Qt5Widgets:Qt5Widgets.dll
 0001:0001f3d0       ?horizontalOffset@QListView@@MBEHXZ 004203d0 f   Qt5Widgets:Qt5Widgets.dll
 0001:0001f3d6       ?horizontalScrollbarAction@QAbstractItemView@@MAEXH@Z 004203d6 f   Qt5Widgets:Qt5Widgets.dll
 0001:0001f3dc       ?horizontalScrollbarValueChanged@QAbstractItemView@@MAEXH@Z 004203dc f   Qt5Widgets:Qt5Widgets.dll
 0001:0001f3e2       ?indexAt@QListView@@UBE?AVQModelIndex@@ABVQPoint@@@Z 004203e2 f   Qt5Widgets:Qt5Widgets.dll
 0001:0001f3e8       ?indexOf@QLayout@@UBEHPAVQWidget@@@Z 004203e8 f   Qt5Widgets:Qt5Widgets.dll
 0001:0001f3ee       ?initPainter@QWidget@@MBEXPAVQPainter@@@Z 004203ee f   Qt5Widgets:Qt5Widgets.dll
 0001:0001f3f4       ?inputMethodEvent@QAbstractItemView@@MAEXPAVQInputMethodEvent@@@Z 004203f4 f   Qt5Widgets:Qt5Widgets.dll
 0001:0001f3fa       ?inputMethodEvent@QLineEdit@@MAEXPAVQInputMethodEvent@@@Z 004203fa f   Qt5Widgets:Qt5Widgets.dll
 0001:0001f400       ?inputMethodEvent@QTextEdit@@MAEXPAVQInputMethodEvent@@@Z 00420400 f   Qt5Widgets:Qt5Widgets.dll
 0001:0001f406       ?inputMethodEvent@QWidget@@MAEXPAVQInputMethodEvent@@@Z 00420406 f   Qt5Widgets:Qt5Widgets.dll
 0001:0001f40c       ?inputMethodQuery@QAbstractItemView@@UBE?AVQVariant@@W4InputMethodQuery@Qt@@@Z 0042040c f   Qt5Widgets:Qt5Widgets.dll
 0001:0001f412       ?inputMethodQuery@QLineEdit@@UBE?AVQVariant@@W4InputMethodQuery@Qt@@@Z 00420412 f   Qt5Widgets:Qt5Widgets.dll
 0001:0001f418       ?inputMethodQuery@QTextEdit@@UBE?AVQVariant@@W4InputMethodQuery@Qt@@@Z 00420418 f   Qt5Widgets:Qt5Widgets.dll
 0001:0001f41e       ?inputMethodQuery@QWidget@@UBE?AVQVariant@@W4InputMethodQuery@Qt@@@Z 0042041e f   Qt5Widgets:Qt5Widgets.dll
 0001:0001f424       ?insertFromMimeData@QTextEdit@@MAEXPBVQMimeData@@@Z 00420424 f   Qt5Widgets:Qt5Widgets.dll
 0001:0001f42a       ?invalidate@QBoxLayout@@UAEXXZ 0042042a f   Qt5Widgets:Qt5Widgets.dll
 0001:0001f430       ?invalidate@QFormLayout@@UAEXXZ 00420430 f   Qt5Widgets:Qt5Widgets.dll
 0001:0001f436       ?invalidate@QLayoutItem@@UAEXXZ 00420436 f   Qt5Widgets:Qt5Widgets.dll
 0001:0001f43c       ?isEmpty@QLayout@@UBE_NXZ  0042043c f   Qt5Widgets:Qt5Widgets.dll
 0001:0001f442       ?isEmpty@QSpacerItem@@UBE_NXZ 00420442 f   Qt5Widgets:Qt5Widgets.dll
 0001:0001f448       ?isIndexHidden@QListView@@MBE_NABVQModelIndex@@@Z 00420448 f   Qt5Widgets:Qt5Widgets.dll
 0001:0001f44e       ?itemAt@QBoxLayout@@UBEPAVQLayoutItem@@H@Z 0042044e f   Qt5Widgets:Qt5Widgets.dll
 0001:0001f454       ?itemAt@QFormLayout@@UBEPAVQLayoutItem@@H@Z 00420454 f   Qt5Widgets:Qt5Widgets.dll
 0001:0001f45a       ?keyPressEvent@QAbstractButton@@MAEXPAVQKeyEvent@@@Z 0042045a f   Qt5Widgets:Qt5Widgets.dll
 0001:0001f460       ?keyPressEvent@QAbstractItemView@@MAEXPAVQKeyEvent@@@Z 00420460 f   Qt5Widgets:Qt5Widgets.dll
 0001:0001f466       ?keyPressEvent@QLabel@@MAEXPAVQKeyEvent@@@Z 00420466 f   Qt5Widgets:Qt5Widgets.dll
 0001:0001f46c       ?keyPressEvent@QLineEdit@@MAEXPAVQKeyEvent@@@Z 0042046c f   Qt5Widgets:Qt5Widgets.dll
 0001:0001f472       ?keyPressEvent@QMenu@@MAEXPAVQKeyEvent@@@Z 00420472 f   Qt5Widgets:Qt5Widgets.dll
 0001:0001f478       ?keyPressEvent@QMenuBar@@MAEXPAVQKeyEvent@@@Z 00420478 f   Qt5Widgets:Qt5Widgets.dll
 0001:0001f47e       ?keyPressEvent@QPushButton@@MAEXPAVQKeyEvent@@@Z 0042047e f   Qt5Widgets:Qt5Widgets.dll
 0001:0001f484       ?keyPressEvent@QTextEdit@@MAEXPAVQKeyEvent@@@Z 00420484 f   Qt5Widgets:Qt5Widgets.dll
 0001:0001f48a       ?keyPressEvent@QWidget@@MAEXPAVQKeyEvent@@@Z 0042048a f   Qt5Widgets:Qt5Widgets.dll
 0001:0001f490       ?keyReleaseEvent@QAbstractButton@@MAEXPAVQKeyEvent@@@Z 00420490 f   Qt5Widgets:Qt5Widgets.dll
 0001:0001f496       ?keyReleaseEvent@QTextEdit@@MAEXPAVQKeyEvent@@@Z 00420496 f   Qt5Widgets:Qt5Widgets.dll
 0001:0001f49c       ?keyReleaseEvent@QWidget@@MAEXPAVQKeyEvent@@@Z 0042049c f   Qt5Widgets:Qt5Widgets.dll
 0001:0001f4a2       ?keyboardSearch@QAbstractItemView@@UAEXABVQString@@@Z 004204a2 f   Qt5Widgets:Qt5Widgets.dll
 0001:0001f4a8       ?layout@QLayout@@UAEPAV1@XZ 004204a8 f   Qt5Widgets:Qt5Widgets.dll
 0001:0001f4ae       ?layout@QLayoutItem@@UAEPAVQLayout@@XZ 004204ae f   Qt5Widgets:Qt5Widgets.dll
 0001:0001f4b4       ?leaveEvent@QMenu@@MAEXPAVQEvent@@@Z 004204b4 f   Qt5Widgets:Qt5Widgets.dll
 0001:0001f4ba       ?leaveEvent@QMenuBar@@MAEXPAVQEvent@@@Z 004204ba f   Qt5Widgets:Qt5Widgets.dll
 0001:0001f4c0       ?leaveEvent@QWidget@@MAEXPAVQEvent@@@Z 004204c0 f   Qt5Widgets:Qt5Widgets.dll
 0001:0001f4c6       ?loadResource@QTextEdit@@UAE?AVQVariant@@HABVQUrl@@@Z 004204c6 f   Qt5Widgets:Qt5Widgets.dll
 0001:0001f4cc       ?maximumSize@QBoxLayout@@UBE?AVQSize@@XZ 004204cc f   Qt5Widgets:Qt5Widgets.dll
 0001:0001f4d2       ?maximumSize@QLayout@@UBE?AVQSize@@XZ 004204d2 f   Qt5Widgets:Qt5Widgets.dll
 0001:0001f4d8       ?maximumSize@QSpacerItem@@UBE?AVQSize@@XZ 004204d8 f   Qt5Widgets:Qt5Widgets.dll
 0001:0001f4de       ?metaObject@QAction@@UBEPBUQMetaObject@@XZ 004204de f   Qt5Widgets:Qt5Widgets.dll
 0001:0001f4e4       ?metaObject@QCheckBox@@UBEPBUQMetaObject@@XZ 004204e4 f   Qt5Widgets:Qt5Widgets.dll
 0001:0001f4ea       ?metaObject@QDialogButtonBox@@UBEPBUQMetaObject@@XZ 004204ea f   Qt5Widgets:Qt5Widgets.dll
 0001:0001f4f0       ?metaObject@QFormLayout@@UBEPBUQMetaObject@@XZ 004204f0 f   Qt5Widgets:Qt5Widgets.dll
 0001:0001f4f6       ?metaObject@QGroupBox@@UBEPBUQMetaObject@@XZ 004204f6 f   Qt5Widgets:Qt5Widgets.dll
 0001:0001f4fc       ?metaObject@QHBoxLayout@@UBEPBUQMetaObject@@XZ 004204fc f   Qt5Widgets:Qt5Widgets.dll
 0001:0001f502       ?metaObject@QLabel@@UBEPBUQMetaObject@@XZ 00420502 f   Qt5Widgets:Qt5Widgets.dll
 0001:0001f508       ?metaObject@QLineEdit@@UBEPBUQMetaObject@@XZ 00420508 f   Qt5Widgets:Qt5Widgets.dll
 0001:0001f50e       ?metaObject@QListWidget@@UBEPBUQMetaObject@@XZ 0042050e f   Qt5Widgets:Qt5Widgets.dll
 0001:0001f514       ?metaObject@QMenu@@UBEPBUQMetaObject@@XZ 00420514 f   Qt5Widgets:Qt5Widgets.dll
 0001:0001f51a       ?metaObject@QMenuBar@@UBEPBUQMetaObject@@XZ 0042051a f   Qt5Widgets:Qt5Widgets.dll
 0001:0001f520       ?metaObject@QPushButton@@UBEPBUQMetaObject@@XZ 00420520 f   Qt5Widgets:Qt5Widgets.dll
 0001:0001f526       ?metaObject@QSplitter@@UBEPBUQMetaObject@@XZ 00420526 f   Qt5Widgets:Qt5Widgets.dll
 0001:0001f52c       ?metaObject@QStatusBar@@UBEPBUQMetaObject@@XZ 0042052c f   Qt5Widgets:Qt5Widgets.dll
 0001:0001f532       ?metaObject@QTextEdit@@UBEPBUQMetaObject@@XZ 00420532 f   Qt5Widgets:Qt5Widgets.dll
 0001:0001f538       ?metaObject@QToolBar@@UBEPBUQMetaObject@@XZ 00420538 f   Qt5Widgets:Qt5Widgets.dll
 0001:0001f53e       ?metaObject@QVBoxLayout@@UBEPBUQMetaObject@@XZ 0042053e f   Qt5Widgets:Qt5Widgets.dll
 0001:0001f544       ?metaObject@QWidget@@UBEPBUQMetaObject@@XZ 00420544 f   Qt5Widgets:Qt5Widgets.dll
 0001:0001f54a       ?metric@QWidget@@MBEHW4PaintDeviceMetric@QPaintDevice@@@Z 0042054a f   Qt5Widgets:Qt5Widgets.dll
 0001:0001f550       ?mimeData@QListWidget@@MBEPAVQMimeData@@V?$QList@PAVQListWidgetItem@@@@@Z 00420550 f   Qt5Widgets:Qt5Widgets.dll
 0001:0001f556       ?mimeTypes@QListWidget@@MBE?AVQStringList@@XZ 00420556 f   Qt5Widgets:Qt5Widgets.dll
 0001:0001f55c       ?minimumHeightForWidth@QBoxLayout@@UBEHH@Z 0042055c f   Qt5Widgets:Qt5Widgets.dll
 0001:0001f562       ?minimumHeightForWidth@QLayoutItem@@UBEHH@Z 00420562 f   Qt5Widgets:Qt5Widgets.dll
 0001:0001f568       ?minimumSize@QBoxLayout@@UBE?AVQSize@@XZ 00420568 f   Qt5Widgets:Qt5Widgets.dll
 0001:0001f56e       ?minimumSize@QFormLayout@@UBE?AVQSize@@XZ 0042056e f   Qt5Widgets:Qt5Widgets.dll
 0001:0001f574       ?minimumSize@QSpacerItem@@UBE?AVQSize@@XZ 00420574 f   Qt5Widgets:Qt5Widgets.dll
 0001:0001f57a       ?minimumSizeHint@QAbstractScrollArea@@UBE?AVQSize@@XZ 0042057a f   Qt5Widgets:Qt5Widgets.dll
 0001:0001f580       ?minimumSizeHint@QCheckBox@@UBE?AVQSize@@XZ 00420580 f   Qt5Widgets:Qt5Widgets.dll
 0001:0001f586       ?minimumSizeHint@QGroupBox@@UBE?AVQSize@@XZ 00420586 f   Qt5Widgets:Qt5Widgets.dll
 0001:0001f58c       ?minimumSizeHint@QLabel@@UBE?AVQSize@@XZ 0042058c f   Qt5Widgets:Qt5Widgets.dll
 0001:0001f592       ?minimumSizeHint@QLineEdit@@UBE?AVQSize@@XZ 00420592 f   Qt5Widgets:Qt5Widgets.dll
 0001:0001f598       ?minimumSizeHint@QMenuBar@@UBE?AVQSize@@XZ 00420598 f   Qt5Widgets:Qt5Widgets.dll
 0001:0001f59e       ?minimumSizeHint@QPushButton@@UBE?AVQSize@@XZ 0042059e f   Qt5Widgets:Qt5Widgets.dll
 0001:0001f5a4       ?minimumSizeHint@QSplitter@@UBE?AVQSize@@XZ 004205a4 f   Qt5Widgets:Qt5Widgets.dll
 0001:0001f5aa       ?minimumSizeHint@QWidget@@UBE?AVQSize@@XZ 004205aa f   Qt5Widgets:Qt5Widgets.dll
 0001:0001f5b0       ?mouseDoubleClickEvent@QAbstractItemView@@MAEXPAVQMouseEvent@@@Z 004205b0 f   Qt5Widgets:Qt5Widgets.dll
 0001:0001f5b6       ?mouseDoubleClickEvent@QLineEdit@@MAEXPAVQMouseEvent@@@Z 004205b6 f   Qt5Widgets:Qt5Widgets.dll
 0001:0001f5bc       ?mouseDoubleClickEvent@QTextEdit@@MAEXPAVQMouseEvent@@@Z 004205bc f   Qt5Widgets:Qt5Widgets.dll
 0001:0001f5c2       ?mouseDoubleClickEvent@QWidget@@MAEXPAVQMouseEvent@@@Z 004205c2 f   Qt5Widgets:Qt5Widgets.dll
 0001:0001f5c8       ?mouseMoveEvent@QAbstractButton@@MAEXPAVQMouseEvent@@@Z 004205c8 f   Qt5Widgets:Qt5Widgets.dll
 0001:0001f5ce       ?mouseMoveEvent@QCheckBox@@MAEXPAVQMouseEvent@@@Z 004205ce f   Qt5Widgets:Qt5Widgets.dll
 0001:0001f5d4       ?mouseMoveEvent@QGroupBox@@MAEXPAVQMouseEvent@@@Z 004205d4 f   Qt5Widgets:Qt5Widgets.dll
 0001:0001f5da       ?mouseMoveEvent@QLabel@@MAEXPAVQMouseEvent@@@Z 004205da f   Qt5Widgets:Qt5Widgets.dll
 0001:0001f5e0       ?mouseMoveEvent@QLineEdit@@MAEXPAVQMouseEvent@@@Z 004205e0 f   Qt5Widgets:Qt5Widgets.dll
 0001:0001f5e6       ?mouseMoveEvent@QListView@@MAEXPAVQMouseEvent@@@Z 004205e6 f   Qt5Widgets:Qt5Widgets.dll
 0001:0001f5ec       ?mouseMoveEvent@QMenu@@MAEXPAVQMouseEvent@@@Z 004205ec f   Qt5Widgets:Qt5Widgets.dll
 0001:0001f5f2       ?mouseMoveEvent@QMenuBar@@MAEXPAVQMouseEvent@@@Z 004205f2 f   Qt5Widgets:Qt5Widgets.dll
 0001:0001f5f8       ?mouseMoveEvent@QTextEdit@@MAEXPAVQMouseEvent@@@Z 004205f8 f   Qt5Widgets:Qt5Widgets.dll
 0001:0001f5fe       ?mouseMoveEvent@QWidget@@MAEXPAVQMouseEvent@@@Z 004205fe f   Qt5Widgets:Qt5Widgets.dll
 0001:0001f604       ?mousePressEvent@QAbstractButton@@MAEXPAVQMouseEvent@@@Z 00420604 f   Qt5Widgets:Qt5Widgets.dll
 0001:0001f60a       ?mousePressEvent@QAbstractItemView@@MAEXPAVQMouseEvent@@@Z 0042060a f   Qt5Widgets:Qt5Widgets.dll
 0001:0001f610       ?mousePressEvent@QGroupBox@@MAEXPAVQMouseEvent@@@Z 00420610 f   Qt5Widgets:Qt5Widgets.dll
 0001:0001f616       ?mousePressEvent@QLabel@@MAEXPAVQMouseEvent@@@Z 00420616 f   Qt5Widgets:Qt5Widgets.dll
 0001:0001f61c       ?mousePressEvent@QLineEdit@@MAEXPAVQMouseEvent@@@Z 0042061c f   Qt5Widgets:Qt5Widgets.dll
 0001:0001f622       ?mousePressEvent@QMenu@@MAEXPAVQMouseEvent@@@Z 00420622 f   Qt5Widgets:Qt5Widgets.dll
 0001:0001f628       ?mousePressEvent@QMenuBar@@MAEXPAVQMouseEvent@@@Z 00420628 f   Qt5Widgets:Qt5Widgets.dll
 0001:0001f62e       ?mousePressEvent@QTextEdit@@MAEXPAVQMouseEvent@@@Z 0042062e f   Qt5Widgets:Qt5Widgets.dll
 0001:0001f634       ?mousePressEvent@QWidget@@MAEXPAVQMouseEvent@@@Z 00420634 f   Qt5Widgets:Qt5Widgets.dll
 0001:0001f63a       ?mouseReleaseEvent@QAbstractButton@@MAEXPAVQMouseEvent@@@Z 0042063a f   Qt5Widgets:Qt5Widgets.dll
 0001:0001f640       ?mouseReleaseEvent@QGroupBox@@MAEXPAVQMouseEvent@@@Z 00420640 f   Qt5Widgets:Qt5Widgets.dll
 0001:0001f646       ?mouseReleaseEvent@QLabel@@MAEXPAVQMouseEvent@@@Z 00420646 f   Qt5Widgets:Qt5Widgets.dll
 0001:0001f64c       ?mouseReleaseEvent@QLineEdit@@MAEXPAVQMouseEvent@@@Z 0042064c f   Qt5Widgets:Qt5Widgets.dll
 0001:0001f652       ?mouseReleaseEvent@QListView@@MAEXPAVQMouseEvent@@@Z 00420652 f   Qt5Widgets:Qt5Widgets.dll
 0001:0001f658       ?mouseReleaseEvent@QMenu@@MAEXPAVQMouseEvent@@@Z 00420658 f   Qt5Widgets:Qt5Widgets.dll
 0001:0001f65e       ?mouseReleaseEvent@QMenuBar@@MAEXPAVQMouseEvent@@@Z 0042065e f   Qt5Widgets:Qt5Widgets.dll
 0001:0001f664       ?mouseReleaseEvent@QTextEdit@@MAEXPAVQMouseEvent@@@Z 00420664 f   Qt5Widgets:Qt5Widgets.dll
 0001:0001f66a       ?mouseReleaseEvent@QWidget@@MAEXPAVQMouseEvent@@@Z 0042066a f   Qt5Widgets:Qt5Widgets.dll
 0001:0001f670       ?moveCursor@QListView@@MAE?AVQModelIndex@@W4CursorAction@QAbstractItemView@@V?$QFlags@W4KeyboardModifier@Qt@@@@@Z 00420670 f   Qt5Widgets:Qt5Widgets.dll
 0001:0001f676       ?moveEvent@QWidget@@MAEXPAVQMoveEvent@@@Z 00420676 f   Qt5Widgets:Qt5Widgets.dll
 0001:0001f67c       ?nativeEvent@QWidget@@MAE_NABVQByteArray@@PAXPAJ@Z 0042067c f   Qt5Widgets:Qt5Widgets.dll
 0001:0001f682       ?nextCheckState@QAbstractButton@@MAEXXZ 00420682 f   Qt5Widgets:Qt5Widgets.dll
 0001:0001f688       ?nextCheckState@QCheckBox@@MAEXXZ 00420688 f   Qt5Widgets:Qt5Widgets.dll
 0001:0001f68e       ?paintEngine@QWidget@@UBEPAVQPaintEngine@@XZ 0042068e f   Qt5Widgets:Qt5Widgets.dll
 0001:0001f694       ?paintEvent@QCheckBox@@MAEXPAVQPaintEvent@@@Z 00420694 f   Qt5Widgets:Qt5Widgets.dll
 0001:0001f69a       ?paintEvent@QFrame@@MAEXPAVQPaintEvent@@@Z 0042069a f   Qt5Widgets:Qt5Widgets.dll
 0001:0001f6a0       ?paintEvent@QGroupBox@@MAEXPAVQPaintEvent@@@Z 004206a0 f   Qt5Widgets:Qt5Widgets.dll
 0001:0001f6a6       ?paintEvent@QLabel@@MAEXPAVQPaintEvent@@@Z 004206a6 f   Qt5Widgets:Qt5Widgets.dll
 0001:0001f6ac       ?paintEvent@QLineEdit@@MAEXPAVQPaintEvent@@@Z 004206ac f   Qt5Widgets:Qt5Widgets.dll
 0001:0001f6b2       ?paintEvent@QListView@@MAEXPAVQPaintEvent@@@Z 004206b2 f   Qt5Widgets:Qt5Widgets.dll
 0001:0001f6b8       ?paintEvent@QMenu@@MAEXPAVQPaintEvent@@@Z 004206b8 f   Qt5Widgets:Qt5Widgets.dll
 0001:0001f6be       ?paintEvent@QMenuBar@@MAEXPAVQPaintEvent@@@Z 004206be f   Qt5Widgets:Qt5Widgets.dll
 0001:0001f6c4       ?paintEvent@QPushButton@@MAEXPAVQPaintEvent@@@Z 004206c4 f   Qt5Widgets:Qt5Widgets.dll
 0001:0001f6ca       ?paintEvent@QStatusBar@@MAEXPAVQPaintEvent@@@Z 004206ca f   Qt5Widgets:Qt5Widgets.dll
 0001:0001f6d0       ?paintEvent@QTextEdit@@MAEXPAVQPaintEvent@@@Z 004206d0 f   Qt5Widgets:Qt5Widgets.dll
 0001:0001f6d6       ?paintEvent@QToolBar@@MAEXPAVQPaintEvent@@@Z 004206d6 f   Qt5Widgets:Qt5Widgets.dll
 0001:0001f6dc       ?paintEvent@QWidget@@MAEXPAVQPaintEvent@@@Z 004206dc f   Qt5Widgets:Qt5Widgets.dll
 0001:0001f6e2       ?qt_metacall@QAction@@UAEHW4Call@QMetaObject@@HPAPAX@Z 004206e2 f   Qt5Widgets:Qt5Widgets.dll
 0001:0001f6e8       ?qt_metacall@QCheckBox@@UAEHW4Call@QMetaObject@@HPAPAX@Z 004206e8 f   Qt5Widgets:Qt5Widgets.dll
 0001:0001f6ee       ?qt_metacall@QDialogButtonBox@@UAEHW4Call@QMetaObject@@HPAPAX@Z 004206ee f   Qt5Widgets:Qt5Widgets.dll
 0001:0001f6f4       ?qt_metacall@QFormLayout@@UAEHW4Call@QMetaObject@@HPAPAX@Z 004206f4 f   Qt5Widgets:Qt5Widgets.dll
 0001:0001f6fa       ?qt_metacall@QGroupBox@@UAEHW4Call@QMetaObject@@HPAPAX@Z 004206fa f   Qt5Widgets:Qt5Widgets.dll
 0001:0001f700       ?qt_metacall@QHBoxLayout@@UAEHW4Call@QMetaObject@@HPAPAX@Z 00420700 f   Qt5Widgets:Qt5Widgets.dll
 0001:0001f706       ?qt_metacall@QLabel@@UAEHW4Call@QMetaObject@@HPAPAX@Z 00420706 f   Qt5Widgets:Qt5Widgets.dll
 0001:0001f70c       ?qt_metacall@QLineEdit@@UAEHW4Call@QMetaObject@@HPAPAX@Z 0042070c f   Qt5Widgets:Qt5Widgets.dll
 0001:0001f712       ?qt_metacall@QListWidget@@UAEHW4Call@QMetaObject@@HPAPAX@Z 00420712 f   Qt5Widgets:Qt5Widgets.dll
 0001:0001f718       ?qt_metacall@QMenu@@UAEHW4Call@QMetaObject@@HPAPAX@Z 00420718 f   Qt5Widgets:Qt5Widgets.dll
 0001:0001f71e       ?qt_metacall@QMenuBar@@UAEHW4Call@QMetaObject@@HPAPAX@Z 0042071e f   Qt5Widgets:Qt5Widgets.dll
 0001:0001f724       ?qt_metacall@QPushButton@@UAEHW4Call@QMetaObject@@HPAPAX@Z 00420724 f   Qt5Widgets:Qt5Widgets.dll
 0001:0001f72a       ?qt_metacall@QSplitter@@UAEHW4Call@QMetaObject@@HPAPAX@Z 0042072a f   Qt5Widgets:Qt5Widgets.dll
 0001:0001f730       ?qt_metacall@QStatusBar@@UAEHW4Call@QMetaObject@@HPAPAX@Z 00420730 f   Qt5Widgets:Qt5Widgets.dll
 0001:0001f736       ?qt_metacall@QTextEdit@@UAEHW4Call@QMetaObject@@HPAPAX@Z 00420736 f   Qt5Widgets:Qt5Widgets.dll
 0001:0001f73c       ?qt_metacall@QToolBar@@UAEHW4Call@QMetaObject@@HPAPAX@Z 0042073c f   Qt5Widgets:Qt5Widgets.dll
 0001:0001f742       ?qt_metacall@QVBoxLayout@@UAEHW4Call@QMetaObject@@HPAPAX@Z 00420742 f   Qt5Widgets:Qt5Widgets.dll
 0001:0001f748       ?qt_metacall@QWidget@@UAEHW4Call@QMetaObject@@HPAPAX@Z 00420748 f   Qt5Widgets:Qt5Widgets.dll
 0001:0001f74e       ?qt_metacast@QAction@@UAEPAXPBD@Z 0042074e f   Qt5Widgets:Qt5Widgets.dll
 0001:0001f754       ?qt_metacast@QCheckBox@@UAEPAXPBD@Z 00420754 f   Qt5Widgets:Qt5Widgets.dll
 0001:0001f75a       ?qt_metacast@QDialogButtonBox@@UAEPAXPBD@Z 0042075a f   Qt5Widgets:Qt5Widgets.dll
 0001:0001f760       ?qt_metacast@QFormLayout@@UAEPAXPBD@Z 00420760 f   Qt5Widgets:Qt5Widgets.dll
 0001:0001f766       ?qt_metacast@QGroupBox@@UAEPAXPBD@Z 00420766 f   Qt5Widgets:Qt5Widgets.dll
 0001:0001f76c       ?qt_metacast@QHBoxLayout@@UAEPAXPBD@Z 0042076c f   Qt5Widgets:Qt5Widgets.dll
 0001:0001f772       ?qt_metacast@QLabel@@UAEPAXPBD@Z 00420772 f   Qt5Widgets:Qt5Widgets.dll
 0001:0001f778       ?qt_metacast@QLineEdit@@UAEPAXPBD@Z 00420778 f   Qt5Widgets:Qt5Widgets.dll
 0001:0001f77e       ?qt_metacast@QListWidget@@UAEPAXPBD@Z 0042077e f   Qt5Widgets:Qt5Widgets.dll
 0001:0001f784       ?qt_metacast@QMenu@@UAEPAXPBD@Z 00420784 f   Qt5Widgets:Qt5Widgets.dll
 0001:0001f78a       ?qt_metacast@QMenuBar@@UAEPAXPBD@Z 0042078a f   Qt5Widgets:Qt5Widgets.dll
 0001:0001f790       ?qt_metacast@QPushButton@@UAEPAXPBD@Z 00420790 f   Qt5Widgets:Qt5Widgets.dll
 0001:0001f796       ?qt_metacast@QSplitter@@UAEPAXPBD@Z 00420796 f   Qt5Widgets:Qt5Widgets.dll
 0001:0001f79c       ?qt_metacast@QStatusBar@@UAEPAXPBD@Z 0042079c f   Qt5Widgets:Qt5Widgets.dll
 0001:0001f7a2       ?qt_metacast@QTextEdit@@UAEPAXPBD@Z 004207a2 f   Qt5Widgets:Qt5Widgets.dll
 0001:0001f7a8       ?qt_metacast@QToolBar@@UAEPAXPBD@Z 004207a8 f   Qt5Widgets:Qt5Widgets.dll
 0001:0001f7ae       ?qt_metacast@QVBoxLayout@@UAEPAXPBD@Z 004207ae f   Qt5Widgets:Qt5Widgets.dll
 0001:0001f7b4       ?qt_metacast@QWidget@@UAEPAXPBD@Z 004207b4 f   Qt5Widgets:Qt5Widgets.dll
 0001:0001f7ba       ?redirected@QWidget@@MBEPAVQPaintDevice@@PAVQPoint@@@Z 004207ba f   Qt5Widgets:Qt5Widgets.dll
 0001:0001f7c0       ?reset@QListView@@UAEXXZ   004207c0 f   Qt5Widgets:Qt5Widgets.dll
 0001:0001f7c6       ?resizeEvent@QGroupBox@@MAEXPAVQResizeEvent@@@Z 004207c6 f   Qt5Widgets:Qt5Widgets.dll
 0001:0001f7cc       ?resizeEvent@QListView@@MAEXPAVQResizeEvent@@@Z 004207cc f   Qt5Widgets:Qt5Widgets.dll
 0001:0001f7d2       ?resizeEvent@QMenuBar@@MAEXPAVQResizeEvent@@@Z 004207d2 f   Qt5Widgets:Qt5Widgets.dll
 0001:0001f7d8       ?resizeEvent@QSplitter@@MAEXPAVQResizeEvent@@@Z 004207d8 f   Qt5Widgets:Qt5Widgets.dll
 0001:0001f7de       ?resizeEvent@QStatusBar@@MAEXPAVQResizeEvent@@@Z 004207de f   Qt5Widgets:Qt5Widgets.dll
 0001:0001f7e4       ?resizeEvent@QTextEdit@@MAEXPAVQResizeEvent@@@Z 004207e4 f   Qt5Widgets:Qt5Widgets.dll
 0001:0001f7ea       ?resizeEvent@QWidget@@MAEXPAVQResizeEvent@@@Z 004207ea f   Qt5Widgets:Qt5Widgets.dll
 0001:0001f7f0       ?rowsAboutToBeRemoved@QListView@@MAEXABVQModelIndex@@HH@Z 004207f0 f   Qt5Widgets:Qt5Widgets.dll
 0001:0001f7f6       ?rowsInserted@QListView@@MAEXABVQModelIndex@@HH@Z 004207f6 f   Qt5Widgets:Qt5Widgets.dll
 0001:0001f7fc       ?scrollContentsBy@QListView@@MAEXHH@Z 004207fc f   Qt5Widgets:Qt5Widgets.dll
 0001:0001f802       ?scrollContentsBy@QTextEdit@@MAEXHH@Z 00420802 f   Qt5Widgets:Qt5Widgets.dll
 0001:0001f808       ?scrollTo@QListView@@UAEXABVQModelIndex@@W4ScrollHint@QAbstractItemView@@@Z 00420808 f   Qt5Widgets:Qt5Widgets.dll
 0001:0001f80e       ?selectAll@QAbstractItemView@@UAEXXZ 0042080e f   Qt5Widgets:Qt5Widgets.dll
 0001:0001f814       ?selectedIndexes@QListView@@MBE?AV?$QList@VQModelIndex@@@@XZ 00420814 f   Qt5Widgets:Qt5Widgets.dll
 0001:0001f81a       ?selectionChanged@QListView@@MAEXABVQItemSelection@@0@Z 0042081a f   Qt5Widgets:Qt5Widgets.dll
 0001:0001f820       ?selectionCommand@QAbstractItemView@@MBE?AV?$QFlags@W4SelectionFlag@QItemSelectionModel@@@@ABVQModelIndex@@PBVQEvent@@@Z 00420820 f   Qt5Widgets:Qt5Widgets.dll
 0001:0001f826       ?setGeometry@QBoxLayout@@UAEXABVQRect@@@Z 00420826 f   Qt5Widgets:Qt5Widgets.dll
 0001:0001f82c       ?setGeometry@QFormLayout@@UAEXABVQRect@@@Z 0042082c f   Qt5Widgets:Qt5Widgets.dll
 0001:0001f832       ?setGeometry@QSpacerItem@@UAEXABVQRect@@@Z 00420832 f   Qt5Widgets:Qt5Widgets.dll
 0001:0001f838       ?setModel@QListWidget@@EAEXPAVQAbstractItemModel@@@Z 00420838 f   Qt5Widgets:Qt5Widgets.dll
 0001:0001f83e       ?setRootIndex@QListView@@UAEXABVQModelIndex@@@Z 0042083e f   Qt5Widgets:Qt5Widgets.dll
 0001:0001f844       ?setSelection@QListView@@MAEXABVQRect@@V?$QFlags@W4SelectionFlag@QItemSelectionModel@@@@@Z 00420844 f   Qt5Widgets:Qt5Widgets.dll
 0001:0001f84a       ?setSelectionModel@QListWidget@@UAEXPAVQItemSelectionModel@@@Z 0042084a f   Qt5Widgets:Qt5Widgets.dll
 0001:0001f850       ?setVisible@QMenuBar@@UAEX_N@Z 00420850 f   Qt5Widgets:Qt5Widgets.dll
 0001:0001f856       ?setVisible@QWidget@@UAEX_N@Z 00420856 f   Qt5Widgets:Qt5Widgets.dll
 0001:0001f85c       ?setupViewport@QAbstractScrollArea@@UAEXPAVQWidget@@@Z 0042085c f   Qt5Widgets:Qt5Widgets.dll
 0001:0001f862       ?sharedPainter@QWidget@@MBEPAVQPainter@@XZ 00420862 f   Qt5Widgets:Qt5Widgets.dll
 0001:0001f868       ?showEvent@QStatusBar@@MAEXPAVQShowEvent@@@Z 00420868 f   Qt5Widgets:Qt5Widgets.dll
 0001:0001f86e       ?showEvent@QTextEdit@@MAEXPAVQShowEvent@@@Z 0042086e f   Qt5Widgets:Qt5Widgets.dll
 0001:0001f874       ?showEvent@QWidget@@MAEXPAVQShowEvent@@@Z 00420874 f   Qt5Widgets:Qt5Widgets.dll
 0001:0001f87a       ?sizeHint@QAbstractScrollArea@@UBE?AVQSize@@XZ 0042087a f   Qt5Widgets:Qt5Widgets.dll
 0001:0001f880       ?sizeHint@QBoxLayout@@UBE?AVQSize@@XZ 00420880 f   Qt5Widgets:Qt5Widgets.dll
 0001:0001f886       ?sizeHint@QCheckBox@@UBE?AVQSize@@XZ 00420886 f   Qt5Widgets:Qt5Widgets.dll
 0001:0001f88c       ?sizeHint@QFormLayout@@UBE?AVQSize@@XZ 0042088c f   Qt5Widgets:Qt5Widgets.dll
 0001:0001f892       ?sizeHint@QLabel@@UBE?AVQSize@@XZ 00420892 f   Qt5Widgets:Qt5Widgets.dll
 0001:0001f898       ?sizeHint@QLineEdit@@UBE?AVQSize@@XZ 00420898 f   Qt5Widgets:Qt5Widgets.dll
 0001:0001f89e       ?sizeHint@QMenu@@UBE?AVQSize@@XZ 0042089e f   Qt5Widgets:Qt5Widgets.dll
 0001:0001f8a4       ?sizeHint@QMenuBar@@UBE?AVQSize@@XZ 004208a4 f   Qt5Widgets:Qt5Widgets.dll
 0001:0001f8aa       ?sizeHint@QPushButton@@UBE?AVQSize@@XZ 004208aa f   Qt5Widgets:Qt5Widgets.dll
 0001:0001f8b0       ?sizeHint@QSpacerItem@@UBE?AVQSize@@XZ 004208b0 f   Qt5Widgets:Qt5Widgets.dll
 0001:0001f8b6       ?sizeHint@QSplitter@@UBE?AVQSize@@XZ 004208b6 f   Qt5Widgets:Qt5Widgets.dll
 0001:0001f8bc       ?sizeHint@QWidget@@UBE?AVQSize@@XZ 004208bc f   Qt5Widgets:Qt5Widgets.dll
 0001:0001f8c2       ?sizeHintForColumn@QAbstractItemView@@UBEHH@Z 004208c2 f   Qt5Widgets:Qt5Widgets.dll
 0001:0001f8c8       ?sizeHintForRow@QAbstractItemView@@UBEHH@Z 004208c8 f   Qt5Widgets:Qt5Widgets.dll
 0001:0001f8ce       ?spacerItem@QLayoutItem@@UAEPAVQSpacerItem@@XZ 004208ce f   Qt5Widgets:Qt5Widgets.dll
 0001:0001f8d4       ?spacerItem@QSpacerItem@@UAEPAV1@XZ 004208d4 f   Qt5Widgets:Qt5Widgets.dll
 0001:0001f8da       ?startDrag@QListView@@MAEXV?$QFlags@W4DropAction@Qt@@@@@Z 004208da f   Qt5Widgets:Qt5Widgets.dll
 0001:0001f8e0       ?supportedDropActions@QListWidget@@MBE?AV?$QFlags@W4DropAction@Qt@@@@XZ 004208e0 f   Qt5Widgets:Qt5Widgets.dll
 0001:0001f8e6       ?tabletEvent@QWidget@@MAEXPAVQTabletEvent@@@Z 004208e6 f   Qt5Widgets:Qt5Widgets.dll
 0001:0001f8ec       ?takeAt@QBoxLayout@@UAEPAVQLayoutItem@@H@Z 004208ec f   Qt5Widgets:Qt5Widgets.dll
 0001:0001f8f2       ?takeAt@QFormLayout@@UAEPAVQLayoutItem@@H@Z 004208f2 f   Qt5Widgets:Qt5Widgets.dll
 0001:0001f8f8       ?timerEvent@QAbstractButton@@MAEXPAVQTimerEvent@@@Z 004208f8 f   Qt5Widgets:Qt5Widgets.dll
 0001:0001f8fe       ?timerEvent@QListView@@MAEXPAVQTimerEvent@@@Z 004208fe f   Qt5Widgets:Qt5Widgets.dll
 0001:0001f904       ?timerEvent@QMenu@@MAEXPAVQTimerEvent@@@Z 00420904 f   Qt5Widgets:Qt5Widgets.dll
 0001:0001f90a       ?timerEvent@QMenuBar@@MAEXPAVQTimerEvent@@@Z 0042090a f   Qt5Widgets:Qt5Widgets.dll
 0001:0001f910       ?timerEvent@QTextEdit@@MAEXPAVQTimerEvent@@@Z 00420910 f   Qt5Widgets:Qt5Widgets.dll
 0001:0001f916       ?updateEditorData@QAbstractItemView@@MAEXXZ 00420916 f   Qt5Widgets:Qt5Widgets.dll
 0001:0001f91c       ?updateEditorGeometries@QAbstractItemView@@MAEXXZ 0042091c f   Qt5Widgets:Qt5Widgets.dll
 0001:0001f922       ?updateGeometries@QListView@@MAEXXZ 00420922 f   Qt5Widgets:Qt5Widgets.dll
 0001:0001f928       ?verticalOffset@QListView@@MBEHXZ 00420928 f   Qt5Widgets:Qt5Widgets.dll
 0001:0001f92e       ?verticalScrollbarAction@QAbstractItemView@@MAEXH@Z 0042092e f   Qt5Widgets:Qt5Widgets.dll
 0001:0001f934       ?verticalScrollbarValueChanged@QAbstractItemView@@MAEXH@Z 00420934 f   Qt5Widgets:Qt5Widgets.dll
 0001:0001f93a       ?viewOptions@QListView@@MBE?AVQStyleOptionViewItem@@XZ 0042093a f   Qt5Widgets:Qt5Widgets.dll
 0001:0001f940       ?viewportEvent@QAbstractItemView@@MAE_NPAVQEvent@@@Z 00420940 f   Qt5Widgets:Qt5Widgets.dll
 0001:0001f946       ?viewportEvent@QAbstractScrollArea@@MAE_NPAVQEvent@@@Z 00420946 f   Qt5Widgets:Qt5Widgets.dll
 0001:0001f94c       ?viewportSizeHint@QAbstractScrollArea@@MBE?AVQSize@@XZ 0042094c f   Qt5Widgets:Qt5Widgets.dll
 0001:0001f952       ?viewportSizeHint@QListView@@MBE?AVQSize@@XZ 00420952 f   Qt5Widgets:Qt5Widgets.dll
 0001:0001f958       ?visualRect@QListView@@UBE?AVQRect@@ABVQModelIndex@@@Z 00420958 f   Qt5Widgets:Qt5Widgets.dll
 0001:0001f95e       ?visualRegionForSelection@QListView@@MBE?AVQRegion@@ABVQItemSelection@@@Z 0042095e f   Qt5Widgets:Qt5Widgets.dll
 0001:0001f964       ?wheelEvent@QListView@@MAEXPAVQWheelEvent@@@Z 00420964 f   Qt5Widgets:Qt5Widgets.dll
 0001:0001f96a       ?wheelEvent@QMenu@@MAEXPAVQWheelEvent@@@Z 0042096a f   Qt5Widgets:Qt5Widgets.dll
 0001:0001f970       ?wheelEvent@QTextEdit@@MAEXPAVQWheelEvent@@@Z 00420970 f   Qt5Widgets:Qt5Widgets.dll
 0001:0001f976       ?wheelEvent@QWidget@@MAEXPAVQWheelEvent@@@Z 00420976 f   Qt5Widgets:Qt5Widgets.dll
 0001:0001f97c       ?widget@QLayoutItem@@UAEPAVQWidget@@XZ 0042097c f   Qt5Widgets:Qt5Widgets.dll
 0001:0001f990       _BNCS32ReceiveMessage      00420990 f   bncswm32:BncsWM32.obj
 0001:0001fae0       _BNCS32SendMessage         00420ae0 f   bncswm32:BncsWM32.obj
 0001:0001fbb4       ??2@YAPAXI@Z               00420bb4 f   MSVCRT:MSVCR120.dll
 0001:0001fbba       ??3@YAXPAX@Z               00420bba f   MSVCRT:MSVCR120.dll
 0001:0001fbc0       @__security_check_cookie@4 00420bc0 f   MSVCRT:secchk.obj
 0001:0001fbcf       ??_Etype_info@@UAEPAXI@Z   00420bcf f i MSVCRT:ti_inst.obj
 0001:0001fc1a       __purecall                 00420c1a f   MSVCRT:MSVCR120.dll
 0001:0001fc20       ___atonexitinit            00420c20 f   MSVCRT:atonexit.obj
 0001:0001fc5c       __onexit                   00420c5c f   MSVCRT:atonexit.obj
 0001:0001fd05       _atexit                    00420d05 f   MSVCRT:atonexit.obj
 0001:0001fd1a       __CxxThrowException@8      00420d1a f   MSVCRT:MSVCR120.dll
 0001:0001fd20       ___CxxFrameHandler3        00420d20 f   MSVCRT:MSVCR120.dll
 0001:0001fd26       _memcpy                    00420d26 f   MSVCRT:MSVCR120.dll
 0001:0001fd30       ??_V@YAXPAX@Z              00420d30 f   MSVCRT:MSVCR120.dll
 0001:0001fd36       ??_U@YAPAXI@Z              00420d36 f   MSVCRT:MSVCR120.dll
 0001:0001fd3c       _memset                    00420d3c f   MSVCRT:MSVCR120.dll
 0001:0001fd42       ___raise_securityfailure   00420d42 f   MSVCRT:gs_report.obj
 0001:0001fd7f       ___report_gsfailure        00420d7f f   MSVCRT:gs_report.obj
 0001:0001fe7a       ___report_rangecheckfailure 00420e7a f   MSVCRT:gs_report.obj
 0001:0001fe86       ___report_securityfailure  00420e86 f   MSVCRT:gs_report.obj
 0001:0001ff60       __alloca_probe             00420f60 f   MSVCRT:chkstk.obj
 0001:0001ff60       __chkstk                   00420f60 f   MSVCRT:chkstk.obj
 0001:0002008f       _WinMainCRTStartup         0042108f f   MSVCRT:crtexew.obj
 0001:0002024d       ??_M@YGXPAXIHP6EX0@Z@Z     0042124d f   MSVCRT:ehvecdtr.obj
 0001:000202bc       ?__ArrayUnwind@@YGXPAXIHP6EX0@Z@Z 004212bc f   MSVCRT:ehvecdtr.obj
 0001:0002031a       ??1type_info@@UAE@XZ       0042131a f   MSVCRT:MSVCR120.dll
 0001:00020320       __lock                     00421320 f   MSVCRT:MSVCR120.dll
 0001:00020326       __unlock                   00421326 f   MSVCRT:MSVCR120.dll
 0001:0002032c       ___dllonexit               0042132c f   MSVCRT:MSVCR120.dll
 0001:00020340       __SEH_prolog4              00421340 f   MSVCRT:sehprolg4.obj
 0001:00020385       __SEH_epilog4              00421385 f   MSVCRT:sehprolg4.obj
 0001:00020399       __except_handler4          00421399 f   MSVCRT:chandler4gs.obj
 0001:000203bc       __crt_debugger_hook        004213bc f   MSVCRT:MSVCR120.dll
 0001:000203c2       ___crtUnhandledException   004213c2 f   MSVCRT:MSVCR120.dll
 0001:000203c8       ___crtTerminateProcess     004213c8 f   MSVCRT:MSVCR120.dll
 0001:000203ce       ?__CxxUnhandledExceptionFilter@@YGJPAU_EXCEPTION_POINTERS@@@Z 004213ce f   MSVCRT:unhandld.obj
 0001:0002040f       ___CxxSetUnhandledExceptionFilter 0042140f f   MSVCRT:unhandld.obj
 0001:0002041e       __XcptFilter               0042141e f   MSVCRT:MSVCR120.dll
 0001:00020424       __amsg_exit                00421424 f   MSVCRT:MSVCR120.dll
 0001:00020430       __FindPESection            00421430 f   MSVCRT:pesect.obj
 0001:00020480       __IsNonwritableInCurrentImage 00421480 f   MSVCRT:pesect.obj
 0001:00020540       __ValidateImageBase        00421540 f   MSVCRT:pesect.obj
 0001:00020571       ___security_init_cookie    00421571 f   MSVCRT:gs_support.obj
 0001:0002060d       __matherr                  0042160d f   MSVCRT:merr.obj
 0001:0002060d       __setargv                  0042160d f   MSVCRT:dllargv.obj
 0001:00020610       __RTC_Initialize           00421610 f   MSVCRT:initsect.obj
 0001:00020630       __RTC_Terminate            00421630 f   MSVCRT:initsect.obj
 0001:00020650       __setdefaultprecision      00421650 f   MSVCRT:fp8.obj
 0001:00020678       __initterm_e               00421678 f   MSVCRT:MSVCR120.dll
 0001:0002067e       __initterm                 0042167e f   MSVCRT:MSVCR120.dll
 0001:00020684       ?terminate@@YAXXZ          00421684 f   MSVCRT:MSVCR120.dll
 0001:0002068a       __except_handler4_common   0042168a f   MSVCRT:MSVCR120.dll
 0001:00020690       ___crtSetUnhandledExceptionFilter 00421690 f   MSVCRT:MSVCR120.dll
 0001:00020696       __invoke_watson            00421696 f   MSVCRT:MSVCR120.dll
 0001:0002069c       __controlfp_s              0042169c f   MSVCRT:MSVCR120.dll
 0001:000206b0       _WinMain@16                004216b0 f   qtmain:qtmain_win.obj
 0001:000207ce       _IsProcessorFeaturePresent@4 004217ce f   kernel32:KERNEL32.dll
 0002:00000000       __imp__RegCloseKey@4       00426000     advapi32:ADVAPI32.dll
 0002:00000004       __imp__RegOpenKeyExA@20    00426004     advapi32:ADVAPI32.dll
 0002:00000008       __imp__RegQueryValueExA@24 00426008     advapi32:ADVAPI32.dll
 0002:0000000c       \177ADVAPI32_NULL_THUNK_DATA 0042600c     advapi32:ADVAPI32.dll
 0002:00000010       __imp__BNCS32TxMessage     00426010     bncsif32:BNCSIF32.dll
 0002:00000014       __imp__BNCS32RxMessage     00426014     bncsif32:BNCSIF32.dll
 0002:00000018       \177BNCSIF32_NULL_THUNK_DATA 00426018     bncsif32:BNCSIF32.dll
 0002:0000001c       __imp__SetFilePointer@16   0042601c     kernel32:KERNEL32.dll
 0002:00000020       __imp__WriteFile@20        00426020     kernel32:KERNEL32.dll
 0002:00000024       __imp__OutputDebugStringA@4 00426024     kernel32:KERNEL32.dll
 0002:00000028       __imp__CloseHandle@4       00426028     kernel32:KERNEL32.dll
 0002:0000002c       __imp__GetLastError@0      0042602c     kernel32:KERNEL32.dll
 0002:00000030       __imp__GetSystemTime@4     00426030     kernel32:KERNEL32.dll
 0002:00000034       __imp__GetLocalTime@4      00426034     kernel32:KERNEL32.dll
 0002:00000038       __imp__FreeLibrary@4       00426038     kernel32:KERNEL32.dll
 0002:0000003c       __imp__GetProcAddress@8    0042603c     kernel32:KERNEL32.dll
 0002:00000040       __imp__LoadLibraryA@4      00426040     kernel32:KERNEL32.dll
 0002:00000044       __imp__GetPrivateProfileIntA@16 00426044     kernel32:KERNEL32.dll
 0002:00000048       __imp__GetPrivateProfileStringA@24 00426048     kernel32:KERNEL32.dll
 0002:0000004c       __imp__WritePrivateProfileStringA@16 0042604c     kernel32:KERNEL32.dll
 0002:00000050       __imp__CreateFileA@28      00426050     kernel32:KERNEL32.dll
 0002:00000054       __imp__GetModuleFileNameA@12 00426054     kernel32:KERNEL32.dll
 0002:00000058       __imp__GetModuleHandleA@4  00426058     kernel32:KERNEL32.dll
 0002:0000005c       __imp__GetCommandLineW@0   0042605c     kernel32:KERNEL32.dll
 0002:00000060       __imp__GetSystemTimeAsFileTime@4 00426060     kernel32:KERNEL32.dll
 0002:00000064       __imp__GetCurrentThreadId@0 00426064     kernel32:KERNEL32.dll
 0002:00000068       __imp__GetCurrentProcessId@0 00426068     kernel32:KERNEL32.dll
 0002:0000006c       __imp__QueryPerformanceCounter@4 0042606c     kernel32:KERNEL32.dll
 0002:00000070       __imp__IsProcessorFeaturePresent@4 00426070     kernel32:KERNEL32.dll
 0002:00000074       __imp__IsDebuggerPresent@0 00426074     kernel32:KERNEL32.dll
 0002:00000078       __imp__DecodePointer@4     00426078     kernel32:KERNEL32.dll
 0002:0000007c       __imp__EncodePointer@4     0042607c     kernel32:KERNEL32.dll
 0002:00000080       __imp__WideCharToMultiByte@32 00426080     kernel32:KERNEL32.dll
 0002:00000084       __imp__LocalFree@4         00426084     kernel32:KERNEL32.dll
 0002:00000088       __imp__lstrcpynA@12        00426088     kernel32:KERNEL32.dll
 0002:0000008c       __imp__GetWindowsDirectoryA@8 0042608c     kernel32:KERNEL32.dll
 0002:00000090       \177KERNEL32_NULL_THUNK_DATA 00426090     kernel32:KERNEL32.dll
 0002:00000094       __imp_?_Syserror_map@std@@YAPBDH@Z 00426094     msvcprt:MSVCP120.dll
 0002:00000098       __imp_?_Winerror_map@std@@YAPBDH@Z 00426098     msvcprt:MSVCP120.dll
 0002:0000009c       __imp_?_Xlength_error@std@@YAXPBD@Z 0042609c     msvcprt:MSVCP120.dll
 0002:000000a0       __imp_?_Xout_of_range@std@@YAXPBD@Z 004260a0     msvcprt:MSVCP120.dll
 0002:000000a4       __imp_?_Xbad_alloc@std@@YAXXZ 004260a4     msvcprt:MSVCP120.dll
 0002:000000a8       \177MSVCP120_NULL_THUNK_DATA 004260a8     msvcprt:MSVCP120.dll
 0002:000000ac       __imp__fclose              004260ac     MSVCRT:MSVCR120.dll
 0002:000000b0       __imp___stricmp            004260b0     MSVCRT:MSVCR120.dll
 0002:000000b0       __imp__stricmp             004260b0     MSVCRT:MSVCR120.dll
 0002:000000b4       __imp__strchr              004260b4     MSVCRT:MSVCR120.dll
 0002:000000b8       __imp__tolower             004260b8     MSVCRT:MSVCR120.dll
 0002:000000bc       __imp__memset              004260bc     MSVCRT:MSVCR120.dll
 0002:000000c0       __imp_??_U@YAPAXI@Z        004260c0     MSVCRT:MSVCR120.dll
 0002:000000c4       __imp_??_V@YAXPAX@Z        004260c4     MSVCRT:MSVCR120.dll
 0002:000000c8       __imp__atoi                004260c8     MSVCRT:MSVCR120.dll
 0002:000000cc       __imp__memcpy              004260cc     MSVCRT:MSVCR120.dll
 0002:000000d0       __imp____CxxFrameHandler3  004260d0     MSVCRT:MSVCR120.dll
 0002:000000d4       __imp___CxxThrowException@8 004260d4     MSVCRT:MSVCR120.dll
 0002:000000d8       __imp__fgets               004260d8     MSVCRT:MSVCR120.dll
 0002:000000dc       __imp__memmove             004260dc     MSVCRT:MSVCR120.dll
 0002:000000e0       __imp___purecall           004260e0     MSVCRT:MSVCR120.dll
 0002:000000e4       __imp___mkdir              004260e4     MSVCRT:MSVCR120.dll
 0002:000000e8       __imp__sprintf             004260e8     MSVCRT:MSVCR120.dll
 0002:000000ec       __imp___time64             004260ec     MSVCRT:MSVCR120.dll
 0002:000000f0       __imp___localtime64        004260f0     MSVCRT:MSVCR120.dll
 0002:000000f4       __imp__getenv              004260f4     MSVCRT:MSVCR120.dll
 0002:000000f8       __imp__strtok              004260f8     MSVCRT:MSVCR120.dll
 0002:000000fc       __imp__strncpy             004260fc     MSVCRT:MSVCR120.dll
 0002:00000100       __imp__malloc              00426100     MSVCRT:MSVCR120.dll
 0002:00000104       __imp__free                00426104     MSVCRT:MSVCR120.dll
 0002:00000108       __imp__strpbrk             00426108     MSVCRT:MSVCR120.dll
 0002:0000010c       __imp_??3@YAXPAX@Z         0042610c     MSVCRT:MSVCR120.dll
 0002:00000110       __imp_??2@YAPAXI@Z         00426110     MSVCRT:MSVCR120.dll
 0002:00000114       __imp__fopen               00426114     MSVCRT:MSVCR120.dll
 0002:00000118       __imp__fputs               00426118     MSVCRT:MSVCR120.dll
 0002:0000011c       __imp__strncmp             0042611c     MSVCRT:MSVCR120.dll
 0002:00000120       __imp__fopen_s             00426120     MSVCRT:MSVCR120.dll
 0002:00000124       __imp__strtoul             00426124     MSVCRT:MSVCR120.dll
 0002:00000128       __imp__sscanf              00426128     MSVCRT:MSVCR120.dll
 0002:0000012c       __imp_??1type_info@@UAE@XZ 0042612c     MSVCRT:MSVCR120.dll
 0002:00000130       __imp___lock               00426130     MSVCRT:MSVCR120.dll
 0002:00000134       __imp___unlock             00426134     MSVCRT:MSVCR120.dll
 0002:00000138       __imp___calloc_crt         00426138     MSVCRT:MSVCR120.dll
 0002:0000013c       __imp____dllonexit         0042613c     MSVCRT:MSVCR120.dll
 0002:00000140       __imp___onexit             00426140     MSVCRT:MSVCR120.dll
 0002:00000144       __imp___crt_debugger_hook  00426144     MSVCRT:MSVCR120.dll
 0002:00000148       __imp____crtUnhandledException 00426148     MSVCRT:MSVCR120.dll
 0002:0000014c       __imp____crtTerminateProcess 0042614c     MSVCRT:MSVCR120.dll
 0002:00000150       __imp___XcptFilter         00426150     MSVCRT:MSVCR120.dll
 0002:00000154       __imp____crtGetShowWindowMode 00426154     MSVCRT:MSVCR120.dll
 0002:00000158       __imp___amsg_exit          00426158     MSVCRT:MSVCR120.dll
 0002:0000015c       __imp____getmainargs       0042615c     MSVCRT:MSVCR120.dll
 0002:00000160       __imp____set_app_type      00426160     MSVCRT:MSVCR120.dll
 0002:00000164       __imp__exit                00426164     MSVCRT:MSVCR120.dll
 0002:00000168       __imp___exit               00426168     MSVCRT:MSVCR120.dll
 0002:0000016c       __imp___cexit              0042616c     MSVCRT:MSVCR120.dll
 0002:00000170       __imp___ismbblead          00426170     MSVCRT:MSVCR120.dll
 0002:00000174       __imp___configthreadlocale 00426174     MSVCRT:MSVCR120.dll
 0002:00000178       __imp____setusermatherr    00426178     MSVCRT:MSVCR120.dll
 0002:0000017c       __imp___initterm_e         0042617c     MSVCRT:MSVCR120.dll
 0002:00000180       __imp___initterm           00426180     MSVCRT:MSVCR120.dll
 0002:00000184       __imp___acmdln             00426184     MSVCRT:MSVCR120.dll
 0002:00000188       __imp___fmode              00426188     MSVCRT:MSVCR120.dll
 0002:0000018c       __imp___commode            0042618c     MSVCRT:MSVCR120.dll
 0002:00000190       __imp_?terminate@@YAXXZ    00426190     MSVCRT:MSVCR120.dll
 0002:00000194       __imp___except_handler4_common 00426194     MSVCRT:MSVCR120.dll
 0002:00000198       __imp___controlfp_s        00426198     MSVCRT:MSVCR120.dll
 0002:0000019c       __imp__sprintf_s           0042619c     MSVCRT:MSVCR120.dll
 0002:000001a0       __imp___invoke_watson      004261a0     MSVCRT:MSVCR120.dll
 0002:000001a4       __imp____crtSetUnhandledExceptionFilter 004261a4     MSVCRT:MSVCR120.dll
 0002:000001a8       \177MSVCR120_NULL_THUNK_DATA 004261a8     MSVCRT:MSVCR120.dll
 0002:000001ac       __imp_??1QByteArray@@QAE@XZ 004261ac     Qt5Core:Qt5Core.dll
 0002:000001b0       __imp_?translate@QCoreApplication@@SA?AVQString@@PBD00H@Z 004261b0     Qt5Core:Qt5Core.dll
 0002:000001b4       __imp_?arguments@QCoreApplication@@SA?AVQStringList@@XZ 004261b4     Qt5Core:Qt5Core.dll
 0002:000001b8       __imp_?setObjectName@QObject@@QAEXABVQString@@@Z 004261b8     Qt5Core:Qt5Core.dll
 0002:000001bc       __imp_?objectName@QObject@@QBE?AVQString@@XZ 004261bc     Qt5Core:Qt5Core.dll
 0002:000001c0       __imp_?at@QListData@@QBEPAPAXH@Z 004261c0     Qt5Core:Qt5Core.dll
 0002:000001c4       __imp_?size@QListData@@QBEHXZ 004261c4     Qt5Core:Qt5Core.dll
 0002:000001c8       __imp_?toLatin1@QCharRef@@QBEDXZ 004261c8     Qt5Core:Qt5Core.dll
 0002:000001cc       __imp_?toUpper@QCharRef@@QBE?AVQChar@@XZ 004261cc     Qt5Core:Qt5Core.dll
 0002:000001d0       __imp_?toLower@QCharRef@@QBE?AVQChar@@XZ 004261d0     Qt5Core:Qt5Core.dll
 0002:000001d4       __imp_??9QString@@QBE_NPBD@Z 004261d4     Qt5Core:Qt5Core.dll
 0002:000001d8       __imp_??0QString@@QAE@PBD@Z 004261d8     Qt5Core:Qt5Core.dll
 0002:000001dc       __imp_?toUInt@QString@@QBEIPA_NH@Z 004261dc     Qt5Core:Qt5Core.dll
 0002:000001e0       __imp_?toInt@QString@@QBEHPA_NH@Z 004261e0     Qt5Core:Qt5Core.dll
 0002:000001e4       __imp_?split@QString@@QBE?AVQStringList@@ABV1@W4SplitBehavior@1@W4CaseSensitivity@Qt@@@Z 004261e4     Qt5Core:Qt5Core.dll
 0002:000001e8       __imp_?replace@QString@@QAEAAV1@ABV1@0W4CaseSensitivity@Qt@@@Z 004261e8     Qt5Core:Qt5Core.dll
 0002:000001ec       __imp_?mid@QString@@QBE?AV1@HH@Z 004261ec     Qt5Core:Qt5Core.dll
 0002:000001f0       __imp_?section@QString@@QBE?AV1@ABV1@HHV?$QFlags@W4SectionFlag@QString@@@@@Z 004261f0     Qt5Core:Qt5Core.dll
 0002:000001f4       __imp_?arg@QString@@QBE?AV1@DHVQChar@@@Z 004261f4     Qt5Core:Qt5Core.dll
 0002:000001f8       __imp_??AQString@@QAE?AVQCharRef@@H@Z 004261f8     Qt5Core:Qt5Core.dll
 0002:000001fc       __imp_?length@QString@@QBEHXZ 004261fc     Qt5Core:Qt5Core.dll
 0002:00000200       __imp_??4QString@@QAEAAV0@$$QAV0@@Z 00426200     Qt5Core:Qt5Core.dll
 0002:00000204       __imp_?toLatin1@QChar@@QBEDXZ 00426204     Qt5Core:Qt5Core.dll
 0002:00000208       __imp_?connectSlotsByName@QMetaObject@@SAXPAVQObject@@@Z 00426208     Qt5Core:Qt5Core.dll
 0002:0000020c       __imp_?timerEvent@QObject@@MAEXPAVQTimerEvent@@@Z 0042620c     Qt5Core:Qt5Core.dll
 0002:00000210       __imp_?size@QIODevice@@UBE_JXZ 00426210     Qt5Core:Qt5Core.dll
 0002:00000214       __imp_?seek@QIODevice@@UAE_N_J@Z 00426214     Qt5Core:Qt5Core.dll
 0002:00000218       __imp_?reset@QIODevice@@UAE_NXZ 00426218     Qt5Core:Qt5Core.dll
 0002:0000021c       __imp_?pos@QIODevice@@UBE_JXZ 0042621c     Qt5Core:Qt5Core.dll
 0002:00000220       __imp_?open@QIODevice@@UAE_NV?$QFlags@W4OpenModeFlag@QIODevice@@@@@Z 00426220     Qt5Core:Qt5Core.dll
 0002:00000224       __imp_?toString@QDateTime@@QBE?AVQString@@W4DateFormat@Qt@@@Z 00426224     Qt5Core:Qt5Core.dll
 0002:00000228       __imp_?write@QIODevice@@QAE_JABVQByteArray@@@Z 00426228     Qt5Core:Qt5Core.dll
 0002:0000022c       __imp_?read@QIODevice@@QAE_JPAD_J@Z 0042622c     Qt5Core:Qt5Core.dll
 0002:00000230       __imp_?sender@QObject@@IBEPAV1@XZ 00426230     Qt5Core:Qt5Core.dll
 0002:00000234       __imp_?deleteLater@QObject@@QAEXXZ 00426234     Qt5Core:Qt5Core.dll
 0002:00000238       __imp_?killTimer@QObject@@QAEXH@Z 00426238     Qt5Core:Qt5Core.dll
 0002:0000023c       __imp_?QStringList_join@QtPrivate@@YA?AVQString@@PBVQStringList@@PBVQChar@@H@Z 0042623c     Qt5Core:Qt5Core.dll
 0002:00000240       __imp_??0QString@@QAE@ABVQByteArray@@@Z 00426240     Qt5Core:Qt5Core.dll
 0002:00000244       __imp_?constData@QString@@QBEPBVQChar@@XZ 00426244     Qt5Core:Qt5Core.dll
 0002:00000248       __imp_??8QString@@QBE_NPBD@Z 00426248     Qt5Core:Qt5Core.dll
 0002:0000024c       __imp_??M@YA_NABVQString@@0@Z 0042624c     Qt5Core:Qt5Core.dll
 0002:00000250       __imp_??8@YA_NABVQString@@0@Z 00426250     Qt5Core:Qt5Core.dll
 0002:00000254       __imp_?toLower@QString@@QBE?AV1@XZ 00426254     Qt5Core:Qt5Core.dll
 0002:00000258       __imp_??0QString@@QAE@$$QAV0@@Z 00426258     Qt5Core:Qt5Core.dll
 0002:0000025c       __imp_?setLibraryPaths@QCoreApplication@@SAXABVQStringList@@@Z 0042625c     Qt5Core:Qt5Core.dll
 0002:00000260       __imp_?append@QListData@@QAEPAPAXXZ 00426260     Qt5Core:Qt5Core.dll
 0002:00000264       __imp_?detach_grow@QListData@@QAEPAUData@1@PAHH@Z 00426264     Qt5Core:Qt5Core.dll
 0002:00000268       __imp_?shared_null@QListData@@2UData@1@B 00426268     Qt5Core:Qt5Core.dll
 0002:0000026c       __imp_?registerNormalizedType@QMetaType@@SAHABVQByteArray@@P6AXPAX@ZP6APAX1PBX@ZHV?$QFlags@W4TypeFlag@QMetaType@@@@PBUQMetaObject@@@Z 0042626c     Qt5Core:Qt5Core.dll
 0002:00000270       __imp_??BQByteArray@@QBEPBDXZ 00426270     Qt5Core:Qt5Core.dll
 0002:00000274       __imp_??0QString@@QAE@XZ   00426274     Qt5Core:Qt5Core.dll
 0002:00000278       __imp_??0QString@@QAE@ABV0@@Z 00426278     Qt5Core:Qt5Core.dll
 0002:0000027c       __imp_??1QString@@QAE@XZ   0042627c     Qt5Core:Qt5Core.dll
 0002:00000280       __imp_??4QString@@QAEAAV0@ABV0@@Z 00426280     Qt5Core:Qt5Core.dll
 0002:00000284       __imp_?append@QString@@QAEAAV1@ABV1@@Z 00426284     Qt5Core:Qt5Core.dll
 0002:00000288       __imp_?toLatin1@QString@@QBE?AVQByteArray@@XZ 00426288     Qt5Core:Qt5Core.dll
 0002:0000028c       __imp_?fromUtf8@QString@@SA?AV1@PBDH@Z 0042628c     Qt5Core:Qt5Core.dll
 0002:00000290       __imp_??4QString@@QAEAAV0@PBD@Z 00426290     Qt5Core:Qt5Core.dll
 0002:00000294       __imp_?fromAscii_helper@QString@@CAPAU?$QTypedArrayData@G@@PBDH@Z 00426294     Qt5Core:Qt5Core.dll
 0002:00000298       __imp_??1QDateTime@@QAE@XZ 00426298     Qt5Core:Qt5Core.dll
 0002:0000029c       __imp_?toString@QDateTime@@QBE?AVQString@@ABV2@@Z 0042629c     Qt5Core:Qt5Core.dll
 0002:000002a0       __imp_?currentDateTime@QDateTime@@SA?AV1@XZ 004262a0     Qt5Core:Qt5Core.dll
 0002:000002a4       __imp_??0QMessageLogger@@QAE@PBDH0@Z 004262a4     Qt5Core:Qt5Core.dll
 0002:000002a8       __imp_?debug@QMessageLogger@@QBAXPBDZZ 004262a8     Qt5Core:Qt5Core.dll
 0002:000002ac       __imp_?debug@QMessageLogger@@QBE?AVQDebug@@XZ 004262ac     Qt5Core:Qt5Core.dll
 0002:000002b0       __imp_??0QChar@@QAE@UQLatin1Char@@@Z 004262b0     Qt5Core:Qt5Core.dll
 0002:000002b4       __imp_?arg@QString@@QBE?AV1@HHHVQChar@@@Z 004262b4     Qt5Core:Qt5Core.dll
 0002:000002b8       __imp_?arg@QString@@QBE?AV1@IHHVQChar@@@Z 004262b8     Qt5Core:Qt5Core.dll
 0002:000002bc       __imp_?arg@QString@@QBE?AV1@ABV1@HVQChar@@@Z 004262bc     Qt5Core:Qt5Core.dll
 0002:000002c0       __imp_?startsWith@QString@@QBE_NABV1@W4CaseSensitivity@Qt@@@Z 004262c0     Qt5Core:Qt5Core.dll
 0002:000002c4       __imp_?remove@QString@@QAEAAV1@ABV1@W4CaseSensitivity@Qt@@@Z 004262c4     Qt5Core:Qt5Core.dll
 0002:000002c8       __imp_?toStdString@QString@@QBE?AV?$basic_string@DU?$char_traits@D@std@@V?$allocator@D@2@@std@@XZ 004262c8     Qt5Core:Qt5Core.dll
 0002:000002cc       __imp_??1Connection@QMetaObject@@QAE@XZ 004262cc     Qt5Core:Qt5Core.dll
 0002:000002d0       __imp_??0QObject@@QAE@PAV0@@Z 004262d0     Qt5Core:Qt5Core.dll
 0002:000002d4       __imp_??1QObject@@UAE@XZ   004262d4     Qt5Core:Qt5Core.dll
 0002:000002d8       __imp_?startTimer@QObject@@QAEHHW4TimerType@Qt@@@Z 004262d8     Qt5Core:Qt5Core.dll
 0002:000002dc       __imp_?connect@QObject@@SA?AVConnection@QMetaObject@@PBV1@PBD01W4ConnectionType@Qt@@@Z 004262dc     Qt5Core:Qt5Core.dll
 0002:000002e0       __imp_??1QDebug@@QAE@XZ    004262e0     Qt5Core:Qt5Core.dll
 0002:000002e4       __imp_?noquote@QDebug@@QAEAAV1@XZ 004262e4     Qt5Core:Qt5Core.dll
 0002:000002e8       __imp_??6QDebug@@QAEAAV0@PBD@Z 004262e8     Qt5Core:Qt5Core.dll
 0002:000002ec       __imp_??6QDebug@@QAEAAV0@ABVQString@@@Z 004262ec     Qt5Core:Qt5Core.dll
 0002:000002f0       __imp_?childEvent@QObject@@MAEXPAVQChildEvent@@@Z 004262f0     Qt5Core:Qt5Core.dll
 0002:000002f4       __imp_?connectNotify@QObject@@MAEXABVQMetaMethod@@@Z 004262f4     Qt5Core:Qt5Core.dll
 0002:000002f8       __imp_?customEvent@QObject@@MAEXPAVQEvent@@@Z 004262f8     Qt5Core:Qt5Core.dll
 0002:000002fc       __imp_?disconnectNotify@QObject@@MAEXABVQMetaMethod@@@Z 004262fc     Qt5Core:Qt5Core.dll
 0002:00000300       __imp_?event@QObject@@UAE_NPAVQEvent@@@Z 00426300     Qt5Core:Qt5Core.dll
 0002:00000304       __imp_?eventFilter@QObject@@UAE_NPAV1@PAVQEvent@@@Z 00426304     Qt5Core:Qt5Core.dll
 0002:00000308       __imp_?dynamicMetaObject@QObjectData@@QBEPAUQMetaObject@@XZ 00426308     Qt5Core:Qt5Core.dll
 0002:0000030c       __imp_?qt_metacast@QObject@@UAEPAXPBD@Z 0042630c     Qt5Core:Qt5Core.dll
 0002:00000310       __imp_?qt_metacall@QObject@@UAEHW4Call@QMetaObject@@HPAPAX@Z 00426310     Qt5Core:Qt5Core.dll
 0002:00000314       __imp_?staticMetaObject@QObject@@2UQMetaObject@@B 00426314     Qt5Core:Qt5Core.dll
 0002:00000318       __imp_?detach@QListData@@QAEPAUData@1@H@Z 00426318     Qt5Core:Qt5Core.dll
 0002:0000031c       __imp_?dispose@QListData@@SAXPAUData@1@@Z 0042631c     Qt5Core:Qt5Core.dll
 0002:00000320       __imp_?normalizedType@QMetaObject@@SA?AVQByteArray@@PBD@Z 00426320     Qt5Core:Qt5Core.dll
 0002:00000324       __imp_?activate@QMetaObject@@SAXPAVQObject@@PBU1@HPAPAX@Z 00426324     Qt5Core:Qt5Core.dll
 0002:00000328       \177Qt5Core_NULL_THUNK_DATA 00426328     Qt5Core:Qt5Core.dll
 0002:0000032c       __imp_??0QIcon@@QAE@ABVQPixmap@@@Z 0042632c     Qt5Gui:Qt5Gui.dll
 0002:00000330       __imp_??1QKeySequence@@QAE@XZ 00426330     Qt5Gui:Qt5Gui.dll
 0002:00000334       __imp_??0QKeySequence@@QAE@ABVQString@@W4SequenceFormat@0@@Z 00426334     Qt5Gui:Qt5Gui.dll
 0002:00000338       __imp_??1QPixmap@@UAE@XZ   00426338     Qt5Gui:Qt5Gui.dll
 0002:0000033c       __imp_??0QPixmap@@QAE@QBQBD@Z 0042633c     Qt5Gui:Qt5Gui.dll
 0002:00000340       __imp_?setMaximumBlockCount@QTextDocument@@QAEXH@Z 00426340     Qt5Gui:Qt5Gui.dll
 0002:00000344       __imp_??1QIcon@@QAE@XZ     00426344     Qt5Gui:Qt5Gui.dll
 0002:00000348       \177Qt5Gui_NULL_THUNK_DATA 00426348     Qt5Gui:Qt5Gui.dll
 0002:0000034c       __imp_??0QNetworkProxy@@QAE@XZ 0042634c     Qt5Network:Qt5Network.dll
 0002:00000350       __imp_?writeData@QSslSocket@@MAE_JPBD_J@Z 00426350     Qt5Network:Qt5Network.dll
 0002:00000354       __imp_?waitForReadyRead@QSslSocket@@UAE_NH@Z 00426354     Qt5Network:Qt5Network.dll
 0002:00000358       __imp_?waitForDisconnected@QSslSocket@@UAE_NH@Z 00426358     Qt5Network:Qt5Network.dll
 0002:0000035c       __imp_?waitForConnected@QSslSocket@@UAE_NH@Z 0042635c     Qt5Network:Qt5Network.dll
 0002:00000360       __imp_?waitForBytesWritten@QSslSocket@@UAE_NH@Z 00426360     Qt5Network:Qt5Network.dll
 0002:00000364       __imp_?socketOption@QSslSocket@@UAE?AVQVariant@@W4SocketOption@QAbstractSocket@@@Z 00426364     Qt5Network:Qt5Network.dll
 0002:00000368       __imp_?socketDescriptor@QAbstractSocket@@UBEHXZ 00426368     Qt5Network:Qt5Network.dll
 0002:0000036c       __imp_?setSocketOption@QSslSocket@@UAEXW4SocketOption@QAbstractSocket@@ABVQVariant@@@Z 0042636c     Qt5Network:Qt5Network.dll
 0002:00000370       __imp_?setSocketDescriptor@QSslSocket@@UAE_NHW4SocketState@QAbstractSocket@@V?$QFlags@W4OpenModeFlag@QIODevice@@@@@Z 00426370     Qt5Network:Qt5Network.dll
 0002:00000374       __imp_?setReadBufferSize@QSslSocket@@UAEX_J@Z 00426374     Qt5Network:Qt5Network.dll
 0002:00000378       __imp_?resume@QSslSocket@@UAEXXZ 00426378     Qt5Network:Qt5Network.dll
 0002:0000037c       __imp_?readLineData@QAbstractSocket@@MAE_JPAD_J@Z 0042637c     Qt5Network:Qt5Network.dll
 0002:00000380       __imp_?readData@QSslSocket@@MAE_JPAD_J@Z 00426380     Qt5Network:Qt5Network.dll
 0002:00000384       __imp_?qt_metacast@QSslSocket@@UAEPAXPBD@Z 00426384     Qt5Network:Qt5Network.dll
 0002:00000388       __imp_?qt_metacall@QSslSocket@@UAEHW4Call@QMetaObject@@HPAPAX@Z 00426388     Qt5Network:Qt5Network.dll
 0002:0000038c       __imp_?metaObject@QSslSocket@@UBEPBUQMetaObject@@XZ 0042638c     Qt5Network:Qt5Network.dll
 0002:00000390       __imp_?isSequential@QAbstractSocket@@UBE_NXZ 00426390     Qt5Network:Qt5Network.dll
 0002:00000394       __imp_?disconnectFromHost@QSslSocket@@UAEXXZ 00426394     Qt5Network:Qt5Network.dll
 0002:00000398       __imp_?connectToHost@QSslSocket@@UAEXABVQString@@GV?$QFlags@W4OpenModeFlag@QIODevice@@@@W4NetworkLayerProtocol@QAbstractSocket@@@Z 00426398     Qt5Network:Qt5Network.dll
 0002:0000039c       __imp_?connectToHost@QAbstractSocket@@UAEXABVQHostAddress@@GV?$QFlags@W4OpenModeFlag@QIODevice@@@@@Z 0042639c     Qt5Network:Qt5Network.dll
 0002:000003a0       __imp_??1QNetworkProxy@@QAE@XZ 004263a0     Qt5Network:Qt5Network.dll
 0002:000003a4       __imp_?canReadLine@QSslSocket@@UBE_NXZ 004263a4     Qt5Network:Qt5Network.dll
 0002:000003a8       __imp_?bytesToWrite@QSslSocket@@UBE_JXZ 004263a8     Qt5Network:Qt5Network.dll
 0002:000003ac       __imp_?bytesAvailable@QSslSocket@@UBE_JXZ 004263ac     Qt5Network:Qt5Network.dll
 0002:000003b0       __imp_?atEnd@QSslSocket@@UBE_NXZ 004263b0     Qt5Network:Qt5Network.dll
 0002:000003b4       __imp_?fromName@QHostInfo@@SA?AV1@ABVQString@@@Z 004263b4     Qt5Network:Qt5Network.dll
 0002:000003b8       __imp_?error@QHostInfo@@QBE?AW4HostInfoError@1@XZ 004263b8     Qt5Network:Qt5Network.dll
 0002:000003bc       __imp_??1QHostInfo@@QAE@XZ 004263bc     Qt5Network:Qt5Network.dll
 0002:000003c0       __imp_??0QHostAddress@@QAE@ABVQString@@@Z 004263c0     Qt5Network:Qt5Network.dll
 0002:000003c4       __imp_??0QHostAddress@@QAE@XZ 004263c4     Qt5Network:Qt5Network.dll
 0002:000003c8       __imp_?peerCertificate@QSslSocket@@QBE?AVQSslCertificate@@XZ 004263c8     Qt5Network:Qt5Network.dll
 0002:000003cc       __imp_?connectToHostEncrypted@QSslSocket@@QAEXABVQString@@GV?$QFlags@W4OpenModeFlag@QIODevice@@@@W4NetworkLayerProtocol@QAbstractSocket@@@Z 004263cc     Qt5Network:Qt5Network.dll
 0002:000003d0       __imp_??1QSslSocket@@UAE@XZ 004263d0     Qt5Network:Qt5Network.dll
 0002:000003d4       __imp_??0QSslSocket@@QAE@PAVQObject@@@Z 004263d4     Qt5Network:Qt5Network.dll
 0002:000003d8       __imp_?errorString@QSslError@@QBE?AVQString@@XZ 004263d8     Qt5Network:Qt5Network.dll
 0002:000003dc       __imp_?expiryDate@QSslCertificate@@QBE?AVQDateTime@@XZ 004263dc     Qt5Network:Qt5Network.dll
 0002:000003e0       __imp_?subjectInfo@QSslCertificate@@QBE?AVQStringList@@W4SubjectInfo@1@@Z 004263e0     Qt5Network:Qt5Network.dll
 0002:000003e4       __imp_?issuerInfo@QSslCertificate@@QBE?AVQStringList@@W4SubjectInfo@1@@Z 004263e4     Qt5Network:Qt5Network.dll
 0002:000003e8       __imp_??1QSslCertificate@@QAE@XZ 004263e8     Qt5Network:Qt5Network.dll
 0002:000003ec       __imp_?peerName@QAbstractSocket@@QBE?AVQString@@XZ 004263ec     Qt5Network:Qt5Network.dll
 0002:000003f0       __imp_?peerAddress@QAbstractSocket@@QBE?AVQHostAddress@@XZ 004263f0     Qt5Network:Qt5Network.dll
 0002:000003f4       __imp_?peerPort@QAbstractSocket@@QBEGXZ 004263f4     Qt5Network:Qt5Network.dll
 0002:000003f8       __imp_?setType@QNetworkProxy@@QAEXW4ProxyType@1@@Z 004263f8     Qt5Network:Qt5Network.dll
 0002:000003fc       __imp_?setUser@QNetworkProxy@@QAEXABVQString@@@Z 004263fc     Qt5Network:Qt5Network.dll
 0002:00000400       __imp_?setPassword@QNetworkProxy@@QAEXABVQString@@@Z 00426400     Qt5Network:Qt5Network.dll
 0002:00000404       __imp_?setHostName@QNetworkProxy@@QAEXABVQString@@@Z 00426404     Qt5Network:Qt5Network.dll
 0002:00000408       __imp_?setPort@QNetworkProxy@@QAEXG@Z 00426408     Qt5Network:Qt5Network.dll
 0002:0000040c       __imp_?setApplicationProxy@QNetworkProxy@@SAXABV1@@Z 0042640c     Qt5Network:Qt5Network.dll
 0002:00000410       __imp_?close@QSslSocket@@UAEXXZ 00426410     Qt5Network:Qt5Network.dll
 0002:00000414       __imp_??1QHostAddress@@QAE@XZ 00426414     Qt5Network:Qt5Network.dll
 0002:00000418       __imp_?toString@QHostAddress@@QBE?AVQString@@XZ 00426418     Qt5Network:Qt5Network.dll
 0002:0000041c       __imp_?isNull@QHostAddress@@QBE_NXZ 0042641c     Qt5Network:Qt5Network.dll
 0002:00000420       __imp_?staticMetaObject@QAbstractSocket@@2UQMetaObject@@B 00426420     Qt5Network:Qt5Network.dll
 0002:00000424       __imp_??0QSslError@@QAE@ABV0@@Z 00426424     Qt5Network:Qt5Network.dll
 0002:00000428       __imp_??1QSslError@@QAE@XZ 00426428     Qt5Network:Qt5Network.dll
 0002:0000042c       \177Qt5Network_NULL_THUNK_DATA 0042642c     Qt5Network:Qt5Network.dll
 0002:00000430       __imp_?actionEvent@QToolBar@@MAEXPAVQActionEvent@@@Z 00426430     Qt5Widgets:Qt5Widgets.dll
 0002:00000434       __imp_?actionEvent@QWidget@@MAEXPAVQActionEvent@@@Z 00426434     Qt5Widgets:Qt5Widgets.dll
 0002:00000438       __imp_?addItem@QBoxLayout@@UAEXPAVQLayoutItem@@@Z 00426438     Qt5Widgets:Qt5Widgets.dll
 0002:0000043c       __imp_?addItem@QFormLayout@@UAEXPAVQLayoutItem@@@Z 0042643c     Qt5Widgets:Qt5Widgets.dll
 0002:00000440       __imp_?canInsertFromMimeData@QTextEdit@@MBE_NPBVQMimeData@@@Z 00426440     Qt5Widgets:Qt5Widgets.dll
 0002:00000444       __imp_?changeEvent@QAbstractButton@@MAEXPAVQEvent@@@Z 00426444     Qt5Widgets:Qt5Widgets.dll
 0002:00000448       __imp_?changeEvent@QDialogButtonBox@@MAEXPAVQEvent@@@Z 00426448     Qt5Widgets:Qt5Widgets.dll
 0002:0000044c       __imp_?changeEvent@QFrame@@MAEXPAVQEvent@@@Z 0042644c     Qt5Widgets:Qt5Widgets.dll
 0002:00000450       __imp_?changeEvent@QGroupBox@@MAEXPAVQEvent@@@Z 00426450     Qt5Widgets:Qt5Widgets.dll
 0002:00000454       __imp_?changeEvent@QLabel@@MAEXPAVQEvent@@@Z 00426454     Qt5Widgets:Qt5Widgets.dll
 0002:00000458       __imp_?changeEvent@QLineEdit@@MAEXPAVQEvent@@@Z 00426458     Qt5Widgets:Qt5Widgets.dll
 0002:0000045c       __imp_?changeEvent@QMenu@@MAEXPAVQEvent@@@Z 0042645c     Qt5Widgets:Qt5Widgets.dll
 0002:00000460       __imp_?changeEvent@QMenuBar@@MAEXPAVQEvent@@@Z 00426460     Qt5Widgets:Qt5Widgets.dll
 0002:00000464       __imp_?changeEvent@QSplitter@@MAEXPAVQEvent@@@Z 00426464     Qt5Widgets:Qt5Widgets.dll
 0002:00000468       __imp_?changeEvent@QTextEdit@@MAEXPAVQEvent@@@Z 00426468     Qt5Widgets:Qt5Widgets.dll
 0002:0000046c       __imp_?changeEvent@QToolBar@@MAEXPAVQEvent@@@Z 0042646c     Qt5Widgets:Qt5Widgets.dll
 0002:00000470       __imp_?changeEvent@QWidget@@MAEXPAVQEvent@@@Z 00426470     Qt5Widgets:Qt5Widgets.dll
 0002:00000474       __imp_?checkStateSet@QAbstractButton@@MAEXXZ 00426474     Qt5Widgets:Qt5Widgets.dll
 0002:00000478       __imp_?checkStateSet@QCheckBox@@MAEXXZ 00426478     Qt5Widgets:Qt5Widgets.dll
 0002:0000047c       __imp_?childEvent@QGroupBox@@MAEXPAVQChildEvent@@@Z 0042647c     Qt5Widgets:Qt5Widgets.dll
 0002:00000480       __imp_?childEvent@QLayout@@MAEXPAVQChildEvent@@@Z 00426480     Qt5Widgets:Qt5Widgets.dll
 0002:00000484       __imp_?childEvent@QSplitter@@MAEXPAVQChildEvent@@@Z 00426484     Qt5Widgets:Qt5Widgets.dll
 0002:00000488       __imp_?closeEditor@QAbstractItemView@@MAEXPAVQWidget@@W4EndEditHint@QAbstractItemDelegate@@@Z 00426488     Qt5Widgets:Qt5Widgets.dll
 0002:0000048c       __imp_?closeEvent@QWidget@@MAEXPAVQCloseEvent@@@Z 0042648c     Qt5Widgets:Qt5Widgets.dll
 0002:00000490       __imp_?commitData@QAbstractItemView@@MAEXPAVQWidget@@@Z 00426490     Qt5Widgets:Qt5Widgets.dll
 0002:00000494       __imp_?contextMenuEvent@QAbstractScrollArea@@MAEXPAVQContextMenuEvent@@@Z 00426494     Qt5Widgets:Qt5Widgets.dll
 0002:00000498       __imp_?contextMenuEvent@QLabel@@MAEXPAVQContextMenuEvent@@@Z 00426498     Qt5Widgets:Qt5Widgets.dll
 0002:0000049c       __imp_?contextMenuEvent@QLineEdit@@MAEXPAVQContextMenuEvent@@@Z 0042649c     Qt5Widgets:Qt5Widgets.dll
 0002:000004a0       __imp_?contextMenuEvent@QMainWindow@@MAEXPAVQContextMenuEvent@@@Z 004264a0     Qt5Widgets:Qt5Widgets.dll
 0002:000004a4       __imp_?contextMenuEvent@QTextEdit@@MAEXPAVQContextMenuEvent@@@Z 004264a4     Qt5Widgets:Qt5Widgets.dll
 0002:000004a8       __imp_?contextMenuEvent@QWidget@@MAEXPAVQContextMenuEvent@@@Z 004264a8     Qt5Widgets:Qt5Widgets.dll
 0002:000004ac       __imp_?controlTypes@QLayout@@UBE?AV?$QFlags@W4ControlType@QSizePolicy@@@@XZ 004264ac     Qt5Widgets:Qt5Widgets.dll
 0002:000004b0       __imp_?controlTypes@QLayoutItem@@UBE?AV?$QFlags@W4ControlType@QSizePolicy@@@@XZ 004264b0     Qt5Widgets:Qt5Widgets.dll
 0002:000004b4       __imp_?count@QBoxLayout@@UBEHXZ 004264b4     Qt5Widgets:Qt5Widgets.dll
 0002:000004b8       __imp_?count@QFormLayout@@UBEHXZ 004264b8     Qt5Widgets:Qt5Widgets.dll
 0002:000004bc       __imp_?createHandle@QSplitter@@MAEPAVQSplitterHandle@@XZ 004264bc     Qt5Widgets:Qt5Widgets.dll
 0002:000004c0       __imp_?createMimeDataFromSelection@QTextEdit@@MBEPAVQMimeData@@XZ 004264c0     Qt5Widgets:Qt5Widgets.dll
 0002:000004c4       __imp_?createPopupMenu@QMainWindow@@UAEPAVQMenu@@XZ 004264c4     Qt5Widgets:Qt5Widgets.dll
 0002:000004c8       __imp_?currentChanged@QListView@@MAEXABVQModelIndex@@0@Z 004264c8     Qt5Widgets:Qt5Widgets.dll
 0002:000004cc       __imp_?dataChanged@QListView@@MAEXABVQModelIndex@@0ABV?$QVector@H@@@Z 004264cc     Qt5Widgets:Qt5Widgets.dll
 0002:000004d0       __imp_?devType@QWidget@@UBEHXZ 004264d0     Qt5Widgets:Qt5Widgets.dll
 0002:000004d4       __imp_?doItemsLayout@QListView@@UAEXXZ 004264d4     Qt5Widgets:Qt5Widgets.dll
 0002:000004d8       __imp_?doSetTextCursor@QTextEdit@@MAEXABVQTextCursor@@@Z 004264d8     Qt5Widgets:Qt5Widgets.dll
 0002:000004dc       __imp_?dragEnterEvent@QAbstractItemView@@MAEXPAVQDragEnterEvent@@@Z 004264dc     Qt5Widgets:Qt5Widgets.dll
 0002:000004e0       __imp_?dragEnterEvent@QLineEdit@@MAEXPAVQDragEnterEvent@@@Z 004264e0     Qt5Widgets:Qt5Widgets.dll
 0002:000004e4       __imp_?dragEnterEvent@QTextEdit@@MAEXPAVQDragEnterEvent@@@Z 004264e4     Qt5Widgets:Qt5Widgets.dll
 0002:000004e8       __imp_?dragEnterEvent@QWidget@@MAEXPAVQDragEnterEvent@@@Z 004264e8     Qt5Widgets:Qt5Widgets.dll
 0002:000004ec       __imp_?dragLeaveEvent@QLineEdit@@MAEXPAVQDragLeaveEvent@@@Z 004264ec     Qt5Widgets:Qt5Widgets.dll
 0002:000004f0       __imp_?dragLeaveEvent@QListView@@MAEXPAVQDragLeaveEvent@@@Z 004264f0     Qt5Widgets:Qt5Widgets.dll
 0002:000004f4       __imp_?dragLeaveEvent@QTextEdit@@MAEXPAVQDragLeaveEvent@@@Z 004264f4     Qt5Widgets:Qt5Widgets.dll
 0002:000004f8       __imp_?dragLeaveEvent@QWidget@@MAEXPAVQDragLeaveEvent@@@Z 004264f8     Qt5Widgets:Qt5Widgets.dll
 0002:000004fc       __imp_?dragMoveEvent@QLineEdit@@MAEXPAVQDragMoveEvent@@@Z 004264fc     Qt5Widgets:Qt5Widgets.dll
 0002:00000500       __imp_?dragMoveEvent@QListView@@MAEXPAVQDragMoveEvent@@@Z 00426500     Qt5Widgets:Qt5Widgets.dll
 0002:00000504       __imp_?dragMoveEvent@QTextEdit@@MAEXPAVQDragMoveEvent@@@Z 00426504     Qt5Widgets:Qt5Widgets.dll
 0002:00000508       __imp_?dragMoveEvent@QWidget@@MAEXPAVQDragMoveEvent@@@Z 00426508     Qt5Widgets:Qt5Widgets.dll
 0002:0000050c       __imp_?dropEvent@QLineEdit@@MAEXPAVQDropEvent@@@Z 0042650c     Qt5Widgets:Qt5Widgets.dll
 0002:00000510       __imp_?dropEvent@QListWidget@@UAEXPAVQDropEvent@@@Z 00426510     Qt5Widgets:Qt5Widgets.dll
 0002:00000514       __imp_?dropEvent@QTextEdit@@MAEXPAVQDropEvent@@@Z 00426514     Qt5Widgets:Qt5Widgets.dll
 0002:00000518       __imp_?dropEvent@QWidget@@MAEXPAVQDropEvent@@@Z 00426518     Qt5Widgets:Qt5Widgets.dll
 0002:0000051c       __imp_?dropMimeData@QListWidget@@MAE_NHPBVQMimeData@@W4DropAction@Qt@@@Z 0042651c     Qt5Widgets:Qt5Widgets.dll
 0002:00000520       __imp_?edit@QAbstractItemView@@MAE_NABVQModelIndex@@W4EditTrigger@1@PAVQEvent@@@Z 00426520     Qt5Widgets:Qt5Widgets.dll
 0002:00000524       __imp_?editorDestroyed@QAbstractItemView@@MAEXPAVQObject@@@Z 00426524     Qt5Widgets:Qt5Widgets.dll
 0002:00000528       __imp_?enterEvent@QMenu@@MAEXPAVQEvent@@@Z 00426528     Qt5Widgets:Qt5Widgets.dll
 0002:0000052c       __imp_?enterEvent@QWidget@@MAEXPAVQEvent@@@Z 0042652c     Qt5Widgets:Qt5Widgets.dll
 0002:00000530       __imp_?event@QAction@@MAE_NPAVQEvent@@@Z 00426530     Qt5Widgets:Qt5Widgets.dll
 0002:00000534       __imp_?event@QCheckBox@@MAE_NPAVQEvent@@@Z 00426534     Qt5Widgets:Qt5Widgets.dll
 0002:00000538       __imp_?event@QDialogButtonBox@@MAE_NPAVQEvent@@@Z 00426538     Qt5Widgets:Qt5Widgets.dll
 0002:0000053c       __imp_?event@QGroupBox@@MAE_NPAVQEvent@@@Z 0042653c     Qt5Widgets:Qt5Widgets.dll
 0002:00000540       __imp_?event@QLabel@@MAE_NPAVQEvent@@@Z 00426540     Qt5Widgets:Qt5Widgets.dll
 0002:00000544       __imp_?event@QLineEdit@@UAE_NPAVQEvent@@@Z 00426544     Qt5Widgets:Qt5Widgets.dll
 0002:00000548       __imp_?event@QListWidget@@MAE_NPAVQEvent@@@Z 00426548     Qt5Widgets:Qt5Widgets.dll
 0002:0000054c       __imp_?event@QMainWindow@@MAE_NPAVQEvent@@@Z 0042654c     Qt5Widgets:Qt5Widgets.dll
 0002:00000550       __imp_?event@QMenu@@MAE_NPAVQEvent@@@Z 00426550     Qt5Widgets:Qt5Widgets.dll
 0002:00000554       __imp_?event@QMenuBar@@MAE_NPAVQEvent@@@Z 00426554     Qt5Widgets:Qt5Widgets.dll
 0002:00000558       __imp_?event@QPushButton@@MAE_NPAVQEvent@@@Z 00426558     Qt5Widgets:Qt5Widgets.dll
 0002:0000055c       __imp_?event@QSplitter@@MAE_NPAVQEvent@@@Z 0042655c     Qt5Widgets:Qt5Widgets.dll
 0002:00000560       __imp_?event@QStatusBar@@MAE_NPAVQEvent@@@Z 00426560     Qt5Widgets:Qt5Widgets.dll
 0002:00000564       __imp_?event@QTextEdit@@MAE_NPAVQEvent@@@Z 00426564     Qt5Widgets:Qt5Widgets.dll
 0002:00000568       __imp_?event@QToolBar@@MAE_NPAVQEvent@@@Z 00426568     Qt5Widgets:Qt5Widgets.dll
 0002:0000056c       __imp_?event@QWidget@@MAE_NPAVQEvent@@@Z 0042656c     Qt5Widgets:Qt5Widgets.dll
 0002:00000570       __imp_?eventFilter@QAbstractScrollArea@@MAE_NPAVQObject@@PAVQEvent@@@Z 00426570     Qt5Widgets:Qt5Widgets.dll
 0002:00000574       __imp_?eventFilter@QMenuBar@@MAE_NPAVQObject@@PAVQEvent@@@Z 00426574     Qt5Widgets:Qt5Widgets.dll
 0002:00000578       __imp_?expandingDirections@QBoxLayout@@UBE?AV?$QFlags@W4Orientation@Qt@@@@XZ 00426578     Qt5Widgets:Qt5Widgets.dll
 0002:0000057c       __imp_?expandingDirections@QFormLayout@@UBE?AV?$QFlags@W4Orientation@Qt@@@@XZ 0042657c     Qt5Widgets:Qt5Widgets.dll
 0002:00000580       __imp_?expandingDirections@QSpacerItem@@UBE?AV?$QFlags@W4Orientation@Qt@@@@XZ 00426580     Qt5Widgets:Qt5Widgets.dll
 0002:00000584       __imp_?focusInEvent@QAbstractButton@@MAEXPAVQFocusEvent@@@Z 00426584     Qt5Widgets:Qt5Widgets.dll
 0002:00000588       __imp_?focusInEvent@QAbstractItemView@@MAEXPAVQFocusEvent@@@Z 00426588     Qt5Widgets:Qt5Widgets.dll
 0002:0000058c       __imp_?focusInEvent@QGroupBox@@MAEXPAVQFocusEvent@@@Z 0042658c     Qt5Widgets:Qt5Widgets.dll
 0002:00000590       __imp_?focusInEvent@QLabel@@MAEXPAVQFocusEvent@@@Z 00426590     Qt5Widgets:Qt5Widgets.dll
 0002:00000594       __imp_?focusInEvent@QLineEdit@@MAEXPAVQFocusEvent@@@Z 00426594     Qt5Widgets:Qt5Widgets.dll
 0002:00000598       __imp_?focusInEvent@QMenuBar@@MAEXPAVQFocusEvent@@@Z 00426598     Qt5Widgets:Qt5Widgets.dll
 0002:0000059c       __imp_?focusInEvent@QPushButton@@MAEXPAVQFocusEvent@@@Z 0042659c     Qt5Widgets:Qt5Widgets.dll
 0002:000005a0       __imp_?focusInEvent@QTextEdit@@MAEXPAVQFocusEvent@@@Z 004265a0     Qt5Widgets:Qt5Widgets.dll
 0002:000005a4       __imp_?focusInEvent@QWidget@@MAEXPAVQFocusEvent@@@Z 004265a4     Qt5Widgets:Qt5Widgets.dll
 0002:000005a8       __imp_?focusNextPrevChild@QAbstractItemView@@MAE_N_N@Z 004265a8     Qt5Widgets:Qt5Widgets.dll
 0002:000005ac       __imp_?focusNextPrevChild@QLabel@@MAE_N_N@Z 004265ac     Qt5Widgets:Qt5Widgets.dll
 0002:000005b0       __imp_?focusNextPrevChild@QMenu@@MAE_N_N@Z 004265b0     Qt5Widgets:Qt5Widgets.dll
 0002:000005b4       __imp_?focusNextPrevChild@QTextEdit@@MAE_N_N@Z 004265b4     Qt5Widgets:Qt5Widgets.dll
 0002:000005b8       __imp_?focusNextPrevChild@QWidget@@MAE_N_N@Z 004265b8     Qt5Widgets:Qt5Widgets.dll
 0002:000005bc       __imp_?actionEvent@QMenuBar@@MAEXPAVQActionEvent@@@Z 004265bc     Qt5Widgets:Qt5Widgets.dll
 0002:000005c0       __imp_?focusOutEvent@QAbstractItemView@@MAEXPAVQFocusEvent@@@Z 004265c0     Qt5Widgets:Qt5Widgets.dll
 0002:000005c4       __imp_?focusOutEvent@QLabel@@MAEXPAVQFocusEvent@@@Z 004265c4     Qt5Widgets:Qt5Widgets.dll
 0002:000005c8       __imp_?focusOutEvent@QLineEdit@@MAEXPAVQFocusEvent@@@Z 004265c8     Qt5Widgets:Qt5Widgets.dll
 0002:000005cc       __imp_?focusOutEvent@QMenuBar@@MAEXPAVQFocusEvent@@@Z 004265cc     Qt5Widgets:Qt5Widgets.dll
 0002:000005d0       __imp_?focusOutEvent@QPushButton@@MAEXPAVQFocusEvent@@@Z 004265d0     Qt5Widgets:Qt5Widgets.dll
 0002:000005d4       __imp_?focusOutEvent@QTextEdit@@MAEXPAVQFocusEvent@@@Z 004265d4     Qt5Widgets:Qt5Widgets.dll
 0002:000005d8       __imp_?focusOutEvent@QWidget@@MAEXPAVQFocusEvent@@@Z 004265d8     Qt5Widgets:Qt5Widgets.dll
 0002:000005dc       __imp_?geometry@QLayout@@UBE?AVQRect@@XZ 004265dc     Qt5Widgets:Qt5Widgets.dll
 0002:000005e0       __imp_?geometry@QSpacerItem@@UBE?AVQRect@@XZ 004265e0     Qt5Widgets:Qt5Widgets.dll
 0002:000005e4       __imp_?hasHeightForWidth@QBoxLayout@@UBE_NXZ 004265e4     Qt5Widgets:Qt5Widgets.dll
 0002:000005e8       __imp_?actionEvent@QMenu@@MAEXPAVQActionEvent@@@Z 004265e8     Qt5Widgets:Qt5Widgets.dll
 0002:000005ec       __imp_?hasHeightForWidth@QLayoutItem@@UBE_NXZ 004265ec     Qt5Widgets:Qt5Widgets.dll
 0002:000005f0       __imp_?hasHeightForWidth@QWidget@@UBE_NXZ 004265f0     Qt5Widgets:Qt5Widgets.dll
 0002:000005f4       __imp_?heightForWidth@QBoxLayout@@UBEHH@Z 004265f4     Qt5Widgets:Qt5Widgets.dll
 0002:000005f8       __imp_?heightForWidth@QFormLayout@@UBEHH@Z 004265f8     Qt5Widgets:Qt5Widgets.dll
 0002:000005fc       __imp_?heightForWidth@QLabel@@UBEHH@Z 004265fc     Qt5Widgets:Qt5Widgets.dll
 0002:00000600       __imp_?heightForWidth@QLayoutItem@@UBEHH@Z 00426600     Qt5Widgets:Qt5Widgets.dll
 0002:00000604       __imp_?heightForWidth@QMenuBar@@UBEHH@Z 00426604     Qt5Widgets:Qt5Widgets.dll
 0002:00000608       __imp_?heightForWidth@QWidget@@UBEHH@Z 00426608     Qt5Widgets:Qt5Widgets.dll
 0002:0000060c       __imp_?hideEvent@QMenu@@MAEXPAVQHideEvent@@@Z 0042660c     Qt5Widgets:Qt5Widgets.dll
 0002:00000610       __imp_?hideEvent@QWidget@@MAEXPAVQHideEvent@@@Z 00426610     Qt5Widgets:Qt5Widgets.dll
 0002:00000614       __imp_?hitButton@QAbstractButton@@MBE_NABVQPoint@@@Z 00426614     Qt5Widgets:Qt5Widgets.dll
 0002:00000618       __imp_?hitButton@QCheckBox@@MBE_NABVQPoint@@@Z 00426618     Qt5Widgets:Qt5Widgets.dll
 0002:0000061c       __imp_?horizontalOffset@QListView@@MBEHXZ 0042661c     Qt5Widgets:Qt5Widgets.dll
 0002:00000620       __imp_?horizontalScrollbarAction@QAbstractItemView@@MAEXH@Z 00426620     Qt5Widgets:Qt5Widgets.dll
 0002:00000624       __imp_?horizontalScrollbarValueChanged@QAbstractItemView@@MAEXH@Z 00426624     Qt5Widgets:Qt5Widgets.dll
 0002:00000628       __imp_?indexAt@QListView@@UBE?AVQModelIndex@@ABVQPoint@@@Z 00426628     Qt5Widgets:Qt5Widgets.dll
 0002:0000062c       __imp_?indexOf@QLayout@@UBEHPAVQWidget@@@Z 0042662c     Qt5Widgets:Qt5Widgets.dll
 0002:00000630       __imp_?initPainter@QWidget@@MBEXPAVQPainter@@@Z 00426630     Qt5Widgets:Qt5Widgets.dll
 0002:00000634       __imp_?inputMethodEvent@QAbstractItemView@@MAEXPAVQInputMethodEvent@@@Z 00426634     Qt5Widgets:Qt5Widgets.dll
 0002:00000638       __imp_?inputMethodEvent@QLineEdit@@MAEXPAVQInputMethodEvent@@@Z 00426638     Qt5Widgets:Qt5Widgets.dll
 0002:0000063c       __imp_?inputMethodEvent@QTextEdit@@MAEXPAVQInputMethodEvent@@@Z 0042663c     Qt5Widgets:Qt5Widgets.dll
 0002:00000640       __imp_?inputMethodEvent@QWidget@@MAEXPAVQInputMethodEvent@@@Z 00426640     Qt5Widgets:Qt5Widgets.dll
 0002:00000644       __imp_?inputMethodQuery@QAbstractItemView@@UBE?AVQVariant@@W4InputMethodQuery@Qt@@@Z 00426644     Qt5Widgets:Qt5Widgets.dll
 0002:00000648       __imp_?inputMethodQuery@QLineEdit@@UBE?AVQVariant@@W4InputMethodQuery@Qt@@@Z 00426648     Qt5Widgets:Qt5Widgets.dll
 0002:0000064c       __imp_?inputMethodQuery@QTextEdit@@UBE?AVQVariant@@W4InputMethodQuery@Qt@@@Z 0042664c     Qt5Widgets:Qt5Widgets.dll
 0002:00000650       __imp_?inputMethodQuery@QWidget@@UBE?AVQVariant@@W4InputMethodQuery@Qt@@@Z 00426650     Qt5Widgets:Qt5Widgets.dll
 0002:00000654       __imp_?insertFromMimeData@QTextEdit@@MAEXPBVQMimeData@@@Z 00426654     Qt5Widgets:Qt5Widgets.dll
 0002:00000658       __imp_?invalidate@QBoxLayout@@UAEXXZ 00426658     Qt5Widgets:Qt5Widgets.dll
 0002:0000065c       __imp_?invalidate@QFormLayout@@UAEXXZ 0042665c     Qt5Widgets:Qt5Widgets.dll
 0002:00000660       __imp_?invalidate@QLayoutItem@@UAEXXZ 00426660     Qt5Widgets:Qt5Widgets.dll
 0002:00000664       __imp_?isEmpty@QLayout@@UBE_NXZ 00426664     Qt5Widgets:Qt5Widgets.dll
 0002:00000668       __imp_?isEmpty@QSpacerItem@@UBE_NXZ 00426668     Qt5Widgets:Qt5Widgets.dll
 0002:0000066c       __imp_?isIndexHidden@QListView@@MBE_NABVQModelIndex@@@Z 0042666c     Qt5Widgets:Qt5Widgets.dll
 0002:00000670       __imp_?itemAt@QBoxLayout@@UBEPAVQLayoutItem@@H@Z 00426670     Qt5Widgets:Qt5Widgets.dll
 0002:00000674       __imp_?itemAt@QFormLayout@@UBEPAVQLayoutItem@@H@Z 00426674     Qt5Widgets:Qt5Widgets.dll
 0002:00000678       __imp_?keyPressEvent@QAbstractButton@@MAEXPAVQKeyEvent@@@Z 00426678     Qt5Widgets:Qt5Widgets.dll
 0002:0000067c       __imp_?keyPressEvent@QAbstractItemView@@MAEXPAVQKeyEvent@@@Z 0042667c     Qt5Widgets:Qt5Widgets.dll
 0002:00000680       __imp_?keyPressEvent@QLabel@@MAEXPAVQKeyEvent@@@Z 00426680     Qt5Widgets:Qt5Widgets.dll
 0002:00000684       __imp_?keyPressEvent@QLineEdit@@MAEXPAVQKeyEvent@@@Z 00426684     Qt5Widgets:Qt5Widgets.dll
 0002:00000688       __imp_?keyPressEvent@QMenu@@MAEXPAVQKeyEvent@@@Z 00426688     Qt5Widgets:Qt5Widgets.dll
 0002:0000068c       __imp_?keyPressEvent@QMenuBar@@MAEXPAVQKeyEvent@@@Z 0042668c     Qt5Widgets:Qt5Widgets.dll
 0002:00000690       __imp_?keyPressEvent@QPushButton@@MAEXPAVQKeyEvent@@@Z 00426690     Qt5Widgets:Qt5Widgets.dll
 0002:00000694       __imp_?keyPressEvent@QTextEdit@@MAEXPAVQKeyEvent@@@Z 00426694     Qt5Widgets:Qt5Widgets.dll
 0002:00000698       __imp_?keyPressEvent@QWidget@@MAEXPAVQKeyEvent@@@Z 00426698     Qt5Widgets:Qt5Widgets.dll
 0002:0000069c       __imp_?keyReleaseEvent@QAbstractButton@@MAEXPAVQKeyEvent@@@Z 0042669c     Qt5Widgets:Qt5Widgets.dll
 0002:000006a0       __imp_?setWidget@QFormLayout@@QAEXHW4ItemRole@1@PAVQWidget@@@Z 004266a0     Qt5Widgets:Qt5Widgets.dll
 0002:000006a4       __imp_?keyReleaseEvent@QWidget@@MAEXPAVQKeyEvent@@@Z 004266a4     Qt5Widgets:Qt5Widgets.dll
 0002:000006a8       __imp_?keyboardSearch@QAbstractItemView@@UAEXABVQString@@@Z 004266a8     Qt5Widgets:Qt5Widgets.dll
 0002:000006ac       __imp_?layout@QLayout@@UAEPAV1@XZ 004266ac     Qt5Widgets:Qt5Widgets.dll
 0002:000006b0       __imp_?layout@QLayoutItem@@UAEPAVQLayout@@XZ 004266b0     Qt5Widgets:Qt5Widgets.dll
 0002:000006b4       __imp_?leaveEvent@QMenu@@MAEXPAVQEvent@@@Z 004266b4     Qt5Widgets:Qt5Widgets.dll
 0002:000006b8       __imp_?leaveEvent@QMenuBar@@MAEXPAVQEvent@@@Z 004266b8     Qt5Widgets:Qt5Widgets.dll
 0002:000006bc       __imp_?leaveEvent@QWidget@@MAEXPAVQEvent@@@Z 004266bc     Qt5Widgets:Qt5Widgets.dll
 0002:000006c0       __imp_?loadResource@QTextEdit@@UAE?AVQVariant@@HABVQUrl@@@Z 004266c0     Qt5Widgets:Qt5Widgets.dll
 0002:000006c4       __imp_?maximumSize@QBoxLayout@@UBE?AVQSize@@XZ 004266c4     Qt5Widgets:Qt5Widgets.dll
 0002:000006c8       __imp_?maximumSize@QLayout@@UBE?AVQSize@@XZ 004266c8     Qt5Widgets:Qt5Widgets.dll
 0002:000006cc       __imp_?maximumSize@QSpacerItem@@UBE?AVQSize@@XZ 004266cc     Qt5Widgets:Qt5Widgets.dll
 0002:000006d0       __imp_?metaObject@QAction@@UBEPBUQMetaObject@@XZ 004266d0     Qt5Widgets:Qt5Widgets.dll
 0002:000006d4       __imp_?metaObject@QCheckBox@@UBEPBUQMetaObject@@XZ 004266d4     Qt5Widgets:Qt5Widgets.dll
 0002:000006d8       __imp_?metaObject@QDialogButtonBox@@UBEPBUQMetaObject@@XZ 004266d8     Qt5Widgets:Qt5Widgets.dll
 0002:000006dc       __imp_?metaObject@QFormLayout@@UBEPBUQMetaObject@@XZ 004266dc     Qt5Widgets:Qt5Widgets.dll
 0002:000006e0       __imp_?metaObject@QGroupBox@@UBEPBUQMetaObject@@XZ 004266e0     Qt5Widgets:Qt5Widgets.dll
 0002:000006e4       __imp_?metaObject@QHBoxLayout@@UBEPBUQMetaObject@@XZ 004266e4     Qt5Widgets:Qt5Widgets.dll
 0002:000006e8       __imp_?metaObject@QLabel@@UBEPBUQMetaObject@@XZ 004266e8     Qt5Widgets:Qt5Widgets.dll
 0002:000006ec       __imp_?metaObject@QLineEdit@@UBEPBUQMetaObject@@XZ 004266ec     Qt5Widgets:Qt5Widgets.dll
 0002:000006f0       __imp_?metaObject@QListWidget@@UBEPBUQMetaObject@@XZ 004266f0     Qt5Widgets:Qt5Widgets.dll
 0002:000006f4       __imp_?metaObject@QMenu@@UBEPBUQMetaObject@@XZ 004266f4     Qt5Widgets:Qt5Widgets.dll
 0002:000006f8       __imp_?metaObject@QMenuBar@@UBEPBUQMetaObject@@XZ 004266f8     Qt5Widgets:Qt5Widgets.dll
 0002:000006fc       __imp_?metaObject@QPushButton@@UBEPBUQMetaObject@@XZ 004266fc     Qt5Widgets:Qt5Widgets.dll
 0002:00000700       __imp_?metaObject@QSplitter@@UBEPBUQMetaObject@@XZ 00426700     Qt5Widgets:Qt5Widgets.dll
 0002:00000704       __imp_?metaObject@QStatusBar@@UBEPBUQMetaObject@@XZ 00426704     Qt5Widgets:Qt5Widgets.dll
 0002:00000708       __imp_?metaObject@QTextEdit@@UBEPBUQMetaObject@@XZ 00426708     Qt5Widgets:Qt5Widgets.dll
 0002:0000070c       __imp_?metaObject@QToolBar@@UBEPBUQMetaObject@@XZ 0042670c     Qt5Widgets:Qt5Widgets.dll
 0002:00000710       __imp_?metaObject@QVBoxLayout@@UBEPBUQMetaObject@@XZ 00426710     Qt5Widgets:Qt5Widgets.dll
 0002:00000714       __imp_?metaObject@QWidget@@UBEPBUQMetaObject@@XZ 00426714     Qt5Widgets:Qt5Widgets.dll
 0002:00000718       __imp_?metric@QWidget@@MBEHW4PaintDeviceMetric@QPaintDevice@@@Z 00426718     Qt5Widgets:Qt5Widgets.dll
 0002:0000071c       __imp_?mimeData@QListWidget@@MBEPAVQMimeData@@V?$QList@PAVQListWidgetItem@@@@@Z 0042671c     Qt5Widgets:Qt5Widgets.dll
 0002:00000720       __imp_?mimeTypes@QListWidget@@MBE?AVQStringList@@XZ 00426720     Qt5Widgets:Qt5Widgets.dll
 0002:00000724       __imp_?minimumHeightForWidth@QBoxLayout@@UBEHH@Z 00426724     Qt5Widgets:Qt5Widgets.dll
 0002:00000728       __imp_?minimumHeightForWidth@QLayoutItem@@UBEHH@Z 00426728     Qt5Widgets:Qt5Widgets.dll
 0002:0000072c       __imp_?minimumSize@QBoxLayout@@UBE?AVQSize@@XZ 0042672c     Qt5Widgets:Qt5Widgets.dll
 0002:00000730       __imp_?minimumSize@QFormLayout@@UBE?AVQSize@@XZ 00426730     Qt5Widgets:Qt5Widgets.dll
 0002:00000734       __imp_?minimumSize@QSpacerItem@@UBE?AVQSize@@XZ 00426734     Qt5Widgets:Qt5Widgets.dll
 0002:00000738       __imp_?minimumSizeHint@QAbstractScrollArea@@UBE?AVQSize@@XZ 00426738     Qt5Widgets:Qt5Widgets.dll
 0002:0000073c       __imp_?minimumSizeHint@QCheckBox@@UBE?AVQSize@@XZ 0042673c     Qt5Widgets:Qt5Widgets.dll
 0002:00000740       __imp_?minimumSizeHint@QGroupBox@@UBE?AVQSize@@XZ 00426740     Qt5Widgets:Qt5Widgets.dll
 0002:00000744       __imp_?minimumSizeHint@QLabel@@UBE?AVQSize@@XZ 00426744     Qt5Widgets:Qt5Widgets.dll
 0002:00000748       __imp_?minimumSizeHint@QLineEdit@@UBE?AVQSize@@XZ 00426748     Qt5Widgets:Qt5Widgets.dll
 0002:0000074c       __imp_?minimumSizeHint@QMenuBar@@UBE?AVQSize@@XZ 0042674c     Qt5Widgets:Qt5Widgets.dll
 0002:00000750       __imp_?minimumSizeHint@QPushButton@@UBE?AVQSize@@XZ 00426750     Qt5Widgets:Qt5Widgets.dll
 0002:00000754       __imp_?minimumSizeHint@QSplitter@@UBE?AVQSize@@XZ 00426754     Qt5Widgets:Qt5Widgets.dll
 0002:00000758       __imp_?minimumSizeHint@QWidget@@UBE?AVQSize@@XZ 00426758     Qt5Widgets:Qt5Widgets.dll
 0002:0000075c       __imp_?mouseDoubleClickEvent@QAbstractItemView@@MAEXPAVQMouseEvent@@@Z 0042675c     Qt5Widgets:Qt5Widgets.dll
 0002:00000760       __imp_?mouseDoubleClickEvent@QLineEdit@@MAEXPAVQMouseEvent@@@Z 00426760     Qt5Widgets:Qt5Widgets.dll
 0002:00000764       __imp_?mouseDoubleClickEvent@QTextEdit@@MAEXPAVQMouseEvent@@@Z 00426764     Qt5Widgets:Qt5Widgets.dll
 0002:00000768       __imp_?mouseDoubleClickEvent@QWidget@@MAEXPAVQMouseEvent@@@Z 00426768     Qt5Widgets:Qt5Widgets.dll
 0002:0000076c       __imp_?mouseMoveEvent@QAbstractButton@@MAEXPAVQMouseEvent@@@Z 0042676c     Qt5Widgets:Qt5Widgets.dll
 0002:00000770       __imp_?mouseMoveEvent@QCheckBox@@MAEXPAVQMouseEvent@@@Z 00426770     Qt5Widgets:Qt5Widgets.dll
 0002:00000774       __imp_?mouseMoveEvent@QGroupBox@@MAEXPAVQMouseEvent@@@Z 00426774     Qt5Widgets:Qt5Widgets.dll
 0002:00000778       __imp_?mouseMoveEvent@QLabel@@MAEXPAVQMouseEvent@@@Z 00426778     Qt5Widgets:Qt5Widgets.dll
 0002:0000077c       __imp_?mouseMoveEvent@QLineEdit@@MAEXPAVQMouseEvent@@@Z 0042677c     Qt5Widgets:Qt5Widgets.dll
 0002:00000780       __imp_?mouseMoveEvent@QListView@@MAEXPAVQMouseEvent@@@Z 00426780     Qt5Widgets:Qt5Widgets.dll
 0002:00000784       __imp_?mouseMoveEvent@QMenu@@MAEXPAVQMouseEvent@@@Z 00426784     Qt5Widgets:Qt5Widgets.dll
 0002:00000788       __imp_?mouseMoveEvent@QMenuBar@@MAEXPAVQMouseEvent@@@Z 00426788     Qt5Widgets:Qt5Widgets.dll
 0002:0000078c       __imp_?mouseMoveEvent@QTextEdit@@MAEXPAVQMouseEvent@@@Z 0042678c     Qt5Widgets:Qt5Widgets.dll
 0002:00000790       __imp_?mouseMoveEvent@QWidget@@MAEXPAVQMouseEvent@@@Z 00426790     Qt5Widgets:Qt5Widgets.dll
 0002:00000794       __imp_?mousePressEvent@QAbstractButton@@MAEXPAVQMouseEvent@@@Z 00426794     Qt5Widgets:Qt5Widgets.dll
 0002:00000798       __imp_?mousePressEvent@QAbstractItemView@@MAEXPAVQMouseEvent@@@Z 00426798     Qt5Widgets:Qt5Widgets.dll
 0002:0000079c       __imp_?mousePressEvent@QGroupBox@@MAEXPAVQMouseEvent@@@Z 0042679c     Qt5Widgets:Qt5Widgets.dll
 0002:000007a0       __imp_?mousePressEvent@QLabel@@MAEXPAVQMouseEvent@@@Z 004267a0     Qt5Widgets:Qt5Widgets.dll
 0002:000007a4       __imp_?mousePressEvent@QLineEdit@@MAEXPAVQMouseEvent@@@Z 004267a4     Qt5Widgets:Qt5Widgets.dll
 0002:000007a8       __imp_?mousePressEvent@QMenu@@MAEXPAVQMouseEvent@@@Z 004267a8     Qt5Widgets:Qt5Widgets.dll
 0002:000007ac       __imp_?mousePressEvent@QMenuBar@@MAEXPAVQMouseEvent@@@Z 004267ac     Qt5Widgets:Qt5Widgets.dll
 0002:000007b0       __imp_?mousePressEvent@QTextEdit@@MAEXPAVQMouseEvent@@@Z 004267b0     Qt5Widgets:Qt5Widgets.dll
 0002:000007b4       __imp_?mousePressEvent@QWidget@@MAEXPAVQMouseEvent@@@Z 004267b4     Qt5Widgets:Qt5Widgets.dll
 0002:000007b8       __imp_?mouseReleaseEvent@QAbstractButton@@MAEXPAVQMouseEvent@@@Z 004267b8     Qt5Widgets:Qt5Widgets.dll
 0002:000007bc       __imp_?mouseReleaseEvent@QGroupBox@@MAEXPAVQMouseEvent@@@Z 004267bc     Qt5Widgets:Qt5Widgets.dll
 0002:000007c0       __imp_?mouseReleaseEvent@QLabel@@MAEXPAVQMouseEvent@@@Z 004267c0     Qt5Widgets:Qt5Widgets.dll
 0002:000007c4       __imp_?mouseReleaseEvent@QLineEdit@@MAEXPAVQMouseEvent@@@Z 004267c4     Qt5Widgets:Qt5Widgets.dll
 0002:000007c8       __imp_?mouseReleaseEvent@QListView@@MAEXPAVQMouseEvent@@@Z 004267c8     Qt5Widgets:Qt5Widgets.dll
 0002:000007cc       __imp_?mouseReleaseEvent@QMenu@@MAEXPAVQMouseEvent@@@Z 004267cc     Qt5Widgets:Qt5Widgets.dll
 0002:000007d0       __imp_?mouseReleaseEvent@QMenuBar@@MAEXPAVQMouseEvent@@@Z 004267d0     Qt5Widgets:Qt5Widgets.dll
 0002:000007d4       __imp_?mouseReleaseEvent@QTextEdit@@MAEXPAVQMouseEvent@@@Z 004267d4     Qt5Widgets:Qt5Widgets.dll
 0002:000007d8       __imp_?mouseReleaseEvent@QWidget@@MAEXPAVQMouseEvent@@@Z 004267d8     Qt5Widgets:Qt5Widgets.dll
 0002:000007dc       __imp_?moveCursor@QListView@@MAE?AVQModelIndex@@W4CursorAction@QAbstractItemView@@V?$QFlags@W4KeyboardModifier@Qt@@@@@Z 004267dc     Qt5Widgets:Qt5Widgets.dll
 0002:000007e0       __imp_?moveEvent@QWidget@@MAEXPAVQMoveEvent@@@Z 004267e0     Qt5Widgets:Qt5Widgets.dll
 0002:000007e4       __imp_?nativeEvent@QWidget@@MAE_NABVQByteArray@@PAXPAJ@Z 004267e4     Qt5Widgets:Qt5Widgets.dll
 0002:000007e8       __imp_?nextCheckState@QAbstractButton@@MAEXXZ 004267e8     Qt5Widgets:Qt5Widgets.dll
 0002:000007ec       __imp_?nextCheckState@QCheckBox@@MAEXXZ 004267ec     Qt5Widgets:Qt5Widgets.dll
 0002:000007f0       __imp_?paintEngine@QWidget@@UBEPAVQPaintEngine@@XZ 004267f0     Qt5Widgets:Qt5Widgets.dll
 0002:000007f4       __imp_?paintEvent@QCheckBox@@MAEXPAVQPaintEvent@@@Z 004267f4     Qt5Widgets:Qt5Widgets.dll
 0002:000007f8       __imp_?paintEvent@QFrame@@MAEXPAVQPaintEvent@@@Z 004267f8     Qt5Widgets:Qt5Widgets.dll
 0002:000007fc       __imp_?paintEvent@QGroupBox@@MAEXPAVQPaintEvent@@@Z 004267fc     Qt5Widgets:Qt5Widgets.dll
 0002:00000800       __imp_?paintEvent@QLabel@@MAEXPAVQPaintEvent@@@Z 00426800     Qt5Widgets:Qt5Widgets.dll
 0002:00000804       __imp_?paintEvent@QLineEdit@@MAEXPAVQPaintEvent@@@Z 00426804     Qt5Widgets:Qt5Widgets.dll
 0002:00000808       __imp_?paintEvent@QListView@@MAEXPAVQPaintEvent@@@Z 00426808     Qt5Widgets:Qt5Widgets.dll
 0002:0000080c       __imp_?paintEvent@QMenu@@MAEXPAVQPaintEvent@@@Z 0042680c     Qt5Widgets:Qt5Widgets.dll
 0002:00000810       __imp_?paintEvent@QMenuBar@@MAEXPAVQPaintEvent@@@Z 00426810     Qt5Widgets:Qt5Widgets.dll
 0002:00000814       __imp_?paintEvent@QPushButton@@MAEXPAVQPaintEvent@@@Z 00426814     Qt5Widgets:Qt5Widgets.dll
 0002:00000818       __imp_?paintEvent@QStatusBar@@MAEXPAVQPaintEvent@@@Z 00426818     Qt5Widgets:Qt5Widgets.dll
 0002:0000081c       __imp_?paintEvent@QTextEdit@@MAEXPAVQPaintEvent@@@Z 0042681c     Qt5Widgets:Qt5Widgets.dll
 0002:00000820       __imp_?paintEvent@QToolBar@@MAEXPAVQPaintEvent@@@Z 00426820     Qt5Widgets:Qt5Widgets.dll
 0002:00000824       __imp_?paintEvent@QWidget@@MAEXPAVQPaintEvent@@@Z 00426824     Qt5Widgets:Qt5Widgets.dll
 0002:00000828       __imp_?qt_metacall@QAction@@UAEHW4Call@QMetaObject@@HPAPAX@Z 00426828     Qt5Widgets:Qt5Widgets.dll
 0002:0000082c       __imp_?qt_metacall@QCheckBox@@UAEHW4Call@QMetaObject@@HPAPAX@Z 0042682c     Qt5Widgets:Qt5Widgets.dll
 0002:00000830       __imp_?qt_metacall@QDialogButtonBox@@UAEHW4Call@QMetaObject@@HPAPAX@Z 00426830     Qt5Widgets:Qt5Widgets.dll
 0002:00000834       __imp_?qt_metacall@QFormLayout@@UAEHW4Call@QMetaObject@@HPAPAX@Z 00426834     Qt5Widgets:Qt5Widgets.dll
 0002:00000838       __imp_?qt_metacall@QGroupBox@@UAEHW4Call@QMetaObject@@HPAPAX@Z 00426838     Qt5Widgets:Qt5Widgets.dll
 0002:0000083c       __imp_?qt_metacall@QHBoxLayout@@UAEHW4Call@QMetaObject@@HPAPAX@Z 0042683c     Qt5Widgets:Qt5Widgets.dll
 0002:00000840       __imp_?qt_metacall@QLabel@@UAEHW4Call@QMetaObject@@HPAPAX@Z 00426840     Qt5Widgets:Qt5Widgets.dll
 0002:00000844       __imp_?qt_metacall@QLineEdit@@UAEHW4Call@QMetaObject@@HPAPAX@Z 00426844     Qt5Widgets:Qt5Widgets.dll
 0002:00000848       __imp_?qt_metacall@QListWidget@@UAEHW4Call@QMetaObject@@HPAPAX@Z 00426848     Qt5Widgets:Qt5Widgets.dll
 0002:0000084c       __imp_?qt_metacall@QMenu@@UAEHW4Call@QMetaObject@@HPAPAX@Z 0042684c     Qt5Widgets:Qt5Widgets.dll
 0002:00000850       __imp_?qt_metacall@QMenuBar@@UAEHW4Call@QMetaObject@@HPAPAX@Z 00426850     Qt5Widgets:Qt5Widgets.dll
 0002:00000854       __imp_?qt_metacall@QPushButton@@UAEHW4Call@QMetaObject@@HPAPAX@Z 00426854     Qt5Widgets:Qt5Widgets.dll
 0002:00000858       __imp_?qt_metacall@QSplitter@@UAEHW4Call@QMetaObject@@HPAPAX@Z 00426858     Qt5Widgets:Qt5Widgets.dll
 0002:0000085c       __imp_?qt_metacall@QStatusBar@@UAEHW4Call@QMetaObject@@HPAPAX@Z 0042685c     Qt5Widgets:Qt5Widgets.dll
 0002:00000860       __imp_?qt_metacall@QTextEdit@@UAEHW4Call@QMetaObject@@HPAPAX@Z 00426860     Qt5Widgets:Qt5Widgets.dll
 0002:00000864       __imp_?qt_metacall@QToolBar@@UAEHW4Call@QMetaObject@@HPAPAX@Z 00426864     Qt5Widgets:Qt5Widgets.dll
 0002:00000868       __imp_?qt_metacall@QVBoxLayout@@UAEHW4Call@QMetaObject@@HPAPAX@Z 00426868     Qt5Widgets:Qt5Widgets.dll
 0002:0000086c       __imp_?qt_metacall@QWidget@@UAEHW4Call@QMetaObject@@HPAPAX@Z 0042686c     Qt5Widgets:Qt5Widgets.dll
 0002:00000870       __imp_?qt_metacast@QAction@@UAEPAXPBD@Z 00426870     Qt5Widgets:Qt5Widgets.dll
 0002:00000874       __imp_?qt_metacast@QCheckBox@@UAEPAXPBD@Z 00426874     Qt5Widgets:Qt5Widgets.dll
 0002:00000878       __imp_?qt_metacast@QDialogButtonBox@@UAEPAXPBD@Z 00426878     Qt5Widgets:Qt5Widgets.dll
 0002:0000087c       __imp_?qt_metacast@QFormLayout@@UAEPAXPBD@Z 0042687c     Qt5Widgets:Qt5Widgets.dll
 0002:00000880       __imp_?qt_metacast@QGroupBox@@UAEPAXPBD@Z 00426880     Qt5Widgets:Qt5Widgets.dll
 0002:00000884       __imp_?qt_metacast@QHBoxLayout@@UAEPAXPBD@Z 00426884     Qt5Widgets:Qt5Widgets.dll
 0002:00000888       __imp_?qt_metacast@QLabel@@UAEPAXPBD@Z 00426888     Qt5Widgets:Qt5Widgets.dll
 0002:0000088c       __imp_?qt_metacast@QLineEdit@@UAEPAXPBD@Z 0042688c     Qt5Widgets:Qt5Widgets.dll
 0002:00000890       __imp_?qt_metacast@QListWidget@@UAEPAXPBD@Z 00426890     Qt5Widgets:Qt5Widgets.dll
 0002:00000894       __imp_?qt_metacast@QMenu@@UAEPAXPBD@Z 00426894     Qt5Widgets:Qt5Widgets.dll
 0002:00000898       __imp_?qt_metacast@QMenuBar@@UAEPAXPBD@Z 00426898     Qt5Widgets:Qt5Widgets.dll
 0002:0000089c       __imp_?qt_metacast@QPushButton@@UAEPAXPBD@Z 0042689c     Qt5Widgets:Qt5Widgets.dll
 0002:000008a0       __imp_?qt_metacast@QSplitter@@UAEPAXPBD@Z 004268a0     Qt5Widgets:Qt5Widgets.dll
 0002:000008a4       __imp_?qt_metacast@QStatusBar@@UAEPAXPBD@Z 004268a4     Qt5Widgets:Qt5Widgets.dll
 0002:000008a8       __imp_?qt_metacast@QTextEdit@@UAEPAXPBD@Z 004268a8     Qt5Widgets:Qt5Widgets.dll
 0002:000008ac       __imp_?qt_metacast@QToolBar@@UAEPAXPBD@Z 004268ac     Qt5Widgets:Qt5Widgets.dll
 0002:000008b0       __imp_?qt_metacast@QVBoxLayout@@UAEPAXPBD@Z 004268b0     Qt5Widgets:Qt5Widgets.dll
 0002:000008b4       __imp_?qt_metacast@QWidget@@UAEPAXPBD@Z 004268b4     Qt5Widgets:Qt5Widgets.dll
 0002:000008b8       __imp_?redirected@QWidget@@MBEPAVQPaintDevice@@PAVQPoint@@@Z 004268b8     Qt5Widgets:Qt5Widgets.dll
 0002:000008bc       __imp_?reset@QListView@@UAEXXZ 004268bc     Qt5Widgets:Qt5Widgets.dll
 0002:000008c0       __imp_?resizeEvent@QGroupBox@@MAEXPAVQResizeEvent@@@Z 004268c0     Qt5Widgets:Qt5Widgets.dll
 0002:000008c4       __imp_?resizeEvent@QListView@@MAEXPAVQResizeEvent@@@Z 004268c4     Qt5Widgets:Qt5Widgets.dll
 0002:000008c8       __imp_?resizeEvent@QMenuBar@@MAEXPAVQResizeEvent@@@Z 004268c8     Qt5Widgets:Qt5Widgets.dll
 0002:000008cc       __imp_?resizeEvent@QSplitter@@MAEXPAVQResizeEvent@@@Z 004268cc     Qt5Widgets:Qt5Widgets.dll
 0002:000008d0       __imp_?resizeEvent@QStatusBar@@MAEXPAVQResizeEvent@@@Z 004268d0     Qt5Widgets:Qt5Widgets.dll
 0002:000008d4       __imp_?resizeEvent@QTextEdit@@MAEXPAVQResizeEvent@@@Z 004268d4     Qt5Widgets:Qt5Widgets.dll
 0002:000008d8       __imp_?resizeEvent@QWidget@@MAEXPAVQResizeEvent@@@Z 004268d8     Qt5Widgets:Qt5Widgets.dll
 0002:000008dc       __imp_?rowsAboutToBeRemoved@QListView@@MAEXABVQModelIndex@@HH@Z 004268dc     Qt5Widgets:Qt5Widgets.dll
 0002:000008e0       __imp_?rowsInserted@QListView@@MAEXABVQModelIndex@@HH@Z 004268e0     Qt5Widgets:Qt5Widgets.dll
 0002:000008e4       __imp_?scrollContentsBy@QListView@@MAEXHH@Z 004268e4     Qt5Widgets:Qt5Widgets.dll
 0002:000008e8       __imp_?scrollContentsBy@QTextEdit@@MAEXHH@Z 004268e8     Qt5Widgets:Qt5Widgets.dll
 0002:000008ec       __imp_?scrollTo@QListView@@UAEXABVQModelIndex@@W4ScrollHint@QAbstractItemView@@@Z 004268ec     Qt5Widgets:Qt5Widgets.dll
 0002:000008f0       __imp_?selectAll@QAbstractItemView@@UAEXXZ 004268f0     Qt5Widgets:Qt5Widgets.dll
 0002:000008f4       __imp_?selectedIndexes@QListView@@MBE?AV?$QList@VQModelIndex@@@@XZ 004268f4     Qt5Widgets:Qt5Widgets.dll
 0002:000008f8       __imp_?selectionChanged@QListView@@MAEXABVQItemSelection@@0@Z 004268f8     Qt5Widgets:Qt5Widgets.dll
 0002:000008fc       __imp_?selectionCommand@QAbstractItemView@@MBE?AV?$QFlags@W4SelectionFlag@QItemSelectionModel@@@@ABVQModelIndex@@PBVQEvent@@@Z 004268fc     Qt5Widgets:Qt5Widgets.dll
 0002:00000900       __imp_?setGeometry@QBoxLayout@@UAEXABVQRect@@@Z 00426900     Qt5Widgets:Qt5Widgets.dll
 0002:00000904       __imp_?setGeometry@QFormLayout@@UAEXABVQRect@@@Z 00426904     Qt5Widgets:Qt5Widgets.dll
 0002:00000908       __imp_?setGeometry@QSpacerItem@@UAEXABVQRect@@@Z 00426908     Qt5Widgets:Qt5Widgets.dll
 0002:0000090c       __imp_?setModel@QListWidget@@EAEXPAVQAbstractItemModel@@@Z 0042690c     Qt5Widgets:Qt5Widgets.dll
 0002:00000910       __imp_?setRootIndex@QListView@@UAEXABVQModelIndex@@@Z 00426910     Qt5Widgets:Qt5Widgets.dll
 0002:00000914       __imp_?setSelection@QListView@@MAEXABVQRect@@V?$QFlags@W4SelectionFlag@QItemSelectionModel@@@@@Z 00426914     Qt5Widgets:Qt5Widgets.dll
 0002:00000918       __imp_?setSelectionModel@QListWidget@@UAEXPAVQItemSelectionModel@@@Z 00426918     Qt5Widgets:Qt5Widgets.dll
 0002:0000091c       __imp_?setVisible@QMenuBar@@UAEX_N@Z 0042691c     Qt5Widgets:Qt5Widgets.dll
 0002:00000920       __imp_?setVisible@QWidget@@UAEX_N@Z 00426920     Qt5Widgets:Qt5Widgets.dll
 0002:00000924       __imp_?setupViewport@QAbstractScrollArea@@UAEXPAVQWidget@@@Z 00426924     Qt5Widgets:Qt5Widgets.dll
 0002:00000928       __imp_?sharedPainter@QWidget@@MBEPAVQPainter@@XZ 00426928     Qt5Widgets:Qt5Widgets.dll
 0002:0000092c       __imp_?showEvent@QStatusBar@@MAEXPAVQShowEvent@@@Z 0042692c     Qt5Widgets:Qt5Widgets.dll
 0002:00000930       __imp_?showEvent@QTextEdit@@MAEXPAVQShowEvent@@@Z 00426930     Qt5Widgets:Qt5Widgets.dll
 0002:00000934       __imp_?showEvent@QWidget@@MAEXPAVQShowEvent@@@Z 00426934     Qt5Widgets:Qt5Widgets.dll
 0002:00000938       __imp_?sizeHint@QAbstractScrollArea@@UBE?AVQSize@@XZ 00426938     Qt5Widgets:Qt5Widgets.dll
 0002:0000093c       __imp_?sizeHint@QBoxLayout@@UBE?AVQSize@@XZ 0042693c     Qt5Widgets:Qt5Widgets.dll
 0002:00000940       __imp_?sizeHint@QCheckBox@@UBE?AVQSize@@XZ 00426940     Qt5Widgets:Qt5Widgets.dll
 0002:00000944       __imp_?sizeHint@QFormLayout@@UBE?AVQSize@@XZ 00426944     Qt5Widgets:Qt5Widgets.dll
 0002:00000948       __imp_?sizeHint@QLabel@@UBE?AVQSize@@XZ 00426948     Qt5Widgets:Qt5Widgets.dll
 0002:0000094c       __imp_?sizeHint@QLineEdit@@UBE?AVQSize@@XZ 0042694c     Qt5Widgets:Qt5Widgets.dll
 0002:00000950       __imp_?sizeHint@QMenu@@UBE?AVQSize@@XZ 00426950     Qt5Widgets:Qt5Widgets.dll
 0002:00000954       __imp_?sizeHint@QMenuBar@@UBE?AVQSize@@XZ 00426954     Qt5Widgets:Qt5Widgets.dll
 0002:00000958       __imp_?sizeHint@QPushButton@@UBE?AVQSize@@XZ 00426958     Qt5Widgets:Qt5Widgets.dll
 0002:0000095c       __imp_?sizeHint@QSpacerItem@@UBE?AVQSize@@XZ 0042695c     Qt5Widgets:Qt5Widgets.dll
 0002:00000960       __imp_?sizeHint@QSplitter@@UBE?AVQSize@@XZ 00426960     Qt5Widgets:Qt5Widgets.dll
 0002:00000964       __imp_?sizeHint@QWidget@@UBE?AVQSize@@XZ 00426964     Qt5Widgets:Qt5Widgets.dll
 0002:00000968       __imp_?sizeHintForColumn@QAbstractItemView@@UBEHH@Z 00426968     Qt5Widgets:Qt5Widgets.dll
 0002:0000096c       __imp_?sizeHintForRow@QAbstractItemView@@UBEHH@Z 0042696c     Qt5Widgets:Qt5Widgets.dll
 0002:00000970       __imp_?spacerItem@QLayoutItem@@UAEPAVQSpacerItem@@XZ 00426970     Qt5Widgets:Qt5Widgets.dll
 0002:00000974       __imp_?spacerItem@QSpacerItem@@UAEPAV1@XZ 00426974     Qt5Widgets:Qt5Widgets.dll
 0002:00000978       __imp_?startDrag@QListView@@MAEXV?$QFlags@W4DropAction@Qt@@@@@Z 00426978     Qt5Widgets:Qt5Widgets.dll
 0002:0000097c       __imp_?supportedDropActions@QListWidget@@MBE?AV?$QFlags@W4DropAction@Qt@@@@XZ 0042697c     Qt5Widgets:Qt5Widgets.dll
 0002:00000980       __imp_?tabletEvent@QWidget@@MAEXPAVQTabletEvent@@@Z 00426980     Qt5Widgets:Qt5Widgets.dll
 0002:00000984       __imp_?takeAt@QBoxLayout@@UAEPAVQLayoutItem@@H@Z 00426984     Qt5Widgets:Qt5Widgets.dll
 0002:00000988       __imp_?takeAt@QFormLayout@@UAEPAVQLayoutItem@@H@Z 00426988     Qt5Widgets:Qt5Widgets.dll
 0002:0000098c       __imp_?timerEvent@QAbstractButton@@MAEXPAVQTimerEvent@@@Z 0042698c     Qt5Widgets:Qt5Widgets.dll
 0002:00000990       __imp_?timerEvent@QListView@@MAEXPAVQTimerEvent@@@Z 00426990     Qt5Widgets:Qt5Widgets.dll
 0002:00000994       __imp_?timerEvent@QMenu@@MAEXPAVQTimerEvent@@@Z 00426994     Qt5Widgets:Qt5Widgets.dll
 0002:00000998       __imp_?timerEvent@QMenuBar@@MAEXPAVQTimerEvent@@@Z 00426998     Qt5Widgets:Qt5Widgets.dll
 0002:0000099c       __imp_?timerEvent@QTextEdit@@MAEXPAVQTimerEvent@@@Z 0042699c     Qt5Widgets:Qt5Widgets.dll
 0002:000009a0       __imp_?updateEditorData@QAbstractItemView@@MAEXXZ 004269a0     Qt5Widgets:Qt5Widgets.dll
 0002:000009a4       __imp_?updateEditorGeometries@QAbstractItemView@@MAEXXZ 004269a4     Qt5Widgets:Qt5Widgets.dll
 0002:000009a8       __imp_?updateGeometries@QListView@@MAEXXZ 004269a8     Qt5Widgets:Qt5Widgets.dll
 0002:000009ac       __imp_?verticalOffset@QListView@@MBEHXZ 004269ac     Qt5Widgets:Qt5Widgets.dll
 0002:000009b0       __imp_?verticalScrollbarAction@QAbstractItemView@@MAEXH@Z 004269b0     Qt5Widgets:Qt5Widgets.dll
 0002:000009b4       __imp_?verticalScrollbarValueChanged@QAbstractItemView@@MAEXH@Z 004269b4     Qt5Widgets:Qt5Widgets.dll
 0002:000009b8       __imp_?viewOptions@QListView@@MBE?AVQStyleOptionViewItem@@XZ 004269b8     Qt5Widgets:Qt5Widgets.dll
 0002:000009bc       __imp_?viewportEvent@QAbstractItemView@@MAE_NPAVQEvent@@@Z 004269bc     Qt5Widgets:Qt5Widgets.dll
 0002:000009c0       __imp_?viewportEvent@QAbstractScrollArea@@MAE_NPAVQEvent@@@Z 004269c0     Qt5Widgets:Qt5Widgets.dll
 0002:000009c4       __imp_?viewportSizeHint@QAbstractScrollArea@@MBE?AVQSize@@XZ 004269c4     Qt5Widgets:Qt5Widgets.dll
 0002:000009c8       __imp_?viewportSizeHint@QListView@@MBE?AVQSize@@XZ 004269c8     Qt5Widgets:Qt5Widgets.dll
 0002:000009cc       __imp_?visualRect@QListView@@UBE?AVQRect@@ABVQModelIndex@@@Z 004269cc     Qt5Widgets:Qt5Widgets.dll
 0002:000009d0       __imp_?visualRegionForSelection@QListView@@MBE?AVQRegion@@ABVQItemSelection@@@Z 004269d0     Qt5Widgets:Qt5Widgets.dll
 0002:000009d4       __imp_?wheelEvent@QListView@@MAEXPAVQWheelEvent@@@Z 004269d4     Qt5Widgets:Qt5Widgets.dll
 0002:000009d8       __imp_?wheelEvent@QMenu@@MAEXPAVQWheelEvent@@@Z 004269d8     Qt5Widgets:Qt5Widgets.dll
 0002:000009dc       __imp_?wheelEvent@QTextEdit@@MAEXPAVQWheelEvent@@@Z 004269dc     Qt5Widgets:Qt5Widgets.dll
 0002:000009e0       __imp_?wheelEvent@QWidget@@MAEXPAVQWheelEvent@@@Z 004269e0     Qt5Widgets:Qt5Widgets.dll
 0002:000009e4       __imp_?widget@QLayoutItem@@UAEPAVQWidget@@XZ 004269e4     Qt5Widgets:Qt5Widgets.dll
 0002:000009e8       __imp_?setItem@QFormLayout@@QAEXHW4ItemRole@1@PAVQLayoutItem@@@Z 004269e8     Qt5Widgets:Qt5Widgets.dll
 0002:000009ec       __imp_??1QFormLayout@@UAE@XZ 004269ec     Qt5Widgets:Qt5Widgets.dll
 0002:000009f0       __imp_??0QFormLayout@@QAE@PAVQWidget@@@Z 004269f0     Qt5Widgets:Qt5Widgets.dll
 0002:000009f4       __imp_?setStandardButtons@QDialogButtonBox@@QAEXV?$QFlags@W4StandardButton@QDialogButtonBox@@@@@Z 004269f4     Qt5Widgets:Qt5Widgets.dll
 0002:000009f8       __imp_?setOrientation@QDialogButtonBox@@QAEXW4Orientation@Qt@@@Z 004269f8     Qt5Widgets:Qt5Widgets.dll
 0002:000009fc       __imp_??1QDialogButtonBox@@UAE@XZ 004269fc     Qt5Widgets:Qt5Widgets.dll
 0002:00000a00       __imp_??0QDialogButtonBox@@QAE@PAVQWidget@@@Z 00426a00     Qt5Widgets:Qt5Widgets.dll
 0002:00000a04       __imp_??1QCheckBox@@UAE@XZ 00426a04     Qt5Widgets:Qt5Widgets.dll
 0002:00000a08       __imp_??0QCheckBox@@QAE@PAVQWidget@@@Z 00426a08     Qt5Widgets:Qt5Widgets.dll
 0002:00000a0c       __imp_?getInt@QInputDialog@@SAHPAVQWidget@@ABVQString@@1HHHHPA_NV?$QFlags@W4WindowType@Qt@@@@@Z 00426a0c     Qt5Widgets:Qt5Widgets.dll
 0002:00000a10       __imp_?getText@QInputDialog@@SA?AVQString@@PAVQWidget@@ABV2@1W4EchoMode@QLineEdit@@1PA_NV?$QFlags@W4WindowType@Qt@@@@V?$QFlags@W4InputMethodHint@Qt@@@@@Z 00426a10     Qt5Widgets:Qt5Widgets.dll
 0002:00000a14       __imp_?setText@QLineEdit@@QAEXABVQString@@@Z 00426a14     Qt5Widgets:Qt5Widgets.dll
 0002:00000a18       __imp_?text@QLineEdit@@QBE?AVQString@@XZ 00426a18     Qt5Widgets:Qt5Widgets.dll
 0002:00000a1c       __imp_??1QLineEdit@@UAE@XZ 00426a1c     Qt5Widgets:Qt5Widgets.dll
 0002:00000a20       __imp_??0QLineEdit@@QAE@PAVQWidget@@@Z 00426a20     Qt5Widgets:Qt5Widgets.dll
 0002:00000a24       __imp_?critical@QMessageBox@@SA?AW4StandardButton@1@PAVQWidget@@ABVQString@@1V?$QFlags@W4StandardButton@QMessageBox@@@@W421@@Z 00426a24     Qt5Widgets:Qt5Widgets.dll
 0002:00000a28       __imp_?question@QMessageBox@@SA?AW4StandardButton@1@PAVQWidget@@ABVQString@@1V?$QFlags@W4StandardButton@QMessageBox@@@@W421@@Z 00426a28     Qt5Widgets:Qt5Widgets.dll
 0002:00000a2c       __imp_?information@QMessageBox@@SA?AW4StandardButton@1@PAVQWidget@@ABVQString@@1V?$QFlags@W4StandardButton@QMessageBox@@@@W421@@Z 00426a2c     Qt5Widgets:Qt5Widgets.dll
 0002:00000a30       __imp_?exec@QDialog@@UAEHXZ 00426a30     Qt5Widgets:Qt5Widgets.dll
 0002:00000a34       __imp_??1QDialog@@UAE@XZ   00426a34     Qt5Widgets:Qt5Widgets.dll
 0002:00000a38       __imp_??0QDialog@@QAE@PAVQWidget@@V?$QFlags@W4WindowType@Qt@@@@@Z 00426a38     Qt5Widgets:Qt5Widgets.dll
 0002:00000a3c       __imp_??1QToolBar@@UAE@XZ  00426a3c     Qt5Widgets:Qt5Widgets.dll
 0002:00000a40       __imp_??0QToolBar@@QAE@PAVQWidget@@@Z 00426a40     Qt5Widgets:Qt5Widgets.dll
 0002:00000a44       __imp_?setReadOnly@QTextEdit@@QAEX_N@Z 00426a44     Qt5Widgets:Qt5Widgets.dll
 0002:00000a48       __imp_??1QTextEdit@@UAE@XZ 00426a48     Qt5Widgets:Qt5Widgets.dll
 0002:00000a4c       __imp_??0QTextEdit@@QAE@PAVQWidget@@@Z 00426a4c     Qt5Widgets:Qt5Widgets.dll
 0002:00000a50       __imp_??1QStatusBar@@UAE@XZ 00426a50     Qt5Widgets:Qt5Widgets.dll
 0002:00000a54       __imp_??0QStatusBar@@QAE@PAVQWidget@@@Z 00426a54     Qt5Widgets:Qt5Widgets.dll
 0002:00000a58       __imp_?setOrientation@QSplitter@@QAEXW4Orientation@Qt@@@Z 00426a58     Qt5Widgets:Qt5Widgets.dll
 0002:00000a5c       __imp_?addWidget@QSplitter@@QAEXPAVQWidget@@@Z 00426a5c     Qt5Widgets:Qt5Widgets.dll
 0002:00000a60       __imp_??1QSplitter@@UAE@XZ 00426a60     Qt5Widgets:Qt5Widgets.dll
 0002:00000a64       __imp_??0QSplitter@@QAE@PAVQWidget@@@Z 00426a64     Qt5Widgets:Qt5Widgets.dll
 0002:00000a68       __imp_??1QPushButton@@UAE@XZ 00426a68     Qt5Widgets:Qt5Widgets.dll
 0002:00000a6c       __imp_??0QPushButton@@QAE@PAVQWidget@@@Z 00426a6c     Qt5Widgets:Qt5Widgets.dll
 0002:00000a70       __imp_?setChecked@QAbstractButton@@QAEX_N@Z 00426a70     Qt5Widgets:Qt5Widgets.dll
 0002:00000a74       __imp_?isChecked@QAbstractButton@@QBE_NXZ 00426a74     Qt5Widgets:Qt5Widgets.dll
 0002:00000a78       __imp_?setText@QAbstractButton@@QAEXABVQString@@@Z 00426a78     Qt5Widgets:Qt5Widgets.dll
 0002:00000a7c       __imp_??1QMenuBar@@UAE@XZ  00426a7c     Qt5Widgets:Qt5Widgets.dll
 0002:00000a80       __imp_??0QMenuBar@@QAE@PAVQWidget@@@Z 00426a80     Qt5Widgets:Qt5Widgets.dll
 0002:00000a84       __imp_?setTitle@QMenu@@QAEXABVQString@@@Z 00426a84     Qt5Widgets:Qt5Widgets.dll
 0002:00000a88       __imp_?menuAction@QMenu@@QBEPAVQAction@@XZ 00426a88     Qt5Widgets:Qt5Widgets.dll
 0002:00000a8c       __imp_??1QMenu@@UAE@XZ     00426a8c     Qt5Widgets:Qt5Widgets.dll
 0002:00000a90       __imp_??0QMenu@@QAE@PAVQWidget@@@Z 00426a90     Qt5Widgets:Qt5Widgets.dll
 0002:00000a94       __imp_?findItems@QListWidget@@QBE?AV?$QList@PAVQListWidgetItem@@@@ABVQString@@V?$QFlags@W4MatchFlag@Qt@@@@@Z 00426a94     Qt5Widgets:Qt5Widgets.dll
 0002:00000a98       __imp_?selectedItems@QListWidget@@QBE?AV?$QList@PAVQListWidgetItem@@@@XZ 00426a98     Qt5Widgets:Qt5Widgets.dll
 0002:00000a9c       __imp_?count@QListWidget@@QBEHXZ 00426a9c     Qt5Widgets:Qt5Widgets.dll
 0002:00000aa0       __imp_?insertItem@QListWidget@@QAEXHABVQString@@@Z 00426aa0     Qt5Widgets:Qt5Widgets.dll
 0002:00000aa4       __imp_??1QListWidget@@UAE@XZ 00426aa4     Qt5Widgets:Qt5Widgets.dll
 0002:00000aa8       __imp_??0QListWidget@@QAE@PAVQWidget@@@Z 00426aa8     Qt5Widgets:Qt5Widgets.dll
 0002:00000aac       __imp_?text@QListWidgetItem@@QBE?AVQString@@XZ 00426aac     Qt5Widgets:Qt5Widgets.dll
 0002:00000ab0       __imp_?setText@QLabel@@QAEXABVQString@@@Z 00426ab0     Qt5Widgets:Qt5Widgets.dll
 0002:00000ab4       __imp_??1QLabel@@UAE@XZ    00426ab4     Qt5Widgets:Qt5Widgets.dll
 0002:00000ab8       __imp_??0QLabel@@QAE@PAVQWidget@@V?$QFlags@W4WindowType@Qt@@@@@Z 00426ab8     Qt5Widgets:Qt5Widgets.dll
 0002:00000abc       __imp_??1QVBoxLayout@@UAE@XZ 00426abc     Qt5Widgets:Qt5Widgets.dll
 0002:00000ac0       __imp_??0QVBoxLayout@@QAE@PAVQWidget@@@Z 00426ac0     Qt5Widgets:Qt5Widgets.dll
 0002:00000ac4       __imp_??0QVBoxLayout@@QAE@XZ 00426ac4     Qt5Widgets:Qt5Widgets.dll
 0002:00000ac8       __imp_??1QHBoxLayout@@UAE@XZ 00426ac8     Qt5Widgets:Qt5Widgets.dll
 0002:00000acc       __imp_??0QHBoxLayout@@QAE@PAVQWidget@@@Z 00426acc     Qt5Widgets:Qt5Widgets.dll
 0002:00000ad0       __imp_??0QHBoxLayout@@QAE@XZ 00426ad0     Qt5Widgets:Qt5Widgets.dll
 0002:00000ad4       __imp_?setSpacing@QBoxLayout@@QAEXH@Z 00426ad4     Qt5Widgets:Qt5Widgets.dll
 0002:00000ad8       __imp_?addLayout@QBoxLayout@@QAEXPAVQLayout@@H@Z 00426ad8     Qt5Widgets:Qt5Widgets.dll
 0002:00000adc       __imp_?addWidget@QBoxLayout@@QAEXPAVQWidget@@HV?$QFlags@W4AlignmentFlag@Qt@@@@@Z 00426adc     Qt5Widgets:Qt5Widgets.dll
 0002:00000ae0       __imp_?setContentsMargins@QLayout@@QAEXHHHH@Z 00426ae0     Qt5Widgets:Qt5Widgets.dll
 0002:00000ae4       __imp_??1QSpacerItem@@UAE@XZ 00426ae4     Qt5Widgets:Qt5Widgets.dll
 0002:00000ae8       __imp_??0QSpacerItem@@QAE@HHW4Policy@QSizePolicy@@0@Z 00426ae8     Qt5Widgets:Qt5Widgets.dll
 0002:00000aec       __imp_?setTitle@QGroupBox@@QAEXABVQString@@@Z 00426aec     Qt5Widgets:Qt5Widgets.dll
 0002:00000af0       __imp_??1QGroupBox@@UAE@XZ 00426af0     Qt5Widgets:Qt5Widgets.dll
 0002:00000af4       __imp_??0QGroupBox@@QAE@PAVQWidget@@@Z 00426af4     Qt5Widgets:Qt5Widgets.dll
 0002:00000af8       __imp_?setFrameShadow@QFrame@@QAEXW4Shadow@1@@Z 00426af8     Qt5Widgets:Qt5Widgets.dll
 0002:00000afc       __imp_?setFrameShape@QFrame@@QAEXW4Shape@1@@Z 00426afc     Qt5Widgets:Qt5Widgets.dll
 0002:00000b00       __imp_?setShortcut@QAction@@QAEXABVQKeySequence@@@Z 00426b00     Qt5Widgets:Qt5Widgets.dll
 0002:00000b04       __imp_?setText@QAction@@QAEXABVQString@@@Z 00426b04     Qt5Widgets:Qt5Widgets.dll
 0002:00000b08       __imp_??1QAction@@UAE@XZ   00426b08     Qt5Widgets:Qt5Widgets.dll
 0002:00000b0c       __imp_??0QAction@@QAE@PAVQObject@@@Z 00426b0c     Qt5Widgets:Qt5Widgets.dll
 0002:00000b10       __imp_?addToolBar@QMainWindow@@QAEXW4ToolBarArea@Qt@@PAVQToolBar@@@Z 00426b10     Qt5Widgets:Qt5Widgets.dll
 0002:00000b14       __imp_?setCentralWidget@QMainWindow@@QAEXPAVQWidget@@@Z 00426b14     Qt5Widgets:Qt5Widgets.dll
 0002:00000b18       __imp_?setStatusBar@QMainWindow@@QAEXPAVQStatusBar@@@Z 00426b18     Qt5Widgets:Qt5Widgets.dll
 0002:00000b1c       __imp_?setMenuBar@QMainWindow@@QAEXPAVQMenuBar@@@Z 00426b1c     Qt5Widgets:Qt5Widgets.dll
 0002:00000b20       __imp_??1QMainWindow@@UAE@XZ 00426b20     Qt5Widgets:Qt5Widgets.dll
 0002:00000b24       __imp_??0QMainWindow@@QAE@PAVQWidget@@V?$QFlags@W4WindowType@Qt@@@@@Z 00426b24     Qt5Widgets:Qt5Widgets.dll
 0002:00000b28       __imp_?addAction@QWidget@@QAEXPAVQAction@@@Z 00426b28     Qt5Widgets:Qt5Widgets.dll
 0002:00000b2c       __imp_?setSizePolicy@QWidget@@QAEXVQSizePolicy@@@Z 00426b2c     Qt5Widgets:Qt5Widgets.dll
 0002:00000b30       __imp_?sizePolicy@QWidget@@QBE?AVQSizePolicy@@XZ 00426b30     Qt5Widgets:Qt5Widgets.dll
 0002:00000b34       __imp_?setGeometry@QWidget@@QAEXABVQRect@@@Z 00426b34     Qt5Widgets:Qt5Widgets.dll
 0002:00000b38       __imp_?resize@QWidget@@QAEXABVQSize@@@Z 00426b38     Qt5Widgets:Qt5Widgets.dll
 0002:00000b3c       __imp_?raise@QWidget@@QAEXXZ 00426b3c     Qt5Widgets:Qt5Widgets.dll
 0002:00000b40       __imp_?close@QWidget@@QAE_NXZ 00426b40     Qt5Widgets:Qt5Widgets.dll
 0002:00000b44       __imp_?setWindowIcon@QWidget@@QAEXABVQIcon@@@Z 00426b44     Qt5Widgets:Qt5Widgets.dll
 0002:00000b48       __imp_?setStyleSheet@QWidget@@QAEXABVQString@@@Z 00426b48     Qt5Widgets:Qt5Widgets.dll
 0002:00000b4c       __imp_?setWindowTitle@QWidget@@QAEXABVQString@@@Z 00426b4c     Qt5Widgets:Qt5Widgets.dll
 0002:00000b50       __imp_?setMaximumSize@QWidget@@QAEXHH@Z 00426b50     Qt5Widgets:Qt5Widgets.dll
 0002:00000b54       __imp_?setMinimumSize@QWidget@@QAEXHH@Z 00426b54     Qt5Widgets:Qt5Widgets.dll
 0002:00000b58       __imp_?winId@QWidget@@QBEIXZ 00426b58     Qt5Widgets:Qt5Widgets.dll
 0002:00000b5c       __imp_??1QWidget@@UAE@XZ   00426b5c     Qt5Widgets:Qt5Widgets.dll
 0002:00000b60       __imp_??0QWidget@@QAE@PAV0@V?$QFlags@W4WindowType@Qt@@@@@Z 00426b60     Qt5Widgets:Qt5Widgets.dll
 0002:00000b64       __imp_?setVerticalStretch@QSizePolicy@@QAEXH@Z 00426b64     Qt5Widgets:Qt5Widgets.dll
 0002:00000b68       __imp_?setHorizontalStretch@QSizePolicy@@QAEXH@Z 00426b68     Qt5Widgets:Qt5Widgets.dll
 0002:00000b6c       __imp_??0QSizePolicy@@QAE@W4Policy@0@0W4ControlType@0@@Z 00426b6c     Qt5Widgets:Qt5Widgets.dll
 0002:00000b70       __imp_?exec@QApplication@@SAHXZ 00426b70     Qt5Widgets:Qt5Widgets.dll
 0002:00000b74       __imp_??1QApplication@@UAE@XZ 00426b74     Qt5Widgets:Qt5Widgets.dll
 0002:00000b78       __imp_??0QApplication@@QAE@AAHPAPADH@Z 00426b78     Qt5Widgets:Qt5Widgets.dll
 0002:00000b7c       __imp_?show@QWidget@@QAEXXZ 00426b7c     Qt5Widgets:Qt5Widgets.dll
 0002:00000b80       __imp_?staticMetaObject@QMainWindow@@2UQMetaObject@@B 00426b80     Qt5Widgets:Qt5Widgets.dll
 0002:00000b84       __imp_?qt_metacall@QMainWindow@@UAEHW4Call@QMetaObject@@HPAPAX@Z 00426b84     Qt5Widgets:Qt5Widgets.dll
 0002:00000b88       __imp_?qt_metacast@QMainWindow@@UAEPAXPBD@Z 00426b88     Qt5Widgets:Qt5Widgets.dll
 0002:00000b8c       __imp_?append@QTextEdit@@QAEXABVQString@@@Z 00426b8c     Qt5Widgets:Qt5Widgets.dll
 0002:00000b90       __imp_?clear@QTextEdit@@QAEXXZ 00426b90     Qt5Widgets:Qt5Widgets.dll
 0002:00000b94       __imp_?document@QTextEdit@@QBEPAVQTextDocument@@XZ 00426b94     Qt5Widgets:Qt5Widgets.dll
 0002:00000b98       __imp_?keyReleaseEvent@QTextEdit@@MAEXPAVQKeyEvent@@@Z 00426b98     Qt5Widgets:Qt5Widgets.dll
 0002:00000b9c       __imp_?focusOutEvent@QAbstractButton@@MAEXPAVQFocusEvent@@@Z 00426b9c     Qt5Widgets:Qt5Widgets.dll
 0002:00000ba0       __imp_?hasHeightForWidth@QFormLayout@@UBE_NXZ 00426ba0     Qt5Widgets:Qt5Widgets.dll
 0002:00000ba4       \177Qt5Widgets_NULL_THUNK_DATA 00426ba4     Qt5Widgets:Qt5Widgets.dll
 0002:00000ba8       __imp__CommandLineToArgvW@8 00426ba8     shell32:SHELL32.dll
 0002:00000bac       \177SHELL32_NULL_THUNK_DATA 00426bac     shell32:SHELL32.dll
 0002:00000bb0       __imp__GetClassNameA@12    00426bb0     user32:USER32.dll
 0002:00000bb4       __imp__SetWindowLongA@12   00426bb4     user32:USER32.dll
 0002:00000bb8       __imp__GetWindowLongA@8    00426bb8     user32:USER32.dll
 0002:00000bbc       __imp__MessageBoxA@16      00426bbc     user32:USER32.dll
 0002:00000bc0       __imp__DestroyWindow@4     00426bc0     user32:USER32.dll
 0002:00000bc4       __imp__IsWindow@4          00426bc4     user32:USER32.dll
 0002:00000bc8       __imp__CreateWindowExA@48  00426bc8     user32:USER32.dll
 0002:00000bcc       __imp__UnregisterClassA@8  00426bcc     user32:USER32.dll
 0002:00000bd0       __imp__RegisterClassA@4    00426bd0     user32:USER32.dll
 0002:00000bd4       __imp__DefWindowProcA@16   00426bd4     user32:USER32.dll
 0002:00000bd8       __imp__PostMessageA@16     00426bd8     user32:USER32.dll
 0002:00000bdc       __imp__SendMessageA@16     00426bdc     user32:USER32.dll
 0002:00000be0       __imp__wsprintfA           00426be0     user32:USER32.dll
 0002:00000be4       \177USER32_NULL_THUNK_DATA 00426be4     user32:USER32.dll
 0002:00000be8       __imp__VerQueryValueA@16   00426be8     version:VERSION.dll
 0002:00000bec       __imp__GetFileVersionInfoA@16 00426bec     version:VERSION.dll
 0002:00000bf0       __imp__GetFileVersionInfoSizeA@8 00426bf0     version:VERSION.dll
 0002:00000bf4       \177VERSION_NULL_THUNK_DATA 00426bf4     version:VERSION.dll
 0002:00000bf8       ___xc_a                    00426bf8     MSVCRT:cinitexe.obj
 0002:00000c24       ___xc_z                    00426c24     MSVCRT:cinitexe.obj
 0002:00000c28       ___xi_a                    00426c28     MSVCRT:cinitexe.obj
 0002:00000c38       ___xi_z                    00426c38     MSVCRT:cinitexe.obj
 0002:00000c44       ??_7cBncsVersion@@6B@      00426c44     cBncsVersion.obj
 0002:00000c48       ??_C@_0BJ@KPNNKBCP@?2VarFileInfo?2Translation?$AA@ 00426c48     cBncsVersion.obj
 0002:00000c64       ??_C@_08EAKGLGNO@?$CF04X?$CF04X?$AA@ 00426c64     cBncsVersion.obj
 0002:00000c70       ??_C@_0BP@OKGDDKKJ@?2StringFileInfo?2?$CFs?2FileVersion?$AA@ 00426c70     cBncsVersion.obj
 0002:00000c90       ??_C@_01IHBHIGKO@?0?$AA@   00426c90     cBncsVersion.obj
 0002:00000c94       ??_C@_0CD@DNOFBAPJ@?2StringFileInfo?2?$CFs?2FileDescripti@ 00426c94     cBncsVersion.obj
 0002:00000cb8       ??_C@_0BM@HLKDAPDC@?2StringFileInfo?2?$CFs?2Comments?$AA@ 00426cb8     cBncsVersion.obj
 0002:00000cd4       ??_C@_0CA@EHAODNDK@?2StringFileInfo?2?$CFs?2InternalName?$AA@ 00426cd4     cBncsVersion.obj
 0002:00000cf4       ??_C@_0BP@MGNIHEJF@?2StringFileInfo?2?$CFs?2ProductName?$AA@ 00426cf4     cBncsVersion.obj
 0002:00000d14       ??_C@_0BP@IFNEMNK@?2StringFileInfo?2?$CFs?2CompanyName?$AA@ 00426d14     cBncsVersion.obj
 0002:00000d34       ??_C@_0CC@BENIJKPI@?2StringFileInfo?2?$CFs?2LegalCopyrigh@ 00426d34     cBncsVersion.obj
 0002:00000d58       ??_C@_0CC@IAGJDCJF@?2StringFileInfo?2?$CFs?2ProductVersio@ 00426d58     cBncsVersion.obj
 0002:00000d7c       ??_C@_0CD@CHCCGCCP@?2StringFileInfo?2?$CFs?2LegalTradeMar@ 00426d7c     cBncsVersion.obj
 0002:00000da0       ??_C@_0CA@GODGGLFO@?2StringFileInfo?2?$CFs?2PrivateBuild?$AA@ 00426da0     cBncsVersion.obj
 0002:00000dc0       ??_C@_0CE@NLHFPOLE@?2StringFileInfo?2?$CFs?2OriginalFileN@ 00426dc0     cBncsVersion.obj
 0002:00000de4       ??_C@_0CA@OOEBJJOA@?2StringFileInfo?2?$CFs?2SpecialBuild?$AA@ 00426de4     cBncsVersion.obj
 0002:00000e08       ??_7bncs_disklog@@6B@      00426e08     bncs_disklog.obj
 0002:00000e0c       ??_C@_07JBEBLGDD@CC_ROOT?$AA@ 00426e0c     bncs_disklog.obj
 0002:00000e14       ??_C@_09DDAHAMBK@CC_SYSTEM?$AA@ 00426e14     bncs_disklog.obj
 0002:00000e20       ??_C@_0L@ILPMAFPO@?$CFs?2?$CFs?2logs?$AA@ 00426e20     bncs_disklog.obj
 0002:00000e2c       ??_C@_0M@EEBKEKAD@c?3?2bncslogs?$AA@ 00426e2c     bncs_disklog.obj
 0002:00000e38       ??_C@_0BG@DPKAAFIM@localtime?5has?5failed?6?$AA@ 00426e38     bncs_disklog.obj
 0002:00000e50       ??_C@_0N@GLHMENIG@?$CFs?2?$CFs?2?$CFs?4log?$AA@ 00426e50     bncs_disklog.obj
 0002:00000e60       ??_C@_0BH@EBDFGIGN@?$CFs?2?$CFs?2?$CF04d?$CF02d?$CF02d?4log?$AA@ 00426e60     bncs_disklog.obj
 0002:00000e78       ??_C@_0BM@MFEMPJOF@?$CFs?2?$CFs?2?$CF04d?$CF02d?$CF02d?9?$CF02d?4log?$AA@ 00426e78     bncs_disklog.obj
 0002:00000e94       ??_C@_0CE@NIPIAOPO@bncs_disklog?3?5Can?8t?5open?5log?5fil@ 00426e94     bncs_disklog.obj
 0002:00000eb8       ??_C@_01EEMJAFIK@?6?$AA@   00426eb8     bncs_disklog.obj
 0002:00000ebc       ??_C@_0CE@NLINMDII@?$CF02d?1?$CF02d?1?$CF04d?5?$CF02d?3?$CF02d?3?$CF02d?4?$CF0@ 00426ebc     bncs_disklog.obj
 0002:00000ee0       ??_C@_02KEGNLNML@?0?5?$AA@ 00426ee0     bncs_disklog.obj
 0002:00000ee4       ??_C@_02PCIJFNDE@?$AN?6?$AA@ 00426ee4     bncs_disklog.obj
 0002:00000ee8       ??_C@_01KICIPPFI@?2?$AA@   00426ee8     bncs_disklog.obj
 0002:00000ef0       ??_7error_category@std@@6B@ 00426ef0     ccCheck.obj
 0002:00000f08       ??_C@_02LMMGGCAJ@?3?5?$AA@ 00426f08     ccCheck.obj
 0002:00000f10       ??_7_Generic_error_category@std@@6B@ 00426f10     ccCheck.obj
 0002:00000f28       ??_C@_07DCLBNMLN@generic?$AA@ 00426f28     ccCheck.obj
 0002:00000f30       ??_C@_0O@BFJCFAAK@unknown?5error?$AA@ 00426f30     ccCheck.obj
 0002:00000f44       ??_7_Iostream_error_category@std@@6B@ 00426f44     ccCheck.obj
 0002:00000f5c       ??_C@_08LLGCOLLL@iostream?$AA@ 00426f5c     ccCheck.obj
 0002:00000f68       ??_C@_0BG@PADBLCHM@iostream?5stream?5error?$AA@ 00426f68     ccCheck.obj
 0002:00000f84       ??_7_System_error_category@std@@6B@ 00426f84     ccCheck.obj
 0002:00000f9c       ??_C@_06FHFOAHML@system?$AA@ 00426f9c     ccCheck.obj
 0002:00000fa8       ??_7ccCheck@@6B@           00426fa8     ccCheck.obj
 0002:00000fac       ??_C@_0CJ@PMKCGGCL@Device?5Number?5of?5out?5range?5?$CIless@ 00426fac     ccCheck.obj
 0002:00000fd8       ??_C@_0CL@LCKFFHKG@Device?5Number?5of?5out?5range?5?$CI?$DO?5MA@ 00426fd8     ccCheck.obj
 0002:00001004       ??_C@_0CI@IGLAJDJI@Index?5Number?5of?5out?5range?5?$CIless?5@ 00427004     ccCheck.obj
 0002:0000102c       ??_C@_0CI@PMCCDFOB@Index?5Number?5of?5out?5range?5?$CI?$DO?5MAX@ 0042702c     ccCheck.obj
 0002:00001054       ??_C@_0BK@LPOMIHEL@Invalid?5database?5?$CI?$CFd?$DO?$DN?$CFd?$CJ?$AA@ 00427054     ccCheck.obj
 0002:00001070       ??_C@_0BM@OBNIHFBG@Note?3?5string?5?$DO?5characters?3?5?$AA@ 00427070     ccCheck.obj
 0002:0000108c       ??_C@_0CF@IABOACOB@Workstation?5number?5invalid?5?$CI?$DM?51?$CJ@ 0042708c     ccCheck.obj
 0002:000010b4       ??_C@_0DE@NBJHIANK@Workstation?5number?5invalid?5?$CI?$DO?5MA@ 004270b4     ccCheck.obj
 0002:000010e8       ??_C@_0BA@JFNIOLAK@string?5too?5long?$AA@ 004270e8     ccCheck.obj
 0002:000010f8       ??_C@_0BI@CFPLBAOH@invalid?5string?5position?$AA@ 004270f8     ccCheck.obj
 0002:00001110       ??_C@_00CNPNBAHC@?$AA@     00427110     ccClient.obj
 0002:00001114       ??_C@_02GMHACPFF@?$CFu?$AA@ 00427114     ccClient.obj
 0002:0000111c       ??_7ccClient@@6B@          0042711c     ccClient.obj
 0002:00001120       ??_C@_0BJ@JOJMAJDN@ccClientMessageWindow_?$CFp?$AA@ 00427120     ccClient.obj
 0002:0000113c       ??_C@_0CI@HDLJCNHG@Cannot?5create?5ccClientMessageWin@ 0042713c     ccClient.obj
 0002:00001164       ??_C@_0BE@FKAJGBAE@Very?5Serious?5Error?$CB?$AA@ 00427164     ccClient.obj
 0002:00001178       ??_C@_0BL@HLDPIAEG@ccclient?5message?5window?5?$CFd?$AA@ 00427178     ccClient.obj
 0002:00001194       ??_C@_0BA@OPCDEPBM@handleShare?4dll?$AA@ 00427194     ccClient.obj
 0002:000011a4       ??_C@_07OLHBNAMO@csiHwnd?$AA@ 004271a4     ccClient.obj
 0002:000011ac       ??_C@_0CK@BMPKJFHD@ccClient?3?5CSI?5handle?5from?5handle@ 004271ac     ccClient.obj
 0002:000011d8       ??_C@_0DP@KMLDKLPC@ccClient?3?5REQUESTING?5CSI?5handle?5@ 004271d8     ccClient.obj
 0002:00001218       ??_C@_0DE@GHIGEGJI@ccClient?3?5CSI?5handle?5from?5Broadc@ 00427218     ccClient.obj
 0002:0000124c       ??_C@_0BN@DDDBHADP@?$CL?$CL?5number?5of?5databases?5is?5?$CFd?$AA@ 0042724c     ccClient.obj
 0002:0000126c       ??_C@_02JDNIPIGD@NA?$AA@   0042726c     ccClient.obj
 0002:00001270       ??_C@_02FLABHCGL@NI?$AA@   00427270     ccClient.obj
 0002:00001274       ??_C@_02LIPFKLKA@NB?$AA@   00427274     ccClient.obj
 0002:00001278       ??_C@_02PHHIKPHE@IR?$AA@   00427278     ccClient.obj
 0002:0000127c       ??_C@_02OHALODOF@RR?$AA@   0042727c     ccClient.obj
 0002:00001280       ??_C@_02PNOGICHO@GR?$AA@   00427280     ccClient.obj
 0002:00001284       ??_C@_02OLCMIILA@NS?$AA@   00427284     ccClient.obj
 0002:00001288       ??_C@_02KMHJBPDH@DC?$AA@   00427288     ccClient.obj
 0002:0000128c       ??_C@_0DG@EAEPBJGP@shim?3?5database?5modify?5index?5?$DM1?5o@ 0042728c     ccClient.obj
 0002:000012c4       ??_C@_0M@EADEFJIO@DC?5?$CFd?5?$CFd?5?$CFd?$AA@ 004272c4     ccClient.obj
 0002:000012d0       ??_C@_0BC@KBDMBKEH@deque?$DMT?$DO?5too?5long?$AA@ 004272d0     ccClient.obj
 0002:000012e4       ??_C@_02DPKJAMEF@?$CFd?$AA@ 004272e4     ccConfig.obj
 0002:000012ec       ??_7ccConfig@@6B@          004272ec     ccConfig.obj
 0002:000012f0       ??_C@_0BH@OFHILIGP@?$CFs?2system?2dev_?$CF03d?4ini?$AA@ 004272f0     ccConfig.obj
 0002:00001308       ??_C@_0BA@MNCCGPDL@?$CFs?2dev_?$CF03d?4ini?$AA@ 00427308     ccConfig.obj
 0002:00001318       ??_C@_07IOFNEBNE@?2config?$AA@ 00427318     ccConfig.obj
 0002:00001320       ??_C@_0BD@FFAKGAPP@c?3?2bncs_config?4ini?$AA@ 00427320     ccConfig.obj
 0002:00001334       ??_C@_0L@DHJBNFFA@ConfigPath?$AA@ 00427334     ccConfig.obj
 0002:00001340       ??_C@_06LLCHJONG@Config?$AA@ 00427340     ccConfig.obj
 0002:00001348       ??_C@_06KIMFAMMH@WINDIR?$AA@ 00427348     ccConfig.obj
 0002:00001350       ??_C@_0P@PKHJHOPF@CC_WORKSTATION?$AA@ 00427350     ccConfig.obj
 0002:00001360       ??_C@_0M@CILGCIDH@Workstation?$AA@ 00427360     ccConfig.obj
 0002:0000136c       ??_C@_07BGDMAJAE@Network?$AA@ 0042736c     ccConfig.obj
 0002:00001374       ??_C@_0BO@GPPILLIC@config?2system?2bncs_system?4ini?$AA@ 00427374     ccConfig.obj
 0002:00001394       ??_C@_07PIGLAMMC@csi?4ini?$AA@ 00427394     ccConfig.obj
 0002:0000139c       ??_C@_06JIODDOFH@System?$AA@ 0042739c     ccConfig.obj
 0002:000013a4       ??_C@_0N@LDBPMCOK@applcore?4ini?$AA@ 004273a4     ccConfig.obj
 0002:000013b4       ??_C@_01KDCPPGHE@r?$AA@    004273b4     ccConfig.obj
 0002:000013b8       ??_C@_01LBDDMOBJ@?$FN?$AA@ 004273b8     ccConfig.obj
 0002:000013bc       ??_C@_01OHGJGJJP@?$FL?$AA@ 004273bc     ccConfig.obj
 0002:000013c0       ??_C@_02CHHAKFFB@w?$CL?$AA@ 004273c0     ccConfig.obj
 0002:000013c4       ??_C@_0BE@JONHPENG@map?1set?$DMT?$DO?5too?5long?$AA@ 004273c4     ccConfig.obj
 0002:000013dc       ??_7ccDriver@@6B@          004273dc     ccDriver.obj
 0002:000013e0       ??_C@_0BJ@GBIEGGBE@ccDriverMessageWindow_?$CFp?$AA@ 004273e0     ccDriver.obj
 0002:000013fc       ??_C@_0CE@LHMFILOH@Cannot?5create?5ccDriverMessageWin@ 004273fc     ccDriver.obj
 0002:00001420       ??_C@_0BL@OCHEJMHM@ccdriver?5message?5window?5?$CFd?$AA@ 00427420     ccDriver.obj
 0002:0000143c       ??_C@_0CL@PPNHDBCJ@Failed?5to?5unregister?5ccDriver?5wi@ 0042743c     ccDriver.obj
 0002:00001468       ??_C@_0P@ENLCHDFH@BBC_CSICLOSING?$AA@ 00427468     ccDriver.obj
 0002:00001478       ??_C@_0BD@NGMOBEEF@db?5change?5?$CFd?5?$CFd?5?$CFd?$AA@ 00427478     ccDriver.obj
 0002:0000148c       ??_C@_0CD@NKCGBBEG@Success?5?9?5CSI?5has?5accepted?5reque@ 0042748c     ccDriver.obj
 0002:000014b0       ??_C@_0CJ@PAFNHGGJ@Request?5refused?5?9?5ID?5supplied?5is@ 004274b0     ccDriver.obj
 0002:000014e0       ??_C@_0ED@NAHAGICI@Request?5refused?5?9?5Device?5ID?5is?5a@ 004274e0     ccDriver.obj
 0002:00001524       ??_C@_0DK@PNIGLNLE@Request?5refused?5?9?5CSI?5has?5not?5be@ 00427524     ccDriver.obj
 0002:00001560       ??_C@_0BA@KIBEDAAO@Cannot?5find?5CSI?$AA@ 00427560     ccDriver.obj
 0002:00001570       ??_C@_0BH@GMJKCDAO@NS?5?$CFd?5?$CFd?5?8?$CFs?8?5?$CFd?5?$CFs?5?$CFs?$AA@ 00427570     ccDriver.obj
 0002:00001588       ??_C@_0BE@JEIKGNPP@RD?5?$CFd?5?$CFd?5?$CFd?5?8?$CFs?8?5?$CFd?$AA@ 00427588     ccDriver.obj
 0002:000015a0       ??_7ccInfodriver@@6B@      004275a0     ccInfodriver.obj
 0002:000015a4       ??_C@_0BN@BHNFDCEH@ccInfodriverMessageWindow_?$CFp?$AA@ 004275a4     ccInfodriver.obj
 0002:000015c4       ??_C@_0CI@BKDAONOI@Cannot?5create?5ccInfodriverMessag@ 004275c4     ccInfodriver.obj
 0002:000015ec       ??_C@_0O@NCHBJCLO@info32fix?4dll?$AA@ 004275ec     ccInfodriver.obj
 0002:000015fc       ??_C@_08OACAGJFD@infoHwnd?$AA@ 004275fc     ccInfodriver.obj
 0002:00001608       ??_C@_0DA@HEGMNHEC@ccInfodriver?3?5Handle?5for?5Infodri@ 00427608     ccInfodriver.obj
 0002:0000163c       ??_7database@@6B@          0042763c     database.obj
 0002:00001640       ??_C@_0BA@POEEPAJD@DatabaseSize_?$CFd?$AA@ 00427640     database.obj
 0002:00001650       ??_C@_08HDBDMMBI@Database?$AA@ 00427650     database.obj
 0002:0000165c       ??_C@_0BA@BPJACOFK@DatabaseFile_?$CFd?$AA@ 0042765c     database.obj
 0002:0000166c       ??_C@_0BA@JEKJJHOL@dev_?$CF03d?4db?$CF04d?$AA@ 0042766c     database.obj
 0002:0000167c       ??_C@_0BN@EOGGJMBF@database?3?3load?5?9?5Can?8t?5find?5?$AA@ 0042767c     database.obj
 0002:0000169c       ??_C@_0BD@EHJDLHKE@?5setting?5in?5file?3?5?$AA@ 0042769c     database.obj
 0002:000016b0       ??_C@_0BJ@FGPGKDMA@?4?5Does?5this?5file?5exist?$DP?6?$AA@ 004276b0     database.obj
 0002:000016cc       ??_C@_05BMGBEOOC@?$CFs?2?$CFs?$AA@ 004276cc     database.obj
 0002:000016d4       ??_C@_0L@PNKOEJPL@?$FLDatabase_?$AA@ 004276d4     database.obj
 0002:000016e0       ??_C@_0CD@HAOBKGHO@database?3?3load?5?9?5can?8t?5open?5file@ 004276e0     database.obj
 0002:00001704       ??_C@_03JMFMNIFM@?9?9?9?$AA@ 00427704     database.obj
 0002:00001708       ??_C@_03HDCFNBIM@?$CB?$CB?$CB?$AA@ 00427708     database.obj
 0002:0000170c       ??_C@_0M@FNLNBOHL@Database_?$CFd?$AA@ 0042770c     database.obj
 0002:00001718       ??_C@_04OCCELDNI@?$CF04d?$AA@ 00427718     database.obj
 0002:00001720       ??_C@_01BJJEKLCA@?$CC?$AA@ 00427720     database.obj
 0002:00001724       ??_C@_0BE@LBLKBJAO@?$CFs?2dev_?$CF03d?4?$CFd?4dump?$AA@ 00427724     database.obj
 0002:00001738       ??_C@_06FDPGNIHM@?$CFd?0?$CFs?6?$AA@ 00427738     database.obj
 0002:00001740       ??_C@_0CO@KHOPDBPJ@database?3?5can?8t?5open?5file?5?$CIfilen@ 00427740     database.obj
 0002:00001774       ??_7databaseMgr@@6B@       00427774     databaseMgr.obj
 0002:00001778       ??_C@_0BE@PHFFEGCA@?$CFs?2?$CFs?2config?2system?$AA@ 00427778     databaseMgr.obj
 0002:0000178c       ??_C@_09KJFGGFMG@Device?5?$CFd?$AA@ 0042778c     databaseMgr.obj
 0002:00001798       ??_C@_04FABLJDN@Name?$AA@  00427798     databaseMgr.obj
 0002:000017a0       ??_C@_06OIEJKIHP@Device?$AA@ 004277a0     databaseMgr.obj
 0002:000017a8       ??_C@_0P@ONIBKGMN@DatabaseSize_0?$AA@ 004277a8     databaseMgr.obj
 0002:000017b8       ??_C@_0P@PEJKJHIM@DatabaseSize_1?$AA@ 004277b8     databaseMgr.obj
 0002:000017c8       ??_C@_0P@NPLHMEEP@DatabaseSize_2?$AA@ 004277c8     databaseMgr.obj
 0002:000017d8       ??_C@_0P@MGKMPFAO@DatabaseSize_3?$AA@ 004277d8     databaseMgr.obj
 0002:000017e8       ??_C@_0P@IJONGDMJ@DatabaseSize_4?$AA@ 004277e8     databaseMgr.obj
 0002:000017f8       ??_C@_0P@JAPGFCII@DatabaseSize_5?$AA@ 004277f8     databaseMgr.obj
 0002:00001808       ??_C@_0P@LLNLABEL@DatabaseSize_6?$AA@ 00427808     databaseMgr.obj
 0002:00001818       ??_C@_0P@KCMADAAK@DatabaseSize_7?$AA@ 00427818     databaseMgr.obj
 0002:00001828       ??_C@_0P@CFFICMMF@DatabaseSize_8?$AA@ 00427828     databaseMgr.obj
 0002:00001838       ??_C@_0P@DMEDBNIE@DatabaseSize_9?$AA@ 00427838     databaseMgr.obj
 0002:00001848       ??_C@_0L@DNMHFEPG@?$CFs?2?$CFs?2data?$AA@ 00427848     databaseMgr.obj
 0002:00001854       ??_C@_0BN@CDBCPLJ@path?5to?5databaseMgr?5dump?5is?3?$AA@ 00427854     databaseMgr.obj
 0002:00001878       ??_7decodeBNCSString@@6B@  00427878     decodeBNCSString.obj
 0002:0000187c       ??_C@_07DLHCIBDH@default?$AA@ 0042787c     appGlobal.obj
 0002:00001884       ??_C@_0BL@HMELHBKN@dd?1MM?1yyyy?5hh?3mm?3ss?3zzz?5?9?5?$AA@ 00427884     appGlobal.obj
 0002:000018a0       ??_C@_07HNEBHIML@?$DM?1font?$DO?$AA@ 004278a0     appGlobal.obj
 0002:000018a8       ??_C@_0BG@PJOGPAOB@?5?9?5?$DMfont?5color?$DN?$CCred?$CC?$DO?$AA@ 004278a8     appGlobal.obj
 0002:000018c0       ??_C@_0BI@JBDIFFME@dd?1MM?1yyyy?5hh?3mm?3ss?3zzz?$AA@ 004278c0     appGlobal.obj
 0002:000018d8       ??_C@_0O@MGMPMPMF@slink_client_?$AA@ 004278d8     appGlobal.obj
 0002:000018e8       ??_C@_04PHHEBHMK@?4ini?$AA@ 004278e8     appGlobal.obj
 0002:000018f0       ??_C@_0N@MAGDEPKO@slinkClient_?$AA@ 004278f0     appGlobal.obj
 0002:00001900       ??_C@_0BI@LIHIFCHC@slinkClient_default?4ini?$AA@ 00427900     appGlobal.obj
 0002:0000191c       ??_7fabianClient@@6B@      0042791c     fabianClient.obj
 0002:00001948       ??_C@_0N@NIOJNAEM@slinkClient?3?$AA@ 00427948     fabianClient.obj
 0002:00001958       ??_C@_0BD@FMCBOAMA@1socketReadyRead?$CI?$CJ?$AA@ 00427958     fabianClient.obj
 0002:0000196c       ??_C@_0N@HMJECBDI@2readyRead?$CI?$CJ?$AA@ 0042796c     fabianClient.obj
 0002:0000197c       ??_C@_0BG@LIDBACJE@1socketDisconnected?$CI?$CJ?$AA@ 0042797c     fabianClient.obj
 0002:00001994       ??_C@_0BA@GKAMIBNA@2disconnected?$CI?$CJ?$AA@ 00427994     fabianClient.obj
 0002:000019a4       ??_C@_02FODMEDOG@?$DM?$DM?$AA@ 004279a4     fabianClient.obj
 0002:000019a8       ??_C@_0M@CDDKIBDI@BNCS?5FABIAN?$AA@ 004279a8     fabianClient.obj
 0002:000019b4       ??_C@_0P@COCMALEG@Server?5info?3?5?$CC?$AA@ 004279b4     fabianClient.obj
 0002:000019c4       ??_C@_09EAMJHCDN@notFABIAN?$AA@ 004279c4     fabianClient.obj
 0002:000019d0       ??_C@_06BCEGKJIE@Login?3?$AA@ 004279d0     fabianClient.obj
 0002:000019d8       ??_C@_03LJPGLLJP@?3?$CF1?$AA@ 004279d8     fabianClient.obj
 0002:000019dc       ??_C@_0P@JJLIIOEK@Connected?5to?3?5?$AA@ 004279dc     fabianClient.obj
 0002:000019ec       ??_C@_05BNCHFHLA@slink?$AA@ 004279ec     fabianClient.obj
 0002:000019f4       ??_C@_08KAFEAHEM@UserName?$AA@ 004279f4     fabianClient.obj
 0002:00001a00       ??_C@_08FJIAHGMM@Password?$AA@ 00427a00     fabianClient.obj
 0002:00001a0c       ??_C@_0BA@LPLPLIJB@ControlPassword?$AA@ 00427a0c     fabianClient.obj
 0002:00001a1c       ??_C@_0CA@BLPPIGIN@SUN?5?$CF1?$AN?6SUP?5?$CF2?$AN?6SUC?5?$CF3?$AN?6SUE?50?$AN?6?$AA@ 00427a1c     fabianClient.obj
 0002:00001a3c       ??_C@_04DCHGMGIO@ERR?5?$AA@ 00427a3c     fabianClient.obj
 0002:00001a44       ??_C@_0BH@KCKDPFLM@Control?5access?5granted?$AA@ 00427a44     fabianClient.obj
 0002:00001a5c       ??_C@_0O@IMMLCCCK@Authenticated?$AA@ 00427a5c     fabianClient.obj
 0002:00001a6c       ??_C@_03JFMEENOE@ERR?$AA@  00427a6c     fabianClient.obj
 0002:00001a70       ??_C@_04EAOOLANA@AIR?5?$AA@ 00427a70     fabianClient.obj
 0002:00001a78       ??_C@_04MHPGGAEO@ARR?5?$AA@ 00427a78     fabianClient.obj
 0002:00001a80       ??_C@_04KADBMHOD@AGR?5?$AA@ 00427a80     fabianClient.obj
 0002:00001a88       ??_C@_04KPGAKBEK@ADC?5?$AA@ 00427a88     fabianClient.obj
 0002:00001a90       ??_C@_04LBAALMGD@ADP?5?$AA@ 00427a90     fabianClient.obj
 0002:00001a98       ??_C@_03LBPJDMB@RUT?$AA@   00427a98     fabianClient.obj
 0002:00001a9c       ??_C@_05GMLLALOL@RUR?$AN?6?$AA@ 00427a9c     fabianClient.obj
 0002:00001aa4       ??_C@_0P@MHDNKBBI@AIP?5?$CF1?5?$CF2?5?$CF3?$AN?6?$AA@ 00427aa4     fabianClient.obj
 0002:00001ab4       ??_C@_0BB@NGHJMDPI@AIW?5?$CF1?5?8?$CF2?8?5?$CF3?$AN?6?$AA@ 00427ab4     fabianClient.obj
 0002:00001ac8       ??_C@_0P@OOLHKGJJ@ARP?5?$CF1?5?$CF2?5?$CF3?$AN?6?$AA@ 00427ac8     fabianClient.obj
 0002:00001ad8       ??_C@_0BE@HANEPNHD@ARC?5?$CF1?5?$CF2?5?$CF3?5?8?$CF4?8?$AN?6?$AA@ 00427ad8     fabianClient.obj
 0002:00001aec       ??_C@_0P@MKGPEJI@AGP?5?$CF1?5?$CF2?5?$CF3?$AN?6?$AA@ 00427aec     fabianClient.obj
 0002:00001afc       ??_C@_0P@LBGMJIFG@AGS?5?$CF1?5?$CF2?5?$CF3?$AN?6?$AA@ 00427afc     fabianClient.obj
 0002:00001b0c       ??_C@_0BC@MJJJGEPC@AIL?5?$CF1?5?$CF2?5?$CF3?5?$CF4?$AN?6?$AA@ 00427b0c     fabianClient.obj
 0002:00001b20       ??_C@_0BC@IILNJMGE@AGL?5?$CF1?5?$CF2?5?$CF3?5?$CF4?$AN?6?$AA@ 00427b20     fabianClient.obj
 0002:00001b34       ??_C@_0BC@GLECOJJF@ARL?5?$CF1?5?$CF2?5?$CF3?5?$CF4?$AN?6?$AA@ 00427b34     fabianClient.obj
 0002:00001b48       ??_C@_0P@IOOLBDNC@ARR?5?$CF1?5?$CF2?5?$CF3?$AN?6?$AA@ 00427b48     fabianClient.obj
 0002:00001b58       ??_C@_08CNMIPOB@ARU?5?$CF1?$AN?6?$AA@ 00427b58     fabianClient.obj
 0002:00001b64       ??_C@_08OKDAJIOK@ADP?5?$CF1?$AN?6?$AA@ 00427b64     fabianClient.obj
 0002:00001b70       ??_C@_03HFDOEDEJ@?$DO?$DO?5?$AA@ 00427b70     fabianClient.obj
 0002:00001b74       ??_C@_05EJNAFEDH@RUT?$AN?6?$AA@ 00427b74     fabianClient.obj
 0002:00001b7c       ??_C@_0BE@GJPJOPPK@ARM?5?$CF1?5?$CF2?5?$CF3?5?8?$CF4?8?$AN?6?$AA@ 00427b7c     fabianClient.obj
 0002:00001f24       ??_C@_0BN@GNBMPDOC@QAbstractSocket?3?3SocketError?$AA@ 00427f24     moc_persistentSocket.obj
 0002:00001f44       ??_C@_0BB@LIJGMFNJ@QList?$DMQSslError?$DO?$AA@ 00427f44     moc_persistentSocket.obj
 0002:000021c4       ??_C@_0BC@DHCLDELL@IccClientCallback?$AA@ 004281c4     moc_slinkclient.obj
 0002:000021d8       ??_C@_0BC@FELKJKEC@IccDriverCallback?$AA@ 004281d8     moc_slinkclient.obj
 0002:000021ec       ??_C@_0BH@KFADEIDA@IfabianClient_callback?$AA@ 004281ec     moc_slinkclient.obj
 0002:00002204       ??_C@_0BC@BGDLIIAA@?$CF1?2?$CF2?2windows?2lib?$AA@ 00428204     main.obj
 0002:00002218       ??_C@_0L@LGPNDKFG@SystemPath?$AA@ 00428218     main.obj
 0002:00002224       ??_C@_01GBGANLPD@0?$AA@    00428224     netStatus.obj
 0002:00002228       ??_C@_01NEMOKFLO@?$DN?$AA@ 00428228     netStatus.obj
 0002:0000222c       ??_C@_01OGPIMHDM@?$DP?$AA@ 0042822c     netStatus.obj
 0002:00002230       ??_C@_04CLJHIJFO@txrx?$AA@ 00428230     netStatus.obj
 0002:00002238       ??_C@_07FEFHDFHK@txrx?$DNtx?$AA@ 00428238     netStatus.obj
 0002:00002240       ??_C@_07FANKEJMI@txrx?$DNrx?$AA@ 00428240     netStatus.obj
 0002:00002248       ??_C@_0N@IGKDBAOO@txrx?$DNunknown?$AA@ 00428248     netStatus.obj
 0002:00002258       ??_C@_08BOPNKML@_version?$AA@ 00428258     netStatus.obj
 0002:00002264       ??_C@_0M@CMACAIBJ@_version?$DN?$CF1?$AA@ 00428264     netStatus.obj
 0002:00002270       ??_C@_07GMAMHNND@_module?$AA@ 00428270     netStatus.obj
 0002:00002278       ??_C@_0L@OGHCGDFA@_module?$DN?$CF1?$AA@ 00428278     netStatus.obj
 0002:0000228c       ??_SQSslSocket@@6B@        0042828c     persistentSocket.obj
 0002:00002328       ??_7persistentSocket@@6B@  00428328     persistentSocket.obj
 0002:00002354       ??_C@_04KGFMLCPK@Main?$AA@ 00428354     persistentSocket.obj
 0002:0000235c       ??_C@_0BP@BJEOMKOC@Main?5address?1port?5is?5not?5valid?$AA@ 0042835c     persistentSocket.obj
 0002:0000237c       ??_C@_0BO@PNDGGNML@Alt?5address?1port?5is?5not?5valid?$AA@ 0042837c     persistentSocket.obj
 0002:0000239c       ??_C@_0DK@CGMLEDHE@There?5are?5no?5valid?5IP?5addresses?1@ 0042839c     persistentSocket.obj
 0002:000023d8       ??_C@_0CE@LLEOJHFG@connection?5closed?5by?5watchdog?5ti@ 004283d8     persistentSocket.obj
 0002:000023fc       ??_C@_09NJLBODLJ@Connected?$AA@ 004283fc     persistentSocket.obj
 0002:00002408       ??_C@_0N@NFBNFHML@Disconnected?$AA@ 00428408     persistentSocket.obj
 0002:00002418       ??_C@_0BH@NFNMCF@ConnectionRefusedError?$AA@ 00428418     persistentSocket.obj
 0002:00002430       ??_C@_0BG@PHFALMOJ@RemoteHostClosedError?$AA@ 00428430     persistentSocket.obj
 0002:00002448       ??_C@_0BC@CDLCCCAK@HostNotFoundError?$AA@ 00428448     persistentSocket.obj
 0002:0000245c       ??_C@_0BC@FPODHDLI@SocketAccessError?$AA@ 0042845c     persistentSocket.obj
 0002:00002470       ??_C@_0BE@OJBJHGBN@SocketResourceError?$AA@ 00428470     persistentSocket.obj
 0002:00002484       ??_C@_0BD@OEPIILGH@SocketTimeoutError?$AA@ 00428484     persistentSocket.obj
 0002:00002498       ??_C@_0BG@KOKMKCFM@DatagramTooLargeError?$AA@ 00428498     persistentSocket.obj
 0002:000024b0       ??_C@_0N@PKFCJHGH@NetworkError?$AA@ 004284b0     persistentSocket.obj
 0002:000024c0       ??_C@_0BC@DAGELLGK@AddressInUseError?$AA@ 004284c0     persistentSocket.obj
 0002:000024d4       ??_C@_0BP@LCCBMNJB@SocketAddressNotAvailableError?$AA@ 004284d4     persistentSocket.obj
 0002:000024f4       ??_C@_0CA@KIEFJGFJ@UnsupportedSocketOperationError?$AA@ 004284f4     persistentSocket.obj
 0002:00002514       ??_C@_0BP@HCKJJEBP@UnfinishedSocketOperationError?$AA@ 00428514     persistentSocket.obj
 0002:00002534       ??_C@_0CB@NHOILHAD@ProxyAuthenticationRequiredError@ 00428534     persistentSocket.obj
 0002:00002558       ??_C@_0BI@CJBOHIPK@SslHandshakeFailedError?$AA@ 00428558     persistentSocket.obj
 0002:00002570       ??_C@_0BM@FELALLOP@ProxyConnectionRefusedError?$AA@ 00428570     persistentSocket.obj
 0002:0000258c       ??_C@_0BL@JLNIMGJC@ProxyConnectionClosedError?$AA@ 0042858c     persistentSocket.obj
 0002:000025a8       ??_C@_0BM@KEEBDDJP@ProxyConnectionTimeoutError?$AA@ 004285a8     persistentSocket.obj
 0002:000025c4       ??_C@_0BD@HFOILBM@ProxyNotFoundError?$AA@ 004285c4     persistentSocket.obj
 0002:000025d8       ??_C@_0BD@HEEPOKHJ@ProxyProtocolError?$AA@ 004285d8     persistentSocket.obj
 0002:000025ec       ??_C@_0P@IINEIINP@OperationError?$AA@ 004285ec     persistentSocket.obj
 0002:000025fc       ??_C@_0BB@LGLEECCE@SslInternalError?$AA@ 004285fc     persistentSocket.obj
 0002:00002610       ??_C@_0BI@PNKPPLEL@SslInvalidUserDataError?$AA@ 00428610     persistentSocket.obj
 0002:00002628       ??_C@_0P@OHBMNBHO@TemporaryError?$AA@ 00428628     persistentSocket.obj
 0002:00002638       ??_C@_0BD@KGEMAABN@UnknownSocketError?$AA@ 00428638     persistentSocket.obj
 0002:0000264c       ??_C@_0BF@CGBMBCGB@Socket?5Error?5?$CF1?5?$CI?$CF2?$CJ?$AA@ 0042864c     persistentSocket.obj
 0002:00002664       ??_C@_0DA@OILKMIKE@persistentSocket?3?3sslErrors?5ther@ 00428664     persistentSocket.obj
 0002:00002694       ??_C@_0M@OLNOGALM@SSL?5error?3?5?$AA@ 00428694     persistentSocket.obj
 0002:000026a0       ??_C@_07HBDADLAG@?5until?5?$AA@ 004286a0     persistentSocket.obj
 0002:000026a8       ??_C@_0L@IKFIGDMK@?5verifies?5?$AA@ 004286a8     persistentSocket.obj
 0002:000026b4       ??_C@_05NGCODCHP@SSL?3?5?$AA@ 004286b4     persistentSocket.obj
 0002:000026bc       ??_C@_0CH@BBNGGDH@CLIENT?5sslMode?$CIQSslSocket?3?3SslMo@ 004286bc     persistentSocket.obj
 0002:000026e4       ??_C@_0CL@EEBDEMLD@1socketError?$CIQAbstractSocket?3?3So@ 004286e4     persistentSocket.obj
 0002:00002710       ??_C@_0CF@FLCPHEEE@2error?$CIQAbstractSocket?3?3SocketEr@ 00428710     persistentSocket.obj
 0002:00002738       ??_C@_0CK@MMMEHMDC@1socketSslErrors?$CIconst?5QList?$DMQSs@ 00428738     persistentSocket.obj
 0002:00002764       ??_C@_0CE@CKHPOFOB@2sslErrors?$CIconst?5QList?$DMQSslError@ 00428764     persistentSocket.obj
 0002:00002788       ??_C@_06EJDHAJPM@1enc?$CI?$CJ?$AA@ 00428788     persistentSocket.obj
 0002:00002790       ??_C@_0N@JJDCBGIC@2encrypted?$CI?$CJ?$AA@ 00428790     persistentSocket.obj
 0002:000027a0       ??_C@_0BO@HBEOKKHD@1sslMode?$CIQSslSocket?3?3SslMode?$CJ?$AA@ 004287a0     persistentSocket.obj
 0002:000027c0       ??_C@_0CC@FDHEOIAF@2modeChanged?$CIQSslSocket?3?3SslMode@ 004287c0     persistentSocket.obj
 0002:000027e4       ??_C@_0BD@FFBMDFLI@1socketConnected?$CI?$CJ?$AA@ 004287e4     persistentSocket.obj
 0002:000027f8       ??_C@_03PHINJBAN@Alt?$AA@  004287f8     persistentSocket.obj
 0002:000027fc       ??_C@_0CH@GKNKOIKA@Attempting?5SSL?5connection?5to?5ALT@ 004287fc     persistentSocket.obj
 0002:00002824       ??_C@_0CI@PAHKIPKO@Attempting?5SSL?5connection?5to?5MAI@ 00428824     persistentSocket.obj
 0002:0000284c       ??_C@_0N@HFKJPEEA@2connected?$CI?$CJ?$AA@ 0042884c     persistentSocket.obj
 0002:0000285c       ??_C@_0CD@BCHOPPLD@Attempting?5connection?5to?5ALT?5?$CF1?3@ 0042885c     persistentSocket.obj
 0002:00002880       ??_C@_0CE@HELMGKGH@Attempting?5connection?5to?5MAIN?5?$CF1@ 00428880     persistentSocket.obj
 0002:000028a4       ??_C@_0N@HBEBHFOI@32?532?5130?52?5?$AA@ 004288a4     slinkclient.obj
 0002:000028b4       ??_C@_0N@PKNIIFCM@?5?5?5c?5?$CD6C0000?$AA@ 004288b4     slinkclient.obj
 0002:000028c4       ??_C@_0N@EKCGHFAH@?4?5?5c?5?$CD7A0101?$AA@ 004288c4     slinkclient.obj
 0002:000028d4       ??_C@_0N@IPKGENCC@X?5?5c?5?$CD7E0A0A?$AA@ 004288d4     slinkclient.obj
 0002:000028e4       ??_C@_0N@LJKEOBG@o?5?5c?5?$CD7F1111?$AA@ 004288e4     slinkclient.obj
 0002:000028f4       ??_C@_0N@IIEGPMNL@O?5?5c?5?$CD830000?$AA@ 004288f4     slinkclient.obj
 0002:00002904       ??_C@_0N@CHNFMEFD@?$CL?5?5c?5?$CD8B0101?$AA@ 00428904     slinkclient.obj
 0002:00002914       ??_C@_0N@ENPAADNM@?$EA?5?5c?5?$CD810D0D?$AA@ 00428914     slinkclient.obj
 0002:00002924       ??_C@_0N@JKCKBFDM@?$CD?5?5c?5?$CD920404?$AA@ 00428924     slinkclient.obj
 0002:00002934       ??_C@_0N@GDBNBEJ@$?5?5c?5?$CD940B0B?$AA@ 00428934     slinkclient.obj
 0002:00002944       ??_C@_0N@PDHJGMOE@?$CF?5?5c?5?$CD9A0D0D?$AA@ 00428944     slinkclient.obj
 0002:00002954       ??_C@_0N@EBKJDMH@?$CG?5?5c?5?$CD831313?$AA@ 00428954     slinkclient.obj
 0002:00002964       ??_C@_0N@KNFOEGGP@?$CK?5?5c?5?$CD851B1B?$AA@ 00428964     slinkclient.obj
 0002:00002974       ??_C@_0N@LCEPHALC@?$DN?5?5c?5?$CD891C1C?$AA@ 00428974     slinkclient.obj
 0002:00002984       ??_C@_0N@OPCBHMDF@?9?5?5c?5?$CD9C1212?$AA@ 00428984     slinkclient.obj
 0002:00002994       ??_C@_0N@PMPJMJGG@?$DL?5?5c?5?$CDBA0000?$AA@ 00428994     slinkclient.obj
 0002:000029a4       ??_C@_0N@BJPOBNGJ@?3?5?5c?5?$CDA31616?$AA@ 004289a4     slinkclient.obj
 0002:000029b4       ??_C@_0N@GLEMMMHO@?$DO?5?5c?5?$CDA41B1B?$AA@ 004289b4     slinkclient.obj
 0002:000029c4       ??_C@_0N@JHMJLLMH@?0?5?5c?5?$CDAA1D1D?$AA@ 004289c4     slinkclient.obj
 0002:000029d4       ??_C@_0N@FEDFNFKE@?$DM?5?5c?5?$CD872323?$AA@ 004289d4     slinkclient.obj
 0002:000029e4       ??_C@_0N@DLMHNBPC@1?5?5c?5?$CD8B2525?$AA@ 004289e4     slinkclient.obj
 0002:000029f4       ??_C@_0N@BAJLMKCI@2?5?5c?5?$CD8B2B2B?$AA@ 004289f4     slinkclient.obj
 0002:00002a04       ??_C@_0N@EAAKJECO@3?5?5c?5?$CD932F2F?$AA@ 00428a04     slinkclient.obj
 0002:00002a14       ??_C@_0N@GKNFDBCD@4?5?5c?5?$CD8F3131?$AA@ 00428a14     slinkclient.obj
 0002:00002a24       ??_C@_0N@MLCOKILC@5?5?5c?5?$CD923434?$AA@ 00428a24     slinkclient.obj
 0002:00002a34       ??_C@_0N@FMNANFPE@6?5?5c?5?$CD953B3B?$AA@ 00428a34     slinkclient.obj
 0002:00002a44       ??_C@_0N@GCMELLPM@7?5?5c?5?$CD9A3D3D?$AA@ 00428a44     slinkclient.obj
 0002:00002a54       ??_C@_0N@GAMKFFKF@8?5?5c?5?$CDAD2323?$AA@ 00428a54     slinkclient.obj
 0002:00002a64       ??_C@_0N@GCDBBEDC@9?5?5c?5?$CDB42B2B?$AA@ 00428a64     slinkclient.obj
 0002:00002a74       ??_C@_0N@PIJNFLCA@0?5?5c?5?$CDB92C2C?$AA@ 00428a74     slinkclient.obj
 0002:00002a84       ??_C@_0N@IBMBHEOB@q?5?5c?5?$CDBB3333?$AA@ 00428a84     slinkclient.obj
 0002:00002a94       ??_C@_0N@HICBECOO@w?5?5c?5?$CDBE3C3C?$AA@ 00428a94     slinkclient.obj
 0002:00002aa4       ??_C@_0N@DJFBLGME@e?5?5c?5?$CDC50000?$AA@ 00428aa4     slinkclient.obj
 0002:00002ab4       ??_C@_0N@PLAHBLIH@r?5?5c?5?$CDCE0000?$AA@ 00428ab4     slinkclient.obj
 0002:00002ac4       ??_C@_0N@FNELIMC@t?5?5c?5?$CDDA0000?$AA@ 00428ac4     slinkclient.obj
 0002:00002ad4       ??_C@_0N@FLIDFNIL@y?5?5c?5?$CDEB0303?$AA@ 00428ad4     slinkclient.obj
 0002:00002ae4       ??_C@_0N@IFDJDNBK@u?5?5c?5?$CDEB0C0C?$AA@ 00428ae4     slinkclient.obj
 0002:00002af4       ??_C@_0N@IGCNJFKB@i?5?5c?5?$CDF30101?$AA@ 00428af4     slinkclient.obj
 0002:00002b04       ??_C@_0N@GIMENHEP@p?5?5c?5?$CDFE0101?$AA@ 00428b04     slinkclient.obj
 0002:00002b14       ??_C@_0N@DLPNNLA@a?5?5c?5?$CDF70A0A?$AA@ 00428b14     slinkclient.obj
 0002:00002b24       ??_C@_0N@JFMBCPII@s?5?5c?5?$CDFC0F0F?$AA@ 00428b24     slinkclient.obj
 0002:00002b34       ??_C@_0N@FHNKOOND@d?5?5c?5?$CDE71111?$AA@ 00428b34     slinkclient.obj
 0002:00002b44       ??_C@_0N@DPAKLOEG@f?5?5c?5?$CDEC1313?$AA@ 00428b44     slinkclient.obj
 0002:00002b54       ??_C@_0N@GEPEBGAD@g?5?5c?5?$CDF41212?$AA@ 00428b54     slinkclient.obj
 0002:00002b64       ??_C@_0N@PEAEKIGL@h?5?5c?5?$CDFC1313?$AA@ 00428b64     slinkclient.obj
 0002:00002b74       ??_C@_0N@NAFIMEEK@j?5?5c?5?$CDFC1C1C?$AA@ 00428b74     slinkclient.obj
 0002:00002b84       ??_C@_0N@ECOAONPK@k?5?5c?5?$CDCB3737?$AA@ 00428b84     slinkclient.obj
 0002:00002b94       ??_C@_0N@NFNJCEEO@l?5?5c?5?$CDC43A3A?$AA@ 00428b94     slinkclient.obj
 0002:00002ba4       ??_C@_0N@EPCDMKDJ@z?5?5c?5?$CDCC3C3C?$AA@ 00428ba4     slinkclient.obj
 0002:00002bb4       ??_C@_0N@FJJHGHMC@x?5?5c?5?$CDD23E3E?$AA@ 00428bb4     slinkclient.obj
 0002:00002bc4       ??_C@_0N@GCNOINIL@c?5?5c?5?$CDFC2828?$AA@ 00428bc4     slinkclient.obj
 0002:00002bd4       ??_C@_0N@HLMMKOPA@v?5?5c?5?$CDFB3535?$AA@ 00428bd4     slinkclient.obj
 0002:00002be4       ??_C@_0N@OJDHILGI@b?5?5c?5?$CD884848?$AA@ 00428be4     slinkclient.obj
 0002:00002bf4       ??_C@_0N@CJMBCJBF@n?5?5c?5?$CD974040?$AA@ 00428bf4     slinkclient.obj
 0002:00002c04       ??_C@_0N@CEOKILPK@m?5?5c?5?$CD9B4444?$AA@ 00428c04     slinkclient.obj
 0002:00002c14       ??_C@_0N@BMAHIHKD@M?5?5c?5?$CD9E4C4C?$AA@ 00428c14     slinkclient.obj
 0002:00002c24       ??_C@_0N@GGNCAHOP@N?5?5c?5?$CD8D5454?$AA@ 00428c24     slinkclient.obj
 0002:00002c34       ??_C@_0N@PCNHPBKD@B?5?5c?5?$CDA24C4C?$AA@ 00428c34     slinkclient.obj
 0002:00002c44       ??_C@_0N@JAEOAAJG@V?5?5c?5?$CDAE4C4C?$AA@ 00428c44     slinkclient.obj
 0002:00002c54       ??_C@_0N@MLFODJLJ@C?5?5c?5?$CDB04A4A?$AA@ 00428c54     slinkclient.obj
 0002:00002c64       ??_C@_0N@GALOFDJK@Z?5?5c?5?$CDA45454?$AA@ 00428c64     slinkclient.obj
 0002:00002c74       ??_C@_0N@LLENOFFA@A?5?5c?5?$CDA75A5A?$AA@ 00428c74     slinkclient.obj
 0002:00002c84       ??_C@_0N@LOBCMFOC@S?5?5c?5?$CDA95E5E?$AA@ 00428c84     slinkclient.obj
 0002:00002c94       ??_C@_0N@COFKIEHA@D?5?5c?5?$CD8D6B6B?$AA@ 00428c94     slinkclient.obj
 0002:00002ca4       ??_C@_0N@JJEOCJG@F?5?5c?5?$CD987C7C?$AA@ 00428ca4     slinkclient.obj
 0002:00002cb4       ??_C@_0N@NNFBFMHG@G?5?5c?5?$CDAD6464?$AA@ 00428cb4     slinkclient.obj
 0002:00002cc4       ??_C@_0N@PACNIONI@H?5?5c?5?$CDAF6969?$AA@ 00428cc4     slinkclient.obj
 0002:00002cd4       ??_C@_0N@OAHILPFN@J?5?5c?5?$CDB26C6C?$AA@ 00428cd4     slinkclient.obj
 0002:00002ce4       ??_C@_0N@MAHGGGIE@K?5?5c?5?$CDB57171?$AA@ 00428ce4     slinkclient.obj
 0002:00002cf4       ??_C@_0N@NDANNNHM@L?5?5c?5?$CDB87676?$AA@ 00428cf4     slinkclient.obj
 0002:00002d04       ??_C@_0N@JCPMOCEC@P?5?5c?5?$CDBC7C7C?$AA@ 00428d04     slinkclient.obj
 0002:00002d14       ??_C@_0N@CCGCJELC@I?5?5c?5?$CDCD4040?$AA@ 00428d14     slinkclient.obj
 0002:00002d24       ??_C@_0N@DEFBNKDH@U?5?5c?5?$CDD34444?$AA@ 00428d24     slinkclient.obj
 0002:00002d34       ??_C@_0N@HADOGFAP@Y?5?5c?5?$CDDA4646?$AA@ 00428d34     slinkclient.obj
 0002:00002d44       ??_C@_0N@POMODEJB@T?5?5c?5?$CDD64949?$AA@ 00428d44     slinkclient.obj
 0002:00002d54       ??_C@_0N@NEJGKGLK@R?5?5c?5?$CDDC4C4C?$AA@ 00428d54     slinkclient.obj
 0002:00002d64       ??_C@_0N@CLCGNFMB@E?5?5c?5?$CDDE5151?$AA@ 00428d64     slinkclient.obj
 0002:00002d74       ??_C@_0N@NMIBDICD@W?5?5c?5?$CDE24E4E?$AA@ 00428d74     slinkclient.obj
 0002:00002d84       ??_C@_0N@HDDIMICK@Q?5?5c?5?$CDE45454?$AA@ 00428d84     slinkclient.obj
 0002:00002d94       ??_C@_0N@NEPFPBFE@?$CB?5?5c?5?$CDE95555?$AA@ 00428d94     slinkclient.obj
 0002:00002da4       ??_C@_0N@MKAJHFPL@?$HO?5?5c?5?$CDE55858?$AA@ 00428da4     slinkclient.obj
 0002:00002db4       ??_C@_0N@HFFOABFG@?$FO?5?5c?5?$CDEC5B5B?$AA@ 00428db4     slinkclient.obj
 0002:00002dc4       ??_C@_0N@BGAPOKFK@?1?5?5c?5?$CDF15D5D?$AA@ 00428dc4     slinkclient.obj
 0002:00002dd4       ??_C@_0N@BBGKBHOH@?$CI?5?5c?5?$CDD36565?$AA@ 00428dd4     slinkclient.obj
 0002:00002de4       ??_C@_0N@GGHJJFIH@?$CJ?5?5c?5?$CDDC6464?$AA@ 00428de4     slinkclient.obj
 0002:00002df4       ??_C@_0N@CMBEFPIB@_?5?5c?5?$CDED6060?$AA@ 00428df4     slinkclient.obj
 0002:00002e04       ??_C@_0N@NNNJCCJE@?$GA?5?5c?5?$CDF46464?$AA@ 00428e04     slinkclient.obj
 0002:00002e14       ??_C@_0N@HGKJONCF@?8?5?5c?5?$CD8A8787?$AA@ 00428e14     slinkclient.obj
 0002:00002e24       ??_C@_0M@OFBNPEMJ@?$FN?5?5c?5gray59?$AA@ 00428e24     slinkclient.obj
 0002:00002e30       ??_C@_0N@JCFGCMMH@?$FL?5?5c?5?$CD9D9B9B?$AA@ 00428e30     slinkclient.obj
 0002:00002e40       ??_C@_0N@IJBMCAFP@?$HL?5?5c?5?$CDBF8484?$AA@ 00428e40     slinkclient.obj
 0002:00002e50       ??_C@_0N@GFBPFEND@?$HN?5?5c?5?$CDB68989?$AA@ 00428e50     slinkclient.obj
 0002:00002e60       ??_C@_0N@ODGGBBCE@?$HM?5?5c?5?$CDBC8989?$AA@ 00428e60     slinkclient.obj
 0002:00002e70       ??_C@_0N@GAFKJGGK@?5?4?5c?5?$CDBF9393?$AA@ 00428e70     slinkclient.obj
 0002:00002e80       ??_C@_0N@HOPOLOGL@?4?4?5c?5?$CDA4A3A3?$AA@ 00428e80     slinkclient.obj
 0002:00002e90       ??_C@_0N@DDHPFMLP@X?4?5c?5?$CDA9A7A7?$AA@ 00428e90     slinkclient.obj
 0002:00002ea0       ??_C@_0N@CGDJJHNH@o?4?5c?5?$CDABABAB?$AA@ 00428ea0     slinkclient.obj
 0002:00002eb0       ??_C@_0N@GBPIEIFL@O?4?5c?5?$CDB5B5B5?$AA@ 00428eb0     slinkclient.obj
 0002:00002ec0       ??_C@_0N@CPADLCPO@?$CL?4?5c?5?$CDBBBBBB?$AA@ 00428ec0     slinkclient.obj
 0002:00002ed0       ??_C@_0N@LGFJOFKO@?$EA?4?5c?5?$CDC28484?$AA@ 00428ed0     slinkclient.obj
 0002:00002ee0       ??_C@_0N@IOPDBEJC@?$CD?4?5c?5?$CDC58C8C?$AA@ 00428ee0     slinkclient.obj
 0002:00002ef0       ??_C@_0N@KMBBKMKN@$?4?5c?5?$CDC69292?$AA@ 00428ef0     slinkclient.obj
 0002:00002f00       ??_C@_0N@JCAFMCKF@?$CF?4?5c?5?$CDCB9494?$AA@ 00428f00     slinkclient.obj
 0002:00002f10       ??_C@_0N@BDEPCIA@?$CG?4?5c?5?$CDCC9E9E?$AA@ 00428f10     slinkclient.obj
 0002:00002f20       ??_C@_0N@EMMBAFOP@?$CK?4?5c?5?$CDD29B9B?$AA@ 00428f20     slinkclient.obj
 0002:00002f30       ??_C@_0N@ENLLAKCD@?$DN?4?5c?5?$CDF18383?$AA@ 00428f30     slinkclient.obj
 0002:00002f40       ??_C@_0N@MOKLHOB@?9?4?5c?5?$CDCEA1A1?$AA@ 00428f40     slinkclient.obj
 0002:00002f50       ??_C@_0N@IBCBMJGG@?$DL?4?5c?5?$CDD2A4A4?$AA@ 00428f50     slinkclient.obj
 0002:00002f60       ??_C@_0N@JHNHLGAE@?3?4?5c?5?$CDD9A5A5?$AA@ 00428f60     slinkclient.obj
 0002:00002f70       ??_C@_0N@NMMBOOHM@?$DO?4?5c?5?$CDD4ACAC?$AA@ 00428f70     slinkclient.obj
 0002:00002f80       ??_C@_0N@COEPMEIE@?0?4?5c?5?$CDD7B2B2?$AA@ 00428f80     slinkclient.obj
 0002:00002f90       ??_C@_0N@DDDFFOI@?$DM?4?5c?5?$CDDABBBB?$AA@ 00428f90     slinkclient.obj
 0002:00002fa0       ??_C@_0N@NBMEPFNN@1?4?5c?5?$CDC4C4C4?$AA@ 00428fa0     slinkclient.obj
 0002:00002fb0       ??_C@_0N@ENBIIFFK@2?4?5c?5?$CDCCCBCB?$AA@ 00428fb0     slinkclient.obj
 0002:00002fc0       ??_C@_0N@EBOECKII@3?4?5c?5?$CDDFC2C2?$AA@ 00428fc0     slinkclient.obj
 0002:00002fd0       ??_C@_0N@LOCDLCNF@4?4?5c?5?$CDD4D4D4?$AA@ 00428fd0     slinkclient.obj
 0002:00002fe0       ??_C@_0N@IJPPKELM@5?4?5c?5?$CDDBDBDB?$AA@ 00428fe0     slinkclient.obj
 0002:00002ff0       ??_C@_0N@MMMJCOKA@6?4?5c?5?$CDE0C6C6?$AA@ 00428ff0     slinkclient.obj
 0002:00003000       ??_C@_0N@DIMFAOLC@7?4?5c?5?$CDE3CBCB?$AA@ 00429000     slinkclient.obj
 0002:00003010       ??_C@_0N@IFIPKFOG@8?4?5c?5?$CDE6D1D1?$AA@ 00429010     slinkclient.obj
 0002:00003020       ??_C@_0N@JMKIOPGE@9?4?5c?5?$CDEAD6D6?$AA@ 00429020     slinkclient.obj
 0002:00003030       ??_C@_0N@PJPLMPLO@0?4?5c?5?$CDECDBDB?$AA@ 00429030     slinkclient.obj
 0002:00003040       ??_C@_0N@IEFENIFO@q?4?5c?5?$CDE4E4E4?$AA@ 00429040     slinkclient.obj
 0002:00003050       ??_C@_0N@CIPCKPDO@w?4?5c?5?$CDEFE1E1?$AA@ 00429050     slinkclient.obj
 0002:00003060       ??_C@_0N@HAFLFOHP@e?4?5c?5?$CDECECEC?$AA@ 00429060     slinkclient.obj
 0002:00003070       ??_C@_0N@FILLDPLO@r?4?5c?5?$CDF1E4E4?$AA@ 00429070     slinkclient.obj
 0002:00003080       ??_C@_0N@KBFLAJLB@t?4?5c?5?$CDF6EDED?$AA@ 00429080     slinkclient.obj
 0002:00003090       ??_C@_0N@DFAHNKFC@y?4?5c?5?$CDF6F3F3?$AA@ 00429090     slinkclient.obj
 0002:000030a0       ??_C@_0N@FOOLNBHM@u?4?5c?5?$CDF9F3F3?$AA@ 004290a0     slinkclient.obj
 0002:000030b0       ??_C@_0N@IEILKMFE@i?4?5c?5?$CDFFFFFF?$AA@ 004290b0     slinkclient.obj
 0002:000030c0       ??_C@_09DKMOACIN@p?4?5c?5None?$AA@ 004290c0     slinkclient.obj
 0002:000030d0       ??_C@_0EB@LMCABGCH@p?4p?4p?4p?4p?4p?4?$DN?4?$GA?5?$GA?5?1?5?$GA?5?1?5?$GA?5?1?5?$GA?5?1?5@ 004290d0     slinkclient.obj
 0002:00003118       ??_C@_0EB@OAACOFKA@p?4p?4p?4p?4p?4?$DN?4v?5s?5f?5u?5u?5y?5y?5g?5u?5y?5@ 00429118     slinkclient.obj
 0002:00003160       ??_C@_0EB@IMFLDCJJ@p?4p?4p?4p?4?$DN?4c?5h?5?9?5?$CG?5?$CG?5?$CG?5O?5?$EA?5?$CG?5?$CG?5?$EA?5@ 00429160     slinkclient.obj
 0002:000031a8       ??_C@_0EB@KJOEHLKC@p?4p?4p?4?$DN?4j?5a?5?9?5X?5?4?5?$CG?5?$CG?5?4?5?$CG?5?$CG?5?$CG?5?$CG?5@ 004291a8     slinkclient.obj
 0002:000031f0       ??_C@_0EB@JKFFILNI@p?4p?4?$DN?4h?5i?5?9?5?$CG?5?$CG?5?$EA?5?$CG?5O?5?4?5?$CG?5?$EA?5?$CG?5?$CG?5@ 004291f0     slinkclient.obj
 0002:00003238       ??_C@_0EB@BCDOIDKM@p?4?$DN?4h?5i?5?$CD?5?$CG?5?$CG?5X?5?$EA?5?$CG?5?$CG?5?$EA?5?$CG?5X?5X?5?$CG?5@ 00429238     slinkclient.obj
 0002:00003280       ??_C@_0EB@FPMOCIOH@?$DN?4h?5y?5?$CD?5X?5?$CG?5?$EA?5?4?5?4?5?$CK?5?$CG?5?$EA?5?$CG?5X?5?4?5?$CG?5@ 00429280     slinkclient.obj
 0002:000032c8       ??_C@_0EB@PEGNIIAE@?$GA?5p?5?$CL?5?4?5?$EA?5?$CG?5?$EA?5X?5?$EA?51?5?$CK?5?$CG?5?$CG?5?4?5?4?5?$CG?5@ 004292c8     slinkclient.obj
 0002:00003310       ??_C@_0EB@DOONEAGA@?$GA?5i?5?4?5?4?5?$EA?5?$CG?5B?5?0?4u?4i?4i?4i?4w?4L?5?4?5X?5@ 00429310     slinkclient.obj
 0002:00003358       ??_C@_0EB@PGHCFHO@?$GA?5a?5?4?5?4?5?4?5Z?5u?4i?4i?4i?4i?4i?4i?4?$DO?4?4?5?4?5@ 00429358     slinkclient.obj
 0002:000033a0       ??_C@_0EB@LEKLFADM@?$GA?5i?5?4?5?4?5?$EA?5t?4i?4i?4$?4B?56?5B?5L?5L?5?4?5?4?5@ 004293a0     slinkclient.obj
 0002:000033e8       ??_C@_0EB@MIJGKLFH@?$GA?5y?5?4?5?4?56?5i?4i?4?$DM?4?4?5?4?5?4?5?4?5?4?5?4?5?4?5?4?5@ 004293e8     slinkclient.obj
 0002:00003430       ??_C@_0EB@KJOFNNOG@?$GA?5i?5?4?5?4?57?5i?4i?40?4?$DN?5?4?5?4?5?4?5?4?5?4?5?4?5?4?5@ 00429430     slinkclient.obj
 0002:00003478       ??_C@_0EB@BEGOPNP@?$GA?5i?5?4?5?4?5X?5y?4i?4i?4t?4?$HL?5?$DN?5?4?5?4?5?4?5?4?5?4?5@ 00429478     slinkclient.obj
 0002:000034c0       ??_C@_0EB@NFPHJPDJ@?$GA?5i?5?4?5?4?5?4?5A?5i?4i?4i?4i?4i?4?0?47?5?4?5?4?5?4?5@ 004294c0     slinkclient.obj
 0002:00003508       ??_C@_0EB@OIAKHFFI@?$GA?5a?5?4?5?4?5?4?5?4?5m?57?4i?4i?4i?4i?4i?4?$HL?5?4?5?4?5@ 00429508     slinkclient.obj
 0002:00003550       ??_C@_0EB@KAPIEPCC@?$GA?5i?5?4?5?4?5?4?5?4?5?4?5?4?55?5?9?4u?4i?4i?4i?4m?5?4?5@ 00429550     slinkclient.obj
 0002:00003598       ??_C@_0EB@JHGKMFKM@?$FO?5i?5?4?5?4?5?4?5?4?5?4?5?4?5?4?5?4?5?$DN?56?4i?4i?4?9?4?4?5@ 00429598     slinkclient.obj
 0002:000035e0       ??_C@_0EB@BLGKOICB@?$FO?5i?5?4?5?4?5?4?5?4?5?4?5?4?5?4?5?4?5?4?5B?5i?4i?4?$DO?4?4?5@ 004295e0     slinkclient.obj
 0002:00003628       ??_C@_0EB@PJJLCEP@?$FO?5i?5?4?5?4?53?55?5?4?5?4?5?4?5?4?5X?5?9?4i?4i?4?$HL?5?4?5@ 00429628     slinkclient.obj
 0002:00003670       ??_C@_0EB@IJJFJPLN@?$HO?5y?5?4?5?4?5J?5i?4u?43?4?$DO?4?0?4r?4i?4i?4y?4?$DM?5?4?5@ 00429670     slinkclient.obj
 0002:000036b8       ??_C@_0EB@DDDMEHOE@E?5a?5?4?5?4?5J?5i?4i?4i?4i?4i?4i?4i?4r?4M?5?$EA?5?$CG?5@ 004296b8     slinkclient.obj
 0002:00003700       ??_C@_0EB@HOEOHHJL@E?5i?5?4?5?4?5?$CK?5A?5?$CG?4?$DO?4?$DM?4?0?4?$CF?4H?5?$CK?5o?5?$CK?5?$CK?5@ 00429700     slinkclient.obj
 0002:00003748       ??_C@_0EB@FJEKBNCP@R?5i?5?4?5?4?5?4?5?4?5?4?5X?5X?5o?5?$CG?5?$CK?5?$CK?5?$DM?52?52?5@ 00429748     slinkclient.obj
 0002:00003790       ??_C@_0EB@PJGEILOP@R?5i?5?4?5?4?5?4?5X?5o?5o?5o?5?$DM?5?$DM?5?$DM?52?54?56?57?5@ 00429790     slinkclient.obj
 0002:000037d8       ??_C@_0EB@JIPKLNED@T?5i?5X?5X?5o?5o?5?$CK?5?$DM?5?$DM?52?52?5b?5?$FL?5?4?4D?5B?5@ 004297d8     slinkclient.obj
 0002:00003820       ??_C@_0EB@ODLFPAKL@U?5i?5o?5o?5?$CK?5?$DM?5?$DM?52?54?54?56?5N?51?44?4?8?5S?5@ 00429820     slinkclient.obj
 0002:00003868       ??_C@_0EB@PIKKNHHM@I?5d?5?8?5?$FL?5?$FL?5?$FL?5?$FL?5?$FL?5?4?4?4?4X?4o?44?44?4O?4O?4@ 00429868     slinkclient.obj
 0002:000038b0       ??_C@_0EB@MLMCIINI@I?5d?5X?41?41?42?42?42?42?42?44?44?45?45?4q?4q?4@ 004298b0     slinkclient.obj
 0002:000038f8       ??_C@_0EB@NENOECOD@I?5d?5?$FN?5X?4o?4o?4o?4?$CL?4?$CL?4?$CL?4?$CL?41?41?41?41?42?4@ 004298f8     slinkclient.obj
 0002:00003940       ??_C@_0EB@LHBCMONO@l?5p?5d?5f?5f?5d?5f?5f?5d?5f?5f?5f?5f?5f?5f?5f?5@ 00429940     slinkclient.obj
 0002:00003988       ??_C@_0EB@NHDHEKDB@V?5q?5q?5q?59?59?59?58?58?5?0?58?5?$DN?5?9?5?9?5?9?5$?5@ 00429988     slinkclient.obj
 0002:000039d4       ??_SQWidget@@6BQObject@@@  004299d4     slinkclient.obj
 0002:00003a8c       ??_SQWidget@@6BQPaintDevice@@@ 00429a8c     slinkclient.obj
 0002:00003aac       ??_SQAction@@6B@           00429aac     slinkclient.obj
 0002:00003adc       ??_SQGroupBox@@6BQObject@@@ 00429adc     slinkclient.obj
 0002:00003b94       ??_SQGroupBox@@6BQPaintDevice@@@ 00429b94     slinkclient.obj
 0002:00003bb4       ??_SQSpacerItem@@6B@       00429bb4     slinkclient.obj
 0002:00003bfc       ??_SQHBoxLayout@@6BQObject@@@ 00429bfc     slinkclient.obj
 0002:00003c44       ??_SQHBoxLayout@@6BQLayoutItem@@@ 00429c44     slinkclient.obj
 0002:00003c8c       ??_SQVBoxLayout@@6BQObject@@@ 00429c8c     slinkclient.obj
 0002:00003cd4       ??_SQVBoxLayout@@6BQLayoutItem@@@ 00429cd4     slinkclient.obj
 0002:00003d1c       ??_SQLabel@@6BQObject@@@   00429d1c     slinkclient.obj
 0002:00003dd4       ??_SQLabel@@6BQPaintDevice@@@ 00429dd4     slinkclient.obj
 0002:00003df4       ??_SQListWidget@@6BQObject@@@ 00429df4     slinkclient.obj
 0002:00003f64       ??_SQListWidget@@6BQPaintDevice@@@ 00429f64     slinkclient.obj
 0002:00003f84       ??_SQMenu@@6BQObject@@@    00429f84     slinkclient.obj
 0002:0000403c       ??_SQMenu@@6BQPaintDevice@@@ 0042a03c     slinkclient.obj
 0002:0000405c       ??_SQMenuBar@@6BQObject@@@ 0042a05c     slinkclient.obj
 0002:00004114       ??_SQMenuBar@@6BQPaintDevice@@@ 0042a114     slinkclient.obj
 0002:00004134       ??_SQPushButton@@6BQObject@@@ 0042a134     slinkclient.obj
 0002:000041f8       ??_SQPushButton@@6BQPaintDevice@@@ 0042a1f8     slinkclient.obj
 0002:0000421c       ??_SQSplitter@@6BQObject@@@ 0042a21c     slinkclient.obj
 0002:000042d8       ??_SQSplitter@@6BQPaintDevice@@@ 0042a2d8     slinkclient.obj
 0002:000042fc       ??_SQStatusBar@@6BQObject@@@ 0042a2fc     slinkclient.obj
 0002:000043b4       ??_SQStatusBar@@6BQPaintDevice@@@ 0042a3b4     slinkclient.obj
 0002:000043d4       ??_SQTextEdit@@6BQObject@@@ 0042a3d4     slinkclient.obj
 0002:000044b0       ??_SQTextEdit@@6BQPaintDevice@@@ 0042a4b0     slinkclient.obj
 0002:000044d4       ??_SQToolBar@@6BQObject@@@ 0042a4d4     slinkclient.obj
 0002:0000458c       ??_SQToolBar@@6BQPaintDevice@@@ 0042a58c     slinkclient.obj
 0002:000045a8       ??_C@_08LPOBGBL@1close?$CI?$CJ?$AA@ 0042a5a8     slinkclient.obj
 0002:000045b4       ??_C@_0N@NBJIAFIH@2triggered?$CI?$CJ?$AA@ 0042a5b4     slinkclient.obj
 0002:000045c4       ??_C@_0M@CCPHEPBK@slinkClient?$AA@ 0042a5c4     slinkclient.obj
 0002:000045d0       ??_C@_0BB@PKCPGKOJ@slinkClientClass?$AA@ 0042a5d0     slinkclient.obj
 0002:000045e4       ??_C@_05PNPHNLAJ@E?$CGxit?$AA@ 0042a5e4     slinkclient.obj
 0002:000045ec       ??_C@_06ELIFPNNI@Alt?$CLF4?$AA@ 0042a5ec     slinkclient.obj
 0002:000045f4       ??_C@_06JDCECANP@?$CGAbout?$AA@ 0042a5f4     slinkclient.obj
 0002:000045fc       ??_C@_09CGBJIDBA@?$CGContents?$AA@ 0042a5fc     slinkclient.obj
 0002:00004608       ??_C@_02LCPENACN@F1?$AA@   0042a608     slinkclient.obj
 0002:0000460c       ??_C@_05LHMKEDEH@?$CGEdit?$AA@ 0042a60c     slinkclient.obj
 0002:00004614       ??_C@_0BA@POFFPAGB@?$CGReset?5Counters?$AA@ 0042a614     slinkclient.obj
 0002:00004624       ??_C@_0N@IPIPGBBM@?$CGClear?5Debug?$AA@ 0042a624     slinkclient.obj
 0002:00004634       ??_C@_02MPIDCEGI@F4?$AA@   0042a634     slinkclient.obj
 0002:00004638       ??_C@_04IDGPBBML@BNCS?$AA@ 0042a638     slinkclient.obj
 0002:00004640       ??_C@_03OFJPFPIH@Tx?3?$AA@ 0042a640     slinkclient.obj
 0002:00004644       ??_C@_03MAPEAAFL@Rx?3?$AA@ 0042a644     slinkclient.obj
 0002:00004648       ??_C@_0M@HFCBONMG@Session?1TCP?$AA@ 0042a648     slinkclient.obj
 0002:00004654       ??_C@_0L@OFHALJGB@Redundancy?$AA@ 0042a654     slinkclient.obj
 0002:00004660       ??_C@_08DFJBLNKM@Force?5Tx?$AA@ 0042a660     slinkclient.obj
 0002:0000466c       ??_C@_0O@KPHNPFMP@Set?5to?5RxOnly?$AA@ 0042a66c     slinkclient.obj
 0002:0000467c       ??_C@_0O@PIILMNHI@Configuration?$AA@ 0042a67c     slinkclient.obj
 0002:0000468c       ??_C@_09FOMJMPKL@Preferred?$AA@ 0042a68c     slinkclient.obj
 0002:00004698       ??_C@_0L@PJJKMLL@Connection?$AA@ 0042a698     slinkclient.obj
 0002:000046a4       ??_C@_04OHJIHAFH@None?$AA@ 0042a6a4     slinkclient.obj
 0002:000046ac       ??_C@_0N@LLKGOOKH@BNCS?5Drivers?$AA@ 0042a6ac     slinkclient.obj
 0002:000046bc       ??_C@_01MIFGBAGJ@?$CL?$AA@ 0042a6bc     slinkclient.obj
 0002:000046c0       ??_C@_01JOAMLHOP@?9?$AA@   0042a6c0     slinkclient.obj
 0002:000046c4       ??_C@_05GCIPIGEI@Debug?$AA@ 0042a6c4     slinkclient.obj
 0002:000046cc       ??_C@_05FHBCAALB@?$CGFile?$AA@ 0042a6cc     slinkclient.obj
 0002:000046d4       ??_C@_05JFEBOHHM@?$CGHelp?$AA@ 0042a6d4     slinkclient.obj
 0002:000046dc       ??_C@_07HMHAPFBA@?$CGConfig?$AA@ 0042a6dc     slinkclient.obj
 0002:000046e4       ??_C@_07NNPOAILI@?$CGWindow?$AA@ 0042a6e4     slinkclient.obj
 0002:00005168       ??_7IfabianClient_callback@@6B@ 0042b168     slinkclient.obj
 0002:00005188       ??_7IccClientCallback@@6B@ 0042b188     slinkclient.obj
 0002:000051b8       ??_7IccDriverCallback@@6B@ 0042b1b8     slinkclient.obj
 0002:000051d4       ??_7slinkClient@@6BQObject@@@ 0042b1d4     slinkclient.obj
 0002:00005290       ??_7slinkClient@@6BQPaintDevice@@@ 0042b290     slinkclient.obj
 0002:000052b0       ??_7slinkClient@@6BIccClientCallback@@@ 0042b2b0     slinkclient.obj
 0002:000052e0       ??_7slinkClient@@6BIccDriverCallback@@@ 0042b2e0     slinkclient.obj
 0002:000052fc       ??_7slinkClient@@6BIfabianClient_callback@@@ 0042b2fc     slinkclient.obj
 0002:0000531c       ??_SQLineEdit@@6BQObject@@@ 0042b31c     slinkclient.obj
 0002:000053d4       ??_SQLineEdit@@6BQPaintDevice@@@ 0042b3d4     slinkclient.obj
 0002:000053f4       ??_SQCheckBox@@6BQObject@@@ 0042b3f4     slinkclient.obj
 0002:000054b8       ??_SQCheckBox@@6BQPaintDevice@@@ 0042b4b8     slinkclient.obj
 0002:000054dc       ??_SQDialogButtonBox@@6BQObject@@@ 0042b4dc     slinkclient.obj
 0002:00005594       ??_SQDialogButtonBox@@6BQPaintDevice@@@ 0042b594     slinkclient.obj
 0002:000055b4       ??_SQFormLayout@@6BQObject@@@ 0042b5b4     slinkclient.obj
 0002:000055fc       ??_SQFormLayout@@6BQLayoutItem@@@ 0042b5fc     slinkclient.obj
 0002:0000563c       ??_C@_09DMINLBG@1accept?$CI?$CJ?$AA@ 0042b63c     slinkclient.obj
 0002:00005648       ??_C@_0M@MBACPLBI@2accepted?$CI?$CJ?$AA@ 0042b648     slinkclient.obj
 0002:00005654       ??_C@_09OCDCAEKE@1reject?$CI?$CJ?$AA@ 0042b654     slinkclient.obj
 0002:00005660       ??_C@_0M@BJNBJJN@2rejected?$CI?$CJ?$AA@ 0042b660     slinkclient.obj
 0002:0000566c       ??_C@_0BN@CHDEICO@slink?5Client?5?9?5Configuration?$AA@ 0042b66c     slinkclient.obj
 0002:0000568c       ??_C@_0L@NMFKNPDJ@configEdit?$AA@ 0042b68c     slinkclient.obj
 0002:00005698       ??_C@_0BE@GLOOMDGF@slink?1FABIAN?5Server?$AA@ 0042b698     slinkclient.obj
 0002:000056ac       ??_C@_07EODJIPPN@Address?$AA@ 0042b6ac     slinkclient.obj
 0002:000056b4       ??_C@_04HOKNCALA@Port?$AA@ 0042b6b4     slinkclient.obj
 0002:000056bc       ??_C@_0M@BEFHBFEI@Alt?4Address?$AA@ 0042b6bc     slinkclient.obj
 0002:000056c8       ??_C@_09CABOHJGI@Alt?4?5Port?$AA@ 0042b6c8     slinkclient.obj
 0002:000056d4       ??_C@_0BB@CGFILACK@SSL?5?$CIslink?5only?$CJ?$AA@ 0042b6d4     slinkclient.obj
 0002:000056e8       ??_C@_0M@PPOHBHNP@SOCKS?5Proxy?$AA@ 0042b6e8     slinkclient.obj
 0002:000056f4       ??_C@_0P@BECADLBM@Proxy?5Username?$AA@ 0042b6f4     slinkclient.obj
 0002:00005704       ??_C@_0P@CMDFGFJI@Proxy?5Password?$AA@ 0042b704     slinkclient.obj
 0002:00005714       ??_C@_0BC@ENEOJAOF@slink?1FABIAN?5User?$AA@ 0042b714     slinkclient.obj
 0002:00005728       ??_C@_04ODLBFFJE@User?$AA@ 0042b728     slinkclient.obj
 0002:00005730       ??_C@_0BB@GGCBLED@Control?5Password?$AA@ 0042b730     slinkclient.obj
 0002:00005744       ??_C@_06PGDKHFME@Status?$AA@ 0042b744     slinkclient.obj
 0002:0000574c       ??_C@_0BK@HICLIPI@Infodriver?5Device?5Number?3?$AA@ 0042b74c     slinkclient.obj
 0002:00005768       ??_C@_0BI@GJJJDMLM@Generate?5Spontaneous?5NS?$AA@ 0042b768     slinkclient.obj
 0002:00005e74       ??_C@_08HOABKPGB@1about?$CI?$CJ?$AA@ 0042be74     slinkclient.obj
 0002:00005e80       ??_C@_09PJDIALKE@1doHelp?$CI?$CJ?$AA@ 0042be80     slinkclient.obj
 0002:00005e8c       ??_C@_0BD@NKIEJJND@1doResetCounters?$CI?$CJ?$AA@ 0042be8c     slinkclient.obj
 0002:00005ea0       ??_C@_0BA@GGGNDALO@1doClearDebug?$CI?$CJ?$AA@ 0042bea0     slinkclient.obj
 0002:00005eb0       ??_C@_0L@DPKNNHDK@1forceTx?$CI?$CJ?$AA@ 0042beb0     slinkclient.obj
 0002:00005ebc       ??_C@_0L@JDNBNJNJ@2pressed?$CI?$CJ?$AA@ 0042bebc     slinkclient.obj
 0002:00005ec8       ??_C@_0N@DMNALEMN@1setRxOnly?$CI?$CJ?$AA@ 0042bec8     slinkclient.obj
 0002:00005ed8       ??_C@_0BB@GEACJBN@1slotAddDriver?$CI?$CJ?$AA@ 0042bed8     slinkclient.obj
 0002:00005eec       ??_C@_0BE@KBGODIDF@1slotRemoveDriver?$CI?$CJ?$AA@ 0042beec     slinkclient.obj
 0002:00005f00       ??_C@_0BA@HHDKJPBJ@1doConfigEdit?$CI?$CJ?$AA@ 0042bf00     slinkclient.obj
 0002:00005f10       ??_C@_01KMDKNFGN@?1?$AA@   0042bf10     slinkclient.obj
 0002:00005f18       ??_C@_0EI@KPCLIDAH@More?5than?5one?5profile?5name?5suppl@ 0042bf18     slinkclient.obj
 0002:00005f60       ??_C@_08KBMOFGDI@?1nocache?$AA@ 0042bf60     slinkclient.obj
 0002:00005f6c       ??_C@_0BB@OLCPJMEE@?1nopollonconnect?$AA@ 0042bf6c     slinkclient.obj
 0002:00005f80       ??_C@_0L@LDMOFIPL@?1statusid?$DN?$AA@ 0042bf80     slinkclient.obj
 0002:00005f8c       ??_C@_0CB@OIDDLFKH@slinkClient?3?5Application?5Startup@ 0042bf8c     slinkclient.obj
 0002:00005fb0       ??_C@_0BM@GHBECBMP@?$CF1?5?9?5slinkClient?5Version?5?$CF2?$AA@ 0042bfb0     slinkclient.obj
 0002:00005fcc       ??_C@_0L@DBMOFBHA@AltAddress?$AA@ 0042bfcc     slinkclient.obj
 0002:00005fd8       ??_C@_07OEDPKDPB@AltPort?$AA@ 0042bfd8     slinkclient.obj
 0002:00005fe0       ??_C@_03DFDFBAEP@SSL?$AA@  0042bfe0     slinkclient.obj
 0002:00005fe4       ??_C@_0N@ODPGEOHO@SocksAddress?$AA@ 0042bfe4     slinkclient.obj
 0002:00005ff4       ??_C@_09NAJPAMMN@SocksPort?$AA@ 0042bff4     slinkclient.obj
 0002:00006000       ??_C@_09ENIDHJOJ@SocksUser?$AA@ 0042c000     slinkclient.obj
 0002:0000600c       ??_C@_0O@CNJMGLJH@SocksPassword?$AA@ 0042c00c     slinkclient.obj
 0002:0000601c       ??_C@_0BB@CMCKANHI@StatusInfodriver?$AA@ 0042c01c     slinkclient.obj
 0002:00006030       ??_C@_0BC@PLKBOPNC@SendSpontaneousNS?$AA@ 0042c030     slinkclient.obj
 0002:00006044       ??_C@_0BK@HKNGMKBH@Using?5local?5cache?5of?5data?$AA@ 0042c044     slinkclient.obj
 0002:00006060       ??_C@_0BO@PFFECBDE@Not?5using?5local?5cache?5of?5data?$AA@ 0042c060     slinkclient.obj
 0002:00006080       ??_C@_0CD@COFLEGHI@Polling?5devices?5on?5connection?5ma@ 0042c080     slinkclient.obj
 0002:000060a4       ??_C@_0CH@LLPCJMPP@Not?5polling?5devices?5on?5connectio@ 0042c0a4     slinkclient.obj
 0002:000060cc       ??_C@_09BCJLHPMN@device_?$CF1?$AA@ 0042c0cc     slinkclient.obj
 0002:000060d8       ??_C@_08LJGJBJHI@ccClient?$AA@ 0042c0d8     slinkclient.obj
 0002:000060e4       ??_C@_0CC@GLIKMNAE@slinkClient?5application?5closedow@ 0042c0e4     slinkclient.obj
 0002:00006108       ??_C@_02MFEOMNPG@IP?$AA@   0042c108     slinkclient.obj
 0002:0000610c       ??_C@_02NFDNIBGH@RP?$AA@   0042c10c     slinkclient.obj
 0002:00006110       ??_C@_02MPNAOAPM@GP?$AA@   0042c110     slinkclient.obj
 0002:00006114       ??_C@_0O@NDGEAHLA@IR?5?$CF1?5?$CF2?5?8?$CF3?8?$AA@ 0042c114     slinkclient.obj
 0002:00006124       ??_C@_0M@JDAGAGMD@RR?5?$CF1?5?$CF2?5?$CF3?$AA@ 0042c124     slinkclient.obj
 0002:00006130       ??_C@_0M@HLNJMCP@GR?5?$CF1?5?$CF2?5?$CF3?$AA@ 0042c130     slinkclient.obj
 0002:0000613c       ??_C@_01HIHLOKLC@1?$AA@    0042c13c     slinkclient.obj
 0002:00006140       ??_C@_0BC@FPJCNJIJ@Can?8t?5do?5this?3?5?$CF1?$AA@ 0042c140     slinkclient.obj
 0002:00006154       ??_C@_06FIMGHAPF@not?5tx?$AA@ 0042c154     slinkclient.obj
 0002:0000615c       ??_C@_02IKAPFLDB@IW?$AA@   0042c15c     slinkclient.obj
 0002:00006160       ??_C@_02CDDJJAKL@IL?$AA@   0042c160     slinkclient.obj
 0002:00006164       ??_C@_02DDEKNMDK@RL?$AA@   0042c164     slinkclient.obj
 0002:00006168       ??_C@_02CJKHLNKB@GL?$AA@   0042c168     slinkclient.obj
 0002:0000616c       ??_C@_02LENCMAPF@RC?$AA@   0042c16c     slinkclient.obj
 0002:00006170       ??_C@_02OEPNLDDP@GS?$AA@   0042c170     slinkclient.obj
 0002:00006174       ??_C@_02CKFBONHL@RM?$AA@   0042c174     slinkclient.obj
 0002:00006178       ??_C@_05NHJDPCAK@key?3?5?$AA@ 0042c178     slinkclient.obj
 0002:00006180       ??_C@_07CDKHBMJL@value?3?5?$AA@ 0042c180     slinkclient.obj
 0002:00006188       ??_C@_04NCBLOALK@TxRx?$AA@ 0042c188     slinkclient.obj
 0002:00006190       ??_C@_0DJ@JPAILGPJ@QLabel?5?$HL?5background?9color?5?3?5dark@ 0042c190     slinkclient.obj
 0002:000061cc       ??_C@_0BG@FAOJKIJF@BNCS?5devices?5are?5TxRx?$AA@ 0042c1cc     slinkclient.obj
 0002:000061e4       ??_C@_06IPMCOIOA@RxOnly?$AA@ 0042c1e4     slinkclient.obj
 0002:000061ec       ??_C@_0DH@MFMOJOKP@QLabel?5?$HL?5background?9color?5?3?5dark@ 0042c1ec     slinkclient.obj
 0002:00006224       ??_C@_0BI@OFNJJLNN@BNCS?5devices?5are?5RxOnly?$AA@ 0042c224     slinkclient.obj
 0002:0000623c       ??_C@_01FAMBOPH@4?$AA@     0042c23c     slinkclient.obj
 0002:00006240       ??_C@_06FOOKPODL@fabian?$AA@ 0042c240     slinkclient.obj
 0002:00006248       ??_C@_01EKENIIDA@3?$AA@    0042c248     slinkclient.obj
 0002:0000624c       ??_C@_02PIGFKFFE@?$CF1?$AA@ 0042c24c     slinkclient.obj
 0002:00006250       ??_C@_0BA@JNKKJIGM@IR?5?$CF1?5?$CF2?5?8?$CF3?8?50?$AA@ 0042c250     slinkclient.obj
 0002:00006260       ??_C@_0O@OOLPMCKN@RR?5?$CF1?5?$CF2?5?$CF3?50?$AA@ 0042c260     slinkclient.obj
 0002:00006270       ??_C@_0O@MKOJAKM@GR?5?$CF1?5?$CF2?5?$CF3?50?$AA@ 0042c270     slinkclient.obj
 0002:00006280       ??_C@_08HCLLLECE@?$CF1?3?$CF2?5?$CF3?$AA@ 0042c280     slinkclient.obj
 0002:0000628c       ??_C@_03ONJMBPEK@OK?$CB?$AA@ 0042c28c     slinkclient.obj
 0002:00006290       ??_C@_06CMLPEGNC@Failed?$AA@ 0042c290     slinkclient.obj
 0002:00006298       ??_C@_0DC@PHECECHF@QLabel?5?$HL?5background?9color?5?3?5red?$DL@ 0042c298     slinkclient.obj
 0002:000062d0       ??_C@_0KH@FABANJJA@My?5device?5?$CF1?5has?5no?5DatabaseSize@ 0042c2d0     slinkclient.obj
 0002:00006378       ??_C@_0IA@PPGMAABF@Local?5device?5profile?5?$CInumber?5of?5@ 0042c378     slinkclient.obj
 0002:000063f8       ??_C@_0CI@KLGHEOLJ@Unknown?5device?5type?5for?5local?5de@ 0042c3f8     slinkclient.obj
 0002:00006420       ??_C@_0BO@PEBJAKB@Add?5driver?9?5?$CF1?5already?5exists?$AA@ 0042c420     slinkclient.obj
 0002:00006440       ??_C@_0CC@DFGKEAFF@slinkClient?3?3addDriver?9?5no?5devic@ 0042c440     slinkclient.obj
 0002:00006464       ??_C@_08FNLBPEAL@ccDriver?$AA@ 0042c464     slinkclient.obj
 0002:00006470       ??_C@_07CIFAGBMG@unknown?$AA@ 0042c470     slinkclient.obj
 0002:00006478       ??_C@_03CDFFDALI@GRD?$AA@  0042c478     slinkclient.obj
 0002:0000647c       ??_C@_03JFHPJKJL@GPI?$AA@  0042c47c     slinkclient.obj
 0002:00006480       ??_C@_04BEADLPGM@INFO?$AA@ 0042c480     slinkclient.obj
 0002:00006488       ??_C@_0DI@BKJLENPJ@Can?8t?5connect?5driver?5?$CF1?5?$CIlikely?5@ 0042c488     slinkclient.obj
 0002:000064c0       ??_C@_0CL@PCNNLCIF@Adding?5local?5driver?5?$CF1?0?5remote?5?$CF@ 0042c4c0     slinkclient.obj
 0002:000064ec       ??_C@_0BM@NIHKJIPO@Adding?5local?5driver?5?$CF1?5?9?5?$CF2?$AA@ 0042c4ec     slinkclient.obj
 0002:00006508       ??_C@_0BH@CJFHAPL@?$CF1?5?9?5?$CF2?5?$CIremote?$CJ?5?$CF3?5?$CF4?$AA@ 0042c508     slinkclient.obj
 0002:00006520       ??_C@_03PJHKNEOK@?$CF1?5?$AA@ 0042c520     slinkclient.obj
 0002:00006524       ??_C@_0BD@DHCBOCMF@Removing?5driver?5?$CF1?$AA@ 0042c524     slinkclient.obj
 0002:00006538       ??_C@_0CN@FFCOKLIF@Secure?5Link?5Client?5?$CIslink?$CJ?6?6By?5D@ 0042c538     slinkclient.obj
 0002:00006568       ??_C@_0BF@CBJEENDE@About?5slinkClient?4?4?4?$AA@ 0042c568     slinkclient.obj
 0002:00006580       ??_C@_04PICIEOBI@?4chm?$AA@ 0042c580     slinkclient.obj
 0002:00006588       ??_C@_04JLMDILM@?4exe?$AA@ 0042c588     slinkclient.obj
 0002:00006590       ??_C@_0HJ@FFCNJPCP@Can?8t?5open?5help?5file?6?6This?5needs@ 0042c590     slinkclient.obj
 0002:0000660c       ??_C@_05JIPHKDEJ@Ooops?$AA@ 0042c60c     slinkclient.obj
 0002:00006618       ??_C@_0BBB@EEGMMOEI@Enter?5BNCS?5device?5number?6?6?7?$DMloca@ 0042c618     slinkclient.obj
 0002:0000672c       ??_C@_0BG@OJJMGGHN@Quick?9add?5BNCS?5driver?$AA@ 0042c72c     slinkclient.obj
 0002:00006748       ??_C@_0GA@IEIEHBDG@No?5database?5exists?5for?5this?5devi@ 0042c748     slinkclient.obj
 0002:000067a8       ??_C@_0BF@KGJMGCH@Enter?5database?5size?3?$AA@ 0042c7a8     slinkclient.obj
 0002:000067c0       ??_C@_03OHDNLOHO@one?$AA@  0042c7c0     slinkclient.obj
 0002:000067c8       ??_C@_0HN@PDLEAPMG@Sorry?0?5can?8t?5delete?5the?5first?5de@ 0042c7c8     slinkclient.obj
 0002:00006848       ??_C@_0BJ@PBIIOJAO@slinkClient?5says?5sorry?4?4?$AA@ 0042c848     slinkclient.obj
 0002:00006864       ??_C@_0CO@KPDMKPCL@Do?5you?5really?5want?5to?5remove?5thi@ 0042c864     slinkclient.obj
 0002:00006894       ??_C@_07LJDEMAIE@Really?$DP?$AA@ 0042c894     slinkclient.obj
 0002:0000689c       ??_C@_08DMGDKCGI@?$CF1?0?$CF2?0?$CF3?$AA@ 0042c89c     slinkclient.obj
 0002:000068a8       ??_C@_05KFBEKKFC@?$CF1?0?$CF3?$AA@ 0042c8a8     slinkclient.obj
 0002:000068b0       ??_C@_08FDOGEKDG@device_1?$AA@ 0042c8b0     slinkclient.obj
 0002:000068bc       ??_C@_06NNBMGAFO@?5?$CISSL?$CJ?$AA@ 0042c8bc     slinkclient.obj
 0002:000068c4       ??_C@_07BJFALHOM@?$CF1?3?$CF2?$CF3?$AA@ 0042c8c4     slinkclient.obj
 0002:000068cc       ??_C@_0P@OOKECMCI@Not?5Configured?$AA@ 0042c8cc     slinkclient.obj
 0002:000068dc       ??_C@_0N@POGBPMCL@client?5close?$AA@ 0042c8dc     slinkclient.obj
 0002:000068ec       ??_C@_0N@OIJHNEHK@ccInfodriver?$AA@ 0042c8ec     slinkclient.obj
 0002:000068fc       ??_C@_0CG@GFLLCINO@Can?8t?5connect?5to?5status?5infodriv@ 0042c8fc     slinkclient.obj
 0002:00006924       ??_C@_04JPOCPNKD@peer?$AA@ 0042c924     slinkclient.obj
 0002:0000692c       ??_C@_07LHEPONKL@address?$AA@ 0042c92c     slinkclient.obj
 0002:00006934       ??_C@_04LPGMAPLE@port?$AA@ 0042c934     slinkclient.obj
 0002:0000693c       ??_C@_03FHLPDODD@alt?$AA@  0042c93c     slinkclient.obj
 0002:00006940       __xmm@00000014000002570000000000000000 0042c940     slinkclient.obj
 0002:0000699c       ??_C@_00A@?$AA@            0042c99c     htmlhelp:init.obj
 0002:000069a0       ??_C@_05CLMJGDKL@?$CF08lx?$AA@ 0042c9a0     bncswm32:BncsWM32.obj
 0002:000069ac       ??_7type_info@@6B@         0042c9ac     MSVCRT:ti_inst.obj
 0002:000069b8       __load_config_used         0042c9b8     MSVCRT:loadcfg.obj
 0002:00006a00       ??_R4cBncsVersion@@6B@     0042ca00     cBncsVersion.obj
 0002:00006a14       ??_R3cBncsVersion@@8       0042ca14     cBncsVersion.obj
 0002:00006a24       ??_R2cBncsVersion@@8       0042ca24     cBncsVersion.obj
 0002:00006a2c       ??_R1A@?0A@EA@cBncsVersion@@8 0042ca2c     cBncsVersion.obj
 0002:00006a48       ??_R4bncs_disklog@@6B@     0042ca48     bncs_disklog.obj
 0002:00006a5c       ??_R3bncs_disklog@@8       0042ca5c     bncs_disklog.obj
 0002:00006a6c       ??_R2bncs_disklog@@8       0042ca6c     bncs_disklog.obj
 0002:00006a74       ??_R1A@?0A@EA@bncs_disklog@@8 0042ca74     bncs_disklog.obj
 0002:00006a90       ??_R4error_category@std@@6B@ 0042ca90     ccCheck.obj
 0002:00006aa4       ??_R3error_category@std@@8 0042caa4     ccCheck.obj
 0002:00006ab4       ??_R2error_category@std@@8 0042cab4     ccCheck.obj
 0002:00006abc       ??_R1A@?0A@EA@error_category@std@@8 0042cabc     ccCheck.obj
 0002:00006ad8       ??_R4_Generic_error_category@std@@6B@ 0042cad8     ccCheck.obj
 0002:00006aec       ??_R3_Generic_error_category@std@@8 0042caec     ccCheck.obj
 0002:00006afc       ??_R2_Generic_error_category@std@@8 0042cafc     ccCheck.obj
 0002:00006b08       ??_R1A@?0A@EA@_Generic_error_category@std@@8 0042cb08     ccCheck.obj
 0002:00006b24       ??_R4_Iostream_error_category@std@@6B@ 0042cb24     ccCheck.obj
 0002:00006b38       ??_R3_Iostream_error_category@std@@8 0042cb38     ccCheck.obj
 0002:00006b48       ??_R2_Iostream_error_category@std@@8 0042cb48     ccCheck.obj
 0002:00006b58       ??_R1A@?0A@EA@_Iostream_error_category@std@@8 0042cb58     ccCheck.obj
 0002:00006b74       ??_R4_System_error_category@std@@6B@ 0042cb74     ccCheck.obj
 0002:00006b88       ??_R3_System_error_category@std@@8 0042cb88     ccCheck.obj
 0002:00006b98       ??_R2_System_error_category@std@@8 0042cb98     ccCheck.obj
 0002:00006ba8       ??_R1A@?0A@EA@_System_error_category@std@@8 0042cba8     ccCheck.obj
 0002:00006bc4       ??_R4ccCheck@@6B@          0042cbc4     ccCheck.obj
 0002:00006bd8       ??_R3ccCheck@@8            0042cbd8     ccCheck.obj
 0002:00006be8       ??_R2ccCheck@@8            0042cbe8     ccCheck.obj
 0002:00006bf0       ??_R1A@?0A@EA@ccCheck@@8   0042cbf0     ccCheck.obj
 0002:00006c0c       ??_R4ccClient@@6B@         0042cc0c     ccClient.obj
 0002:00006c20       ??_R3ccClient@@8           0042cc20     ccClient.obj
 0002:00006c30       ??_R2ccClient@@8           0042cc30     ccClient.obj
 0002:00006c3c       ??_R1A@?0A@EA@ccClient@@8  0042cc3c     ccClient.obj
 0002:00006c58       ??_R4ccConfig@@6B@         0042cc58     ccConfig.obj
 0002:00006c6c       ??_R3ccConfig@@8           0042cc6c     ccConfig.obj
 0002:00006c7c       ??_R2ccConfig@@8           0042cc7c     ccConfig.obj
 0002:00006c84       ??_R1A@?0A@EA@ccConfig@@8  0042cc84     ccConfig.obj
 0002:00006ca0       ??_R4ccDriver@@6B@         0042cca0     ccDriver.obj
 0002:00006cb4       ??_R3ccDriver@@8           0042ccb4     ccDriver.obj
 0002:00006cc4       ??_R2ccDriver@@8           0042ccc4     ccDriver.obj
 0002:00006cd0       ??_R1A@?0A@EA@ccDriver@@8  0042ccd0     ccDriver.obj
 0002:00006cec       ??_R4ccInfodriver@@6B@     0042ccec     ccInfodriver.obj
 0002:00006d00       ??_R3ccInfodriver@@8       0042cd00     ccInfodriver.obj
 0002:00006d10       ??_R2ccInfodriver@@8       0042cd10     ccInfodriver.obj
 0002:00006d1c       ??_R1A@?0A@EA@ccInfodriver@@8 0042cd1c     ccInfodriver.obj
 0002:00006d38       ??_R4database@@6B@         0042cd38     database.obj
 0002:00006d4c       ??_R3database@@8           0042cd4c     database.obj
 0002:00006d5c       ??_R2database@@8           0042cd5c     database.obj
 0002:00006d64       ??_R1A@?0A@EA@database@@8  0042cd64     database.obj
 0002:00006d80       ??_R4databaseMgr@@6B@      0042cd80     databaseMgr.obj
 0002:00006d94       ??_R3databaseMgr@@8        0042cd94     databaseMgr.obj
 0002:00006da4       ??_R2databaseMgr@@8        0042cda4     databaseMgr.obj
 0002:00006dac       ??_R1A@?0A@EA@databaseMgr@@8 0042cdac     databaseMgr.obj
 0002:00006dc8       ??_R4decodeBNCSString@@6B@ 0042cdc8     decodeBNCSString.obj
 0002:00006ddc       ??_R3decodeBNCSString@@8   0042cddc     decodeBNCSString.obj
 0002:00006dec       ??_R2decodeBNCSString@@8   0042cdec     decodeBNCSString.obj
 0002:00006df4       ??_R1A@?0A@EA@decodeBNCSString@@8 0042cdf4     decodeBNCSString.obj
 0002:00006e10       ??_R4fabianClient@@6B@     0042ce10     fabianClient.obj
 0002:00006e24       ??_R3fabianClient@@8       0042ce24     fabianClient.obj
 0002:00006e34       ??_R2fabianClient@@8       0042ce34     fabianClient.obj
 0002:00006e40       ??_R1A@?0A@EA@fabianClient@@8 0042ce40     fabianClient.obj
 0002:00006e5c       ??_R1A@?0A@EA@QObject@@8   0042ce5c     fabianClient.obj
 0002:00006e78       ??_R3QObject@@8            0042ce78     fabianClient.obj
 0002:00006e88       ??_R2QObject@@8            0042ce88     fabianClient.obj
 0002:00006e90       ??_R4QSslSocket@@6B@       0042ce90     persistentSocket.obj
 0002:00006ea4       ??_R3QSslSocket@@8         0042cea4     persistentSocket.obj
 0002:00006eb4       ??_R2QSslSocket@@8         0042ceb4     persistentSocket.obj
 0002:00006ecc       ??_R1A@?0A@EA@QSslSocket@@8 0042cecc     persistentSocket.obj
 0002:00006ee8       ??_R1A@?0A@EA@QTcpSocket@@8 0042cee8     persistentSocket.obj
 0002:00006f04       ??_R3QTcpSocket@@8         0042cf04     persistentSocket.obj
 0002:00006f14       ??_R2QTcpSocket@@8         0042cf14     persistentSocket.obj
 0002:00006f28       ??_R1A@?0A@EA@QAbstractSocket@@8 0042cf28     persistentSocket.obj
 0002:00006f44       ??_R3QAbstractSocket@@8    0042cf44     persistentSocket.obj
 0002:00006f54       ??_R2QAbstractSocket@@8    0042cf54     persistentSocket.obj
 0002:00006f64       ??_R1A@?0A@EA@QIODevice@@8 0042cf64     persistentSocket.obj
 0002:00006f80       ??_R3QIODevice@@8          0042cf80     persistentSocket.obj
 0002:00006f90       ??_R2QIODevice@@8          0042cf90     persistentSocket.obj
 0002:00006f9c       ??_R4persistentSocket@@6B@ 0042cf9c     persistentSocket.obj
 0002:00006fb0       ??_R3persistentSocket@@8   0042cfb0     persistentSocket.obj
 0002:00006fc0       ??_R2persistentSocket@@8   0042cfc0     persistentSocket.obj
 0002:00006fcc       ??_R1A@?0A@EA@persistentSocket@@8 0042cfcc     persistentSocket.obj
 0002:00006fe8       ??_R4QWidget@@6BQObject@@@ 0042cfe8     slinkclient.obj
 0002:00006ffc       ??_R3QWidget@@8            0042cffc     slinkclient.obj
 0002:0000700c       ??_R2QWidget@@8            0042d00c     slinkclient.obj
 0002:0000701c       ??_R1A@?0A@EA@QWidget@@8   0042d01c     slinkclient.obj
 0002:00007038       ??_R17?0A@EA@QPaintDevice@@8 0042d038     slinkclient.obj
 0002:00007054       ??_R3QPaintDevice@@8       0042d054     slinkclient.obj
 0002:00007064       ??_R2QPaintDevice@@8       0042d064     slinkclient.obj
 0002:0000706c       ??_R1A@?0A@EA@QPaintDevice@@8 0042d06c     slinkclient.obj
 0002:00007088       ??_R4QWidget@@6BQPaintDevice@@@ 0042d088     slinkclient.obj
 0002:0000709c       ??_R4QAction@@6B@          0042d09c     slinkclient.obj
 0002:000070b0       ??_R3QAction@@8            0042d0b0     slinkclient.obj
 0002:000070c0       ??_R2QAction@@8            0042d0c0     slinkclient.obj
 0002:000070cc       ??_R1A@?0A@EA@QAction@@8   0042d0cc     slinkclient.obj
 0002:000070e8       ??_R4QMenuBar@@6BQObject@@@ 0042d0e8     slinkclient.obj
 0002:000070fc       ??_R3QMenuBar@@8           0042d0fc     slinkclient.obj
 0002:0000710c       ??_R2QMenuBar@@8           0042d10c     slinkclient.obj
 0002:00007120       ??_R1A@?0A@EA@QMenuBar@@8  0042d120     slinkclient.obj
 0002:0000713c       ??_R4QMenuBar@@6BQPaintDevice@@@ 0042d13c     slinkclient.obj
 0002:00007150       ??_R4QStatusBar@@6BQObject@@@ 0042d150     slinkclient.obj
 0002:00007164       ??_R3QStatusBar@@8         0042d164     slinkclient.obj
 0002:00007174       ??_R2QStatusBar@@8         0042d174     slinkclient.obj
 0002:00007188       ??_R1A@?0A@EA@QStatusBar@@8 0042d188     slinkclient.obj
 0002:000071a4       ??_R4QStatusBar@@6BQPaintDevice@@@ 0042d1a4     slinkclient.obj
 0002:000071b8       ??_R4QToolBar@@6BQObject@@@ 0042d1b8     slinkclient.obj
 0002:000071cc       ??_R3QToolBar@@8           0042d1cc     slinkclient.obj
 0002:000071dc       ??_R2QToolBar@@8           0042d1dc     slinkclient.obj
 0002:000071f0       ??_R1A@?0A@EA@QToolBar@@8  0042d1f0     slinkclient.obj
 0002:0000720c       ??_R4QToolBar@@6BQPaintDevice@@@ 0042d20c     slinkclient.obj
 0002:00007220       ??_R4QMenu@@6BQObject@@@   0042d220     slinkclient.obj
 0002:00007234       ??_R3QMenu@@8              0042d234     slinkclient.obj
 0002:00007244       ??_R2QMenu@@8              0042d244     slinkclient.obj
 0002:00007258       ??_R1A@?0A@EA@QMenu@@8     0042d258     slinkclient.obj
 0002:00007274       ??_R4QMenu@@6BQPaintDevice@@@ 0042d274     slinkclient.obj
 0002:00007288       ??_R4QLineEdit@@6BQObject@@@ 0042d288     slinkclient.obj
 0002:0000729c       ??_R3QLineEdit@@8          0042d29c     slinkclient.obj
 0002:000072ac       ??_R2QLineEdit@@8          0042d2ac     slinkclient.obj
 0002:000072c0       ??_R1A@?0A@EA@QLineEdit@@8 0042d2c0     slinkclient.obj
 0002:000072dc       ??_R4QLineEdit@@6BQPaintDevice@@@ 0042d2dc     slinkclient.obj
 0002:000072f0       ??_R4QGroupBox@@6BQObject@@@ 0042d2f0     slinkclient.obj
 0002:00007304       ??_R3QGroupBox@@8          0042d304     slinkclient.obj
 0002:00007314       ??_R2QGroupBox@@8          0042d314     slinkclient.obj
 0002:00007328       ??_R1A@?0A@EA@QGroupBox@@8 0042d328     slinkclient.obj
 0002:00007344       ??_R4QGroupBox@@6BQPaintDevice@@@ 0042d344     slinkclient.obj
 0002:00007358       ??_R4QSpacerItem@@6B@      0042d358     slinkclient.obj
 0002:0000736c       ??_R3QSpacerItem@@8        0042d36c     slinkclient.obj
 0002:0000737c       ??_R2QSpacerItem@@8        0042d37c     slinkclient.obj
 0002:00007388       ??_R1A@?0A@EA@QSpacerItem@@8 0042d388     slinkclient.obj
 0002:000073a4       ??_R1A@?0A@EA@QLayoutItem@@8 0042d3a4     slinkclient.obj
 0002:000073c0       ??_R3QLayoutItem@@8        0042d3c0     slinkclient.obj
 0002:000073d0       ??_R2QLayoutItem@@8        0042d3d0     slinkclient.obj
 0002:000073d8       ??_R4QHBoxLayout@@6BQObject@@@ 0042d3d8     slinkclient.obj
 0002:000073ec       ??_R3QHBoxLayout@@8        0042d3ec     slinkclient.obj
 0002:000073fc       ??_R2QHBoxLayout@@8        0042d3fc     slinkclient.obj
 0002:00007414       ??_R1A@?0A@EA@QHBoxLayout@@8 0042d414     slinkclient.obj
 0002:00007430       ??_R1A@?0A@EA@QBoxLayout@@8 0042d430     slinkclient.obj
 0002:0000744c       ??_R3QBoxLayout@@8         0042d44c     slinkclient.obj
 0002:0000745c       ??_R2QBoxLayout@@8         0042d45c     slinkclient.obj
 0002:00007470       ??_R1A@?0A@EA@QLayout@@8   0042d470     slinkclient.obj
 0002:0000748c       ??_R3QLayout@@8            0042d48c     slinkclient.obj
 0002:0000749c       ??_R2QLayout@@8            0042d49c     slinkclient.obj
 0002:000074ac       ??_R17?0A@EA@QLayoutItem@@8 0042d4ac     slinkclient.obj
 0002:000074c8       ??_R4QHBoxLayout@@6BQLayoutItem@@@ 0042d4c8     slinkclient.obj
 0002:000074dc       ??_R4QVBoxLayout@@6BQObject@@@ 0042d4dc     slinkclient.obj
 0002:000074f0       ??_R3QVBoxLayout@@8        0042d4f0     slinkclient.obj
 0002:00007500       ??_R2QVBoxLayout@@8        0042d500     slinkclient.obj
 0002:00007518       ??_R1A@?0A@EA@QVBoxLayout@@8 0042d518     slinkclient.obj
 0002:00007534       ??_R4QVBoxLayout@@6BQLayoutItem@@@ 0042d534     slinkclient.obj
 0002:00007548       ??_R4QLabel@@6BQObject@@@  0042d548     slinkclient.obj
 0002:0000755c       ??_R3QLabel@@8             0042d55c     slinkclient.obj
 0002:0000756c       ??_R2QLabel@@8             0042d56c     slinkclient.obj
 0002:00007584       ??_R1A@?0A@EA@QLabel@@8    0042d584     slinkclient.obj
 0002:000075a0       ??_R1A@?0A@EA@QFrame@@8    0042d5a0     slinkclient.obj
 0002:000075bc       ??_R3QFrame@@8             0042d5bc     slinkclient.obj
 0002:000075cc       ??_R2QFrame@@8             0042d5cc     slinkclient.obj
 0002:000075e0       ??_R4QLabel@@6BQPaintDevice@@@ 0042d5e0     slinkclient.obj
 0002:000075f4       ??_R4QListWidget@@6BQObject@@@ 0042d5f4     slinkclient.obj
 0002:00007608       ??_R3QListWidget@@8        0042d608     slinkclient.obj
 0002:00007618       ??_R2QListWidget@@8        0042d618     slinkclient.obj
 0002:0000763c       ??_R1A@?0A@EA@QListWidget@@8 0042d63c     slinkclient.obj
 0002:00007658       ??_R1A@?0A@EA@QListView@@8 0042d658     slinkclient.obj
 0002:00007674       ??_R3QListView@@8          0042d674     slinkclient.obj
 0002:00007684       ??_R2QListView@@8          0042d684     slinkclient.obj
 0002:000076a4       ??_R1A@?0A@EA@QAbstractItemView@@8 0042d6a4     slinkclient.obj
 0002:000076c0       ??_R3QAbstractItemView@@8  0042d6c0     slinkclient.obj
 0002:000076d0       ??_R2QAbstractItemView@@8  0042d6d0     slinkclient.obj
 0002:000076ec       ??_R1A@?0A@EA@QAbstractScrollArea@@8 0042d6ec     slinkclient.obj
 0002:00007708       ??_R3QAbstractScrollArea@@8 0042d708     slinkclient.obj
 0002:00007718       ??_R2QAbstractScrollArea@@8 0042d718     slinkclient.obj
 0002:00007730       ??_R4QListWidget@@6BQPaintDevice@@@ 0042d730     slinkclient.obj
 0002:00007744       ??_R4QPushButton@@6BQObject@@@ 0042d744     slinkclient.obj
 0002:00007758       ??_R3QPushButton@@8        0042d758     slinkclient.obj
 0002:00007768       ??_R2QPushButton@@8        0042d768     slinkclient.obj
 0002:00007780       ??_R1A@?0A@EA@QPushButton@@8 0042d780     slinkclient.obj
 0002:0000779c       ??_R1A@?0A@EA@QAbstractButton@@8 0042d79c     slinkclient.obj
 0002:000077b8       ??_R3QAbstractButton@@8    0042d7b8     slinkclient.obj
 0002:000077c8       ??_R2QAbstractButton@@8    0042d7c8     slinkclient.obj
 0002:000077dc       ??_R4QPushButton@@6BQPaintDevice@@@ 0042d7dc     slinkclient.obj
 0002:000077f0       ??_R4QSplitter@@6BQObject@@@ 0042d7f0     slinkclient.obj
 0002:00007804       ??_R3QSplitter@@8          0042d804     slinkclient.obj
 0002:00007814       ??_R2QSplitter@@8          0042d814     slinkclient.obj
 0002:0000782c       ??_R1A@?0A@EA@QSplitter@@8 0042d82c     slinkclient.obj
 0002:00007848       ??_R4QSplitter@@6BQPaintDevice@@@ 0042d848     slinkclient.obj
 0002:0000785c       ??_R4QTextEdit@@6BQObject@@@ 0042d85c     slinkclient.obj
 0002:00007870       ??_R3QTextEdit@@8          0042d870     slinkclient.obj
 0002:00007880       ??_R2QTextEdit@@8          0042d880     slinkclient.obj
 0002:0000789c       ??_R1A@?0A@EA@QTextEdit@@8 0042d89c     slinkclient.obj
 0002:000078b8       ??_R4QTextEdit@@6BQPaintDevice@@@ 0042d8b8     slinkclient.obj
 0002:000078cc       ??_R4IfabianClient_callback@@6B@ 0042d8cc     slinkclient.obj
 0002:000078e0       ??_R3IfabianClient_callback@@8 0042d8e0     slinkclient.obj
 0002:000078f0       ??_R2IfabianClient_callback@@8 0042d8f0     slinkclient.obj
 0002:000078f8       ??_R1A@?0A@EA@IfabianClient_callback@@8 0042d8f8     slinkclient.obj
 0002:00007914       ??_R4IccClientCallback@@6B@ 0042d914     slinkclient.obj
 0002:00007928       ??_R3IccClientCallback@@8  0042d928     slinkclient.obj
 0002:00007938       ??_R2IccClientCallback@@8  0042d938     slinkclient.obj
 0002:00007940       ??_R1A@?0A@EA@IccClientCallback@@8 0042d940     slinkclient.obj
 0002:0000795c       ??_R4IccDriverCallback@@6B@ 0042d95c     slinkclient.obj
 0002:00007970       ??_R3IccDriverCallback@@8  0042d970     slinkclient.obj
 0002:00007980       ??_R2IccDriverCallback@@8  0042d980     slinkclient.obj
 0002:00007988       ??_R1A@?0A@EA@IccDriverCallback@@8 0042d988     slinkclient.obj
 0002:000079a4       ??_R4slinkClient@@6BQObject@@@ 0042d9a4     slinkclient.obj
 0002:000079b8       ??_R3slinkClient@@8        0042d9b8     slinkclient.obj
 0002:000079c8       ??_R2slinkClient@@8        0042d9c8     slinkclient.obj
 0002:000079ec       ??_R1A@?0A@EA@slinkClient@@8 0042d9ec     slinkclient.obj
 0002:00007a08       ??_R1A@?0A@EA@QMainWindow@@8 0042da08     slinkclient.obj
 0002:00007a24       ??_R3QMainWindow@@8        0042da24     slinkclient.obj
 0002:00007a34       ??_R2QMainWindow@@8        0042da34     slinkclient.obj
 0002:00007a48       ??_R1BI@?0A@EN@IccClientCallback@@8 0042da48     slinkclient.obj
 0002:00007a64       ??_R1BM@?0A@EN@IccDriverCallback@@8 0042da64     slinkclient.obj
 0002:00007a80       ??_R1CA@?0A@EN@IfabianClient_callback@@8 0042da80     slinkclient.obj
 0002:00007a9c       ??_R4slinkClient@@6BQPaintDevice@@@ 0042da9c     slinkclient.obj
 0002:00007ab0       ??_R4slinkClient@@6BIccClientCallback@@@ 0042dab0     slinkclient.obj
 0002:00007ac4       ??_R4slinkClient@@6BIccDriverCallback@@@ 0042dac4     slinkclient.obj
 0002:00007ad8       ??_R4slinkClient@@6BIfabianClient_callback@@@ 0042dad8     slinkclient.obj
 0002:00007aec       ??_R4QCheckBox@@6BQObject@@@ 0042daec     slinkclient.obj
 0002:00007b00       ??_R3QCheckBox@@8          0042db00     slinkclient.obj
 0002:00007b10       ??_R2QCheckBox@@8          0042db10     slinkclient.obj
 0002:00007b28       ??_R1A@?0A@EA@QCheckBox@@8 0042db28     slinkclient.obj
 0002:00007b44       ??_R4QCheckBox@@6BQPaintDevice@@@ 0042db44     slinkclient.obj
 0002:00007b58       ??_R4QDialogButtonBox@@6BQObject@@@ 0042db58     slinkclient.obj
 0002:00007b6c       ??_R3QDialogButtonBox@@8   0042db6c     slinkclient.obj
 0002:00007b7c       ??_R2QDialogButtonBox@@8   0042db7c     slinkclient.obj
 0002:00007b90       ??_R1A@?0A@EA@QDialogButtonBox@@8 0042db90     slinkclient.obj
 0002:00007bac       ??_R4QDialogButtonBox@@6BQPaintDevice@@@ 0042dbac     slinkclient.obj
 0002:00007bc0       ??_R4QFormLayout@@6BQObject@@@ 0042dbc0     slinkclient.obj
 0002:00007bd4       ??_R3QFormLayout@@8        0042dbd4     slinkclient.obj
 0002:00007be4       ??_R2QFormLayout@@8        0042dbe4     slinkclient.obj
 0002:00007bf8       ??_R1A@?0A@EA@QFormLayout@@8 0042dbf8     slinkclient.obj
 0002:00007c14       ??_R4QFormLayout@@6BQLayoutItem@@@ 0042dc14     slinkclient.obj
 0002:00007c28       ??_R4type_info@@6B@        0042dc28     MSVCRT:ti_inst.obj
 0002:00007c3c       ??_R3type_info@@8          0042dc3c     MSVCRT:ti_inst.obj
 0002:00007c4c       ??_R2type_info@@8          0042dc4c     MSVCRT:ti_inst.obj
 0002:00007c54       ??_R1A@?0A@EA@type_info@@8 0042dc54     MSVCRT:ti_inst.obj
 0002:00007c70       ___rtc_iaa                 0042dc70     MSVCRT:initsect.obj
 0002:00007c74       ___rtc_izz                 0042dc74     MSVCRT:initsect.obj
 0002:00007c78       ___rtc_taa                 0042dc78     MSVCRT:initsect.obj
 0002:00007c7c       ___rtc_tzz                 0042dc7c     MSVCRT:initsect.obj
 0002:0000b00c       __IMPORT_DESCRIPTOR_VERSION 0043100c     version:VERSION.dll
 0002:0000b020       __IMPORT_DESCRIPTOR_Qt5Core 00431020     Qt5Core:Qt5Core.dll
 0002:0000b034       __IMPORT_DESCRIPTOR_Qt5Gui 00431034     Qt5Gui:Qt5Gui.dll
 0002:0000b048       __IMPORT_DESCRIPTOR_Qt5Network 00431048     Qt5Network:Qt5Network.dll
 0002:0000b05c       __IMPORT_DESCRIPTOR_Qt5Widgets 0043105c     Qt5Widgets:Qt5Widgets.dll
 0002:0000b070       __IMPORT_DESCRIPTOR_BNCSIF32 00431070     bncsif32:BNCSIF32.dll
 0002:0000b084       __IMPORT_DESCRIPTOR_KERNEL32 00431084     kernel32:KERNEL32.dll
 0002:0000b098       __IMPORT_DESCRIPTOR_USER32 00431098     user32:USER32.dll
 0002:0000b0ac       __IMPORT_DESCRIPTOR_ADVAPI32 004310ac     advapi32:ADVAPI32.dll
 0002:0000b0c0       __IMPORT_DESCRIPTOR_MSVCR120 004310c0     MSVCRT:MSVCR120.dll
 0002:0000b0d4       __IMPORT_DESCRIPTOR_MSVCP120 004310d4     msvcprt:MSVCP120.dll
 0002:0000b0e8       __IMPORT_DESCRIPTOR_SHELL32 004310e8     shell32:SHELL32.dll
 0002:0000b0fc       __NULL_IMPORT_DESCRIPTOR   004310fc     version:VERSION.dll
 0003:000000d4       ?_Generic_object@?$_Error_objects@H@std@@2V_Generic_error_category@2@A 0043a0d4     ccCheck.obj
 0003:000000d8       ?_Iostream_object@?$_Error_objects@H@std@@2V_Iostream_error_category@2@A 0043a0d8     ccCheck.obj
 0003:000000dc       ?_System_object@?$_Error_objects@H@std@@2V_System_error_category@2@A 0043a0dc     ccCheck.obj
 0003:00000284       ?staticMetaObject@fabianClient@@2UQMetaObject@@B 0043a284     moc_fabianClient.obj
 0003:0000029c       ?staticMetaObject@persistentSocket@@2UQMetaObject@@B 0043a29c     moc_persistentSocket.obj
 0003:000002b4       ?staticMetaObject@slinkClient@@2UQMetaObject@@B 0043a2b4     moc_slinkclient.obj
 0003:000005b4       ___security_cookie         0043a5b4     MSVCRT:gs_cookie.obj
 0003:000005b8       ___security_cookie_complement 0043a5b8     MSVCRT:gs_cookie.obj
 0003:000005c0       ___defaultmatherr          0043a5c0     MSVCRT:merr.obj
 0003:000005c4       ___globallocalestatus      0043a5c4     MSVCRT:xthdloc.obj
 0003:000005c8       ___native_dllmain_reason   0043a5c8     MSVCRT:natstart.obj
 0003:000005cc       ??_R0?AVcBncsVersion@@@8   0043a5cc     cBncsVersion.obj
 0003:000005e8       ??_R0?AVbncs_disklog@@@8   0043a5e8     bncs_disklog.obj
 0003:00000604       ??_R0?AVerror_category@std@@@8 0043a604     ccCheck.obj
 0003:00000628       ??_R0?AV_Generic_error_category@std@@@8 0043a628     ccCheck.obj
 0003:00000654       ??_R0?AV_Iostream_error_category@std@@@8 0043a654     ccCheck.obj
 0003:00000680       ??_R0?AV_System_error_category@std@@@8 0043a680     ccCheck.obj
 0003:000006ac       ??_R0?AVccCheck@@@8        0043a6ac     ccCheck.obj
 0003:000006c4       ??_R0?AVccClient@@@8       0043a6c4     ccClient.obj
 0003:000006dc       ??_R0?AVccConfig@@@8       0043a6dc     ccConfig.obj
 0003:000006f4       ??_R0?AVccDriver@@@8       0043a6f4     ccDriver.obj
 0003:0000070c       ??_R0?AVccInfodriver@@@8   0043a70c     ccInfodriver.obj
 0003:00000728       ??_R0?AVdatabase@@@8       0043a728     database.obj
 0003:00000740       ??_R0?AVdatabaseMgr@@@8    0043a740     databaseMgr.obj
 0003:0000075c       ??_R0?AVdecodeBNCSString@@@8 0043a75c     decodeBNCSString.obj
 0003:0000077c       ??_R0?AVfabianClient@@@8   0043a77c     fabianClient.obj
 0003:00000798       ??_R0?AVQObject@@@8        0043a798     fabianClient.obj
 0003:000007b0       ??_R0?AVQSslSocket@@@8     0043a7b0     persistentSocket.obj
 0003:000007cc       ??_R0?AVQTcpSocket@@@8     0043a7cc     persistentSocket.obj
 0003:000007e8       ??_R0?AVQAbstractSocket@@@8 0043a7e8     persistentSocket.obj
 0003:00000808       ??_R0?AVQIODevice@@@8      0043a808     persistentSocket.obj
 0003:00000820       ??_R0?AVpersistentSocket@@@8 0043a820     persistentSocket.obj
 0003:00000840       ??_R0?AVQWidget@@@8        0043a840     slinkclient.obj
 0003:00000858       ??_R0?AVQPaintDevice@@@8   0043a858     slinkclient.obj
 0003:00000874       ??_R0?AVQAction@@@8        0043a874     slinkclient.obj
 0003:0000088c       ??_R0?AVQMenuBar@@@8       0043a88c     slinkclient.obj
 0003:000008a4       ??_R0?AVQStatusBar@@@8     0043a8a4     slinkclient.obj
 0003:000008c0       ??_R0?AVQToolBar@@@8       0043a8c0     slinkclient.obj
 0003:000008d8       ??_R0?AVQMenu@@@8          0043a8d8     slinkclient.obj
 0003:000008ec       ??_R0?AVQLineEdit@@@8      0043a8ec     slinkclient.obj
 0003:00000904       ??_R0?AVQGroupBox@@@8      0043a904     slinkclient.obj
 0003:0000091c       ??_R0?AVQSpacerItem@@@8    0043a91c     slinkclient.obj
 0003:00000938       ??_R0?AVQLayoutItem@@@8    0043a938     slinkclient.obj
 0003:00000954       ??_R0?AVQHBoxLayout@@@8    0043a954     slinkclient.obj
 0003:00000970       ??_R0?AVQBoxLayout@@@8     0043a970     slinkclient.obj
 0003:0000098c       ??_R0?AVQLayout@@@8        0043a98c     slinkclient.obj
 0003:000009a4       ??_R0?AVQVBoxLayout@@@8    0043a9a4     slinkclient.obj
 0003:000009c0       ??_R0?AVQLabel@@@8         0043a9c0     slinkclient.obj
 0003:000009d8       ??_R0?AVQFrame@@@8         0043a9d8     slinkclient.obj
 0003:000009f0       ??_R0?AVQListWidget@@@8    0043a9f0     slinkclient.obj
 0003:00000a0c       ??_R0?AVQListView@@@8      0043aa0c     slinkclient.obj
 0003:00000a24       ??_R0?AVQAbstractItemView@@@8 0043aa24     slinkclient.obj
 0003:00000a44       ??_R0?AVQAbstractScrollArea@@@8 0043aa44     slinkclient.obj
 0003:00000a68       ??_R0?AVQPushButton@@@8    0043aa68     slinkclient.obj
 0003:00000a84       ??_R0?AVQAbstractButton@@@8 0043aa84     slinkclient.obj
 0003:00000aa4       ??_R0?AVQSplitter@@@8      0043aaa4     slinkclient.obj
 0003:00000abc       ??_R0?AVQTextEdit@@@8      0043aabc     slinkclient.obj
 0003:00000ad4       ??_R0?AVIfabianClient_callback@@@8 0043aad4     slinkclient.obj
 0003:00000afc       ??_R0?AVIccClientCallback@@@8 0043aafc     slinkclient.obj
 0003:00000b1c       ??_R0?AVIccDriverCallback@@@8 0043ab1c     slinkclient.obj
 0003:00000b3c       ??_R0?AVslinkClient@@@8    0043ab3c     slinkclient.obj
 0003:00000b58       ??_R0?AVQMainWindow@@@8    0043ab58     slinkclient.obj
 0003:00000b74       ??_R0?AVQCheckBox@@@8      0043ab74     slinkclient.obj
 0003:00000b8c       ??_R0?AVQDialogButtonBox@@@8 0043ab8c     slinkclient.obj
 0003:00000bac       ??_R0?AVQFormLayout@@@8    0043abac     slinkclient.obj
 0003:00000bc8       ??_R0?AVtype_info@@@8      0043abc8     MSVCRT:ti_inst.obj
 0003:00000be4       ?id@?$num_put@DV?$back_insert_iterator@V?$basic_string@DU?$char_traits@D@std@@V?$allocator@D@2@@std@@@std@@@std@@2V0locale@2@A 0043abe4     ccCheck.obj
 0003:00000be8       ?id@?$num_put@_WV?$back_insert_iterator@V?$basic_string@_WU?$char_traits@_W@std@@V?$allocator@_W@2@@std@@@std@@@std@@2V0locale@2@A 0043abe8     ccCheck.obj
 0003:00000c04       ?m_textEdit@appGlobal@@0PAVQTextEdit@@A 0043ac04     appGlobal.obj
 0003:00000c08       ?g_disklog@appGlobal@@0PAVbncs_disklog@@A 0043ac08     appGlobal.obj
 0003:00000c10       ?m_profile@appGlobal@@0VQString@@A 0043ac10     appGlobal.obj
 0003:00000c18       ?dummy@?A0xcc4eed96@@3Uinitializer@1@A 0043ac18     qrc_slinkclient.obj
 0003:00000c24       ?metatype_id@?1??qt_metatype_id@?$QMetaTypeId@W4SocketError@QAbstractSocket@@@@SAHXZ@4V?$QBasicAtomicInteger@H@@A 0043ac24     moc_persistentSocket.obj
 0003:00000c28       ?metatype_id@?1??qt_metatype_id@?$QMetaTypeId@V?$QList@VQSslError@@@@@@SAHXZ@4V?$QBasicAtomicInteger@H@@A 0043ac28     moc_persistentSocket.obj
 0003:00000c34       ?bSendSpontaneous@netStatus@@0_NA 0043ac34     netStatus.obj
 0003:00000c38       ?m_values@netStatus@@0V?$map@VQString@@V1@U?$less@VQString@@@std@@V?$allocator@U?$pair@$$CBVQString@@V1@@std@@@3@@std@@A 0043ac38     netStatus.obj
 0003:00000c5c       ?pHtmlHelpW@@3P6GPAUHWND__@@PAU1@PBGIK@ZA 0043ac5c     htmlhelp:init.obj
 0003:00000c60       ?pHtmlHelpA@@3P6GPAUHWND__@@PAU1@PBDIK@ZA 0043ac60     htmlhelp:init.obj
 0003:000011e0       __commode                  0043b1e0     MSVCRT:xncommod.obj
 0003:000011e4       __dowildcard               0043b1e4     MSVCRT:wildcard.obj
 0003:000011e8       __newmode                  0043b1e8     MSVCRT:_newmode.obj
 0003:000011ec       __fmode                    0043b1ec     MSVCRT:xtxtmode.obj
 0003:000011f4       ___native_startup_lock     0043b1f4     <common>
 0003:000011f8       ___native_startup_state    0043b1f8     <common>
 0003:000011fc       ___dyn_tls_init_callback   0043b1fc     <common>
 0003:00001200       ___onexitend               0043b200     <common>
 0003:00001204       ___onexitbegin             0043b204     <common>

 entry point at        0001:0002008f

 Static symbols

 0001:00000100       ??__E?_Generic_object@?$_Error_objects@H@std@@2V_Generic_error_category@2@A@@YAXXZ 00401100 f   ccCheck.obj
 0001:00000110       ??__E?_Iostream_object@?$_Error_objects@H@std@@2V_Iostream_error_category@2@A@@YAXXZ 00401110 f   ccCheck.obj
 0001:00000120       ??__E?_System_object@?$_Error_objects@H@std@@2V_System_error_category@2@A@@YAXXZ 00401120 f   ccCheck.obj
 0001:00000130       ??__E?m_profile@appGlobal@@0VQString@@A@@YAXXZ 00401130 f   appGlobal.obj
 0001:00000150       ??__Edummy@?A0xcc4eed96@@YAXXZ 00401150 f   qrc_slinkclient.obj
 0001:00000170       ??__E?staticMetaObject@fabianClient@@2UQMetaObject@@B@@YAXXZ 00401170 f   moc_fabianClient.obj
 0001:00000180       ??__E?staticMetaObject@persistentSocket@@2UQMetaObject@@B@@YAXXZ 00401180 f   moc_persistentSocket.obj
 0001:00000190       ??__E?staticMetaObject@slinkClient@@2UQMetaObject@@B@@YAXXZ 00401190 f   moc_slinkclient.obj
 0001:000001a0       ??__E?m_values@netStatus@@0V?$map@VQString@@V1@U?$less@VQString@@@std@@V?$allocator@U?$pair@$$CBVQString@@V1@@std@@@3@@std@@A@@YAXXZ 004011a0 f   netStatus.obj
 0001:000014e6       __catch$?_Copy@?$basic_string@DU?$char_traits@D@std@@V?$allocator@D@2@@std@@QAEXII@Z$0 004024e6 f i ccCheck.obj
 0001:00001523       __catch$?_Copy@?$basic_string@DU?$char_traits@D@std@@V?$allocator@D@2@@std@@QAEXII@Z$1 00402523 f i ccCheck.obj
 0001:00003cd7       __catch$??$_Insert_nohint@AAU?$pair@$$CBV?$basic_string@DU?$char_traits@D@std@@V?$allocator@D@2@@std@@V12@@std@@PAU?$_Tree_node@U?$pair@$$CBV?$basic_string@DU?$char_traits@D@std@@V?$allocator@D@2@@std@@V12@@std@@PAX@2@@?$_Tree@V?$_Tmap_traits@V?$basic_string@DU?$char_traits@D@std@@V?$allocator@D@2@@std@@V12@U?$less@V?$basic_string@DU?$char_traits@D@std@@V?$allocator@D@2@@std@@@2@V?$allocator@U?$pair@$$CBV?$basic_string@DU?$char_traits@D@std@@V?$allocator@D@2@@std@@V12@@std@@@2@$0A@@std@@@std@@IAE?AU?$pair@V?$_Tree_iterator@V?$_Tree_val@U?$_Tree_simple_types@U?$pair@$$CBV?$basic_string@DU?$char_traits@D@std@@V?$allocator@D@2@@std@@V12@@std@@@std@@@std@@@std@@_N@1@_NAAU?$pair@$$CBV?$basic_string@DU?$char_traits@D@std@@V?$allocator@D@2@@std@@V12@@1@PAU?$_Tree_node@U?$pair@$$CBV?$basic_string@DU?$char_traits@D@std@@V?$allocator@D@2@@std@@V12@@std@@PAX@1@@Z$0 00404cd7 f i ccConfig.obj
 0001:00006320       $LN107                     00407320     ccDriver.obj
 0001:00006340       $LN98                      00407340     ccDriver.obj
 0001:000067b4       $LN42                      004077b4     ccDriver.obj
 0001:00007fc8       __catch$??$_Insert_nohint@AAU?$pair@$$CBHV?$basic_string@DU?$char_traits@D@std@@V?$allocator@D@2@@std@@@std@@PAU?$_Tree_node@U?$pair@$$CBHV?$basic_string@DU?$char_traits@D@std@@V?$allocator@D@2@@std@@@std@@PAX@2@@?$_Tree@V?$_Tmap_traits@HV?$basic_string@DU?$char_traits@D@std@@V?$allocator@D@2@@std@@U?$less@H@2@V?$allocator@U?$pair@$$CBHV?$basic_string@DU?$char_traits@D@std@@V?$allocator@D@2@@std@@@std@@@2@$0A@@std@@@std@@IAE?AU?$pair@V?$_Tree_iterator@V?$_Tree_val@U?$_Tree_simple_types@U?$pair@$$CBHV?$basic_string@DU?$char_traits@D@std@@V?$allocator@D@2@@std@@@std@@@std@@@std@@@std@@_N@1@_NAAU?$pair@$$CBHV?$basic_string@DU?$char_traits@D@std@@V?$allocator@D@2@@std@@@1@PAU?$_Tree_node@U?$pair@$$CBHV?$basic_string@DU?$char_traits@D@std@@V?$allocator@D@2@@std@@@std@@PAX@1@@Z$0 00408fc8 f i database.obj
 0001:0000931a       __catch$??$_Insert_nohint@AAU?$pair@$$CBHPAVdatabase@@@std@@PAU?$_Tree_node@U?$pair@$$CBHPAVdatabase@@@std@@PAX@2@@?$_Tree@V?$_Tmap_traits@HPAVdatabase@@U?$less@H@std@@V?$allocator@U?$pair@$$CBHPAVdatabase@@@std@@@3@$0A@@std@@@std@@IAE?AU?$pair@V?$_Tree_iterator@V?$_Tree_val@U?$_Tree_simple_types@U?$pair@$$CBHPAVdatabase@@@std@@@std@@@std@@@std@@_N@1@_NAAU?$pair@$$CBHPAVdatabase@@@1@PAU?$_Tree_node@U?$pair@$$CBHPAVdatabase@@@std@@PAX@1@@Z$0 0040a31a f i databaseMgr.obj
 0001:0000ce9e       __catch$??0?$QList@VQSslError@@@@QAE@ABV0@@Z$0 0040de9e f i moc_persistentSocket.obj
 0001:0000d0a2       __catch$?node_copy@?$QList@VQSslError@@@@AAEXPAUNode@1@00@Z$2 0040e0a2 f i moc_persistentSocket.obj
 0001:0000d3e4       $LN52                      0040e3e4     moc_persistentSocket.obj
 0001:0000d654       $LN20                      0040e654     moc_slinkclient.obj
 0001:0000d78b       __catch$?append@?$QList@VQString@@@@QAEXABVQString@@@Z$4 0040e78b f i main.obj
 0001:0000d8be       __catch$?detach_helper_grow@?$QList@VQString@@@@AAEPAUNode@1@HH@Z$2 0040e8be f i main.obj
 0001:0000d8f9       __catch$?detach_helper_grow@?$QList@VQString@@@@AAEPAUNode@1@HH@Z$0 0040e8f9 f i main.obj
 0001:0000e08f       __catch$??$_Insert_nohint@AAU?$pair@$$CBVQString@@V1@@std@@PAU?$_Tree_node@U?$pair@$$CBVQString@@V1@@std@@PAX@2@@?$_Tree@V?$_Tmap_traits@VQString@@V1@U?$less@VQString@@@std@@V?$allocator@U?$pair@$$CBVQString@@V1@@std@@@3@$0A@@std@@@std@@IAE?AU?$pair@V?$_Tree_iterator@V?$_Tree_val@U?$_Tree_simple_types@U?$pair@$$CBVQString@@V1@@std@@@std@@@std@@@std@@_N@1@_NAAU?$pair@$$CBVQString@@V1@@1@PAU?$_Tree_node@U?$pair@$$CBVQString@@V1@@std@@PAX@1@@Z$0 0040f08f f i netStatus.obj
 0001:0000fb90       $LN45                      00410b90     persistentSocket.obj
 0001:00010a2a       __catch$??$_Insert_nohint@AAU?$pair@$$CBII@std@@PAU?$_Tree_node@U?$pair@$$CBII@std@@PAX@2@@?$_Tree@V?$_Tmap_traits@IIU?$less@I@std@@V?$allocator@U?$pair@$$CBII@std@@@2@$0A@@std@@@std@@IAE?AU?$pair@V?$_Tree_iterator@V?$_Tree_val@U?$_Tree_simple_types@U?$pair@$$CBII@std@@@std@@@std@@@std@@_N@1@_NAAU?$pair@$$CBII@1@PAU?$_Tree_node@U?$pair@$$CBII@std@@PAX@1@@Z$0 00411a2a f i slinkclient.obj
 0001:00010a2a       __catch$??$_Insert_nohint@AAU?$pair@$$CBIPAVccDriver@@@std@@PAU?$_Tree_node@U?$pair@$$CBIPAVccDriver@@@std@@PAX@2@@?$_Tree@V?$_Tmap_traits@IPAVccDriver@@U?$less@I@std@@V?$allocator@U?$pair@$$CBIPAVccDriver@@@std@@@3@$0A@@std@@@std@@IAE?AU?$pair@V?$_Tree_iterator@V?$_Tree_val@U?$_Tree_simple_types@U?$pair@$$CBIPAVccDriver@@@std@@@std@@@std@@@std@@_N@1@_NAAU?$pair@$$CBIPAVccDriver@@@1@PAU?$_Tree_node@U?$pair@$$CBIPAVccDriver@@@std@@PAX@1@@Z$0 00411a2a f i slinkclient.obj
 0001:00010b4f       __catch$??$_Insert_nohint@ABIU_Nil@std@@@?$_Tree@V?$_Tset_traits@IU?$less@I@std@@V?$allocator@I@2@$0A@@std@@@std@@IAE?AU?$pair@V?$_Tree_const_iterator@V?$_Tree_val@U?$_Tree_simple_types@I@std@@@std@@@std@@_N@1@_NABIU_Nil@1@@Z$0 00411b4f f i slinkclient.obj
 0001:00012830       ??R<lambda_06135b541186b00dfe8ea108b9ab1290>@@QBE?AVQString@@XZ 00413830 f   slinkclient.obj
 0001:00012850       ??R<lambda_06456d24663e9375f241f91434f2a346>@@QBE?AVQString@@XZ 00413850 f   slinkclient.obj
 0001:00012870       ??R<lambda_09acdaf7ee25e47ea4b0dd9d0b70d40a>@@QBE?AVQString@@XZ 00413870 f   slinkclient.obj
 0001:00012890       ??R<lambda_0b1d6395811fd0c60161e2a461dc3113>@@QBE?AVQString@@XZ 00413890 f   slinkclient.obj
 0001:000128b0       ??R<lambda_0b5e26d6b345f4c2159ee40f1c07ddbc>@@QBE?AVQString@@XZ 004138b0 f   slinkclient.obj
 0001:000128d0       ??R<lambda_10caa09c30bf2f4ca007c4503c0bdd5d>@@QBE?AVQString@@XZ 004138d0 f   slinkclient.obj
 0001:000128f0       ??R<lambda_17ef4099595ea13500660504bc5b982a>@@QBE?AVQString@@XZ 004138f0 f   slinkclient.obj
 0001:00012910       ??R<lambda_1dd65273a7dfe37eece56f2d96935da9>@@QBE?AVQString@@XZ 00413910 f   slinkclient.obj
 0001:00012930       ??R<lambda_1e2a07f6bece7e0ab324b9bc1360b2e7>@@QBE?AVQString@@XZ 00413930 f   slinkclient.obj
 0001:00012950       ??R<lambda_27f209fd17423c2f680d8b81b8dd98ce>@@QBE?AVQString@@XZ 00413950 f   slinkclient.obj
 0001:00012970       ??R<lambda_29c7f758433c7d7bea82f576e2aa347f>@@QBE?AVQString@@XZ 00413970 f   slinkclient.obj
 0001:00012990       ??R<lambda_2a14ec7d2210637697511b97e1bab43b>@@QBE?AVQString@@XZ 00413990 f   slinkclient.obj
 0001:000129b0       ??R<lambda_2a7415c0e16a35db543a409291ac1aa1>@@QBE?AVQString@@XZ 004139b0 f   slinkclient.obj
 0001:000129d0       ??R<lambda_2c0ef29cb0f46abfa985bbe231a37c68>@@QBE?AVQString@@XZ 004139d0 f   slinkclient.obj
 0001:000129f0       ??R<lambda_2cdfaef9e97b559c6ae5aee705977241>@@QBE?AVQString@@XZ 004139f0 f   slinkclient.obj
 0001:00012a10       ??R<lambda_2e25481b1be6b200e998ac4f0a826bc2>@@QBE?AVQString@@XZ 00413a10 f   slinkclient.obj
 0001:00012a30       ??R<lambda_2f209cda0cbde61b224795b67240cfa6>@@QBE?AVQString@@XZ 00413a30 f   slinkclient.obj
 0001:00012a50       ??R<lambda_300757fea307ea8413434235b42ed359>@@QBE?AVQString@@XZ 00413a50 f   slinkclient.obj
 0001:00012a70       ??R<lambda_34323e6e24efd9cb102c6132b80b4ec9>@@QBE?AVQString@@XZ 00413a70 f   slinkclient.obj
 0001:00012a90       ??R<lambda_3510cfe02de63d328032b9c85d8cf89e>@@QBE?AVQString@@XZ 00413a90 f   slinkclient.obj
 0001:00012ab0       ??R<lambda_387caa35eca8fcdf320abf7e97ea395d>@@QBE?AVQString@@XZ 00413ab0 f   slinkclient.obj
 0001:00012ad0       ??R<lambda_3bd998b7ac7bcb9b75c6d2b7c2fefcef>@@QBE?AVQString@@XZ 00413ad0 f   slinkclient.obj
 0001:00012af0       ??R<lambda_3d12101d7e5a8884116188fc9114d09e>@@QBE?AVQString@@XZ 00413af0 f   slinkclient.obj
 0001:00012b10       ??R<lambda_40af39b20b6446025e6373635dcd8ce8>@@QBE?AVQString@@XZ 00413b10 f   slinkclient.obj
 0001:00012b30       ??R<lambda_43cb82e59eff806e3361b59ee87ec89a>@@QBE?AVQString@@XZ 00413b30 f   slinkclient.obj
 0001:00012b50       ??R<lambda_47a70167f6095f38897d092d5c610468>@@QBE?AVQString@@XZ 00413b50 f   slinkclient.obj
 0001:00012b70       ??R<lambda_487724844afa2bb1152b456d0b310e30>@@QBE?AVQString@@XZ 00413b70 f   slinkclient.obj
 0001:00012b90       ??R<lambda_49522836f7750d79dd5619e390a04beb>@@QBE?AVQString@@XZ 00413b90 f   slinkclient.obj
 0001:00012bb0       ??R<lambda_4b562f602e4cb48001945ba710174deb>@@QBE?AVQString@@XZ 00413bb0 f   slinkclient.obj
 0001:00012bd0       ??R<lambda_4bfa08334d90ab3acf75600741957bcc>@@QBE?AVQString@@XZ 00413bd0 f   slinkclient.obj
 0001:00012bf0       ??R<lambda_4f4e0757ad7867a93aab0612471bb803>@@QBE?AVQString@@XZ 00413bf0 f   slinkclient.obj
 0001:00012c10       ??R<lambda_55635f0ab56f4bd077eb2c29ff18aa4b>@@QBE?AVQString@@XZ 00413c10 f   slinkclient.obj
 0001:00012c30       ??R<lambda_598167a04362c8d9d5016d09d5a26690>@@QBE?AVQString@@XZ 00413c30 f   slinkclient.obj
 0001:00012c50       ??R<lambda_59b94235e9c1c6624a22f62a015c016a>@@QBE?AVQString@@XZ 00413c50 f   slinkclient.obj
 0001:00012c70       ??R<lambda_5b92b8516fff7c697bf6041982f62ec0>@@QBE?AVQString@@XZ 00413c70 f   slinkclient.obj
 0001:00012c90       ??R<lambda_5f9a36adb6a5efdd02f9e06051f1d7ab>@@QBE?AVQString@@XZ 00413c90 f   slinkclient.obj
 0001:00012cb0       ??R<lambda_604d30288da0aba07d333aeb11076300>@@QBE?AVQString@@XZ 00413cb0 f   slinkclient.obj
 0001:00012cd0       ??R<lambda_61c91f09320b7fdda830a26b1ed36f5f>@@QBE?AVQString@@XZ 00413cd0 f   slinkclient.obj
 0001:00012cf0       ??R<lambda_6358486bbf466575ce65e9f74d3ddd40>@@QBE?AVQString@@XZ 00413cf0 f   slinkclient.obj
 0001:00012d10       ??R<lambda_6420e02bd07e6f23b96d37fc1767831f>@@QBE?AVQString@@XZ 00413d10 f   slinkclient.obj
 0001:00012d30       ??R<lambda_64459ed830fa880c8d3ef390c9e24155>@@QBE?AVQString@@XZ 00413d30 f   slinkclient.obj
 0001:00012d50       ??R<lambda_65bff34644a0edfc41b10ab141e6ec36>@@QBE?AVQString@@XZ 00413d50 f   slinkclient.obj
 0001:00012d70       ??R<lambda_65e40a1665e116ba4a1b2c26410cb93e>@@QBE?AVQString@@XZ 00413d70 f   slinkclient.obj
 0001:00012d90       ??R<lambda_6ff301346fe029a9d4ff729270531d35>@@QBE?AVQString@@XZ 00413d90 f   slinkclient.obj
 0001:00012db0       ??R<lambda_71d073b44785d7bc676237d7f7d744a0>@@QBE?AVQString@@XZ 00413db0 f   slinkclient.obj
 0001:00012dd0       ??R<lambda_71e236a29a0a8f51f35349bb9662ff16>@@QBE?AVQString@@XZ 00413dd0 f   slinkclient.obj
 0001:00012df0       ??R<lambda_74aa987245742e858572fa285d6eb1d4>@@QBE?AVQString@@XZ 00413df0 f   slinkclient.obj
 0001:00012e10       ??R<lambda_74f7dc3224e92d8823f442a4ad79751b>@@QBE?AVQString@@XZ 00413e10 f   slinkclient.obj
 0001:00012e30       ??R<lambda_7aa8765f279d81577c71d45483183d9e>@@QBE?AVQString@@XZ 00413e30 f   slinkclient.obj
 0001:00012e50       ??R<lambda_7e70c27c917d584d57c43196ffb0432a>@@QBE?AVQString@@XZ 00413e50 f   slinkclient.obj
 0001:00012e70       ??R<lambda_7f8cfa4e5b3832620134d4a89e0431a7>@@QBE?AVQString@@XZ 00413e70 f   slinkclient.obj
 0001:00012e90       ??R<lambda_812f2eedd751ac75e261f9011c770349>@@QBE?AVQString@@XZ 00413e90 f   slinkclient.obj
 0001:00012eb0       ??R<lambda_865daae2703db0a96dbc4a28565db216>@@QBE?AVQString@@XZ 00413eb0 f   slinkclient.obj
 0001:00012ed0       ??R<lambda_8bcee900770d27d33d155820e010e028>@@QBE?AVQString@@XZ 00413ed0 f   slinkclient.obj
 0001:00012ef0       ??R<lambda_8c65dd67202652c8b8f79da1b65f5249>@@QBE?AVQString@@XZ 00413ef0 f   slinkclient.obj
 0001:00012f10       ??R<lambda_8e88149948583f2f894e57008eb34b96>@@QBE?AVQString@@XZ 00413f10 f   slinkclient.obj
 0001:00012f30       ??R<lambda_8ef78ba6ffd3107462c99b31a1dc477b>@@QBE?AVQString@@XZ 00413f30 f   slinkclient.obj
 0001:00012f50       ??R<lambda_8f113357f1d48565bc09517ceaae461d>@@QBE?AVQString@@XZ 00413f50 f   slinkclient.obj
 0001:00012f70       ??R<lambda_92805ea8ee6ec64ae75b743625c55ced>@@QBE?AVQString@@XZ 00413f70 f   slinkclient.obj
 0001:00012f90       ??R<lambda_98ea5a3dbc46c8559a3ea01613a122b1>@@QBE?AVQString@@XZ 00413f90 f   slinkclient.obj
 0001:00012fb0       ??R<lambda_98eaadaa904eadb6ecdd3976923c2906>@@QBE?AVQString@@XZ 00413fb0 f   slinkclient.obj
 0001:00012fd0       ??R<lambda_99328abe1a022e79c0af74d58f54186c>@@QBE?AVQString@@XZ 00413fd0 f   slinkclient.obj
 0001:00012ff0       ??R<lambda_9a82328a060612194360accee5e0ca1b>@@QBE?AVQString@@XZ 00413ff0 f   slinkclient.obj
 0001:00013010       ??R<lambda_9b00df0c881897b02ff203918317367d>@@QBE?AVQString@@XZ 00414010 f   slinkclient.obj
 0001:00013030       ??R<lambda_9f01d5a25286825dd9b26a20e6d3a6e6>@@QBE?AVQString@@XZ 00414030 f   slinkclient.obj
 0001:00013050       ??R<lambda_a1f80e13d71255321d16b528193bb9d6>@@QBE?AVQString@@XZ 00414050 f   slinkclient.obj
 0001:00013070       ??R<lambda_a39ab603a569a51182d386d61b58db5b>@@QBE?AVQString@@XZ 00414070 f   slinkclient.obj
 0001:00013090       ??R<lambda_a827b6b97b3eccc3916a7ea0287f1cf1>@@QBE?AVQString@@XZ 00414090 f   slinkclient.obj
 0001:000130b0       ??R<lambda_a84fb521d496add6021dff93da07ed2c>@@QBE?AVQString@@XZ 004140b0 f   slinkclient.obj
 0001:000130d0       ??R<lambda_abdd347c1d27cd6e83e4ff8f771aaf8e>@@QBE?AVQString@@XZ 004140d0 f   slinkclient.obj
 0001:000130f0       ??R<lambda_abef6f540701619640bc620f9525aa01>@@QBE?AVQString@@XZ 004140f0 f   slinkclient.obj
 0001:00013110       ??R<lambda_ac478bbeb722defbf73cae3dadbbe1e2>@@QBE?AVQString@@XZ 00414110 f   slinkclient.obj
 0001:00013130       ??R<lambda_ac8ea716e6658c3c52eb3f5ee794b822>@@QBE?AVQString@@XZ 00414130 f   slinkclient.obj
 0001:00013150       ??R<lambda_b0640185ea1e0e7c9cafbe283392a061>@@QBE?AVQString@@XZ 00414150 f   slinkclient.obj
 0001:00013170       ??R<lambda_b0f545ca66db7ead0943bb6cda2a7fb9>@@QBE?AVQString@@XZ 00414170 f   slinkclient.obj
 0001:00013190       ??R<lambda_b16740d10990883b1967473738649efb>@@QBE?AVQString@@XZ 00414190 f   slinkclient.obj
 0001:000131b0       ??R<lambda_b3811d8df55541ff237bd502a24ecbdc>@@QBE?AVQString@@XZ 004141b0 f   slinkclient.obj
 0001:000131d0       ??R<lambda_b8dadae9f03435ac90c83f1a14ac438f>@@QBE?AVQString@@XZ 004141d0 f   slinkclient.obj
 0001:000131f0       ??R<lambda_ba9a12c1118f42f3a49c9005d96dff4f>@@QBE?AVQString@@XZ 004141f0 f   slinkclient.obj
 0001:00013210       ??R<lambda_bc30f6897def8a296e0d9dcc157ebf88>@@QBE?AVQString@@XZ 00414210 f   slinkclient.obj
 0001:00013230       ??R<lambda_bc73c47348c008c1b8a0097c99342ba5>@@QBE?AVQString@@XZ 00414230 f   slinkclient.obj
 0001:00013250       ??R<lambda_bf37a0952faaef4699471967f4c0b40e>@@QBE?AVQString@@XZ 00414250 f   slinkclient.obj
 0001:00013270       ??R<lambda_c1e2dbe90eaa6cce86b398344fd623d4>@@QBE?AVQString@@XZ 00414270 f   slinkclient.obj
 0001:00013290       ??R<lambda_c28605d2e6282264110175b1ffc7693d>@@QBE?AVQString@@XZ 00414290 f   slinkclient.obj
 0001:000132b0       ??R<lambda_cf99b63ff2eb3387a60e2bcb095b3824>@@QBE?AVQString@@XZ 004142b0 f   slinkclient.obj
 0001:000132d0       ??R<lambda_d32a807d10915934ab12993ae6c5ba34>@@QBE?AVQString@@XZ 004142d0 f   slinkclient.obj
 0001:000132f0       ??R<lambda_d32bb6890b5346db86260ddcc1d323e9>@@QBE?AVQString@@XZ 004142f0 f   slinkclient.obj
 0001:00013310       ??R<lambda_d37f4da8c10f45f8e0453a3a3a509c68>@@QBE?AVQString@@XZ 00414310 f   slinkclient.obj
 0001:00013330       ??R<lambda_d38b335fb1879f7501cc68bf1a5017a0>@@QBE?AVQString@@XZ 00414330 f   slinkclient.obj
 0001:00013350       ??R<lambda_d3dc2820d22c113fbd75a264679e87bb>@@QBE?AVQString@@XZ 00414350 f   slinkclient.obj
 0001:00013370       ??R<lambda_d4ed625c23c20f26616aa4221f2cac93>@@QBE?AVQString@@XZ 00414370 f   slinkclient.obj
 0001:00013390       ??R<lambda_d5b1d234cb7e6a039c6f4ad54191c29e>@@QBE?AVQString@@XZ 00414390 f   slinkclient.obj
 0001:000133b0       ??R<lambda_d8b74168295ea9e3c1121ee1cd2f78de>@@QBE?AVQString@@XZ 004143b0 f   slinkclient.obj
 0001:000133d0       ??R<lambda_db36a0fabb9e4173c62dfcb542b7d852>@@QBE?AVQString@@XZ 004143d0 f   slinkclient.obj
 0001:000133f0       ??R<lambda_de2883b3abf3eb9a4dc49e48d16b7749>@@QBE?AVQString@@XZ 004143f0 f   slinkclient.obj
 0001:00013410       ??R<lambda_de659aee4f7213d06a8b231858a8a340>@@QBE?AVQString@@XZ 00414410 f   slinkclient.obj
 0001:00013430       ??R<lambda_e0b95599f0068a800adb04eed7b020bd>@@QBE?AVQString@@XZ 00414430 f   slinkclient.obj
 0001:00013450       ??R<lambda_e71a8bc18ecd6595ac66c2cb689318b8>@@QBE?AVQString@@XZ 00414450 f   slinkclient.obj
 0001:00013470       ??R<lambda_e9ef8c59a9f711aabf08b8430d811d3c>@@QBE?AVQString@@XZ 00414470 f   slinkclient.obj
 0001:00013490       ??R<lambda_eac5de7136693d699ffbf56ad5d36f98>@@QBE?AVQString@@XZ 00414490 f   slinkclient.obj
 0001:000134b0       ??R<lambda_eae3c373f7d537d34cda12742b0619fa>@@QBE?AVQString@@XZ 004144b0 f   slinkclient.obj
 0001:000134d0       ??R<lambda_edf453a36ac2134a8336501ea1297776>@@QBE?AVQString@@XZ 004144d0 f   slinkclient.obj
 0001:000134f0       ??R<lambda_efbdd8d141c614ad5061319c2e9f2f41>@@QBE?AVQString@@XZ 004144f0 f   slinkclient.obj
 0001:00013510       ??R<lambda_f66fc17f532e4ec54b700980f0e4a9ad>@@QBE?AVQString@@XZ 00414510 f   slinkclient.obj
 0001:00013530       ??R<lambda_fc3c56dd23c62382f1fe17e6c8890642>@@QBE?AVQString@@XZ 00414530 f   slinkclient.obj
 0001:00015bcc       __catch$?detach_helper@?$QList@PAVQListWidgetItem@@@@AAEXH@Z$0 00416bcc f i slinkclient.obj
 0001:00015cc1       __catch$?detach_helper@?$QList@VQString@@@@AAEXH@Z$0 00416cc1 f i slinkclient.obj
 0001:0001e2cc       $LN430                     0041f2cc     slinkclient.obj
 0001:0001e2dc       $LN427                     0041f2dc     slinkclient.obj
 0001:0001e308       $LN431                     0041f308     slinkclient.obj
 0001:0001e318       $LN428                     0041f318     slinkclient.obj
 0001:0001ff60       $$000000                   00420f60     MSVCRT:chkstk.obj
 0001:0001ff8b       _pre_c_init                00420f8b f   MSVCRT:crtexew.obj
 0001:00020044       _pre_cpp_init              00421044 f   MSVCRT:crtexew.obj
 0001:00020099       ___tmainCRTStartup         00421099 f   MSVCRT:crtexew.obj
 0001:00020340       $$000000                   00421340     MSVCRT:sehprolg4.obj
 0001:000207e0       __unwindfunclet$??$?HDU?$char_traits@D@std@@V?$allocator@D@1@@std@@YA?AV?$basic_string@DU?$char_traits@D@std@@V?$allocator@D@2@@0@ABV10@PBD@Z$0 004217e0 f   ccCheck.obj
 0001:000207e0       __unwindfunclet$??$?HDU?$char_traits@D@std@@V?$allocator@D@1@@std@@YA?AV?$basic_string@DU?$char_traits@D@std@@V?$allocator@D@2@@0@PBDABV10@@Z$0 004217e0 f   ccCheck.obj
 0001:000207f9       __ehhandler$??$?HDU?$char_traits@D@std@@V?$allocator@D@1@@std@@YA?AV?$basic_string@DU?$char_traits@D@std@@V?$allocator@D@2@@0@PBDABV10@@Z 004217f9 f   ccCheck.obj
 0001:000207f9       __ehhandler$??$?HDU?$char_traits@D@std@@V?$allocator@D@1@@std@@YA?AV?$basic_string@DU?$char_traits@D@std@@V?$allocator@D@2@@0@ABV10@PBD@Z 004217f9 f   ccCheck.obj
 0001:00020820       __ehhandler$?_Copy@?$basic_string@DU?$char_traits@D@std@@V?$allocator@D@2@@std@@QAEXII@Z 00421820 f   ccCheck.obj
 0001:00020840       __unwindfunclet$?checkDatabase@ccCheck@@QAE_NII@Z$1 00421840 f   ccCheck.obj
 0001:00020848       __ehhandler$?checkDatabase@ccCheck@@QAE_NII@Z 00421848 f   ccCheck.obj
 0001:00020870       __unwindfunclet$?checkDevice@ccCheck@@QAE_NI@Z$0 00421870 f   ccCheck.obj
 0001:00020870       __unwindfunclet$?checkIndex@ccCheck@@QAE_NI@Z$0 00421870 f   ccCheck.obj
 0001:00020878       __unwindfunclet$?checkDevice@ccCheck@@QAE_NI@Z$1 00421878 f   ccCheck.obj
 0001:00020878       __unwindfunclet$?checkIndex@ccCheck@@QAE_NI@Z$1 00421878 f   ccCheck.obj
 0001:00020880       __ehhandler$?checkIndex@ccCheck@@QAE_NI@Z 00421880 f   ccCheck.obj
 0001:00020880       __ehhandler$?checkDevice@ccCheck@@QAE_NI@Z 00421880 f   ccCheck.obj
 0001:000208b0       __unwindfunclet$?checkString@ccCheck@@QAE_NABV?$basic_string@DU?$char_traits@D@std@@V?$allocator@D@2@@std@@@Z$0 004218b0 f   ccCheck.obj
 0001:000208b8       __ehhandler$?checkString@ccCheck@@QAE_NABV?$basic_string@DU?$char_traits@D@std@@V?$allocator@D@2@@std@@@Z 004218b8 f   ccCheck.obj
 0001:000208e0       __unwindfunclet$?checkWorkstation@ccCheck@@QAE_NI@Z$0 004218e0 f   ccCheck.obj
 0001:000208e8       __unwindfunclet$?checkWorkstation@ccCheck@@QAE_NI@Z$1 004218e8 f   ccCheck.obj
 0001:000208f0       __ehhandler$?checkWorkstation@ccCheck@@QAE_NI@Z 004218f0 f   ccCheck.obj
 0001:00020920       __unwindfunclet$?log@ccCheck@@QAEXABV?$basic_string@DU?$char_traits@D@std@@V?$allocator@D@2@@std@@@Z$0 00421920 f   ccCheck.obj
 0001:00020928       __unwindfunclet$?log@ccCheck@@QAEXABV?$basic_string@DU?$char_traits@D@std@@V?$allocator@D@2@@std@@@Z$1 00421928 f   ccCheck.obj
 0001:00020930       __ehhandler$?log@ccCheck@@QAEXABV?$basic_string@DU?$char_traits@D@std@@V?$allocator@D@2@@std@@@Z 00421930 f   ccCheck.obj
 0001:00020960       __unwindfunclet$??0ccClient@@QAE@PAVIccClientCallback@@ABV?$basic_string@DU?$char_traits@D@std@@V?$allocator@D@2@@std@@@Z$0 00421960 f   ccClient.obj
 0001:0002096b       __unwindfunclet$??0ccClient@@QAE@PAVIccClientCallback@@ABV?$basic_string@DU?$char_traits@D@std@@V?$allocator@D@2@@std@@@Z$1 0042196b f   ccClient.obj
 0001:00020979       __ehhandler$??0ccClient@@QAE@PAVIccClientCallback@@ABV?$basic_string@DU?$char_traits@D@std@@V?$allocator@D@2@@std@@@Z 00421979 f   ccClient.obj
 0001:000209b0       __unwindfunclet$?WndProc@ccClient@@CGJPAUHWND__@@IIJ@Z$5 004219b0 f   ccClient.obj
 0001:000209b8       __unwindfunclet$?WndProc@ccClient@@CGJPAUHWND__@@IIJ@Z$6 004219b8 f   ccClient.obj
 0001:000209c3       __unwindfunclet$?WndProc@ccClient@@CGJPAUHWND__@@IIJ@Z$1 004219c3 f   ccClient.obj
 0001:000209cb       __unwindfunclet$?WndProc@ccClient@@CGJPAUHWND__@@IIJ@Z$2 004219cb f   ccClient.obj
 0001:000209d6       __unwindfunclet$?WndProc@ccClient@@CGJPAUHWND__@@IIJ@Z$3 004219d6 f   ccClient.obj
 0001:000209de       __unwindfunclet$?WndProc@ccClient@@CGJPAUHWND__@@IIJ@Z$4 004219de f   ccClient.obj
 0001:000209e6       __unwindfunclet$?WndProc@ccClient@@CGJPAUHWND__@@IIJ@Z$7 004219e6 f   ccClient.obj
 0001:000209ee       __unwindfunclet$?WndProc@ccClient@@CGJPAUHWND__@@IIJ@Z$0 004219ee f   ccClient.obj
 0001:000209f9       __ehhandler$?WndProc@ccClient@@CGJPAUHWND__@@IIJ@Z 004219f9 f   ccClient.obj
 0001:00020a30       __unwindfunclet$?deviceProfile@ccClient@@QAEXHAAH00AAV?$basic_string@DU?$char_traits@D@std@@V?$allocator@D@2@@std@@@Z$0 00421a30 f   ccClient.obj
 0001:00020a3b       __ehhandler$?deviceProfile@ccClient@@QAEXHAAH00AAV?$basic_string@DU?$char_traits@D@std@@V?$allocator@D@2@@std@@@Z 00421a3b f   ccClient.obj
 0001:00020a70       __ehhandler$??$_Insert_nohint@AAU?$pair@$$CBV?$basic_string@DU?$char_traits@D@std@@V?$allocator@D@2@@std@@V12@@std@@PAU?$_Tree_node@U?$pair@$$CBV?$basic_string@DU?$char_traits@D@std@@V?$allocator@D@2@@std@@V12@@std@@PAX@2@@?$_Tree@V?$_Tmap_traits@V?$basic_string@DU?$char_traits@D@std@@V?$allocator@D@2@@std@@V12@U?$less@V?$basic_string@DU?$char_traits@D@std@@V?$allocator@D@2@@std@@@2@V?$allocator@U?$pair@$$CBV?$basic_string@DU?$char_traits@D@std@@V?$allocator@D@2@@std@@V12@@std@@@2@$0A@@std@@@std@@IAE?AU?$pair@V?$_Tree_iterator@V?$_Tree_val@U?$_Tree_simple_types@U?$pair@$$CBV?$basic_string@DU?$char_traits@D@std@@V?$allocator@D@2@@std@@V12@@std@@@std@@@std@@@std@@_N@1@_NAAU?$pair@$$CBV?$basic_string@DU?$char_traits@D@std@@V?$allocator@D@2@@std@@V12@@1@PAU?$_Tree_node@U?$pair@$$CBV?$basic_string@DU?$char_traits@D@std@@V?$allocator@D@2@@std@@V12@@std@@PAX@1@@Z 00421a70 f   ccConfig.obj
 0001:00020a90       __unwindfunclet$??0ccConfig@@QAE@ABV?$basic_string@DU?$char_traits@D@std@@V?$allocator@D@2@@std@@0@Z$0 00421a90 f   ccConfig.obj
 0001:00020a9b       __unwindfunclet$??0ccConfig@@QAE@ABV?$basic_string@DU?$char_traits@D@std@@V?$allocator@D@2@@std@@0@Z$1 00421a9b f   ccConfig.obj
 0001:00020aa6       __unwindfunclet$??0ccConfig@@QAE@ABV?$basic_string@DU?$char_traits@D@std@@V?$allocator@D@2@@std@@0@Z$2 00421aa6 f   ccConfig.obj
 0001:00020ab1       __ehhandler$??0ccConfig@@QAE@ABV?$basic_string@DU?$char_traits@D@std@@V?$allocator@D@2@@std@@0@Z 00421ab1 f   ccConfig.obj
 0001:00020ae0       __unwindfunclet$?find@ccConfig@@AAE?AV?$_Tree_iterator@V?$_Tree_val@U?$_Tree_simple_types@U?$pair@$$CBV?$basic_string@DU?$char_traits@D@std@@V?$allocator@D@2@@std@@V12@@std@@@std@@@std@@@std@@ABV?$basic_string@DU?$char_traits@D@std@@V?$allocator@D@2@@3@@Z$0 00421ae0 f   ccConfig.obj
 0001:00020ae8       __unwindfunclet$?find@ccConfig@@AAE?AV?$_Tree_iterator@V?$_Tree_val@U?$_Tree_simple_types@U?$pair@$$CBV?$basic_string@DU?$char_traits@D@std@@V?$allocator@D@2@@std@@V12@@std@@@std@@@std@@@std@@ABV?$basic_string@DU?$char_traits@D@std@@V?$allocator@D@2@@3@@Z$1 00421ae8 f   ccConfig.obj
 0001:00020af0       __ehhandler$?find@ccConfig@@AAE?AV?$_Tree_iterator@V?$_Tree_val@U?$_Tree_simple_types@U?$pair@$$CBV?$basic_string@DU?$char_traits@D@std@@V?$allocator@D@2@@std@@V12@@std@@@std@@@std@@@std@@ABV?$basic_string@DU?$char_traits@D@std@@V?$allocator@D@2@@3@@Z 00421af0 f   ccConfig.obj
 0001:00020b20       __unwindfunclet$?getDevPath@ccConfig@@SA?AV?$basic_string@DU?$char_traits@D@std@@V?$allocator@D@2@@std@@ABV23@@Z$0 00421b20 f   ccConfig.obj
 0001:00020b28       __unwindfunclet$?getDevPath@ccConfig@@SA?AV?$basic_string@DU?$char_traits@D@std@@V?$allocator@D@2@@std@@ABV23@@Z$1 00421b28 f   ccConfig.obj
 0001:00020b30       __ehhandler$?getDevPath@ccConfig@@SA?AV?$basic_string@DU?$char_traits@D@std@@V?$allocator@D@2@@std@@ABV23@@Z 00421b30 f   ccConfig.obj
 0001:00020b60       __unwindfunclet$?getDevPath@ccConfig@@SA?AV?$basic_string@DU?$char_traits@D@std@@V?$allocator@D@2@@std@@XZ$0 00421b60 f   ccConfig.obj
 0001:00020b6b       __unwindfunclet$?getDevPath@ccConfig@@SA?AV?$basic_string@DU?$char_traits@D@std@@V?$allocator@D@2@@std@@XZ$1 00421b6b f   ccConfig.obj
 0001:00020b76       __unwindfunclet$?getDevPath@ccConfig@@SA?AV?$basic_string@DU?$char_traits@D@std@@V?$allocator@D@2@@std@@XZ$2 00421b76 f   ccConfig.obj
 0001:00020b81       __ehhandler$?getDevPath@ccConfig@@SA?AV?$basic_string@DU?$char_traits@D@std@@V?$allocator@D@2@@std@@XZ 00421b81 f   ccConfig.obj
 0001:00020bb0       __unwindfunclet$?getInt@ccConfig@@SAHABV?$basic_string@DU?$char_traits@D@std@@V?$allocator@D@2@@std@@00H_N@Z$0 00421bb0 f   ccConfig.obj
 0001:00020bb8       __unwindfunclet$?getInt@ccConfig@@SAHABV?$basic_string@DU?$char_traits@D@std@@V?$allocator@D@2@@std@@00H_N@Z$1 00421bb8 f   ccConfig.obj
 0001:00020bc3       __ehhandler$?getInt@ccConfig@@SAHABV?$basic_string@DU?$char_traits@D@std@@V?$allocator@D@2@@std@@00H_N@Z 00421bc3 f   ccConfig.obj
 0001:00020bf0       __unwindfunclet$?getString@ccConfig@@SA?AV?$basic_string@DU?$char_traits@D@std@@V?$allocator@D@2@@std@@HABV23@00_N@Z$0 00421bf0 f   ccConfig.obj
 0001:00020bfb       __ehhandler$?getString@ccConfig@@SA?AV?$basic_string@DU?$char_traits@D@std@@V?$allocator@D@2@@std@@HABV23@00_N@Z 00421bfb f   ccConfig.obj
 0001:00020c30       __unwindfunclet$?readConfigSectionAbs@ccConfig@@CAXABV?$basic_string@DU?$char_traits@D@std@@V?$allocator@D@2@@std@@0AAV?$map@V?$basic_string@DU?$char_traits@D@std@@V?$allocator@D@2@@std@@V12@U?$less@V?$basic_string@DU?$char_traits@D@std@@V?$allocator@D@2@@std@@@2@V?$allocator@U?$pair@$$CBV?$basic_string@DU?$char_traits@D@std@@V?$allocator@D@2@@std@@V12@@std@@@2@@3@@Z$0 00421c30 f   ccConfig.obj
 0001:00020c3b       __unwindfunclet$?readConfigSectionAbs@ccConfig@@CAXABV?$basic_string@DU?$char_traits@D@std@@V?$allocator@D@2@@std@@0AAV?$map@V?$basic_string@DU?$char_traits@D@std@@V?$allocator@D@2@@std@@V12@U?$less@V?$basic_string@DU?$char_traits@D@std@@V?$allocator@D@2@@std@@@2@V?$allocator@U?$pair@$$CBV?$basic_string@DU?$char_traits@D@std@@V?$allocator@D@2@@std@@V12@@std@@@2@@3@@Z$2 00421c3b f   ccConfig.obj
 0001:00020c46       __unwindfunclet$?readConfigSectionAbs@ccConfig@@CAXABV?$basic_string@DU?$char_traits@D@std@@V?$allocator@D@2@@std@@0AAV?$map@V?$basic_string@DU?$char_traits@D@std@@V?$allocator@D@2@@std@@V12@U?$less@V?$basic_string@DU?$char_traits@D@std@@V?$allocator@D@2@@std@@@2@V?$allocator@U?$pair@$$CBV?$basic_string@DU?$char_traits@D@std@@V?$allocator@D@2@@std@@V12@@std@@@2@@3@@Z$3 00421c46 f   ccConfig.obj
 0001:00020c51       __unwindfunclet$?readConfigSectionAbs@ccConfig@@CAXABV?$basic_string@DU?$char_traits@D@std@@V?$allocator@D@2@@std@@0AAV?$map@V?$basic_string@DU?$char_traits@D@std@@V?$allocator@D@2@@std@@V12@U?$less@V?$basic_string@DU?$char_traits@D@std@@V?$allocator@D@2@@std@@@2@V?$allocator@U?$pair@$$CBV?$basic_string@DU?$char_traits@D@std@@V?$allocator@D@2@@std@@V12@@std@@@2@@3@@Z$5 00421c51 f   ccConfig.obj
 0001:00020c5c       __unwindfunclet$?readConfigSectionAbs@ccConfig@@CAXABV?$basic_string@DU?$char_traits@D@std@@V?$allocator@D@2@@std@@0AAV?$map@V?$basic_string@DU?$char_traits@D@std@@V?$allocator@D@2@@std@@V12@U?$less@V?$basic_string@DU?$char_traits@D@std@@V?$allocator@D@2@@std@@@2@V?$allocator@U?$pair@$$CBV?$basic_string@DU?$char_traits@D@std@@V?$allocator@D@2@@std@@V12@@std@@@2@@3@@Z$4 00421c5c f   ccConfig.obj
 0001:00020c67       __ehhandler$?readConfigSectionAbs@ccConfig@@CAXABV?$basic_string@DU?$char_traits@D@std@@V?$allocator@D@2@@std@@0AAV?$map@V?$basic_string@DU?$char_traits@D@std@@V?$allocator@D@2@@std@@V12@U?$less@V?$basic_string@DU?$char_traits@D@std@@V?$allocator@D@2@@std@@@2@V?$allocator@U?$pair@$$CBV?$basic_string@DU?$char_traits@D@std@@V?$allocator@D@2@@std@@V12@@std@@@2@@3@@Z 00421c67 f   ccConfig.obj
 0001:00020c90       __unwindfunclet$?workstation@ccConfig@@SAHXZ$0 00421c90 f   ccConfig.obj
 0001:00020c98       __unwindfunclet$?workstation@ccConfig@@SAHXZ$1 00421c98 f   ccConfig.obj
 0001:00020ca0       __unwindfunclet$?workstation@ccConfig@@SAHXZ$2 00421ca0 f   ccConfig.obj
 0001:00020ca8       __unwindfunclet$?workstation@ccConfig@@SAHXZ$3 00421ca8 f   ccConfig.obj
 0001:00020cb0       __unwindfunclet$?workstation@ccConfig@@SAHXZ$4 00421cb0 f   ccConfig.obj
 0001:00020cb8       __unwindfunclet$?workstation@ccConfig@@SAHXZ$5 00421cb8 f   ccConfig.obj
 0001:00020cc0       __unwindfunclet$?workstation@ccConfig@@SAHXZ$6 00421cc0 f   ccConfig.obj
 0001:00020ccb       __unwindfunclet$?workstation@ccConfig@@SAHXZ$7 00421ccb f   ccConfig.obj
 0001:00020cd6       __unwindfunclet$?workstation@ccConfig@@SAHXZ$8 00421cd6 f   ccConfig.obj
 0001:00020cde       __ehhandler$?workstation@ccConfig@@SAHXZ 00421cde f   ccConfig.obj
 0001:00020d10       __unwindfunclet$??0ccDriver@@QAE@PAVIccDriverCallback@@ABV?$basic_string@DU?$char_traits@D@std@@V?$allocator@D@2@@std@@@Z$0 00421d10 f   ccDriver.obj
 0001:00020d1b       __unwindfunclet$??0ccDriver@@QAE@PAVIccDriverCallback@@ABV?$basic_string@DU?$char_traits@D@std@@V?$allocator@D@2@@std@@@Z$1 00421d1b f   ccDriver.obj
 0001:00020d2c       __ehhandler$??0ccDriver@@QAE@PAVIccDriverCallback@@ABV?$basic_string@DU?$char_traits@D@std@@V?$allocator@D@2@@std@@@Z 00421d2c f   ccDriver.obj
 0001:00020d60       __unwindfunclet$?WndProc@ccDriver@@CGJPAUHWND__@@IIJ@Z$5 00421d60 f   ccDriver.obj
 0001:00020d6b       __unwindfunclet$?WndProc@ccDriver@@CGJPAUHWND__@@IIJ@Z$6 00421d6b f   ccDriver.obj
 0001:00020d76       __unwindfunclet$?WndProc@ccDriver@@CGJPAUHWND__@@IIJ@Z$0 00421d76 f   ccDriver.obj
 0001:00020d81       __unwindfunclet$?WndProc@ccDriver@@CGJPAUHWND__@@IIJ@Z$1 00421d81 f   ccDriver.obj
 0001:00020d8c       __unwindfunclet$?WndProc@ccDriver@@CGJPAUHWND__@@IIJ@Z$2 00421d8c f   ccDriver.obj
 0001:00020d97       __unwindfunclet$?WndProc@ccDriver@@CGJPAUHWND__@@IIJ@Z$3 00421d97 f   ccDriver.obj
 0001:00020da2       __unwindfunclet$?WndProc@ccDriver@@CGJPAUHWND__@@IIJ@Z$4 00421da2 f   ccDriver.obj
 0001:00020dad       __unwindfunclet$?WndProc@ccDriver@@CGJPAUHWND__@@IIJ@Z$7 00421dad f   ccDriver.obj
 0001:00020db8       __unwindfunclet$?WndProc@ccDriver@@CGJPAUHWND__@@IIJ@Z$8 00421db8 f   ccDriver.obj
 0001:00020dc3       __ehhandler$?WndProc@ccDriver@@CGJPAUHWND__@@IIJ@Z 00421dc3 f   ccDriver.obj
 0001:00020df0       __unwindfunclet$?push_back@?$deque@VccDriverPost@@V?$allocator@VccDriverPost@@@std@@@std@@QAEX$$QAVccDriverPost@@@Z$0 00421df0 f   ccDriver.obj
 0001:00020df0       __unwindfunclet$?push_back@?$deque@V?$basic_string@DU?$char_traits@D@std@@V?$allocator@D@2@@std@@V?$allocator@V?$basic_string@DU?$char_traits@D@std@@V?$allocator@D@2@@std@@@2@@std@@QAEXABV?$basic_string@DU?$char_traits@D@std@@V?$allocator@D@2@@2@@Z$0 00421df0 f   ccDriver.obj
 0001:00020df0       __unwindfunclet$?push_back@?$deque@VccInfodriverPost@@V?$allocator@VccInfodriverPost@@@std@@@std@@QAEX$$QAVccInfodriverPost@@@Z$0 00421df0 f   ccDriver.obj
 0001:00020e01       __ehhandler$?push_back@?$deque@VccInfodriverPost@@V?$allocator@VccInfodriverPost@@@std@@@std@@QAEX$$QAVccInfodriverPost@@@Z 00421e01 f   ccDriver.obj
 0001:00020e01       __ehhandler$?push_back@?$deque@V?$basic_string@DU?$char_traits@D@std@@V?$allocator@D@2@@std@@V?$allocator@V?$basic_string@DU?$char_traits@D@std@@V?$allocator@D@2@@std@@@2@@std@@QAEXABV?$basic_string@DU?$char_traits@D@std@@V?$allocator@D@2@@2@@Z 00421e01 f   ccDriver.obj
 0001:00020e01       __ehhandler$?push_back@?$deque@VccDriverPost@@V?$allocator@VccDriverPost@@@std@@@std@@QAEX$$QAVccDriverPost@@@Z 00421e01 f   ccDriver.obj
 0001:00020e20       __unwindfunclet$??0ccInfodriver@@QAE@PAVIccInfodriverCallback@@ABV?$basic_string@DU?$char_traits@D@std@@V?$allocator@D@2@@std@@@Z$0 00421e20 f   ccInfodriver.obj
 0001:00020e2b       __unwindfunclet$??0ccInfodriver@@QAE@PAVIccInfodriverCallback@@ABV?$basic_string@DU?$char_traits@D@std@@V?$allocator@D@2@@std@@@Z$1 00421e2b f   ccInfodriver.obj
 0001:00020e39       __ehhandler$??0ccInfodriver@@QAE@PAVIccInfodriverCallback@@ABV?$basic_string@DU?$char_traits@D@std@@V?$allocator@D@2@@std@@@Z 00421e39 f   ccInfodriver.obj
 0001:00020e70       __unwindfunclet$??0ccDriverPost@@QAE@HHABV?$basic_string@DU?$char_traits@D@std@@V?$allocator@D@2@@std@@@Z$0 00421e70 f   ccInfodriver.obj
 0001:00020e70       __unwindfunclet$??0ccInfodriverPost@@QAE@HHABV?$basic_string@DU?$char_traits@D@std@@V?$allocator@D@2@@std@@@Z$0 00421e70 f   ccInfodriver.obj
 0001:00020e7b       __ehhandler$??0ccInfodriverPost@@QAE@HHABV?$basic_string@DU?$char_traits@D@std@@V?$allocator@D@2@@std@@@Z 00421e7b f   ccInfodriver.obj
 0001:00020e7b       __ehhandler$??0ccDriverPost@@QAE@HHABV?$basic_string@DU?$char_traits@D@std@@V?$allocator@D@2@@std@@@Z 00421e7b f   ccInfodriver.obj
 0001:00020ea0       __unwindfunclet$?WndProc@ccInfodriver@@CGJPAUHWND__@@IIJ@Z$5 00421ea0 f   ccInfodriver.obj
 0001:00020eab       __unwindfunclet$?WndProc@ccInfodriver@@CGJPAUHWND__@@IIJ@Z$6 00421eab f   ccInfodriver.obj
 0001:00020eb6       __unwindfunclet$?WndProc@ccInfodriver@@CGJPAUHWND__@@IIJ@Z$0 00421eb6 f   ccInfodriver.obj
 0001:00020ebe       __unwindfunclet$?WndProc@ccInfodriver@@CGJPAUHWND__@@IIJ@Z$1 00421ebe f   ccInfodriver.obj
 0001:00020ec9       __unwindfunclet$?WndProc@ccInfodriver@@CGJPAUHWND__@@IIJ@Z$2 00421ec9 f   ccInfodriver.obj
 0001:00020ed1       __unwindfunclet$?WndProc@ccInfodriver@@CGJPAUHWND__@@IIJ@Z$3 00421ed1 f   ccInfodriver.obj
 0001:00020ed9       __unwindfunclet$?WndProc@ccInfodriver@@CGJPAUHWND__@@IIJ@Z$4 00421ed9 f   ccInfodriver.obj
 0001:00020ee1       __unwindfunclet$?WndProc@ccInfodriver@@CGJPAUHWND__@@IIJ@Z$7 00421ee1 f   ccInfodriver.obj
 0001:00020eec       __unwindfunclet$?WndProc@ccInfodriver@@CGJPAUHWND__@@IIJ@Z$8 00421eec f   ccInfodriver.obj
 0001:00020ef7       __ehhandler$?WndProc@ccInfodriver@@CGJPAUHWND__@@IIJ@Z 00421ef7 f   ccInfodriver.obj
 0001:00020f20       __ehhandler$??$_Insert_nohint@AAU?$pair@$$CBHV?$basic_string@DU?$char_traits@D@std@@V?$allocator@D@2@@std@@@std@@PAU?$_Tree_node@U?$pair@$$CBHV?$basic_string@DU?$char_traits@D@std@@V?$allocator@D@2@@std@@@std@@PAX@2@@?$_Tree@V?$_Tmap_traits@HV?$basic_string@DU?$char_traits@D@std@@V?$allocator@D@2@@std@@U?$less@H@2@V?$allocator@U?$pair@$$CBHV?$basic_string@DU?$char_traits@D@std@@V?$allocator@D@2@@std@@@std@@@2@$0A@@std@@@std@@IAE?AU?$pair@V?$_Tree_iterator@V?$_Tree_val@U?$_Tree_simple_types@U?$pair@$$CBHV?$basic_string@DU?$char_traits@D@std@@V?$allocator@D@2@@std@@@std@@@std@@@std@@@std@@_N@1@_NAAU?$pair@$$CBHV?$basic_string@DU?$char_traits@D@std@@V?$allocator@D@2@@std@@@1@PAU?$_Tree_node@U?$pair@$$CBHV?$basic_string@DU?$char_traits@D@std@@V?$allocator@D@2@@std@@@std@@PAX@1@@Z 00421f20 f   database.obj
 0001:00020f40       __unwindfunclet$??0database@@QAE@PBDHH@Z$0 00421f40 f   database.obj
 0001:00020f4b       __unwindfunclet$??0database@@QAE@PBDHH@Z$1 00421f4b f   database.obj
 0001:00020f56       __ehhandler$??0database@@QAE@PBDHH@Z 00421f56 f   database.obj
 0001:00020f80       __unwindfunclet$?load@database@@AAEXPBDHH@Z$0 00421f80 f   database.obj
 0001:00020f8b       __unwindfunclet$?load@database@@AAEXPBDHH@Z$1 00421f8b f   database.obj
 0001:00020f96       __ehhandler$?load@database@@AAEXPBDHH@Z 00421f96 f   database.obj
 0001:00020fc0       __unwindfunclet$?setName@database@@QAE_NHPBD_NPA_N@Z$0 00421fc0 f   database.obj
 0001:00020fc8       __ehhandler$?setName@database@@QAE_NHPBD_NPA_N@Z 00421fc8 f   database.obj
 0001:00020ff0       __ehhandler$??$_Insert_nohint@AAU?$pair@$$CBHPAVdatabase@@@std@@PAU?$_Tree_node@U?$pair@$$CBHPAVdatabase@@@std@@PAX@2@@?$_Tree@V?$_Tmap_traits@HPAVdatabase@@U?$less@H@std@@V?$allocator@U?$pair@$$CBHPAVdatabase@@@std@@@3@$0A@@std@@@std@@IAE?AU?$pair@V?$_Tree_iterator@V?$_Tree_val@U?$_Tree_simple_types@U?$pair@$$CBHPAVdatabase@@@std@@@std@@@std@@@std@@_N@1@_NAAU?$pair@$$CBHPAVdatabase@@@1@PAU?$_Tree_node@U?$pair@$$CBHPAVdatabase@@@std@@PAX@1@@Z 00421ff0 f   databaseMgr.obj
 0001:00021010       __unwindfunclet$??_GdatabaseMgr@@UAEPAXI@Z$0 00422010 f   databaseMgr.obj
 0001:00021010       __unwindfunclet$??0databaseMgr@@QAE@PBD@Z$0 00422010 f   databaseMgr.obj
 0001:0002101b       __ehhandler$??0databaseMgr@@QAE@PBD@Z 0042201b f   databaseMgr.obj
 0001:0002101b       __ehhandler$??_GdatabaseMgr@@UAEPAXI@Z 0042201b f   databaseMgr.obj
 0001:00021040       __unwindfunclet$??1databaseMgr@@UAE@XZ$0 00422040 f   databaseMgr.obj
 0001:0002104b       __ehhandler$??1databaseMgr@@UAE@XZ 0042204b f   databaseMgr.obj
 0001:00021070       __unwindfunclet$?getDatabaseObject@databaseMgr@@AAEPAVdatabase@@HH_N@Z$0 00422070 f   databaseMgr.obj
 0001:0002107b       __ehhandler$?getDatabaseObject@databaseMgr@@AAEPAVdatabase@@HH_N@Z 0042207b f   databaseMgr.obj
 0001:000210a0       __unwindfunclet$??H@YA?BVQString@@ABV0@PBD@Z$0 004220a0 f   appGlobal.obj
 0001:000210ba       __unwindfunclet$??H@YA?BVQString@@ABV0@PBD@Z$1 004220ba f   appGlobal.obj
 0001:000210c3       __ehhandler$??H@YA?BVQString@@ABV0@PBD@Z 004220c3 f   appGlobal.obj
 0001:000210e0       __unwindfunclet$??H@YA?BVQString@@ABV0@0@Z$0 004220e0 f   appGlobal.obj
 0001:000210e0       __unwindfunclet$??H@YA?BVQString@@PBDABV0@@Z$0 004220e0 f   appGlobal.obj
 0001:000210fa       __ehhandler$??H@YA?BVQString@@PBDABV0@@Z 004220fa f   appGlobal.obj
 0001:000210fa       __ehhandler$??H@YA?BVQString@@ABV0@0@Z 004220fa f   appGlobal.obj
 0001:00021120       __unwindfunclet$?configFilename@appGlobal@@SA?AVQString@@XZ$0 00422120 f   appGlobal.obj
 0001:0002113a       __unwindfunclet$?configFilename@appGlobal@@SA?AVQString@@XZ$1 0042213a f   appGlobal.obj
 0001:00021143       __ehhandler$?configFilename@appGlobal@@SA?AVQString@@XZ 00422143 f   appGlobal.obj
 0001:00021160       __unwindfunclet$?log@appGlobal@@SAXABVQString@@@Z$0 00422160 f   appGlobal.obj
 0001:00021169       __unwindfunclet$?log@appGlobal@@SAXABVQString@@@Z$1 00422169 f   appGlobal.obj
 0001:00021172       __unwindfunclet$?log@appGlobal@@SAXABVQString@@@Z$2 00422172 f   appGlobal.obj
 0001:0002117b       __unwindfunclet$?log@appGlobal@@SAXABVQString@@@Z$3 0042217b f   appGlobal.obj
 0001:00021184       __unwindfunclet$?log@appGlobal@@SAXABVQString@@@Z$4 00422184 f   appGlobal.obj
 0001:0002118d       __ehhandler$?log@appGlobal@@SAXABVQString@@@Z 0042218d f   appGlobal.obj
 0001:000211b0       __unwindfunclet$?logError@appGlobal@@SAXABVQString@@@Z$0 004221b0 f   appGlobal.obj
 0001:000211b9       __unwindfunclet$?logError@appGlobal@@SAXABVQString@@@Z$1 004221b9 f   appGlobal.obj
 0001:000211c2       __unwindfunclet$?logError@appGlobal@@SAXABVQString@@@Z$2 004221c2 f   appGlobal.obj
 0001:000211cb       __unwindfunclet$?logError@appGlobal@@SAXABVQString@@@Z$3 004221cb f   appGlobal.obj
 0001:000211d4       __unwindfunclet$?logError@appGlobal@@SAXABVQString@@@Z$4 004221d4 f   appGlobal.obj
 0001:000211dd       __unwindfunclet$?logError@appGlobal@@SAXABVQString@@@Z$5 004221dd f   appGlobal.obj
 0001:000211e6       __unwindfunclet$?logError@appGlobal@@SAXABVQString@@@Z$6 004221e6 f   appGlobal.obj
 0001:000211ef       __ehhandler$?logError@appGlobal@@SAXABVQString@@@Z 004221ef f   appGlobal.obj
 0001:00021210       __unwindfunclet$?setLog@appGlobal@@SAXPAVQTextEdit@@H@Z$0 00422210 f   appGlobal.obj
 0001:0002121b       __unwindfunclet$?setLog@appGlobal@@SAXPAVQTextEdit@@H@Z$1 0042221b f   appGlobal.obj
 0001:00021235       __unwindfunclet$?setLog@appGlobal@@SAXPAVQTextEdit@@H@Z$2 00422235 f   appGlobal.obj
 0001:0002124f       __ehhandler$?setLog@appGlobal@@SAXPAVQTextEdit@@H@Z 0042224f f   appGlobal.obj
 0001:00021270       __unwindfunclet$??0fabianClient@@QAE@PAVQObject@@PAVIfabianClient_callback@@ABVQString@@I2I_N@Z$0 00422270 f   fabianClient.obj
 0001:00021279       __unwindfunclet$??0fabianClient@@QAE@PAVQObject@@PAVIfabianClient_callback@@ABVQString@@I2I_N@Z$1 00422279 f   fabianClient.obj
 0001:00021285       __unwindfunclet$??0fabianClient@@QAE@PAVQObject@@PAVIfabianClient_callback@@ABVQString@@I2I_N@Z$2 00422285 f   fabianClient.obj
 0001:0002128e       __unwindfunclet$??0fabianClient@@QAE@PAVQObject@@PAVIfabianClient_callback@@ABVQString@@I2I_N@Z$3 0042228e f   fabianClient.obj
 0001:00021297       __unwindfunclet$??0fabianClient@@QAE@PAVQObject@@PAVIfabianClient_callback@@ABVQString@@I2I_N@Z$5 00422297 f   fabianClient.obj
 0001:000212a2       __ehhandler$??0fabianClient@@QAE@PAVQObject@@PAVIfabianClient_callback@@ABVQString@@I2I_N@Z 004222a2 f   fabianClient.obj
 0001:000212c0       __unwindfunclet$??_GfabianClient@@UAEPAXI@Z$0 004222c0 f   fabianClient.obj
 0001:000212c9       __unwindfunclet$??_GfabianClient@@UAEPAXI@Z$1 004222c9 f   fabianClient.obj
 0001:000212d5       __ehhandler$??_GfabianClient@@UAEPAXI@Z 004222d5 f   fabianClient.obj
 0001:000212f0       __unwindfunclet$?bufParse@fabianClient@@AAEHPADH@Z$0 004222f0 f   fabianClient.obj
 0001:000212f9       __ehhandler$?bufParse@fabianClient@@AAEHPADH@Z 004222f9 f   fabianClient.obj
 0001:00021320       __unwindfunclet$?revertiveDeregister@fabianClient@@QAEXI@Z$0 00422320 f   fabianClient.obj
 0001:00021320       __unwindfunclet$?deviceProfile@fabianClient@@QAEXI@Z$0 00422320 f   fabianClient.obj
 0001:00021329       __unwindfunclet$?revertiveDeregister@fabianClient@@QAEXI@Z$1 00422329 f   fabianClient.obj
 0001:00021329       __unwindfunclet$?deviceProfile@fabianClient@@QAEXI@Z$1 00422329 f   fabianClient.obj
 0001:00021332       __ehhandler$?revertiveDeregister@fabianClient@@QAEXI@Z 00422332 f   fabianClient.obj
 0001:00021332       __ehhandler$?deviceProfile@fabianClient@@QAEXI@Z 00422332 f   fabianClient.obj
 0001:00021350       __unwindfunclet$?gpiPoll@fabianClient@@QAEXIII@Z$0 00422350 f   fabianClient.obj
 0001:00021350       __unwindfunclet$?infoPoll@fabianClient@@QAEXIII@Z$0 00422350 f   fabianClient.obj
 0001:00021350       __unwindfunclet$?infoWrite@fabianClient@@QAEXIIABVQString@@@Z$0 00422350 f   fabianClient.obj
 0001:00021350       __unwindfunclet$?rtrPoll@fabianClient@@QAEXIII@Z$0 00422350 f   fabianClient.obj
 0001:00021350       __unwindfunclet$?gpiSwitch@fabianClient@@QAEXII_N@Z$0 00422350 f   fabianClient.obj
 0001:00021350       __unwindfunclet$?revertiveRegister@fabianClient@@QAEXIII@Z$0 00422350 f   fabianClient.obj
 0001:00021359       __unwindfunclet$?gpiPoll@fabianClient@@QAEXIII@Z$1 00422359 f   fabianClient.obj
 0001:00021359       __unwindfunclet$?rtrPoll@fabianClient@@QAEXIII@Z$1 00422359 f   fabianClient.obj
 0001:00021359       __unwindfunclet$?infoPoll@fabianClient@@QAEXIII@Z$1 00422359 f   fabianClient.obj
 0001:00021359       __unwindfunclet$?infoWrite@fabianClient@@QAEXIIABVQString@@@Z$1 00422359 f   fabianClient.obj
 0001:00021359       __unwindfunclet$?revertiveRegister@fabianClient@@QAEXIII@Z$1 00422359 f   fabianClient.obj
 0001:00021359       __unwindfunclet$?gpiSwitch@fabianClient@@QAEXII_N@Z$1 00422359 f   fabianClient.obj
 0001:00021362       __unwindfunclet$?gpiPoll@fabianClient@@QAEXIII@Z$2 00422362 f   fabianClient.obj
 0001:00021362       __unwindfunclet$?gpiSwitch@fabianClient@@QAEXII_N@Z$2 00422362 f   fabianClient.obj
 0001:00021362       __unwindfunclet$?rtrPoll@fabianClient@@QAEXIII@Z$2 00422362 f   fabianClient.obj
 0001:00021362       __unwindfunclet$?revertiveRegister@fabianClient@@QAEXIII@Z$2 00422362 f   fabianClient.obj
 0001:00021362       __unwindfunclet$?infoWrite@fabianClient@@QAEXIIABVQString@@@Z$2 00422362 f   fabianClient.obj
 0001:00021362       __unwindfunclet$?infoPoll@fabianClient@@QAEXIII@Z$2 00422362 f   fabianClient.obj
 0001:0002136b       __unwindfunclet$?gpiPoll@fabianClient@@QAEXIII@Z$3 0042236b f   fabianClient.obj
 0001:0002136b       __unwindfunclet$?revertiveRegister@fabianClient@@QAEXIII@Z$3 0042236b f   fabianClient.obj
 0001:0002136b       __unwindfunclet$?gpiSwitch@fabianClient@@QAEXII_N@Z$3 0042236b f   fabianClient.obj
 0001:0002136b       __unwindfunclet$?infoWrite@fabianClient@@QAEXIIABVQString@@@Z$3 0042236b f   fabianClient.obj
 0001:0002136b       __unwindfunclet$?infoPoll@fabianClient@@QAEXIII@Z$3 0042236b f   fabianClient.obj
 0001:0002136b       __unwindfunclet$?rtrPoll@fabianClient@@QAEXIII@Z$3 0042236b f   fabianClient.obj
 0001:00021374       __ehhandler$?infoPoll@fabianClient@@QAEXIII@Z 00422374 f   fabianClient.obj
 0001:00021374       __ehhandler$?gpiSwitch@fabianClient@@QAEXII_N@Z 00422374 f   fabianClient.obj
 0001:00021374       __ehhandler$?revertiveRegister@fabianClient@@QAEXIII@Z 00422374 f   fabianClient.obj
 0001:00021374       __ehhandler$?gpiPoll@fabianClient@@QAEXIII@Z 00422374 f   fabianClient.obj
 0001:00021374       __ehhandler$?rtrPoll@fabianClient@@QAEXIII@Z 00422374 f   fabianClient.obj
 0001:00021374       __ehhandler$?infoWrite@fabianClient@@QAEXIIABVQString@@@Z 00422374 f   fabianClient.obj
 0001:00021390       __unwindfunclet$?lineParse@fabianClient@@AAEXABVQString@@@Z$0 00422390 f   fabianClient.obj
 0001:0002139c       __unwindfunclet$?lineParse@fabianClient@@AAEXABVQString@@@Z$1 0042239c f   fabianClient.obj
 0001:000213a8       __unwindfunclet$?lineParse@fabianClient@@AAEXABVQString@@@Z$2 004223a8 f   fabianClient.obj
 0001:000213b4       __unwindfunclet$?lineParse@fabianClient@@AAEXABVQString@@@Z$3 004223b4 f   fabianClient.obj
 0001:000213c0       __unwindfunclet$?lineParse@fabianClient@@AAEXABVQString@@@Z$4 004223c0 f   fabianClient.obj
 0001:000213cc       __unwindfunclet$?lineParse@fabianClient@@AAEXABVQString@@@Z$5 004223cc f   fabianClient.obj
 0001:000213d8       __unwindfunclet$?lineParse@fabianClient@@AAEXABVQString@@@Z$6 004223d8 f   fabianClient.obj
 0001:000213e4       __unwindfunclet$?lineParse@fabianClient@@AAEXABVQString@@@Z$7 004223e4 f   fabianClient.obj
 0001:000213f0       __unwindfunclet$?lineParse@fabianClient@@AAEXABVQString@@@Z$8 004223f0 f   fabianClient.obj
 0001:000213fc       __unwindfunclet$?lineParse@fabianClient@@AAEXABVQString@@@Z$9 004223fc f   fabianClient.obj
 0001:00021408       __unwindfunclet$?lineParse@fabianClient@@AAEXABVQString@@@Z$10 00422408 f   fabianClient.obj
 0001:00021414       __unwindfunclet$?lineParse@fabianClient@@AAEXABVQString@@@Z$11 00422414 f   fabianClient.obj
 0001:00021420       __unwindfunclet$?lineParse@fabianClient@@AAEXABVQString@@@Z$12 00422420 f   fabianClient.obj
 0001:0002142c       __unwindfunclet$?lineParse@fabianClient@@AAEXABVQString@@@Z$13 0042242c f   fabianClient.obj
 0001:00021438       __unwindfunclet$?lineParse@fabianClient@@AAEXABVQString@@@Z$14 00422438 f   fabianClient.obj
 0001:00021444       __unwindfunclet$?lineParse@fabianClient@@AAEXABVQString@@@Z$15 00422444 f   fabianClient.obj
 0001:00021450       __unwindfunclet$?lineParse@fabianClient@@AAEXABVQString@@@Z$16 00422450 f   fabianClient.obj
 0001:0002145c       __unwindfunclet$?lineParse@fabianClient@@AAEXABVQString@@@Z$17 0042245c f   fabianClient.obj
 0001:00021468       __unwindfunclet$?lineParse@fabianClient@@AAEXABVQString@@@Z$18 00422468 f   fabianClient.obj
 0001:00021470       __unwindfunclet$?lineParse@fabianClient@@AAEXABVQString@@@Z$19 00422470 f   fabianClient.obj
 0001:0002147c       __unwindfunclet$?lineParse@fabianClient@@AAEXABVQString@@@Z$20 0042247c f   fabianClient.obj
 0001:00021487       __unwindfunclet$?lineParse@fabianClient@@AAEXABVQString@@@Z$21 00422487 f   fabianClient.obj
 0001:00021492       __unwindfunclet$?lineParse@fabianClient@@AAEXABVQString@@@Z$22 00422492 f   fabianClient.obj
 0001:0002149a       __unwindfunclet$?lineParse@fabianClient@@AAEXABVQString@@@Z$23 0042249a f   fabianClient.obj
 0001:000214a2       __unwindfunclet$?lineParse@fabianClient@@AAEXABVQString@@@Z$24 004224a2 f   fabianClient.obj
 0001:000214ad       __unwindfunclet$?lineParse@fabianClient@@AAEXABVQString@@@Z$25 004224ad f   fabianClient.obj
 0001:000214b9       __unwindfunclet$?lineParse@fabianClient@@AAEXABVQString@@@Z$26 004224b9 f   fabianClient.obj
 0001:000214c4       __unwindfunclet$?lineParse@fabianClient@@AAEXABVQString@@@Z$27 004224c4 f   fabianClient.obj
 0001:000214cc       __unwindfunclet$?lineParse@fabianClient@@AAEXABVQString@@@Z$28 004224cc f   fabianClient.obj
 0001:000214d7       __unwindfunclet$?lineParse@fabianClient@@AAEXABVQString@@@Z$29 004224d7 f   fabianClient.obj
 0001:000214e3       __unwindfunclet$?lineParse@fabianClient@@AAEXABVQString@@@Z$30 004224e3 f   fabianClient.obj
 0001:000214ee       __unwindfunclet$?lineParse@fabianClient@@AAEXABVQString@@@Z$31 004224ee f   fabianClient.obj
 0001:000214f9       __unwindfunclet$?lineParse@fabianClient@@AAEXABVQString@@@Z$32 004224f9 f   fabianClient.obj
 0001:00021504       __unwindfunclet$?lineParse@fabianClient@@AAEXABVQString@@@Z$33 00422504 f   fabianClient.obj
 0001:00021510       __unwindfunclet$?lineParse@fabianClient@@AAEXABVQString@@@Z$34 00422510 f   fabianClient.obj
 0001:0002151c       __unwindfunclet$?lineParse@fabianClient@@AAEXABVQString@@@Z$35 0042251c f   fabianClient.obj
 0001:00021528       __unwindfunclet$?lineParse@fabianClient@@AAEXABVQString@@@Z$36 00422528 f   fabianClient.obj
 0001:00021534       __unwindfunclet$?lineParse@fabianClient@@AAEXABVQString@@@Z$37 00422534 f   fabianClient.obj
 0001:00021540       __unwindfunclet$?lineParse@fabianClient@@AAEXABVQString@@@Z$38 00422540 f   fabianClient.obj
 0001:0002154c       __unwindfunclet$?lineParse@fabianClient@@AAEXABVQString@@@Z$39 0042254c f   fabianClient.obj
 0001:00021558       __unwindfunclet$?lineParse@fabianClient@@AAEXABVQString@@@Z$40 00422558 f   fabianClient.obj
 0001:00021564       __unwindfunclet$?lineParse@fabianClient@@AAEXABVQString@@@Z$41 00422564 f   fabianClient.obj
 0001:00021570       __unwindfunclet$?lineParse@fabianClient@@AAEXABVQString@@@Z$42 00422570 f   fabianClient.obj
 0001:0002157c       __unwindfunclet$?lineParse@fabianClient@@AAEXABVQString@@@Z$43 0042257c f   fabianClient.obj
 0001:00021588       __unwindfunclet$?lineParse@fabianClient@@AAEXABVQString@@@Z$44 00422588 f   fabianClient.obj
 0001:00021594       __unwindfunclet$?lineParse@fabianClient@@AAEXABVQString@@@Z$45 00422594 f   fabianClient.obj
 0001:000215a0       __unwindfunclet$?lineParse@fabianClient@@AAEXABVQString@@@Z$46 004225a0 f   fabianClient.obj
 0001:000215ac       __unwindfunclet$?lineParse@fabianClient@@AAEXABVQString@@@Z$47 004225ac f   fabianClient.obj
 0001:000215b8       __unwindfunclet$?lineParse@fabianClient@@AAEXABVQString@@@Z$48 004225b8 f   fabianClient.obj
 0001:000215c4       __unwindfunclet$?lineParse@fabianClient@@AAEXABVQString@@@Z$49 004225c4 f   fabianClient.obj
 0001:000215cf       __unwindfunclet$?lineParse@fabianClient@@AAEXABVQString@@@Z$50 004225cf f   fabianClient.obj
 0001:000215db       __unwindfunclet$?lineParse@fabianClient@@AAEXABVQString@@@Z$51 004225db f   fabianClient.obj
 0001:000215e7       __unwindfunclet$?lineParse@fabianClient@@AAEXABVQString@@@Z$52 004225e7 f   fabianClient.obj
 0001:000215f3       __unwindfunclet$?lineParse@fabianClient@@AAEXABVQString@@@Z$53 004225f3 f   fabianClient.obj
 0001:000215ff       __unwindfunclet$?lineParse@fabianClient@@AAEXABVQString@@@Z$54 004225ff f   fabianClient.obj
 0001:0002160b       __unwindfunclet$?lineParse@fabianClient@@AAEXABVQString@@@Z$55 0042260b f   fabianClient.obj
 0001:00021617       __unwindfunclet$?lineParse@fabianClient@@AAEXABVQString@@@Z$56 00422617 f   fabianClient.obj
 0001:00021623       __unwindfunclet$?lineParse@fabianClient@@AAEXABVQString@@@Z$57 00422623 f   fabianClient.obj
 0001:0002162f       __unwindfunclet$?lineParse@fabianClient@@AAEXABVQString@@@Z$58 0042262f f   fabianClient.obj
 0001:0002163b       __ehhandler$?lineParse@fabianClient@@AAEXABVQString@@@Z 0042263b f   fabianClient.obj
 0001:00021670       __unwindfunclet$?peerAddress@fabianClient@@QAE?AVQString@@XZ$0 00422670 f   fabianClient.obj
 0001:00021679       __ehhandler$?peerAddress@fabianClient@@QAE?AVQString@@XZ 00422679 f   fabianClient.obj
 0001:000216a0       __unwindfunclet$?infoLock@fabianClient@@QAEXIII_N@Z$0 004226a0 f   fabianClient.obj
 0001:000216a0       __unwindfunclet$?rtrLock@fabianClient@@QAEXIII_N@Z$0 004226a0 f   fabianClient.obj
 0001:000216a0       __unwindfunclet$?rtrCrosspoint@fabianClient@@QAEXIIHABVQString@@@Z$0 004226a0 f   fabianClient.obj
 0001:000216a0       __unwindfunclet$?rtrModify@fabianClient@@QAEXIIIABVQString@@_NI@Z$0 004226a0 f   fabianClient.obj
 0001:000216a0       __unwindfunclet$?gpiLock@fabianClient@@QAEXIII_N@Z$0 004226a0 f   fabianClient.obj
 0001:000216a9       __unwindfunclet$?infoLock@fabianClient@@QAEXIII_N@Z$1 004226a9 f   fabianClient.obj
 0001:000216a9       __unwindfunclet$?rtrModify@fabianClient@@QAEXIIIABVQString@@_NI@Z$1 004226a9 f   fabianClient.obj
 0001:000216a9       __unwindfunclet$?gpiLock@fabianClient@@QAEXIII_N@Z$1 004226a9 f   fabianClient.obj
 0001:000216a9       __unwindfunclet$?rtrLock@fabianClient@@QAEXIII_N@Z$1 004226a9 f   fabianClient.obj
 0001:000216a9       __unwindfunclet$?rtrCrosspoint@fabianClient@@QAEXIIHABVQString@@@Z$1 004226a9 f   fabianClient.obj
 0001:000216b2       __unwindfunclet$?rtrLock@fabianClient@@QAEXIII_N@Z$2 004226b2 f   fabianClient.obj
 0001:000216b2       __unwindfunclet$?rtrModify@fabianClient@@QAEXIIIABVQString@@_NI@Z$2 004226b2 f   fabianClient.obj
 0001:000216b2       __unwindfunclet$?gpiLock@fabianClient@@QAEXIII_N@Z$2 004226b2 f   fabianClient.obj
 0001:000216b2       __unwindfunclet$?rtrCrosspoint@fabianClient@@QAEXIIHABVQString@@@Z$2 004226b2 f   fabianClient.obj
 0001:000216b2       __unwindfunclet$?infoLock@fabianClient@@QAEXIII_N@Z$2 004226b2 f   fabianClient.obj
 0001:000216bb       __unwindfunclet$?rtrLock@fabianClient@@QAEXIII_N@Z$3 004226bb f   fabianClient.obj
 0001:000216bb       __unwindfunclet$?rtrModify@fabianClient@@QAEXIIIABVQString@@_NI@Z$3 004226bb f   fabianClient.obj
 0001:000216bb       __unwindfunclet$?rtrCrosspoint@fabianClient@@QAEXIIHABVQString@@@Z$3 004226bb f   fabianClient.obj
 0001:000216bb       __unwindfunclet$?infoLock@fabianClient@@QAEXIII_N@Z$3 004226bb f   fabianClient.obj
 0001:000216bb       __unwindfunclet$?gpiLock@fabianClient@@QAEXIII_N@Z$3 004226bb f   fabianClient.obj
 0001:000216c4       __unwindfunclet$?gpiLock@fabianClient@@QAEXIII_N@Z$4 004226c4 f   fabianClient.obj
 0001:000216c4       __unwindfunclet$?rtrCrosspoint@fabianClient@@QAEXIIHABVQString@@@Z$4 004226c4 f   fabianClient.obj
 0001:000216c4       __unwindfunclet$?infoLock@fabianClient@@QAEXIII_N@Z$4 004226c4 f   fabianClient.obj
 0001:000216c4       __unwindfunclet$?rtrModify@fabianClient@@QAEXIIIABVQString@@_NI@Z$4 004226c4 f   fabianClient.obj
 0001:000216c4       __unwindfunclet$?rtrLock@fabianClient@@QAEXIII_N@Z$4 004226c4 f   fabianClient.obj
 0001:000216cd       __ehhandler$?rtrCrosspoint@fabianClient@@QAEXIIHABVQString@@@Z 004226cd f   fabianClient.obj
 0001:000216cd       __ehhandler$?infoLock@fabianClient@@QAEXIII_N@Z 004226cd f   fabianClient.obj
 0001:000216cd       __ehhandler$?gpiLock@fabianClient@@QAEXIII_N@Z 004226cd f   fabianClient.obj
 0001:000216cd       __ehhandler$?rtrLock@fabianClient@@QAEXIII_N@Z 004226cd f   fabianClient.obj
 0001:000216cd       __ehhandler$?rtrModify@fabianClient@@QAEXIIIABVQString@@_NI@Z 004226cd f   fabianClient.obj
 0001:000216f0       __unwindfunclet$?socketConnected@persistentSocket@@QAEXXZ$0 004226f0 f   fabianClient.obj
 0001:000216f0       __unwindfunclet$?socketDisconnected@persistentSocket@@QAEXXZ$0 004226f0 f   fabianClient.obj
 0001:000216f0       __unwindfunclet$?timerEvent@fabianClient@@MAEXPAVQTimerEvent@@@Z$0 004226f0 f   fabianClient.obj
 0001:000216f9       __ehhandler$?socketConnected@persistentSocket@@QAEXXZ 004226f9 f   fabianClient.obj
 0001:000216f9       __ehhandler$?socketDisconnected@persistentSocket@@QAEXXZ 004226f9 f   fabianClient.obj
 0001:000216f9       __ehhandler$?timerEvent@fabianClient@@MAEXPAVQTimerEvent@@@Z 004226f9 f   fabianClient.obj
 0001:00021720       __unwindfunclet$?write@fabianClient@@AAEXABVQString@@@Z$0 00422720 f   fabianClient.obj
 0001:00021729       __unwindfunclet$?write@fabianClient@@AAEXABVQString@@@Z$1 00422729 f   fabianClient.obj
 0001:00021732       __unwindfunclet$?write@fabianClient@@AAEXABVQString@@@Z$2 00422732 f   fabianClient.obj
 0001:0002173b       __unwindfunclet$?write@fabianClient@@AAEXABVQString@@@Z$3 0042273b f   fabianClient.obj
 0001:00021744       __unwindfunclet$?write@fabianClient@@AAEXABVQString@@@Z$4 00422744 f   fabianClient.obj
 0001:0002174d       __ehhandler$?write@fabianClient@@AAEXABVQString@@@Z 0042274d f   fabianClient.obj
 0001:00021770       __ehhandler$??0?$QList@VQSslError@@@@QAE@ABV0@@Z 00422770 f   moc_persistentSocket.obj
 0001:00021790       __unwindfunclet$?Construct@?$QMetaTypeFunctionHelper@V?$QList@VQSslError@@@@$00@QtMetaTypePrivate@@SAPAXPAXPBX@Z$0 00422790 f   moc_persistentSocket.obj
 0001:000217a1       __ehhandler$?Construct@?$QMetaTypeFunctionHelper@V?$QList@VQSslError@@@@$00@QtMetaTypePrivate@@SAPAXPAXPBX@Z 004227a1 f   moc_persistentSocket.obj
 0001:000217c0       __unwindfunclet$?node_copy@?$QList@VQSslError@@@@AAEXPAUNode@1@00@Z$5 004227c0 f   moc_persistentSocket.obj
 0001:000217d1       __ehhandler$?node_copy@?$QList@VQSslError@@@@AAEXPAUNode@1@00@Z 004227d1 f   moc_persistentSocket.obj
 0001:000217f0       __unwindfunclet$?qt_metatype_id@?$QMetaTypeId@V?$QList@VQSslError@@@@@@SAHXZ$0 004227f0 f   moc_persistentSocket.obj
 0001:000217f0       __unwindfunclet$?qt_metatype_id@?$QMetaTypeId@W4SocketError@QAbstractSocket@@@@SAHXZ$0 004227f0 f   moc_persistentSocket.obj
 0001:000217f9       __ehhandler$?qt_metatype_id@?$QMetaTypeId@V?$QList@VQSslError@@@@@@SAHXZ 004227f9 f   moc_persistentSocket.obj
 0001:000217f9       __ehhandler$?qt_metatype_id@?$QMetaTypeId@W4SocketError@QAbstractSocket@@@@SAHXZ 004227f9 f   moc_persistentSocket.obj
 0001:00021820       __ehhandler$?append@?$QList@VQString@@@@QAEXABVQString@@@Z 00422820 f   main.obj
 0001:00021840       __ehhandler$?detach_helper_grow@?$QList@VQString@@@@AAEPAUNode@1@HH@Z 00422840 f   main.obj
 0001:00021860       __unwindfunclet$_main$0    00422860 f   main.obj
 0001:0002186c       __unwindfunclet$_main$1    0042286c f   main.obj
 0001:00021878       __unwindfunclet$_main$2    00422878 f   main.obj
 0001:00021884       __unwindfunclet$_main$3    00422884 f   main.obj
 0001:00021890       __unwindfunclet$_main$4    00422890 f   main.obj
 0001:0002189c       __unwindfunclet$_main$5    0042289c f   main.obj
 0001:000218a8       __unwindfunclet$_main$6    004228a8 f   main.obj
 0001:000218b3       __unwindfunclet$_main$7    004228b3 f   main.obj
 0001:000218bf       __unwindfunclet$_main$8    004228bf f   main.obj
 0001:000218ca       __unwindfunclet$_main$9    004228ca f   main.obj
 0001:000218d6       __unwindfunclet$_main$10   004228d6 f   main.obj
 0001:000218e1       __ehhandler$_main          004228e1 f   main.obj
 0001:00021910       __unwindfunclet$??$_Insert_at@AAU?$pair@$$CBVQString@@V1@@std@@PAU?$_Tree_node@U?$pair@$$CBVQString@@V1@@std@@PAX@2@@?$_Tree@V?$_Tmap_traits@VQString@@V1@U?$less@VQString@@@std@@V?$allocator@U?$pair@$$CBVQString@@V1@@std@@@3@$0A@@std@@@std@@IAE?AV?$_Tree_iterator@V?$_Tree_val@U?$_Tree_simple_types@U?$pair@$$CBVQString@@V1@@std@@@std@@@std@@@1@_NPAU?$_Tree_node@U?$pair@$$CBVQString@@V1@@std@@PAX@1@AAU?$pair@$$CBVQString@@V1@@1@1@Z$0 00422910 f   netStatus.obj
 0001:00021919       __ehhandler$??$_Insert_at@AAU?$pair@$$CBVQString@@V1@@std@@PAU?$_Tree_node@U?$pair@$$CBVQString@@V1@@std@@PAX@2@@?$_Tree@V?$_Tmap_traits@VQString@@V1@U?$less@VQString@@@std@@V?$allocator@U?$pair@$$CBVQString@@V1@@std@@@3@$0A@@std@@@std@@IAE?AV?$_Tree_iterator@V?$_Tree_val@U?$_Tree_simple_types@U?$pair@$$CBVQString@@V1@@std@@@std@@@std@@@1@_NPAU?$_Tree_node@U?$pair@$$CBVQString@@V1@@std@@PAX@1@AAU?$pair@$$CBVQString@@V1@@1@1@Z 00422919 f   netStatus.obj
 0001:00021940       __unwindfunclet$??$_Insert_nohint@AAU?$pair@$$CBVQString@@V1@@std@@PAU?$_Tree_node@U?$pair@$$CBVQString@@V1@@std@@PAX@2@@?$_Tree@V?$_Tmap_traits@VQString@@V1@U?$less@VQString@@@std@@V?$allocator@U?$pair@$$CBVQString@@V1@@std@@@3@$0A@@std@@@std@@IAE?AU?$pair@V?$_Tree_iterator@V?$_Tree_val@U?$_Tree_simple_types@U?$pair@$$CBVQString@@V1@@std@@@std@@@std@@@std@@_N@1@_NAAU?$pair@$$CBVQString@@V1@@1@PAU?$_Tree_node@U?$pair@$$CBVQString@@V1@@std@@PAX@1@@Z$2 00422940 f   netStatus.obj
 0001:00021949       __ehhandler$??$_Insert_nohint@AAU?$pair@$$CBVQString@@V1@@std@@PAU?$_Tree_node@U?$pair@$$CBVQString@@V1@@std@@PAX@2@@?$_Tree@V?$_Tmap_traits@VQString@@V1@U?$less@VQString@@@std@@V?$allocator@U?$pair@$$CBVQString@@V1@@std@@@3@$0A@@std@@@std@@IAE?AU?$pair@V?$_Tree_iterator@V?$_Tree_val@U?$_Tree_simple_types@U?$pair@$$CBVQString@@V1@@std@@@std@@@std@@@std@@_N@1@_NAAU?$pair@$$CBVQString@@V1@@1@PAU?$_Tree_node@U?$pair@$$CBVQString@@V1@@std@@PAX@1@@Z 00422949 f   netStatus.obj
 0001:00021970       __unwindfunclet$??1?$pair@VQString@@V1@@std@@QAE@XZ$0 00422970 f   netStatus.obj
 0001:00021979       __ehhandler$??1?$pair@VQString@@V1@@std@@QAE@XZ 00422979 f   netStatus.obj
 0001:000219a0       __unwindfunclet$?_Destroy_if_not_nil@?$_Tree@V?$_Tmap_traits@VQString@@V1@U?$less@VQString@@@std@@V?$allocator@U?$pair@$$CBVQString@@V1@@std@@@3@$0A@@std@@@std@@IAEXPAU?$_Tree_node@U?$pair@$$CBVQString@@V1@@std@@PAX@2@@Z$0 004229a0 f   netStatus.obj
 0001:000219a9       __ehhandler$?_Destroy_if_not_nil@?$_Tree@V?$_Tmap_traits@VQString@@V1@U?$less@VQString@@@std@@V?$allocator@U?$pair@$$CBVQString@@V1@@std@@@3@$0A@@std@@@std@@IAEXPAU?$_Tree_node@U?$pair@$$CBVQString@@V1@@std@@PAX@2@@Z 004229a9 f   netStatus.obj
 0001:000219d0       __unwindfunclet$?_Erase@?$_Tree@V?$_Tmap_traits@VQString@@V1@U?$less@VQString@@@std@@V?$allocator@U?$pair@$$CBVQString@@V1@@std@@@3@$0A@@std@@@std@@IAEXPAU?$_Tree_node@U?$pair@$$CBVQString@@V1@@std@@PAX@2@@Z$0 004229d0 f   netStatus.obj
 0001:000219d9       __ehhandler$?_Erase@?$_Tree@V?$_Tmap_traits@VQString@@V1@U?$less@VQString@@@std@@V?$allocator@U?$pair@$$CBVQString@@V1@@std@@@3@$0A@@std@@@std@@IAEXPAU?$_Tree_node@U?$pair@$$CBVQString@@V1@@std@@PAX@2@@Z 004229d9 f   netStatus.obj
 0001:00021a00       __unwindfunclet$?erase@?$_Tree@V?$_Tmap_traits@VQString@@V1@U?$less@VQString@@@std@@V?$allocator@U?$pair@$$CBVQString@@V1@@std@@@3@$0A@@std@@@std@@QAE?AV?$_Tree_iterator@V?$_Tree_val@U?$_Tree_simple_types@U?$pair@$$CBVQString@@V1@@std@@@std@@@std@@@2@V?$_Tree_const_iterator@V?$_Tree_val@U?$_Tree_simple_types@U?$pair@$$CBVQString@@V1@@std@@@std@@@std@@@2@@Z$0 00422a00 f   netStatus.obj
 0001:00021a09       __ehhandler$?erase@?$_Tree@V?$_Tmap_traits@VQString@@V1@U?$less@VQString@@@std@@V?$allocator@U?$pair@$$CBVQString@@V1@@std@@@3@$0A@@std@@@std@@QAE?AV?$_Tree_iterator@V?$_Tree_val@U?$_Tree_simple_types@U?$pair@$$CBVQString@@V1@@std@@@std@@@std@@@2@V?$_Tree_const_iterator@V?$_Tree_val@U?$_Tree_simple_types@U?$pair@$$CBVQString@@V1@@std@@@std@@@std@@@2@@Z 00422a09 f   netStatus.obj
 0001:00021a30       __unwindfunclet$?query@netStatus@@SA_NPAVccDriver@@ABVQString@@H11@Z$0 00422a30 f   netStatus.obj
 0001:00021a3b       __unwindfunclet$?query@netStatus@@SA_NPAVccDriver@@ABVQString@@H11@Z$1 00422a3b f   netStatus.obj
 0001:00021a46       __unwindfunclet$?query@netStatus@@SA_NPAVccDriver@@ABVQString@@H11@Z$2 00422a46 f   netStatus.obj
 0001:00021a52       __unwindfunclet$?query@netStatus@@SA_NPAVccDriver@@ABVQString@@H11@Z$3 00422a52 f   netStatus.obj
 0001:00021a5e       __unwindfunclet$?query@netStatus@@SA_NPAVccDriver@@ABVQString@@H11@Z$4 00422a5e f   netStatus.obj
 0001:00021a6a       __unwindfunclet$?query@netStatus@@SA_NPAVccDriver@@ABVQString@@H11@Z$5 00422a6a f   netStatus.obj
 0001:00021a75       __unwindfunclet$?query@netStatus@@SA_NPAVccDriver@@ABVQString@@H11@Z$6 00422a75 f   netStatus.obj
 0001:00021a80       __unwindfunclet$?query@netStatus@@SA_NPAVccDriver@@ABVQString@@H11@Z$7 00422a80 f   netStatus.obj
 0001:00021a8b       __unwindfunclet$?query@netStatus@@SA_NPAVccDriver@@ABVQString@@H11@Z$8 00422a8b f   netStatus.obj
 0001:00021a97       __unwindfunclet$?query@netStatus@@SA_NPAVccDriver@@ABVQString@@H11@Z$9 00422a97 f   netStatus.obj
 0001:00021aa3       __unwindfunclet$?query@netStatus@@SA_NPAVccDriver@@ABVQString@@H11@Z$10 00422aa3 f   netStatus.obj
 0001:00021aaf       __unwindfunclet$?query@netStatus@@SA_NPAVccDriver@@ABVQString@@H11@Z$11 00422aaf f   netStatus.obj
 0001:00021aba       __unwindfunclet$?query@netStatus@@SA_NPAVccDriver@@ABVQString@@H11@Z$12 00422aba f   netStatus.obj
 0001:00021ac6       __unwindfunclet$?query@netStatus@@SA_NPAVccDriver@@ABVQString@@H11@Z$19 00422ac6 f   netStatus.obj
 0001:00021ad1       __unwindfunclet$?query@netStatus@@SA_NPAVccDriver@@ABVQString@@H11@Z$20 00422ad1 f   netStatus.obj
 0001:00021adc       __unwindfunclet$?query@netStatus@@SA_NPAVccDriver@@ABVQString@@H11@Z$21 00422adc f   netStatus.obj
 0001:00021ae7       __unwindfunclet$?query@netStatus@@SA_NPAVccDriver@@ABVQString@@H11@Z$13 00422ae7 f   netStatus.obj
 0001:00021af2       __unwindfunclet$?query@netStatus@@SA_NPAVccDriver@@ABVQString@@H11@Z$14 00422af2 f   netStatus.obj
 0001:00021afd       __unwindfunclet$?query@netStatus@@SA_NPAVccDriver@@ABVQString@@H11@Z$15 00422afd f   netStatus.obj
 0001:00021b08       __unwindfunclet$?query@netStatus@@SA_NPAVccDriver@@ABVQString@@H11@Z$16 00422b08 f   netStatus.obj
 0001:00021b13       __unwindfunclet$?query@netStatus@@SA_NPAVccDriver@@ABVQString@@H11@Z$17 00422b13 f   netStatus.obj
 0001:00021b1e       __unwindfunclet$?query@netStatus@@SA_NPAVccDriver@@ABVQString@@H11@Z$18 00422b1e f   netStatus.obj
 0001:00021b29       __unwindfunclet$?query@netStatus@@SA_NPAVccDriver@@ABVQString@@H11@Z$22 00422b29 f   netStatus.obj
 0001:00021b35       __unwindfunclet$?query@netStatus@@SA_NPAVccDriver@@ABVQString@@H11@Z$23 00422b35 f   netStatus.obj
 0001:00021b40       __unwindfunclet$?query@netStatus@@SA_NPAVccDriver@@ABVQString@@H11@Z$24 00422b40 f   netStatus.obj
 0001:00021b4c       __unwindfunclet$?query@netStatus@@SA_NPAVccDriver@@ABVQString@@H11@Z$25 00422b4c f   netStatus.obj
 0001:00021b57       __unwindfunclet$?query@netStatus@@SA_NPAVccDriver@@ABVQString@@H11@Z$26 00422b57 f   netStatus.obj
 0001:00021b62       __unwindfunclet$?query@netStatus@@SA_NPAVccDriver@@ABVQString@@H11@Z$27 00422b62 f   netStatus.obj
 0001:00021b6e       __unwindfunclet$?query@netStatus@@SA_NPAVccDriver@@ABVQString@@H11@Z$28 00422b6e f   netStatus.obj
 0001:00021b7a       __unwindfunclet$?query@netStatus@@SA_NPAVccDriver@@ABVQString@@H11@Z$29 00422b7a f   netStatus.obj
 0001:00021b85       __unwindfunclet$?query@netStatus@@SA_NPAVccDriver@@ABVQString@@H11@Z$30 00422b85 f   netStatus.obj
 0001:00021b91       __unwindfunclet$?query@netStatus@@SA_NPAVccDriver@@ABVQString@@H11@Z$31 00422b91 f   netStatus.obj
 0001:00021b9d       __unwindfunclet$?query@netStatus@@SA_NPAVccDriver@@ABVQString@@H11@Z$32 00422b9d f   netStatus.obj
 0001:00021ba8       __unwindfunclet$?query@netStatus@@SA_NPAVccDriver@@ABVQString@@H11@Z$33 00422ba8 f   netStatus.obj
 0001:00021bb3       __unwindfunclet$?query@netStatus@@SA_NPAVccDriver@@ABVQString@@H11@Z$34 00422bb3 f   netStatus.obj
 0001:00021bbf       __unwindfunclet$?query@netStatus@@SA_NPAVccDriver@@ABVQString@@H11@Z$35 00422bbf f   netStatus.obj
 0001:00021bcb       __unwindfunclet$?query@netStatus@@SA_NPAVccDriver@@ABVQString@@H11@Z$36 00422bcb f   netStatus.obj
 0001:00021bd6       __ehhandler$?query@netStatus@@SA_NPAVccDriver@@ABVQString@@H11@Z 00422bd6 f   netStatus.obj
 0001:00021c00       __unwindfunclet$?setValue@netStatus@@SA_NPAVccDriver@@ABVQString@@1@Z$0 00422c00 f   netStatus.obj
 0001:00021c08       __unwindfunclet$?setValue@netStatus@@SA_NPAVccDriver@@ABVQString@@1@Z$7 00422c08 f   netStatus.obj
 0001:00021c11       __unwindfunclet$?setValue@netStatus@@SA_NPAVccDriver@@ABVQString@@1@Z$1 00422c11 f   netStatus.obj
 0001:00021c19       __unwindfunclet$?setValue@netStatus@@SA_NPAVccDriver@@ABVQString@@1@Z$2 00422c19 f   netStatus.obj
 0001:00021c21       __unwindfunclet$?setValue@netStatus@@SA_NPAVccDriver@@ABVQString@@1@Z$3 00422c21 f   netStatus.obj
 0001:00021c2a       __unwindfunclet$?setValue@netStatus@@SA_NPAVccDriver@@ABVQString@@1@Z$4 00422c2a f   netStatus.obj
 0001:00021c33       __unwindfunclet$?setValue@netStatus@@SA_NPAVccDriver@@ABVQString@@1@Z$5 00422c33 f   netStatus.obj
 0001:00021c3c       __unwindfunclet$?setValue@netStatus@@SA_NPAVccDriver@@ABVQString@@1@Z$6 00422c3c f   netStatus.obj
 0001:00021c44       __ehhandler$?setValue@netStatus@@SA_NPAVccDriver@@ABVQString@@1@Z 00422c44 f   netStatus.obj
 0001:00021c70       __unwindfunclet$??0persistentSocket@@QAE@PAVQObject@@ABVQString@@H1H_N@Z$0 00422c70 f   persistentSocket.obj
 0001:00021c79       __unwindfunclet$??0persistentSocket@@QAE@PAVQObject@@ABVQString@@H1H_N@Z$1 00422c79 f   persistentSocket.obj
 0001:00021c85       __unwindfunclet$??0persistentSocket@@QAE@PAVQObject@@ABVQString@@H1H_N@Z$2 00422c85 f   persistentSocket.obj
 0001:00021c91       __unwindfunclet$??0persistentSocket@@QAE@PAVQObject@@ABVQString@@H1H_N@Z$3 00422c91 f   persistentSocket.obj
 0001:00021c9d       __unwindfunclet$??0persistentSocket@@QAE@PAVQObject@@ABVQString@@H1H_N@Z$4 00422c9d f   persistentSocket.obj
 0001:00021ca6       __unwindfunclet$??0persistentSocket@@QAE@PAVQObject@@ABVQString@@H1H_N@Z$5 00422ca6 f   persistentSocket.obj
 0001:00021caf       __unwindfunclet$??0persistentSocket@@QAE@PAVQObject@@ABVQString@@H1H_N@Z$6 00422caf f   persistentSocket.obj
 0001:00021cb8       __unwindfunclet$??0persistentSocket@@QAE@PAVQObject@@ABVQString@@H1H_N@Z$7 00422cb8 f   persistentSocket.obj
 0001:00021cc1       __unwindfunclet$??0persistentSocket@@QAE@PAVQObject@@ABVQString@@H1H_N@Z$8 00422cc1 f   persistentSocket.obj
 0001:00021cca       __unwindfunclet$??0persistentSocket@@QAE@PAVQObject@@ABVQString@@H1H_N@Z$9 00422cca f   persistentSocket.obj
 0001:00021cd3       __unwindfunclet$??0persistentSocket@@QAE@PAVQObject@@ABVQString@@H1H_N@Z$10 00422cd3 f   persistentSocket.obj
 0001:00021cdc       __ehhandler$??0persistentSocket@@QAE@PAVQObject@@ABVQString@@H1H_N@Z 00422cdc f   persistentSocket.obj
 0001:00021d00       __unwindfunclet$??_GpersistentSocket@@UAEPAXI@Z$0 00422d00 f   persistentSocket.obj
 0001:00021d09       __unwindfunclet$??_GpersistentSocket@@UAEPAXI@Z$1 00422d09 f   persistentSocket.obj
 0001:00021d15       __unwindfunclet$??_GpersistentSocket@@UAEPAXI@Z$2 00422d15 f   persistentSocket.obj
 0001:00021d21       __unwindfunclet$??_GpersistentSocket@@UAEPAXI@Z$3 00422d21 f   persistentSocket.obj
 0001:00021d2d       __ehhandler$??_GpersistentSocket@@UAEPAXI@Z 00422d2d f   persistentSocket.obj
 0001:00021d50       __unwindfunclet$?enc@persistentSocket@@QAEXXZ$0 00422d50 f   persistentSocket.obj
 0001:00021d59       __unwindfunclet$?enc@persistentSocket@@QAEXXZ$1 00422d59 f   persistentSocket.obj
 0001:00021d62       __unwindfunclet$?enc@persistentSocket@@QAEXXZ$2 00422d62 f   persistentSocket.obj
 0001:00021d6b       __unwindfunclet$?enc@persistentSocket@@QAEXXZ$3 00422d6b f   persistentSocket.obj
 0001:00021d74       __unwindfunclet$?enc@persistentSocket@@QAEXXZ$4 00422d74 f   persistentSocket.obj
 0001:00021d7d       __unwindfunclet$?enc@persistentSocket@@QAEXXZ$5 00422d7d f   persistentSocket.obj
 0001:00021d85       __unwindfunclet$?enc@persistentSocket@@QAEXXZ$6 00422d85 f   persistentSocket.obj
 0001:00021d8e       __unwindfunclet$?enc@persistentSocket@@QAEXXZ$7 00422d8e f   persistentSocket.obj
 0001:00021d96       __unwindfunclet$?enc@persistentSocket@@QAEXXZ$8 00422d96 f   persistentSocket.obj
 0001:00021d9f       __unwindfunclet$?enc@persistentSocket@@QAEXXZ$9 00422d9f f   persistentSocket.obj
 0001:00021da8       __unwindfunclet$?enc@persistentSocket@@QAEXXZ$10 00422da8 f   persistentSocket.obj
 0001:00021db1       __unwindfunclet$?enc@persistentSocket@@QAEXXZ$11 00422db1 f   persistentSocket.obj
 0001:00021dba       __unwindfunclet$?enc@persistentSocket@@QAEXXZ$12 00422dba f   persistentSocket.obj
 0001:00021dc3       __unwindfunclet$?enc@persistentSocket@@QAEXXZ$13 00422dc3 f   persistentSocket.obj
 0001:00021dcc       __ehhandler$?enc@persistentSocket@@QAEXXZ 00422dcc f   persistentSocket.obj
 0001:00021df0       __unwindfunclet$?socketError@persistentSocket@@QAEXW4SocketError@QAbstractSocket@@@Z$0 00422df0 f   persistentSocket.obj
 0001:00021df9       __unwindfunclet$?socketError@persistentSocket@@QAEXW4SocketError@QAbstractSocket@@@Z$1 00422df9 f   persistentSocket.obj
 0001:00021e02       __unwindfunclet$?socketError@persistentSocket@@QAEXW4SocketError@QAbstractSocket@@@Z$2 00422e02 f   persistentSocket.obj
 0001:00021e0b       __unwindfunclet$?socketError@persistentSocket@@QAEXW4SocketError@QAbstractSocket@@@Z$3 00422e0b f   persistentSocket.obj
 0001:00021e14       __ehhandler$?socketError@persistentSocket@@QAEXW4SocketError@QAbstractSocket@@@Z 00422e14 f   persistentSocket.obj
 0001:00021e30       __unwindfunclet$?socketSslErrors@persistentSocket@@QAEXABV?$QList@VQSslError@@@@@Z$0 00422e30 f   persistentSocket.obj
 0001:00021e38       __unwindfunclet$?socketSslErrors@persistentSocket@@QAEXABV?$QList@VQSslError@@@@@Z$1 00422e38 f   persistentSocket.obj
 0001:00021e41       __unwindfunclet$?socketSslErrors@persistentSocket@@QAEXABV?$QList@VQSslError@@@@@Z$2 00422e41 f   persistentSocket.obj
 0001:00021e4a       __unwindfunclet$?socketSslErrors@persistentSocket@@QAEXABV?$QList@VQSslError@@@@@Z$3 00422e4a f   persistentSocket.obj
 0001:00021e53       __unwindfunclet$?socketSslErrors@persistentSocket@@QAEXABV?$QList@VQSslError@@@@@Z$4 00422e53 f   persistentSocket.obj
 0001:00021e5c       __unwindfunclet$?socketSslErrors@persistentSocket@@QAEXABV?$QList@VQSslError@@@@@Z$5 00422e5c f   persistentSocket.obj
 0001:00021e65       __ehhandler$?socketSslErrors@persistentSocket@@QAEXABV?$QList@VQSslError@@@@@Z 00422e65 f   persistentSocket.obj
 0001:00021e80       __unwindfunclet$?timerEvent@persistentSocket@@MAEXPAVQTimerEvent@@@Z$0 00422e80 f   persistentSocket.obj
 0001:00021e89       __ehhandler$?timerEvent@persistentSocket@@MAEXPAVQTimerEvent@@@Z 00422e89 f   persistentSocket.obj
 0001:00021eb0       __unwindfunclet$?tryConnect@persistentSocket@@AAEXXZ$0 00422eb0 f   persistentSocket.obj
 0001:00021ebb       __unwindfunclet$?tryConnect@persistentSocket@@AAEXXZ$9 00422ebb f   persistentSocket.obj
 0001:00021ec4       __unwindfunclet$?tryConnect@persistentSocket@@AAEXXZ$10 00422ec4 f   persistentSocket.obj
 0001:00021ecd       __unwindfunclet$?tryConnect@persistentSocket@@AAEXXZ$11 00422ecd f   persistentSocket.obj
 0001:00021ed6       __unwindfunclet$?tryConnect@persistentSocket@@AAEXXZ$12 00422ed6 f   persistentSocket.obj
 0001:00021edf       __unwindfunclet$?tryConnect@persistentSocket@@AAEXXZ$13 00422edf f   persistentSocket.obj
 0001:00021ee8       __unwindfunclet$?tryConnect@persistentSocket@@AAEXXZ$14 00422ee8 f   persistentSocket.obj
 0001:00021ef1       __unwindfunclet$?tryConnect@persistentSocket@@AAEXXZ$15 00422ef1 f   persistentSocket.obj
 0001:00021efa       __unwindfunclet$?tryConnect@persistentSocket@@AAEXXZ$16 00422efa f   persistentSocket.obj
 0001:00021f03       __unwindfunclet$?tryConnect@persistentSocket@@AAEXXZ$17 00422f03 f   persistentSocket.obj
 0001:00021f0c       __unwindfunclet$?tryConnect@persistentSocket@@AAEXXZ$18 00422f0c f   persistentSocket.obj
 0001:00021f15       __unwindfunclet$?tryConnect@persistentSocket@@AAEXXZ$20 00422f15 f   persistentSocket.obj
 0001:00021f1e       __unwindfunclet$?tryConnect@persistentSocket@@AAEXXZ$21 00422f1e f   persistentSocket.obj
 0001:00021f27       __unwindfunclet$?tryConnect@persistentSocket@@AAEXXZ$22 00422f27 f   persistentSocket.obj
 0001:00021f30       __unwindfunclet$?tryConnect@persistentSocket@@AAEXXZ$23 00422f30 f   persistentSocket.obj
 0001:00021f39       __unwindfunclet$?tryConnect@persistentSocket@@AAEXXZ$24 00422f39 f   persistentSocket.obj
 0001:00021f42       __unwindfunclet$?tryConnect@persistentSocket@@AAEXXZ$25 00422f42 f   persistentSocket.obj
 0001:00021f4b       __unwindfunclet$?tryConnect@persistentSocket@@AAEXXZ$26 00422f4b f   persistentSocket.obj
 0001:00021f54       __unwindfunclet$?tryConnect@persistentSocket@@AAEXXZ$27 00422f54 f   persistentSocket.obj
 0001:00021f5d       __unwindfunclet$?tryConnect@persistentSocket@@AAEXXZ$28 00422f5d f   persistentSocket.obj
 0001:00021f66       __unwindfunclet$?tryConnect@persistentSocket@@AAEXXZ$29 00422f66 f   persistentSocket.obj
 0001:00021f6f       __ehhandler$?tryConnect@persistentSocket@@AAEXXZ 00422f6f f   persistentSocket.obj
 0001:00021f90       __ehhandler$??$_Insert_nohint@AAU?$pair@$$CBII@std@@PAU?$_Tree_node@U?$pair@$$CBII@std@@PAX@2@@?$_Tree@V?$_Tmap_traits@IIU?$less@I@std@@V?$allocator@U?$pair@$$CBII@std@@@2@$0A@@std@@@std@@IAE?AU?$pair@V?$_Tree_iterator@V?$_Tree_val@U?$_Tree_simple_types@U?$pair@$$CBII@std@@@std@@@std@@@std@@_N@1@_NAAU?$pair@$$CBII@1@PAU?$_Tree_node@U?$pair@$$CBII@std@@PAX@1@@Z 00422f90 f   slinkclient.obj
 0001:00021f90       __ehhandler$??$_Insert_nohint@AAU?$pair@$$CBIPAVccDriver@@@std@@PAU?$_Tree_node@U?$pair@$$CBIPAVccDriver@@@std@@PAX@2@@?$_Tree@V?$_Tmap_traits@IPAVccDriver@@U?$less@I@std@@V?$allocator@U?$pair@$$CBIPAVccDriver@@@std@@@3@$0A@@std@@@std@@IAE?AU?$pair@V?$_Tree_iterator@V?$_Tree_val@U?$_Tree_simple_types@U?$pair@$$CBIPAVccDriver@@@std@@@std@@@std@@@std@@_N@1@_NAAU?$pair@$$CBIPAVccDriver@@@1@PAU?$_Tree_node@U?$pair@$$CBIPAVccDriver@@@std@@PAX@1@@Z 00422f90 f   slinkclient.obj
 0001:00021fb0       __ehhandler$??$_Insert_nohint@ABIU_Nil@std@@@?$_Tree@V?$_Tset_traits@IU?$less@I@std@@V?$allocator@I@2@$0A@@std@@@std@@IAE?AU?$pair@V?$_Tree_const_iterator@V?$_Tree_val@U?$_Tree_simple_types@I@std@@@std@@@std@@_N@1@_NABIU_Nil@1@@Z 00422fb0 f   slinkclient.obj
 0001:00021fd0       __unwindfunclet$??0slinkClient@@QAE@PAVQWidget@@@Z$0 00422fd0 f   slinkclient.obj
 0001:00021fdc       __unwindfunclet$??0slinkClient@@QAE@PAVQWidget@@@Z$1 00422fdc f   slinkclient.obj
 0001:00021fed       __unwindfunclet$??0slinkClient@@QAE@PAVQWidget@@@Z$2 00422fed f   slinkclient.obj
 0001:00021ffe       __unwindfunclet$??0slinkClient@@QAE@PAVQWidget@@@Z$3 00422ffe f   slinkclient.obj
 0001:0002200f       __unwindfunclet$??0slinkClient@@QAE@PAVQWidget@@@Z$4 0042300f f   slinkclient.obj
 0001:00022021       __unwindfunclet$??0slinkClient@@QAE@PAVQWidget@@@Z$5 00423021 f   slinkclient.obj
 0001:00022033       __unwindfunclet$??0slinkClient@@QAE@PAVQWidget@@@Z$6 00423033 f   slinkclient.obj
 0001:00022045       __unwindfunclet$??0slinkClient@@QAE@PAVQWidget@@@Z$7 00423045 f   slinkclient.obj
 0001:00022057       __unwindfunclet$??0slinkClient@@QAE@PAVQWidget@@@Z$8 00423057 f   slinkclient.obj
 0001:00022069       __unwindfunclet$??0slinkClient@@QAE@PAVQWidget@@@Z$9 00423069 f   slinkclient.obj
 0001:00022075       __unwindfunclet$??0slinkClient@@QAE@PAVQWidget@@@Z$10 00423075 f   slinkclient.obj
 0001:00022081       __unwindfunclet$??0slinkClient@@QAE@PAVQWidget@@@Z$20 00423081 f   slinkclient.obj
 0001:0002208c       __unwindfunclet$??0slinkClient@@QAE@PAVQWidget@@@Z$21 0042308c f   slinkclient.obj
 0001:00022098       __unwindfunclet$??0slinkClient@@QAE@PAVQWidget@@@Z$22 00423098 f   slinkclient.obj
 0001:000220a4       __unwindfunclet$??0slinkClient@@QAE@PAVQWidget@@@Z$23 004230a4 f   slinkclient.obj
 0001:000220b0       __unwindfunclet$??0slinkClient@@QAE@PAVQWidget@@@Z$24 004230b0 f   slinkclient.obj
 0001:000220bc       __unwindfunclet$??0slinkClient@@QAE@PAVQWidget@@@Z$25 004230bc f   slinkclient.obj
 0001:000220df       __unwindfunclet$??0slinkClient@@QAE@PAVQWidget@@@Z$26 004230df f   slinkclient.obj
 0001:00022102       __unwindfunclet$??0slinkClient@@QAE@PAVQWidget@@@Z$27 00423102 f   slinkclient.obj
 0001:0002210e       __unwindfunclet$??0slinkClient@@QAE@PAVQWidget@@@Z$28 0042310e f   slinkclient.obj
 0001:0002211a       __unwindfunclet$??0slinkClient@@QAE@PAVQWidget@@@Z$29 0042311a f   slinkclient.obj
 0001:00022126       __unwindfunclet$??0slinkClient@@QAE@PAVQWidget@@@Z$31 00423126 f   slinkclient.obj
 0001:00022132       __unwindfunclet$??0slinkClient@@QAE@PAVQWidget@@@Z$32 00423132 f   slinkclient.obj
 0001:0002213e       __unwindfunclet$??0slinkClient@@QAE@PAVQWidget@@@Z$33 0042313e f   slinkclient.obj
 0001:0002214a       __unwindfunclet$??0slinkClient@@QAE@PAVQWidget@@@Z$34 0042314a f   slinkclient.obj
 0001:00022156       __unwindfunclet$??0slinkClient@@QAE@PAVQWidget@@@Z$35 00423156 f   slinkclient.obj
 0001:00022162       __unwindfunclet$??0slinkClient@@QAE@PAVQWidget@@@Z$36 00423162 f   slinkclient.obj
 0001:0002216e       __unwindfunclet$??0slinkClient@@QAE@PAVQWidget@@@Z$37 0042316e f   slinkclient.obj
 0001:00022179       __unwindfunclet$??0slinkClient@@QAE@PAVQWidget@@@Z$38 00423179 f   slinkclient.obj
 0001:00022185       __unwindfunclet$??0slinkClient@@QAE@PAVQWidget@@@Z$39 00423185 f   slinkclient.obj
 0001:00022191       __unwindfunclet$??0slinkClient@@QAE@PAVQWidget@@@Z$40 00423191 f   slinkclient.obj
 0001:0002219d       __unwindfunclet$??0slinkClient@@QAE@PAVQWidget@@@Z$41 0042319d f   slinkclient.obj
 0001:000221a9       __unwindfunclet$??0slinkClient@@QAE@PAVQWidget@@@Z$42 004231a9 f   slinkclient.obj
 0001:000221b5       __unwindfunclet$??0slinkClient@@QAE@PAVQWidget@@@Z$43 004231b5 f   slinkclient.obj
 0001:000221c0       __unwindfunclet$??0slinkClient@@QAE@PAVQWidget@@@Z$44 004231c0 f   slinkclient.obj
 0001:000221cc       __unwindfunclet$??0slinkClient@@QAE@PAVQWidget@@@Z$45 004231cc f   slinkclient.obj
 0001:000221d7       __unwindfunclet$??0slinkClient@@QAE@PAVQWidget@@@Z$46 004231d7 f   slinkclient.obj
 0001:000221e2       __unwindfunclet$??0slinkClient@@QAE@PAVQWidget@@@Z$47 004231e2 f   slinkclient.obj
 0001:000221ed       __unwindfunclet$??0slinkClient@@QAE@PAVQWidget@@@Z$48 004231ed f   slinkclient.obj
 0001:000221f8       __unwindfunclet$??0slinkClient@@QAE@PAVQWidget@@@Z$49 004231f8 f   slinkclient.obj
 0001:00022203       __unwindfunclet$??0slinkClient@@QAE@PAVQWidget@@@Z$50 00423203 f   slinkclient.obj
 0001:0002220e       __unwindfunclet$??0slinkClient@@QAE@PAVQWidget@@@Z$51 0042320e f   slinkclient.obj
 0001:00022219       __unwindfunclet$??0slinkClient@@QAE@PAVQWidget@@@Z$52 00423219 f   slinkclient.obj
 0001:00022224       __unwindfunclet$??0slinkClient@@QAE@PAVQWidget@@@Z$53 00423224 f   slinkclient.obj
 0001:0002222f       __unwindfunclet$??0slinkClient@@QAE@PAVQWidget@@@Z$54 0042322f f   slinkclient.obj
 0001:0002223a       __unwindfunclet$??0slinkClient@@QAE@PAVQWidget@@@Z$55 0042323a f   slinkclient.obj
 0001:00022245       __unwindfunclet$??0slinkClient@@QAE@PAVQWidget@@@Z$56 00423245 f   slinkclient.obj
 0001:00022250       __unwindfunclet$??0slinkClient@@QAE@PAVQWidget@@@Z$57 00423250 f   slinkclient.obj
 0001:0002225b       __unwindfunclet$??0slinkClient@@QAE@PAVQWidget@@@Z$58 0042325b f   slinkclient.obj
 0001:00022266       __unwindfunclet$??0slinkClient@@QAE@PAVQWidget@@@Z$59 00423266 f   slinkclient.obj
 0001:00022271       __unwindfunclet$??0slinkClient@@QAE@PAVQWidget@@@Z$60 00423271 f   slinkclient.obj
 0001:0002227c       __unwindfunclet$??0slinkClient@@QAE@PAVQWidget@@@Z$61 0042327c f   slinkclient.obj
 0001:00022287       __unwindfunclet$??0slinkClient@@QAE@PAVQWidget@@@Z$62 00423287 f   slinkclient.obj
 0001:00022292       __unwindfunclet$??0slinkClient@@QAE@PAVQWidget@@@Z$63 00423292 f   slinkclient.obj
 0001:0002229d       __unwindfunclet$??0slinkClient@@QAE@PAVQWidget@@@Z$64 0042329d f   slinkclient.obj
 0001:000222a8       __unwindfunclet$??0slinkClient@@QAE@PAVQWidget@@@Z$65 004232a8 f   slinkclient.obj
 0001:000222b3       __unwindfunclet$??0slinkClient@@QAE@PAVQWidget@@@Z$66 004232b3 f   slinkclient.obj
 0001:000222be       __unwindfunclet$??0slinkClient@@QAE@PAVQWidget@@@Z$67 004232be f   slinkclient.obj
 0001:000222c9       __unwindfunclet$??0slinkClient@@QAE@PAVQWidget@@@Z$68 004232c9 f   slinkclient.obj
 0001:000222d7       __unwindfunclet$??0slinkClient@@QAE@PAVQWidget@@@Z$69 004232d7 f   slinkclient.obj
 0001:000222e3       __unwindfunclet$??0slinkClient@@QAE@PAVQWidget@@@Z$70 004232e3 f   slinkclient.obj
 0001:000222ef       __unwindfunclet$??0slinkClient@@QAE@PAVQWidget@@@Z$71 004232ef f   slinkclient.obj
 0001:000222fb       __unwindfunclet$??0slinkClient@@QAE@PAVQWidget@@@Z$72 004232fb f   slinkclient.obj
 0001:00022307       __unwindfunclet$??0slinkClient@@QAE@PAVQWidget@@@Z$73 00423307 f   slinkclient.obj
 0001:00022313       __unwindfunclet$??0slinkClient@@QAE@PAVQWidget@@@Z$74 00423313 f   slinkclient.obj
 0001:0002231e       __unwindfunclet$??0slinkClient@@QAE@PAVQWidget@@@Z$75 0042331e f   slinkclient.obj
 0001:0002232a       __unwindfunclet$??0slinkClient@@QAE@PAVQWidget@@@Z$76 0042332a f   slinkclient.obj
 0001:00022336       __unwindfunclet$??0slinkClient@@QAE@PAVQWidget@@@Z$77 00423336 f   slinkclient.obj
 0001:00022341       __unwindfunclet$??0slinkClient@@QAE@PAVQWidget@@@Z$78 00423341 f   slinkclient.obj
 0001:0002234c       __unwindfunclet$??0slinkClient@@QAE@PAVQWidget@@@Z$79 0042334c f   slinkclient.obj
 0001:00022358       __unwindfunclet$??0slinkClient@@QAE@PAVQWidget@@@Z$80 00423358 f   slinkclient.obj
 0001:00022363       __unwindfunclet$??0slinkClient@@QAE@PAVQWidget@@@Z$81 00423363 f   slinkclient.obj
 0001:00022371       __unwindfunclet$??0slinkClient@@QAE@PAVQWidget@@@Z$82 00423371 f   slinkclient.obj
 0001:0002237f       __unwindfunclet$??0slinkClient@@QAE@PAVQWidget@@@Z$83 0042337f f   slinkclient.obj
 0001:000223a1       __ehhandler$??0slinkClient@@QAE@PAVQWidget@@@Z 004233a1 f   slinkclient.obj
 0001:000223d0       __unwindfunclet$??1slinkClient@@UAE@XZ$0 004233d0 f   slinkclient.obj
 0001:000223d9       __unwindfunclet$??1slinkClient@@UAE@XZ$1 004233d9 f   slinkclient.obj
 0001:000223e7       __unwindfunclet$??1slinkClient@@UAE@XZ$2 004233e7 f   slinkclient.obj
 0001:000223f5       __unwindfunclet$??1slinkClient@@UAE@XZ$3 004233f5 f   slinkclient.obj
 0001:00022403       __unwindfunclet$??1slinkClient@@UAE@XZ$4 00423403 f   slinkclient.obj
 0001:00022412       __unwindfunclet$??1slinkClient@@UAE@XZ$5 00423412 f   slinkclient.obj
 0001:00022421       __unwindfunclet$??1slinkClient@@UAE@XZ$6 00423421 f   slinkclient.obj
 0001:00022430       __unwindfunclet$??1slinkClient@@UAE@XZ$7 00423430 f   slinkclient.obj
 0001:0002243f       __unwindfunclet$??1slinkClient@@UAE@XZ$8 0042343f f   slinkclient.obj
 0001:0002244e       __unwindfunclet$??1slinkClient@@UAE@XZ$9 0042344e f   slinkclient.obj
 0001:00022457       __ehhandler$??1slinkClient@@UAE@XZ 00423457 f   slinkclient.obj
 0001:00022480       __unwindfunclet$?about@slinkClient@@AAEXXZ$0 00423480 f   slinkclient.obj
 0001:0002248c       __unwindfunclet$?about@slinkClient@@AAEXXZ$1 0042348c f   slinkclient.obj
 0001:00022497       __unwindfunclet$?about@slinkClient@@AAEXXZ$2 00423497 f   slinkclient.obj
 0001:000224a2       __unwindfunclet$?about@slinkClient@@AAEXXZ$3 004234a2 f   slinkclient.obj
 0001:000224ae       __unwindfunclet$?about@slinkClient@@AAEXXZ$4 004234ae f   slinkclient.obj
 0001:000224ba       __unwindfunclet$?about@slinkClient@@AAEXXZ$5 004234ba f   slinkclient.obj
 0001:000224c6       __unwindfunclet$?about@slinkClient@@AAEXXZ$6 004234c6 f   slinkclient.obj
 0001:000224d2       __unwindfunclet$?about@slinkClient@@AAEXXZ$7 004234d2 f   slinkclient.obj
 0001:000224de       __unwindfunclet$?about@slinkClient@@AAEXXZ$8 004234de f   slinkclient.obj
 0001:000224ea       __unwindfunclet$?about@slinkClient@@AAEXXZ$9 004234ea f   slinkclient.obj
 0001:000224f6       __unwindfunclet$?about@slinkClient@@AAEXXZ$10 004234f6 f   slinkclient.obj
 0001:00022502       __unwindfunclet$?about@slinkClient@@AAEXXZ$11 00423502 f   slinkclient.obj
 0001:0002250e       __unwindfunclet$?about@slinkClient@@AAEXXZ$12 0042350e f   slinkclient.obj
 0001:0002251a       __ehhandler$?about@slinkClient@@AAEXXZ 0042351a f   slinkclient.obj
 0001:00022550       __unwindfunclet$?addDriver@slinkClient@@AAEXIID@Z$0 00423550 f   slinkclient.obj
 0001:00022559       __unwindfunclet$?addDriver@slinkClient@@AAEXIID@Z$1 00423559 f   slinkclient.obj
 0001:00022565       __unwindfunclet$?addDriver@slinkClient@@AAEXIID@Z$2 00423565 f   slinkclient.obj
 0001:00022573       __unwindfunclet$?addDriver@slinkClient@@AAEXIID@Z$3 00423573 f   slinkclient.obj
 0001:0002258c       __unwindfunclet$?addDriver@slinkClient@@AAEXIID@Z$4 0042358c f   slinkclient.obj
 0001:00022595       __unwindfunclet$?addDriver@slinkClient@@AAEXIID@Z$5 00423595 f   slinkclient.obj
 0001:0002259e       __unwindfunclet$?addDriver@slinkClient@@AAEXIID@Z$6 0042359e f   slinkclient.obj
 0001:000225a7       __unwindfunclet$?addDriver@slinkClient@@AAEXIID@Z$7 004235a7 f   slinkclient.obj
 0001:000225b0       __unwindfunclet$?addDriver@slinkClient@@AAEXIID@Z$8 004235b0 f   slinkclient.obj
 0001:000225b9       __unwindfunclet$?addDriver@slinkClient@@AAEXIID@Z$9 004235b9 f   slinkclient.obj
 0001:000225c5       __unwindfunclet$?addDriver@slinkClient@@AAEXIID@Z$10 004235c5 f   slinkclient.obj
 0001:000225d1       __unwindfunclet$?addDriver@slinkClient@@AAEXIID@Z$11 004235d1 f   slinkclient.obj
 0001:000225da       __unwindfunclet$?addDriver@slinkClient@@AAEXIID@Z$12 004235da f   slinkclient.obj
 0001:000225e6       __unwindfunclet$?addDriver@slinkClient@@AAEXIID@Z$13 004235e6 f   slinkclient.obj
 0001:000225f2       __unwindfunclet$?addDriver@slinkClient@@AAEXIID@Z$14 004235f2 f   slinkclient.obj
 0001:000225fa       __unwindfunclet$?addDriver@slinkClient@@AAEXIID@Z$15 004235fa f   slinkclient.obj
 0001:00022602       __unwindfunclet$?addDriver@slinkClient@@AAEXIID@Z$16 00423602 f   slinkclient.obj
 0001:0002260a       __unwindfunclet$?addDriver@slinkClient@@AAEXIID@Z$17 0042360a f   slinkclient.obj
 0001:00022612       __unwindfunclet$?addDriver@slinkClient@@AAEXIID@Z$18 00423612 f   slinkclient.obj
 0001:0002261b       __unwindfunclet$?addDriver@slinkClient@@AAEXIID@Z$19 0042361b f   slinkclient.obj
 0001:00022624       __unwindfunclet$?addDriver@slinkClient@@AAEXIID@Z$20 00423624 f   slinkclient.obj
 0001:00022630       __unwindfunclet$?addDriver@slinkClient@@AAEXIID@Z$21 00423630 f   slinkclient.obj
 0001:0002263c       __unwindfunclet$?addDriver@slinkClient@@AAEXIID@Z$22 0042363c f   slinkclient.obj
 0001:00022648       __unwindfunclet$?addDriver@slinkClient@@AAEXIID@Z$23 00423648 f   slinkclient.obj
 0001:00022654       __ehhandler$?addDriver@slinkClient@@AAEXIID@Z 00423654 f   slinkclient.obj
 0001:00022680       __unwindfunclet$?ccdClientMessage@slinkClient@@MAEXHHABV?$basic_string@DU?$char_traits@D@std@@V?$allocator@D@2@@std@@00@Z$0 00423680 f   slinkclient.obj
 0001:00022689       __unwindfunclet$?ccdClientMessage@slinkClient@@MAEXHHABV?$basic_string@DU?$char_traits@D@std@@V?$allocator@D@2@@std@@00@Z$1 00423689 f   slinkclient.obj
 0001:00022692       __unwindfunclet$?ccdClientMessage@slinkClient@@MAEXHHABV?$basic_string@DU?$char_traits@D@std@@V?$allocator@D@2@@std@@00@Z$2 00423692 f   slinkclient.obj
 0001:0002269b       __unwindfunclet$?ccdClientMessage@slinkClient@@MAEXHHABV?$basic_string@DU?$char_traits@D@std@@V?$allocator@D@2@@std@@00@Z$3 0042369b f   slinkclient.obj
 0001:000226a4       __unwindfunclet$?ccdClientMessage@slinkClient@@MAEXHHABV?$basic_string@DU?$char_traits@D@std@@V?$allocator@D@2@@std@@00@Z$4 004236a4 f   slinkclient.obj
 0001:000226ad       __unwindfunclet$?ccdClientMessage@slinkClient@@MAEXHHABV?$basic_string@DU?$char_traits@D@std@@V?$allocator@D@2@@std@@00@Z$5 004236ad f   slinkclient.obj
 0001:000226b6       __unwindfunclet$?ccdClientMessage@slinkClient@@MAEXHHABV?$basic_string@DU?$char_traits@D@std@@V?$allocator@D@2@@std@@00@Z$6 004236b6 f   slinkclient.obj
 0001:000226bf       __unwindfunclet$?ccdClientMessage@slinkClient@@MAEXHHABV?$basic_string@DU?$char_traits@D@std@@V?$allocator@D@2@@std@@00@Z$7 004236bf f   slinkclient.obj
 0001:000226c8       __unwindfunclet$?ccdClientMessage@slinkClient@@MAEXHHABV?$basic_string@DU?$char_traits@D@std@@V?$allocator@D@2@@std@@00@Z$8 004236c8 f   slinkclient.obj
 0001:000226d1       __unwindfunclet$?ccdClientMessage@slinkClient@@MAEXHHABV?$basic_string@DU?$char_traits@D@std@@V?$allocator@D@2@@std@@00@Z$9 004236d1 f   slinkclient.obj
 0001:000226da       __ehhandler$?ccdClientMessage@slinkClient@@MAEXHHABV?$basic_string@DU?$char_traits@D@std@@V?$allocator@D@2@@std@@00@Z 004236da f   slinkclient.obj
 0001:00022700       __unwindfunclet$?ccdCommand@slinkClient@@MAEXPAVccDriver@@PBD@Z$0 00423700 f   slinkclient.obj
 0001:0002270b       __unwindfunclet$?ccdCommand@slinkClient@@MAEXPAVccDriver@@PBD@Z$24 0042370b f   slinkclient.obj
 0001:00022714       __unwindfunclet$?ccdCommand@slinkClient@@MAEXPAVccDriver@@PBD@Z$28 00423714 f   slinkclient.obj
 0001:0002271d       __unwindfunclet$?ccdCommand@slinkClient@@MAEXPAVccDriver@@PBD@Z$29 0042371d f   slinkclient.obj
 0001:00022726       __unwindfunclet$?ccdCommand@slinkClient@@MAEXPAVccDriver@@PBD@Z$25 00423726 f   slinkclient.obj
 0001:0002272f       __unwindfunclet$?ccdCommand@slinkClient@@MAEXPAVccDriver@@PBD@Z$26 0042372f f   slinkclient.obj
 0001:00022738       __unwindfunclet$?ccdCommand@slinkClient@@MAEXPAVccDriver@@PBD@Z$27 00423738 f   slinkclient.obj
 0001:00022741       __unwindfunclet$?ccdCommand@slinkClient@@MAEXPAVccDriver@@PBD@Z$18 00423741 f   slinkclient.obj
 0001:0002274a       __unwindfunclet$?ccdCommand@slinkClient@@MAEXPAVccDriver@@PBD@Z$19 0042374a f   slinkclient.obj
 0001:00022753       __unwindfunclet$?ccdCommand@slinkClient@@MAEXPAVccDriver@@PBD@Z$20 00423753 f   slinkclient.obj
 0001:0002275c       __unwindfunclet$?ccdCommand@slinkClient@@MAEXPAVccDriver@@PBD@Z$7 0042375c f   slinkclient.obj
 0001:00022765       __unwindfunclet$?ccdCommand@slinkClient@@MAEXPAVccDriver@@PBD@Z$8 00423765 f   slinkclient.obj
 0001:0002276e       __unwindfunclet$?ccdCommand@slinkClient@@MAEXPAVccDriver@@PBD@Z$9 0042376e f   slinkclient.obj
 0001:00022777       __unwindfunclet$?ccdCommand@slinkClient@@MAEXPAVccDriver@@PBD@Z$10 00423777 f   slinkclient.obj
 0001:00022780       __unwindfunclet$?ccdCommand@slinkClient@@MAEXPAVccDriver@@PBD@Z$11 00423780 f   slinkclient.obj
 0001:00022789       __unwindfunclet$?ccdCommand@slinkClient@@MAEXPAVccDriver@@PBD@Z$1 00423789 f   slinkclient.obj
 0001:00022792       __unwindfunclet$?ccdCommand@slinkClient@@MAEXPAVccDriver@@PBD@Z$2 00423792 f   slinkclient.obj
 0001:0002279b       __unwindfunclet$?ccdCommand@slinkClient@@MAEXPAVccDriver@@PBD@Z$3 0042379b f   slinkclient.obj
 0001:000227a4       __unwindfunclet$?ccdCommand@slinkClient@@MAEXPAVccDriver@@PBD@Z$4 004237a4 f   slinkclient.obj
 0001:000227ad       __unwindfunclet$?ccdCommand@slinkClient@@MAEXPAVccDriver@@PBD@Z$5 004237ad f   slinkclient.obj
 0001:000227b6       __unwindfunclet$?ccdCommand@slinkClient@@MAEXPAVccDriver@@PBD@Z$6 004237b6 f   slinkclient.obj
 0001:000227bf       __unwindfunclet$?ccdCommand@slinkClient@@MAEXPAVccDriver@@PBD@Z$12 004237bf f   slinkclient.obj
 0001:000227c8       __unwindfunclet$?ccdCommand@slinkClient@@MAEXPAVccDriver@@PBD@Z$13 004237c8 f   slinkclient.obj
 0001:000227d1       __unwindfunclet$?ccdCommand@slinkClient@@MAEXPAVccDriver@@PBD@Z$14 004237d1 f   slinkclient.obj
 0001:000227da       __unwindfunclet$?ccdCommand@slinkClient@@MAEXPAVccDriver@@PBD@Z$15 004237da f   slinkclient.obj
 0001:000227e3       __unwindfunclet$?ccdCommand@slinkClient@@MAEXPAVccDriver@@PBD@Z$16 004237e3 f   slinkclient.obj
 0001:000227ec       __unwindfunclet$?ccdCommand@slinkClient@@MAEXPAVccDriver@@PBD@Z$17 004237ec f   slinkclient.obj
 0001:000227f5       __unwindfunclet$?ccdCommand@slinkClient@@MAEXPAVccDriver@@PBD@Z$21 004237f5 f   slinkclient.obj
 0001:000227fe       __unwindfunclet$?ccdCommand@slinkClient@@MAEXPAVccDriver@@PBD@Z$22 004237fe f   slinkclient.obj
 0001:00022807       __unwindfunclet$?ccdCommand@slinkClient@@MAEXPAVccDriver@@PBD@Z$23 00423807 f   slinkclient.obj
 0001:00022810       __ehhandler$?ccdCommand@slinkClient@@MAEXPAVccDriver@@PBD@Z 00423810 f   slinkclient.obj
 0001:00022830       __unwindfunclet$?ccdDatabaseChange@slinkClient@@MAEXIII@Z$0 00423830 f   slinkclient.obj
 0001:0002283b       __unwindfunclet$?ccdDatabaseChange@slinkClient@@MAEXIII@Z$1 0042383b f   slinkclient.obj
 0001:00022847       __ehhandler$?ccdDatabaseChange@slinkClient@@MAEXIII@Z 00423847 f   slinkclient.obj
 0001:00022870       __unwindfunclet$?ccdRedundancyState@slinkClient@@MAEXPAVccDriver@@W4redundancyState@cc@@@Z$0 00423870 f   slinkclient.obj
 0001:00022879       __unwindfunclet$?ccdRedundancyState@slinkClient@@MAEXPAVccDriver@@W4redundancyState@cc@@@Z$1 00423879 f   slinkclient.obj
 0001:00022882       __unwindfunclet$?ccdRedundancyState@slinkClient@@MAEXPAVccDriver@@W4redundancyState@cc@@@Z$2 00423882 f   slinkclient.obj
 0001:0002288b       __unwindfunclet$?ccdRedundancyState@slinkClient@@MAEXPAVccDriver@@W4redundancyState@cc@@@Z$3 0042388b f   slinkclient.obj
 0001:00022894       __unwindfunclet$?ccdRedundancyState@slinkClient@@MAEXPAVccDriver@@W4redundancyState@cc@@@Z$4 00423894 f   slinkclient.obj
 0001:0002289d       __unwindfunclet$?ccdRedundancyState@slinkClient@@MAEXPAVccDriver@@W4redundancyState@cc@@@Z$5 0042389d f   slinkclient.obj
 0001:000228a6       __unwindfunclet$?ccdRedundancyState@slinkClient@@MAEXPAVccDriver@@W4redundancyState@cc@@@Z$10 004238a6 f   slinkclient.obj
 0001:000228af       __unwindfunclet$?ccdRedundancyState@slinkClient@@MAEXPAVccDriver@@W4redundancyState@cc@@@Z$11 004238af f   slinkclient.obj
 0001:000228b8       __unwindfunclet$?ccdRedundancyState@slinkClient@@MAEXPAVccDriver@@W4redundancyState@cc@@@Z$6 004238b8 f   slinkclient.obj
 0001:000228c1       __unwindfunclet$?ccdRedundancyState@slinkClient@@MAEXPAVccDriver@@W4redundancyState@cc@@@Z$7 004238c1 f   slinkclient.obj
 0001:000228ca       __unwindfunclet$?ccdRedundancyState@slinkClient@@MAEXPAVccDriver@@W4redundancyState@cc@@@Z$8 004238ca f   slinkclient.obj
 0001:000228d3       __unwindfunclet$?ccdRedundancyState@slinkClient@@MAEXPAVccDriver@@W4redundancyState@cc@@@Z$9 004238d3 f   slinkclient.obj
 0001:000228dc       __ehhandler$?ccdRedundancyState@slinkClient@@MAEXPAVccDriver@@W4redundancyState@cc@@@Z 004238dc f   slinkclient.obj
 0001:00022900       __unwindfunclet$?connectStatusInfodriver@slinkClient@@AAEXXZ$0 00423900 f   slinkclient.obj
 0001:0002290b       __unwindfunclet$?connectStatusInfodriver@slinkClient@@AAEXXZ$1 0042390b f   slinkclient.obj
 0001:00022924       __unwindfunclet$?connectStatusInfodriver@slinkClient@@AAEXXZ$2 00423924 f   slinkclient.obj
 0001:0002292d       __unwindfunclet$?connectStatusInfodriver@slinkClient@@AAEXXZ$3 0042392d f   slinkclient.obj
 0001:00022936       __unwindfunclet$?connectStatusInfodriver@slinkClient@@AAEXXZ$4 00423936 f   slinkclient.obj
 0001:0002293f       __ehhandler$?connectStatusInfodriver@slinkClient@@AAEXXZ 0042393f f   slinkclient.obj
 0001:00022970       __ehhandler$?detach_helper@?$QList@PAVQListWidgetItem@@@@AAEXH@Z 00423970 f   slinkclient.obj
 0001:00022990       __ehhandler$?detach_helper@?$QList@VQString@@@@AAEXH@Z 00423990 f   slinkclient.obj
 0001:000229b0       __unwindfunclet$?doConfigEdit@slinkClient@@AAEXXZ$0 004239b0 f   slinkclient.obj
 0001:000229bb       __unwindfunclet$?doConfigEdit@slinkClient@@AAEXXZ$1 004239bb f   slinkclient.obj
 0001:000229c7       __unwindfunclet$?doConfigEdit@slinkClient@@AAEXXZ$2 004239c7 f   slinkclient.obj
 0001:000229d2       __unwindfunclet$?doConfigEdit@slinkClient@@AAEXXZ$3 004239d2 f   slinkclient.obj
 0001:000229dd       __unwindfunclet$?doConfigEdit@slinkClient@@AAEXXZ$4 004239dd f   slinkclient.obj
 0001:000229e9       __unwindfunclet$?doConfigEdit@slinkClient@@AAEXXZ$5 004239e9 f   slinkclient.obj
 0001:000229f1       __unwindfunclet$?doConfigEdit@slinkClient@@AAEXXZ$6 004239f1 f   slinkclient.obj
 0001:000229fc       __unwindfunclet$?doConfigEdit@slinkClient@@AAEXXZ$7 004239fc f   slinkclient.obj
 0001:00022a07       __unwindfunclet$?doConfigEdit@slinkClient@@AAEXXZ$8 00423a07 f   slinkclient.obj
 0001:00022a13       __unwindfunclet$?doConfigEdit@slinkClient@@AAEXXZ$9 00423a13 f   slinkclient.obj
 0001:00022a1e       __unwindfunclet$?doConfigEdit@slinkClient@@AAEXXZ$10 00423a1e f   slinkclient.obj
 0001:00022a26       __unwindfunclet$?doConfigEdit@slinkClient@@AAEXXZ$11 00423a26 f   slinkclient.obj
 0001:00022a31       __unwindfunclet$?doConfigEdit@slinkClient@@AAEXXZ$12 00423a31 f   slinkclient.obj
 0001:00022a3d       __unwindfunclet$?doConfigEdit@slinkClient@@AAEXXZ$13 00423a3d f   slinkclient.obj
 0001:00022a48       __unwindfunclet$?doConfigEdit@slinkClient@@AAEXXZ$14 00423a48 f   slinkclient.obj
 0001:00022a53       __unwindfunclet$?doConfigEdit@slinkClient@@AAEXXZ$15 00423a53 f   slinkclient.obj
 0001:00022a5e       __unwindfunclet$?doConfigEdit@slinkClient@@AAEXXZ$16 00423a5e f   slinkclient.obj
 0001:00022a6a       __unwindfunclet$?doConfigEdit@slinkClient@@AAEXXZ$17 00423a6a f   slinkclient.obj
 0001:00022a76       __unwindfunclet$?doConfigEdit@slinkClient@@AAEXXZ$18 00423a76 f   slinkclient.obj
 0001:00022a82       __unwindfunclet$?doConfigEdit@slinkClient@@AAEXXZ$19 00423a82 f   slinkclient.obj
 0001:00022a8e       __unwindfunclet$?doConfigEdit@slinkClient@@AAEXXZ$20 00423a8e f   slinkclient.obj
 0001:00022a9a       __unwindfunclet$?doConfigEdit@slinkClient@@AAEXXZ$21 00423a9a f   slinkclient.obj
 0001:00022aa6       __unwindfunclet$?doConfigEdit@slinkClient@@AAEXXZ$22 00423aa6 f   slinkclient.obj
 0001:00022ab2       __unwindfunclet$?doConfigEdit@slinkClient@@AAEXXZ$23 00423ab2 f   slinkclient.obj
 0001:00022abe       __unwindfunclet$?doConfigEdit@slinkClient@@AAEXXZ$24 00423abe f   slinkclient.obj
 0001:00022aca       __unwindfunclet$?doConfigEdit@slinkClient@@AAEXXZ$27 00423aca f   slinkclient.obj
 0001:00022ad2       __unwindfunclet$?doConfigEdit@slinkClient@@AAEXXZ$28 00423ad2 f   slinkclient.obj
 0001:00022ada       __unwindfunclet$?doConfigEdit@slinkClient@@AAEXXZ$29 00423ada f   slinkclient.obj
 0001:00022ae6       __unwindfunclet$?doConfigEdit@slinkClient@@AAEXXZ$30 00423ae6 f   slinkclient.obj
 0001:00022af2       __unwindfunclet$?doConfigEdit@slinkClient@@AAEXXZ$31 00423af2 f   slinkclient.obj
 0001:00022afa       __unwindfunclet$?doConfigEdit@slinkClient@@AAEXXZ$32 00423afa f   slinkclient.obj
 0001:00022b06       __unwindfunclet$?doConfigEdit@slinkClient@@AAEXXZ$33 00423b06 f   slinkclient.obj
 0001:00022b12       __unwindfunclet$?doConfigEdit@slinkClient@@AAEXXZ$34 00423b12 f   slinkclient.obj
 0001:00022b1a       __unwindfunclet$?doConfigEdit@slinkClient@@AAEXXZ$37 00423b1a f   slinkclient.obj
 0001:00022b22       __unwindfunclet$?doConfigEdit@slinkClient@@AAEXXZ$38 00423b22 f   slinkclient.obj
 0001:00022b2a       __unwindfunclet$?doConfigEdit@slinkClient@@AAEXXZ$39 00423b2a f   slinkclient.obj
 0001:00022b36       __unwindfunclet$?doConfigEdit@slinkClient@@AAEXXZ$40 00423b36 f   slinkclient.obj
 0001:00022b42       __unwindfunclet$?doConfigEdit@slinkClient@@AAEXXZ$41 00423b42 f   slinkclient.obj
 0001:00022b4a       __unwindfunclet$?doConfigEdit@slinkClient@@AAEXXZ$42 00423b4a f   slinkclient.obj
 0001:00022b56       __unwindfunclet$?doConfigEdit@slinkClient@@AAEXXZ$43 00423b56 f   slinkclient.obj
 0001:00022b62       __unwindfunclet$?doConfigEdit@slinkClient@@AAEXXZ$44 00423b62 f   slinkclient.obj
 0001:00022b6a       __unwindfunclet$?doConfigEdit@slinkClient@@AAEXXZ$45 00423b6a f   slinkclient.obj
 0001:00022b72       __unwindfunclet$?doConfigEdit@slinkClient@@AAEXXZ$46 00423b72 f   slinkclient.obj
 0001:00022b7a       __unwindfunclet$?doConfigEdit@slinkClient@@AAEXXZ$49 00423b7a f   slinkclient.obj
 0001:00022b82       __unwindfunclet$?doConfigEdit@slinkClient@@AAEXXZ$50 00423b82 f   slinkclient.obj
 0001:00022b8a       __unwindfunclet$?doConfigEdit@slinkClient@@AAEXXZ$51 00423b8a f   slinkclient.obj
 0001:00022b96       __unwindfunclet$?doConfigEdit@slinkClient@@AAEXXZ$52 00423b96 f   slinkclient.obj
 0001:00022ba2       __unwindfunclet$?doConfigEdit@slinkClient@@AAEXXZ$53 00423ba2 f   slinkclient.obj
 0001:00022baa       __unwindfunclet$?doConfigEdit@slinkClient@@AAEXXZ$54 00423baa f   slinkclient.obj
 0001:00022bb6       __unwindfunclet$?doConfigEdit@slinkClient@@AAEXXZ$55 00423bb6 f   slinkclient.obj
 0001:00022bc2       __unwindfunclet$?doConfigEdit@slinkClient@@AAEXXZ$56 00423bc2 f   slinkclient.obj
 0001:00022bca       __unwindfunclet$?doConfigEdit@slinkClient@@AAEXXZ$59 00423bca f   slinkclient.obj
 0001:00022bd2       __unwindfunclet$?doConfigEdit@slinkClient@@AAEXXZ$60 00423bd2 f   slinkclient.obj
 0001:00022bda       __unwindfunclet$?doConfigEdit@slinkClient@@AAEXXZ$63 00423bda f   slinkclient.obj
 0001:00022be2       __unwindfunclet$?doConfigEdit@slinkClient@@AAEXXZ$64 00423be2 f   slinkclient.obj
 0001:00022bea       __unwindfunclet$?doConfigEdit@slinkClient@@AAEXXZ$66 00423bea f   slinkclient.obj
 0001:00022bf2       __unwindfunclet$?doConfigEdit@slinkClient@@AAEXXZ$67 00423bf2 f   slinkclient.obj
 0001:00022bfe       __unwindfunclet$?doConfigEdit@slinkClient@@AAEXXZ$68 00423bfe f   slinkclient.obj
 0001:00022c06       __unwindfunclet$?doConfigEdit@slinkClient@@AAEXXZ$70 00423c06 f   slinkclient.obj
 0001:00022c0e       __unwindfunclet$?doConfigEdit@slinkClient@@AAEXXZ$71 00423c0e f   slinkclient.obj
 0001:00022c1a       __unwindfunclet$?doConfigEdit@slinkClient@@AAEXXZ$72 00423c1a f   slinkclient.obj
 0001:00022c22       __unwindfunclet$?doConfigEdit@slinkClient@@AAEXXZ$74 00423c22 f   slinkclient.obj
 0001:00022c2a       __unwindfunclet$?doConfigEdit@slinkClient@@AAEXXZ$75 00423c2a f   slinkclient.obj
 0001:00022c36       __unwindfunclet$?doConfigEdit@slinkClient@@AAEXXZ$76 00423c36 f   slinkclient.obj
 0001:00022c3e       __unwindfunclet$?doConfigEdit@slinkClient@@AAEXXZ$77 00423c3e f   slinkclient.obj
 0001:00022c4a       __unwindfunclet$?doConfigEdit@slinkClient@@AAEXXZ$78 00423c4a f   slinkclient.obj
 0001:00022c56       __unwindfunclet$?doConfigEdit@slinkClient@@AAEXXZ$79 00423c56 f   slinkclient.obj
 0001:00022c5e       __unwindfunclet$?doConfigEdit@slinkClient@@AAEXXZ$80 00423c5e f   slinkclient.obj
 0001:00022c6a       __unwindfunclet$?doConfigEdit@slinkClient@@AAEXXZ$81 00423c6a f   slinkclient.obj
 0001:00022c76       __unwindfunclet$?doConfigEdit@slinkClient@@AAEXXZ$82 00423c76 f   slinkclient.obj
 0001:00022c7e       __unwindfunclet$?doConfigEdit@slinkClient@@AAEXXZ$83 00423c7e f   slinkclient.obj
 0001:00022c86       __unwindfunclet$?doConfigEdit@slinkClient@@AAEXXZ$84 00423c86 f   slinkclient.obj
 0001:00022c8e       __unwindfunclet$?doConfigEdit@slinkClient@@AAEXXZ$85 00423c8e f   slinkclient.obj
 0001:00022c9c       __ehhandler$?doConfigEdit@slinkClient@@AAEXXZ 00423c9c f   slinkclient.obj
 0001:00022cd0       __unwindfunclet$?doHelp@slinkClient@@AAEXXZ$0 00423cd0 f   slinkclient.obj
 0001:00022cdc       __unwindfunclet$?doHelp@slinkClient@@AAEXXZ$1 00423cdc f   slinkclient.obj
 0001:00022ce8       __unwindfunclet$?doHelp@slinkClient@@AAEXXZ$2 00423ce8 f   slinkclient.obj
 0001:00022cf4       __unwindfunclet$?doHelp@slinkClient@@AAEXXZ$3 00423cf4 f   slinkclient.obj
 0001:00022d00       __unwindfunclet$?doHelp@slinkClient@@AAEXXZ$4 00423d00 f   slinkclient.obj
 0001:00022d0c       __unwindfunclet$?doHelp@slinkClient@@AAEXXZ$5 00423d0c f   slinkclient.obj
 0001:00022d18       __ehhandler$?doHelp@slinkClient@@AAEXXZ 00423d18 f   slinkclient.obj
 0001:00022d40       __unwindfunclet$?fccConnected@slinkClient@@MAEXABVQString@@H0@Z$0 00423d40 f   slinkclient.obj
 0001:00022d49       __unwindfunclet$?fccConnected@slinkClient@@MAEXABVQString@@H0@Z$1 00423d49 f   slinkclient.obj
 0001:00022d52       __unwindfunclet$?fccConnected@slinkClient@@MAEXABVQString@@H0@Z$2 00423d52 f   slinkclient.obj
 0001:00022d5b       __unwindfunclet$?fccConnected@slinkClient@@MAEXABVQString@@H0@Z$3 00423d5b f   slinkclient.obj
 0001:00022d64       __unwindfunclet$?fccConnected@slinkClient@@MAEXABVQString@@H0@Z$4 00423d64 f   slinkclient.obj
 0001:00022d6d       __unwindfunclet$?fccConnected@slinkClient@@MAEXABVQString@@H0@Z$5 00423d6d f   slinkclient.obj
 0001:00022d76       __ehhandler$?fccConnected@slinkClient@@MAEXABVQString@@H0@Z 00423d76 f   slinkclient.obj
 0001:00022da0       __unwindfunclet$?fccDatabaseChange@slinkClient@@MAEXPAVfabianClient@@IIIABVQString@@@Z$0 00423da0 f   slinkclient.obj
 0001:00022da0       __unwindfunclet$?updateSlot@ccInfodriver@@QAE_NHABV?$basic_string@DU?$char_traits@D@std@@V?$allocator@D@2@@std@@AA_N@Z$0 00423da0 f   slinkclient.obj
 0001:00022da8       __ehhandler$?fccDatabaseChange@slinkClient@@MAEXPAVfabianClient@@IIIABVQString@@@Z 00423da8 f   slinkclient.obj
 0001:00022da8       __ehhandler$?updateSlot@ccInfodriver@@QAE_NHABV?$basic_string@DU?$char_traits@D@std@@V?$allocator@D@2@@std@@AA_N@Z 00423da8 f   slinkclient.obj
 0001:00022dd0       __unwindfunclet$?fccDeviceProfile@slinkClient@@MAEXPAVfabianClient@@III@Z$0 00423dd0 f   slinkclient.obj
 0001:00022dd8       __unwindfunclet$?fccDeviceProfile@slinkClient@@MAEXPAVfabianClient@@III@Z$1 00423dd8 f   slinkclient.obj
 0001:00022de1       __unwindfunclet$?fccDeviceProfile@slinkClient@@MAEXPAVfabianClient@@III@Z$2 00423de1 f   slinkclient.obj
 0001:00022dea       __unwindfunclet$?fccDeviceProfile@slinkClient@@MAEXPAVfabianClient@@III@Z$3 00423dea f   slinkclient.obj
 0001:00022df3       __unwindfunclet$?fccDeviceProfile@slinkClient@@MAEXPAVfabianClient@@III@Z$4 00423df3 f   slinkclient.obj
 0001:00022dfc       __unwindfunclet$?fccDeviceProfile@slinkClient@@MAEXPAVfabianClient@@III@Z$5 00423dfc f   slinkclient.obj
 0001:00022e05       __unwindfunclet$?fccDeviceProfile@slinkClient@@MAEXPAVfabianClient@@III@Z$6 00423e05 f   slinkclient.obj
 0001:00022e0e       __unwindfunclet$?fccDeviceProfile@slinkClient@@MAEXPAVfabianClient@@III@Z$7 00423e0e f   slinkclient.obj
 0001:00022e17       __unwindfunclet$?fccDeviceProfile@slinkClient@@MAEXPAVfabianClient@@III@Z$8 00423e17 f   slinkclient.obj
 0001:00022e20       __unwindfunclet$?fccDeviceProfile@slinkClient@@MAEXPAVfabianClient@@III@Z$9 00423e20 f   slinkclient.obj
 0001:00022e29       __unwindfunclet$?fccDeviceProfile@slinkClient@@MAEXPAVfabianClient@@III@Z$10 00423e29 f   slinkclient.obj
 0001:00022e32       __ehhandler$?fccDeviceProfile@slinkClient@@MAEXPAVfabianClient@@III@Z 00423e32 f   slinkclient.obj
 0001:00022e60       __unwindfunclet$?fccDisconnected@slinkClient@@MAEXXZ$0 00423e60 f   slinkclient.obj
 0001:00022e69       __unwindfunclet$?fccDisconnected@slinkClient@@MAEXXZ$1 00423e69 f   slinkclient.obj
 0001:00022e72       __unwindfunclet$?fccDisconnected@slinkClient@@MAEXXZ$2 00423e72 f   slinkclient.obj
 0001:00022e7b       __unwindfunclet$?fccDisconnected@slinkClient@@MAEXXZ$3 00423e7b f   slinkclient.obj
 0001:00022e84       __ehhandler$?fccDisconnected@slinkClient@@MAEXXZ 00423e84 f   slinkclient.obj
 0001:00022ea0       __unwindfunclet$?fccGpiRevertive@slinkClient@@MAEXPAVfabianClient@@II_NI@Z$0 00423ea0 f   slinkclient.obj
 0001:00022ea9       __unwindfunclet$?fccGpiRevertive@slinkClient@@MAEXPAVfabianClient@@II_NI@Z$1 00423ea9 f   slinkclient.obj
 0001:00022eb2       __unwindfunclet$?fccGpiRevertive@slinkClient@@MAEXPAVfabianClient@@II_NI@Z$2 00423eb2 f   slinkclient.obj
 0001:00022ebb       __unwindfunclet$?fccGpiRevertive@slinkClient@@MAEXPAVfabianClient@@II_NI@Z$3 00423ebb f   slinkclient.obj
 0001:00022ec4       __unwindfunclet$?fccGpiRevertive@slinkClient@@MAEXPAVfabianClient@@II_NI@Z$4 00423ec4 f   slinkclient.obj
 0001:00022ecd       __unwindfunclet$?fccGpiRevertive@slinkClient@@MAEXPAVfabianClient@@II_NI@Z$5 00423ecd f   slinkclient.obj
 0001:00022ed6       __unwindfunclet$?fccGpiRevertive@slinkClient@@MAEXPAVfabianClient@@II_NI@Z$6 00423ed6 f   slinkclient.obj
 0001:00022edf       __unwindfunclet$?fccGpiRevertive@slinkClient@@MAEXPAVfabianClient@@II_NI@Z$7 00423edf f   slinkclient.obj
 0001:00022ee8       __unwindfunclet$?fccGpiRevertive@slinkClient@@MAEXPAVfabianClient@@II_NI@Z$8 00423ee8 f   slinkclient.obj
 0001:00022ef1       __unwindfunclet$?fccGpiRevertive@slinkClient@@MAEXPAVfabianClient@@II_NI@Z$9 00423ef1 f   slinkclient.obj
 0001:00022efa       __ehhandler$?fccGpiRevertive@slinkClient@@MAEXPAVfabianClient@@II_NI@Z 00423efa f   slinkclient.obj
 0001:00022f20       __unwindfunclet$?fccInfoRevertive@slinkClient@@MAEXPAVfabianClient@@IIABVQString@@I@Z$0 00423f20 f   slinkclient.obj
 0001:00022f29       __unwindfunclet$?fccInfoRevertive@slinkClient@@MAEXPAVfabianClient@@IIABVQString@@I@Z$1 00423f29 f   slinkclient.obj
 0001:00022f32       __unwindfunclet$?fccInfoRevertive@slinkClient@@MAEXPAVfabianClient@@IIABVQString@@I@Z$2 00423f32 f   slinkclient.obj
 0001:00022f3b       __unwindfunclet$?fccInfoRevertive@slinkClient@@MAEXPAVfabianClient@@IIABVQString@@I@Z$3 00423f3b f   slinkclient.obj
 0001:00022f44       __unwindfunclet$?fccInfoRevertive@slinkClient@@MAEXPAVfabianClient@@IIABVQString@@I@Z$4 00423f44 f   slinkclient.obj
 0001:00022f4d       __unwindfunclet$?fccInfoRevertive@slinkClient@@MAEXPAVfabianClient@@IIABVQString@@I@Z$5 00423f4d f   slinkclient.obj
 0001:00022f56       __unwindfunclet$?fccInfoRevertive@slinkClient@@MAEXPAVfabianClient@@IIABVQString@@I@Z$6 00423f56 f   slinkclient.obj
 0001:00022f5f       __unwindfunclet$?fccInfoRevertive@slinkClient@@MAEXPAVfabianClient@@IIABVQString@@I@Z$7 00423f5f f   slinkclient.obj
 0001:00022f68       __unwindfunclet$?fccInfoRevertive@slinkClient@@MAEXPAVfabianClient@@IIABVQString@@I@Z$8 00423f68 f   slinkclient.obj
 0001:00022f71       __unwindfunclet$?fccInfoRevertive@slinkClient@@MAEXPAVfabianClient@@IIABVQString@@I@Z$9 00423f71 f   slinkclient.obj
 0001:00022f7a       __unwindfunclet$?fccInfoRevertive@slinkClient@@MAEXPAVfabianClient@@IIABVQString@@I@Z$10 00423f7a f   slinkclient.obj
 0001:00022f83       __ehhandler$?fccInfoRevertive@slinkClient@@MAEXPAVfabianClient@@IIABVQString@@I@Z 00423f83 f   slinkclient.obj
 0001:00022fc0       __unwindfunclet$?fccRouterRevertive@slinkClient@@MAEXPAVfabianClient@@IIHI@Z$0 00423fc0 f   slinkclient.obj
 0001:00022fc9       __unwindfunclet$?fccRouterRevertive@slinkClient@@MAEXPAVfabianClient@@IIHI@Z$1 00423fc9 f   slinkclient.obj
 0001:00022fd2       __unwindfunclet$?fccRouterRevertive@slinkClient@@MAEXPAVfabianClient@@IIHI@Z$2 00423fd2 f   slinkclient.obj
 0001:00022fdb       __unwindfunclet$?fccRouterRevertive@slinkClient@@MAEXPAVfabianClient@@IIHI@Z$3 00423fdb f   slinkclient.obj
 0001:00022fe4       __unwindfunclet$?fccRouterRevertive@slinkClient@@MAEXPAVfabianClient@@IIHI@Z$4 00423fe4 f   slinkclient.obj
 0001:00022fed       __unwindfunclet$?fccRouterRevertive@slinkClient@@MAEXPAVfabianClient@@IIHI@Z$5 00423fed f   slinkclient.obj
 0001:00022ff6       __unwindfunclet$?fccRouterRevertive@slinkClient@@MAEXPAVfabianClient@@IIHI@Z$6 00423ff6 f   slinkclient.obj
 0001:00022fff       __unwindfunclet$?fccRouterRevertive@slinkClient@@MAEXPAVfabianClient@@IIHI@Z$7 00423fff f   slinkclient.obj
 0001:00023008       __unwindfunclet$?fccRouterRevertive@slinkClient@@MAEXPAVfabianClient@@IIHI@Z$8 00424008 f   slinkclient.obj
 0001:00023011       __unwindfunclet$?fccRouterRevertive@slinkClient@@MAEXPAVfabianClient@@IIHI@Z$9 00424011 f   slinkclient.obj
 0001:0002301a       __unwindfunclet$?fccRouterRevertive@slinkClient@@MAEXPAVfabianClient@@IIHI@Z$10 0042401a f   slinkclient.obj
 0001:00023023       __unwindfunclet$?fccRouterRevertive@slinkClient@@MAEXPAVfabianClient@@IIHI@Z$11 00424023 f   slinkclient.obj
 0001:0002302c       __unwindfunclet$?fccRouterRevertive@slinkClient@@MAEXPAVfabianClient@@IIHI@Z$12 0042402c f   slinkclient.obj
 0001:00023035       __ehhandler$?fccRouterRevertive@slinkClient@@MAEXPAVfabianClient@@IIHI@Z 00424035 f   slinkclient.obj
 0001:00023050       __unwindfunclet$?removeDriver@slinkClient@@AAEXI@Z$0 00424050 f   slinkclient.obj
 0001:00023059       __unwindfunclet$?removeDriver@slinkClient@@AAEXI@Z$1 00424059 f   slinkclient.obj
 0001:00023062       __unwindfunclet$?removeDriver@slinkClient@@AAEXI@Z$2 00424062 f   slinkclient.obj
 0001:0002306a       __unwindfunclet$?removeDriver@slinkClient@@AAEXI@Z$3 0042406a f   slinkclient.obj
 0001:00023073       __unwindfunclet$?removeDriver@slinkClient@@AAEXI@Z$4 00424073 f   slinkclient.obj
 0001:0002307c       __ehhandler$?removeDriver@slinkClient@@AAEXI@Z 0042407c f   slinkclient.obj
 0001:000230a0       __unwindfunclet$?retranslateUi@Ui_configEdit@@QAEXPAVQDialog@@@Z$0 004240a0 f   slinkclient.obj
 0001:000230a9       __unwindfunclet$?retranslateUi@Ui_configEdit@@QAEXPAVQDialog@@@Z$1 004240a9 f   slinkclient.obj
 0001:000230b2       __unwindfunclet$?retranslateUi@Ui_configEdit@@QAEXPAVQDialog@@@Z$2 004240b2 f   slinkclient.obj
 0001:000230bb       __unwindfunclet$?retranslateUi@Ui_configEdit@@QAEXPAVQDialog@@@Z$3 004240bb f   slinkclient.obj
 0001:000230c4       __unwindfunclet$?retranslateUi@Ui_configEdit@@QAEXPAVQDialog@@@Z$4 004240c4 f   slinkclient.obj
 0001:000230cd       __unwindfunclet$?retranslateUi@Ui_configEdit@@QAEXPAVQDialog@@@Z$5 004240cd f   slinkclient.obj
 0001:000230d6       __unwindfunclet$?retranslateUi@Ui_configEdit@@QAEXPAVQDialog@@@Z$6 004240d6 f   slinkclient.obj
 0001:000230df       __unwindfunclet$?retranslateUi@Ui_configEdit@@QAEXPAVQDialog@@@Z$7 004240df f   slinkclient.obj
 0001:000230e8       __unwindfunclet$?retranslateUi@Ui_configEdit@@QAEXPAVQDialog@@@Z$8 004240e8 f   slinkclient.obj
 0001:000230f1       __unwindfunclet$?retranslateUi@Ui_configEdit@@QAEXPAVQDialog@@@Z$9 004240f1 f   slinkclient.obj
 0001:000230fa       __unwindfunclet$?retranslateUi@Ui_configEdit@@QAEXPAVQDialog@@@Z$10 004240fa f   slinkclient.obj
 0001:00023103       __unwindfunclet$?retranslateUi@Ui_configEdit@@QAEXPAVQDialog@@@Z$11 00424103 f   slinkclient.obj
 0001:0002310c       __unwindfunclet$?retranslateUi@Ui_configEdit@@QAEXPAVQDialog@@@Z$12 0042410c f   slinkclient.obj
 0001:00023115       __unwindfunclet$?retranslateUi@Ui_configEdit@@QAEXPAVQDialog@@@Z$13 00424115 f   slinkclient.obj
 0001:0002311e       __unwindfunclet$?retranslateUi@Ui_configEdit@@QAEXPAVQDialog@@@Z$14 0042411e f   slinkclient.obj
 0001:00023127       __unwindfunclet$?retranslateUi@Ui_configEdit@@QAEXPAVQDialog@@@Z$15 00424127 f   slinkclient.obj
 0001:00023130       __unwindfunclet$?retranslateUi@Ui_configEdit@@QAEXPAVQDialog@@@Z$16 00424130 f   slinkclient.obj
 0001:00023139       __unwindfunclet$?retranslateUi@Ui_configEdit@@QAEXPAVQDialog@@@Z$17 00424139 f   slinkclient.obj
 0001:00023142       __unwindfunclet$?retranslateUi@Ui_configEdit@@QAEXPAVQDialog@@@Z$18 00424142 f   slinkclient.obj
 0001:0002314b       __unwindfunclet$?retranslateUi@Ui_configEdit@@QAEXPAVQDialog@@@Z$19 0042414b f   slinkclient.obj
 0001:00023154       __unwindfunclet$?retranslateUi@Ui_configEdit@@QAEXPAVQDialog@@@Z$20 00424154 f   slinkclient.obj
 0001:0002315d       __unwindfunclet$?retranslateUi@Ui_configEdit@@QAEXPAVQDialog@@@Z$21 0042415d f   slinkclient.obj
 0001:00023166       __ehhandler$?retranslateUi@Ui_configEdit@@QAEXPAVQDialog@@@Z 00424166 f   slinkclient.obj
 0001:00023190       __unwindfunclet$?retranslateUi@Ui_slinkClientClass@@QAEXPAVQMainWindow@@@Z$0 00424190 f   slinkclient.obj
 0001:00023199       __unwindfunclet$?retranslateUi@Ui_slinkClientClass@@QAEXPAVQMainWindow@@@Z$1 00424199 f   slinkclient.obj
 0001:000231a2       __unwindfunclet$?retranslateUi@Ui_slinkClientClass@@QAEXPAVQMainWindow@@@Z$2 004241a2 f   slinkclient.obj
 0001:000231ab       __unwindfunclet$?retranslateUi@Ui_slinkClientClass@@QAEXPAVQMainWindow@@@Z$3 004241ab f   slinkclient.obj
 0001:000231b4       __unwindfunclet$?retranslateUi@Ui_slinkClientClass@@QAEXPAVQMainWindow@@@Z$4 004241b4 f   slinkclient.obj
 0001:000231bd       __unwindfunclet$?retranslateUi@Ui_slinkClientClass@@QAEXPAVQMainWindow@@@Z$5 004241bd f   slinkclient.obj
 0001:000231c6       __unwindfunclet$?retranslateUi@Ui_slinkClientClass@@QAEXPAVQMainWindow@@@Z$6 004241c6 f   slinkclient.obj
 0001:000231cf       __unwindfunclet$?retranslateUi@Ui_slinkClientClass@@QAEXPAVQMainWindow@@@Z$7 004241cf f   slinkclient.obj
 0001:000231d8       __unwindfunclet$?retranslateUi@Ui_slinkClientClass@@QAEXPAVQMainWindow@@@Z$8 004241d8 f   slinkclient.obj
 0001:000231e1       __unwindfunclet$?retranslateUi@Ui_slinkClientClass@@QAEXPAVQMainWindow@@@Z$9 004241e1 f   slinkclient.obj
 0001:000231ea       __unwindfunclet$?retranslateUi@Ui_slinkClientClass@@QAEXPAVQMainWindow@@@Z$10 004241ea f   slinkclient.obj
 0001:000231f3       __unwindfunclet$?retranslateUi@Ui_slinkClientClass@@QAEXPAVQMainWindow@@@Z$11 004241f3 f   slinkclient.obj
 0001:000231fc       __unwindfunclet$?retranslateUi@Ui_slinkClientClass@@QAEXPAVQMainWindow@@@Z$12 004241fc f   slinkclient.obj
 0001:00023205       __unwindfunclet$?retranslateUi@Ui_slinkClientClass@@QAEXPAVQMainWindow@@@Z$13 00424205 f   slinkclient.obj
 0001:0002320e       __unwindfunclet$?retranslateUi@Ui_slinkClientClass@@QAEXPAVQMainWindow@@@Z$14 0042420e f   slinkclient.obj
 0001:00023217       __unwindfunclet$?retranslateUi@Ui_slinkClientClass@@QAEXPAVQMainWindow@@@Z$15 00424217 f   slinkclient.obj
 0001:00023220       __unwindfunclet$?retranslateUi@Ui_slinkClientClass@@QAEXPAVQMainWindow@@@Z$16 00424220 f   slinkclient.obj
 0001:00023229       __unwindfunclet$?retranslateUi@Ui_slinkClientClass@@QAEXPAVQMainWindow@@@Z$17 00424229 f   slinkclient.obj
 0001:00023232       __unwindfunclet$?retranslateUi@Ui_slinkClientClass@@QAEXPAVQMainWindow@@@Z$18 00424232 f   slinkclient.obj
 0001:0002323b       __unwindfunclet$?retranslateUi@Ui_slinkClientClass@@QAEXPAVQMainWindow@@@Z$19 0042423b f   slinkclient.obj
 0001:00023244       __unwindfunclet$?retranslateUi@Ui_slinkClientClass@@QAEXPAVQMainWindow@@@Z$20 00424244 f   slinkclient.obj
 0001:0002324d       __unwindfunclet$?retranslateUi@Ui_slinkClientClass@@QAEXPAVQMainWindow@@@Z$21 0042424d f   slinkclient.obj
 0001:00023256       __unwindfunclet$?retranslateUi@Ui_slinkClientClass@@QAEXPAVQMainWindow@@@Z$22 00424256 f   slinkclient.obj
 0001:0002325f       __unwindfunclet$?retranslateUi@Ui_slinkClientClass@@QAEXPAVQMainWindow@@@Z$23 0042425f f   slinkclient.obj
 0001:00023268       __unwindfunclet$?retranslateUi@Ui_slinkClientClass@@QAEXPAVQMainWindow@@@Z$24 00424268 f   slinkclient.obj
 0001:00023271       __unwindfunclet$?retranslateUi@Ui_slinkClientClass@@QAEXPAVQMainWindow@@@Z$25 00424271 f   slinkclient.obj
 0001:0002327a       __unwindfunclet$?retranslateUi@Ui_slinkClientClass@@QAEXPAVQMainWindow@@@Z$26 0042427a f   slinkclient.obj
 0001:00023283       __unwindfunclet$?retranslateUi@Ui_slinkClientClass@@QAEXPAVQMainWindow@@@Z$27 00424283 f   slinkclient.obj
 0001:0002328c       __unwindfunclet$?retranslateUi@Ui_slinkClientClass@@QAEXPAVQMainWindow@@@Z$28 0042428c f   slinkclient.obj
 0001:00023295       __unwindfunclet$?retranslateUi@Ui_slinkClientClass@@QAEXPAVQMainWindow@@@Z$29 00424295 f   slinkclient.obj
 0001:0002329e       __unwindfunclet$?retranslateUi@Ui_slinkClientClass@@QAEXPAVQMainWindow@@@Z$30 0042429e f   slinkclient.obj
 0001:000232a7       __unwindfunclet$?retranslateUi@Ui_slinkClientClass@@QAEXPAVQMainWindow@@@Z$31 004242a7 f   slinkclient.obj
 0001:000232b0       __unwindfunclet$?retranslateUi@Ui_slinkClientClass@@QAEXPAVQMainWindow@@@Z$32 004242b0 f   slinkclient.obj
 0001:000232b9       __unwindfunclet$?retranslateUi@Ui_slinkClientClass@@QAEXPAVQMainWindow@@@Z$33 004242b9 f   slinkclient.obj
 0001:000232c2       __unwindfunclet$?retranslateUi@Ui_slinkClientClass@@QAEXPAVQMainWindow@@@Z$34 004242c2 f   slinkclient.obj
 0001:000232cb       __unwindfunclet$?retranslateUi@Ui_slinkClientClass@@QAEXPAVQMainWindow@@@Z$35 004242cb f   slinkclient.obj
 0001:000232d4       __unwindfunclet$?retranslateUi@Ui_slinkClientClass@@QAEXPAVQMainWindow@@@Z$36 004242d4 f   slinkclient.obj
 0001:000232dd       __unwindfunclet$?retranslateUi@Ui_slinkClientClass@@QAEXPAVQMainWindow@@@Z$37 004242dd f   slinkclient.obj
 0001:000232e6       __unwindfunclet$?retranslateUi@Ui_slinkClientClass@@QAEXPAVQMainWindow@@@Z$38 004242e6 f   slinkclient.obj
 0001:000232ef       __unwindfunclet$?retranslateUi@Ui_slinkClientClass@@QAEXPAVQMainWindow@@@Z$39 004242ef f   slinkclient.obj
 0001:000232f8       __unwindfunclet$?retranslateUi@Ui_slinkClientClass@@QAEXPAVQMainWindow@@@Z$40 004242f8 f   slinkclient.obj
 0001:00023301       __unwindfunclet$?retranslateUi@Ui_slinkClientClass@@QAEXPAVQMainWindow@@@Z$41 00424301 f   slinkclient.obj
 0001:0002330a       __unwindfunclet$?retranslateUi@Ui_slinkClientClass@@QAEXPAVQMainWindow@@@Z$42 0042430a f   slinkclient.obj
 0001:00023313       __ehhandler$?retranslateUi@Ui_slinkClientClass@@QAEXPAVQMainWindow@@@Z 00424313 f   slinkclient.obj
 0001:00023330       __unwindfunclet$?sendConnectionString@slinkClient@@AAEXXZ$0 00424330 f   slinkclient.obj
 0001:00023339       __unwindfunclet$?sendConnectionString@slinkClient@@AAEXXZ$1 00424339 f   slinkclient.obj
 0001:00023342       __unwindfunclet$?sendConnectionString@slinkClient@@AAEXXZ$2 00424342 f   slinkclient.obj
 0001:0002334b       __unwindfunclet$?sendConnectionString@slinkClient@@AAEXXZ$3 0042434b f   slinkclient.obj
 0001:00023354       __unwindfunclet$?sendConnectionString@slinkClient@@AAEXXZ$4 00424354 f   slinkclient.obj
 0001:0002335d       __unwindfunclet$?sendConnectionString@slinkClient@@AAEXXZ$5 0042435d f   slinkclient.obj
 0001:00023366       __unwindfunclet$?sendConnectionString@slinkClient@@AAEXXZ$6 00424366 f   slinkclient.obj
 0001:0002336f       __unwindfunclet$?sendConnectionString@slinkClient@@AAEXXZ$7 0042436f f   slinkclient.obj
 0001:00023378       __unwindfunclet$?sendConnectionString@slinkClient@@AAEXXZ$8 00424378 f   slinkclient.obj
 0001:00023381       __unwindfunclet$?sendConnectionString@slinkClient@@AAEXXZ$9 00424381 f   slinkclient.obj
 0001:0002338a       __unwindfunclet$?sendConnectionString@slinkClient@@AAEXXZ$10 0042438a f   slinkclient.obj
 0001:00023393       __ehhandler$?sendConnectionString@slinkClient@@AAEXXZ 00424393 f   slinkclient.obj
 0001:000233b0       __unwindfunclet$?setFabianStatus@slinkClient@@AAEXI@Z$0 004243b0 f   slinkclient.obj
 0001:000233b9       __unwindfunclet$?setFabianStatus@slinkClient@@AAEXI@Z$1 004243b9 f   slinkclient.obj
 0001:000233c2       __unwindfunclet$?setFabianStatus@slinkClient@@AAEXI@Z$2 004243c2 f   slinkclient.obj
 0001:000233cb       __ehhandler$?setFabianStatus@slinkClient@@AAEXI@Z 004243cb f   slinkclient.obj
 0001:000233f0       __unwindfunclet$?setInfodriverStatusValue@slinkClient@@AAEXABVQString@@@Z$0 004243f0 f   slinkclient.obj
 0001:000233f8       __unwindfunclet$?setInfodriverStatusValue@slinkClient@@AAEXABVQString@@@Z$1 004243f8 f   slinkclient.obj
 0001:00023400       __ehhandler$?setInfodriverStatusValue@slinkClient@@AAEXABVQString@@@Z 00424400 f   slinkclient.obj
 0001:00023430       __unwindfunclet$?setSocksProxy@slinkClient@@AAEXXZ$0 00424430 f   slinkclient.obj
 0001:00023439       __unwindfunclet$?setSocksProxy@slinkClient@@AAEXXZ$1 00424439 f   slinkclient.obj
 0001:00023442       __ehhandler$?setSocksProxy@slinkClient@@AAEXXZ 00424442 f   slinkclient.obj
 0001:00023460       __unwindfunclet$?setupUi@Ui_configEdit@@QAEXPAVQDialog@@@Z$1 00424460 f   slinkclient.obj
 0001:00023469       __unwindfunclet$?setupUi@Ui_configEdit@@QAEXPAVQDialog@@@Z$2 00424469 f   slinkclient.obj
 0001:00023474       __unwindfunclet$?setupUi@Ui_configEdit@@QAEXPAVQDialog@@@Z$3 00424474 f   slinkclient.obj
 0001:0002347d       __unwindfunclet$?setupUi@Ui_configEdit@@QAEXPAVQDialog@@@Z$4 0042447d f   slinkclient.obj
 0001:00023488       __unwindfunclet$?setupUi@Ui_configEdit@@QAEXPAVQDialog@@@Z$5 00424488 f   slinkclient.obj
 0001:00023491       __unwindfunclet$?setupUi@Ui_configEdit@@QAEXPAVQDialog@@@Z$6 00424491 f   slinkclient.obj
 0001:0002349c       __unwindfunclet$?setupUi@Ui_configEdit@@QAEXPAVQDialog@@@Z$7 0042449c f   slinkclient.obj
 0001:000234a5       __unwindfunclet$?setupUi@Ui_configEdit@@QAEXPAVQDialog@@@Z$8 004244a5 f   slinkclient.obj
 0001:000234b0       __unwindfunclet$?setupUi@Ui_configEdit@@QAEXPAVQDialog@@@Z$9 004244b0 f   slinkclient.obj
 0001:000234b9       __unwindfunclet$?setupUi@Ui_configEdit@@QAEXPAVQDialog@@@Z$10 004244b9 f   slinkclient.obj
 0001:000234c4       __unwindfunclet$?setupUi@Ui_configEdit@@QAEXPAVQDialog@@@Z$11 004244c4 f   slinkclient.obj
 0001:000234cd       __unwindfunclet$?setupUi@Ui_configEdit@@QAEXPAVQDialog@@@Z$12 004244cd f   slinkclient.obj
 0001:000234d8       __unwindfunclet$?setupUi@Ui_configEdit@@QAEXPAVQDialog@@@Z$13 004244d8 f   slinkclient.obj
 0001:000234e1       __unwindfunclet$?setupUi@Ui_configEdit@@QAEXPAVQDialog@@@Z$14 004244e1 f   slinkclient.obj
 0001:000234ec       __unwindfunclet$?setupUi@Ui_configEdit@@QAEXPAVQDialog@@@Z$15 004244ec f   slinkclient.obj
 0001:000234f5       __unwindfunclet$?setupUi@Ui_configEdit@@QAEXPAVQDialog@@@Z$16 004244f5 f   slinkclient.obj
 0001:00023500       __unwindfunclet$?setupUi@Ui_configEdit@@QAEXPAVQDialog@@@Z$17 00424500 f   slinkclient.obj
 0001:00023509       __unwindfunclet$?setupUi@Ui_configEdit@@QAEXPAVQDialog@@@Z$18 00424509 f   slinkclient.obj
 0001:00023514       __unwindfunclet$?setupUi@Ui_configEdit@@QAEXPAVQDialog@@@Z$19 00424514 f   slinkclient.obj
 0001:0002351d       __unwindfunclet$?setupUi@Ui_configEdit@@QAEXPAVQDialog@@@Z$20 0042451d f   slinkclient.obj
 0001:00023528       __unwindfunclet$?setupUi@Ui_configEdit@@QAEXPAVQDialog@@@Z$21 00424528 f   slinkclient.obj
 0001:00023531       __unwindfunclet$?setupUi@Ui_configEdit@@QAEXPAVQDialog@@@Z$22 00424531 f   slinkclient.obj
 0001:0002353c       __unwindfunclet$?setupUi@Ui_configEdit@@QAEXPAVQDialog@@@Z$23 0042453c f   slinkclient.obj
 0001:00023545       __unwindfunclet$?setupUi@Ui_configEdit@@QAEXPAVQDialog@@@Z$24 00424545 f   slinkclient.obj
 0001:00023550       __unwindfunclet$?setupUi@Ui_configEdit@@QAEXPAVQDialog@@@Z$25 00424550 f   slinkclient.obj
 0001:00023559       __unwindfunclet$?setupUi@Ui_configEdit@@QAEXPAVQDialog@@@Z$26 00424559 f   slinkclient.obj
 0001:00023564       __unwindfunclet$?setupUi@Ui_configEdit@@QAEXPAVQDialog@@@Z$27 00424564 f   slinkclient.obj
 0001:0002356d       __unwindfunclet$?setupUi@Ui_configEdit@@QAEXPAVQDialog@@@Z$28 0042456d f   slinkclient.obj
 0001:00023578       __unwindfunclet$?setupUi@Ui_configEdit@@QAEXPAVQDialog@@@Z$29 00424578 f   slinkclient.obj
 0001:00023581       __unwindfunclet$?setupUi@Ui_configEdit@@QAEXPAVQDialog@@@Z$30 00424581 f   slinkclient.obj
 0001:0002358c       __unwindfunclet$?setupUi@Ui_configEdit@@QAEXPAVQDialog@@@Z$31 0042458c f   slinkclient.obj
 0001:00023595       __unwindfunclet$?setupUi@Ui_configEdit@@QAEXPAVQDialog@@@Z$32 00424595 f   slinkclient.obj
 0001:000235a0       __unwindfunclet$?setupUi@Ui_configEdit@@QAEXPAVQDialog@@@Z$33 004245a0 f   slinkclient.obj
 0001:000235a9       __unwindfunclet$?setupUi@Ui_configEdit@@QAEXPAVQDialog@@@Z$34 004245a9 f   slinkclient.obj
 0001:000235b4       __unwindfunclet$?setupUi@Ui_configEdit@@QAEXPAVQDialog@@@Z$35 004245b4 f   slinkclient.obj
 0001:000235bd       __unwindfunclet$?setupUi@Ui_configEdit@@QAEXPAVQDialog@@@Z$36 004245bd f   slinkclient.obj
 0001:000235c8       __unwindfunclet$?setupUi@Ui_configEdit@@QAEXPAVQDialog@@@Z$37 004245c8 f   slinkclient.obj
 0001:000235d1       __unwindfunclet$?setupUi@Ui_configEdit@@QAEXPAVQDialog@@@Z$38 004245d1 f   slinkclient.obj
 0001:000235dc       __unwindfunclet$?setupUi@Ui_configEdit@@QAEXPAVQDialog@@@Z$39 004245dc f   slinkclient.obj
 0001:000235e5       __unwindfunclet$?setupUi@Ui_configEdit@@QAEXPAVQDialog@@@Z$40 004245e5 f   slinkclient.obj
 0001:000235f0       __unwindfunclet$?setupUi@Ui_configEdit@@QAEXPAVQDialog@@@Z$41 004245f0 f   slinkclient.obj
 0001:000235f9       __unwindfunclet$?setupUi@Ui_configEdit@@QAEXPAVQDialog@@@Z$42 004245f9 f   slinkclient.obj
 0001:00023604       __unwindfunclet$?setupUi@Ui_configEdit@@QAEXPAVQDialog@@@Z$43 00424604 f   slinkclient.obj
 0001:0002360d       __unwindfunclet$?setupUi@Ui_configEdit@@QAEXPAVQDialog@@@Z$44 0042460d f   slinkclient.obj
 0001:00023618       __unwindfunclet$?setupUi@Ui_configEdit@@QAEXPAVQDialog@@@Z$45 00424618 f   slinkclient.obj
 0001:00023621       __unwindfunclet$?setupUi@Ui_configEdit@@QAEXPAVQDialog@@@Z$46 00424621 f   slinkclient.obj
 0001:0002362c       __unwindfunclet$?setupUi@Ui_configEdit@@QAEXPAVQDialog@@@Z$47 0042462c f   slinkclient.obj
 0001:00023635       __unwindfunclet$?setupUi@Ui_configEdit@@QAEXPAVQDialog@@@Z$48 00424635 f   slinkclient.obj
 0001:00023640       __unwindfunclet$?setupUi@Ui_configEdit@@QAEXPAVQDialog@@@Z$49 00424640 f   slinkclient.obj
 0001:00023649       __unwindfunclet$?setupUi@Ui_configEdit@@QAEXPAVQDialog@@@Z$50 00424649 f   slinkclient.obj
 0001:00023654       __unwindfunclet$?setupUi@Ui_configEdit@@QAEXPAVQDialog@@@Z$51 00424654 f   slinkclient.obj
 0001:0002365d       __unwindfunclet$?setupUi@Ui_configEdit@@QAEXPAVQDialog@@@Z$52 0042465d f   slinkclient.obj
 0001:00023668       __unwindfunclet$?setupUi@Ui_configEdit@@QAEXPAVQDialog@@@Z$53 00424668 f   slinkclient.obj
 0001:00023671       __unwindfunclet$?setupUi@Ui_configEdit@@QAEXPAVQDialog@@@Z$54 00424671 f   slinkclient.obj
 0001:0002367c       __unwindfunclet$?setupUi@Ui_configEdit@@QAEXPAVQDialog@@@Z$55 0042467c f   slinkclient.obj
 0001:00023685       __unwindfunclet$?setupUi@Ui_configEdit@@QAEXPAVQDialog@@@Z$56 00424685 f   slinkclient.obj
 0001:00023690       __unwindfunclet$?setupUi@Ui_configEdit@@QAEXPAVQDialog@@@Z$57 00424690 f   slinkclient.obj
 0001:00023699       __unwindfunclet$?setupUi@Ui_configEdit@@QAEXPAVQDialog@@@Z$58 00424699 f   slinkclient.obj
 0001:000236a4       __unwindfunclet$?setupUi@Ui_configEdit@@QAEXPAVQDialog@@@Z$59 004246a4 f   slinkclient.obj
 0001:000236ad       __unwindfunclet$?setupUi@Ui_configEdit@@QAEXPAVQDialog@@@Z$60 004246ad f   slinkclient.obj
 0001:000236b8       __unwindfunclet$?setupUi@Ui_configEdit@@QAEXPAVQDialog@@@Z$61 004246b8 f   slinkclient.obj
 0001:000236c1       __unwindfunclet$?setupUi@Ui_configEdit@@QAEXPAVQDialog@@@Z$62 004246c1 f   slinkclient.obj
 0001:000236cc       __unwindfunclet$?setupUi@Ui_configEdit@@QAEXPAVQDialog@@@Z$63 004246cc f   slinkclient.obj
 0001:000236d5       __unwindfunclet$?setupUi@Ui_configEdit@@QAEXPAVQDialog@@@Z$64 004246d5 f   slinkclient.obj
 0001:000236e0       __unwindfunclet$?setupUi@Ui_configEdit@@QAEXPAVQDialog@@@Z$65 004246e0 f   slinkclient.obj
 0001:000236e9       __unwindfunclet$?setupUi@Ui_configEdit@@QAEXPAVQDialog@@@Z$66 004246e9 f   slinkclient.obj
 0001:000236f4       __unwindfunclet$?setupUi@Ui_configEdit@@QAEXPAVQDialog@@@Z$67 004246f4 f   slinkclient.obj
 0001:000236fd       __unwindfunclet$?setupUi@Ui_configEdit@@QAEXPAVQDialog@@@Z$68 004246fd f   slinkclient.obj
 0001:00023708       __unwindfunclet$?setupUi@Ui_configEdit@@QAEXPAVQDialog@@@Z$69 00424708 f   slinkclient.obj
 0001:00023711       __unwindfunclet$?setupUi@Ui_configEdit@@QAEXPAVQDialog@@@Z$70 00424711 f   slinkclient.obj
 0001:0002371c       __unwindfunclet$?setupUi@Ui_configEdit@@QAEXPAVQDialog@@@Z$71 0042471c f   slinkclient.obj
 0001:00023725       __unwindfunclet$?setupUi@Ui_configEdit@@QAEXPAVQDialog@@@Z$72 00424725 f   slinkclient.obj
 0001:00023730       __unwindfunclet$?setupUi@Ui_configEdit@@QAEXPAVQDialog@@@Z$73 00424730 f   slinkclient.obj
 0001:0002373b       __unwindfunclet$?setupUi@Ui_configEdit@@QAEXPAVQDialog@@@Z$74 0042473b f   slinkclient.obj
 0001:00023744       __unwindfunclet$?setupUi@Ui_configEdit@@QAEXPAVQDialog@@@Z$75 00424744 f   slinkclient.obj
 0001:0002374f       __unwindfunclet$?setupUi@Ui_configEdit@@QAEXPAVQDialog@@@Z$76 0042474f f   slinkclient.obj
 0001:00023758       __unwindfunclet$?setupUi@Ui_configEdit@@QAEXPAVQDialog@@@Z$77 00424758 f   slinkclient.obj
 0001:00023763       __unwindfunclet$?setupUi@Ui_configEdit@@QAEXPAVQDialog@@@Z$78 00424763 f   slinkclient.obj
 0001:0002376c       __unwindfunclet$?setupUi@Ui_configEdit@@QAEXPAVQDialog@@@Z$79 0042476c f   slinkclient.obj
 0001:00023777       __unwindfunclet$?setupUi@Ui_configEdit@@QAEXPAVQDialog@@@Z$80 00424777 f   slinkclient.obj
 0001:00023780       __unwindfunclet$?setupUi@Ui_configEdit@@QAEXPAVQDialog@@@Z$81 00424780 f   slinkclient.obj
 0001:0002378b       __unwindfunclet$?setupUi@Ui_configEdit@@QAEXPAVQDialog@@@Z$82 0042478b f   slinkclient.obj
 0001:00023794       __unwindfunclet$?setupUi@Ui_configEdit@@QAEXPAVQDialog@@@Z$83 00424794 f   slinkclient.obj
 0001:0002379f       __unwindfunclet$?setupUi@Ui_configEdit@@QAEXPAVQDialog@@@Z$84 0042479f f   slinkclient.obj
 0001:000237a8       __unwindfunclet$?setupUi@Ui_configEdit@@QAEXPAVQDialog@@@Z$85 004247a8 f   slinkclient.obj
 0001:000237b3       __unwindfunclet$?setupUi@Ui_configEdit@@QAEXPAVQDialog@@@Z$86 004247b3 f   slinkclient.obj
 0001:000237be       __unwindfunclet$?setupUi@Ui_configEdit@@QAEXPAVQDialog@@@Z$87 004247be f   slinkclient.obj
 0001:000237c9       __unwindfunclet$?setupUi@Ui_configEdit@@QAEXPAVQDialog@@@Z$88 004247c9 f   slinkclient.obj
 0001:000237d2       __unwindfunclet$?setupUi@Ui_configEdit@@QAEXPAVQDialog@@@Z$89 004247d2 f   slinkclient.obj
 0001:000237dd       __unwindfunclet$?setupUi@Ui_configEdit@@QAEXPAVQDialog@@@Z$90 004247dd f   slinkclient.obj
 0001:000237e8       __unwindfunclet$?setupUi@Ui_configEdit@@QAEXPAVQDialog@@@Z$91 004247e8 f   slinkclient.obj
 0001:000237f1       __ehhandler$?setupUi@Ui_configEdit@@QAEXPAVQDialog@@@Z 004247f1 f   slinkclient.obj
 0001:00023810       __unwindfunclet$?setupUi@Ui_slinkClientClass@@QAEXPAVQMainWindow@@@Z$1 00424810 f   slinkclient.obj
 0001:00023819       __unwindfunclet$?setupUi@Ui_slinkClientClass@@QAEXPAVQMainWindow@@@Z$2 00424819 f   slinkclient.obj
 0001:00023824       __unwindfunclet$?setupUi@Ui_slinkClientClass@@QAEXPAVQMainWindow@@@Z$3 00424824 f   slinkclient.obj
 0001:0002382d       __unwindfunclet$?setupUi@Ui_slinkClientClass@@QAEXPAVQMainWindow@@@Z$4 0042482d f   slinkclient.obj
 0001:00023838       __unwindfunclet$?setupUi@Ui_slinkClientClass@@QAEXPAVQMainWindow@@@Z$5 00424838 f   slinkclient.obj
 0001:00023841       __unwindfunclet$?setupUi@Ui_slinkClientClass@@QAEXPAVQMainWindow@@@Z$6 00424841 f   slinkclient.obj
 0001:0002384c       __unwindfunclet$?setupUi@Ui_slinkClientClass@@QAEXPAVQMainWindow@@@Z$7 0042484c f   slinkclient.obj
 0001:00023855       __unwindfunclet$?setupUi@Ui_slinkClientClass@@QAEXPAVQMainWindow@@@Z$8 00424855 f   slinkclient.obj
 0001:00023860       __unwindfunclet$?setupUi@Ui_slinkClientClass@@QAEXPAVQMainWindow@@@Z$9 00424860 f   slinkclient.obj
 0001:00023869       __unwindfunclet$?setupUi@Ui_slinkClientClass@@QAEXPAVQMainWindow@@@Z$10 00424869 f   slinkclient.obj
 0001:00023874       __unwindfunclet$?setupUi@Ui_slinkClientClass@@QAEXPAVQMainWindow@@@Z$11 00424874 f   slinkclient.obj
 0001:0002387d       __unwindfunclet$?setupUi@Ui_slinkClientClass@@QAEXPAVQMainWindow@@@Z$12 0042487d f   slinkclient.obj
 0001:00023888       __unwindfunclet$?setupUi@Ui_slinkClientClass@@QAEXPAVQMainWindow@@@Z$13 00424888 f   slinkclient.obj
 0001:00023891       __unwindfunclet$?setupUi@Ui_slinkClientClass@@QAEXPAVQMainWindow@@@Z$14 00424891 f   slinkclient.obj
 0001:0002389c       __unwindfunclet$?setupUi@Ui_slinkClientClass@@QAEXPAVQMainWindow@@@Z$15 0042489c f   slinkclient.obj
 0001:000238a5       __unwindfunclet$?setupUi@Ui_slinkClientClass@@QAEXPAVQMainWindow@@@Z$16 004248a5 f   slinkclient.obj
 0001:000238b0       __unwindfunclet$?setupUi@Ui_slinkClientClass@@QAEXPAVQMainWindow@@@Z$17 004248b0 f   slinkclient.obj
 0001:000238b9       __unwindfunclet$?setupUi@Ui_slinkClientClass@@QAEXPAVQMainWindow@@@Z$18 004248b9 f   slinkclient.obj
 0001:000238c4       __unwindfunclet$?setupUi@Ui_slinkClientClass@@QAEXPAVQMainWindow@@@Z$19 004248c4 f   slinkclient.obj
 0001:000238cd       __unwindfunclet$?setupUi@Ui_slinkClientClass@@QAEXPAVQMainWindow@@@Z$20 004248cd f   slinkclient.obj
 0001:000238d8       __unwindfunclet$?setupUi@Ui_slinkClientClass@@QAEXPAVQMainWindow@@@Z$21 004248d8 f   slinkclient.obj
 0001:000238e1       __unwindfunclet$?setupUi@Ui_slinkClientClass@@QAEXPAVQMainWindow@@@Z$22 004248e1 f   slinkclient.obj
 0001:000238ec       __unwindfunclet$?setupUi@Ui_slinkClientClass@@QAEXPAVQMainWindow@@@Z$23 004248ec f   slinkclient.obj
 0001:000238f5       __unwindfunclet$?setupUi@Ui_slinkClientClass@@QAEXPAVQMainWindow@@@Z$24 004248f5 f   slinkclient.obj
 0001:00023900       __unwindfunclet$?setupUi@Ui_slinkClientClass@@QAEXPAVQMainWindow@@@Z$25 00424900 f   slinkclient.obj
 0001:00023909       __unwindfunclet$?setupUi@Ui_slinkClientClass@@QAEXPAVQMainWindow@@@Z$26 00424909 f   slinkclient.obj
 0001:00023914       __unwindfunclet$?setupUi@Ui_slinkClientClass@@QAEXPAVQMainWindow@@@Z$27 00424914 f   slinkclient.obj
 0001:0002391d       __unwindfunclet$?setupUi@Ui_slinkClientClass@@QAEXPAVQMainWindow@@@Z$28 0042491d f   slinkclient.obj
 0001:00023928       __unwindfunclet$?setupUi@Ui_slinkClientClass@@QAEXPAVQMainWindow@@@Z$29 00424928 f   slinkclient.obj
 0001:00023931       __unwindfunclet$?setupUi@Ui_slinkClientClass@@QAEXPAVQMainWindow@@@Z$30 00424931 f   slinkclient.obj
 0001:0002393c       __unwindfunclet$?setupUi@Ui_slinkClientClass@@QAEXPAVQMainWindow@@@Z$31 0042493c f   slinkclient.obj
 0001:00023945       __unwindfunclet$?setupUi@Ui_slinkClientClass@@QAEXPAVQMainWindow@@@Z$32 00424945 f   slinkclient.obj
 0001:00023950       __unwindfunclet$?setupUi@Ui_slinkClientClass@@QAEXPAVQMainWindow@@@Z$33 00424950 f   slinkclient.obj
 0001:00023959       __unwindfunclet$?setupUi@Ui_slinkClientClass@@QAEXPAVQMainWindow@@@Z$34 00424959 f   slinkclient.obj
 0001:00023964       __unwindfunclet$?setupUi@Ui_slinkClientClass@@QAEXPAVQMainWindow@@@Z$35 00424964 f   slinkclient.obj
 0001:0002396d       __unwindfunclet$?setupUi@Ui_slinkClientClass@@QAEXPAVQMainWindow@@@Z$36 0042496d f   slinkclient.obj
 0001:00023978       __unwindfunclet$?setupUi@Ui_slinkClientClass@@QAEXPAVQMainWindow@@@Z$37 00424978 f   slinkclient.obj
 0001:00023981       __unwindfunclet$?setupUi@Ui_slinkClientClass@@QAEXPAVQMainWindow@@@Z$38 00424981 f   slinkclient.obj
 0001:0002398c       __unwindfunclet$?setupUi@Ui_slinkClientClass@@QAEXPAVQMainWindow@@@Z$39 0042498c f   slinkclient.obj
 0001:00023995       __unwindfunclet$?setupUi@Ui_slinkClientClass@@QAEXPAVQMainWindow@@@Z$40 00424995 f   slinkclient.obj
 0001:000239a0       __unwindfunclet$?setupUi@Ui_slinkClientClass@@QAEXPAVQMainWindow@@@Z$41 004249a0 f   slinkclient.obj
 0001:000239a9       __unwindfunclet$?setupUi@Ui_slinkClientClass@@QAEXPAVQMainWindow@@@Z$42 004249a9 f   slinkclient.obj
 0001:000239b4       __unwindfunclet$?setupUi@Ui_slinkClientClass@@QAEXPAVQMainWindow@@@Z$43 004249b4 f   slinkclient.obj
 0001:000239bd       __unwindfunclet$?setupUi@Ui_slinkClientClass@@QAEXPAVQMainWindow@@@Z$44 004249bd f   slinkclient.obj
 0001:000239c8       __unwindfunclet$?setupUi@Ui_slinkClientClass@@QAEXPAVQMainWindow@@@Z$45 004249c8 f   slinkclient.obj
 0001:000239d1       __unwindfunclet$?setupUi@Ui_slinkClientClass@@QAEXPAVQMainWindow@@@Z$46 004249d1 f   slinkclient.obj
 0001:000239dc       __unwindfunclet$?setupUi@Ui_slinkClientClass@@QAEXPAVQMainWindow@@@Z$47 004249dc f   slinkclient.obj
 0001:000239e5       __unwindfunclet$?setupUi@Ui_slinkClientClass@@QAEXPAVQMainWindow@@@Z$48 004249e5 f   slinkclient.obj
 0001:000239f0       __unwindfunclet$?setupUi@Ui_slinkClientClass@@QAEXPAVQMainWindow@@@Z$49 004249f0 f   slinkclient.obj
 0001:000239f9       __unwindfunclet$?setupUi@Ui_slinkClientClass@@QAEXPAVQMainWindow@@@Z$50 004249f9 f   slinkclient.obj
 0001:00023a04       __unwindfunclet$?setupUi@Ui_slinkClientClass@@QAEXPAVQMainWindow@@@Z$51 00424a04 f   slinkclient.obj
 0001:00023a0d       __unwindfunclet$?setupUi@Ui_slinkClientClass@@QAEXPAVQMainWindow@@@Z$52 00424a0d f   slinkclient.obj
 0001:00023a18       __unwindfunclet$?setupUi@Ui_slinkClientClass@@QAEXPAVQMainWindow@@@Z$53 00424a18 f   slinkclient.obj
 0001:00023a21       __unwindfunclet$?setupUi@Ui_slinkClientClass@@QAEXPAVQMainWindow@@@Z$54 00424a21 f   slinkclient.obj
 0001:00023a2c       __unwindfunclet$?setupUi@Ui_slinkClientClass@@QAEXPAVQMainWindow@@@Z$55 00424a2c f   slinkclient.obj
 0001:00023a35       __unwindfunclet$?setupUi@Ui_slinkClientClass@@QAEXPAVQMainWindow@@@Z$56 00424a35 f   slinkclient.obj
 0001:00023a40       __unwindfunclet$?setupUi@Ui_slinkClientClass@@QAEXPAVQMainWindow@@@Z$57 00424a40 f   slinkclient.obj
 0001:00023a49       __unwindfunclet$?setupUi@Ui_slinkClientClass@@QAEXPAVQMainWindow@@@Z$58 00424a49 f   slinkclient.obj
 0001:00023a54       __unwindfunclet$?setupUi@Ui_slinkClientClass@@QAEXPAVQMainWindow@@@Z$59 00424a54 f   slinkclient.obj
 0001:00023a5d       __unwindfunclet$?setupUi@Ui_slinkClientClass@@QAEXPAVQMainWindow@@@Z$60 00424a5d f   slinkclient.obj
 0001:00023a68       __unwindfunclet$?setupUi@Ui_slinkClientClass@@QAEXPAVQMainWindow@@@Z$61 00424a68 f   slinkclient.obj
 0001:00023a71       __unwindfunclet$?setupUi@Ui_slinkClientClass@@QAEXPAVQMainWindow@@@Z$62 00424a71 f   slinkclient.obj
 0001:00023a7c       __unwindfunclet$?setupUi@Ui_slinkClientClass@@QAEXPAVQMainWindow@@@Z$63 00424a7c f   slinkclient.obj
 0001:00023a85       __unwindfunclet$?setupUi@Ui_slinkClientClass@@QAEXPAVQMainWindow@@@Z$64 00424a85 f   slinkclient.obj
 0001:00023a90       __unwindfunclet$?setupUi@Ui_slinkClientClass@@QAEXPAVQMainWindow@@@Z$65 00424a90 f   slinkclient.obj
 0001:00023a99       __unwindfunclet$?setupUi@Ui_slinkClientClass@@QAEXPAVQMainWindow@@@Z$66 00424a99 f   slinkclient.obj
 0001:00023aa4       __unwindfunclet$?setupUi@Ui_slinkClientClass@@QAEXPAVQMainWindow@@@Z$67 00424aa4 f   slinkclient.obj
 0001:00023aad       __unwindfunclet$?setupUi@Ui_slinkClientClass@@QAEXPAVQMainWindow@@@Z$68 00424aad f   slinkclient.obj
 0001:00023ab8       __unwindfunclet$?setupUi@Ui_slinkClientClass@@QAEXPAVQMainWindow@@@Z$69 00424ab8 f   slinkclient.obj
 0001:00023ac1       __unwindfunclet$?setupUi@Ui_slinkClientClass@@QAEXPAVQMainWindow@@@Z$70 00424ac1 f   slinkclient.obj
 0001:00023acc       __unwindfunclet$?setupUi@Ui_slinkClientClass@@QAEXPAVQMainWindow@@@Z$71 00424acc f   slinkclient.obj
 0001:00023ad5       __unwindfunclet$?setupUi@Ui_slinkClientClass@@QAEXPAVQMainWindow@@@Z$72 00424ad5 f   slinkclient.obj
 0001:00023ae0       __unwindfunclet$?setupUi@Ui_slinkClientClass@@QAEXPAVQMainWindow@@@Z$73 00424ae0 f   slinkclient.obj
 0001:00023ae9       __unwindfunclet$?setupUi@Ui_slinkClientClass@@QAEXPAVQMainWindow@@@Z$74 00424ae9 f   slinkclient.obj
 0001:00023af4       __unwindfunclet$?setupUi@Ui_slinkClientClass@@QAEXPAVQMainWindow@@@Z$75 00424af4 f   slinkclient.obj
 0001:00023afd       __unwindfunclet$?setupUi@Ui_slinkClientClass@@QAEXPAVQMainWindow@@@Z$76 00424afd f   slinkclient.obj
 0001:00023b08       __unwindfunclet$?setupUi@Ui_slinkClientClass@@QAEXPAVQMainWindow@@@Z$77 00424b08 f   slinkclient.obj
 0001:00023b11       __unwindfunclet$?setupUi@Ui_slinkClientClass@@QAEXPAVQMainWindow@@@Z$78 00424b11 f   slinkclient.obj
 0001:00023b1c       __unwindfunclet$?setupUi@Ui_slinkClientClass@@QAEXPAVQMainWindow@@@Z$79 00424b1c f   slinkclient.obj
 0001:00023b27       __unwindfunclet$?setupUi@Ui_slinkClientClass@@QAEXPAVQMainWindow@@@Z$80 00424b27 f   slinkclient.obj
 0001:00023b30       __unwindfunclet$?setupUi@Ui_slinkClientClass@@QAEXPAVQMainWindow@@@Z$81 00424b30 f   slinkclient.obj
 0001:00023b3b       __unwindfunclet$?setupUi@Ui_slinkClientClass@@QAEXPAVQMainWindow@@@Z$82 00424b3b f   slinkclient.obj
 0001:00023b44       __unwindfunclet$?setupUi@Ui_slinkClientClass@@QAEXPAVQMainWindow@@@Z$83 00424b44 f   slinkclient.obj
 0001:00023b4f       __unwindfunclet$?setupUi@Ui_slinkClientClass@@QAEXPAVQMainWindow@@@Z$84 00424b4f f   slinkclient.obj
 0001:00023b58       __unwindfunclet$?setupUi@Ui_slinkClientClass@@QAEXPAVQMainWindow@@@Z$85 00424b58 f   slinkclient.obj
 0001:00023b63       __unwindfunclet$?setupUi@Ui_slinkClientClass@@QAEXPAVQMainWindow@@@Z$86 00424b63 f   slinkclient.obj
 0001:00023b6c       __unwindfunclet$?setupUi@Ui_slinkClientClass@@QAEXPAVQMainWindow@@@Z$87 00424b6c f   slinkclient.obj
 0001:00023b77       __unwindfunclet$?setupUi@Ui_slinkClientClass@@QAEXPAVQMainWindow@@@Z$88 00424b77 f   slinkclient.obj
 0001:00023b80       __unwindfunclet$?setupUi@Ui_slinkClientClass@@QAEXPAVQMainWindow@@@Z$89 00424b80 f   slinkclient.obj
 0001:00023b8b       __unwindfunclet$?setupUi@Ui_slinkClientClass@@QAEXPAVQMainWindow@@@Z$90 00424b8b f   slinkclient.obj
 0001:00023b94       __unwindfunclet$?setupUi@Ui_slinkClientClass@@QAEXPAVQMainWindow@@@Z$91 00424b94 f   slinkclient.obj
 0001:00023b9f       __unwindfunclet$?setupUi@Ui_slinkClientClass@@QAEXPAVQMainWindow@@@Z$92 00424b9f f   slinkclient.obj
 0001:00023baa       __unwindfunclet$?setupUi@Ui_slinkClientClass@@QAEXPAVQMainWindow@@@Z$93 00424baa f   slinkclient.obj
 0001:00023bb5       __unwindfunclet$?setupUi@Ui_slinkClientClass@@QAEXPAVQMainWindow@@@Z$94 00424bb5 f   slinkclient.obj
 0001:00023bbe       __unwindfunclet$?setupUi@Ui_slinkClientClass@@QAEXPAVQMainWindow@@@Z$95 00424bbe f   slinkclient.obj
 0001:00023bc9       __unwindfunclet$?setupUi@Ui_slinkClientClass@@QAEXPAVQMainWindow@@@Z$96 00424bc9 f   slinkclient.obj
 0001:00023bd2       __unwindfunclet$?setupUi@Ui_slinkClientClass@@QAEXPAVQMainWindow@@@Z$97 00424bd2 f   slinkclient.obj
 0001:00023bdd       __unwindfunclet$?setupUi@Ui_slinkClientClass@@QAEXPAVQMainWindow@@@Z$98 00424bdd f   slinkclient.obj
 0001:00023be6       __unwindfunclet$?setupUi@Ui_slinkClientClass@@QAEXPAVQMainWindow@@@Z$99 00424be6 f   slinkclient.obj
 0001:00023bf1       __unwindfunclet$?setupUi@Ui_slinkClientClass@@QAEXPAVQMainWindow@@@Z$100 00424bf1 f   slinkclient.obj
 0001:00023bfa       __unwindfunclet$?setupUi@Ui_slinkClientClass@@QAEXPAVQMainWindow@@@Z$101 00424bfa f   slinkclient.obj
 0001:00023c05       __unwindfunclet$?setupUi@Ui_slinkClientClass@@QAEXPAVQMainWindow@@@Z$102 00424c05 f   slinkclient.obj
 0001:00023c10       __unwindfunclet$?setupUi@Ui_slinkClientClass@@QAEXPAVQMainWindow@@@Z$103 00424c10 f   slinkclient.obj
 0001:00023c19       __unwindfunclet$?setupUi@Ui_slinkClientClass@@QAEXPAVQMainWindow@@@Z$104 00424c19 f   slinkclient.obj
 0001:00023c24       __unwindfunclet$?setupUi@Ui_slinkClientClass@@QAEXPAVQMainWindow@@@Z$105 00424c24 f   slinkclient.obj
 0001:00023c2d       __unwindfunclet$?setupUi@Ui_slinkClientClass@@QAEXPAVQMainWindow@@@Z$106 00424c2d f   slinkclient.obj
 0001:00023c38       __unwindfunclet$?setupUi@Ui_slinkClientClass@@QAEXPAVQMainWindow@@@Z$107 00424c38 f   slinkclient.obj
 0001:00023c41       __unwindfunclet$?setupUi@Ui_slinkClientClass@@QAEXPAVQMainWindow@@@Z$108 00424c41 f   slinkclient.obj
 0001:00023c4c       __unwindfunclet$?setupUi@Ui_slinkClientClass@@QAEXPAVQMainWindow@@@Z$109 00424c4c f   slinkclient.obj
 0001:00023c55       __unwindfunclet$?setupUi@Ui_slinkClientClass@@QAEXPAVQMainWindow@@@Z$110 00424c55 f   slinkclient.obj
 0001:00023c60       __unwindfunclet$?setupUi@Ui_slinkClientClass@@QAEXPAVQMainWindow@@@Z$111 00424c60 f   slinkclient.obj
 0001:00023c69       __unwindfunclet$?setupUi@Ui_slinkClientClass@@QAEXPAVQMainWindow@@@Z$112 00424c69 f   slinkclient.obj
 0001:00023c74       __unwindfunclet$?setupUi@Ui_slinkClientClass@@QAEXPAVQMainWindow@@@Z$113 00424c74 f   slinkclient.obj
 0001:00023c7d       __unwindfunclet$?setupUi@Ui_slinkClientClass@@QAEXPAVQMainWindow@@@Z$114 00424c7d f   slinkclient.obj
 0001:00023c88       __unwindfunclet$?setupUi@Ui_slinkClientClass@@QAEXPAVQMainWindow@@@Z$115 00424c88 f   slinkclient.obj
 0001:00023c91       __unwindfunclet$?setupUi@Ui_slinkClientClass@@QAEXPAVQMainWindow@@@Z$116 00424c91 f   slinkclient.obj
 0001:00023c9c       __unwindfunclet$?setupUi@Ui_slinkClientClass@@QAEXPAVQMainWindow@@@Z$117 00424c9c f   slinkclient.obj
 0001:00023ca5       __unwindfunclet$?setupUi@Ui_slinkClientClass@@QAEXPAVQMainWindow@@@Z$118 00424ca5 f   slinkclient.obj
 0001:00023cb0       __unwindfunclet$?setupUi@Ui_slinkClientClass@@QAEXPAVQMainWindow@@@Z$119 00424cb0 f   slinkclient.obj
 0001:00023cb9       __unwindfunclet$?setupUi@Ui_slinkClientClass@@QAEXPAVQMainWindow@@@Z$120 00424cb9 f   slinkclient.obj
 0001:00023cc4       __unwindfunclet$?setupUi@Ui_slinkClientClass@@QAEXPAVQMainWindow@@@Z$121 00424cc4 f   slinkclient.obj
 0001:00023ccd       __unwindfunclet$?setupUi@Ui_slinkClientClass@@QAEXPAVQMainWindow@@@Z$122 00424ccd f   slinkclient.obj
 0001:00023cd8       __unwindfunclet$?setupUi@Ui_slinkClientClass@@QAEXPAVQMainWindow@@@Z$123 00424cd8 f   slinkclient.obj
 0001:00023ce1       __unwindfunclet$?setupUi@Ui_slinkClientClass@@QAEXPAVQMainWindow@@@Z$124 00424ce1 f   slinkclient.obj
 0001:00023cec       __unwindfunclet$?setupUi@Ui_slinkClientClass@@QAEXPAVQMainWindow@@@Z$125 00424cec f   slinkclient.obj
 0001:00023cf5       __ehhandler$?setupUi@Ui_slinkClientClass@@QAEXPAVQMainWindow@@@Z 00424cf5 f   slinkclient.obj
 0001:00023d10       __unwindfunclet$?showConfig@slinkClient@@AAEXXZ$0 00424d10 f   slinkclient.obj
 0001:00023d19       __unwindfunclet$?showConfig@slinkClient@@AAEXXZ$1 00424d19 f   slinkclient.obj
 0001:00023d22       __unwindfunclet$?showConfig@slinkClient@@AAEXXZ$2 00424d22 f   slinkclient.obj
 0001:00023d2b       __unwindfunclet$?showConfig@slinkClient@@AAEXXZ$3 00424d2b f   slinkclient.obj
 0001:00023d34       __unwindfunclet$?showConfig@slinkClient@@AAEXXZ$4 00424d34 f   slinkclient.obj
 0001:00023d3d       __unwindfunclet$?showConfig@slinkClient@@AAEXXZ$5 00424d3d f   slinkclient.obj
 0001:00023d46       __unwindfunclet$?showConfig@slinkClient@@AAEXXZ$6 00424d46 f   slinkclient.obj
 0001:00023d4f       __unwindfunclet$?showConfig@slinkClient@@AAEXXZ$7 00424d4f f   slinkclient.obj
 0001:00023d58       __unwindfunclet$?showConfig@slinkClient@@AAEXXZ$8 00424d58 f   slinkclient.obj
 0001:00023d61       __unwindfunclet$?showConfig@slinkClient@@AAEXXZ$9 00424d61 f   slinkclient.obj
 0001:00023d6a       __unwindfunclet$?showConfig@slinkClient@@AAEXXZ$10 00424d6a f   slinkclient.obj
 0001:00023d73       __ehhandler$?showConfig@slinkClient@@AAEXXZ 00424d73 f   slinkclient.obj
 0001:00023d90       __unwindfunclet$?slotAddDriver@slinkClient@@AAEXXZ$0 00424d90 f   slinkclient.obj
 0001:00023d9c       __unwindfunclet$?slotAddDriver@slinkClient@@AAEXXZ$1 00424d9c f   slinkclient.obj
 0001:00023da8       __unwindfunclet$?slotAddDriver@slinkClient@@AAEXXZ$2 00424da8 f   slinkclient.obj
 0001:00023db4       __unwindfunclet$?slotAddDriver@slinkClient@@AAEXXZ$3 00424db4 f   slinkclient.obj
 0001:00023dc0       __unwindfunclet$?slotAddDriver@slinkClient@@AAEXXZ$4 00424dc0 f   slinkclient.obj
 0001:00023dcc       __unwindfunclet$?slotAddDriver@slinkClient@@AAEXXZ$5 00424dcc f   slinkclient.obj
 0001:00023dd7       __unwindfunclet$?slotAddDriver@slinkClient@@AAEXXZ$6 00424dd7 f   slinkclient.obj
 0001:00023ddf       __unwindfunclet$?slotAddDriver@slinkClient@@AAEXXZ$7 00424ddf f   slinkclient.obj
 0001:00023de7       __unwindfunclet$?slotAddDriver@slinkClient@@AAEXXZ$8 00424de7 f   slinkclient.obj
 0001:00023df3       __unwindfunclet$?slotAddDriver@slinkClient@@AAEXXZ$9 00424df3 f   slinkclient.obj
 0001:00023dff       __unwindfunclet$?slotAddDriver@slinkClient@@AAEXXZ$10 00424dff f   slinkclient.obj
 0001:00023e07       __unwindfunclet$?slotAddDriver@slinkClient@@AAEXXZ$11 00424e07 f   slinkclient.obj
 0001:00023e12       __ehhandler$?slotAddDriver@slinkClient@@AAEXXZ 00424e12 f   slinkclient.obj
 0001:00023e40       __unwindfunclet$?slotRemoveDriver@slinkClient@@AAEXXZ$0 00424e40 f   slinkclient.obj
 0001:00023e48       __unwindfunclet$?slotRemoveDriver@slinkClient@@AAEXXZ$1 00424e48 f   slinkclient.obj
 0001:00023e50       __unwindfunclet$?slotRemoveDriver@slinkClient@@AAEXXZ$2 00424e50 f   slinkclient.obj
 0001:00023e59       __unwindfunclet$?slotRemoveDriver@slinkClient@@AAEXXZ$3 00424e59 f   slinkclient.obj
 0001:00023e62       __unwindfunclet$?slotRemoveDriver@slinkClient@@AAEXXZ$4 00424e62 f   slinkclient.obj
 0001:00023e6b       __unwindfunclet$?slotRemoveDriver@slinkClient@@AAEXXZ$5 00424e6b f   slinkclient.obj
 0001:00023e74       __unwindfunclet$?slotRemoveDriver@slinkClient@@AAEXXZ$6 00424e74 f   slinkclient.obj
 0001:00023e7d       __unwindfunclet$?slotRemoveDriver@slinkClient@@AAEXXZ$7 00424e7d f   slinkclient.obj
 0001:00023e86       __unwindfunclet$?slotRemoveDriver@slinkClient@@AAEXXZ$8 00424e86 f   slinkclient.obj
 0001:00023e8f       __ehhandler$?slotRemoveDriver@slinkClient@@AAEXXZ 00424e8f f   slinkclient.obj
 0001:00023eb0       __unwindfunclet$?timerEvent@slinkClient@@MAEXPAVQTimerEvent@@@Z$0 00424eb0 f   slinkclient.obj
 0001:00023eb9       __unwindfunclet$?timerEvent@slinkClient@@MAEXPAVQTimerEvent@@@Z$1 00424eb9 f   slinkclient.obj
 0001:00023ec2       __unwindfunclet$?timerEvent@slinkClient@@MAEXPAVQTimerEvent@@@Z$2 00424ec2 f   slinkclient.obj
 0001:00023ecb       __unwindfunclet$?timerEvent@slinkClient@@MAEXPAVQTimerEvent@@@Z$3 00424ecb f   slinkclient.obj
 0001:00023ed4       __unwindfunclet$?timerEvent@slinkClient@@MAEXPAVQTimerEvent@@@Z$4 00424ed4 f   slinkclient.obj
 0001:00023edd       __unwindfunclet$?timerEvent@slinkClient@@MAEXPAVQTimerEvent@@@Z$5 00424edd f   slinkclient.obj
 0001:00023ee6       __unwindfunclet$?timerEvent@slinkClient@@MAEXPAVQTimerEvent@@@Z$6 00424ee6 f   slinkclient.obj
 0001:00023eef       __unwindfunclet$?timerEvent@slinkClient@@MAEXPAVQTimerEvent@@@Z$7 00424eef f   slinkclient.obj
 0001:00023ef8       __ehhandler$?timerEvent@slinkClient@@MAEXPAVQTimerEvent@@@Z 00424ef8 f   slinkclient.obj
 0001:00023f20       __unwindfunclet$?writeDeviceConfig@slinkClient@@AAEXXZ$0 00424f20 f   slinkclient.obj
 0001:00023f28       __unwindfunclet$?writeDeviceConfig@slinkClient@@AAEXXZ$1 00424f28 f   slinkclient.obj
 0001:00023f34       __unwindfunclet$?writeDeviceConfig@slinkClient@@AAEXXZ$2 00424f34 f   slinkclient.obj
 0001:00023f3c       __unwindfunclet$?writeDeviceConfig@slinkClient@@AAEXXZ$3 00424f3c f   slinkclient.obj
 0001:00023f47       __unwindfunclet$?writeDeviceConfig@slinkClient@@AAEXXZ$4 00424f47 f   slinkclient.obj
 0001:00023f53       __unwindfunclet$?writeDeviceConfig@slinkClient@@AAEXXZ$5 00424f53 f   slinkclient.obj
 0001:00023f5f       __unwindfunclet$?writeDeviceConfig@slinkClient@@AAEXXZ$6 00424f5f f   slinkclient.obj
 0001:00023f6b       __unwindfunclet$?writeDeviceConfig@slinkClient@@AAEXXZ$7 00424f6b f   slinkclient.obj
 0001:00023f77       __unwindfunclet$?writeDeviceConfig@slinkClient@@AAEXXZ$9 00424f77 f   slinkclient.obj
 0001:00023f83       __unwindfunclet$?writeDeviceConfig@slinkClient@@AAEXXZ$10 00424f83 f   slinkclient.obj
 0001:00023f8f       __unwindfunclet$?writeDeviceConfig@slinkClient@@AAEXXZ$12 00424f8f f   slinkclient.obj
 0001:00023f97       __unwindfunclet$?writeDeviceConfig@slinkClient@@AAEXXZ$13 00424f97 f   slinkclient.obj
 0001:00023f9f       __unwindfunclet$?writeDeviceConfig@slinkClient@@AAEXXZ$14 00424f9f f   slinkclient.obj
 0001:00023fa7       __unwindfunclet$?writeDeviceConfig@slinkClient@@AAEXXZ$15 00424fa7 f   slinkclient.obj
 0001:00023fb3       __unwindfunclet$?writeDeviceConfig@slinkClient@@AAEXXZ$16 00424fb3 f   slinkclient.obj
 0001:00023fbf       __unwindfunclet$?writeDeviceConfig@slinkClient@@AAEXXZ$17 00424fbf f   slinkclient.obj
 0001:00023fc7       __unwindfunclet$?writeDeviceConfig@slinkClient@@AAEXXZ$18 00424fc7 f   slinkclient.obj
 0001:00023fcf       __unwindfunclet$?writeDeviceConfig@slinkClient@@AAEXXZ$19 00424fcf f   slinkclient.obj
 0001:00023fdb       __unwindfunclet$?writeDeviceConfig@slinkClient@@AAEXXZ$20 00424fdb f   slinkclient.obj
 0001:00023fe7       __unwindfunclet$?writeDeviceConfig@slinkClient@@AAEXXZ$21 00424fe7 f   slinkclient.obj
 0001:00023fef       __ehhandler$?writeDeviceConfig@slinkClient@@AAEXXZ 00424fef f   slinkclient.obj
 0001:00024020       ??__F?_Generic_object@?$_Error_objects@H@std@@2V_Generic_error_category@2@A@@YAXXZ 00425020 f   ccCheck.obj
 0001:00024030       ??__F?_Iostream_object@?$_Error_objects@H@std@@2V_Iostream_error_category@2@A@@YAXXZ 00425030 f   ccCheck.obj
 0001:00024040       ??__F?_System_object@?$_Error_objects@H@std@@2V_System_error_category@2@A@@YAXXZ 00425040 f   ccCheck.obj
 0001:00024050       ??__F?m_profile@appGlobal@@0VQString@@A@@YAXXZ 00425050 f   appGlobal.obj
 0001:00024060       ??__Fdummy@?A0xcc4eed96@@YAXXZ 00425060 f   qrc_slinkclient.obj
 0001:00024070       ??__F?m_values@netStatus@@0V?$map@VQString@@V1@U?$less@VQString@@@std@@V?$allocator@U?$pair@$$CBVQString@@V1@@std@@@3@@std@@A@@YAXXZ 00425070 f   netStatus.obj
 0002:00000bfc       _pcppinit                  00426bfc     MSVCRT:crtexew.obj
 0002:00000c00       ?_Generic_object$initializer$@?$_Error_objects@H@std@@2P6AXXZA 00426c00     ccCheck.obj
 0002:00000c04       ?_Iostream_object$initializer$@?$_Error_objects@H@std@@2P6AXXZA 00426c04     ccCheck.obj
 0002:00000c08       ?_System_object$initializer$@?$_Error_objects@H@std@@2P6AXXZA 00426c08     ccCheck.obj
 0002:00000c0c       ?m_profile$initializer$@appGlobal@@0P6AXXZA 00426c0c     appGlobal.obj
 0002:00000c10       _dummy$initializer$        00426c10     qrc_slinkclient.obj
 0002:00000c14       ?staticMetaObject$initializer$@fabianClient@@2P6AXXZA 00426c14     moc_fabianClient.obj
 0002:00000c18       ?staticMetaObject$initializer$@persistentSocket@@2P6AXXZA 00426c18     moc_persistentSocket.obj
 0002:00000c1c       ?staticMetaObject$initializer$@slinkClient@@2P6AXXZA 00426c1c     moc_slinkclient.obj
 0002:00000c20       ?m_values$initializer$@netStatus@@0P6AXXZA 00426c20     netStatus.obj
 0002:00000c2c       _pcinit                    00426c2c     MSVCRT:crtexew.obj
 0002:00000c30       _pinit                     00426c30     MSVCRT:atonexit.obj
 0002:00000c34       _pinit                     00426c34     MSVCRT:crtexew.obj
 0002:00001b90       _qt_meta_stringdata_fabianClient 00427b90     moc_fabianClient.obj
 0002:00001c08       _qt_meta_data_fabianClient 00427c08     moc_fabianClient.obj
 0002:00001c78       _qt_meta_stringdata_persistentSocket 00427c78     moc_persistentSocket.obj
 0002:00001e10       _qt_meta_data_persistentSocket 00427e10     moc_persistentSocket.obj
 0002:00001f58       _qt_meta_data_slinkClient  00427f58     moc_slinkclient.obj
 0002:00002088       _qt_meta_stringdata_slinkClient 00428088     moc_slinkclient.obj
 0002:000046ec       ?qstring_literal@?6???R<lambda_99328abe1a022e79c0af74d58f54186c>@@QBE?AVQString@@XZ@4U?$QStaticStringData@$0BA@@@B 0042a6ec     slinkclient.obj
 0002:00004720       ?qstring_literal@?7???R<lambda_a1f80e13d71255321d16b528193bb9d6>@@QBE?AVQString@@XZ@4U?$QStaticStringData@$0L@@@B 0042a720     slinkclient.obj
 0002:00004748       ?qstring_literal@?8???R<lambda_2c0ef29cb0f46abfa985bbe231a37c68>@@QBE?AVQString@@XZ@4U?$QStaticStringData@$0M@@@B 0042a748     slinkclient.obj
 0002:00004774       ?qstring_literal@?9???R<lambda_1e2a07f6bece7e0ab324b9bc1360b2e7>@@QBE?AVQString@@XZ@4U?$QStaticStringData@$0P@@@B 0042a774     slinkclient.obj
 0002:000047a4       ?qstring_literal@?L@???R<lambda_9a82328a060612194360accee5e0ca1b>@@QBE?AVQString@@XZ@4U?$QStaticStringData@$0L@@@B 0042a7a4     slinkclient.obj
 0002:000047cc       ?qstring_literal@?M@???R<lambda_a39ab603a569a51182d386d61b58db5b>@@QBE?AVQString@@XZ@4U?$QStaticStringData@$0BF@@@B 0042a7cc     slinkclient.obj
 0002:00004808       ?qstring_literal@?N@???R<lambda_5f9a36adb6a5efdd02f9e06051f1d7ab>@@QBE?AVQString@@XZ@4U?$QStaticStringData@$0BC@@@B 0042a808     slinkclient.obj
 0002:00004840       ?qstring_literal@?O@???R<lambda_2f209cda0cbde61b224795b67240cfa6>@@QBE?AVQString@@XZ@4U?$QStaticStringData@$0N@@@B 0042a840     slinkclient.obj
 0002:0000486c       ?qstring_literal@?P@???R<lambda_d4ed625c23c20f26616aa4221f2cac93>@@QBE?AVQString@@XZ@4U?$QStaticStringData@$0BA@@@B 0042a86c     slinkclient.obj
 0002:000048a0       ?qstring_literal@?BA@???R<lambda_d32bb6890b5346db86260ddcc1d323e9>@@QBE?AVQString@@XZ@4U?$QStaticStringData@$07@@B 0042a8a0     slinkclient.obj
 0002:000048c4       ?qstring_literal@?BB@???R<lambda_17ef4099595ea13500660504bc5b982a>@@QBE?AVQString@@XZ@4U?$QStaticStringData@$05@@B 0042a8c4     slinkclient.obj
 0002:000048e4       ?qstring_literal@?BC@???R<lambda_0b1d6395811fd0c60161e2a461dc3113>@@QBE?AVQString@@XZ@4U?$QStaticStringData@$0BA@@@B 0042a8e4     slinkclient.obj
 0002:00004918       ?qstring_literal@?BD@???R<lambda_eac5de7136693d699ffbf56ad5d36f98>@@QBE?AVQString@@XZ@4U?$QStaticStringData@$0BC@@@B 0042a918     slinkclient.obj
 0002:00004950       ?qstring_literal@?BE@???R<lambda_604d30288da0aba07d333aeb11076300>@@QBE?AVQString@@XZ@4U?$QStaticStringData@$0BA@@@B 0042a950     slinkclient.obj
 0002:00004984       ?qstring_literal@?BF@???R<lambda_cf99b63ff2eb3387a60e2bcb095b3824>@@QBE?AVQString@@XZ@4U?$QStaticStringData@$09@@B 0042a984     slinkclient.obj
 0002:000049ac       ?qstring_literal@?BG@???R<lambda_e71a8bc18ecd6595ac66c2cb689318b8>@@QBE?AVQString@@XZ@4U?$QStaticStringData@$0BD@@@B 0042a9ac     slinkclient.obj
 0002:000049e4       ?qstring_literal@?BH@???R<lambda_7e70c27c917d584d57c43196ffb0432a>@@QBE?AVQString@@XZ@4U?$QStaticStringData@$06@@B 0042a9e4     slinkclient.obj
 0002:00004a04       ?qstring_literal@?BI@???R<lambda_3d12101d7e5a8884116188fc9114d09e>@@QBE?AVQString@@XZ@4U?$QStaticStringData@$0L@@@B 0042aa04     slinkclient.obj
 0002:00004a2c       ?qstring_literal@?BJ@???R<lambda_2cdfaef9e97b559c6ae5aee705977241>@@QBE?AVQString@@XZ@4U?$QStaticStringData@$06@@B 0042aa2c     slinkclient.obj
 0002:00004a4c       ?qstring_literal@?BK@???R<lambda_b0f545ca66db7ead0943bb6cda2a7fb9>@@QBE?AVQString@@XZ@4U?$QStaticStringData@$0L@@@B 0042aa4c     slinkclient.obj
 0002:00004a74       ?qstring_literal@?BL@???R<lambda_edf453a36ac2134a8336501ea1297776>@@QBE?AVQString@@XZ@4U?$QStaticStringData@$09@@B 0042aa74     slinkclient.obj
 0002:00004a9c       ?qstring_literal@?BM@???R<lambda_c1e2dbe90eaa6cce86b398344fd623d4>@@QBE?AVQString@@XZ@4U?$QStaticStringData@$0BD@@@B 0042aa9c     slinkclient.obj
 0002:00004ad4       ?qstring_literal@?BN@???R<lambda_de659aee4f7213d06a8b231858a8a340>@@QBE?AVQString@@XZ@4U?$QStaticStringData@$06@@B 0042aad4     slinkclient.obj
 0002:00004af4       ?qstring_literal@?BO@???R<lambda_10caa09c30bf2f4ca007c4503c0bdd5d>@@QBE?AVQString@@XZ@4U?$QStaticStringData@$09@@B 0042aaf4     slinkclient.obj
 0002:00004b1c       ?qstring_literal@?BP@???R<lambda_4b562f602e4cb48001945ba710174deb>@@QBE?AVQString@@XZ@4U?$QStaticStringData@$07@@B 0042ab1c     slinkclient.obj
 0002:00004b40       ?qstring_literal@?CA@???R<lambda_387caa35eca8fcdf320abf7e97ea395d>@@QBE?AVQString@@XZ@4U?$QStaticStringData@$09@@B 0042ab40     slinkclient.obj
 0002:00004b68       ?qstring_literal@?CB@???R<lambda_92805ea8ee6ec64ae75b743625c55ced>@@QBE?AVQString@@XZ@4U?$QStaticStringData@$09@@B 0042ab68     slinkclient.obj
 0002:00004b90       ?qstring_literal@?CC@???R<lambda_300757fea307ea8413434235b42ed359>@@QBE?AVQString@@XZ@4U?$QStaticStringData@$0O@@@B 0042ab90     slinkclient.obj
 0002:00004bc0       ?qstring_literal@?CD@???R<lambda_06456d24663e9375f241f91434f2a346>@@QBE?AVQString@@XZ@4U?$QStaticStringData@$0BA@@@B 0042abc0     slinkclient.obj
 0002:00004bf4       ?qstring_literal@?CE@???R<lambda_9f01d5a25286825dd9b26a20e6d3a6e6>@@QBE?AVQString@@XZ@4U?$QStaticStringData@$07@@B 0042abf4     slinkclient.obj
 0002:00004c18       ?qstring_literal@?CF@???R<lambda_efbdd8d141c614ad5061319c2e9f2f41>@@QBE?AVQString@@XZ@4U?$QStaticStringData@$0M@@@B 0042ac18     slinkclient.obj
 0002:00004c44       ?qstring_literal@?CG@???R<lambda_7aa8765f279d81577c71d45483183d9e>@@QBE?AVQString@@XZ@4U?$QStaticStringData@$0BA@@@B 0042ac44     slinkclient.obj
 0002:00004c78       ?qstring_literal@?CH@???R<lambda_3bd998b7ac7bcb9b75c6d2b7c2fefcef>@@QBE?AVQString@@XZ@4U?$QStaticStringData@$0BC@@@B 0042ac78     slinkclient.obj
 0002:00004cb0       ?qstring_literal@?CI@???R<lambda_61c91f09320b7fdda830a26b1ed36f5f>@@QBE?AVQString@@XZ@4U?$QStaticStringData@$09@@B 0042acb0     slinkclient.obj
 0002:00004cd8       ?qstring_literal@?CJ@???R<lambda_3510cfe02de63d328032b9c85d8cf89e>@@QBE?AVQString@@XZ@4U?$QStaticStringData@$0BC@@@B 0042acd8     slinkclient.obj
 0002:00004d10       ?qstring_literal@?CK@???R<lambda_b0640185ea1e0e7c9cafbe283392a061>@@QBE?AVQString@@XZ@4U?$QStaticStringData@$06@@B 0042ad10     slinkclient.obj
 0002:00004d30       ?qstring_literal@?CL@???R<lambda_ac478bbeb722defbf73cae3dadbbe1e2>@@QBE?AVQString@@XZ@4U?$QStaticStringData@$0P@@@B 0042ad30     slinkclient.obj
 0002:00004d60       ?qstring_literal@?CM@???R<lambda_865daae2703db0a96dbc4a28565db216>@@QBE?AVQString@@XZ@4U?$QStaticStringData@$06@@B 0042ad60     slinkclient.obj
 0002:00004d80       ?qstring_literal@?CN@???R<lambda_98ea5a3dbc46c8559a3ea01613a122b1>@@QBE?AVQString@@XZ@4U?$QStaticStringData@$08@@B 0042ad80     slinkclient.obj
 0002:00004da4       ?qstring_literal@?CO@???R<lambda_55635f0ab56f4bd077eb2c29ff18aa4b>@@QBE?AVQString@@XZ@4U?$QStaticStringData@$0BC@@@B 0042ada4     slinkclient.obj
 0002:00004ddc       ?qstring_literal@?CP@???R<lambda_71e236a29a0a8f51f35349bb9662ff16>@@QBE?AVQString@@XZ@4U?$QStaticStringData@$07@@B 0042addc     slinkclient.obj
 0002:00004e00       ?qstring_literal@?DA@???R<lambda_65bff34644a0edfc41b10ab141e6ec36>@@QBE?AVQString@@XZ@4U?$QStaticStringData@$0BA@@@B 0042ae00     slinkclient.obj
 0002:00004e34       ?qstring_literal@?DB@???R<lambda_8f113357f1d48565bc09517ceaae461d>@@QBE?AVQString@@XZ@4U?$QStaticStringData@$0BA@@@B 0042ae34     slinkclient.obj
 0002:00004e68       ?qstring_literal@?DC@???R<lambda_de2883b3abf3eb9a4dc49e48d16b7749>@@QBE?AVQString@@XZ@4U?$QStaticStringData@$0O@@@B 0042ae68     slinkclient.obj
 0002:00004e98       ?qstring_literal@?DD@???R<lambda_c28605d2e6282264110175b1ffc7693d>@@QBE?AVQString@@XZ@4U?$QStaticStringData@$0BB@@@B 0042ae98     slinkclient.obj
 0002:00004ecc       ?qstring_literal@?DE@???R<lambda_6420e02bd07e6f23b96d37fc1767831f>@@QBE?AVQString@@XZ@4U?$QStaticStringData@$09@@B 0042aecc     slinkclient.obj
 0002:00004ef4       ?qstring_literal@?DF@???R<lambda_59b94235e9c1c6624a22f62a015c016a>@@QBE?AVQString@@XZ@4U?$QStaticStringData@$0BA@@@B 0042aef4     slinkclient.obj
 0002:00004f28       ?qstring_literal@?DG@???R<lambda_bf37a0952faaef4699471967f4c0b40e>@@QBE?AVQString@@XZ@4U?$QStaticStringData@$0M@@@B 0042af28     slinkclient.obj
 0002:00004f54       ?qstring_literal@?DH@???R<lambda_598167a04362c8d9d5016d09d5a26690>@@QBE?AVQString@@XZ@4U?$QStaticStringData@$0BC@@@B 0042af54     slinkclient.obj
 0002:00004f8c       ?qstring_literal@?DI@???R<lambda_812f2eedd751ac75e261f9011c770349>@@QBE?AVQString@@XZ@4U?$QStaticStringData@$08@@B 0042af8c     slinkclient.obj
 0002:00004fb0       ?qstring_literal@?DJ@???R<lambda_6358486bbf466575ce65e9f74d3ddd40>@@QBE?AVQString@@XZ@4U?$QStaticStringData@$0M@@@B 0042afb0     slinkclient.obj
 0002:00004fdc       ?qstring_literal@?DK@???R<lambda_d8b74168295ea9e3c1121ee1cd2f78de>@@QBE?AVQString@@XZ@4U?$QStaticStringData@$09@@B 0042afdc     slinkclient.obj
 0002:00005004       ?qstring_literal@?DL@???R<lambda_2a7415c0e16a35db543a409291ac1aa1>@@QBE?AVQString@@XZ@4U?$QStaticStringData@$0BC@@@B 0042b004     slinkclient.obj
 0002:0000503c       ?qstring_literal@?DM@???R<lambda_d5b1d234cb7e6a039c6f4ad54191c29e>@@QBE?AVQString@@XZ@4U?$QStaticStringData@$07@@B 0042b03c     slinkclient.obj
 0002:00005060       ?qstring_literal@?DN@???R<lambda_a827b6b97b3eccc3916a7ea0287f1cf1>@@QBE?AVQString@@XZ@4U?$QStaticStringData@$06@@B 0042b060     slinkclient.obj
 0002:00005080       ?qstring_literal@?DO@???R<lambda_bc73c47348c008c1b8a0097c99342ba5>@@QBE?AVQString@@XZ@4U?$QStaticStringData@$08@@B 0042b080     slinkclient.obj
 0002:000050a4       ?qstring_literal@?DP@???R<lambda_29c7f758433c7d7bea82f576e2aa347f>@@QBE?AVQString@@XZ@4U?$QStaticStringData@$08@@B 0042b0a4     slinkclient.obj
 0002:000050c8       ?qstring_literal@?EA@???R<lambda_0b5e26d6b345f4c2159ee40f1c07ddbc>@@QBE?AVQString@@XZ@4U?$QStaticStringData@$0L@@@B 0042b0c8     slinkclient.obj
 0002:000050f0       ?qstring_literal@?EB@???R<lambda_40af39b20b6446025e6373635dcd8ce8>@@QBE?AVQString@@XZ@4U?$QStaticStringData@$0L@@@B 0042b0f0     slinkclient.obj
 0002:00005118       ?qstring_literal@?EC@???R<lambda_e9ef8c59a9f711aabf08b8430d811d3c>@@QBE?AVQString@@XZ@4U?$QStaticStringData@$0L@@@B 0042b118     slinkclient.obj
 0002:00005140       ?qstring_literal@?ED@???R<lambda_f66fc17f532e4ec54b700980f0e4a9ad>@@QBE?AVQString@@XZ@4U?$QStaticStringData@$08@@B 0042b140     slinkclient.obj
 0002:00005780       ?qstring_literal@?6???R<lambda_06135b541186b00dfe8ea108b9ab1290>@@QBE?AVQString@@XZ@4U?$QStaticStringData@$09@@B 0042b780     slinkclient.obj
 0002:000057a8       ?qstring_literal@?7???R<lambda_9b00df0c881897b02ff203918317367d>@@QBE?AVQString@@XZ@4U?$QStaticStringData@$0BA@@@B 0042b7a8     slinkclient.obj
 0002:000057dc       ?qstring_literal@?8???R<lambda_b8dadae9f03435ac90c83f1a14ac438f>@@QBE?AVQString@@XZ@4U?$QStaticStringData@$09@@B 0042b7dc     slinkclient.obj
 0002:00005804       ?qstring_literal@?9???R<lambda_1dd65273a7dfe37eece56f2d96935da9>@@QBE?AVQString@@XZ@4U?$QStaticStringData@$0BA@@@B 0042b804     slinkclient.obj
 0002:00005838       ?qstring_literal@?L@???R<lambda_65e40a1665e116ba4a1b2c26410cb93e>@@QBE?AVQString@@XZ@4U?$QStaticStringData@$0BA@@@B 0042b838     slinkclient.obj
 0002:0000586c       ?qstring_literal@?M@???R<lambda_b3811d8df55541ff237bd502a24ecbdc>@@QBE?AVQString@@XZ@4U?$QStaticStringData@$07@@B 0042b86c     slinkclient.obj
 0002:00005890       ?qstring_literal@?N@???R<lambda_47a70167f6095f38897d092d5c610468>@@QBE?AVQString@@XZ@4U?$QStaticStringData@$0O@@@B 0042b890     slinkclient.obj
 0002:000058c0       ?qstring_literal@?O@???R<lambda_8e88149948583f2f894e57008eb34b96>@@QBE?AVQString@@XZ@4U?$QStaticStringData@$0M@@@B 0042b8c0     slinkclient.obj
 0002:000058ec       ?qstring_literal@?P@???R<lambda_2a14ec7d2210637697511b97e1bab43b>@@QBE?AVQString@@XZ@4U?$QStaticStringData@$04@@B 0042b8ec     slinkclient.obj
 0002:00005908       ?qstring_literal@?BA@???R<lambda_d3dc2820d22c113fbd75a264679e87bb>@@QBE?AVQString@@XZ@4U?$QStaticStringData@$08@@B 0042b908     slinkclient.obj
 0002:0000592c       ?qstring_literal@?BB@???R<lambda_fc3c56dd23c62382f1fe17e6c8890642>@@QBE?AVQString@@XZ@4U?$QStaticStringData@$06@@B 0042b92c     slinkclient.obj
 0002:0000594c       ?qstring_literal@?BC@???R<lambda_49522836f7750d79dd5619e390a04beb>@@QBE?AVQString@@XZ@4U?$QStaticStringData@$05@@B 0042b94c     slinkclient.obj
 0002:0000596c       ?qstring_literal@?BD@???R<lambda_abef6f540701619640bc620f9525aa01>@@QBE?AVQString@@XZ@4U?$QStaticStringData@$06@@B 0042b96c     slinkclient.obj
 0002:0000598c       ?qstring_literal@?BE@???R<lambda_abdd347c1d27cd6e83e4ff8f771aaf8e>@@QBE?AVQString@@XZ@4U?$QStaticStringData@$0M@@@B 0042b98c     slinkclient.obj
 0002:000059b8       ?qstring_literal@?BF@???R<lambda_64459ed830fa880c8d3ef390c9e24155>@@QBE?AVQString@@XZ@4U?$QStaticStringData@$06@@B 0042b9b8     slinkclient.obj
 0002:000059d8       ?qstring_literal@?BG@???R<lambda_27f209fd17423c2f680d8b81b8dd98ce>@@QBE?AVQString@@XZ@4U?$QStaticStringData@$08@@B 0042b9d8     slinkclient.obj
 0002:000059fc       ?qstring_literal@?BH@???R<lambda_ba9a12c1118f42f3a49c9005d96dff4f>@@QBE?AVQString@@XZ@4U?$QStaticStringData@$04@@B 0042b9fc     slinkclient.obj
 0002:00005a18       ?qstring_literal@?BI@???R<lambda_43cb82e59eff806e3361b59ee87ec89a>@@QBE?AVQString@@XZ@4U?$QStaticStringData@$09@@B 0042ba18     slinkclient.obj
 0002:00005a40       ?qstring_literal@?BJ@???R<lambda_8bcee900770d27d33d155820e010e028>@@QBE?AVQString@@XZ@4U?$QStaticStringData@$0M@@@B 0042ba40     slinkclient.obj
 0002:00005a6c       ?qstring_literal@?BK@???R<lambda_6ff301346fe029a9d4ff729270531d35>@@QBE?AVQString@@XZ@4U?$QStaticStringData@$06@@B 0042ba6c     slinkclient.obj
 0002:00005a8c       ?qstring_literal@?BL@???R<lambda_34323e6e24efd9cb102c6132b80b4ec9>@@QBE?AVQString@@XZ@4U?$QStaticStringData@$0O@@@B 0042ba8c     slinkclient.obj
 0002:00005abc       ?qstring_literal@?BM@???R<lambda_bc30f6897def8a296e0d9dcc157ebf88>@@QBE?AVQString@@XZ@4U?$QStaticStringData@$06@@B 0042babc     slinkclient.obj
 0002:00005adc       ?qstring_literal@?BN@???R<lambda_a84fb521d496add6021dff93da07ed2c>@@QBE?AVQString@@XZ@4U?$QStaticStringData@$0L@@@B 0042badc     slinkclient.obj
 0002:00005b04       ?qstring_literal@?BO@???R<lambda_74aa987245742e858572fa285d6eb1d4>@@QBE?AVQString@@XZ@4U?$QStaticStringData@$06@@B 0042bb04     slinkclient.obj
 0002:00005b24       ?qstring_literal@?BP@???R<lambda_ac8ea716e6658c3c52eb3f5ee794b822>@@QBE?AVQString@@XZ@4U?$QStaticStringData@$0P@@@B 0042bb24     slinkclient.obj
 0002:00005b54       ?qstring_literal@?CA@???R<lambda_2e25481b1be6b200e998ac4f0a826bc2>@@QBE?AVQString@@XZ@4U?$QStaticStringData@$06@@B 0042bb54     slinkclient.obj
 0002:00005b74       ?qstring_literal@?CB@???R<lambda_d38b335fb1879f7501cc68bf1a5017a0>@@QBE?AVQString@@XZ@4U?$QStaticStringData@$0P@@@B 0042bb74     slinkclient.obj
 0002:00005ba4       ?qstring_literal@?CC@???R<lambda_4f4e0757ad7867a93aab0612471bb803>@@QBE?AVQString@@XZ@4U?$QStaticStringData@$0BC@@@B 0042bba4     slinkclient.obj
 0002:00005bdc       ?qstring_literal@?CD@???R<lambda_09acdaf7ee25e47ea4b0dd9d0b70d40a>@@QBE?AVQString@@XZ@4U?$QStaticStringData@$09@@B 0042bbdc     slinkclient.obj
 0002:00005c04       ?qstring_literal@?CE@???R<lambda_d32a807d10915934ab12993ae6c5ba34>@@QBE?AVQString@@XZ@4U?$QStaticStringData@$09@@B 0042bc04     slinkclient.obj
 0002:00005c2c       ?qstring_literal@?CF@???R<lambda_eae3c373f7d537d34cda12742b0619fa>@@QBE?AVQString@@XZ@4U?$QStaticStringData@$06@@B 0042bc2c     slinkclient.obj
 0002:00005c4c       ?qstring_literal@?CG@???R<lambda_7f8cfa4e5b3832620134d4a89e0431a7>@@QBE?AVQString@@XZ@4U?$QStaticStringData@$05@@B 0042bc4c     slinkclient.obj
 0002:00005c6c       ?qstring_literal@?CH@???R<lambda_4bfa08334d90ab3acf75600741957bcc>@@QBE?AVQString@@XZ@4U?$QStaticStringData@$07@@B 0042bc6c     slinkclient.obj
 0002:00005c90       ?qstring_literal@?CI@???R<lambda_98eaadaa904eadb6ecdd3976923c2906>@@QBE?AVQString@@XZ@4U?$QStaticStringData@$09@@B 0042bc90     slinkclient.obj
 0002:00005cb8       ?qstring_literal@?CJ@???R<lambda_8c65dd67202652c8b8f79da1b65f5249>@@QBE?AVQString@@XZ@4U?$QStaticStringData@$07@@B 0042bcb8     slinkclient.obj
 0002:00005cdc       ?qstring_literal@?CK@???R<lambda_74f7dc3224e92d8823f442a4ad79751b>@@QBE?AVQString@@XZ@4U?$QStaticStringData@$0N@@@B 0042bcdc     slinkclient.obj
 0002:00005d08       ?qstring_literal@?CL@???R<lambda_d37f4da8c10f45f8e0453a3a3a509c68>@@QBE?AVQString@@XZ@4U?$QStaticStringData@$0BC@@@B 0042bd08     slinkclient.obj
 0002:00005d40       ?qstring_literal@?CM@???R<lambda_e0b95599f0068a800adb04eed7b020bd>@@QBE?AVQString@@XZ@4U?$QStaticStringData@$09@@B 0042bd40     slinkclient.obj
 0002:00005d68       ?qstring_literal@?CN@???R<lambda_8ef78ba6ffd3107462c99b31a1dc477b>@@QBE?AVQString@@XZ@4U?$QStaticStringData@$0BC@@@B 0042bd68     slinkclient.obj
 0002:00005da0       ?qstring_literal@?CO@???R<lambda_5b92b8516fff7c697bf6041982f62ec0>@@QBE?AVQString@@XZ@4U?$QStaticStringData@$07@@B 0042bda0     slinkclient.obj
 0002:00005dc4       ?qstring_literal@?CP@???R<lambda_db36a0fabb9e4173c62dfcb542b7d852>@@QBE?AVQString@@XZ@4U?$QStaticStringData@$0O@@@B 0042bdc4     slinkclient.obj
 0002:00005df4       ?qstring_literal@?DA@???R<lambda_487724844afa2bb1152b456d0b310e30>@@QBE?AVQString@@XZ@4U?$QStaticStringData@$0P@@@B 0042bdf4     slinkclient.obj
 0002:00005e24       ?qstring_literal@?DB@???R<lambda_b16740d10990883b1967473738649efb>@@QBE?AVQString@@XZ@4U?$QStaticStringData@$0M@@@B 0042be24     slinkclient.obj
 0002:00005e50       ?qstring_literal@?DC@???R<lambda_71d073b44785d7bc676237d7f7d744a0>@@QBE?AVQString@@XZ@4U?$QStaticStringData@$08@@B 0042be50     slinkclient.obj
 0002:00006950       _txtHHCtrl$S28268          0042c950     htmlhelp:init.obj
 0002:00006960       _txtInProc$S28269          0042c960     htmlhelp:init.obj
 0002:000069b0       _GS_ExceptionPointers      0042c9b0     MSVCRT:gs_report.obj
 0002:00007c80       __catchsym$?_Copy@?$basic_string@DU?$char_traits@D@std@@V?$allocator@D@2@@std@@QAEXII@Z$5 0042dc80     ccCheck.obj
 0002:00007c90       __catchsym$?_Copy@?$basic_string@DU?$char_traits@D@std@@V?$allocator@D@2@@std@@QAEXII@Z$4 0042dc90     ccCheck.obj
 0002:00007ca0       __unwindtable$?_Copy@?$basic_string@DU?$char_traits@D@std@@V?$allocator@D@2@@std@@QAEXII@Z 0042dca0     ccCheck.obj
 0002:00007cc0       __ehfuncinfo$?_Copy@?$basic_string@DU?$char_traits@D@std@@V?$allocator@D@2@@std@@QAEXII@Z 0042dcc0     ccCheck.obj
 0002:00007ce4       __tryblocktable$?_Copy@?$basic_string@DU?$char_traits@D@std@@V?$allocator@D@2@@std@@QAEXII@Z 0042dce4     ccCheck.obj
 0002:00007d0c       __unwindtable$?checkDevice@ccCheck@@QAE_NI@Z 0042dd0c     ccCheck.obj
 0002:00007d0c       __unwindtable$?checkIndex@ccCheck@@QAE_NI@Z 0042dd0c     ccCheck.obj
 0002:00007d1c       __ehfuncinfo$?checkDevice@ccCheck@@QAE_NI@Z 0042dd1c     ccCheck.obj
 0002:00007d1c       __ehfuncinfo$?checkIndex@ccCheck@@QAE_NI@Z 0042dd1c     ccCheck.obj
 0002:00007d40       __unwindtable$?checkDatabase@ccCheck@@QAE_NII@Z 0042dd40     ccCheck.obj
 0002:00007d50       __ehfuncinfo$?checkDatabase@ccCheck@@QAE_NII@Z 0042dd50     ccCheck.obj
 0002:00007d74       __unwindtable$?checkString@ccCheck@@QAE_NABV?$basic_string@DU?$char_traits@D@std@@V?$allocator@D@2@@std@@@Z 0042dd74     ccCheck.obj
 0002:00007d7c       __ehfuncinfo$?checkString@ccCheck@@QAE_NABV?$basic_string@DU?$char_traits@D@std@@V?$allocator@D@2@@std@@@Z 0042dd7c     ccCheck.obj
 0002:00007da0       __unwindtable$?checkWorkstation@ccCheck@@QAE_NI@Z 0042dda0     ccCheck.obj
 0002:00007db0       __ehfuncinfo$?checkWorkstation@ccCheck@@QAE_NI@Z 0042ddb0     ccCheck.obj
 0002:00007dd4       __unwindtable$?log@ccCheck@@QAEXABV?$basic_string@DU?$char_traits@D@std@@V?$allocator@D@2@@std@@@Z 0042ddd4     ccCheck.obj
 0002:00007de4       __ehfuncinfo$?log@ccCheck@@QAEXABV?$basic_string@DU?$char_traits@D@std@@V?$allocator@D@2@@std@@@Z 0042dde4     ccCheck.obj
 0002:00007e08       __unwindtable$??$?HDU?$char_traits@D@std@@V?$allocator@D@1@@std@@YA?AV?$basic_string@DU?$char_traits@D@std@@V?$allocator@D@2@@0@ABV10@PBD@Z 0042de08     ccCheck.obj
 0002:00007e08       __unwindtable$??$?HDU?$char_traits@D@std@@V?$allocator@D@1@@std@@YA?AV?$basic_string@DU?$char_traits@D@std@@V?$allocator@D@2@@0@PBDABV10@@Z 0042de08     ccCheck.obj
 0002:00007e10       __ehfuncinfo$??$?HDU?$char_traits@D@std@@V?$allocator@D@1@@std@@YA?AV?$basic_string@DU?$char_traits@D@std@@V?$allocator@D@2@@0@PBDABV10@@Z 0042de10     ccCheck.obj
 0002:00007e10       __ehfuncinfo$??$?HDU?$char_traits@D@std@@V?$allocator@D@1@@std@@YA?AV?$basic_string@DU?$char_traits@D@std@@V?$allocator@D@2@@0@ABV10@PBD@Z 0042de10     ccCheck.obj
 0002:00007e34       __unwindtable$??0ccClient@@QAE@PAVIccClientCallback@@ABV?$basic_string@DU?$char_traits@D@std@@V?$allocator@D@2@@std@@@Z 0042de34     ccClient.obj
 0002:00007e44       __ehfuncinfo$??0ccClient@@QAE@PAVIccClientCallback@@ABV?$basic_string@DU?$char_traits@D@std@@V?$allocator@D@2@@std@@@Z 0042de44     ccClient.obj
 0002:00007e68       __unwindtable$?deviceProfile@ccClient@@QAEXHAAH00AAV?$basic_string@DU?$char_traits@D@std@@V?$allocator@D@2@@std@@@Z 0042de68     ccClient.obj
 0002:00007e70       __ehfuncinfo$?deviceProfile@ccClient@@QAEXHAAH00AAV?$basic_string@DU?$char_traits@D@std@@V?$allocator@D@2@@std@@@Z 0042de70     ccClient.obj
 0002:00007e94       __ehfuncinfo$?WndProc@ccClient@@CGJPAUHWND__@@IIJ@Z 0042de94     ccClient.obj
 0002:00007eb8       __unwindtable$?WndProc@ccClient@@CGJPAUHWND__@@IIJ@Z 0042deb8     ccClient.obj
 0002:00007ef8       __unwindtable$?getString@ccConfig@@SA?AV?$basic_string@DU?$char_traits@D@std@@V?$allocator@D@2@@std@@HABV23@00_N@Z 0042def8     ccConfig.obj
 0002:00007f00       __ehfuncinfo$?getString@ccConfig@@SA?AV?$basic_string@DU?$char_traits@D@std@@V?$allocator@D@2@@std@@HABV23@00_N@Z 0042df00     ccConfig.obj
 0002:00007f24       __unwindtable$?getInt@ccConfig@@SAHABV?$basic_string@DU?$char_traits@D@std@@V?$allocator@D@2@@std@@00H_N@Z 0042df24     ccConfig.obj
 0002:00007f34       __ehfuncinfo$?getInt@ccConfig@@SAHABV?$basic_string@DU?$char_traits@D@std@@V?$allocator@D@2@@std@@00H_N@Z 0042df34     ccConfig.obj
 0002:00007f58       __unwindtable$?getDevPath@ccConfig@@SA?AV?$basic_string@DU?$char_traits@D@std@@V?$allocator@D@2@@std@@XZ 0042df58     ccConfig.obj
 0002:00007f70       __ehfuncinfo$?getDevPath@ccConfig@@SA?AV?$basic_string@DU?$char_traits@D@std@@V?$allocator@D@2@@std@@XZ 0042df70     ccConfig.obj
 0002:00007f94       __unwindtable$?getDevPath@ccConfig@@SA?AV?$basic_string@DU?$char_traits@D@std@@V?$allocator@D@2@@std@@ABV23@@Z 0042df94     ccConfig.obj
 0002:00007fa4       __ehfuncinfo$?getDevPath@ccConfig@@SA?AV?$basic_string@DU?$char_traits@D@std@@V?$allocator@D@2@@std@@ABV23@@Z 0042dfa4     ccConfig.obj
 0002:00007fc8       __ehfuncinfo$?workstation@ccConfig@@SAHXZ 0042dfc8     ccConfig.obj
 0002:00007fec       __unwindtable$?workstation@ccConfig@@SAHXZ 0042dfec     ccConfig.obj
 0002:00008034       __unwindtable$??0ccConfig@@QAE@ABV?$basic_string@DU?$char_traits@D@std@@V?$allocator@D@2@@std@@0@Z 0042e034     ccConfig.obj
 0002:0000804c       __ehfuncinfo$??0ccConfig@@QAE@ABV?$basic_string@DU?$char_traits@D@std@@V?$allocator@D@2@@std@@0@Z 0042e04c     ccConfig.obj
 0002:00008070       __ehfuncinfo$?readConfigSectionAbs@ccConfig@@CAXABV?$basic_string@DU?$char_traits@D@std@@V?$allocator@D@2@@std@@0AAV?$map@V?$basic_string@DU?$char_traits@D@std@@V?$allocator@D@2@@std@@V12@U?$less@V?$basic_string@DU?$char_traits@D@std@@V?$allocator@D@2@@std@@@2@V?$allocator@U?$pair@$$CBV?$basic_string@DU?$char_traits@D@std@@V?$allocator@D@2@@std@@V12@@std@@@2@@3@@Z 0042e070     ccConfig.obj
 0002:00008094       __unwindtable$?readConfigSectionAbs@ccConfig@@CAXABV?$basic_string@DU?$char_traits@D@std@@V?$allocator@D@2@@std@@0AAV?$map@V?$basic_string@DU?$char_traits@D@std@@V?$allocator@D@2@@std@@V12@U?$less@V?$basic_string@DU?$char_traits@D@std@@V?$allocator@D@2@@std@@@2@V?$allocator@U?$pair@$$CBV?$basic_string@DU?$char_traits@D@std@@V?$allocator@D@2@@std@@V12@@std@@@2@@3@@Z 0042e094     ccConfig.obj
 0002:000080bc       __unwindtable$?find@ccConfig@@AAE?AV?$_Tree_iterator@V?$_Tree_val@U?$_Tree_simple_types@U?$pair@$$CBV?$basic_string@DU?$char_traits@D@std@@V?$allocator@D@2@@std@@V12@@std@@@std@@@std@@@std@@ABV?$basic_string@DU?$char_traits@D@std@@V?$allocator@D@2@@3@@Z 0042e0bc     ccConfig.obj
 0002:000080cc       __ehfuncinfo$?find@ccConfig@@AAE?AV?$_Tree_iterator@V?$_Tree_val@U?$_Tree_simple_types@U?$pair@$$CBV?$basic_string@DU?$char_traits@D@std@@V?$allocator@D@2@@std@@V12@@std@@@std@@@std@@@std@@ABV?$basic_string@DU?$char_traits@D@std@@V?$allocator@D@2@@3@@Z 0042e0cc     ccConfig.obj
 0002:000080f0       __catchsym$??$_Insert_nohint@AAU?$pair@$$CBV?$basic_string@DU?$char_traits@D@std@@V?$allocator@D@2@@std@@V12@@std@@PAU?$_Tree_node@U?$pair@$$CBV?$basic_string@DU?$char_traits@D@std@@V?$allocator@D@2@@std@@V12@@std@@PAX@2@@?$_Tree@V?$_Tmap_traits@V?$basic_string@DU?$char_traits@D@std@@V?$allocator@D@2@@std@@V12@U?$less@V?$basic_string@DU?$char_traits@D@std@@V?$allocator@D@2@@std@@@2@V?$allocator@U?$pair@$$CBV?$basic_string@DU?$char_traits@D@std@@V?$allocator@D@2@@std@@V12@@std@@@2@$0A@@std@@@std@@IAE?AU?$pair@V?$_Tree_iterator@V?$_Tree_val@U?$_Tree_simple_types@U?$pair@$$CBV?$basic_string@DU?$char_traits@D@std@@V?$allocator@D@2@@std@@V12@@std@@@std@@@std@@@std@@_N@1@_NAAU?$pair@$$CBV?$basic_string@DU?$char_traits@D@std@@V?$allocator@D@2@@std@@V12@@1@PAU?$_Tree_node@U?$pair@$$CBV?$basic_string@DU?$char_traits@D@std@@V?$allocator@D@2@@std@@V12@@std@@PAX@1@@Z$2 0042e0f0     ccConfig.obj
 0002:00008100       __unwindtable$??$_Insert_nohint@AAU?$pair@$$CBV?$basic_string@DU?$char_traits@D@std@@V?$allocator@D@2@@std@@V12@@std@@PAU?$_Tree_node@U?$pair@$$CBV?$basic_string@DU?$char_traits@D@std@@V?$allocator@D@2@@std@@V12@@std@@PAX@2@@?$_Tree@V?$_Tmap_traits@V?$basic_string@DU?$char_traits@D@std@@V?$allocator@D@2@@std@@V12@U?$less@V?$basic_string@DU?$char_traits@D@std@@V?$allocator@D@2@@std@@@2@V?$allocator@U?$pair@$$CBV?$basic_string@DU?$char_traits@D@std@@V?$allocator@D@2@@std@@V12@@std@@@2@$0A@@std@@@std@@IAE?AU?$pair@V?$_Tree_iterator@V?$_Tree_val@U?$_Tree_simple_types@U?$pair@$$CBV?$basic_string@DU?$char_traits@D@std@@V?$allocator@D@2@@std@@V12@@std@@@std@@@std@@@std@@_N@1@_NAAU?$pair@$$CBV?$basic_string@DU?$char_traits@D@std@@V?$allocator@D@2@@std@@V12@@1@PAU?$_Tree_node@U?$pair@$$CBV?$basic_string@DU?$char_traits@D@std@@V?$allocator@D@2@@std@@V12@@std@@PAX@1@@Z 0042e100     ccConfig.obj
 0002:00008110       __tryblocktable$??$_Insert_nohint@AAU?$pair@$$CBV?$basic_string@DU?$char_traits@D@std@@V?$allocator@D@2@@std@@V12@@std@@PAU?$_Tree_node@U?$pair@$$CBV?$basic_string@DU?$char_traits@D@std@@V?$allocator@D@2@@std@@V12@@std@@PAX@2@@?$_Tree@V?$_Tmap_traits@V?$basic_string@DU?$char_traits@D@std@@V?$allocator@D@2@@std@@V12@U?$less@V?$basic_string@DU?$char_traits@D@std@@V?$allocator@D@2@@std@@@2@V?$allocator@U?$pair@$$CBV?$basic_string@DU?$char_traits@D@std@@V?$allocator@D@2@@std@@V12@@std@@@2@$0A@@std@@@std@@IAE?AU?$pair@V?$_Tree_iterator@V?$_Tree_val@U?$_Tree_simple_types@U?$pair@$$CBV?$basic_string@DU?$char_traits@D@std@@V?$allocator@D@2@@std@@V12@@std@@@std@@@std@@@std@@_N@1@_NAAU?$pair@$$CBV?$basic_string@DU?$char_traits@D@std@@V?$allocator@D@2@@std@@V12@@1@PAU?$_Tree_node@U?$pair@$$CBV?$basic_string@DU?$char_traits@D@std@@V?$allocator@D@2@@std@@V12@@std@@PAX@1@@Z 0042e110     ccConfig.obj
 0002:00008124       __ehfuncinfo$??$_Insert_nohint@AAU?$pair@$$CBV?$basic_string@DU?$char_traits@D@std@@V?$allocator@D@2@@std@@V12@@std@@PAU?$_Tree_node@U?$pair@$$CBV?$basic_string@DU?$char_traits@D@std@@V?$allocator@D@2@@std@@V12@@std@@PAX@2@@?$_Tree@V?$_Tmap_traits@V?$basic_string@DU?$char_traits@D@std@@V?$allocator@D@2@@std@@V12@U?$less@V?$basic_string@DU?$char_traits@D@std@@V?$allocator@D@2@@std@@@2@V?$allocator@U?$pair@$$CBV?$basic_string@DU?$char_traits@D@std@@V?$allocator@D@2@@std@@V12@@std@@@2@$0A@@std@@@std@@IAE?AU?$pair@V?$_Tree_iterator@V?$_Tree_val@U?$_Tree_simple_types@U?$pair@$$CBV?$basic_string@DU?$char_traits@D@std@@V?$allocator@D@2@@std@@V12@@std@@@std@@@std@@@std@@_N@1@_NAAU?$pair@$$CBV?$basic_string@DU?$char_traits@D@std@@V?$allocator@D@2@@std@@V12@@1@PAU?$_Tree_node@U?$pair@$$CBV?$basic_string@DU?$char_traits@D@std@@V?$allocator@D@2@@std@@V12@@std@@PAX@1@@Z 0042e124     ccConfig.obj
 0002:00008148       __unwindtable$??0ccDriver@@QAE@PAVIccDriverCallback@@ABV?$basic_string@DU?$char_traits@D@std@@V?$allocator@D@2@@std@@@Z 0042e148     ccDriver.obj
 0002:00008158       __ehfuncinfo$??0ccDriver@@QAE@PAVIccDriverCallback@@ABV?$basic_string@DU?$char_traits@D@std@@V?$allocator@D@2@@std@@@Z 0042e158     ccDriver.obj
 0002:0000817c       __unwindtable$?push_back@?$deque@VccInfodriverPost@@V?$allocator@VccInfodriverPost@@@std@@@std@@QAEX$$QAVccInfodriverPost@@@Z 0042e17c     ccDriver.obj
 0002:0000817c       __unwindtable$?push_back@?$deque@VccDriverPost@@V?$allocator@VccDriverPost@@@std@@@std@@QAEX$$QAVccDriverPost@@@Z 0042e17c     ccDriver.obj
 0002:0000817c       __unwindtable$?push_back@?$deque@V?$basic_string@DU?$char_traits@D@std@@V?$allocator@D@2@@std@@V?$allocator@V?$basic_string@DU?$char_traits@D@std@@V?$allocator@D@2@@std@@@2@@std@@QAEXABV?$basic_string@DU?$char_traits@D@std@@V?$allocator@D@2@@2@@Z 0042e17c     ccDriver.obj
 0002:00008184       __ehfuncinfo$?push_back@?$deque@VccDriverPost@@V?$allocator@VccDriverPost@@@std@@@std@@QAEX$$QAVccDriverPost@@@Z 0042e184     ccDriver.obj
 0002:00008184       __ehfuncinfo$?push_back@?$deque@VccInfodriverPost@@V?$allocator@VccInfodriverPost@@@std@@@std@@QAEX$$QAVccInfodriverPost@@@Z 0042e184     ccDriver.obj
 0002:00008184       __ehfuncinfo$?push_back@?$deque@V?$basic_string@DU?$char_traits@D@std@@V?$allocator@D@2@@std@@V?$allocator@V?$basic_string@DU?$char_traits@D@std@@V?$allocator@D@2@@std@@@2@@std@@QAEXABV?$basic_string@DU?$char_traits@D@std@@V?$allocator@D@2@@2@@Z 0042e184     ccDriver.obj
 0002:000081a8       __ehfuncinfo$?WndProc@ccDriver@@CGJPAUHWND__@@IIJ@Z 0042e1a8     ccDriver.obj
 0002:000081cc       __unwindtable$?WndProc@ccDriver@@CGJPAUHWND__@@IIJ@Z 0042e1cc     ccDriver.obj
 0002:00008214       __unwindtable$??0ccDriverPost@@QAE@HHABV?$basic_string@DU?$char_traits@D@std@@V?$allocator@D@2@@std@@@Z 0042e214     ccInfodriver.obj
 0002:00008214       __unwindtable$??0ccInfodriverPost@@QAE@HHABV?$basic_string@DU?$char_traits@D@std@@V?$allocator@D@2@@std@@@Z 0042e214     ccInfodriver.obj
 0002:0000821c       __ehfuncinfo$??0ccInfodriverPost@@QAE@HHABV?$basic_string@DU?$char_traits@D@std@@V?$allocator@D@2@@std@@@Z 0042e21c     ccInfodriver.obj
 0002:0000821c       __ehfuncinfo$??0ccDriverPost@@QAE@HHABV?$basic_string@DU?$char_traits@D@std@@V?$allocator@D@2@@std@@@Z 0042e21c     ccInfodriver.obj
 0002:00008240       __unwindtable$??0ccInfodriver@@QAE@PAVIccInfodriverCallback@@ABV?$basic_string@DU?$char_traits@D@std@@V?$allocator@D@2@@std@@@Z 0042e240     ccInfodriver.obj
 0002:00008250       __ehfuncinfo$??0ccInfodriver@@QAE@PAVIccInfodriverCallback@@ABV?$basic_string@DU?$char_traits@D@std@@V?$allocator@D@2@@std@@@Z 0042e250     ccInfodriver.obj
 0002:00008274       __ehfuncinfo$?WndProc@ccInfodriver@@CGJPAUHWND__@@IIJ@Z 0042e274     ccInfodriver.obj
 0002:00008298       __unwindtable$?WndProc@ccInfodriver@@CGJPAUHWND__@@IIJ@Z 0042e298     ccInfodriver.obj
 0002:000082e0       __unwindtable$??0database@@QAE@PBDHH@Z 0042e2e0     database.obj
 0002:000082f0       __ehfuncinfo$??0database@@QAE@PBDHH@Z 0042e2f0     database.obj
 0002:00008314       __unwindtable$?setName@database@@QAE_NHPBD_NPA_N@Z 0042e314     database.obj
 0002:0000831c       __ehfuncinfo$?setName@database@@QAE_NHPBD_NPA_N@Z 0042e31c     database.obj
 0002:00008340       __unwindtable$?load@database@@AAEXPBDHH@Z 0042e340     database.obj
 0002:00008350       __ehfuncinfo$?load@database@@AAEXPBDHH@Z 0042e350     database.obj
 0002:00008374       __catchsym$??$_Insert_nohint@AAU?$pair@$$CBHV?$basic_string@DU?$char_traits@D@std@@V?$allocator@D@2@@std@@@std@@PAU?$_Tree_node@U?$pair@$$CBHV?$basic_string@DU?$char_traits@D@std@@V?$allocator@D@2@@std@@@std@@PAX@2@@?$_Tree@V?$_Tmap_traits@HV?$basic_string@DU?$char_traits@D@std@@V?$allocator@D@2@@std@@U?$less@H@2@V?$allocator@U?$pair@$$CBHV?$basic_string@DU?$char_traits@D@std@@V?$allocator@D@2@@std@@@std@@@2@$0A@@std@@@std@@IAE?AU?$pair@V?$_Tree_iterator@V?$_Tree_val@U?$_Tree_simple_types@U?$pair@$$CBHV?$basic_string@DU?$char_traits@D@std@@V?$allocator@D@2@@std@@@std@@@std@@@std@@@std@@_N@1@_NAAU?$pair@$$CBHV?$basic_string@DU?$char_traits@D@std@@V?$allocator@D@2@@std@@@1@PAU?$_Tree_node@U?$pair@$$CBHV?$basic_string@DU?$char_traits@D@std@@V?$allocator@D@2@@std@@@std@@PAX@1@@Z$2 0042e374     database.obj
 0002:00008384       __unwindtable$??$_Insert_nohint@AAU?$pair@$$CBHV?$basic_string@DU?$char_traits@D@std@@V?$allocator@D@2@@std@@@std@@PAU?$_Tree_node@U?$pair@$$CBHV?$basic_string@DU?$char_traits@D@std@@V?$allocator@D@2@@std@@@std@@PAX@2@@?$_Tree@V?$_Tmap_traits@HV?$basic_string@DU?$char_traits@D@std@@V?$allocator@D@2@@std@@U?$less@H@2@V?$allocator@U?$pair@$$CBHV?$basic_string@DU?$char_traits@D@std@@V?$allocator@D@2@@std@@@std@@@2@$0A@@std@@@std@@IAE?AU?$pair@V?$_Tree_iterator@V?$_Tree_val@U?$_Tree_simple_types@U?$pair@$$CBHV?$basic_string@DU?$char_traits@D@std@@V?$allocator@D@2@@std@@@std@@@std@@@std@@@std@@_N@1@_NAAU?$pair@$$CBHV?$basic_string@DU?$char_traits@D@std@@V?$allocator@D@2@@std@@@1@PAU?$_Tree_node@U?$pair@$$CBHV?$basic_string@DU?$char_traits@D@std@@V?$allocator@D@2@@std@@@std@@PAX@1@@Z 0042e384     database.obj
 0002:00008394       __tryblocktable$??$_Insert_nohint@AAU?$pair@$$CBHV?$basic_string@DU?$char_traits@D@std@@V?$allocator@D@2@@std@@@std@@PAU?$_Tree_node@U?$pair@$$CBHV?$basic_string@DU?$char_traits@D@std@@V?$allocator@D@2@@std@@@std@@PAX@2@@?$_Tree@V?$_Tmap_traits@HV?$basic_string@DU?$char_traits@D@std@@V?$allocator@D@2@@std@@U?$less@H@2@V?$allocator@U?$pair@$$CBHV?$basic_string@DU?$char_traits@D@std@@V?$allocator@D@2@@std@@@std@@@2@$0A@@std@@@std@@IAE?AU?$pair@V?$_Tree_iterator@V?$_Tree_val@U?$_Tree_simple_types@U?$pair@$$CBHV?$basic_string@DU?$char_traits@D@std@@V?$allocator@D@2@@std@@@std@@@std@@@std@@@std@@_N@1@_NAAU?$pair@$$CBHV?$basic_string@DU?$char_traits@D@std@@V?$allocator@D@2@@std@@@1@PAU?$_Tree_node@U?$pair@$$CBHV?$basic_string@DU?$char_traits@D@std@@V?$allocator@D@2@@std@@@std@@PAX@1@@Z 0042e394     database.obj
 0002:000083a8       __ehfuncinfo$??$_Insert_nohint@AAU?$pair@$$CBHV?$basic_string@DU?$char_traits@D@std@@V?$allocator@D@2@@std@@@std@@PAU?$_Tree_node@U?$pair@$$CBHV?$basic_string@DU?$char_traits@D@std@@V?$allocator@D@2@@std@@@std@@PAX@2@@?$_Tree@V?$_Tmap_traits@HV?$basic_string@DU?$char_traits@D@std@@V?$allocator@D@2@@std@@U?$less@H@2@V?$allocator@U?$pair@$$CBHV?$basic_string@DU?$char_traits@D@std@@V?$allocator@D@2@@std@@@std@@@2@$0A@@std@@@std@@IAE?AU?$pair@V?$_Tree_iterator@V?$_Tree_val@U?$_Tree_simple_types@U?$pair@$$CBHV?$basic_string@DU?$char_traits@D@std@@V?$allocator@D@2@@std@@@std@@@std@@@std@@@std@@_N@1@_NAAU?$pair@$$CBHV?$basic_string@DU?$char_traits@D@std@@V?$allocator@D@2@@std@@@1@PAU?$_Tree_node@U?$pair@$$CBHV?$basic_string@DU?$char_traits@D@std@@V?$allocator@D@2@@std@@@std@@PAX@1@@Z 0042e3a8     database.obj
 0002:000083cc       __unwindtable$??_GdatabaseMgr@@UAEPAXI@Z 0042e3cc     databaseMgr.obj
 0002:000083cc       __unwindtable$??0databaseMgr@@QAE@PBD@Z 0042e3cc     databaseMgr.obj
 0002:000083d4       __ehfuncinfo$??_GdatabaseMgr@@UAEPAXI@Z 0042e3d4     databaseMgr.obj
 0002:000083d4       __ehfuncinfo$??0databaseMgr@@QAE@PBD@Z 0042e3d4     databaseMgr.obj
 0002:000083f8       __unwindtable$??1databaseMgr@@UAE@XZ 0042e3f8     databaseMgr.obj
 0002:00008400       __ehfuncinfo$??1databaseMgr@@UAE@XZ 0042e400     databaseMgr.obj
 0002:00008424       __unwindtable$?getDatabaseObject@databaseMgr@@AAEPAVdatabase@@HH_N@Z 0042e424     databaseMgr.obj
 0002:0000842c       __ehfuncinfo$?getDatabaseObject@databaseMgr@@AAEPAVdatabase@@HH_N@Z 0042e42c     databaseMgr.obj
 0002:00008450       __catchsym$??$_Insert_nohint@AAU?$pair@$$CBHPAVdatabase@@@std@@PAU?$_Tree_node@U?$pair@$$CBHPAVdatabase@@@std@@PAX@2@@?$_Tree@V?$_Tmap_traits@HPAVdatabase@@U?$less@H@std@@V?$allocator@U?$pair@$$CBHPAVdatabase@@@std@@@3@$0A@@std@@@std@@IAE?AU?$pair@V?$_Tree_iterator@V?$_Tree_val@U?$_Tree_simple_types@U?$pair@$$CBHPAVdatabase@@@std@@@std@@@std@@@std@@_N@1@_NAAU?$pair@$$CBHPAVdatabase@@@1@PAU?$_Tree_node@U?$pair@$$CBHPAVdatabase@@@std@@PAX@1@@Z$2 0042e450     databaseMgr.obj
 0002:00008460       __unwindtable$??$_Insert_nohint@AAU?$pair@$$CBHPAVdatabase@@@std@@PAU?$_Tree_node@U?$pair@$$CBHPAVdatabase@@@std@@PAX@2@@?$_Tree@V?$_Tmap_traits@HPAVdatabase@@U?$less@H@std@@V?$allocator@U?$pair@$$CBHPAVdatabase@@@std@@@3@$0A@@std@@@std@@IAE?AU?$pair@V?$_Tree_iterator@V?$_Tree_val@U?$_Tree_simple_types@U?$pair@$$CBHPAVdatabase@@@std@@@std@@@std@@@std@@_N@1@_NAAU?$pair@$$CBHPAVdatabase@@@1@PAU?$_Tree_node@U?$pair@$$CBHPAVdatabase@@@std@@PAX@1@@Z 0042e460     databaseMgr.obj
 0002:00008470       __tryblocktable$??$_Insert_nohint@AAU?$pair@$$CBHPAVdatabase@@@std@@PAU?$_Tree_node@U?$pair@$$CBHPAVdatabase@@@std@@PAX@2@@?$_Tree@V?$_Tmap_traits@HPAVdatabase@@U?$less@H@std@@V?$allocator@U?$pair@$$CBHPAVdatabase@@@std@@@3@$0A@@std@@@std@@IAE?AU?$pair@V?$_Tree_iterator@V?$_Tree_val@U?$_Tree_simple_types@U?$pair@$$CBHPAVdatabase@@@std@@@std@@@std@@@std@@_N@1@_NAAU?$pair@$$CBHPAVdatabase@@@1@PAU?$_Tree_node@U?$pair@$$CBHPAVdatabase@@@std@@PAX@1@@Z 0042e470     databaseMgr.obj
 0002:00008484       __ehfuncinfo$??$_Insert_nohint@AAU?$pair@$$CBHPAVdatabase@@@std@@PAU?$_Tree_node@U?$pair@$$CBHPAVdatabase@@@std@@PAX@2@@?$_Tree@V?$_Tmap_traits@HPAVdatabase@@U?$less@H@std@@V?$allocator@U?$pair@$$CBHPAVdatabase@@@std@@@3@$0A@@std@@@std@@IAE?AU?$pair@V?$_Tree_iterator@V?$_Tree_val@U?$_Tree_simple_types@U?$pair@$$CBHPAVdatabase@@@std@@@std@@@std@@@std@@_N@1@_NAAU?$pair@$$CBHPAVdatabase@@@1@PAU?$_Tree_node@U?$pair@$$CBHPAVdatabase@@@std@@PAX@1@@Z 0042e484     databaseMgr.obj
 0002:000084a8       __unwindtable$??H@YA?BVQString@@ABV0@PBD@Z 0042e4a8     appGlobal.obj
 0002:000084b8       __ehfuncinfo$??H@YA?BVQString@@ABV0@PBD@Z 0042e4b8     appGlobal.obj
 0002:000084dc       __unwindtable$??H@YA?BVQString@@PBDABV0@@Z 0042e4dc     appGlobal.obj
 0002:000084dc       __unwindtable$??H@YA?BVQString@@ABV0@0@Z 0042e4dc     appGlobal.obj
 0002:000084e4       __ehfuncinfo$??H@YA?BVQString@@ABV0@0@Z 0042e4e4     appGlobal.obj
 0002:000084e4       __ehfuncinfo$??H@YA?BVQString@@PBDABV0@@Z 0042e4e4     appGlobal.obj
 0002:00008508       __ehfuncinfo$?setLog@appGlobal@@SAXPAVQTextEdit@@H@Z 0042e508     appGlobal.obj
 0002:0000852c       __unwindtable$?setLog@appGlobal@@SAXPAVQTextEdit@@H@Z 0042e52c     appGlobal.obj
 0002:00008554       __unwindtable$?configFilename@appGlobal@@SA?AVQString@@XZ 0042e554     appGlobal.obj
 0002:00008564       __ehfuncinfo$?configFilename@appGlobal@@SA?AVQString@@XZ 0042e564     appGlobal.obj
 0002:00008588       __ehfuncinfo$?log@appGlobal@@SAXABVQString@@@Z 0042e588     appGlobal.obj
 0002:000085ac       __unwindtable$?log@appGlobal@@SAXABVQString@@@Z 0042e5ac     appGlobal.obj
 0002:000085d4       __ehfuncinfo$?logError@appGlobal@@SAXABVQString@@@Z 0042e5d4     appGlobal.obj
 0002:000085f8       __unwindtable$?logError@appGlobal@@SAXABVQString@@@Z 0042e5f8     appGlobal.obj
 0002:00008630       __ehfuncinfo$??0fabianClient@@QAE@PAVQObject@@PAVIfabianClient_callback@@ABVQString@@I2I_N@Z 0042e630     fabianClient.obj
 0002:00008654       __unwindtable$??0fabianClient@@QAE@PAVQObject@@PAVIfabianClient_callback@@ABVQString@@I2I_N@Z 0042e654     fabianClient.obj
 0002:0000867c       __unwindtable$?revertiveRegister@fabianClient@@QAEXIII@Z 0042e67c     fabianClient.obj
 0002:0000867c       __unwindtable$?infoWrite@fabianClient@@QAEXIIABVQString@@@Z 0042e67c     fabianClient.obj
 0002:0000867c       __unwindtable$?infoPoll@fabianClient@@QAEXIII@Z 0042e67c     fabianClient.obj
 0002:0000867c       __unwindtable$?rtrPoll@fabianClient@@QAEXIII@Z 0042e67c     fabianClient.obj
 0002:0000867c       __unwindtable$?gpiPoll@fabianClient@@QAEXIII@Z 0042e67c     fabianClient.obj
 0002:0000867c       __unwindtable$?gpiSwitch@fabianClient@@QAEXII_N@Z 0042e67c     fabianClient.obj
 0002:0000869c       __ehfuncinfo$?rtrPoll@fabianClient@@QAEXIII@Z 0042e69c     fabianClient.obj
 0002:0000869c       __ehfuncinfo$?infoPoll@fabianClient@@QAEXIII@Z 0042e69c     fabianClient.obj
 0002:0000869c       __ehfuncinfo$?revertiveRegister@fabianClient@@QAEXIII@Z 0042e69c     fabianClient.obj
 0002:0000869c       __ehfuncinfo$?gpiPoll@fabianClient@@QAEXIII@Z 0042e69c     fabianClient.obj
 0002:0000869c       __ehfuncinfo$?infoWrite@fabianClient@@QAEXIIABVQString@@@Z 0042e69c     fabianClient.obj
 0002:0000869c       __ehfuncinfo$?gpiSwitch@fabianClient@@QAEXII_N@Z 0042e69c     fabianClient.obj
 0002:000086c0       __ehfuncinfo$?rtrCrosspoint@fabianClient@@QAEXIIHABVQString@@@Z 0042e6c0     fabianClient.obj
 0002:000086c0       __ehfuncinfo$?rtrModify@fabianClient@@QAEXIIIABVQString@@_NI@Z 0042e6c0     fabianClient.obj
 0002:000086c0       __ehfuncinfo$?rtrLock@fabianClient@@QAEXIII_N@Z 0042e6c0     fabianClient.obj
 0002:000086c0       __ehfuncinfo$?infoLock@fabianClient@@QAEXIII_N@Z 0042e6c0     fabianClient.obj
 0002:000086c0       __ehfuncinfo$?gpiLock@fabianClient@@QAEXIII_N@Z 0042e6c0     fabianClient.obj
 0002:000086e4       __unwindtable$?rtrLock@fabianClient@@QAEXIII_N@Z 0042e6e4     fabianClient.obj
 0002:000086e4       __unwindtable$?rtrCrosspoint@fabianClient@@QAEXIIHABVQString@@@Z 0042e6e4     fabianClient.obj
 0002:000086e4       __unwindtable$?rtrModify@fabianClient@@QAEXIIIABVQString@@_NI@Z 0042e6e4     fabianClient.obj
 0002:000086e4       __unwindtable$?infoLock@fabianClient@@QAEXIII_N@Z 0042e6e4     fabianClient.obj
 0002:000086e4       __unwindtable$?gpiLock@fabianClient@@QAEXIII_N@Z 0042e6e4     fabianClient.obj
 0002:0000870c       __unwindtable$?revertiveDeregister@fabianClient@@QAEXI@Z 0042e70c     fabianClient.obj
 0002:0000870c       __unwindtable$?deviceProfile@fabianClient@@QAEXI@Z 0042e70c     fabianClient.obj
 0002:0000871c       __ehfuncinfo$?revertiveDeregister@fabianClient@@QAEXI@Z 0042e71c     fabianClient.obj
