 slinkServerdb

 Timestamp is 5e9dbc92 (Mon Apr 20 16:15:30 2020)

 Preferred load address is 00400000

 Start         Length     Name                   Class
 0001:00000000 0000623aH .text                   CODE
 0001:00006240 00002b0bH .text$di                CODE
 0001:00008d50 00073a25H .text$mn                CODE
 0001:0007c780 0000c8edH .text$x                 CODE
 0001:00089070 000018ffH .text$yd                CODE
 0002:00000000 00000104H .CRT$XCA                DATA
 0002:00000104 00000104H .CRT$XCAA               DATA
 0002:00000208 000002e6H .CRT$XCU                DATA
 0002:000004f0 00000104H .CRT$XCZ                DATA
 0002:000005f4 00000104H .CRT$XIA                DATA
 0002:000006f8 00000104H .CRT$XIAA               DATA
 0002:000007fc 00000104H .CRT$XIC                DATA
 0002:00000900 00000104H .CRT$XIY                DATA
 0002:00000a04 00000104H .CRT$XIZ                DATA
 0002:00000b10 000184f3H .rdata                  DATA
 0002:00019004 00000173H .rdata$debug            DATA
 0002:00019178 00001b3cH .rdata$r                DATA
 0002:0001acb4 00000104H .rtc$IAA                DATA
 0002:0001adb8 00000104H .rtc$IZZ                DATA
 0002:0001aebc 00000104H .rtc$TAA                DATA
 0002:0001afc0 00000104H .rtc$TZZ                DATA
 0002:0001b0c8 0000b56aH .xdata$x                DATA
 0002:00026632 00000000H .edata                  DATA
 0003:00000000 00000695H .data                   DATA
 0003:00000698 0000094dH .data$r                 DATA
 0003:00000fe8 00000724H .bss                    DATA
 0004:00000000 000012d0H .idata$5                DATA
 0004:000012d0 000000f0H .idata$2                DATA
 0004:000013c0 00000014H .idata$3                DATA
 0004:000013d4 000012d0H .idata$4                DATA
 0004:000026a4 0000a401H .idata$6                DATA
 0005:00000000 00000319H .rsrc$01                DATA
 0005:00000320 0000ad03H .rsrc$02                DATA

  Address         Publics by Value              Rva+Base       Lib:Object

 0000:00000000       ___guard_fids_count        00000000     <absolute>
 0000:00000000       ___safe_se_handler_table   00000000     <absolute>
 0000:00000000       ___guard_fids_table        00000000     <absolute>
 0000:00000000       __except_list              00000000     <absolute>
 0000:00000000       ___guard_flags             00000000     <absolute>
 0000:00000000       ___safe_se_handler_count   00000000     <absolute>
 0000:00009876       __ldused                   00009876     <absolute>
 0000:00009876       __fltused                  00009876     <absolute>
 0000:00000000       ___ImageBase               00400000     <linker-defined>
 0001:000060a9       _HtmlHelpA@16              004070a9 f   htmlhelp:init.obj
 0001:000061a1       _HtmlHelpW@16              004071a1 f   htmlhelp:init.obj
 0001:00008d50       ??0cBncsVersion@@QAE@PBD@Z 00409d50 f   cBncsVersion.obj
 0001:00009670       ??1cBncsVersion@@UAE@XZ    0040a670 f   cBncsVersion.obj
 0001:00009ac0       ??_EcBncsVersion@@UAEPAXI@Z 0040aac0 f i cBncsVersion.obj
 0001:00009ac0       ??_GcBncsVersion@@UAEPAXI@Z 0040aac0 f i cBncsVersion.obj
 0001:00009b00       ?strpbrk@@YAPADPADPBD@Z    0040ab00 f i cBncsVersion.obj
 0001:00009b60       ??0bncs_disklog@@QAE@PBDW4filetype@0@000000@Z 0040ab60 f   bncs_disklog.obj
 0001:00009bc0       ??0bncs_disklog@@QAE@PBDW4filetype@0@@Z 0040abc0 f   bncs_disklog.obj
 0001:00009c00       ?write@bncs_disklog@@QAEXPBD00000@Z 0040ac00 f   bncs_disklog.obj
 0001:00009ea0       ??1bncs_disklog@@UAE@XZ    0040aea0 f   bncs_disklog.obj
 0001:00009ec0       ?ref@bncs_disklog@@QAEPBDXZ 0040aec0 f   bncs_disklog.obj
 0001:00009ee0       ?clear@bncs_disklog@@QAEXXZ 0040aee0 f   bncs_disklog.obj
 0001:00009f20       ?openLogFile@bncs_disklog@@AAEXPBDW4filetype@1@@Z 0040af20 f   bncs_disklog.obj
 0001:0000a240       ?initVars@bncs_disklog@@AAEXXZ 0040b240 f   bncs_disklog.obj
 0001:0000a270       ?createDirectory@bncs_disklog@@AAEXPBD@Z 0040b270 f   bncs_disklog.obj
 0001:0000a370       ?cleanup@bncs_disklog@@AAEXXZ 0040b370 f   bncs_disklog.obj
 0001:0000a5c0       ??_Gbncs_disklog@@UAEPAXI@Z 0040b5c0 f i bncs_disklog.obj
 0001:0000a5c0       ??_Ebncs_disklog@@UAEPAXI@Z 0040b5c0 f i bncs_disklog.obj
 0001:0000a600       ??0ccCheck@@QAE@ABV?$basic_string@DU?$char_traits@D@std@@V?$allocator@D@2@@std@@@Z 0040b600 f   ccCheck.obj
 0001:0000a660       ??1ccCheck@@UAE@XZ         0040b660 f   ccCheck.obj
 0001:0000a680       ?setHeader@ccCheck@@QAEXABV?$basic_string@DU?$char_traits@D@std@@V?$allocator@D@2@@std@@@Z 0040b680 f   ccCheck.obj
 0001:0000a6a0       ?checkDevice@ccCheck@@QAE_NI@Z 0040b6a0 f   ccCheck.obj
 0001:0000a760       ?checkIndex@ccCheck@@QAE_NI@Z 0040b760 f   ccCheck.obj
 0001:0000a820       ?checkSource@ccCheck@@QAE_NH@Z 0040b820 f   ccCheck.obj
 0001:0000a8f0       ?checkRange@ccCheck@@QAE_NII@Z 0040b8f0 f   ccCheck.obj
 0001:0000a980       ?checkIndexRange@ccCheck@@QAE_NII@Z 0040b980 f   ccCheck.obj
 0001:0000aa50       ?checkDbIndexRange@ccCheck@@QAE_NII@Z 0040ba50 f   ccCheck.obj
 0001:0000aae0       ?checkDatabase@ccCheck@@QAE_NII@Z 0040bae0 f   ccCheck.obj
 0001:0000abd0       ?checkDatabase@ccCheck@@QAE_NI@Z 0040bbd0 f   ccCheck.obj
 0001:0000acd0       ?checkV1Database@ccCheck@@QAE_NI@Z 0040bcd0 f   ccCheck.obj
 0001:0000ad90       ?checkString@ccCheck@@QAE_NABV?$basic_string@DU?$char_traits@D@std@@V?$allocator@D@2@@std@@@Z 0040bd90 f   ccCheck.obj
 0001:0000ae30       ?checkString@ccCheck@@QAE_NABV?$basic_string@DU?$char_traits@D@std@@V?$allocator@D@2@@std@@I@Z 0040be30 f   ccCheck.obj
 0001:0000aed0       ?checkWorkstation@ccCheck@@QAE_NI@Z 0040bed0 f   ccCheck.obj
 0001:0000afd0       ?log@ccCheck@@QAEXABV?$basic_string@DU?$char_traits@D@std@@V?$allocator@D@2@@std@@@Z 0040bfd0 f   ccCheck.obj
 0001:0000b0b0       ?setMaxIndex@ccCheck@@QAEXI@Z 0040c0b0 f   ccCheck.obj
 0001:0000b0d0       ?setMaxSource@ccCheck@@QAEXH@Z 0040c0d0 f   ccCheck.obj
 0001:0000b0f0       ?setMaxDatabase@ccCheck@@QAEXI@Z 0040c0f0 f   ccCheck.obj
 0001:0000b110       ?setMaxDevice@ccCheck@@QAEXI@Z 0040c110 f   ccCheck.obj
 0001:0000b130       ?setMaxString@ccCheck@@QAEXI@Z 0040c130 f   ccCheck.obj
 0001:0000b430       ??$?8DD@std@@YA_NABV?$allocator@D@0@0@Z 0040c430 f i ccCheck.obj
 0001:0000b440       ??$?8V?$allocator@D@std@@V01@@std@@YA_NABU?$_Wrap_alloc@V?$allocator@D@std@@@0@0@Z 0040c440 f i ccCheck.obj
 0001:0000b480       ??$?9V?$allocator@D@std@@V01@@std@@YA_NABU?$_Wrap_alloc@V?$allocator@D@std@@@0@0@Z 0040c480 f i ccCheck.obj
 0001:0000b4c0       ??$?HDU?$char_traits@D@std@@V?$allocator@D@1@@std@@YA?AV?$basic_string@DU?$char_traits@D@std@@V?$allocator@D@2@@0@$$QAV10@ABV10@@Z 0040c4c0 f i ccCheck.obj
 0001:0000b510       ??$?HDU?$char_traits@D@std@@V?$allocator@D@1@@std@@YA?AV?$basic_string@DU?$char_traits@D@std@@V?$allocator@D@2@@0@$$QAV10@PBD@Z 0040c510 f i ccCheck.obj
 0001:0000b560       ??$?HDU?$char_traits@D@std@@V?$allocator@D@1@@std@@YA?AV?$basic_string@DU?$char_traits@D@std@@V?$allocator@D@2@@0@ABV10@PBD@Z 0040c560 f i ccCheck.obj
 0001:0000b650       ??$?HDU?$char_traits@D@std@@V?$allocator@D@1@@std@@YA?AV?$basic_string@DU?$char_traits@D@std@@V?$allocator@D@2@@0@PBDABV10@@Z 0040c650 f i ccCheck.obj
 0001:0000b740       ??$_Allocate@D@std@@YAPADIPAD@Z 0040c740 f i ccCheck.obj
 0001:0000b790       ??$_Allocate@U_Container_proxy@std@@@std@@YAPAU_Container_proxy@0@IPAU10@@Z 0040c790 f i ccCheck.obj
 0001:0000b7f0       ??$_Debug_pointer@D@std@@YAXPBDPB_WI@Z 0040c7f0 f i ccCheck.obj
 0001:0000b820       ??$addressof@D@std@@YAPADAAD@Z 0040c820 f i ccCheck.obj
 0001:0000b830       ??$construct@PADAAPAD@?$_Wrap_alloc@V?$allocator@D@std@@@std@@QAEXPAPADAAPAD@Z 0040c830 f i ccCheck.obj
 0001:0000b870       ??$construct@PADAAPAD@?$allocator@D@std@@QAEXPAPADAAPAD@Z 0040c870 f i ccCheck.obj
 0001:0000b920       ??$construct@PADAAPAD@?$allocator_traits@V?$allocator@D@std@@@std@@SAXAAV?$allocator@D@1@PAPADAAPAD@Z 0040c920 f i ccCheck.obj
 0001:0000b950       ??$construct@U_Container_proxy@std@@U12@@?$allocator@U_Container_proxy@std@@@std@@QAEXPAU_Container_proxy@1@$$QAU21@@Z 0040c950 f i ccCheck.obj
 0001:0000ba00       ??$destroy@PAD@?$_Wrap_alloc@V?$allocator@D@std@@@std@@QAEXPAPAD@Z 0040ca00 f i ccCheck.obj
 0001:0000ba30       ??$destroy@PAD@?$allocator@D@std@@QAEXPAPAD@Z 0040ca30 f i ccCheck.obj
 0001:0000ba40       ??$destroy@PAD@?$allocator_traits@V?$allocator@D@std@@@std@@SAXAAV?$allocator@D@1@PAPAD@Z 0040ca40 f i ccCheck.obj
 0001:0000ba60       ??$destroy@U_Container_proxy@std@@@?$allocator@U_Container_proxy@std@@@std@@QAEXPAU_Container_proxy@1@@Z 0040ca60 f i ccCheck.obj
 0001:0000ba70       ??$forward@AAPAD@std@@YAAAPADAAPAD@Z 0040ca70 f i ccCheck.obj
 0001:0000ba80       ??$forward@U_Container_proxy@std@@@std@@YA$$QAU_Container_proxy@0@AAU10@@Z 0040ca80 f i ccCheck.obj
 0001:0000ba90       ??$forward@V?$basic_string@DU?$char_traits@D@std@@V?$allocator@D@2@@std@@@std@@YA$$QAV?$basic_string@DU?$char_traits@D@std@@V?$allocator@D@2@@0@AAV10@@Z 0040ca90 f i ccCheck.obj
 0001:0000baa0       ??$move@AAV?$basic_string@DU?$char_traits@D@std@@V?$allocator@D@2@@std@@@std@@YA$$QAV?$basic_string@DU?$char_traits@D@std@@V?$allocator@D@2@@0@AAV10@@Z 0040caa0 f i ccCheck.obj
 0001:0000bab0       ??0?$_String_alloc@$0A@U?$_String_base_types@DV?$allocator@D@std@@@std@@@std@@QAE@ABV?$allocator@D@1@@Z 0040cab0 f i ccCheck.obj
 0001:0000bb20       ??0?$_String_val@U?$_Simple_types@D@std@@@std@@QAE@XZ 0040cb20 f i ccCheck.obj
 0001:0000bb60       ??0?$_Wrap_alloc@V?$allocator@D@std@@@std@@QAE@ABV?$allocator@D@1@@Z 0040cb60 f i ccCheck.obj
 0001:0000bb90       ??0?$_Wrap_alloc@V?$allocator@D@std@@@std@@QAE@XZ 0040cb90 f i ccCheck.obj
 0001:0000bbb0       ??0?$allocator@D@std@@QAE@ABV01@@Z 0040cbb0 f i ccCheck.obj
 0001:0000bbd0       ??0?$allocator@D@std@@QAE@XZ 0040cbd0 f i ccCheck.obj
 0001:0000bbf0       ??0?$allocator@U_Container_proxy@std@@@std@@QAE@XZ 0040cbf0 f i ccCheck.obj
 0001:0000bc10       ??0?$basic_string@DU?$char_traits@D@std@@V?$allocator@D@2@@std@@QAE@$$QAV01@@Z 0040cc10 f i ccCheck.obj
 0001:0000bc70       ??0?$basic_string@DU?$char_traits@D@std@@V?$allocator@D@2@@std@@QAE@ABV01@@Z 0040cc70 f i ccCheck.obj
 0001:0000bd20       ??0?$basic_string@DU?$char_traits@D@std@@V?$allocator@D@2@@std@@QAE@PBD@Z 0040cd20 f i ccCheck.obj
 0001:0000bdb0       ??0?$basic_string@DU?$char_traits@D@std@@V?$allocator@D@2@@std@@QAE@XZ 0040cdb0 f i ccCheck.obj
 0001:0000be30       ??0_Container_proxy@std@@QAE@XZ 0040ce30 f i ccCheck.obj
 0001:0000be60       ??0_Generic_error_category@std@@QAE@XZ 0040ce60 f i ccCheck.obj
 0001:0000be90       ??0_Iostream_error_category@std@@QAE@XZ 0040ce90 f i ccCheck.obj
 0001:0000bec0       ??0_System_error_category@std@@QAE@XZ 0040cec0 f i ccCheck.obj
 0001:0000bef0       ??0error_category@std@@QAE@XZ 0040cef0 f i ccCheck.obj
 0001:0000bf10       ??0error_condition@std@@QAE@HABVerror_category@1@@Z 0040cf10 f i ccCheck.obj
 0001:0000bf40       ??1?$_String_alloc@$0A@U?$_String_base_types@DV?$allocator@D@std@@@std@@@std@@QAE@XZ 0040cf40 f i ccCheck.obj
 0001:0000bf70       ??1?$_String_val@U?$_Simple_types@D@std@@@std@@QAE@XZ 0040cf70 f i ccCheck.obj
 0001:0000bf90       ??1?$basic_string@DU?$char_traits@D@std@@V?$allocator@D@2@@std@@QAE@XZ 0040cf90 f i ccCheck.obj
 0001:0000bfc0       ??1_Generic_error_category@std@@UAE@XZ 0040cfc0 f i ccCheck.obj
 0001:0000bfe0       ??1_Iostream_error_category@std@@UAE@XZ 0040cfe0 f i ccCheck.obj
 0001:0000c000       ??1_System_error_category@std@@UAE@XZ 0040d000 f i ccCheck.obj
 0001:0000c020       ??1error_category@std@@UAE@XZ 0040d020 f i ccCheck.obj
 0001:0000c040       ??2@YAPAXIPAX@Z            0040d040 f i ccCheck.obj
 0001:0000c050       ??3@YAXPAX0@Z              0040d050 f i ccCheck.obj
 0001:0000c060       ??4?$basic_string@DU?$char_traits@D@std@@V?$allocator@D@2@@std@@QAEAAV01@ABV01@@Z 0040d060 f i ccCheck.obj
 0001:0000c100       ??8error_category@std@@QBE_NABV01@@Z 0040d100 f i ccCheck.obj
 0001:0000c140       ??8error_condition@std@@QBE_NABV01@@Z 0040d140 f i ccCheck.obj
 0001:0000c1b0       ??Y?$basic_string@DU?$char_traits@D@std@@V?$allocator@D@2@@std@@QAEAAV01@ABV01@@Z 0040d1b0 f i ccCheck.obj
 0001:0000c1d0       ??Y?$basic_string@DU?$char_traits@D@std@@V?$allocator@D@2@@std@@QAEAAV01@PBD@Z 0040d1d0 f i ccCheck.obj
 0001:0000c1f0       ??_E_Generic_error_category@std@@UAEPAXI@Z 0040d1f0 f i ccCheck.obj
 0001:0000c1f0       ??_G_Generic_error_category@std@@UAEPAXI@Z 0040d1f0 f i ccCheck.obj
 0001:0000c230       ??_E_Iostream_error_category@std@@UAEPAXI@Z 0040d230 f i ccCheck.obj
 0001:0000c230       ??_G_Iostream_error_category@std@@UAEPAXI@Z 0040d230 f i ccCheck.obj
 0001:0000c270       ??_G_System_error_category@std@@UAEPAXI@Z 0040d270 f i ccCheck.obj
 0001:0000c270       ??_E_System_error_category@std@@UAEPAXI@Z 0040d270 f i ccCheck.obj
 0001:0000c2b0       ??_EccCheck@@UAEPAXI@Z     0040d2b0 f i ccCheck.obj
 0001:0000c2b0       ??_GccCheck@@UAEPAXI@Z     0040d2b0 f i ccCheck.obj
 0001:0000c2f0       ??_Gerror_category@std@@UAEPAXI@Z 0040d2f0 f i ccCheck.obj
 0001:0000c2f0       ??_Eerror_category@std@@UAEPAXI@Z 0040d2f0 f i ccCheck.obj
 0001:0000c330       ?_Alloc_proxy@?$_String_alloc@$0A@U?$_String_base_types@DV?$allocator@D@std@@@std@@@std@@QAEXXZ 0040d330 f i ccCheck.obj
 0001:0000c390       ?_Assign_rv@?$basic_string@DU?$char_traits@D@std@@V?$allocator@D@2@@std@@QAEX$$QAV12@@Z 0040d390 f i ccCheck.obj
 0001:0000c440       ?_Change_alloc@?$_String_alloc@$0A@U?$_String_base_types@DV?$allocator@D@std@@@std@@@std@@QAEXABU?$_Wrap_alloc@V?$allocator@D@std@@@2@@Z 0040d440 f i ccCheck.obj
 0001:0000c450       ?_Copy@?$basic_string@DU?$char_traits@D@std@@V?$allocator@D@2@@std@@QAEXII@Z 0040d450 f i ccCheck.obj
 0001:0000c680       ?_Eos@?$basic_string@DU?$char_traits@D@std@@V?$allocator@D@2@@std@@QAEXI@Z 0040d680 f i ccCheck.obj
 0001:0000c6d0       ?_Free_proxy@?$_String_alloc@$0A@U?$_String_base_types@DV?$allocator@D@std@@@std@@@std@@QAEXXZ 0040d6d0 f i ccCheck.obj
 0001:0000c730       ?_Getal@?$_String_alloc@$0A@U?$_String_base_types@DV?$allocator@D@std@@@std@@@std@@QBE?AU?$_Wrap_alloc@V?$allocator@D@std@@@2@XZ 0040d730 f i ccCheck.obj
 0001:0000c750       ?_Grow@?$basic_string@DU?$char_traits@D@std@@V?$allocator@D@2@@std@@QAE_NI_N@Z 0040d750 f i ccCheck.obj
 0001:0000c820       ?_Inside@?$basic_string@DU?$char_traits@D@std@@V?$allocator@D@2@@std@@QAE_NPBD@Z 0040d820 f i ccCheck.obj
 0001:0000c870       ?_Myptr@?$_String_val@U?$_Simple_types@D@std@@@std@@QAEPADXZ 0040d870 f i ccCheck.obj
 0001:0000c8c0       ?_Myptr@?$_String_val@U?$_Simple_types@D@std@@@std@@QBEPBDXZ 0040d8c0 f i ccCheck.obj
 0001:0000c910       ?_Tidy@?$basic_string@DU?$char_traits@D@std@@V?$allocator@D@2@@std@@QAEX_NI@Z 0040d910 f i ccCheck.obj
 0001:0000c9e0       ?_Xlen@?$basic_string@DU?$char_traits@D@std@@V?$allocator@D@2@@std@@QBEXXZ 0040d9e0 f i ccCheck.obj
 0001:0000ca00       ?_Xran@?$basic_string@DU?$char_traits@D@std@@V?$allocator@D@2@@std@@QBEXXZ 0040da00 f i ccCheck.obj
 0001:0000ca20       ?allocate@?$_Wrap_alloc@V?$allocator@D@std@@@std@@QAEPADI@Z 0040da20 f i ccCheck.obj
 0001:0000ca40       ?allocate@?$allocator@D@std@@QAEPADI@Z 0040da40 f i ccCheck.obj
 0001:0000ca70       ?allocate@?$allocator@U_Container_proxy@std@@@std@@QAEPAU_Container_proxy@2@I@Z 0040da70 f i ccCheck.obj
 0001:0000caa0       ?append@?$basic_string@DU?$char_traits@D@std@@V?$allocator@D@2@@std@@QAEAAV12@ABV12@@Z 0040daa0 f i ccCheck.obj
 0001:0000cad0       ?append@?$basic_string@DU?$char_traits@D@std@@V?$allocator@D@2@@std@@QAEAAV12@ABV12@II@Z 0040dad0 f i ccCheck.obj
 0001:0000cbc0       ?append@?$basic_string@DU?$char_traits@D@std@@V?$allocator@D@2@@std@@QAEAAV12@PBD@Z 0040dbc0 f i ccCheck.obj
 0001:0000cc10       ?append@?$basic_string@DU?$char_traits@D@std@@V?$allocator@D@2@@std@@QAEAAV12@PBDI@Z 0040dc10 f i ccCheck.obj
 0001:0000cd10       ?assign@?$basic_string@DU?$char_traits@D@std@@V?$allocator@D@2@@std@@QAEAAV12@ABV12@@Z 0040dd10 f i ccCheck.obj
 0001:0000cd40       ?assign@?$basic_string@DU?$char_traits@D@std@@V?$allocator@D@2@@std@@QAEAAV12@ABV12@II@Z 0040dd40 f i ccCheck.obj
 0001:0000ce20       ?assign@?$basic_string@DU?$char_traits@D@std@@V?$allocator@D@2@@std@@QAEAAV12@PBD@Z 0040de20 f i ccCheck.obj
 0001:0000ce70       ?assign@?$basic_string@DU?$char_traits@D@std@@V?$allocator@D@2@@std@@QAEAAV12@PBDI@Z 0040de70 f i ccCheck.obj
 0001:0000cf30       ?assign@?$char_traits@D@std@@SAXAADABD@Z 0040df30 f i ccCheck.obj
 0001:0000cf50       ?c_str@?$basic_string@DU?$char_traits@D@std@@V?$allocator@D@2@@std@@QBEPBDXZ 0040df50 f i ccCheck.obj
 0001:0000cf70       ?category@error_code@std@@QBEABVerror_category@2@XZ 0040df70 f i ccCheck.obj
 0001:0000cf90       ?category@error_condition@std@@QBEABVerror_category@2@XZ 0040df90 f i ccCheck.obj
 0001:0000cfb0       ?copy@?$char_traits@D@std@@SAPADPADPBDI@Z 0040dfb0 f i ccCheck.obj
 0001:0000cff0       ?deallocate@?$_Wrap_alloc@V?$allocator@D@std@@@std@@QAEXPADI@Z 0040dff0 f i ccCheck.obj
 0001:0000d020       ?deallocate@?$allocator@D@std@@QAEXPADI@Z 0040e020 f i ccCheck.obj
 0001:0000d040       ?deallocate@?$allocator@U_Container_proxy@std@@@std@@QAEXPAU_Container_proxy@2@I@Z 0040e040 f i ccCheck.obj
 0001:0000d060       ?default_error_condition@_System_error_category@std@@UBE?AVerror_condition@2@H@Z 0040e060 f i ccCheck.obj
 0001:0000d0c0       ?default_error_condition@error_category@std@@UBE?AVerror_condition@2@H@Z 0040e0c0 f i ccCheck.obj
 0001:0000d0f0       ?equivalent@error_category@std@@UBE_NABVerror_code@2@H@Z 0040e0f0 f i ccCheck.obj
 0001:0000d150       ?equivalent@error_category@std@@UBE_NHABVerror_condition@2@@Z 0040e150 f i ccCheck.obj
 0001:0000d190       ?erase@?$basic_string@DU?$char_traits@D@std@@V?$allocator@D@2@@std@@QAEAAV12@I@Z 0040e190 f i ccCheck.obj
 0001:0000d1d0       ?erase@?$basic_string@DU?$char_traits@D@std@@V?$allocator@D@2@@std@@QAEAAV12@II@Z 0040e1d0 f i ccCheck.obj
 0001:0000d280       ?generic_category@std@@YAABVerror_category@1@XZ 0040e280 f i ccCheck.obj
 0001:0000d290       ?length@?$basic_string@DU?$char_traits@D@std@@V?$allocator@D@2@@std@@QBEIXZ 0040e290 f i ccCheck.obj
 0001:0000d2b0       ?length@?$char_traits@D@std@@SAIPBD@Z 0040e2b0 f i ccCheck.obj
 0001:0000d2f0       ?max_size@?$_Wrap_alloc@V?$allocator@D@std@@@std@@QBEIXZ 0040e2f0 f i ccCheck.obj
 0001:0000d310       ?max_size@?$allocator@D@std@@QBEIXZ 0040e310 f i ccCheck.obj
 0001:0000d330       ?max_size@?$allocator_traits@V?$allocator@D@std@@@std@@SAIABV?$allocator@D@2@@Z 0040e330 f i ccCheck.obj
 0001:0000d340       ?max_size@?$basic_string@DU?$char_traits@D@std@@V?$allocator@D@2@@std@@QBEIXZ 0040e340 f i ccCheck.obj
 0001:0000d390       ?message@_Generic_error_category@std@@UBE?AV?$basic_string@DU?$char_traits@D@std@@V?$allocator@D@2@@2@H@Z 0040e390 f i ccCheck.obj
 0001:0000d400       ?message@_Iostream_error_category@std@@UBE?AV?$basic_string@DU?$char_traits@D@std@@V?$allocator@D@2@@2@H@Z 0040e400 f i ccCheck.obj
 0001:0000d470       ?message@_System_error_category@std@@UBE?AV?$basic_string@DU?$char_traits@D@std@@V?$allocator@D@2@@2@H@Z 0040e470 f i ccCheck.obj
 0001:0000d4e0       ?move@?$char_traits@D@std@@SAPADPADPBDI@Z 0040e4e0 f i ccCheck.obj
 0001:0000d520       ?name@_Generic_error_category@std@@UBEPBDXZ 0040e520 f i ccCheck.obj
 0001:0000d540       ?name@_Iostream_error_category@std@@UBEPBDXZ 0040e540 f i ccCheck.obj
 0001:0000d560       ?name@_System_error_category@std@@UBEPBDXZ 0040e560 f i ccCheck.obj
 0001:0000d580       ?reserve@?$basic_string@DU?$char_traits@D@std@@V?$allocator@D@2@@std@@QAEXI@Z 0040e580 f i ccCheck.obj
 0001:0000d5f0       ?select_on_container_copy_construction@?$_Wrap_alloc@V?$allocator@D@std@@@std@@QBE?AU12@XZ 0040e5f0 f i ccCheck.obj
 0001:0000d630       ?select_on_container_copy_construction@?$allocator@D@std@@QBE?AV12@XZ 0040e630 f i ccCheck.obj
 0001:0000d660       ?select_on_container_copy_construction@?$allocator_traits@V?$allocator@D@std@@@std@@SA?AV?$allocator@D@2@ABV32@@Z 0040e660 f i ccCheck.obj
 0001:0000d680       ?size@?$basic_string@DU?$char_traits@D@std@@V?$allocator@D@2@@std@@QBEIXZ 0040e680 f i ccCheck.obj
 0001:0000d6a0       ?system_category@std@@YAABVerror_category@1@XZ 0040e6a0 f i ccCheck.obj
 0001:0000d6b0       ?value@error_code@std@@QBEHXZ 0040e6b0 f i ccCheck.obj
 0001:0000d6d0       ?value@error_condition@std@@QBEHXZ 0040e6d0 f i ccCheck.obj
 0001:0000d6f0       _hypot                     0040e6f0 f i ccCheck.obj
 0001:0000d730       ??0ccClient@@QAE@PAVIccClientCallback@@ABV?$basic_string@DU?$char_traits@D@std@@V?$allocator@D@2@@std@@@Z 0040e730 f   ccClient.obj
 0001:0000d930       ??1ccClient@@UAE@XZ        0040e930 f   ccClient.obj
 0001:0000da10       ?version@ccClient@@QAEJXZ  0040ea10 f   ccClient.obj
 0001:0000da20       ?routerCrosspoint@ccClient@@QAEXHHHABV?$basic_string@DU?$char_traits@D@std@@V?$allocator@D@2@@std@@_NH@Z 0040ea20 f   ccClient.obj
 0001:0000db70       ?routerPoll@ccClient@@QAEXHHH_N@Z 0040eb70 f   ccClient.obj
 0001:0000dba0       ?routerQuery@ccClient@@QAEXHHH_N@Z 0040eba0 f   ccClient.obj
 0001:0000dbd0       ?routerLock@ccClient@@QAEXHHH_N0H@Z 0040ebd0 f   ccClient.obj
 0001:0000dc10       ?routerFile@ccClient@@QAEXH@Z 0040ec10 f   ccClient.obj
 0001:0000dc40       ?infoWrite@ccClient@@QAEXHHABV?$basic_string@DU?$char_traits@D@std@@V?$allocator@D@2@@std@@_NH@Z 0040ec40 f   ccClient.obj
 0001:0000dd90       ?infoPoll@ccClient@@QAEXHHH_N@Z 0040ed90 f   ccClient.obj
 0001:0000ddc0       ?infoQuery@ccClient@@QAEXHHH_N@Z 0040edc0 f   ccClient.obj
 0001:0000ddf0       ?infoLock@ccClient@@QAEXHHH_N0H@Z 0040edf0 f   ccClient.obj
 0001:0000de30       ?gpiSwitch@ccClient@@QAEXHH_N0H@Z 0040ee30 f   ccClient.obj
 0001:0000dfa0       ?gpiFile@ccClient@@QAEXH@Z 0040efa0 f   ccClient.obj
 0001:0000dfd0       ?gpiLock@ccClient@@QAEXHHH_N0H@Z 0040efd0 f   ccClient.obj
 0001:0000e010       ?gpiPoll@ccClient@@QAEXHHH_N@Z 0040f010 f   ccClient.obj
 0001:0000e040       ?gpiQuery@ccClient@@QAEXHHH_N@Z 0040f040 f   ccClient.obj
 0001:0000e070       ?deviceMessage@ccClient@@QAEXHHABV?$basic_string@DU?$char_traits@D@std@@V?$allocator@D@2@@std@@H@Z 0040f070 f   ccClient.obj
 0001:0000e170       ?deviceProfile@ccClient@@QAEXHAAH00AAV?$basic_string@DU?$char_traits@D@std@@V?$allocator@D@2@@std@@@Z 0040f170 f   ccClient.obj
 0001:0000e320       ?databaseName@ccClient@@QAE_NHHHAAV?$basic_string@DU?$char_traits@D@std@@V?$allocator@D@2@@std@@@Z 0040f320 f   ccClient.obj
 0001:0000e420       ?databaseIndex@ccClient@@QAEHHHABV?$basic_string@DU?$char_traits@D@std@@V?$allocator@D@2@@std@@@Z 0040f420 f   ccClient.obj
 0001:0000e5b0       ?databaseModify@ccClient@@QAE_NHHHABV?$basic_string@DU?$char_traits@D@std@@V?$allocator@D@2@@std@@_N1H@Z 0040f5b0 f   ccClient.obj
 0001:0000e770       ?revertiveRegister@ccClient@@QAEXHHH_NH@Z 0040f770 f   ccClient.obj
 0001:0000e800       ?revertiveDeregister@ccClient@@QAEXHHH@Z 0040f800 f   ccClient.obj
 0001:0000e8a0       ?revertiveDeregisterAll@ccClient@@QAEXXZ 0040f8a0 f   ccClient.obj
 0001:0000e8d0       ?cacheValue@ccClient@@QAE_NHHAAV?$basic_string@DU?$char_traits@D@std@@V?$allocator@D@2@@std@@PAH@Z 0040f8d0 f   ccClient.obj
 0001:0000e9e0       ?cacheIndex@ccClient@@QAEHHHHABV?$basic_string@DU?$char_traits@D@std@@V?$allocator@D@2@@std@@@Z 0040f9e0 f   ccClient.obj
 0001:0000eae0       ?cacheEnable@ccClient@@QAEX_N@Z 0040fae0 f   ccClient.obj
 0001:0000eb10       ?cacheTest@ccClient@@QAE_NHHH@Z 0040fb10 f   ccClient.obj
 0001:0000ebb0       ?cacheFlush@ccClient@@QAEXH@Z 0040fbb0 f   ccClient.obj
 0001:0000ebf0       ?isCacheEnabled@ccClient@@QAE_NXZ 0040fbf0 f   ccClient.obj
 0001:0000ec30       ?connect@ccClient@@QAE_NW4ipcType@cc@@J@Z 0040fc30 f   ccClient.obj
 0001:0000efc0       ?isConnected@ccClient@@QAE_NXZ 0040ffc0 f   ccClient.obj
 0001:0000eff0       ?disconnect@ccClient@@QAE_NXZ 0040fff0 f   ccClient.obj
 0001:0000f080       ?writeEnable@ccClient@@QAEX_N@Z 00410080 f   ccClient.obj
 0001:0000f0a0       ?isWriteEnabled@ccClient@@QAE_NXZ 004100a0 f   ccClient.obj
 0001:0000f0c0       ?setCloseHostOnExit@ccClient@@QAEX_N@Z 004100c0 f   ccClient.obj
 0001:0000f0e0       ?counters@ccClient@@QAE_NAAI0@Z 004100e0 f   ccClient.obj
 0001:0000f150       ?resetCounters@ccClient@@QAEXXZ 00410150 f   ccClient.obj
 0001:0000f190       ?setCallback@ccClient@@QAEXPAVIccClientCallback@@@Z 00410190 f   ccClient.obj
 0001:0000f1b0       ?getClientRegistrationExtent@ccClient@@QAE_NHAAH0@Z 004101b0 f   ccClient.obj
 0001:0000f220       ?sendBufferedCommands@ccClient@@QAEXXZ 00410220 f   ccClient.obj
 0001:0000f250       ?registerForNetMessage@ccClient@@QAEXXZ 00410250 f   ccClient.obj
 0001:0000f280       ?deregisterForNetMessage@ccClient@@QAEXXZ 00410280 f   ccClient.obj
 0001:0000f2b0       ?registerForConfigChangeMessage@ccClient@@QAEXXZ 004102b0 f   ccClient.obj
 0001:0000f2e0       ?deregisterForConfigChangeMessage@ccClient@@QAEXXZ 004102e0 f   ccClient.obj
 0001:0000f310       ?sendConfigChangeMessage@ccClient@@QAEXABV?$basic_string@DU?$char_traits@D@std@@V?$allocator@D@2@@std@@@Z 00410310 f   ccClient.obj
 0001:0000f350       ?flushDatabaseCache@ccClient@@QAEXH@Z 00410350 f   ccClient.obj
 0001:0000f380       ?maxDevices@ccClient@@QAEIXZ 00410380 f   ccClient.obj
 0001:0000f3c0       ?maxIndexes@ccClient@@QAEIXZ 004103c0 f   ccClient.obj
 0001:0000f400       ?maxSources@ccClient@@QAEIXZ 00410400 f   ccClient.obj
 0001:0000f440       ?maxDatabases@ccClient@@QAEIXZ 00410440 f   ccClient.obj
 0001:0000f480       ?maxString@ccClient@@QAEIXZ 00410480 f   ccClient.obj
 0001:0000f4c0       ?workstation@ccClient@@QAEHXZ 004104c0 f   ccClient.obj
 0001:0000f4e0       ?WndProc@ccClient@@CGJPAUHWND__@@IIJ@Z 004104e0 f   ccClient.obj
 0001:00010500       ?BNCSSendMessage@ccClient@@AAEJIIJHHH@Z 00411500 f   ccClient.obj
 0001:00010590       ?deviceQuery@ccClient@@AAEXDHHH_N@Z 00411590 f   ccClient.obj
 0001:00010750       ?devicePoll@ccClient@@AAEXDHHH_N@Z 00411750 f   ccClient.obj
 0001:00010910       ?deviceLock@ccClient@@AAEXDHHH_N0H@Z 00411910 f   ccClient.obj
 0001:00010b20       ?deviceFile@ccClient@@AAEXDH@Z 00411b20 f   ccClient.obj
 0001:000119c0       ??$?0U?$_Wrap_alloc@V?$allocator@V?$basic_string@DU?$char_traits@D@std@@V?$allocator@D@2@@std@@@std@@@std@@@?$_Wrap_alloc@V?$allocator@PAV?$basic_string@DU?$char_traits@D@std@@V?$allocator@D@2@@std@@@std@@@std@@QAE@ABU?$_Wrap_alloc@V?$allocator@V?$basic_string@DU?$char_traits@D@std@@V?$allocator@D@2@@std@@@std@@@1@@Z 004129c0 f i ccClient.obj
 0001:000119f0       ??$?0V?$basic_string@DU?$char_traits@D@std@@V?$allocator@D@2@@std@@@?$allocator@PAV?$basic_string@DU?$char_traits@D@std@@V?$allocator@D@2@@std@@@std@@QAE@ABV?$allocator@V?$basic_string@DU?$char_traits@D@std@@V?$allocator@D@2@@std@@@1@@Z 004129f0 f i ccClient.obj
 0001:00011a10       ??$_Allocate@PAV?$basic_string@DU?$char_traits@D@std@@V?$allocator@D@2@@std@@@std@@YAPAPAV?$basic_string@DU?$char_traits@D@std@@V?$allocator@D@2@@0@IPAPAV10@@Z 00412a10 f i ccClient.obj
 0001:00011a70       ??$_Allocate@V?$basic_string@DU?$char_traits@D@std@@V?$allocator@D@2@@std@@@std@@YAPAV?$basic_string@DU?$char_traits@D@std@@V?$allocator@D@2@@0@IPAV10@@Z 00412a70 f i ccClient.obj
 0001:00011ac0       ??$_Debug_pointer@PAV?$basic_string@DU?$char_traits@D@std@@V?$allocator@D@2@@std@@@std@@YAXPAPAV?$basic_string@DU?$char_traits@D@std@@V?$allocator@D@2@@0@PB_WI@Z 00412ac0 f i ccClient.obj
 0001:00011af0       ??$_Debug_range2@PAPAV?$basic_string@DU?$char_traits@D@std@@V?$allocator@D@2@@std@@@std@@YAXPAPAV?$basic_string@DU?$char_traits@D@std@@V?$allocator@D@2@@0@0PB_WIUrandom_access_iterator_tag@0@@Z 00412af0 f i ccClient.obj
 0001:00011b60       ??$_Debug_range@PAPAV?$basic_string@DU?$char_traits@D@std@@V?$allocator@D@2@@std@@@std@@YAXPAPAV?$basic_string@DU?$char_traits@D@std@@V?$allocator@D@2@@0@0PB_WI@Z 00412b60 f i ccClient.obj
 0001:00011bb0       ??$_Destroy_range@U?$_Wrap_alloc@V?$allocator@PAV?$basic_string@DU?$char_traits@D@std@@V?$allocator@D@2@@std@@@std@@@std@@@std@@YAXPAPAV?$basic_string@DU?$char_traits@D@std@@V?$allocator@D@2@@0@0AAU?$_Wrap_alloc@V?$allocator@PAV?$basic_string@DU?$char_traits@D@std@@V?$allocator@D@2@@std@@@std@@@0@@Z 00412bb0 f i ccClient.obj
 0001:00011c00       ??$_Destroy_range@U?$_Wrap_alloc@V?$allocator@PAV?$basic_string@DU?$char_traits@D@std@@V?$allocator@D@2@@std@@@std@@@std@@@std@@YAXPAPAV?$basic_string@DU?$char_traits@D@std@@V?$allocator@D@2@@0@0AAU?$_Wrap_alloc@V?$allocator@PAV?$basic_string@DU?$char_traits@D@std@@V?$allocator@D@2@@std@@@std@@@0@U_Scalar_ptr_iterator_tag@0@@Z 00412c00 f i ccClient.obj
 0001:00011c10       ??$_Fill_n@PAPAV?$basic_string@DU?$char_traits@D@std@@V?$allocator@D@2@@std@@IPAV12@@std@@YAPAPAV?$basic_string@DU?$char_traits@D@std@@V?$allocator@D@2@@0@PAPAV10@IABQAV10@@Z 00412c10 f i ccClient.obj
 0001:00011c50       ??$_Iter_cat@PAPAV?$basic_string@DU?$char_traits@D@std@@V?$allocator@D@2@@std@@@std@@YA?AUrandom_access_iterator_tag@0@ABQAPAV?$basic_string@DU?$char_traits@D@std@@V?$allocator@D@2@@0@@Z 00412c50 f i ccClient.obj
 0001:00011c70       ??$_Ptr_cat@PAV?$basic_string@DU?$char_traits@D@std@@V?$allocator@D@2@@std@@PAV12@@std@@YA?AU_Scalar_ptr_iterator_tag@0@PAPAV?$basic_string@DU?$char_traits@D@std@@V?$allocator@D@2@@0@0@Z 00412c70 f i ccClient.obj
 0001:00011c80       ??$_Rechecked@PAPAV?$basic_string@DU?$char_traits@D@std@@V?$allocator@D@2@@std@@PAPAV12@@std@@YAAAPAPAV?$basic_string@DU?$char_traits@D@std@@V?$allocator@D@2@@0@AAPAPAV10@PAPAV10@@Z 00412c80 f i ccClient.obj
 0001:00011ca0       ??$_Unchecked@PAPAV?$basic_string@DU?$char_traits@D@std@@V?$allocator@D@2@@std@@@std@@YAPAPAV?$basic_string@DU?$char_traits@D@std@@V?$allocator@D@2@@0@PAPAV10@@Z 00412ca0 f i ccClient.obj
 0001:00011cb0       ??$_Uninit_copy@PAPAV?$basic_string@DU?$char_traits@D@std@@V?$allocator@D@2@@std@@PAPAV12@U?$_Wrap_alloc@V?$allocator@PAV?$basic_string@DU?$char_traits@D@std@@V?$allocator@D@2@@std@@@std@@@2@@std@@YAPAPAV?$basic_string@DU?$char_traits@D@std@@V?$allocator@D@2@@0@PAPAV10@00AAU?$_Wrap_alloc@V?$allocator@PAV?$basic_string@DU?$char_traits@D@std@@V?$allocator@D@2@@std@@@std@@@0@@Z 00412cb0 f i ccClient.obj
 0001:00011d00       ??$_Uninit_copy@PAV?$basic_string@DU?$char_traits@D@std@@V?$allocator@D@2@@std@@PAV12@@std@@YAPAPAV?$basic_string@DU?$char_traits@D@std@@V?$allocator@D@2@@0@PAPAV10@00AAU?$_Wrap_alloc@V?$allocator@PAV?$basic_string@DU?$char_traits@D@std@@V?$allocator@D@2@@std@@@std@@@0@U_Scalar_ptr_iterator_tag@0@@Z 00412d00 f i ccClient.obj
 0001:00011d80       ??$_Uninit_def_fill_n@PAV?$basic_string@DU?$char_traits@D@std@@V?$allocator@D@2@@std@@IPAV12@@std@@YAXPAPAV?$basic_string@DU?$char_traits@D@std@@V?$allocator@D@2@@0@IAAU?$_Wrap_alloc@V?$allocator@PAV?$basic_string@DU?$char_traits@D@std@@V?$allocator@D@2@@std@@@std@@@0@0U_Scalar_ptr_iterator_tag@0@@Z 00412d80 f i ccClient.obj
 0001:00011db0       ??$_Uninitialized_copy@PAPAV?$basic_string@DU?$char_traits@D@std@@V?$allocator@D@2@@std@@PAPAV12@U?$_Wrap_alloc@V?$allocator@PAV?$basic_string@DU?$char_traits@D@std@@V?$allocator@D@2@@std@@@std@@@2@@std@@YAPAPAV?$basic_string@DU?$char_traits@D@std@@V?$allocator@D@2@@0@PAPAV10@00AAU?$_Wrap_alloc@V?$allocator@PAV?$basic_string@DU?$char_traits@D@std@@V?$allocator@D@2@@std@@@std@@@0@@Z 00412db0 f i ccClient.obj
 0001:00011e10       ??$_Uninitialized_default_fill_n@PAPAV?$basic_string@DU?$char_traits@D@std@@V?$allocator@D@2@@std@@IU?$_Wrap_alloc@V?$allocator@PAV?$basic_string@DU?$char_traits@D@std@@V?$allocator@D@2@@std@@@std@@@2@@std@@YAXPAPAV?$basic_string@DU?$char_traits@D@std@@V?$allocator@D@2@@0@IAAU?$_Wrap_alloc@V?$allocator@PAV?$basic_string@DU?$char_traits@D@std@@V?$allocator@D@2@@std@@@std@@@0@@Z 00412e10 f i ccClient.obj
 0001:00011e70       ??$_Val_type@PAPAV?$basic_string@DU?$char_traits@D@std@@V?$allocator@D@2@@std@@@std@@YAPAPAV?$basic_string@DU?$char_traits@D@std@@V?$allocator@D@2@@0@PAPAV10@@Z 00412e70 f i ccClient.obj
 0001:00011e80       ??$construct@U_Container_proxy@std@@U12@@?$_Wrap_alloc@V?$allocator@U_Container_proxy@std@@@std@@@std@@QAEXPAU_Container_proxy@1@$$QAU21@@Z 00412e80 f i ccClient.obj
 0001:00011ec0       ??$construct@U_Container_proxy@std@@U12@@?$allocator_traits@V?$allocator@U_Container_proxy@std@@@std@@@std@@SAXAAV?$allocator@U_Container_proxy@std@@@1@PAU_Container_proxy@1@$$QAU31@@Z 00412ec0 f i ccClient.obj
 0001:00011ef0       ??$construct@V?$basic_string@DU?$char_traits@D@std@@V?$allocator@D@2@@std@@ABV12@@?$_Wrap_alloc@V?$allocator@V?$basic_string@DU?$char_traits@D@std@@V?$allocator@D@2@@std@@@std@@@std@@QAEXPAV?$basic_string@DU?$char_traits@D@std@@V?$allocator@D@2@@1@ABV21@@Z 00412ef0 f i ccClient.obj
 0001:00011f30       ??$construct@V?$basic_string@DU?$char_traits@D@std@@V?$allocator@D@2@@std@@ABV12@@?$allocator_traits@V?$allocator@V?$basic_string@DU?$char_traits@D@std@@V?$allocator@D@2@@std@@@std@@@std@@SAXAAV?$allocator@V?$basic_string@DU?$char_traits@D@std@@V?$allocator@D@2@@std@@@1@PAV?$basic_string@DU?$char_traits@D@std@@V?$allocator@D@2@@1@ABV31@@Z 00412f30 f i ccClient.obj
 0001:00011f60       ??$construct@V?$basic_string@DU?$char_traits@D@std@@V?$allocator@D@2@@std@@V12@@?$_Wrap_alloc@V?$allocator@V?$basic_string@DU?$char_traits@D@std@@V?$allocator@D@2@@std@@@std@@@std@@QAEXPAV?$basic_string@DU?$char_traits@D@std@@V?$allocator@D@2@@1@$$QAV21@@Z 00412f60 f i ccClient.obj
 0001:00011fa0       ??$construct@V?$basic_string@DU?$char_traits@D@std@@V?$allocator@D@2@@std@@V12@@?$allocator@V?$basic_string@DU?$char_traits@D@std@@V?$allocator@D@2@@std@@@std@@QAEXPAV?$basic_string@DU?$char_traits@D@std@@V?$allocator@D@2@@1@$$QAV21@@Z 00412fa0 f i ccClient.obj
 0001:00012050       ??$construct@V?$basic_string@DU?$char_traits@D@std@@V?$allocator@D@2@@std@@V12@@?$allocator_traits@V?$allocator@V?$basic_string@DU?$char_traits@D@std@@V?$allocator@D@2@@std@@@std@@@std@@SAXAAV?$allocator@V?$basic_string@DU?$char_traits@D@std@@V?$allocator@D@2@@std@@@1@PAV?$basic_string@DU?$char_traits@D@std@@V?$allocator@D@2@@1@$$QAV31@@Z 00413050 f i ccClient.obj
 0001:00012080       ??$destroy@PAV?$basic_string@DU?$char_traits@D@std@@V?$allocator@D@2@@std@@@?$_Wrap_alloc@V?$allocator@V?$basic_string@DU?$char_traits@D@std@@V?$allocator@D@2@@std@@@std@@@std@@QAEXPAPAV?$basic_string@DU?$char_traits@D@std@@V?$allocator@D@2@@1@@Z 00413080 f i ccClient.obj
 0001:000120b0       ??$destroy@PAV?$basic_string@DU?$char_traits@D@std@@V?$allocator@D@2@@std@@@?$allocator@V?$basic_string@DU?$char_traits@D@std@@V?$allocator@D@2@@std@@@std@@QAEXPAPAV?$basic_string@DU?$char_traits@D@std@@V?$allocator@D@2@@1@@Z 004130b0 f i ccClient.obj
 0001:000120c0       ??$destroy@PAV?$basic_string@DU?$char_traits@D@std@@V?$allocator@D@2@@std@@@?$allocator_traits@V?$allocator@V?$basic_string@DU?$char_traits@D@std@@V?$allocator@D@2@@std@@@std@@@std@@SAXAAV?$allocator@V?$basic_string@DU?$char_traits@D@std@@V?$allocator@D@2@@std@@@1@PAPAV?$basic_string@DU?$char_traits@D@std@@V?$allocator@D@2@@1@@Z 004130c0 f i ccClient.obj
 0001:000120e0       ??$destroy@U_Container_proxy@std@@@?$_Wrap_alloc@V?$allocator@U_Container_proxy@std@@@std@@@std@@QAEXPAU_Container_proxy@1@@Z 004130e0 f i ccClient.obj
 0001:00012110       ??$destroy@U_Container_proxy@std@@@?$allocator_traits@V?$allocator@U_Container_proxy@std@@@std@@@std@@SAXAAV?$allocator@U_Container_proxy@std@@@1@PAU_Container_proxy@1@@Z 00413110 f i ccClient.obj
 0001:00012130       ??$destroy@V?$basic_string@DU?$char_traits@D@std@@V?$allocator@D@2@@std@@@?$_Wrap_alloc@V?$allocator@V?$basic_string@DU?$char_traits@D@std@@V?$allocator@D@2@@std@@@std@@@std@@QAEXPAV?$basic_string@DU?$char_traits@D@std@@V?$allocator@D@2@@1@@Z 00413130 f i ccClient.obj
 0001:00012160       ??$destroy@V?$basic_string@DU?$char_traits@D@std@@V?$allocator@D@2@@std@@@?$allocator@V?$basic_string@DU?$char_traits@D@std@@V?$allocator@D@2@@std@@@std@@QAEXPAV?$basic_string@DU?$char_traits@D@std@@V?$allocator@D@2@@1@@Z 00413160 f i ccClient.obj
 0001:00012180       ??$destroy@V?$basic_string@DU?$char_traits@D@std@@V?$allocator@D@2@@std@@@?$allocator_traits@V?$allocator@V?$basic_string@DU?$char_traits@D@std@@V?$allocator@D@2@@std@@@std@@@std@@SAXAAV?$allocator@V?$basic_string@DU?$char_traits@D@std@@V?$allocator@D@2@@std@@@1@PAV?$basic_string@DU?$char_traits@D@std@@V?$allocator@D@2@@1@@Z 00413180 f i ccClient.obj
 0001:000121a0       ??$forward@ABV?$basic_string@DU?$char_traits@D@std@@V?$allocator@D@2@@std@@@std@@YAABV?$basic_string@DU?$char_traits@D@std@@V?$allocator@D@2@@0@ABV10@@Z 004131a0 f i ccClient.obj
 0001:000121b0       ??0?$_Deque_alloc@$0A@U?$_Deque_base_types@V?$basic_string@DU?$char_traits@D@std@@V?$allocator@D@2@@std@@V?$allocator@V?$basic_string@DU?$char_traits@D@std@@V?$allocator@D@2@@std@@@2@@std@@@std@@QAE@ABV?$allocator@V?$basic_string@DU?$char_traits@D@std@@V?$allocator@D@2@@std@@@1@@Z 004131b0 f i ccClient.obj
 0001:00012220       ??0?$_Deque_const_iterator@V?$_Deque_val@U?$_Deque_simple_types@V?$basic_string@DU?$char_traits@D@std@@V?$allocator@D@2@@std@@@std@@@std@@@std@@QAE@IPBU_Container_base12@1@@Z 00413220 f i ccClient.obj
 0001:000122a0       ??0?$_Deque_iterator@V?$_Deque_val@U?$_Deque_simple_types@V?$basic_string@DU?$char_traits@D@std@@V?$allocator@D@2@@std@@@std@@@std@@@std@@QAE@IPBU_Container_base12@1@@Z 004132a0 f i ccClient.obj
 0001:000122d0       ??0?$_Deque_val@U?$_Deque_simple_types@V?$basic_string@DU?$char_traits@D@std@@V?$allocator@D@2@@std@@@std@@@std@@QAE@XZ 004132d0 f i ccClient.obj
 0001:00012320       ??0?$_Wrap_alloc@V?$allocator@U_Container_proxy@std@@@std@@@std@@QAE@XZ 00413320 f i ccClient.obj
 0001:00012340       ??0?$_Wrap_alloc@V?$allocator@V?$basic_string@DU?$char_traits@D@std@@V?$allocator@D@2@@std@@@std@@@std@@QAE@XZ 00413340 f i ccClient.obj
 0001:00012360       ??0?$allocator@V?$basic_string@DU?$char_traits@D@std@@V?$allocator@D@2@@std@@@std@@QAE@XZ 00413360 f i ccClient.obj
 0001:00012380       ??0?$deque@V?$basic_string@DU?$char_traits@D@std@@V?$allocator@D@2@@std@@V?$allocator@V?$basic_string@DU?$char_traits@D@std@@V?$allocator@D@2@@std@@@2@@std@@QAE@XZ 00413380 f i ccClient.obj
 0001:000123b0       ??0?$queue@V?$basic_string@DU?$char_traits@D@std@@V?$allocator@D@2@@std@@V?$deque@V?$basic_string@DU?$char_traits@D@std@@V?$allocator@D@2@@std@@V?$allocator@V?$basic_string@DU?$char_traits@D@std@@V?$allocator@D@2@@std@@@2@@2@@std@@QAE@XZ 004133b0 f i ccClient.obj
 0001:000123d0       ??0_Ignore@std@@QAE@XZ     004133d0 f i ccClient.obj
 0001:000123f0       ??0_Iterator_base12@std@@QAE@XZ 004133f0 f i ccClient.obj
 0001:00012420       ??1?$_Deque_alloc@$0A@U?$_Deque_base_types@V?$basic_string@DU?$char_traits@D@std@@V?$allocator@D@2@@std@@V?$allocator@V?$basic_string@DU?$char_traits@D@std@@V?$allocator@D@2@@std@@@2@@std@@@std@@QAE@XZ 00413420 f i ccClient.obj
 0001:00012450       ??1?$_Deque_const_iterator@V?$_Deque_val@U?$_Deque_simple_types@V?$basic_string@DU?$char_traits@D@std@@V?$allocator@D@2@@std@@@std@@@std@@@std@@QAE@XZ 00413450 f i ccClient.obj
 0001:00012470       ??1?$_Deque_iterator@V?$_Deque_val@U?$_Deque_simple_types@V?$basic_string@DU?$char_traits@D@std@@V?$allocator@D@2@@std@@@std@@@std@@@std@@QAE@XZ 00413470 f i ccClient.obj
 0001:00012490       ??1?$_Deque_val@U?$_Deque_simple_types@V?$basic_string@DU?$char_traits@D@std@@V?$allocator@D@2@@std@@@std@@@std@@QAE@XZ 00413490 f i ccClient.obj
 0001:000124b0       ??1?$deque@V?$basic_string@DU?$char_traits@D@std@@V?$allocator@D@2@@std@@V?$allocator@V?$basic_string@DU?$char_traits@D@std@@V?$allocator@D@2@@std@@@2@@std@@QAE@XZ 004134b0 f i ccClient.obj
 0001:000124e0       ??1?$queue@V?$basic_string@DU?$char_traits@D@std@@V?$allocator@D@2@@std@@V?$deque@V?$basic_string@DU?$char_traits@D@std@@V?$allocator@D@2@@std@@V?$allocator@V?$basic_string@DU?$char_traits@D@std@@V?$allocator@D@2@@std@@@2@@2@@std@@QAE@XZ 004134e0 f i ccClient.obj
 0001:00012500       ??1_Iterator_base12@std@@QAE@XZ 00413500 f i ccClient.obj
 0001:00012540       ??4?$basic_string@DU?$char_traits@D@std@@V?$allocator@D@2@@std@@QAEAAV01@PBD@Z 00413540 f i ccClient.obj
 0001:00012560       ??D?$_Deque_const_iterator@V?$_Deque_val@U?$_Deque_simple_types@V?$basic_string@DU?$char_traits@D@std@@V?$allocator@D@2@@std@@@std@@@std@@@std@@QBEABV?$basic_string@DU?$char_traits@D@std@@V?$allocator@D@2@@1@XZ 00413560 f i ccClient.obj
 0001:00012680       ??D?$_Deque_iterator@V?$_Deque_val@U?$_Deque_simple_types@V?$basic_string@DU?$char_traits@D@std@@V?$allocator@D@2@@std@@@std@@@std@@@std@@QBEAAV?$basic_string@DU?$char_traits@D@std@@V?$allocator@D@2@@1@XZ 00413680 f i ccClient.obj
 0001:000126a0       ??_G?$basic_string@DU?$char_traits@D@std@@V?$allocator@D@2@@std@@QAEPAXI@Z 004136a0 f i ccClient.obj
 0001:000126e0       ??_EccClient@@UAEPAXI@Z    004136e0 f i ccClient.obj
 0001:000126e0       ??_GccClient@@UAEPAXI@Z    004136e0 f i ccClient.obj
 0001:00012720       ?_Adopt@_Iterator_base12@std@@QAEXPBU_Container_base12@2@@Z 00413720 f i ccClient.obj
 0001:00012820       ?_Alloc_proxy@?$_Deque_alloc@$0A@U?$_Deque_base_types@V?$basic_string@DU?$char_traits@D@std@@V?$allocator@D@2@@std@@V?$allocator@V?$basic_string@DU?$char_traits@D@std@@V?$allocator@D@2@@std@@@2@@std@@@std@@QAEXXZ 00413820 f i ccClient.obj
 0001:00012880       ?_Clrcont@_Iterator_base12@std@@QAEXXZ 00413880 f i ccClient.obj
 0001:000128a0       ?_Free_proxy@?$_Deque_alloc@$0A@U?$_Deque_base_types@V?$basic_string@DU?$char_traits@D@std@@V?$allocator@D@2@@std@@V?$allocator@V?$basic_string@DU?$char_traits@D@std@@V?$allocator@D@2@@std@@@2@@std@@@std@@QAEXXZ 004138a0 f i ccClient.obj
 0001:00012900       ?_Getal@?$_Deque_alloc@$0A@U?$_Deque_base_types@V?$basic_string@DU?$char_traits@D@std@@V?$allocator@D@2@@std@@V?$allocator@V?$basic_string@DU?$char_traits@D@std@@V?$allocator@D@2@@std@@@2@@std@@@std@@QBE?AU?$_Wrap_alloc@V?$allocator@V?$basic_string@DU?$char_traits@D@std@@V?$allocator@D@2@@std@@@std@@@2@XZ 00413900 f i ccClient.obj
 0001:00012920       ?_Getblock@?$_Deque_val@U?$_Deque_simple_types@V?$basic_string@DU?$char_traits@D@std@@V?$allocator@D@2@@std@@@std@@@std@@QBEII@Z 00413920 f i ccClient.obj
 0001:00012940       ?_Getcont@_Iterator_base12@std@@QBEPBU_Container_base12@2@XZ 00413940 f i ccClient.obj
 0001:00012980       ?_Getpnext@_Iterator_base12@std@@QAEPAPAU12@XZ 00413980 f i ccClient.obj
 0001:000129a0       ?_Growmap@?$deque@V?$basic_string@DU?$char_traits@D@std@@V?$allocator@D@2@@std@@V?$allocator@V?$basic_string@DU?$char_traits@D@std@@V?$allocator@D@2@@std@@@2@@std@@IAEXI@Z 004139a0 f i ccClient.obj
 0001:00012c30       ?_Orphan_me@_Iterator_base12@std@@QAEXXZ 00413c30 f i ccClient.obj
 0001:00012cc0       ?_Orphan_off@?$deque@V?$basic_string@DU?$char_traits@D@std@@V?$allocator@D@2@@std@@V?$allocator@V?$basic_string@DU?$char_traits@D@std@@V?$allocator@D@2@@std@@@2@@std@@IBEXI@Z 00413cc0 f i ccClient.obj
 0001:00012e00       ?_Setcont@?$_Deque_const_iterator@V?$_Deque_val@U?$_Deque_simple_types@V?$basic_string@DU?$char_traits@D@std@@V?$allocator@D@2@@std@@@std@@@std@@@std@@QAEXPBV?$_Deque_val@U?$_Deque_simple_types@V?$basic_string@DU?$char_traits@D@std@@V?$allocator@D@2@@std@@@std@@@2@@Z 00413e00 f i ccClient.obj
 0001:00012e20       ?_Tidy@?$deque@V?$basic_string@DU?$char_traits@D@std@@V?$allocator@D@2@@std@@V?$allocator@V?$basic_string@DU?$char_traits@D@std@@V?$allocator@D@2@@std@@@2@@std@@IAEXXZ 00413e20 f i ccClient.obj
 0001:00012f30       ?_Xlen@?$deque@V?$basic_string@DU?$char_traits@D@std@@V?$allocator@D@2@@std@@V?$allocator@V?$basic_string@DU?$char_traits@D@std@@V?$allocator@D@2@@std@@@2@@std@@IBEXXZ 00413f30 f i ccClient.obj
 0001:00012f50       ?allocate@?$_Wrap_alloc@V?$allocator@PAV?$basic_string@DU?$char_traits@D@std@@V?$allocator@D@2@@std@@@std@@@std@@QAEPAPAV?$basic_string@DU?$char_traits@D@std@@V?$allocator@D@2@@2@I@Z 00413f50 f i ccClient.obj
 0001:00012f70       ?allocate@?$_Wrap_alloc@V?$allocator@U_Container_proxy@std@@@std@@@std@@QAEPAU_Container_proxy@2@I@Z 00413f70 f i ccClient.obj
 0001:00012f90       ?allocate@?$_Wrap_alloc@V?$allocator@V?$basic_string@DU?$char_traits@D@std@@V?$allocator@D@2@@std@@@std@@@std@@QAEPAV?$basic_string@DU?$char_traits@D@std@@V?$allocator@D@2@@2@I@Z 00413f90 f i ccClient.obj
 0001:00012fb0       ?allocate@?$allocator@PAV?$basic_string@DU?$char_traits@D@std@@V?$allocator@D@2@@std@@@std@@QAEPAPAV?$basic_string@DU?$char_traits@D@std@@V?$allocator@D@2@@2@I@Z 00413fb0 f i ccClient.obj
 0001:00012fe0       ?allocate@?$allocator@V?$basic_string@DU?$char_traits@D@std@@V?$allocator@D@2@@std@@@std@@QAEPAV?$basic_string@DU?$char_traits@D@std@@V?$allocator@D@2@@2@I@Z 00413fe0 f i ccClient.obj
 0001:00013010       ?begin@?$deque@V?$basic_string@DU?$char_traits@D@std@@V?$allocator@D@2@@std@@V?$allocator@V?$basic_string@DU?$char_traits@D@std@@V?$allocator@D@2@@std@@@2@@std@@QAE?AV?$_Deque_iterator@V?$_Deque_val@U?$_Deque_simple_types@V?$basic_string@DU?$char_traits@D@std@@V?$allocator@D@2@@std@@@std@@@std@@@2@XZ 00414010 f i ccClient.obj
 0001:00013040       ?construct@?$allocator@V?$basic_string@DU?$char_traits@D@std@@V?$allocator@D@2@@std@@@std@@QAEXPAV?$basic_string@DU?$char_traits@D@std@@V?$allocator@D@2@@2@ABV32@@Z 00414040 f i ccClient.obj
 0001:000130e0       ?deallocate@?$_Wrap_alloc@V?$allocator@PAV?$basic_string@DU?$char_traits@D@std@@V?$allocator@D@2@@std@@@std@@@std@@QAEXPAPAV?$basic_string@DU?$char_traits@D@std@@V?$allocator@D@2@@2@I@Z 004140e0 f i ccClient.obj
 0001:00013110       ?deallocate@?$_Wrap_alloc@V?$allocator@U_Container_proxy@std@@@std@@@std@@QAEXPAU_Container_proxy@2@I@Z 00414110 f i ccClient.obj
 0001:00013140       ?deallocate@?$_Wrap_alloc@V?$allocator@V?$basic_string@DU?$char_traits@D@std@@V?$allocator@D@2@@std@@@std@@@std@@QAEXPAV?$basic_string@DU?$char_traits@D@std@@V?$allocator@D@2@@2@I@Z 00414140 f i ccClient.obj
 0001:00013170       ?deallocate@?$allocator@PAV?$basic_string@DU?$char_traits@D@std@@V?$allocator@D@2@@std@@@std@@QAEXPAPAV?$basic_string@DU?$char_traits@D@std@@V?$allocator@D@2@@2@I@Z 00414170 f i ccClient.obj
 0001:00013190       ?deallocate@?$allocator@V?$basic_string@DU?$char_traits@D@std@@V?$allocator@D@2@@std@@@std@@QAEXPAV?$basic_string@DU?$char_traits@D@std@@V?$allocator@D@2@@2@I@Z 00414190 f i ccClient.obj
 0001:000131b0       ?empty@?$deque@V?$basic_string@DU?$char_traits@D@std@@V?$allocator@D@2@@std@@V?$allocator@V?$basic_string@DU?$char_traits@D@std@@V?$allocator@D@2@@std@@@2@@std@@QBE_NXZ 004141b0 f i ccClient.obj
 0001:000131f0       ?front@?$deque@V?$basic_string@DU?$char_traits@D@std@@V?$allocator@D@2@@std@@V?$allocator@V?$basic_string@DU?$char_traits@D@std@@V?$allocator@D@2@@std@@@2@@std@@QAEAAV?$basic_string@DU?$char_traits@D@std@@V?$allocator@D@2@@2@XZ 004141f0 f i ccClient.obj
 0001:00013280       ?front@?$queue@V?$basic_string@DU?$char_traits@D@std@@V?$allocator@D@2@@std@@V?$deque@V?$basic_string@DU?$char_traits@D@std@@V?$allocator@D@2@@std@@V?$allocator@V?$basic_string@DU?$char_traits@D@std@@V?$allocator@D@2@@std@@@2@@2@@std@@QAEAAV?$basic_string@DU?$char_traits@D@std@@V?$allocator@D@2@@2@XZ 00414280 f i ccClient.obj
 0001:000132a0       ?max_size@?$_Wrap_alloc@V?$allocator@V?$basic_string@DU?$char_traits@D@std@@V?$allocator@D@2@@std@@@std@@@std@@QBEIXZ 004142a0 f i ccClient.obj
 0001:000132c0       ?max_size@?$allocator@V?$basic_string@DU?$char_traits@D@std@@V?$allocator@D@2@@std@@@std@@QBEIXZ 004142c0 f i ccClient.obj
 0001:000132e0       ?max_size@?$allocator_traits@V?$allocator@V?$basic_string@DU?$char_traits@D@std@@V?$allocator@D@2@@std@@@std@@@std@@SAIABV?$allocator@V?$basic_string@DU?$char_traits@D@std@@V?$allocator@D@2@@std@@@2@@Z 004142e0 f i ccClient.obj
 0001:000132f0       ?max_size@?$deque@V?$basic_string@DU?$char_traits@D@std@@V?$allocator@D@2@@std@@V?$allocator@V?$basic_string@DU?$char_traits@D@std@@V?$allocator@D@2@@std@@@2@@std@@QBEIXZ 004142f0 f i ccClient.obj
 0001:00013320       ?pop@?$queue@V?$basic_string@DU?$char_traits@D@std@@V?$allocator@D@2@@std@@V?$deque@V?$basic_string@DU?$char_traits@D@std@@V?$allocator@D@2@@std@@V?$allocator@V?$basic_string@DU?$char_traits@D@std@@V?$allocator@D@2@@std@@@2@@2@@std@@QAEXXZ 00414320 f i ccClient.obj
 0001:00013340       ?pop_back@?$deque@V?$basic_string@DU?$char_traits@D@std@@V?$allocator@D@2@@std@@V?$allocator@V?$basic_string@DU?$char_traits@D@std@@V?$allocator@D@2@@std@@@2@@std@@QAEXXZ 00414340 f i ccClient.obj
 0001:00013430       ?pop_front@?$deque@V?$basic_string@DU?$char_traits@D@std@@V?$allocator@D@2@@std@@V?$allocator@V?$basic_string@DU?$char_traits@D@std@@V?$allocator@D@2@@std@@@2@@std@@QAEXXZ 00414430 f i ccClient.obj
 0001:00013530       ?push@?$queue@V?$basic_string@DU?$char_traits@D@std@@V?$allocator@D@2@@std@@V?$deque@V?$basic_string@DU?$char_traits@D@std@@V?$allocator@D@2@@std@@V?$allocator@V?$basic_string@DU?$char_traits@D@std@@V?$allocator@D@2@@std@@@2@@2@@std@@QAEX$$QAV?$basic_string@DU?$char_traits@D@std@@V?$allocator@D@2@@2@@Z 00414530 f i ccClient.obj
 0001:00013560       ?push@?$queue@V?$basic_string@DU?$char_traits@D@std@@V?$allocator@D@2@@std@@V?$deque@V?$basic_string@DU?$char_traits@D@std@@V?$allocator@D@2@@std@@V?$allocator@V?$basic_string@DU?$char_traits@D@std@@V?$allocator@D@2@@std@@@2@@2@@std@@QAEXABV?$basic_string@DU?$char_traits@D@std@@V?$allocator@D@2@@2@@Z 00414560 f i ccClient.obj
 0001:00013580       ?push_back@?$deque@V?$basic_string@DU?$char_traits@D@std@@V?$allocator@D@2@@std@@V?$allocator@V?$basic_string@DU?$char_traits@D@std@@V?$allocator@D@2@@std@@@2@@std@@QAEX$$QAV?$basic_string@DU?$char_traits@D@std@@V?$allocator@D@2@@2@@Z 00414580 f i ccClient.obj
 0001:000136c0       ?push_back@?$deque@V?$basic_string@DU?$char_traits@D@std@@V?$allocator@D@2@@std@@V?$allocator@V?$basic_string@DU?$char_traits@D@std@@V?$allocator@D@2@@std@@@2@@std@@QAEXABV?$basic_string@DU?$char_traits@D@std@@V?$allocator@D@2@@2@@Z 004146c0 f i ccClient.obj
 0001:000137f0       ?size@?$deque@V?$basic_string@DU?$char_traits@D@std@@V?$allocator@D@2@@std@@V?$allocator@V?$basic_string@DU?$char_traits@D@std@@V?$allocator@D@2@@std@@@2@@std@@QBEIXZ 004147f0 f i ccClient.obj
 0001:00013810       ?size@?$queue@V?$basic_string@DU?$char_traits@D@std@@V?$allocator@D@2@@std@@V?$deque@V?$basic_string@DU?$char_traits@D@std@@V?$allocator@D@2@@std@@V?$allocator@V?$basic_string@DU?$char_traits@D@std@@V?$allocator@D@2@@std@@@2@@2@@std@@QBEIXZ 00414810 f i ccClient.obj
 0001:00013830       ?readConfigSection@ccConfig@@SAXABV?$basic_string@DU?$char_traits@D@std@@V?$allocator@D@2@@std@@0AAV?$map@V?$basic_string@DU?$char_traits@D@std@@V?$allocator@D@2@@std@@V12@U?$less@V?$basic_string@DU?$char_traits@D@std@@V?$allocator@D@2@@std@@@2@V?$allocator@U?$pair@$$CBV?$basic_string@DU?$char_traits@D@std@@V?$allocator@D@2@@std@@V12@@std@@@2@@3@@Z 00414830 f   ccConfig.obj
 0001:000139c0       ?readConfigSectionRoot@ccConfig@@SAXABV?$basic_string@DU?$char_traits@D@std@@V?$allocator@D@2@@std@@0AAV?$map@V?$basic_string@DU?$char_traits@D@std@@V?$allocator@D@2@@std@@V12@U?$less@V?$basic_string@DU?$char_traits@D@std@@V?$allocator@D@2@@std@@@2@V?$allocator@U?$pair@$$CBV?$basic_string@DU?$char_traits@D@std@@V?$allocator@D@2@@std@@V12@@std@@@2@@3@@Z 004149c0 f   ccConfig.obj
 0001:00013aa0       ?readConfigSection@ccConfig@@SAXHABV?$basic_string@DU?$char_traits@D@std@@V?$allocator@D@2@@std@@AAV?$map@V?$basic_string@DU?$char_traits@D@std@@V?$allocator@D@2@@std@@V12@U?$less@V?$basic_string@DU?$char_traits@D@std@@V?$allocator@D@2@@std@@@2@V?$allocator@U?$pair@$$CBV?$basic_string@DU?$char_traits@D@std@@V?$allocator@D@2@@std@@V12@@std@@@2@@3@@Z 00414aa0 f   ccConfig.obj
 0001:00013ba0       ?deleteKeysFromSectionRoot@ccConfig@@SAXABV?$basic_string@DU?$char_traits@D@std@@V?$allocator@D@2@@std@@00@Z 00414ba0 f   ccConfig.obj
 0001:00013d50       ?writeConfigSection@ccConfig@@SAXABV?$basic_string@DU?$char_traits@D@std@@V?$allocator@D@2@@std@@0ABV?$map@V?$basic_string@DU?$char_traits@D@std@@V?$allocator@D@2@@std@@V12@U?$less@V?$basic_string@DU?$char_traits@D@std@@V?$allocator@D@2@@std@@@2@V?$allocator@U?$pair@$$CBV?$basic_string@DU?$char_traits@D@std@@V?$allocator@D@2@@std@@V12@@std@@@2@@3@@Z 00414d50 f   ccConfig.obj
 0001:00013ee0       ?writeConfigSectionRoot@ccConfig@@SAXABV?$basic_string@DU?$char_traits@D@std@@V?$allocator@D@2@@std@@0ABV?$map@V?$basic_string@DU?$char_traits@D@std@@V?$allocator@D@2@@std@@V12@U?$less@V?$basic_string@DU?$char_traits@D@std@@V?$allocator@D@2@@std@@@2@V?$allocator@U?$pair@$$CBV?$basic_string@DU?$char_traits@D@std@@V?$allocator@D@2@@std@@V12@@std@@@2@@3@@Z 00414ee0 f   ccConfig.obj
 0001:00013fc0       ?writeConfigSection@ccConfig@@SAXHABV?$basic_string@DU?$char_traits@D@std@@V?$allocator@D@2@@std@@ABV?$map@V?$basic_string@DU?$char_traits@D@std@@V?$allocator@D@2@@std@@V12@U?$less@V?$basic_string@DU?$char_traits@D@std@@V?$allocator@D@2@@std@@@2@V?$allocator@U?$pair@$$CBV?$basic_string@DU?$char_traits@D@std@@V?$allocator@D@2@@std@@V12@@std@@@2@@3@@Z 00414fc0 f   ccConfig.obj
 0001:000140c0       ?getString@ccConfig@@SA?AV?$basic_string@DU?$char_traits@D@std@@V?$allocator@D@2@@std@@ABV23@000_N@Z 004150c0 f   ccConfig.obj
 0001:00014250       ?getString@ccConfig@@SA?AV?$basic_string@DU?$char_traits@D@std@@V?$allocator@D@2@@std@@HABV23@00_N@Z 00415250 f   ccConfig.obj
 0001:000143c0       ?setString@ccConfig@@SAXABV?$basic_string@DU?$char_traits@D@std@@V?$allocator@D@2@@std@@000@Z 004153c0 f   ccConfig.obj
 0001:000144a0       ?setString@ccConfig@@SAXHABV?$basic_string@DU?$char_traits@D@std@@V?$allocator@D@2@@std@@00@Z 004154a0 f   ccConfig.obj
 0001:00014590       ?getInt@ccConfig@@SAHABV?$basic_string@DU?$char_traits@D@std@@V?$allocator@D@2@@std@@00H_N@Z 00415590 f   ccConfig.obj
 0001:000146f0       ?getInt@ccConfig@@SAHHABV?$basic_string@DU?$char_traits@D@std@@V?$allocator@D@2@@std@@0H_N@Z 004156f0 f   ccConfig.obj
 0001:00014840       ?getDevPath@ccConfig@@SA?AV?$basic_string@DU?$char_traits@D@std@@V?$allocator@D@2@@std@@XZ 00415840 f   ccConfig.obj
 0001:00014a20       ?getSystem@ccConfig@@SA?AV?$basic_string@DU?$char_traits@D@std@@V?$allocator@D@2@@std@@XZ 00415a20 f   ccConfig.obj
 0001:00014b30       ?getDevPath@ccConfig@@SA?AV?$basic_string@DU?$char_traits@D@std@@V?$allocator@D@2@@std@@H@Z 00415b30 f   ccConfig.obj
 0001:00014c20       ?getDevPath@ccConfig@@SA?AV?$basic_string@DU?$char_traits@D@std@@V?$allocator@D@2@@std@@ABV23@@Z 00415c20 f   ccConfig.obj
 0001:00014ce0       ?isV4Based@ccConfig@@SA_NXZ 00415ce0 f   ccConfig.obj
 0001:00014d50       ?isV3Based@ccConfig@@SA_NXZ 00415d50 f   ccConfig.obj
 0001:00014dc0       ?workstation@ccConfig@@SAHXZ 00415dc0 f   ccConfig.obj
 0001:00015010       ?sectionsAbs@ccConfig@@SAXABV?$basic_string@DU?$char_traits@D@std@@V?$allocator@D@2@@std@@AAV?$list@V?$basic_string@DU?$char_traits@D@std@@V?$allocator@D@2@@std@@V?$allocator@V?$basic_string@DU?$char_traits@D@std@@V?$allocator@D@2@@std@@@2@@3@@Z 00416010 f   ccConfig.obj
 0001:000151b0       ?sections@ccConfig@@SAXABV?$basic_string@DU?$char_traits@D@std@@V?$allocator@D@2@@std@@AAV?$list@V?$basic_string@DU?$char_traits@D@std@@V?$allocator@D@2@@std@@V?$allocator@V?$basic_string@DU?$char_traits@D@std@@V?$allocator@D@2@@std@@@2@@3@@Z 004161b0 f   ccConfig.obj
 0001:00015330       ?sectionsRoot@ccConfig@@SAXABV?$basic_string@DU?$char_traits@D@std@@V?$allocator@D@2@@std@@AAV?$list@V?$basic_string@DU?$char_traits@D@std@@V?$allocator@D@2@@std@@V?$allocator@V?$basic_string@DU?$char_traits@D@std@@V?$allocator@D@2@@std@@@2@@3@@Z 00416330 f   ccConfig.obj
 0001:00015410       ?sections@ccConfig@@SAXHAAV?$list@V?$basic_string@DU?$char_traits@D@std@@V?$allocator@D@2@@std@@V?$allocator@V?$basic_string@DU?$char_traits@D@std@@V?$allocator@D@2@@std@@@2@@std@@@Z 00416410 f   ccConfig.obj
 0001:00015510       ?deleteSectionRoot@ccConfig@@SAXABV?$basic_string@DU?$char_traits@D@std@@V?$allocator@D@2@@std@@0@Z 00416510 f   ccConfig.obj
 0001:000155f0       ??0ccConfig@@QAE@XZ        004165f0 f   ccConfig.obj
 0001:00015670       ??0ccConfig@@QAE@ABV?$basic_string@DU?$char_traits@D@std@@V?$allocator@D@2@@std@@0@Z 00416670 f   ccConfig.obj
 0001:00015750       ??0ccConfig@@QAE@HABV?$basic_string@DU?$char_traits@D@std@@V?$allocator@D@2@@std@@@Z 00416750 f   ccConfig.obj
 0001:00015830       ??1ccConfig@@UAE@XZ        00416830 f   ccConfig.obj
 0001:00015870       ?getString@ccConfig@@QAE?AV?$basic_string@DU?$char_traits@D@std@@V?$allocator@D@2@@std@@ABV23@0_N@Z 00416870 f   ccConfig.obj
 0001:000159b0       ?setString@ccConfig@@QAEXABV?$basic_string@DU?$char_traits@D@std@@V?$allocator@D@2@@std@@0@Z 004169b0 f   ccConfig.obj
 0001:00015aa0       ?getInt@ccConfig@@QAEHABV?$basic_string@DU?$char_traits@D@std@@V?$allocator@D@2@@std@@H_N@Z 00416aa0 f   ccConfig.obj
 0001:00015c20       ?developerMode@ccConfig@@SA_NXZ 00416c20 f   ccConfig.obj
 0001:00015c70       ?getLogPath@ccConfig@@SA?AV?$basic_string@DU?$char_traits@D@std@@V?$allocator@D@2@@std@@ABV23@0@Z 00416c70 f   ccConfig.obj
 0001:00015da0       ?readConfigSectionAbs@ccConfig@@CAXABV?$basic_string@DU?$char_traits@D@std@@V?$allocator@D@2@@std@@0AAV?$map@V?$basic_string@DU?$char_traits@D@std@@V?$allocator@D@2@@std@@V12@U?$less@V?$basic_string@DU?$char_traits@D@std@@V?$allocator@D@2@@std@@@2@V?$allocator@U?$pair@$$CBV?$basic_string@DU?$char_traits@D@std@@V?$allocator@D@2@@std@@V12@@std@@@2@@3@@Z 00416da0 f   ccConfig.obj
 0001:00016110       ?writeConfigSectionAbs@ccConfig@@CAXABV?$basic_string@DU?$char_traits@D@std@@V?$allocator@D@2@@std@@0ABV?$map@V?$basic_string@DU?$char_traits@D@std@@V?$allocator@D@2@@std@@V12@U?$less@V?$basic_string@DU?$char_traits@D@std@@V?$allocator@D@2@@std@@@2@V?$allocator@U?$pair@$$CBV?$basic_string@DU?$char_traits@D@std@@V?$allocator@D@2@@std@@V12@@std@@@2@@3@@Z 00417110 f   ccConfig.obj
 0001:00016650       ?buftolower@ccConfig@@CAPADPAD@Z 00417650 f   ccConfig.obj
 0001:000166c0       ?strtolower@ccConfig@@CA?AV?$basic_string@DU?$char_traits@D@std@@V?$allocator@D@2@@std@@ABV23@@Z 004176c0 f   ccConfig.obj
 0001:000167a0       ?find@ccConfig@@AAE?AV?$_Tree_iterator@V?$_Tree_val@U?$_Tree_simple_types@U?$pair@$$CBV?$basic_string@DU?$char_traits@D@std@@V?$allocator@D@2@@std@@V12@@std@@@std@@@std@@@std@@ABV?$basic_string@DU?$char_traits@D@std@@V?$allocator@D@2@@3@@Z 004177a0 f   ccConfig.obj
 0001:00017580       ??$?0AAV?$_Tree_iterator@V?$_Tree_val@U?$_Tree_simple_types@U?$pair@$$CBV?$basic_string@DU?$char_traits@D@std@@V?$allocator@D@2@@std@@V12@@std@@@std@@@std@@@std@@_NX@?$pair@V?$_Tree_iterator@V?$_Tree_val@U?$_Tree_simple_types@U?$pair@$$CBV?$basic_string@DU?$char_traits@D@std@@V?$allocator@D@2@@std@@V12@@std@@@std@@@std@@@std@@_N@std@@QAE@AAV?$_Tree_iterator@V?$_Tree_val@U?$_Tree_simple_types@U?$pair@$$CBV?$basic_string@DU?$char_traits@D@std@@V?$allocator@D@2@@std@@V12@@std@@@std@@@std@@@1@$$QA_N@Z 00418580 f i ccConfig.obj
 0001:00017610       ??$?0AAV?$basic_string@DU?$char_traits@D@std@@V?$allocator@D@2@@std@@AAV01@X@?$pair@V?$basic_string@DU?$char_traits@D@std@@V?$allocator@D@2@@std@@V12@@std@@QAE@AAV?$basic_string@DU?$char_traits@D@std@@V?$allocator@D@2@@1@0@Z 00418610 f i ccConfig.obj
 0001:000176b0       ??$?0U?$_Tree_node@U?$pair@$$CBV?$basic_string@DU?$char_traits@D@std@@V?$allocator@D@2@@std@@V12@@std@@PAX@std@@@?$allocator@U_Container_proxy@std@@@std@@QAE@ABV?$allocator@U?$_Tree_node@U?$pair@$$CBV?$basic_string@DU?$char_traits@D@std@@V?$allocator@D@2@@std@@V12@@std@@PAX@std@@@1@@Z 004186b0 f i ccConfig.obj
 0001:000176d0       ??$?0U?$_Wrap_alloc@V?$allocator@U?$_Tree_node@U?$pair@$$CBV?$basic_string@DU?$char_traits@D@std@@V?$allocator@D@2@@std@@V12@@std@@PAX@std@@@std@@@std@@@?$_Wrap_alloc@V?$allocator@U_Container_proxy@std@@@std@@@std@@QAE@ABU?$_Wrap_alloc@V?$allocator@U?$_Tree_node@U?$pair@$$CBV?$basic_string@DU?$char_traits@D@std@@V?$allocator@D@2@@std@@V12@@std@@PAX@std@@@std@@@1@@Z 004186d0 f i ccConfig.obj
 0001:00017700       ??$?0V?$_Tree_iterator@V?$_Tree_val@U?$_Tree_simple_types@U?$pair@$$CBV?$basic_string@DU?$char_traits@D@std@@V?$allocator@D@2@@std@@V12@@std@@@std@@@std@@@std@@_NX@?$pair@V?$_Tree_iterator@V?$_Tree_val@U?$_Tree_simple_types@U?$pair@$$CBV?$basic_string@DU?$char_traits@D@std@@V?$allocator@D@2@@std@@V12@@std@@@std@@@std@@@std@@_N@std@@QAE@$$QAV?$_Tree_iterator@V?$_Tree_val@U?$_Tree_simple_types@U?$pair@$$CBV?$basic_string@DU?$char_traits@D@std@@V?$allocator@D@2@@std@@V12@@std@@@std@@@std@@@1@$$QA_N@Z 00418700 f i ccConfig.obj
 0001:00017790       ??$?0V?$basic_string@DU?$char_traits@D@std@@V?$allocator@D@2@@std@@V01@X@?$pair@$$CBV?$basic_string@DU?$char_traits@D@std@@V?$allocator@D@2@@std@@V12@@std@@QAE@$$QAU?$pair@V?$basic_string@DU?$char_traits@D@std@@V?$allocator@D@2@@std@@V12@@1@@Z 00418790 f i ccConfig.obj
 0001:00017830       ??$?8DU?$char_traits@D@std@@V?$allocator@D@1@@std@@YA_NABV?$basic_string@DU?$char_traits@D@std@@V?$allocator@D@2@@0@0@Z 00418830 f i ccConfig.obj
 0001:00017870       ??$?8DU?$char_traits@D@std@@V?$allocator@D@1@@std@@YA_NABV?$basic_string@DU?$char_traits@D@std@@V?$allocator@D@2@@0@PBD@Z 00418870 f i ccConfig.obj
 0001:000178b0       ??$?MDU?$char_traits@D@std@@V?$allocator@D@1@@std@@YA_NABV?$basic_string@DU?$char_traits@D@std@@V?$allocator@D@2@@0@0@Z 004188b0 f i ccConfig.obj
 0001:000178f0       ??$_Allocate@U?$_List_node@V?$basic_string@DU?$char_traits@D@std@@V?$allocator@D@2@@std@@PAX@std@@@std@@YAPAU?$_List_node@V?$basic_string@DU?$char_traits@D@std@@V?$allocator@D@2@@std@@PAX@0@IPAU10@@Z 004188f0 f i ccConfig.obj
 0001:00017940       ??$_Allocate@U?$_Tree_node@U?$pair@$$CBV?$basic_string@DU?$char_traits@D@std@@V?$allocator@D@2@@std@@V12@@std@@PAX@std@@@std@@YAPAU?$_Tree_node@U?$pair@$$CBV?$basic_string@DU?$char_traits@D@std@@V?$allocator@D@2@@std@@V12@@std@@PAX@0@IPAU10@@Z 00418940 f i ccConfig.obj
 0001:00017990       ??$_Buynode@U?$pair@V?$basic_string@DU?$char_traits@D@std@@V?$allocator@D@2@@std@@V12@@std@@@?$_Tree_buy@U?$pair@$$CBV?$basic_string@DU?$char_traits@D@std@@V?$allocator@D@2@@std@@V12@@std@@V?$allocator@U?$pair@$$CBV?$basic_string@DU?$char_traits@D@std@@V?$allocator@D@2@@std@@V12@@std@@@2@@std@@QAEPAU?$_Tree_node@U?$pair@$$CBV?$basic_string@DU?$char_traits@D@std@@V?$allocator@D@2@@std@@V12@@std@@PAX@1@$$QAU?$pair@V?$basic_string@DU?$char_traits@D@std@@V?$allocator@D@2@@std@@V12@@1@@Z 00418990 f i ccConfig.obj
 0001:00017ac0       ??$_Buynode@V?$basic_string@DU?$char_traits@D@std@@V?$allocator@D@2@@std@@@?$_List_buy@V?$basic_string@DU?$char_traits@D@std@@V?$allocator@D@2@@std@@V?$allocator@V?$basic_string@DU?$char_traits@D@std@@V?$allocator@D@2@@std@@@2@@std@@QAEPAU?$_List_node@V?$basic_string@DU?$char_traits@D@std@@V?$allocator@D@2@@std@@PAX@1@PAU21@0$$QAV?$basic_string@DU?$char_traits@D@std@@V?$allocator@D@2@@1@@Z 00418ac0 f i ccConfig.obj
 0001:00017be0       ??$_Buynode_if_nil@AAU?$pair@$$CBV?$basic_string@DU?$char_traits@D@std@@V?$allocator@D@2@@std@@V12@@std@@@?$_Tree@V?$_Tmap_traits@V?$basic_string@DU?$char_traits@D@std@@V?$allocator@D@2@@std@@V12@U?$less@V?$basic_string@DU?$char_traits@D@std@@V?$allocator@D@2@@std@@@2@V?$allocator@U?$pair@$$CBV?$basic_string@DU?$char_traits@D@std@@V?$allocator@D@2@@std@@V12@@std@@@2@$0A@@std@@@std@@IAEPAU?$_Tree_node@U?$pair@$$CBV?$basic_string@DU?$char_traits@D@std@@V?$allocator@D@2@@std@@V12@@std@@PAX@1@PAU21@AAU?$pair@$$CBV?$basic_string@DU?$char_traits@D@std@@V?$allocator@D@2@@std@@V12@@1@@Z 00418be0 f i ccConfig.obj
 0001:00017c00       ??$_Debug_lt_pred@U?$less@V?$basic_string@DU?$char_traits@D@std@@V?$allocator@D@2@@std@@@std@@ABV?$basic_string@DU?$char_traits@D@std@@V?$allocator@D@2@@2@ABV32@@std@@YA_NU?$less@V?$basic_string@DU?$char_traits@D@std@@V?$allocator@D@2@@std@@@0@ABV?$basic_string@DU?$char_traits@D@std@@V?$allocator@D@2@@0@1PB_WI@Z 00418c00 f i ccConfig.obj
 0001:00017ca0       ??$_Insert@V?$basic_string@DU?$char_traits@D@std@@V?$allocator@D@2@@std@@@?$list@V?$basic_string@DU?$char_traits@D@std@@V?$allocator@D@2@@std@@V?$allocator@V?$basic_string@DU?$char_traits@D@std@@V?$allocator@D@2@@std@@@2@@std@@QAEXV?$_List_unchecked_const_iterator@V?$_List_val@U?$_List_simple_types@V?$basic_string@DU?$char_traits@D@std@@V?$allocator@D@2@@std@@@std@@@std@@U_Iterator_base0@2@@1@$$QAV?$basic_string@DU?$char_traits@D@std@@V?$allocator@D@2@@1@@Z 00418ca0 f i ccConfig.obj
 0001:00017d40       ??$_Insert_at@AAU?$pair@$$CBV?$basic_string@DU?$char_traits@D@std@@V?$allocator@D@2@@std@@V12@@std@@PAU?$_Tree_node@U?$pair@$$CBV?$basic_string@DU?$char_traits@D@std@@V?$allocator@D@2@@std@@V12@@std@@PAX@2@@?$_Tree@V?$_Tmap_traits@V?$basic_string@DU?$char_traits@D@std@@V?$allocator@D@2@@std@@V12@U?$less@V?$basic_string@DU?$char_traits@D@std@@V?$allocator@D@2@@std@@@2@V?$allocator@U?$pair@$$CBV?$basic_string@DU?$char_traits@D@std@@V?$allocator@D@2@@std@@V12@@std@@@2@$0A@@std@@@std@@IAE?AV?$_Tree_iterator@V?$_Tree_val@U?$_Tree_simple_types@U?$pair@$$CBV?$basic_string@DU?$char_traits@D@std@@V?$allocator@D@2@@std@@V12@@std@@@std@@@std@@@1@_NPAU?$_Tree_node@U?$pair@$$CBV?$basic_string@DU?$char_traits@D@std@@V?$allocator@D@2@@std@@V12@@std@@PAX@1@AAU?$pair@$$CBV?$basic_string@DU?$char_traits@D@std@@V?$allocator@D@2@@std@@V12@@1@1@Z 00418d40 f i ccConfig.obj
 0001:00018290       ??$_Insert_nohint@AAU?$pair@$$CBV?$basic_string@DU?$char_traits@D@std@@V?$allocator@D@2@@std@@V12@@std@@PAU?$_Tree_node@U?$pair@$$CBV?$basic_string@DU?$char_traits@D@std@@V?$allocator@D@2@@std@@V12@@std@@PAX@2@@?$_Tree@V?$_Tmap_traits@V?$basic_string@DU?$char_traits@D@std@@V?$allocator@D@2@@std@@V12@U?$less@V?$basic_string@DU?$char_traits@D@std@@V?$allocator@D@2@@std@@@2@V?$allocator@U?$pair@$$CBV?$basic_string@DU?$char_traits@D@std@@V?$allocator@D@2@@std@@V12@@std@@@2@$0A@@std@@@std@@IAE?AU?$pair@V?$_Tree_iterator@V?$_Tree_val@U?$_Tree_simple_types@U?$pair@$$CBV?$basic_string@DU?$char_traits@D@std@@V?$allocator@D@2@@std@@V12@@std@@@std@@@std@@@std@@_N@1@_NAAU?$pair@$$CBV?$basic_string@DU?$char_traits@D@std@@V?$allocator@D@2@@std@@V12@@1@PAU?$_Tree_node@U?$pair@$$CBV?$basic_string@DU?$char_traits@D@std@@V?$allocator@D@2@@std@@V12@@std@@PAX@1@@Z 00419290 f i ccConfig.obj
 0001:00018870       ??$_Kfn@$$CBV?$basic_string@DU?$char_traits@D@std@@V?$allocator@D@2@@std@@V12@@?$_Tmap_traits@V?$basic_string@DU?$char_traits@D@std@@V?$allocator@D@2@@std@@V12@U?$less@V?$basic_string@DU?$char_traits@D@std@@V?$allocator@D@2@@std@@@2@V?$allocator@U?$pair@$$CBV?$basic_string@DU?$char_traits@D@std@@V?$allocator@D@2@@std@@V12@@std@@@2@$0A@@std@@SAABV?$basic_string@DU?$char_traits@D@std@@V?$allocator@D@2@@1@ABU?$pair@$$CBV?$basic_string@DU?$char_traits@D@std@@V?$allocator@D@2@@std@@V12@@1@@Z 00419870 f i ccConfig.obj
 0001:00018880       ??$_Move@AAD@std@@YA$$QADAAD@Z 00419880 f i ccConfig.obj
 0001:00018890       ??$addressof@$$CBU?$pair@$$CBV?$basic_string@DU?$char_traits@D@std@@V?$allocator@D@2@@std@@V12@@std@@@std@@YAPBU?$pair@$$CBV?$basic_string@DU?$char_traits@D@std@@V?$allocator@D@2@@std@@V12@@0@ABU10@@Z 00419890 f i ccConfig.obj
 0001:000188a0       ??$addressof@PAU?$_List_node@V?$basic_string@DU?$char_traits@D@std@@V?$allocator@D@2@@std@@PAX@std@@@std@@YAPAPAU?$_List_node@V?$basic_string@DU?$char_traits@D@std@@V?$allocator@D@2@@std@@PAX@0@AAPAU10@@Z 004198a0 f i ccConfig.obj
 0001:000188b0       ??$addressof@PAU?$_Tree_node@U?$pair@$$CBV?$basic_string@DU?$char_traits@D@std@@V?$allocator@D@2@@std@@V12@@std@@PAX@std@@@std@@YAPAPAU?$_Tree_node@U?$pair@$$CBV?$basic_string@DU?$char_traits@D@std@@V?$allocator@D@2@@std@@V12@@std@@PAX@0@AAPAU10@@Z 004198b0 f i ccConfig.obj
 0001:000188c0       ??$addressof@U?$pair@$$CBV?$basic_string@DU?$char_traits@D@std@@V?$allocator@D@2@@std@@V12@@std@@@std@@YAPAU?$pair@$$CBV?$basic_string@DU?$char_traits@D@std@@V?$allocator@D@2@@std@@V12@@0@AAU10@@Z 004198c0 f i ccConfig.obj
 0001:000188d0       ??$addressof@V?$basic_string@DU?$char_traits@D@std@@V?$allocator@D@2@@std@@@std@@YAPAV?$basic_string@DU?$char_traits@D@std@@V?$allocator@D@2@@0@AAV10@@Z 004198d0 f i ccConfig.obj
 0001:000188e0       ??$assign@V?$_String_iterator@V?$_String_val@U?$_Simple_types@D@std@@@std@@@std@@@?$basic_string@DU?$char_traits@D@std@@V?$allocator@D@2@@std@@QAEAAV01@V?$_String_iterator@V?$_String_val@U?$_Simple_types@D@std@@@std@@@1@0@Z 004198e0 f i ccConfig.obj
 0001:00018a60       ??$construct@PAU?$_List_node@V?$basic_string@DU?$char_traits@D@std@@V?$allocator@D@2@@std@@PAX@std@@AAPAU12@@?$_Wrap_alloc@V?$allocator@U?$_List_node@V?$basic_string@DU?$char_traits@D@std@@V?$allocator@D@2@@std@@PAX@std@@@std@@@std@@QAEXPAPAU?$_List_node@V?$basic_string@DU?$char_traits@D@std@@V?$allocator@D@2@@std@@PAX@1@AAPAU21@@Z 00419a60 f i ccConfig.obj
 0001:00018aa0       ??$construct@PAU?$_List_node@V?$basic_string@DU?$char_traits@D@std@@V?$allocator@D@2@@std@@PAX@std@@AAPAU12@@?$allocator@U?$_List_node@V?$basic_string@DU?$char_traits@D@std@@V?$allocator@D@2@@std@@PAX@std@@@std@@QAEXPAPAU?$_List_node@V?$basic_string@DU?$char_traits@D@std@@V?$allocator@D@2@@std@@PAX@1@AAPAU21@@Z 00419aa0 f i ccConfig.obj
 0001:00018b50       ??$construct@PAU?$_List_node@V?$basic_string@DU?$char_traits@D@std@@V?$allocator@D@2@@std@@PAX@std@@AAPAU12@@?$allocator_traits@V?$allocator@U?$_List_node@V?$basic_string@DU?$char_traits@D@std@@V?$allocator@D@2@@std@@PAX@std@@@std@@@std@@SAXAAV?$allocator@U?$_List_node@V?$basic_string@DU?$char_traits@D@std@@V?$allocator@D@2@@std@@PAX@std@@@1@PAPAU?$_List_node@V?$basic_string@DU?$char_traits@D@std@@V?$allocator@D@2@@std@@PAX@1@AAPAU31@@Z 00419b50 f i ccConfig.obj
 0001:00018b80       ??$construct@PAU?$_Tree_node@U?$pair@$$CBV?$basic_string@DU?$char_traits@D@std@@V?$allocator@D@2@@std@@V12@@std@@PAX@std@@AAPAU12@@?$_Wrap_alloc@V?$allocator@U?$_Tree_node@U?$pair@$$CBV?$basic_string@DU?$char_traits@D@std@@V?$allocator@D@2@@std@@V12@@std@@PAX@std@@@std@@@std@@QAEXPAPAU?$_Tree_node@U?$pair@$$CBV?$basic_string@DU?$char_traits@D@std@@V?$allocator@D@2@@std@@V12@@std@@PAX@1@AAPAU21@@Z 00419b80 f i ccConfig.obj
 0001:00018bc0       ??$construct@PAU?$_Tree_node@U?$pair@$$CBV?$basic_string@DU?$char_traits@D@std@@V?$allocator@D@2@@std@@V12@@std@@PAX@std@@AAPAU12@@?$allocator@U?$_Tree_node@U?$pair@$$CBV?$basic_string@DU?$char_traits@D@std@@V?$allocator@D@2@@std@@V12@@std@@PAX@std@@@std@@QAEXPAPAU?$_Tree_node@U?$pair@$$CBV?$basic_string@DU?$char_traits@D@std@@V?$allocator@D@2@@std@@V12@@std@@PAX@1@AAPAU21@@Z 00419bc0 f i ccConfig.obj
 0001:00018c70       ??$construct@PAU?$_Tree_node@U?$pair@$$CBV?$basic_string@DU?$char_traits@D@std@@V?$allocator@D@2@@std@@V12@@std@@PAX@std@@AAPAU12@@?$allocator_traits@V?$allocator@U?$_Tree_node@U?$pair@$$CBV?$basic_string@DU?$char_traits@D@std@@V?$allocator@D@2@@std@@V12@@std@@PAX@std@@@std@@@std@@SAXAAV?$allocator@U?$_Tree_node@U?$pair@$$CBV?$basic_string@DU?$char_traits@D@std@@V?$allocator@D@2@@std@@V12@@std@@PAX@std@@@1@PAPAU?$_Tree_node@U?$pair@$$CBV?$basic_string@DU?$char_traits@D@std@@V?$allocator@D@2@@std@@V12@@std@@PAX@1@AAPAU31@@Z 00419c70 f i ccConfig.obj
 0001:00018ca0       ??$construct@U?$pair@$$CBV?$basic_string@DU?$char_traits@D@std@@V?$allocator@D@2@@std@@V12@@std@@U?$pair@V?$basic_string@DU?$char_traits@D@std@@V?$allocator@D@2@@std@@V12@@2@@?$_Wrap_alloc@V?$allocator@U?$_Tree_node@U?$pair@$$CBV?$basic_string@DU?$char_traits@D@std@@V?$allocator@D@2@@std@@V12@@std@@PAX@std@@@std@@@std@@QAEXPAU?$pair@$$CBV?$basic_string@DU?$char_traits@D@std@@V?$allocator@D@2@@std@@V12@@1@$$QAU?$pair@V?$basic_string@DU?$char_traits@D@std@@V?$allocator@D@2@@std@@V12@@1@@Z 00419ca0 f i ccConfig.obj
 0001:00018ce0       ??$construct@U?$pair@$$CBV?$basic_string@DU?$char_traits@D@std@@V?$allocator@D@2@@std@@V12@@std@@U?$pair@V?$basic_string@DU?$char_traits@D@std@@V?$allocator@D@2@@std@@V12@@2@@?$allocator@U?$_Tree_node@U?$pair@$$CBV?$basic_string@DU?$char_traits@D@std@@V?$allocator@D@2@@std@@V12@@std@@PAX@std@@@std@@QAEXPAU?$pair@$$CBV?$basic_string@DU?$char_traits@D@std@@V?$allocator@D@2@@std@@V12@@1@$$QAU?$pair@V?$basic_string@DU?$char_traits@D@std@@V?$allocator@D@2@@std@@V12@@1@@Z 00419ce0 f i ccConfig.obj
 0001:00018d90       ??$construct@U?$pair@$$CBV?$basic_string@DU?$char_traits@D@std@@V?$allocator@D@2@@std@@V12@@std@@U?$pair@V?$basic_string@DU?$char_traits@D@std@@V?$allocator@D@2@@std@@V12@@2@@?$allocator_traits@V?$allocator@U?$_Tree_node@U?$pair@$$CBV?$basic_string@DU?$char_traits@D@std@@V?$allocator@D@2@@std@@V12@@std@@PAX@std@@@std@@@std@@SAXAAV?$allocator@U?$_Tree_node@U?$pair@$$CBV?$basic_string@DU?$char_traits@D@std@@V?$allocator@D@2@@std@@V12@@std@@PAX@std@@@1@PAU?$pair@$$CBV?$basic_string@DU?$char_traits@D@std@@V?$allocator@D@2@@std@@V12@@1@$$QAU?$pair@V?$basic_string@DU?$char_traits@D@std@@V?$allocator@D@2@@std@@V12@@1@@Z 00419d90 f i ccConfig.obj
 0001:00018dc0       ??$construct@V?$basic_string@DU?$char_traits@D@std@@V?$allocator@D@2@@std@@V12@@?$_Wrap_alloc@V?$allocator@U?$_List_node@V?$basic_string@DU?$char_traits@D@std@@V?$allocator@D@2@@std@@PAX@std@@@std@@@std@@QAEXPAV?$basic_string@DU?$char_traits@D@std@@V?$allocator@D@2@@1@$$QAV21@@Z 00419dc0 f i ccConfig.obj
 0001:00018e00       ??$construct@V?$basic_string@DU?$char_traits@D@std@@V?$allocator@D@2@@std@@V12@@?$allocator@U?$_List_node@V?$basic_string@DU?$char_traits@D@std@@V?$allocator@D@2@@std@@PAX@std@@@std@@QAEXPAV?$basic_string@DU?$char_traits@D@std@@V?$allocator@D@2@@1@$$QAV21@@Z 00419e00 f i ccConfig.obj
 0001:00018eb0       ??$construct@V?$basic_string@DU?$char_traits@D@std@@V?$allocator@D@2@@std@@V12@@?$allocator_traits@V?$allocator@U?$_List_node@V?$basic_string@DU?$char_traits@D@std@@V?$allocator@D@2@@std@@PAX@std@@@std@@@std@@SAXAAV?$allocator@U?$_List_node@V?$basic_string@DU?$char_traits@D@std@@V?$allocator@D@2@@std@@PAX@std@@@1@PAV?$basic_string@DU?$char_traits@D@std@@V?$allocator@D@2@@1@$$QAV31@@Z 00419eb0 f i ccConfig.obj
 0001:00018ee0       ??$destroy@PAU?$_Tree_node@U?$pair@$$CBV?$basic_string@DU?$char_traits@D@std@@V?$allocator@D@2@@std@@V12@@std@@PAX@std@@@?$_Wrap_alloc@V?$allocator@U?$_Tree_node@U?$pair@$$CBV?$basic_string@DU?$char_traits@D@std@@V?$allocator@D@2@@std@@V12@@std@@PAX@std@@@std@@@std@@QAEXPAPAU?$_Tree_node@U?$pair@$$CBV?$basic_string@DU?$char_traits@D@std@@V?$allocator@D@2@@std@@V12@@std@@PAX@1@@Z 00419ee0 f i ccConfig.obj
 0001:00018f10       ??$destroy@PAU?$_Tree_node@U?$pair@$$CBV?$basic_string@DU?$char_traits@D@std@@V?$allocator@D@2@@std@@V12@@std@@PAX@std@@@?$allocator@U?$_Tree_node@U?$pair@$$CBV?$basic_string@DU?$char_traits@D@std@@V?$allocator@D@2@@std@@V12@@std@@PAX@std@@@std@@QAEXPAPAU?$_Tree_node@U?$pair@$$CBV?$basic_string@DU?$char_traits@D@std@@V?$allocator@D@2@@std@@V12@@std@@PAX@1@@Z 00419f10 f i ccConfig.obj
 0001:00018f20       ??$destroy@PAU?$_Tree_node@U?$pair@$$CBV?$basic_string@DU?$char_traits@D@std@@V?$allocator@D@2@@std@@V12@@std@@PAX@std@@@?$allocator_traits@V?$allocator@U?$_Tree_node@U?$pair@$$CBV?$basic_string@DU?$char_traits@D@std@@V?$allocator@D@2@@std@@V12@@std@@PAX@std@@@std@@@std@@SAXAAV?$allocator@U?$_Tree_node@U?$pair@$$CBV?$basic_string@DU?$char_traits@D@std@@V?$allocator@D@2@@std@@V12@@std@@PAX@std@@@1@PAPAU?$_Tree_node@U?$pair@$$CBV?$basic_string@DU?$char_traits@D@std@@V?$allocator@D@2@@std@@V12@@std@@PAX@1@@Z 00419f20 f i ccConfig.obj
 0001:00018f40       ??$destroy@U?$pair@$$CBV?$basic_string@DU?$char_traits@D@std@@V?$allocator@D@2@@std@@V12@@std@@@?$_Wrap_alloc@V?$allocator@U?$_Tree_node@U?$pair@$$CBV?$basic_string@DU?$char_traits@D@std@@V?$allocator@D@2@@std@@V12@@std@@PAX@std@@@std@@@std@@QAEXPAU?$pair@$$CBV?$basic_string@DU?$char_traits@D@std@@V?$allocator@D@2@@std@@V12@@1@@Z 00419f40 f i ccConfig.obj
 0001:00018f70       ??$destroy@U?$pair@$$CBV?$basic_string@DU?$char_traits@D@std@@V?$allocator@D@2@@std@@V12@@std@@@?$allocator@U?$_Tree_node@U?$pair@$$CBV?$basic_string@DU?$char_traits@D@std@@V?$allocator@D@2@@std@@V12@@std@@PAX@std@@@std@@QAEXPAU?$pair@$$CBV?$basic_string@DU?$char_traits@D@std@@V?$allocator@D@2@@std@@V12@@1@@Z 00419f70 f i ccConfig.obj
 0001:00018f90       ??$destroy@U?$pair@$$CBV?$basic_string@DU?$char_traits@D@std@@V?$allocator@D@2@@std@@V12@@std@@@?$allocator_traits@V?$allocator@U?$_Tree_node@U?$pair@$$CBV?$basic_string@DU?$char_traits@D@std@@V?$allocator@D@2@@std@@V12@@std@@PAX@std@@@std@@@std@@SAXAAV?$allocator@U?$_Tree_node@U?$pair@$$CBV?$basic_string@DU?$char_traits@D@std@@V?$allocator@D@2@@std@@V12@@std@@PAX@std@@@1@PAU?$pair@$$CBV?$basic_string@DU?$char_traits@D@std@@V?$allocator@D@2@@std@@V12@@1@@Z 00419f90 f i ccConfig.obj
 0001:00018fb0       ??$forward@AAPAU?$_List_node@V?$basic_string@DU?$char_traits@D@std@@V?$allocator@D@2@@std@@PAX@std@@@std@@YAAAPAU?$_List_node@V?$basic_string@DU?$char_traits@D@std@@V?$allocator@D@2@@std@@PAX@0@AAPAU10@@Z 00419fb0 f i ccConfig.obj
 0001:00018fc0       ??$forward@AAPAU?$_Tree_node@U?$pair@$$CBV?$basic_string@DU?$char_traits@D@std@@V?$allocator@D@2@@std@@V12@@std@@PAX@std@@@std@@YAAAPAU?$_Tree_node@U?$pair@$$CBV?$basic_string@DU?$char_traits@D@std@@V?$allocator@D@2@@std@@V12@@std@@PAX@0@AAPAU10@@Z 00419fc0 f i ccConfig.obj
 0001:00018fd0       ??$forward@AAU?$pair@$$CBV?$basic_string@DU?$char_traits@D@std@@V?$allocator@D@2@@std@@V12@@std@@@std@@YAAAU?$pair@$$CBV?$basic_string@DU?$char_traits@D@std@@V?$allocator@D@2@@std@@V12@@0@AAU10@@Z 00419fd0 f i ccConfig.obj
 0001:00018fe0       ??$forward@AAV?$_Tree_iterator@V?$_Tree_val@U?$_Tree_simple_types@U?$pair@$$CBV?$basic_string@DU?$char_traits@D@std@@V?$allocator@D@2@@std@@V12@@std@@@std@@@std@@@std@@@std@@YAAAV?$_Tree_iterator@V?$_Tree_val@U?$_Tree_simple_types@U?$pair@$$CBV?$basic_string@DU?$char_traits@D@std@@V?$allocator@D@2@@std@@V12@@std@@@std@@@std@@@0@AAV10@@Z 00419fe0 f i ccConfig.obj
 0001:00018ff0       ??$forward@AAV?$basic_string@DU?$char_traits@D@std@@V?$allocator@D@2@@std@@@std@@YAAAV?$basic_string@DU?$char_traits@D@std@@V?$allocator@D@2@@0@AAV10@@Z 00419ff0 f i ccConfig.obj
 0001:00019000       ??$forward@U?$pair@V?$basic_string@DU?$char_traits@D@std@@V?$allocator@D@2@@std@@V12@@std@@@std@@YA$$QAU?$pair@V?$basic_string@DU?$char_traits@D@std@@V?$allocator@D@2@@std@@V12@@0@AAU10@@Z 0041a000 f i ccConfig.obj
 0001:00019010       ??$forward@V?$_Tree_iterator@V?$_Tree_val@U?$_Tree_simple_types@U?$pair@$$CBV?$basic_string@DU?$char_traits@D@std@@V?$allocator@D@2@@std@@V12@@std@@@std@@@std@@@std@@@std@@YA$$QAV?$_Tree_iterator@V?$_Tree_val@U?$_Tree_simple_types@U?$pair@$$CBV?$basic_string@DU?$char_traits@D@std@@V?$allocator@D@2@@std@@V12@@std@@@std@@@std@@@0@AAV10@@Z 0041a010 f i ccConfig.obj
 0001:00019020       ??$forward@_N@std@@YA$$QA_NAA_N@Z 0041a020 f i ccConfig.obj
 0001:00019030       ??$insert@U?$pair@V?$basic_string@DU?$char_traits@D@std@@V?$allocator@D@2@@std@@V12@@std@@@?$_Tree@V?$_Tmap_traits@V?$basic_string@DU?$char_traits@D@std@@V?$allocator@D@2@@std@@V12@U?$less@V?$basic_string@DU?$char_traits@D@std@@V?$allocator@D@2@@std@@@2@V?$allocator@U?$pair@$$CBV?$basic_string@DU?$char_traits@D@std@@V?$allocator@D@2@@std@@V12@@std@@@2@$0A@@std@@@std@@QAE?AU?$pair@V?$_Tree_iterator@V?$_Tree_val@U?$_Tree_simple_types@U?$pair@$$CBV?$basic_string@DU?$char_traits@D@std@@V?$allocator@D@2@@std@@V12@@std@@@std@@@std@@@std@@_N@1@$$QAU?$pair@V?$basic_string@DU?$char_traits@D@std@@V?$allocator@D@2@@std@@V12@@1@@Z 0041a030 f i ccConfig.obj
 0001:000190a0       ??$swap@D@std@@YAXAAD0@Z   0041a0a0 f i ccConfig.obj
 0001:000190f0       ??0?$_Iterator012@Ubidirectional_iterator_tag@std@@U?$pair@$$CBV?$basic_string@DU?$char_traits@D@std@@V?$allocator@D@2@@std@@V12@@2@HPBU32@ABU32@U_Iterator_base12@2@@std@@QAE@ABU01@@Z 0041a0f0 f i ccConfig.obj
 0001:00019120       ??0?$_Iterator012@Ubidirectional_iterator_tag@std@@U?$pair@$$CBV?$basic_string@DU?$char_traits@D@std@@V?$allocator@D@2@@std@@V12@@2@HPBU32@ABU32@U_Iterator_base12@2@@std@@QAE@XZ 0041a120 f i ccConfig.obj
 0001:00019140       ??0?$_Iterator012@Urandom_access_iterator_tag@std@@DHPBDABDU_Iterator_base12@2@@std@@QAE@ABU01@@Z 0041a140 f i ccConfig.obj
 0001:00019170       ??0?$_Iterator012@Urandom_access_iterator_tag@std@@DHPBDABDU_Iterator_base12@2@@std@@QAE@XZ 0041a170 f i ccConfig.obj
 0001:00019190       ??0?$_List_unchecked_const_iterator@V?$_List_val@U?$_List_simple_types@V?$basic_string@DU?$char_traits@D@std@@V?$allocator@D@2@@std@@@std@@@std@@U_Iterator_base0@2@@std@@QAE@PAU?$_List_node@V?$basic_string@DU?$char_traits@D@std@@V?$allocator@D@2@@std@@PAX@1@PBV?$_List_val@U?$_List_simple_types@V?$basic_string@DU?$char_traits@D@std@@V?$allocator@D@2@@std@@@std@@@1@@Z 0041a190 f i ccConfig.obj
 0001:000191c0       ??0?$_List_unchecked_iterator@V?$_List_val@U?$_List_simple_types@V?$basic_string@DU?$char_traits@D@std@@V?$allocator@D@2@@std@@@std@@@std@@@std@@QAE@PAU?$_List_node@V?$basic_string@DU?$char_traits@D@std@@V?$allocator@D@2@@std@@PAX@1@PBV?$_List_val@U?$_List_simple_types@V?$basic_string@DU?$char_traits@D@std@@V?$allocator@D@2@@std@@@std@@@1@@Z 0041a1c0 f i ccConfig.obj
 0001:000191f0       ??0?$_String_const_iterator@V?$_String_val@U?$_Simple_types@D@std@@@std@@@std@@QAE@ABV01@@Z 0041a1f0 f i ccConfig.obj
 0001:00019230       ??0?$_String_const_iterator@V?$_String_val@U?$_Simple_types@D@std@@@std@@@std@@QAE@PBDPBU_Container_base12@1@@Z 0041a230 f i ccConfig.obj
 0001:000192b0       ??0?$_String_iterator@V?$_String_val@U?$_Simple_types@D@std@@@std@@@std@@QAE@ABV01@@Z 0041a2b0 f i ccConfig.obj
 0001:000192e0       ??0?$_String_iterator@V?$_String_val@U?$_Simple_types@D@std@@@std@@@std@@QAE@PADPBU_Container_base12@1@@Z 0041a2e0 f i ccConfig.obj
 0001:00019310       ??0?$_Tree@V?$_Tmap_traits@V?$basic_string@DU?$char_traits@D@std@@V?$allocator@D@2@@std@@V12@U?$less@V?$basic_string@DU?$char_traits@D@std@@V?$allocator@D@2@@std@@@2@V?$allocator@U?$pair@$$CBV?$basic_string@DU?$char_traits@D@std@@V?$allocator@D@2@@std@@V12@@std@@@2@$0A@@std@@@std@@QAE@ABU?$less@V?$basic_string@DU?$char_traits@D@std@@V?$allocator@D@2@@std@@@1@ABV?$allocator@U?$pair@$$CBV?$basic_string@DU?$char_traits@D@std@@V?$allocator@D@2@@std@@V12@@std@@@1@@Z 0041a310 f i ccConfig.obj
 0001:00019340       ??0?$_Tree_alloc@$0A@U?$_Tree_base_types@U?$pair@$$CBV?$basic_string@DU?$char_traits@D@std@@V?$allocator@D@2@@std@@V12@@std@@V?$allocator@U?$pair@$$CBV?$basic_string@DU?$char_traits@D@std@@V?$allocator@D@2@@std@@V12@@std@@@2@@std@@@std@@QAE@ABV?$allocator@U?$pair@$$CBV?$basic_string@DU?$char_traits@D@std@@V?$allocator@D@2@@std@@V12@@std@@@1@@Z 0041a340 f i ccConfig.obj
 0001:00019410       ??0?$_Tree_buy@U?$pair@$$CBV?$basic_string@DU?$char_traits@D@std@@V?$allocator@D@2@@std@@V12@@std@@V?$allocator@U?$pair@$$CBV?$basic_string@DU?$char_traits@D@std@@V?$allocator@D@2@@std@@V12@@std@@@2@@std@@QAE@ABV?$allocator@U?$pair@$$CBV?$basic_string@DU?$char_traits@D@std@@V?$allocator@D@2@@std@@V12@@std@@@1@@Z 0041a410 f i ccConfig.obj
 0001:00019440       ??0?$_Tree_comp@$0A@V?$_Tmap_traits@V?$basic_string@DU?$char_traits@D@std@@V?$allocator@D@2@@std@@V12@U?$less@V?$basic_string@DU?$char_traits@D@std@@V?$allocator@D@2@@std@@@2@V?$allocator@U?$pair@$$CBV?$basic_string@DU?$char_traits@D@std@@V?$allocator@D@2@@std@@V12@@std@@@2@$0A@@std@@@std@@QAE@ABU?$less@V?$basic_string@DU?$char_traits@D@std@@V?$allocator@D@2@@std@@@1@ABV?$allocator@U?$pair@$$CBV?$basic_string@DU?$char_traits@D@std@@V?$allocator@D@2@@std@@V12@@std@@@1@@Z 0041a440 f i ccConfig.obj
 0001:00019470       ??0?$_Tree_const_iterator@V?$_Tree_val@U?$_Tree_simple_types@U?$pair@$$CBV?$basic_string@DU?$char_traits@D@std@@V?$allocator@D@2@@std@@V12@@std@@@std@@@std@@@std@@QAE@ABV01@@Z 0041a470 f i ccConfig.obj
 0001:000194a0       ??0?$_Tree_const_iterator@V?$_Tree_val@U?$_Tree_simple_types@U?$pair@$$CBV?$basic_string@DU?$char_traits@D@std@@V?$allocator@D@2@@std@@V12@@std@@@std@@@std@@@std@@QAE@PAU?$_Tree_node@U?$pair@$$CBV?$basic_string@DU?$char_traits@D@std@@V?$allocator@D@2@@std@@V12@@std@@PAX@1@PBV?$_Tree_val@U?$_Tree_simple_types@U?$pair@$$CBV?$basic_string@DU?$char_traits@D@std@@V?$allocator@D@2@@std@@V12@@std@@@std@@@1@@Z 0041a4a0 f i ccConfig.obj
 0001:000194d0       ??0?$_Tree_iterator@V?$_Tree_val@U?$_Tree_simple_types@U?$pair@$$CBV?$basic_string@DU?$char_traits@D@std@@V?$allocator@D@2@@std@@V12@@std@@@std@@@std@@@std@@QAE@ABV01@@Z 0041a4d0 f i ccConfig.obj
 0001:00019500       ??0?$_Tree_iterator@V?$_Tree_val@U?$_Tree_simple_types@U?$pair@$$CBV?$basic_string@DU?$char_traits@D@std@@V?$allocator@D@2@@std@@V12@@std@@@std@@@std@@@std@@QAE@PAU?$_Tree_node@U?$pair@$$CBV?$basic_string@DU?$char_traits@D@std@@V?$allocator@D@2@@std@@V12@@std@@PAX@1@PBV?$_Tree_val@U?$_Tree_simple_types@U?$pair@$$CBV?$basic_string@DU?$char_traits@D@std@@V?$allocator@D@2@@std@@V12@@std@@@std@@@1@@Z 0041a500 f i ccConfig.obj
 0001:00019530       ??0?$_Tree_unchecked_const_iterator@V?$_Tree_val@U?$_Tree_simple_types@U?$pair@$$CBV?$basic_string@DU?$char_traits@D@std@@V?$allocator@D@2@@std@@V12@@std@@@std@@@std@@U_Iterator_base12@2@@std@@QAE@ABV01@@Z 0041a530 f i ccConfig.obj
 0001:00019570       ??0?$_Tree_unchecked_const_iterator@V?$_Tree_val@U?$_Tree_simple_types@U?$pair@$$CBV?$basic_string@DU?$char_traits@D@std@@V?$allocator@D@2@@std@@V12@@std@@@std@@@std@@U_Iterator_base12@2@@std@@QAE@PAU?$_Tree_node@U?$pair@$$CBV?$basic_string@DU?$char_traits@D@std@@V?$allocator@D@2@@std@@V12@@std@@PAX@1@PBV?$_Tree_val@U?$_Tree_simple_types@U?$pair@$$CBV?$basic_string@DU?$char_traits@D@std@@V?$allocator@D@2@@std@@V12@@std@@@std@@@1@@Z 0041a570 f i ccConfig.obj
 0001:000195f0       ??0?$_Tree_val@U?$_Tree_simple_types@U?$pair@$$CBV?$basic_string@DU?$char_traits@D@std@@V?$allocator@D@2@@std@@V12@@std@@@std@@@std@@QAE@XZ 0041a5f0 f i ccConfig.obj
 0001:00019630       ??0?$_Wrap_alloc@V?$allocator@U?$_List_node@V?$basic_string@DU?$char_traits@D@std@@V?$allocator@D@2@@std@@PAX@std@@@std@@@std@@QAE@XZ 0041a630 f i ccConfig.obj
 0001:00019650       ??0?$_Wrap_alloc@V?$allocator@U?$_Tree_node@U?$pair@$$CBV?$basic_string@DU?$char_traits@D@std@@V?$allocator@D@2@@std@@V12@@std@@PAX@std@@@std@@@std@@QAE@XZ 0041a650 f i ccConfig.obj
 0001:00019670       ??0?$allocator@U?$_List_node@V?$basic_string@DU?$char_traits@D@std@@V?$allocator@D@2@@std@@PAX@std@@@std@@QAE@XZ 0041a670 f i ccConfig.obj
 0001:00019690       ??0?$allocator@U?$_Tree_node@U?$pair@$$CBV?$basic_string@DU?$char_traits@D@std@@V?$allocator@D@2@@std@@V12@@std@@PAX@std@@@std@@QAE@XZ 0041a690 f i ccConfig.obj
 0001:000196b0       ??0?$allocator@U?$pair@$$CBV?$basic_string@DU?$char_traits@D@std@@V?$allocator@D@2@@std@@V12@@std@@@std@@QAE@XZ 0041a6b0 f i ccConfig.obj
 0001:000196d0       ??0?$map@V?$basic_string@DU?$char_traits@D@std@@V?$allocator@D@2@@std@@V12@U?$less@V?$basic_string@DU?$char_traits@D@std@@V?$allocator@D@2@@std@@@2@V?$allocator@U?$pair@$$CBV?$basic_string@DU?$char_traits@D@std@@V?$allocator@D@2@@std@@V12@@std@@@2@@std@@QAE@XZ 0041a6d0 f i ccConfig.obj
 0001:00019700       ??0_Iterator_base12@std@@QAE@ABU01@@Z 0041a700 f i ccConfig.obj
 0001:00019740       ??1?$_Iterator012@Ubidirectional_iterator_tag@std@@U?$pair@$$CBV?$basic_string@DU?$char_traits@D@std@@V?$allocator@D@2@@std@@V12@@2@HPBU32@ABU32@U_Iterator_base12@2@@std@@QAE@XZ 0041a740 f i ccConfig.obj
 0001:00019760       ??1?$_Iterator012@Urandom_access_iterator_tag@std@@DHPBDABDU_Iterator_base12@2@@std@@QAE@XZ 0041a760 f i ccConfig.obj
 0001:00019780       ??1?$_String_const_iterator@V?$_String_val@U?$_Simple_types@D@std@@@std@@@std@@QAE@XZ 0041a780 f i ccConfig.obj
 0001:000197a0       ??1?$_String_iterator@V?$_String_val@U?$_Simple_types@D@std@@@std@@@std@@QAE@XZ 0041a7a0 f i ccConfig.obj
 0001:000197c0       ??1?$_Tree@V?$_Tmap_traits@V?$basic_string@DU?$char_traits@D@std@@V?$allocator@D@2@@std@@V12@U?$less@V?$basic_string@DU?$char_traits@D@std@@V?$allocator@D@2@@std@@@2@V?$allocator@U?$pair@$$CBV?$basic_string@DU?$char_traits@D@std@@V?$allocator@D@2@@std@@V12@@std@@@2@$0A@@std@@@std@@QAE@XZ 0041a7c0 f i ccConfig.obj
 0001:000197f0       ??1?$_Tree_alloc@$0A@U?$_Tree_base_types@U?$pair@$$CBV?$basic_string@DU?$char_traits@D@std@@V?$allocator@D@2@@std@@V12@@std@@V?$allocator@U?$pair@$$CBV?$basic_string@DU?$char_traits@D@std@@V?$allocator@D@2@@std@@V12@@std@@@2@@std@@@std@@QAE@XZ 0041a7f0 f i ccConfig.obj
 0001:00019830       ??1?$_Tree_buy@U?$pair@$$CBV?$basic_string@DU?$char_traits@D@std@@V?$allocator@D@2@@std@@V12@@std@@V?$allocator@U?$pair@$$CBV?$basic_string@DU?$char_traits@D@std@@V?$allocator@D@2@@std@@V12@@std@@@2@@std@@QAE@XZ 0041a830 f i ccConfig.obj
 0001:00019850       ??1?$_Tree_comp@$0A@V?$_Tmap_traits@V?$basic_string@DU?$char_traits@D@std@@V?$allocator@D@2@@std@@V12@U?$less@V?$basic_string@DU?$char_traits@D@std@@V?$allocator@D@2@@std@@@2@V?$allocator@U?$pair@$$CBV?$basic_string@DU?$char_traits@D@std@@V?$allocator@D@2@@std@@V12@@std@@@2@$0A@@std@@@std@@QAE@XZ 0041a850 f i ccConfig.obj
 0001:00019870       ??1?$_Tree_const_iterator@V?$_Tree_val@U?$_Tree_simple_types@U?$pair@$$CBV?$basic_string@DU?$char_traits@D@std@@V?$allocator@D@2@@std@@V12@@std@@@std@@@std@@@std@@QAE@XZ 0041a870 f i ccConfig.obj
 0001:00019890       ??1?$_Tree_iterator@V?$_Tree_val@U?$_Tree_simple_types@U?$pair@$$CBV?$basic_string@DU?$char_traits@D@std@@V?$allocator@D@2@@std@@V12@@std@@@std@@@std@@@std@@QAE@XZ 0041a890 f i ccConfig.obj
 0001:000198b0       ??1?$_Tree_unchecked_const_iterator@V?$_Tree_val@U?$_Tree_simple_types@U?$pair@$$CBV?$basic_string@DU?$char_traits@D@std@@V?$allocator@D@2@@std@@V12@@std@@@std@@@std@@U_Iterator_base12@2@@std@@QAE@XZ 0041a8b0 f i ccConfig.obj
 0001:000198d0       ??1?$_Tree_val@U?$_Tree_simple_types@U?$pair@$$CBV?$basic_string@DU?$char_traits@D@std@@V?$allocator@D@2@@std@@V12@@std@@@std@@@std@@QAE@XZ 0041a8d0 f i ccConfig.obj
 0001:000198f0       ??1?$map@V?$basic_string@DU?$char_traits@D@std@@V?$allocator@D@2@@std@@V12@U?$less@V?$basic_string@DU?$char_traits@D@std@@V?$allocator@D@2@@std@@@2@V?$allocator@U?$pair@$$CBV?$basic_string@DU?$char_traits@D@std@@V?$allocator@D@2@@std@@V12@@std@@@2@@std@@QAE@XZ 0041a8f0 f i ccConfig.obj
 0001:00019910       ??1?$pair@$$CBV?$basic_string@DU?$char_traits@D@std@@V?$allocator@D@2@@std@@V12@@std@@QAE@XZ 0041a910 f i ccConfig.obj
 0001:00019940       ??1?$pair@V?$_Tree_iterator@V?$_Tree_val@U?$_Tree_simple_types@U?$pair@$$CBV?$basic_string@DU?$char_traits@D@std@@V?$allocator@D@2@@std@@V12@@std@@@std@@@std@@@std@@_N@std@@QAE@XZ 0041a940 f i ccConfig.obj
 0001:00019960       ??1?$pair@V?$basic_string@DU?$char_traits@D@std@@V?$allocator@D@2@@std@@V12@@std@@QAE@XZ 0041a960 f i ccConfig.obj
 0001:00019990       ??4?$_Iterator012@Ubidirectional_iterator_tag@std@@U?$pair@$$CBV?$basic_string@DU?$char_traits@D@std@@V?$allocator@D@2@@std@@V12@@2@HPBU32@ABU32@U_Iterator_base12@2@@std@@QAEAAU01@ABU01@@Z 0041a990 f i ccConfig.obj
 0001:000199c0       ??4?$_Tree_const_iterator@V?$_Tree_val@U?$_Tree_simple_types@U?$pair@$$CBV?$basic_string@DU?$char_traits@D@std@@V?$allocator@D@2@@std@@V12@@std@@@std@@@std@@@std@@QAEAAV01@ABV01@@Z 0041a9c0 f i ccConfig.obj
 0001:000199f0       ??4?$_Tree_iterator@V?$_Tree_val@U?$_Tree_simple_types@U?$pair@$$CBV?$basic_string@DU?$char_traits@D@std@@V?$allocator@D@2@@std@@V12@@std@@@std@@@std@@@std@@QAEAAV01@ABV01@@Z 0041a9f0 f i ccConfig.obj
 0001:00019a20       ??4?$_Tree_unchecked_const_iterator@V?$_Tree_val@U?$_Tree_simple_types@U?$pair@$$CBV?$basic_string@DU?$char_traits@D@std@@V?$allocator@D@2@@std@@V12@@std@@@std@@@std@@U_Iterator_base12@2@@std@@QAEAAV01@ABV01@@Z 0041aa20 f i ccConfig.obj
 0001:00019a60       ??4?$basic_string@DU?$char_traits@D@std@@V?$allocator@D@2@@std@@QAEAAV01@$$QAV01@@Z 0041aa60 f i ccConfig.obj
 0001:00019b40       ??4_Iterator_base12@std@@QAEAAU01@ABU01@@Z 0041ab40 f i ccConfig.obj
 0001:00019c00       ??8?$_String_const_iterator@V?$_String_val@U?$_Simple_types@D@std@@@std@@@std@@QBE_NABV01@@Z 0041ac00 f i ccConfig.obj
 0001:00019c50       ??8?$_Tree_const_iterator@V?$_Tree_val@U?$_Tree_simple_types@U?$pair@$$CBV?$basic_string@DU?$char_traits@D@std@@V?$allocator@D@2@@std@@V12@@std@@@std@@@std@@@std@@QBE_NABV01@@Z 0041ac50 f i ccConfig.obj
 0001:00019d40       ??9?$_Tree_const_iterator@V?$_Tree_val@U?$_Tree_simple_types@U?$pair@$$CBV?$basic_string@DU?$char_traits@D@std@@V?$allocator@D@2@@std@@V12@@std@@@std@@@std@@@std@@QBE_NABV01@@Z 0041ad40 f i ccConfig.obj
 0001:00019d90       ??C?$_Tree_const_iterator@V?$_Tree_val@U?$_Tree_simple_types@U?$pair@$$CBV?$basic_string@DU?$char_traits@D@std@@V?$allocator@D@2@@std@@V12@@std@@@std@@@std@@@std@@QBEPBU?$pair@$$CBV?$basic_string@DU?$char_traits@D@std@@V?$allocator@D@2@@std@@V12@@1@XZ 0041ad90 f i ccConfig.obj
 0001:00019dc0       ??C?$_Tree_iterator@V?$_Tree_val@U?$_Tree_simple_types@U?$pair@$$CBV?$basic_string@DU?$char_traits@D@std@@V?$allocator@D@2@@std@@V12@@std@@@std@@@std@@@std@@QBEPAU?$pair@$$CBV?$basic_string@DU?$char_traits@D@std@@V?$allocator@D@2@@std@@V12@@1@XZ 0041adc0 f i ccConfig.obj
 0001:00019df0       ??D?$_String_const_iterator@V?$_String_val@U?$_Simple_types@D@std@@@std@@@std@@QBEABDXZ 0041adf0 f i ccConfig.obj
 0001:00019ef0       ??D?$_String_iterator@V?$_String_val@U?$_Simple_types@D@std@@@std@@@std@@QBEAADXZ 0041aef0 f i ccConfig.obj
 0001:00019f10       ??D?$_Tree_const_iterator@V?$_Tree_val@U?$_Tree_simple_types@U?$pair@$$CBV?$basic_string@DU?$char_traits@D@std@@V?$allocator@D@2@@std@@V12@@std@@@std@@@std@@@std@@QBEABU?$pair@$$CBV?$basic_string@DU?$char_traits@D@std@@V?$allocator@D@2@@std@@V12@@1@XZ 0041af10 f i ccConfig.obj
 0001:00019ff0       ??D?$_Tree_iterator@V?$_Tree_val@U?$_Tree_simple_types@U?$pair@$$CBV?$basic_string@DU?$char_traits@D@std@@V?$allocator@D@2@@std@@V12@@std@@@std@@@std@@@std@@QBEAAU?$pair@$$CBV?$basic_string@DU?$char_traits@D@std@@V?$allocator@D@2@@std@@V12@@1@XZ 0041aff0 f i ccConfig.obj
 0001:0001a010       ??E?$_Tree_const_iterator@V?$_Tree_val@U?$_Tree_simple_types@U?$pair@$$CBV?$basic_string@DU?$char_traits@D@std@@V?$allocator@D@2@@std@@V12@@std@@@std@@@std@@@std@@QAE?AV01@H@Z 0041b010 f i ccConfig.obj
 0001:0001a0c0       ??E?$_Tree_const_iterator@V?$_Tree_val@U?$_Tree_simple_types@U?$pair@$$CBV?$basic_string@DU?$char_traits@D@std@@V?$allocator@D@2@@std@@V12@@std@@@std@@@std@@@std@@QAEAAV01@XZ 0041b0c0 f i ccConfig.obj
 0001:0001a1a0       ??E?$_Tree_iterator@V?$_Tree_val@U?$_Tree_simple_types@U?$pair@$$CBV?$basic_string@DU?$char_traits@D@std@@V?$allocator@D@2@@std@@V12@@std@@@std@@@std@@@std@@QAE?AV01@H@Z 0041b1a0 f i ccConfig.obj
 0001:0001a250       ??E?$_Tree_iterator@V?$_Tree_val@U?$_Tree_simple_types@U?$pair@$$CBV?$basic_string@DU?$char_traits@D@std@@V?$allocator@D@2@@std@@V12@@std@@@std@@@std@@@std@@QAEAAV01@XZ 0041b250 f i ccConfig.obj
 0001:0001a270       ??E?$_Tree_unchecked_const_iterator@V?$_Tree_val@U?$_Tree_simple_types@U?$pair@$$CBV?$basic_string@DU?$char_traits@D@std@@V?$allocator@D@2@@std@@V12@@std@@@std@@@std@@U_Iterator_base12@2@@std@@QAEAAV01@XZ 0041b270 f i ccConfig.obj
 0001:0001a360       ??F?$_Tree_const_iterator@V?$_Tree_val@U?$_Tree_simple_types@U?$pair@$$CBV?$basic_string@DU?$char_traits@D@std@@V?$allocator@D@2@@std@@V12@@std@@@std@@@std@@@std@@QAEAAV01@XZ 0041b360 f i ccConfig.obj
 0001:0001a4c0       ??F?$_Tree_iterator@V?$_Tree_val@U?$_Tree_simple_types@U?$pair@$$CBV?$basic_string@DU?$char_traits@D@std@@V?$allocator@D@2@@std@@V12@@std@@@std@@@std@@@std@@QAEAAV01@XZ 0041b4c0 f i ccConfig.obj
 0001:0001a4e0       ??F?$_Tree_unchecked_const_iterator@V?$_Tree_val@U?$_Tree_simple_types@U?$pair@$$CBV?$basic_string@DU?$char_traits@D@std@@V?$allocator@D@2@@std@@V12@@std@@@std@@@std@@U_Iterator_base12@2@@std@@QAEAAV01@XZ 0041b4e0 f i ccConfig.obj
 0001:0001a610       ??G?$_String_const_iterator@V?$_String_val@U?$_Simple_types@D@std@@@std@@@std@@QBEHABV01@@Z 0041b610 f i ccConfig.obj
 0001:0001a640       ??G?$_String_iterator@V?$_String_val@U?$_Simple_types@D@std@@@std@@@std@@QBEHABV?$_String_const_iterator@V?$_String_val@U?$_Simple_types@D@std@@@std@@@1@@Z 0041b640 f i ccConfig.obj
 0001:0001a6e0       ??R?$less@V?$basic_string@DU?$char_traits@D@std@@V?$allocator@D@2@@std@@@std@@QBE_NABV?$basic_string@DU?$char_traits@D@std@@V?$allocator@D@2@@1@0@Z 0041b6e0 f i ccConfig.obj
 0001:0001a710       ??_G?$pair@$$CBV?$basic_string@DU?$char_traits@D@std@@V?$allocator@D@2@@std@@V12@@std@@QAEPAXI@Z 0041b710 f i ccConfig.obj
 0001:0001a750       ??_EccConfig@@UAEPAXI@Z    0041b750 f i ccConfig.obj
 0001:0001a750       ??_GccConfig@@UAEPAXI@Z    0041b750 f i ccConfig.obj
 0001:0001a790       ?_Adopt@_Iterator_base0@std@@QAEXPBX@Z 0041b790 f i ccConfig.obj
 0001:0001a7a0       ?_Alloc_proxy@?$_Tree_alloc@$0A@U?$_Tree_base_types@U?$pair@$$CBV?$basic_string@DU?$char_traits@D@std@@V?$allocator@D@2@@std@@V12@@std@@V?$allocator@U?$pair@$$CBV?$basic_string@DU?$char_traits@D@std@@V?$allocator@D@2@@std@@V12@@std@@@2@@std@@@std@@QAEXXZ 0041b7a0 f i ccConfig.obj
 0001:0001a810       ?_Buyheadnode@?$_Tree_alloc@$0A@U?$_Tree_base_types@U?$pair@$$CBV?$basic_string@DU?$char_traits@D@std@@V?$allocator@D@2@@std@@V12@@std@@V?$allocator@U?$pair@$$CBV?$basic_string@DU?$char_traits@D@std@@V?$allocator@D@2@@std@@V12@@std@@@2@@std@@@std@@QAEPAU?$_Tree_node@U?$pair@$$CBV?$basic_string@DU?$char_traits@D@std@@V?$allocator@D@2@@std@@V12@@std@@PAX@2@XZ 0041b810 f i ccConfig.obj
 0001:0001a9d0       ?_Buynode0@?$_List_alloc@$0A@U?$_List_base_types@V?$basic_string@DU?$char_traits@D@std@@V?$allocator@D@2@@std@@V?$allocator@V?$basic_string@DU?$char_traits@D@std@@V?$allocator@D@2@@std@@@2@@std@@@std@@QAEPAU?$_List_node@V?$basic_string@DU?$char_traits@D@std@@V?$allocator@D@2@@std@@PAX@2@PAU32@0@Z 0041b9d0 f i ccConfig.obj
 0001:0001ab40       ?_Buynode0@?$_Tree_buy@U?$pair@$$CBV?$basic_string@DU?$char_traits@D@std@@V?$allocator@D@2@@std@@V12@@std@@V?$allocator@U?$pair@$$CBV?$basic_string@DU?$char_traits@D@std@@V?$allocator@D@2@@std@@V12@@std@@@2@@std@@QAEPAU?$_Tree_node@U?$pair@$$CBV?$basic_string@DU?$char_traits@D@std@@V?$allocator@D@2@@std@@V12@@std@@PAX@2@XZ 0041bb40 f i ccConfig.obj
 0001:0001ace0       ?_Color@?$_Tree_val@U?$_Tree_simple_types@U?$pair@$$CBV?$basic_string@DU?$char_traits@D@std@@V?$allocator@D@2@@std@@V12@@std@@@std@@@std@@SAAADPAU?$_Tree_node@U?$pair@$$CBV?$basic_string@DU?$char_traits@D@std@@V?$allocator@D@2@@std@@V12@@std@@PAX@2@@Z 0041bce0 f i ccConfig.obj
 0001:0001acf0       ?_Compat@?$_String_const_iterator@V?$_String_val@U?$_Simple_types@D@std@@@std@@@std@@QBEXABV12@@Z 0041bcf0 f i ccConfig.obj
 0001:0001adc0       ?_Destroy_if_not_nil@?$_Tree@V?$_Tmap_traits@V?$basic_string@DU?$char_traits@D@std@@V?$allocator@D@2@@std@@V12@U?$less@V?$basic_string@DU?$char_traits@D@std@@V?$allocator@D@2@@std@@@2@V?$allocator@U?$pair@$$CBV?$basic_string@DU?$char_traits@D@std@@V?$allocator@D@2@@std@@V12@@std@@@2@$0A@@std@@@std@@IAEXPAU?$_Tree_node@U?$pair@$$CBV?$basic_string@DU?$char_traits@D@std@@V?$allocator@D@2@@std@@V12@@std@@PAX@2@@Z 0041bdc0 f i ccConfig.obj
 0001:0001ae30       ?_Erase@?$_Tree@V?$_Tmap_traits@V?$basic_string@DU?$char_traits@D@std@@V?$allocator@D@2@@std@@V12@U?$less@V?$basic_string@DU?$char_traits@D@std@@V?$allocator@D@2@@std@@@2@V?$allocator@U?$pair@$$CBV?$basic_string@DU?$char_traits@D@std@@V?$allocator@D@2@@std@@V12@@std@@@2@$0A@@std@@@std@@IAEXPAU?$_Tree_node@U?$pair@$$CBV?$basic_string@DU?$char_traits@D@std@@V?$allocator@D@2@@std@@V12@@std@@PAX@2@@Z 0041be30 f i ccConfig.obj
 0001:0001af00       ?_Free_proxy@?$_Tree_alloc@$0A@U?$_Tree_base_types@U?$pair@$$CBV?$basic_string@DU?$char_traits@D@std@@V?$allocator@D@2@@std@@V12@@std@@V?$allocator@U?$pair@$$CBV?$basic_string@DU?$char_traits@D@std@@V?$allocator@D@2@@std@@V12@@std@@@2@@std@@@std@@QAEXXZ 0041bf00 f i ccConfig.obj
 0001:0001af70       ?_Freeheadnode@?$_Tree_alloc@$0A@U?$_Tree_base_types@U?$pair@$$CBV?$basic_string@DU?$char_traits@D@std@@V?$allocator@D@2@@std@@V12@@std@@V?$allocator@U?$pair@$$CBV?$basic_string@DU?$char_traits@D@std@@V?$allocator@D@2@@std@@V12@@std@@@2@@std@@@std@@QAEXPAU?$_Tree_node@U?$pair@$$CBV?$basic_string@DU?$char_traits@D@std@@V?$allocator@D@2@@std@@V12@@std@@PAX@2@@Z 0041bf70 f i ccConfig.obj
 0001:0001b040       ?_Freenode0@?$_Tree_buy@U?$pair@$$CBV?$basic_string@DU?$char_traits@D@std@@V?$allocator@D@2@@std@@V12@@std@@V?$allocator@U?$pair@$$CBV?$basic_string@DU?$char_traits@D@std@@V?$allocator@D@2@@std@@V12@@std@@@2@@std@@QAEXPAU?$_Tree_node@U?$pair@$$CBV?$basic_string@DU?$char_traits@D@std@@V?$allocator@D@2@@std@@V12@@std@@PAX@2@@Z 0041c040 f i ccConfig.obj
 0001:0001b110       ?_Getal@?$_List_alloc@$0A@U?$_List_base_types@V?$basic_string@DU?$char_traits@D@std@@V?$allocator@D@2@@std@@V?$allocator@V?$basic_string@DU?$char_traits@D@std@@V?$allocator@D@2@@std@@@2@@std@@@std@@QBE?AU?$_Wrap_alloc@V?$allocator@U?$_List_node@V?$basic_string@DU?$char_traits@D@std@@V?$allocator@D@2@@std@@PAX@std@@@std@@@2@XZ 0041c110 f i ccConfig.obj
 0001:0001b130       ?_Getal@?$_Tree_alloc@$0A@U?$_Tree_base_types@U?$pair@$$CBV?$basic_string@DU?$char_traits@D@std@@V?$allocator@D@2@@std@@V12@@std@@V?$allocator@U?$pair@$$CBV?$basic_string@DU?$char_traits@D@std@@V?$allocator@D@2@@std@@V12@@std@@@2@@std@@@std@@QBE?AU?$_Wrap_alloc@V?$allocator@U?$_Tree_node@U?$pair@$$CBV?$basic_string@DU?$char_traits@D@std@@V?$allocator@D@2@@std@@V12@@std@@PAX@std@@@std@@@2@XZ 0041c130 f i ccConfig.obj
 0001:0001b150       ?_Getcomp@?$_Tree_comp@$0A@V?$_Tmap_traits@V?$basic_string@DU?$char_traits@D@std@@V?$allocator@D@2@@std@@V12@U?$less@V?$basic_string@DU?$char_traits@D@std@@V?$allocator@D@2@@std@@@2@V?$allocator@U?$pair@$$CBV?$basic_string@DU?$char_traits@D@std@@V?$allocator@D@2@@std@@V12@@std@@@2@$0A@@std@@@std@@QBE?AU?$less@V?$basic_string@DU?$char_traits@D@std@@V?$allocator@D@2@@std@@@2@XZ 0041c150 f i ccConfig.obj
 0001:0001b170       ?_Incsize@?$list@V?$basic_string@DU?$char_traits@D@std@@V?$allocator@D@2@@std@@V?$allocator@V?$basic_string@DU?$char_traits@D@std@@V?$allocator@D@2@@std@@@2@@std@@QAEXI@Z 0041c170 f i ccConfig.obj
 0001:0001b1c0       ?_Isnil@?$_Tree_val@U?$_Tree_simple_types@U?$pair@$$CBV?$basic_string@DU?$char_traits@D@std@@V?$allocator@D@2@@std@@V12@@std@@@std@@@std@@SAAADPAU?$_Tree_node@U?$pair@$$CBV?$basic_string@DU?$char_traits@D@std@@V?$allocator@D@2@@std@@V12@@std@@PAX@2@@Z 0041c1c0 f i ccConfig.obj
 0001:0001b1d0       ?_Key@?$_Tree@V?$_Tmap_traits@V?$basic_string@DU?$char_traits@D@std@@V?$allocator@D@2@@std@@V12@U?$less@V?$basic_string@DU?$char_traits@D@std@@V?$allocator@D@2@@std@@@2@V?$allocator@U?$pair@$$CBV?$basic_string@DU?$char_traits@D@std@@V?$allocator@D@2@@std@@V12@@std@@@2@$0A@@std@@@std@@IBEABV?$basic_string@DU?$char_traits@D@std@@V?$allocator@D@2@@2@PAU?$_Tree_node@U?$pair@$$CBV?$basic_string@DU?$char_traits@D@std@@V?$allocator@D@2@@std@@V12@@std@@PAX@2@@Z 0041c1d0 f i ccConfig.obj
 0001:0001b200       ?_Kfn@?$_Tree@V?$_Tmap_traits@V?$basic_string@DU?$char_traits@D@std@@V?$allocator@D@2@@std@@V12@U?$less@V?$basic_string@DU?$char_traits@D@std@@V?$allocator@D@2@@std@@@2@V?$allocator@U?$pair@$$CBV?$basic_string@DU?$char_traits@D@std@@V?$allocator@D@2@@std@@V12@@std@@@2@$0A@@std@@@std@@IBEABV?$basic_string@DU?$char_traits@D@std@@V?$allocator@D@2@@2@ABU?$pair@$$CBV?$basic_string@DU?$char_traits@D@std@@V?$allocator@D@2@@std@@V12@@2@@Z 0041c200 f i ccConfig.obj
 0001:0001b220       ?_Left@?$_Tree_val@U?$_Tree_simple_types@U?$pair@$$CBV?$basic_string@DU?$char_traits@D@std@@V?$allocator@D@2@@std@@V12@@std@@@std@@@std@@SAAAPAU?$_Tree_node@U?$pair@$$CBV?$basic_string@DU?$char_traits@D@std@@V?$allocator@D@2@@std@@V12@@std@@PAX@2@PAU32@@Z 0041c220 f i ccConfig.obj
 0001:0001b230       ?_Lmost@?$_Tree@V?$_Tmap_traits@V?$basic_string@DU?$char_traits@D@std@@V?$allocator@D@2@@std@@V12@U?$less@V?$basic_string@DU?$char_traits@D@std@@V?$allocator@D@2@@std@@@2@V?$allocator@U?$pair@$$CBV?$basic_string@DU?$char_traits@D@std@@V?$allocator@D@2@@std@@V12@@std@@@2@$0A@@std@@@std@@IBEAAPAU?$_Tree_node@U?$pair@$$CBV?$basic_string@DU?$char_traits@D@std@@V?$allocator@D@2@@std@@V12@@std@@PAX@2@XZ 0041c230 f i ccConfig.obj
 0001:0001b250       ?_Lrotate@?$_Tree@V?$_Tmap_traits@V?$basic_string@DU?$char_traits@D@std@@V?$allocator@D@2@@std@@V12@U?$less@V?$basic_string@DU?$char_traits@D@std@@V?$allocator@D@2@@std@@@2@V?$allocator@U?$pair@$$CBV?$basic_string@DU?$char_traits@D@std@@V?$allocator@D@2@@std@@V12@@std@@@2@$0A@@std@@@std@@IAEXPAU?$_Tree_node@U?$pair@$$CBV?$basic_string@DU?$char_traits@D@std@@V?$allocator@D@2@@std@@V12@@std@@PAX@2@@Z 0041c250 f i ccConfig.obj
 0001:0001b3d0       ?_Max@?$_Tree_val@U?$_Tree_simple_types@U?$pair@$$CBV?$basic_string@DU?$char_traits@D@std@@V?$allocator@D@2@@std@@V12@@std@@@std@@@std@@SAPAU?$_Tree_node@U?$pair@$$CBV?$basic_string@DU?$char_traits@D@std@@V?$allocator@D@2@@std@@V12@@std@@PAX@2@PAU32@@Z 0041c3d0 f i ccConfig.obj
 0001:0001b420       ?_Min@?$_Tree_val@U?$_Tree_simple_types@U?$pair@$$CBV?$basic_string@DU?$char_traits@D@std@@V?$allocator@D@2@@std@@V12@@std@@@std@@@std@@SAPAU?$_Tree_node@U?$pair@$$CBV?$basic_string@DU?$char_traits@D@std@@V?$allocator@D@2@@std@@V12@@std@@PAX@2@PAU32@@Z 0041c420 f i ccConfig.obj
 0001:0001b470       ?_Mynode@?$_List_unchecked_const_iterator@V?$_List_val@U?$_List_simple_types@V?$basic_string@DU?$char_traits@D@std@@V?$allocator@D@2@@std@@@std@@@std@@U_Iterator_base0@2@@std@@QBEPAU?$_List_node@V?$basic_string@DU?$char_traits@D@std@@V?$allocator@D@2@@std@@PAX@2@XZ 0041c470 f i ccConfig.obj
 0001:0001b490       ?_Mynode@?$_Tree_unchecked_const_iterator@V?$_Tree_val@U?$_Tree_simple_types@U?$pair@$$CBV?$basic_string@DU?$char_traits@D@std@@V?$allocator@D@2@@std@@V12@@std@@@std@@@std@@U_Iterator_base12@2@@std@@QBEPAU?$_Tree_node@U?$pair@$$CBV?$basic_string@DU?$char_traits@D@std@@V?$allocator@D@2@@std@@V12@@std@@PAX@2@XZ 0041c490 f i ccConfig.obj
 0001:0001b4b0       ?_Myval@?$_List_val@U?$_List_simple_types@V?$basic_string@DU?$char_traits@D@std@@V?$allocator@D@2@@std@@@std@@@std@@SAAAV?$basic_string@DU?$char_traits@D@std@@V?$allocator@D@2@@2@PAU?$_List_node@V?$basic_string@DU?$char_traits@D@std@@V?$allocator@D@2@@std@@PAX@2@@Z 0041c4b0 f i ccConfig.obj
 0001:0001b4c0       ?_Myval@?$_Tree_val@U?$_Tree_simple_types@U?$pair@$$CBV?$basic_string@DU?$char_traits@D@std@@V?$allocator@D@2@@std@@V12@@std@@@std@@@std@@SAAAU?$pair@$$CBV?$basic_string@DU?$char_traits@D@std@@V?$allocator@D@2@@std@@V12@@2@PAU?$_Tree_node@U?$pair@$$CBV?$basic_string@DU?$char_traits@D@std@@V?$allocator@D@2@@std@@V12@@std@@PAX@2@@Z 0041c4c0 f i ccConfig.obj
 0001:0001b4d0       ?_Nextnode@?$_List_val@U?$_List_simple_types@V?$basic_string@DU?$char_traits@D@std@@V?$allocator@D@2@@std@@@std@@@std@@SAAAPAU?$_List_node@V?$basic_string@DU?$char_traits@D@std@@V?$allocator@D@2@@std@@PAX@2@PAU32@@Z 0041c4d0 f i ccConfig.obj
 0001:0001b4e0       ?_Orphan_ptr@?$_Tree@V?$_Tmap_traits@V?$basic_string@DU?$char_traits@D@std@@V?$allocator@D@2@@std@@V12@U?$less@V?$basic_string@DU?$char_traits@D@std@@V?$allocator@D@2@@std@@@2@V?$allocator@U?$pair@$$CBV?$basic_string@DU?$char_traits@D@std@@V?$allocator@D@2@@std@@V12@@std@@@2@$0A@@std@@@std@@IBEXAAV12@PAU?$_Tree_node@U?$pair@$$CBV?$basic_string@DU?$char_traits@D@std@@V?$allocator@D@2@@std@@V12@@std@@PAX@2@@Z 0041c4e0 f i ccConfig.obj
 0001:0001b5e0       ?_Parent@?$_Tree_val@U?$_Tree_simple_types@U?$pair@$$CBV?$basic_string@DU?$char_traits@D@std@@V?$allocator@D@2@@std@@V12@@std@@@std@@@std@@SAAAPAU?$_Tree_node@U?$pair@$$CBV?$basic_string@DU?$char_traits@D@std@@V?$allocator@D@2@@std@@V12@@std@@PAX@2@PAU32@@Z 0041c5e0 f i ccConfig.obj
 0001:0001b5f0       ?_Pdif@?$basic_string@DU?$char_traits@D@std@@V?$allocator@D@2@@std@@SAIV?$_String_const_iterator@V?$_String_val@U?$_Simple_types@D@std@@@std@@@2@0@Z 0041c5f0 f i ccConfig.obj
 0001:0001b690       ?_Prevnode@?$_List_val@U?$_List_simple_types@V?$basic_string@DU?$char_traits@D@std@@V?$allocator@D@2@@std@@@std@@@std@@SAAAPAU?$_List_node@V?$basic_string@DU?$char_traits@D@std@@V?$allocator@D@2@@std@@PAX@2@PAU32@@Z 0041c690 f i ccConfig.obj
 0001:0001b6a0       ?_Right@?$_Tree_val@U?$_Tree_simple_types@U?$pair@$$CBV?$basic_string@DU?$char_traits@D@std@@V?$allocator@D@2@@std@@V12@@std@@@std@@@std@@SAAAPAU?$_Tree_node@U?$pair@$$CBV?$basic_string@DU?$char_traits@D@std@@V?$allocator@D@2@@std@@V12@@std@@PAX@2@PAU32@@Z 0041c6a0 f i ccConfig.obj
 0001:0001b6b0       ?_Rmost@?$_Tree@V?$_Tmap_traits@V?$basic_string@DU?$char_traits@D@std@@V?$allocator@D@2@@std@@V12@U?$less@V?$basic_string@DU?$char_traits@D@std@@V?$allocator@D@2@@std@@@2@V?$allocator@U?$pair@$$CBV?$basic_string@DU?$char_traits@D@std@@V?$allocator@D@2@@std@@V12@@std@@@2@$0A@@std@@@std@@IBEAAPAU?$_Tree_node@U?$pair@$$CBV?$basic_string@DU?$char_traits@D@std@@V?$allocator@D@2@@std@@V12@@std@@PAX@2@XZ 0041c6b0 f i ccConfig.obj
 0001:0001b6d0       ?_Root@?$_Tree@V?$_Tmap_traits@V?$basic_string@DU?$char_traits@D@std@@V?$allocator@D@2@@std@@V12@U?$less@V?$basic_string@DU?$char_traits@D@std@@V?$allocator@D@2@@std@@@2@V?$allocator@U?$pair@$$CBV?$basic_string@DU?$char_traits@D@std@@V?$allocator@D@2@@std@@V12@@std@@@2@$0A@@std@@@std@@IBEAAPAU?$_Tree_node@U?$pair@$$CBV?$basic_string@DU?$char_traits@D@std@@V?$allocator@D@2@@std@@V12@@std@@PAX@2@XZ 0041c6d0 f i ccConfig.obj
 0001:0001b6f0       ?_Rrotate@?$_Tree@V?$_Tmap_traits@V?$basic_string@DU?$char_traits@D@std@@V?$allocator@D@2@@std@@V12@U?$less@V?$basic_string@DU?$char_traits@D@std@@V?$allocator@D@2@@std@@@2@V?$allocator@U?$pair@$$CBV?$basic_string@DU?$char_traits@D@std@@V?$allocator@D@2@@std@@V12@@std@@@2@$0A@@std@@@std@@IAEXPAU?$_Tree_node@U?$pair@$$CBV?$basic_string@DU?$char_traits@D@std@@V?$allocator@D@2@@std@@V12@@std@@PAX@2@@Z 0041c6f0 f i ccConfig.obj
 0001:0001b870       ?_Tidy@?$_Tree@V?$_Tmap_traits@V?$basic_string@DU?$char_traits@D@std@@V?$allocator@D@2@@std@@V12@U?$less@V?$basic_string@DU?$char_traits@D@std@@V?$allocator@D@2@@std@@@2@V?$allocator@U?$pair@$$CBV?$basic_string@DU?$char_traits@D@std@@V?$allocator@D@2@@std@@V12@@std@@@2@$0A@@std@@@std@@IAEXXZ 0041c870 f i ccConfig.obj
 0001:0001b980       ?_Unchecked_end@?$list@V?$basic_string@DU?$char_traits@D@std@@V?$allocator@D@2@@std@@V?$allocator@V?$basic_string@DU?$char_traits@D@std@@V?$allocator@D@2@@std@@@2@@std@@QAE?AV?$_List_unchecked_iterator@V?$_List_val@U?$_List_simple_types@V?$basic_string@DU?$char_traits@D@std@@V?$allocator@D@2@@std@@@std@@@std@@@2@XZ 0041c980 f i ccConfig.obj
 0001:0001b9b0       ?allocate@?$_Wrap_alloc@V?$allocator@U?$_List_node@V?$basic_string@DU?$char_traits@D@std@@V?$allocator@D@2@@std@@PAX@std@@@std@@@std@@QAEPAU?$_List_node@V?$basic_string@DU?$char_traits@D@std@@V?$allocator@D@2@@std@@PAX@2@I@Z 0041c9b0 f i ccConfig.obj
 0001:0001b9d0       ?allocate@?$_Wrap_alloc@V?$allocator@U?$_Tree_node@U?$pair@$$CBV?$basic_string@DU?$char_traits@D@std@@V?$allocator@D@2@@std@@V12@@std@@PAX@std@@@std@@@std@@QAEPAU?$_Tree_node@U?$pair@$$CBV?$basic_string@DU?$char_traits@D@std@@V?$allocator@D@2@@std@@V12@@std@@PAX@2@I@Z 0041c9d0 f i ccConfig.obj
 0001:0001b9f0       ?allocate@?$allocator@U?$_List_node@V?$basic_string@DU?$char_traits@D@std@@V?$allocator@D@2@@std@@PAX@std@@@std@@QAEPAU?$_List_node@V?$basic_string@DU?$char_traits@D@std@@V?$allocator@D@2@@std@@PAX@2@I@Z 0041c9f0 f i ccConfig.obj
 0001:0001ba20       ?allocate@?$allocator@U?$_Tree_node@U?$pair@$$CBV?$basic_string@DU?$char_traits@D@std@@V?$allocator@D@2@@std@@V12@@std@@PAX@std@@@std@@QAEPAU?$_Tree_node@U?$pair@$$CBV?$basic_string@DU?$char_traits@D@std@@V?$allocator@D@2@@std@@V12@@std@@PAX@2@I@Z 0041ca20 f i ccConfig.obj
 0001:0001ba50       ?begin@?$_Tree@V?$_Tmap_traits@V?$basic_string@DU?$char_traits@D@std@@V?$allocator@D@2@@std@@V12@U?$less@V?$basic_string@DU?$char_traits@D@std@@V?$allocator@D@2@@std@@@2@V?$allocator@U?$pair@$$CBV?$basic_string@DU?$char_traits@D@std@@V?$allocator@D@2@@std@@V12@@std@@@2@$0A@@std@@@std@@QAE?AV?$_Tree_iterator@V?$_Tree_val@U?$_Tree_simple_types@U?$pair@$$CBV?$basic_string@DU?$char_traits@D@std@@V?$allocator@D@2@@std@@V12@@std@@@std@@@std@@@2@XZ 0041ca50 f i ccConfig.obj
 0001:0001ba80       ?begin@?$_Tree@V?$_Tmap_traits@V?$basic_string@DU?$char_traits@D@std@@V?$allocator@D@2@@std@@V12@U?$less@V?$basic_string@DU?$char_traits@D@std@@V?$allocator@D@2@@std@@@2@V?$allocator@U?$pair@$$CBV?$basic_string@DU?$char_traits@D@std@@V?$allocator@D@2@@std@@V12@@std@@@2@$0A@@std@@@std@@QBE?AV?$_Tree_const_iterator@V?$_Tree_val@U?$_Tree_simple_types@U?$pair@$$CBV?$basic_string@DU?$char_traits@D@std@@V?$allocator@D@2@@std@@V12@@std@@@std@@@std@@@2@XZ 0041ca80 f i ccConfig.obj
 0001:0001bab0       ?begin@?$basic_string@DU?$char_traits@D@std@@V?$allocator@D@2@@std@@QAE?AV?$_String_iterator@V?$_String_val@U?$_Simple_types@D@std@@@std@@@2@XZ 0041cab0 f i ccConfig.obj
 0001:0001bae0       ?clear@?$_Tree@V?$_Tmap_traits@V?$basic_string@DU?$char_traits@D@std@@V?$allocator@D@2@@std@@V12@U?$less@V?$basic_string@DU?$char_traits@D@std@@V?$allocator@D@2@@std@@@2@V?$allocator@U?$pair@$$CBV?$basic_string@DU?$char_traits@D@std@@V?$allocator@D@2@@std@@V12@@std@@@2@$0A@@std@@@std@@QAEXXZ 0041cae0 f i ccConfig.obj
 0001:0001bb60       ?compare@?$basic_string@DU?$char_traits@D@std@@V?$allocator@D@2@@std@@QBEHABV12@@Z 0041cb60 f i ccConfig.obj
 0001:0001bba0       ?compare@?$basic_string@DU?$char_traits@D@std@@V?$allocator@D@2@@std@@QBEHIIPBDI@Z 0041cba0 f i ccConfig.obj
 0001:0001bcb0       ?compare@?$basic_string@DU?$char_traits@D@std@@V?$allocator@D@2@@std@@QBEHPBD@Z 0041ccb0 f i ccConfig.obj
 0001:0001bd10       ?compare@?$char_traits@D@std@@SAHPBD0I@Z 0041cd10 f i ccConfig.obj
 0001:0001bd50       ?deallocate@?$_Wrap_alloc@V?$allocator@U?$_List_node@V?$basic_string@DU?$char_traits@D@std@@V?$allocator@D@2@@std@@PAX@std@@@std@@@std@@QAEXPAU?$_List_node@V?$basic_string@DU?$char_traits@D@std@@V?$allocator@D@2@@std@@PAX@2@I@Z 0041cd50 f i ccConfig.obj
 0001:0001bd80       ?deallocate@?$_Wrap_alloc@V?$allocator@U?$_Tree_node@U?$pair@$$CBV?$basic_string@DU?$char_traits@D@std@@V?$allocator@D@2@@std@@V12@@std@@PAX@std@@@std@@@std@@QAEXPAU?$_Tree_node@U?$pair@$$CBV?$basic_string@DU?$char_traits@D@std@@V?$allocator@D@2@@std@@V12@@std@@PAX@2@I@Z 0041cd80 f i ccConfig.obj
 0001:0001bdb0       ?deallocate@?$allocator@U?$_List_node@V?$basic_string@DU?$char_traits@D@std@@V?$allocator@D@2@@std@@PAX@std@@@std@@QAEXPAU?$_List_node@V?$basic_string@DU?$char_traits@D@std@@V?$allocator@D@2@@std@@PAX@2@I@Z 0041cdb0 f i ccConfig.obj
 0001:0001bdd0       ?deallocate@?$allocator@U?$_Tree_node@U?$pair@$$CBV?$basic_string@DU?$char_traits@D@std@@V?$allocator@D@2@@std@@V12@@std@@PAX@std@@@std@@QAEXPAU?$_Tree_node@U?$pair@$$CBV?$basic_string@DU?$char_traits@D@std@@V?$allocator@D@2@@std@@V12@@std@@PAX@2@I@Z 0041cdd0 f i ccConfig.obj
 0001:0001bdf0       ?end@?$_Tree@V?$_Tmap_traits@V?$basic_string@DU?$char_traits@D@std@@V?$allocator@D@2@@std@@V12@U?$less@V?$basic_string@DU?$char_traits@D@std@@V?$allocator@D@2@@std@@@2@V?$allocator@U?$pair@$$CBV?$basic_string@DU?$char_traits@D@std@@V?$allocator@D@2@@std@@V12@@std@@@2@$0A@@std@@@std@@QAE?AV?$_Tree_iterator@V?$_Tree_val@U?$_Tree_simple_types@U?$pair@$$CBV?$basic_string@DU?$char_traits@D@std@@V?$allocator@D@2@@std@@V12@@std@@@std@@@std@@@2@XZ 0041cdf0 f i ccConfig.obj
 0001:0001be20       ?end@?$_Tree@V?$_Tmap_traits@V?$basic_string@DU?$char_traits@D@std@@V?$allocator@D@2@@std@@V12@U?$less@V?$basic_string@DU?$char_traits@D@std@@V?$allocator@D@2@@std@@@2@V?$allocator@U?$pair@$$CBV?$basic_string@DU?$char_traits@D@std@@V?$allocator@D@2@@std@@V12@@std@@@2@$0A@@std@@@std@@QBE?AV?$_Tree_const_iterator@V?$_Tree_val@U?$_Tree_simple_types@U?$pair@$$CBV?$basic_string@DU?$char_traits@D@std@@V?$allocator@D@2@@std@@V12@@std@@@std@@@std@@@2@XZ 0041ce20 f i ccConfig.obj
 0001:0001be50       ?end@?$basic_string@DU?$char_traits@D@std@@V?$allocator@D@2@@std@@QAE?AV?$_String_iterator@V?$_String_val@U?$_Simple_types@D@std@@@std@@@2@XZ 0041ce50 f i ccConfig.obj
 0001:0001be90       ?erase@?$_Tree@V?$_Tmap_traits@V?$basic_string@DU?$char_traits@D@std@@V?$allocator@D@2@@std@@V12@U?$less@V?$basic_string@DU?$char_traits@D@std@@V?$allocator@D@2@@std@@@2@V?$allocator@U?$pair@$$CBV?$basic_string@DU?$char_traits@D@std@@V?$allocator@D@2@@std@@V12@@std@@@2@$0A@@std@@@std@@QAE?AV?$_Tree_iterator@V?$_Tree_val@U?$_Tree_simple_types@U?$pair@$$CBV?$basic_string@DU?$char_traits@D@std@@V?$allocator@D@2@@std@@V12@@std@@@std@@@std@@@2@V?$_Tree_const_iterator@V?$_Tree_val@U?$_Tree_simple_types@U?$pair@$$CBV?$basic_string@DU?$char_traits@D@std@@V?$allocator@D@2@@std@@V12@@std@@@std@@@std@@@2@0@Z 0041ce90 f i ccConfig.obj
 0001:0001c0f0       ?erase@?$_Tree@V?$_Tmap_traits@V?$basic_string@DU?$char_traits@D@std@@V?$allocator@D@2@@std@@V12@U?$less@V?$basic_string@DU?$char_traits@D@std@@V?$allocator@D@2@@std@@@2@V?$allocator@U?$pair@$$CBV?$basic_string@DU?$char_traits@D@std@@V?$allocator@D@2@@std@@V12@@std@@@2@$0A@@std@@@std@@QAE?AV?$_Tree_iterator@V?$_Tree_val@U?$_Tree_simple_types@U?$pair@$$CBV?$basic_string@DU?$char_traits@D@std@@V?$allocator@D@2@@std@@V12@@std@@@std@@@std@@@2@V?$_Tree_const_iterator@V?$_Tree_val@U?$_Tree_simple_types@U?$pair@$$CBV?$basic_string@DU?$char_traits@D@std@@V?$allocator@D@2@@std@@V12@@std@@@std@@@std@@@2@@Z 0041d0f0 f i ccConfig.obj
 0001:0001cb10       ?find@?$basic_string@DU?$char_traits@D@std@@V?$allocator@D@2@@std@@QBEIABV12@I@Z 0041db10 f i ccConfig.obj
 0001:0001cb50       ?find@?$basic_string@DU?$char_traits@D@std@@V?$allocator@D@2@@std@@QBEIPBDII@Z 0041db50 f i ccConfig.obj
 0001:0001cc80       ?find@?$char_traits@D@std@@SAPBDPBDIABD@Z 0041dc80 f i ccConfig.obj
 0001:0001ccd0       ?max_size@?$_Tree@V?$_Tmap_traits@V?$basic_string@DU?$char_traits@D@std@@V?$allocator@D@2@@std@@V12@U?$less@V?$basic_string@DU?$char_traits@D@std@@V?$allocator@D@2@@std@@@2@V?$allocator@U?$pair@$$CBV?$basic_string@DU?$char_traits@D@std@@V?$allocator@D@2@@std@@V12@@std@@@2@$0A@@std@@@std@@QBEIXZ 0041dcd0 f i ccConfig.obj
 0001:0001cd00       ?max_size@?$_Wrap_alloc@V?$allocator@U?$_List_node@V?$basic_string@DU?$char_traits@D@std@@V?$allocator@D@2@@std@@PAX@std@@@std@@@std@@QBEIXZ 0041dd00 f i ccConfig.obj
 0001:0001cd20       ?max_size@?$_Wrap_alloc@V?$allocator@U?$_Tree_node@U?$pair@$$CBV?$basic_string@DU?$char_traits@D@std@@V?$allocator@D@2@@std@@V12@@std@@PAX@std@@@std@@@std@@QBEIXZ 0041dd20 f i ccConfig.obj
 0001:0001cd40       ?max_size@?$allocator@U?$_List_node@V?$basic_string@DU?$char_traits@D@std@@V?$allocator@D@2@@std@@PAX@std@@@std@@QBEIXZ 0041dd40 f i ccConfig.obj
 0001:0001cd60       ?max_size@?$allocator@U?$_Tree_node@U?$pair@$$CBV?$basic_string@DU?$char_traits@D@std@@V?$allocator@D@2@@std@@V12@@std@@PAX@std@@@std@@QBEIXZ 0041dd60 f i ccConfig.obj
 0001:0001cd80       ?max_size@?$allocator_traits@V?$allocator@U?$_List_node@V?$basic_string@DU?$char_traits@D@std@@V?$allocator@D@2@@std@@PAX@std@@@std@@@std@@SAIABV?$allocator@U?$_List_node@V?$basic_string@DU?$char_traits@D@std@@V?$allocator@D@2@@std@@PAX@std@@@2@@Z 0041dd80 f i ccConfig.obj
 0001:0001cd90       ?max_size@?$allocator_traits@V?$allocator@U?$_Tree_node@U?$pair@$$CBV?$basic_string@DU?$char_traits@D@std@@V?$allocator@D@2@@std@@V12@@std@@PAX@std@@@std@@@std@@SAIABV?$allocator@U?$_Tree_node@U?$pair@$$CBV?$basic_string@DU?$char_traits@D@std@@V?$allocator@D@2@@std@@V12@@std@@PAX@std@@@2@@Z 0041dd90 f i ccConfig.obj
 0001:0001cda0       ?max_size@?$list@V?$basic_string@DU?$char_traits@D@std@@V?$allocator@D@2@@std@@V?$allocator@V?$basic_string@DU?$char_traits@D@std@@V?$allocator@D@2@@std@@@2@@std@@QBEIXZ 0041dda0 f i ccConfig.obj
 0001:0001cdd0       ?pointer_to@?$pointer_traits@PAU?$pair@$$CBV?$basic_string@DU?$char_traits@D@std@@V?$allocator@D@2@@std@@V12@@std@@@std@@SAPAU?$pair@$$CBV?$basic_string@DU?$char_traits@D@std@@V?$allocator@D@2@@std@@V12@@2@AAU32@@Z 0041ddd0 f i ccConfig.obj
 0001:0001cdf0       ?pointer_to@?$pointer_traits@PBU?$pair@$$CBV?$basic_string@DU?$char_traits@D@std@@V?$allocator@D@2@@std@@V12@@std@@@std@@SAPBU?$pair@$$CBV?$basic_string@DU?$char_traits@D@std@@V?$allocator@D@2@@std@@V12@@2@ABU32@@Z 0041ddf0 f i ccConfig.obj
 0001:0001ce10       ?push_back@?$list@V?$basic_string@DU?$char_traits@D@std@@V?$allocator@D@2@@std@@V?$allocator@V?$basic_string@DU?$char_traits@D@std@@V?$allocator@D@2@@std@@@2@@std@@QAEX$$QAV?$basic_string@DU?$char_traits@D@std@@V?$allocator@D@2@@2@@Z 0041de10 f i ccConfig.obj
 0001:0001ce60       ?replace@?$basic_string@DU?$char_traits@D@std@@V?$allocator@D@2@@std@@QAEAAV12@IIABV12@II@Z 0041de60 f i ccConfig.obj
 0001:0001d1d0       ?replace@?$basic_string@DU?$char_traits@D@std@@V?$allocator@D@2@@std@@QAEAAV12@IIPBDI@Z 0041e1d0 f i ccConfig.obj
 0001:0001d3b0       ?replace@?$basic_string@DU?$char_traits@D@std@@V?$allocator@D@2@@std@@QAEAAV12@V?$_String_const_iterator@V?$_String_val@U?$_Simple_types@D@std@@@std@@@2@0V?$_String_iterator@V?$_String_val@U?$_Simple_types@D@std@@@std@@@2@1@Z 0041e3b0 f i ccConfig.obj
 0001:0001d670       ?strchr@@YAPADPADH@Z       0041e670 f i ccConfig.obj
 0001:0001d690       ??0sizedBuffer@@QAE@XZ     0041e690 f   sizedBuffer.obj
 0001:0001d6c0       ??0sizedBuffer@@QAE@PBEHH@Z 0041e6c0 f   sizedBuffer.obj
 0001:0001d750       ??0sizedBuffer@@QAE@ABV0@@Z 0041e750 f   sizedBuffer.obj
 0001:0001d780       ??1sizedBuffer@@UAE@XZ     0041e780 f   sizedBuffer.obj
 0001:0001d7c0       ??0sizedBuffer@@QAE@$$QAV0@@Z 0041e7c0 f   sizedBuffer.obj
 0001:0001d820       ??4sizedBuffer@@QAEAAV0@$$QAV0@@Z 0041e820 f   sizedBuffer.obj
 0001:0001d880       ?size@sizedBuffer@@QBEHXZ  0041e880 f   sizedBuffer.obj
 0001:0001d8a0       ?data@sizedBuffer@@QBEPBEXZ 0041e8a0 f   sizedBuffer.obj
 0001:0001d8c0       ?ref@sizedBuffer@@QBEHXZ   0041e8c0 f   sizedBuffer.obj
 0001:0001d8e0       ??4sizedBuffer@@QAEAAV0@ABV0@@Z 0041e8e0 f   sizedBuffer.obj
 0001:0001d930       ??8@YA_NABVsizedBuffer@@0@Z 0041e930 f   sizedBuffer.obj
 0001:0001d990       ??AsizedBuffer@@QBEEH@Z    0041e990 f   sizedBuffer.obj
 0001:0001d9c0       ?doCopy@sizedBuffer@@AAEXABV1@@Z 0041e9c0 f   sizedBuffer.obj
 0001:0001db50       ??_GsizedBuffer@@UAEPAXI@Z 0041eb50 f i sizedBuffer.obj
 0001:0001db50       ??_EsizedBuffer@@UAEPAXI@Z 0041eb50 f i sizedBuffer.obj
 0001:0001db90       ?setLog@appGlobal@@SAXPAVQTextEdit@@H@Z 0041eb90 f   appGlobal.obj
 0001:0001dd70       ?setProfile@appGlobal@@SAXABVQString@@@Z 0041ed70 f   appGlobal.obj
 0001:0001dd90       ?profile@appGlobal@@SA?AVQString@@XZ 0041ed90 f   appGlobal.obj
 0001:0001ddf0       ?configFilename@appGlobal@@SA?AVQString@@XZ 0041edf0 f   appGlobal.obj
 0001:0001dee0       ?log@appGlobal@@SAXABVQString@@@Z 0041eee0 f   appGlobal.obj
 0001:0001e050       ?logError@appGlobal@@SAXABVQString@@@Z 0041f050 f   appGlobal.obj
 0001:0001e200       ?dataPath@appGlobal@@SA?AVQString@@ABV2@@Z 0041f200 f   appGlobal.obj
 0001:0001e590       ?setLogging@appGlobal@@SAX_N@Z 0041f590 f   appGlobal.obj
 0001:0001e820       ??0QLatin1Char@@QAE@D@Z    0041f820 f i appGlobal.obj
 0001:0001e840       ??H@YA?BVQString@@ABV0@0@Z 0041f840 f i appGlobal.obj
 0001:0001e8f0       ??H@YA?BVQString@@ABV0@PBD@Z 0041f8f0 f i appGlobal.obj
 0001:0001e9d0       ??H@YA?BVQString@@PBDABV0@@Z 0041f9d0 f i appGlobal.obj
 0001:0001ea80       ??1clientsRegistration@@UAE@XZ 0041fa80 f   clientsRegistration.obj
 0001:0001eb90       ??0clientsRegistration@@QAE@XZ 0041fb90 f   clientsRegistration.obj
 0001:0001ebc0       ?addRegistration@clientsRegistration@@QAEXVclientIPC@@III_N@Z 0041fbc0 f   clientsRegistration.obj
 0001:0001ec10       ?deleteRegistration@clientsRegistration@@QAEXVclientIPC@@III@Z 0041fc10 f   clientsRegistration.obj
 0001:0001edb0       ?deleteAllRegistrations@clientsRegistration@@QAEXVclientIPC@@I@Z 0041fdb0 f   clientsRegistration.obj
 0001:0001ef30       ?getClientList@clientsRegistration@@QAEXIIAAV?$list@VclientIPC@@V?$allocator@VclientIPC@@@std@@@std@@@Z 0041ff30 f   clientsRegistration.obj
 0001:0001f050       ?getClientList@clientsRegistration@@QAEXIAAV?$list@VclientIPC@@V?$allocator@VclientIPC@@@std@@@std@@@Z 00420050 f   clientsRegistration.obj
 0001:0001f150       ?getRationalisedReg@clientsRegistration@@QAEXIAAI0@Z 00420150 f   clientsRegistration.obj
 0001:0001f2a0       ?registrationCount@clientsRegistration@@QAEIXZ 004202a0 f   clientsRegistration.obj
 0001:0001f2c0       ?getRegForClient@clientsRegistration@@QAEXVclientIPC@@AAV?$list@IV?$allocator@I@std@@@std@@@Z 004202c0 f   clientsRegistration.obj
 0001:0001f3e0       ?hasRegistration@clientsRegistration@@QAE_NI@Z 004203e0 f   clientsRegistration.obj
 0001:0001f4c0       ?isRegistered@clientsRegistration@@QAE_NVclientIPC@@III@Z 004204c0 f   clientsRegistration.obj
 0001:0001f610       ?isRegistered@clientsRegistration@@QAE_NVclientIPC@@II@Z 00420610 f   clientsRegistration.obj
 0001:0001f750       ?getRegObject@clientsRegistration@@AAEPAVsingleReg@@VclientIPC@@I_N@Z 00420750 f   clientsRegistration.obj
 0001:0001fcd0       ??$?0AAIAAPAVsingleReg@@X@?$pair@HPAVsingleReg@@@std@@QAE@AAIAAPAVsingleReg@@@Z 00420cd0 f i clientsRegistration.obj
 0001:0001fd20       ??$?0AAV?$_Tree_iterator@V?$_Tree_val@U?$_Tree_simple_types@U?$pair@$$CBIPAVsingleReg@@@std@@@std@@@std@@@std@@_NX@?$pair@V?$_Tree_iterator@V?$_Tree_val@U?$_Tree_simple_types@U?$pair@$$CBIPAVsingleReg@@@std@@@std@@@std@@@std@@_N@std@@QAE@AAV?$_Tree_iterator@V?$_Tree_val@U?$_Tree_simple_types@U?$pair@$$CBIPAVsingleReg@@@std@@@std@@@std@@@1@$$QA_N@Z 00420d20 f i clientsRegistration.obj
 0001:0001fdb0       ??$?0HPAVsingleReg@@X@?$pair@$$CBIPAVsingleReg@@@std@@QAE@$$QAU?$pair@HPAVsingleReg@@@1@@Z 00420db0 f i clientsRegistration.obj
 0001:0001fe00       ??$?0U?$_Tree_node@U?$pair@$$CBIPAVsingleReg@@@std@@PAX@std@@@?$allocator@U_Container_proxy@std@@@std@@QAE@ABV?$allocator@U?$_Tree_node@U?$pair@$$CBIPAVsingleReg@@@std@@PAX@std@@@1@@Z 00420e00 f i clientsRegistration.obj
 0001:0001fe20       ??$?0U?$_Wrap_alloc@V?$allocator@U?$_Tree_node@U?$pair@$$CBIPAVsingleReg@@@std@@PAX@std@@@std@@@std@@@?$_Wrap_alloc@V?$allocator@U_Container_proxy@std@@@std@@@std@@QAE@ABU?$_Wrap_alloc@V?$allocator@U?$_Tree_node@U?$pair@$$CBIPAVsingleReg@@@std@@PAX@std@@@std@@@1@@Z 00420e20 f i clientsRegistration.obj
 0001:0001fe50       ??$?0V?$_Tree_iterator@V?$_Tree_val@U?$_Tree_simple_types@U?$pair@$$CBIPAVsingleReg@@@std@@@std@@@std@@@std@@_NX@?$pair@V?$_Tree_iterator@V?$_Tree_val@U?$_Tree_simple_types@U?$pair@$$CBIPAVsingleReg@@@std@@@std@@@std@@@std@@_N@std@@QAE@$$QAV?$_Tree_iterator@V?$_Tree_val@U?$_Tree_simple_types@U?$pair@$$CBIPAVsingleReg@@@std@@@std@@@std@@@1@$$QA_N@Z 00420e50 f i clientsRegistration.obj
 0001:0001fee0       ??$_Allocate@U?$_List_node@IPAX@std@@@std@@YAPAU?$_List_node@IPAX@0@IPAU10@@Z 00420ee0 f i clientsRegistration.obj
 0001:0001ff30       ??$_Allocate@U?$_List_node@VclientIPC@@PAX@std@@@std@@YAPAU?$_List_node@VclientIPC@@PAX@0@IPAU10@@Z 00420f30 f i clientsRegistration.obj
 0001:0001ff80       ??$_Allocate@U?$_Tree_node@U?$pair@$$CBIPAVsingleReg@@@std@@PAX@std@@@std@@YAPAU?$_Tree_node@U?$pair@$$CBIPAVsingleReg@@@std@@PAX@0@IPAU10@@Z 00420f80 f i clientsRegistration.obj
 0001:0001ffd0       ??$_Buynode@I@?$_List_buy@IV?$allocator@I@std@@@std@@QAEPAU?$_List_node@IPAX@1@PAU21@0$$QAI@Z 00420fd0 f i clientsRegistration.obj
 0001:000200f0       ??$_Buynode@U?$pair@HPAVsingleReg@@@std@@@?$_Tree_buy@U?$pair@$$CBIPAVsingleReg@@@std@@V?$allocator@U?$pair@$$CBIPAVsingleReg@@@std@@@2@@std@@QAEPAU?$_Tree_node@U?$pair@$$CBIPAVsingleReg@@@std@@PAX@1@$$QAU?$pair@HPAVsingleReg@@@1@@Z 004210f0 f i clientsRegistration.obj
 0001:00020220       ??$_Buynode@VclientIPC@@@?$_List_buy@VclientIPC@@V?$allocator@VclientIPC@@@std@@@std@@QAEPAU?$_List_node@VclientIPC@@PAX@1@PAU21@0$$QAVclientIPC@@@Z 00421220 f i clientsRegistration.obj
 0001:00020340       ??$_Buynode_if_nil@AAU?$pair@$$CBIPAVsingleReg@@@std@@@?$_Tree@V?$_Tmap_traits@IPAVsingleReg@@U?$less@I@std@@V?$allocator@U?$pair@$$CBIPAVsingleReg@@@std@@@3@$00@std@@@std@@IAEPAU?$_Tree_node@U?$pair@$$CBIPAVsingleReg@@@std@@PAX@1@PAU21@AAU?$pair@$$CBIPAVsingleReg@@@1@@Z 00421340 f i clientsRegistration.obj
 0001:00020360       ??$_Debug_lt_pred@U?$less@I@std@@ABIABI@std@@YA_NU?$less@I@0@ABI1PB_WI@Z 00421360 f i clientsRegistration.obj
 0001:00020400       ??$_Insert@I@?$list@IV?$allocator@I@std@@@std@@QAEXV?$_List_unchecked_const_iterator@V?$_List_val@U?$_List_simple_types@I@std@@@std@@U_Iterator_base0@2@@1@$$QAI@Z 00421400 f i clientsRegistration.obj
 0001:000204a0       ??$_Insert@VclientIPC@@@?$list@VclientIPC@@V?$allocator@VclientIPC@@@std@@@std@@QAEXV?$_List_unchecked_const_iterator@V?$_List_val@U?$_List_simple_types@VclientIPC@@@std@@@std@@U_Iterator_base0@2@@1@$$QAVclientIPC@@@Z 004214a0 f i clientsRegistration.obj
 0001:00020540       ??$_Insert_at@AAU?$pair@$$CBIPAVsingleReg@@@std@@PAU?$_Tree_node@U?$pair@$$CBIPAVsingleReg@@@std@@PAX@2@@?$_Tree@V?$_Tmap_traits@IPAVsingleReg@@U?$less@I@std@@V?$allocator@U?$pair@$$CBIPAVsingleReg@@@std@@@3@$00@std@@@std@@IAE?AV?$_Tree_iterator@V?$_Tree_val@U?$_Tree_simple_types@U?$pair@$$CBIPAVsingleReg@@@std@@@std@@@std@@@1@_NPAU?$_Tree_node@U?$pair@$$CBIPAVsingleReg@@@std@@PAX@1@AAU?$pair@$$CBIPAVsingleReg@@@1@1@Z 00421540 f i clientsRegistration.obj
 0001:00020a90       ??$_Insert_nohint@AAU?$pair@$$CBIPAVsingleReg@@@std@@PAU?$_Tree_node@U?$pair@$$CBIPAVsingleReg@@@std@@PAX@2@@?$_Tree@V?$_Tmap_traits@IPAVsingleReg@@U?$less@I@std@@V?$allocator@U?$pair@$$CBIPAVsingleReg@@@std@@@3@$00@std@@@std@@IAE?AU?$pair@V?$_Tree_iterator@V?$_Tree_val@U?$_Tree_simple_types@U?$pair@$$CBIPAVsingleReg@@@std@@@std@@@std@@@std@@_N@1@_NAAU?$pair@$$CBIPAVsingleReg@@@1@PAU?$_Tree_node@U?$pair@$$CBIPAVsingleReg@@@std@@PAX@1@@Z 00421a90 f i clientsRegistration.obj
 0001:00021080       ??$_Kfn@$$CBIPAVsingleReg@@@?$_Tmap_traits@IPAVsingleReg@@U?$less@I@std@@V?$allocator@U?$pair@$$CBIPAVsingleReg@@@std@@@3@$00@std@@SAABIABU?$pair@$$CBIPAVsingleReg@@@1@@Z 00422080 f i clientsRegistration.obj
 0001:00021090       ??$addressof@$$CBU?$pair@$$CBIPAVsingleReg@@@std@@@std@@YAPBU?$pair@$$CBIPAVsingleReg@@@0@ABU10@@Z 00422090 f i clientsRegistration.obj
 0001:000210a0       ??$addressof@I@std@@YAPAIAAI@Z 004220a0 f i clientsRegistration.obj
 0001:000210b0       ??$addressof@PAU?$_List_node@IPAX@std@@@std@@YAPAPAU?$_List_node@IPAX@0@AAPAU10@@Z 004220b0 f i clientsRegistration.obj
 0001:000210c0       ??$addressof@PAU?$_List_node@VclientIPC@@PAX@std@@@std@@YAPAPAU?$_List_node@VclientIPC@@PAX@0@AAPAU10@@Z 004220c0 f i clientsRegistration.obj
 0001:000210d0       ??$addressof@PAU?$_Tree_node@U?$pair@$$CBIPAVsingleReg@@@std@@PAX@std@@@std@@YAPAPAU?$_Tree_node@U?$pair@$$CBIPAVsingleReg@@@std@@PAX@0@AAPAU10@@Z 004220d0 f i clientsRegistration.obj
 0001:000210e0       ??$addressof@U?$pair@$$CBIPAVsingleReg@@@std@@@std@@YAPAU?$pair@$$CBIPAVsingleReg@@@0@AAU10@@Z 004220e0 f i clientsRegistration.obj
 0001:000210f0       ??$addressof@VclientIPC@@@std@@YAPAVclientIPC@@AAV1@@Z 004220f0 f i clientsRegistration.obj
 0001:00021100       ??$construct@II@?$_Wrap_alloc@V?$allocator@U?$_List_node@IPAX@std@@@std@@@std@@QAEXPAI$$QAI@Z 00422100 f i clientsRegistration.obj
 0001:00021140       ??$construct@II@?$allocator@U?$_List_node@IPAX@std@@@std@@QAEXPAI$$QAI@Z 00422140 f i clientsRegistration.obj
 0001:000211f0       ??$construct@II@?$allocator_traits@V?$allocator@U?$_List_node@IPAX@std@@@std@@@std@@SAXAAV?$allocator@U?$_List_node@IPAX@std@@@1@PAI$$QAI@Z 004221f0 f i clientsRegistration.obj
 0001:00021220       ??$construct@PAU?$_List_node@IPAX@std@@AAPAU12@@?$_Wrap_alloc@V?$allocator@U?$_List_node@IPAX@std@@@std@@@std@@QAEXPAPAU?$_List_node@IPAX@1@AAPAU21@@Z 00422220 f i clientsRegistration.obj
 0001:00021260       ??$construct@PAU?$_List_node@IPAX@std@@AAPAU12@@?$allocator@U?$_List_node@IPAX@std@@@std@@QAEXPAPAU?$_List_node@IPAX@1@AAPAU21@@Z 00422260 f i clientsRegistration.obj
 0001:00021310       ??$construct@PAU?$_List_node@IPAX@std@@AAPAU12@@?$allocator_traits@V?$allocator@U?$_List_node@IPAX@std@@@std@@@std@@SAXAAV?$allocator@U?$_List_node@IPAX@std@@@1@PAPAU?$_List_node@IPAX@1@AAPAU31@@Z 00422310 f i clientsRegistration.obj
 0001:00021340       ??$construct@PAU?$_List_node@VclientIPC@@PAX@std@@AAPAU12@@?$_Wrap_alloc@V?$allocator@U?$_List_node@VclientIPC@@PAX@std@@@std@@@std@@QAEXPAPAU?$_List_node@VclientIPC@@PAX@1@AAPAU21@@Z 00422340 f i clientsRegistration.obj
 0001:00021380       ??$construct@PAU?$_List_node@VclientIPC@@PAX@std@@AAPAU12@@?$allocator@U?$_List_node@VclientIPC@@PAX@std@@@std@@QAEXPAPAU?$_List_node@VclientIPC@@PAX@1@AAPAU21@@Z 00422380 f i clientsRegistration.obj
 0001:00021430       ??$construct@PAU?$_List_node@VclientIPC@@PAX@std@@AAPAU12@@?$allocator_traits@V?$allocator@U?$_List_node@VclientIPC@@PAX@std@@@std@@@std@@SAXAAV?$allocator@U?$_List_node@VclientIPC@@PAX@std@@@1@PAPAU?$_List_node@VclientIPC@@PAX@1@AAPAU31@@Z 00422430 f i clientsRegistration.obj
 0001:00021460       ??$construct@PAU?$_Tree_node@U?$pair@$$CBIPAVsingleReg@@@std@@PAX@std@@AAPAU12@@?$_Wrap_alloc@V?$allocator@U?$_Tree_node@U?$pair@$$CBIPAVsingleReg@@@std@@PAX@std@@@std@@@std@@QAEXPAPAU?$_Tree_node@U?$pair@$$CBIPAVsingleReg@@@std@@PAX@1@AAPAU21@@Z 00422460 f i clientsRegistration.obj
 0001:000214a0       ??$construct@PAU?$_Tree_node@U?$pair@$$CBIPAVsingleReg@@@std@@PAX@std@@AAPAU12@@?$allocator@U?$_Tree_node@U?$pair@$$CBIPAVsingleReg@@@std@@PAX@std@@@std@@QAEXPAPAU?$_Tree_node@U?$pair@$$CBIPAVsingleReg@@@std@@PAX@1@AAPAU21@@Z 004224a0 f i clientsRegistration.obj
 0001:00021550       ??$construct@PAU?$_Tree_node@U?$pair@$$CBIPAVsingleReg@@@std@@PAX@std@@AAPAU12@@?$allocator_traits@V?$allocator@U?$_Tree_node@U?$pair@$$CBIPAVsingleReg@@@std@@PAX@std@@@std@@@std@@SAXAAV?$allocator@U?$_Tree_node@U?$pair@$$CBIPAVsingleReg@@@std@@PAX@std@@@1@PAPAU?$_Tree_node@U?$pair@$$CBIPAVsingleReg@@@std@@PAX@1@AAPAU31@@Z 00422550 f i clientsRegistration.obj
 0001:00021580       ??$construct@U?$pair@$$CBIPAVsingleReg@@@std@@U?$pair@HPAVsingleReg@@@2@@?$_Wrap_alloc@V?$allocator@U?$_Tree_node@U?$pair@$$CBIPAVsingleReg@@@std@@PAX@std@@@std@@@std@@QAEXPAU?$pair@$$CBIPAVsingleReg@@@1@$$QAU?$pair@HPAVsingleReg@@@1@@Z 00422580 f i clientsRegistration.obj
 0001:000215c0       ??$construct@U?$pair@$$CBIPAVsingleReg@@@std@@U?$pair@HPAVsingleReg@@@2@@?$allocator@U?$_Tree_node@U?$pair@$$CBIPAVsingleReg@@@std@@PAX@std@@@std@@QAEXPAU?$pair@$$CBIPAVsingleReg@@@1@$$QAU?$pair@HPAVsingleReg@@@1@@Z 004225c0 f i clientsRegistration.obj
 0001:00021670       ??$construct@U?$pair@$$CBIPAVsingleReg@@@std@@U?$pair@HPAVsingleReg@@@2@@?$allocator_traits@V?$allocator@U?$_Tree_node@U?$pair@$$CBIPAVsingleReg@@@std@@PAX@std@@@std@@@std@@SAXAAV?$allocator@U?$_Tree_node@U?$pair@$$CBIPAVsingleReg@@@std@@PAX@std@@@1@PAU?$pair@$$CBIPAVsingleReg@@@1@$$QAU?$pair@HPAVsingleReg@@@1@@Z 00422670 f i clientsRegistration.obj
 0001:000216a0       ??$construct@VclientIPC@@V1@@?$_Wrap_alloc@V?$allocator@U?$_List_node@VclientIPC@@PAX@std@@@std@@@std@@QAEXPAVclientIPC@@$$QAV2@@Z 004226a0 f i clientsRegistration.obj
 0001:000216e0       ??$construct@VclientIPC@@V1@@?$allocator@U?$_List_node@VclientIPC@@PAX@std@@@std@@QAEXPAVclientIPC@@$$QAV2@@Z 004226e0 f i clientsRegistration.obj
 0001:00021790       ??$construct@VclientIPC@@V1@@?$allocator_traits@V?$allocator@U?$_List_node@VclientIPC@@PAX@std@@@std@@@std@@SAXAAV?$allocator@U?$_List_node@VclientIPC@@PAX@std@@@1@PAVclientIPC@@$$QAV3@@Z 00422790 f i clientsRegistration.obj
 0001:000217c0       ??$destroy@PAU?$_Tree_node@U?$pair@$$CBIPAVsingleReg@@@std@@PAX@std@@@?$_Wrap_alloc@V?$allocator@U?$_Tree_node@U?$pair@$$CBIPAVsingleReg@@@std@@PAX@std@@@std@@@std@@QAEXPAPAU?$_Tree_node@U?$pair@$$CBIPAVsingleReg@@@std@@PAX@1@@Z 004227c0 f i clientsRegistration.obj
 0001:000217f0       ??$destroy@PAU?$_Tree_node@U?$pair@$$CBIPAVsingleReg@@@std@@PAX@std@@@?$allocator@U?$_Tree_node@U?$pair@$$CBIPAVsingleReg@@@std@@PAX@std@@@std@@QAEXPAPAU?$_Tree_node@U?$pair@$$CBIPAVsingleReg@@@std@@PAX@1@@Z 004227f0 f i clientsRegistration.obj
 0001:00021800       ??$destroy@PAU?$_Tree_node@U?$pair@$$CBIPAVsingleReg@@@std@@PAX@std@@@?$allocator_traits@V?$allocator@U?$_Tree_node@U?$pair@$$CBIPAVsingleReg@@@std@@PAX@std@@@std@@@std@@SAXAAV?$allocator@U?$_Tree_node@U?$pair@$$CBIPAVsingleReg@@@std@@PAX@std@@@1@PAPAU?$_Tree_node@U?$pair@$$CBIPAVsingleReg@@@std@@PAX@1@@Z 00422800 f i clientsRegistration.obj
 0001:00021820       ??$destroy@U?$pair@$$CBIPAVsingleReg@@@std@@@?$_Wrap_alloc@V?$allocator@U?$_Tree_node@U?$pair@$$CBIPAVsingleReg@@@std@@PAX@std@@@std@@@std@@QAEXPAU?$pair@$$CBIPAVsingleReg@@@1@@Z 00422820 f i clientsRegistration.obj
 0001:00021850       ??$destroy@U?$pair@$$CBIPAVsingleReg@@@std@@@?$allocator@U?$_Tree_node@U?$pair@$$CBIPAVsingleReg@@@std@@PAX@std@@@std@@QAEXPAU?$pair@$$CBIPAVsingleReg@@@1@@Z 00422850 f i clientsRegistration.obj
 0001:00021860       ??$destroy@U?$pair@$$CBIPAVsingleReg@@@std@@@?$allocator_traits@V?$allocator@U?$_Tree_node@U?$pair@$$CBIPAVsingleReg@@@std@@PAX@std@@@std@@@std@@SAXAAV?$allocator@U?$_Tree_node@U?$pair@$$CBIPAVsingleReg@@@std@@PAX@std@@@1@PAU?$pair@$$CBIPAVsingleReg@@@1@@Z 00422860 f i clientsRegistration.obj
 0001:00021880       ??$forward@AAI@std@@YAAAIAAI@Z 00422880 f i clientsRegistration.obj
 0001:00021890       ??$forward@AAPAU?$_List_node@IPAX@std@@@std@@YAAAPAU?$_List_node@IPAX@0@AAPAU10@@Z 00422890 f i clientsRegistration.obj
 0001:000218a0       ??$forward@AAPAU?$_List_node@VclientIPC@@PAX@std@@@std@@YAAAPAU?$_List_node@VclientIPC@@PAX@0@AAPAU10@@Z 004228a0 f i clientsRegistration.obj
 0001:000218b0       ??$forward@AAPAU?$_Tree_node@U?$pair@$$CBIPAVsingleReg@@@std@@PAX@std@@@std@@YAAAPAU?$_Tree_node@U?$pair@$$CBIPAVsingleReg@@@std@@PAX@0@AAPAU10@@Z 004228b0 f i clientsRegistration.obj
 0001:000218c0       ??$forward@AAPAVsingleReg@@@std@@YAAAPAVsingleReg@@AAPAV1@@Z 004228c0 f i clientsRegistration.obj
 0001:000218d0       ??$forward@AAU?$pair@$$CBIPAVsingleReg@@@std@@@std@@YAAAU?$pair@$$CBIPAVsingleReg@@@0@AAU10@@Z 004228d0 f i clientsRegistration.obj
 0001:000218e0       ??$forward@AAV?$_Tree_iterator@V?$_Tree_val@U?$_Tree_simple_types@U?$pair@$$CBIPAVsingleReg@@@std@@@std@@@std@@@std@@@std@@YAAAV?$_Tree_iterator@V?$_Tree_val@U?$_Tree_simple_types@U?$pair@$$CBIPAVsingleReg@@@std@@@std@@@std@@@0@AAV10@@Z 004228e0 f i clientsRegistration.obj
 0001:000218f0       ??$forward@ABI@std@@YAABIABI@Z 004228f0 f i clientsRegistration.obj
 0001:00021900       ??$forward@H@std@@YA$$QAHAAH@Z 00422900 f i clientsRegistration.obj
 0001:00021910       ??$forward@I@std@@YA$$QAIAAI@Z 00422910 f i clientsRegistration.obj
 0001:00021920       ??$forward@PAVsingleReg@@@std@@YA$$QAPAVsingleReg@@AAPAV1@@Z 00422920 f i clientsRegistration.obj
 0001:00021930       ??$forward@U?$pair@HPAVsingleReg@@@std@@@std@@YA$$QAU?$pair@HPAVsingleReg@@@0@AAU10@@Z 00422930 f i clientsRegistration.obj
 0001:00021940       ??$forward@V?$_Tree_iterator@V?$_Tree_val@U?$_Tree_simple_types@U?$pair@$$CBIPAVsingleReg@@@std@@@std@@@std@@@std@@@std@@YA$$QAV?$_Tree_iterator@V?$_Tree_val@U?$_Tree_simple_types@U?$pair@$$CBIPAVsingleReg@@@std@@@std@@@std@@@0@AAV10@@Z 00422940 f i clientsRegistration.obj
 0001:00021950       ??$forward@VclientIPC@@@std@@YA$$QAVclientIPC@@AAV1@@Z 00422950 f i clientsRegistration.obj
 0001:00021960       ??$insert@U?$pair@HPAVsingleReg@@@std@@@?$_Tree@V?$_Tmap_traits@IPAVsingleReg@@U?$less@I@std@@V?$allocator@U?$pair@$$CBIPAVsingleReg@@@std@@@3@$00@std@@@std@@QAE?AU?$pair@V?$_Tree_iterator@V?$_Tree_val@U?$_Tree_simple_types@U?$pair@$$CBIPAVsingleReg@@@std@@@std@@@std@@@std@@_N@1@$$QAU?$pair@HPAVsingleReg@@@1@@Z 00422960 f i clientsRegistration.obj
 0001:000219d0       ??$insert@U?$pair@HPAVsingleReg@@@std@@@?$multimap@IPAVsingleReg@@U?$less@I@std@@V?$allocator@U?$pair@$$CBIPAVsingleReg@@@std@@@3@@std@@QAE?AV?$_Tree_iterator@V?$_Tree_val@U?$_Tree_simple_types@U?$pair@$$CBIPAVsingleReg@@@std@@@std@@@std@@@1@$$QAU?$pair@HPAVsingleReg@@@1@@Z 004229d0 f i clientsRegistration.obj
 0001:00021a90       ??0?$_Iterator012@Ubidirectional_iterator_tag@std@@U?$pair@$$CBIPAVsingleReg@@@2@HPBU32@ABU32@U_Iterator_base12@2@@std@@QAE@ABU01@@Z 00422a90 f i clientsRegistration.obj
 0001:00021ac0       ??0?$_Iterator012@Ubidirectional_iterator_tag@std@@U?$pair@$$CBIPAVsingleReg@@@2@HPBU32@ABU32@U_Iterator_base12@2@@std@@QAE@XZ 00422ac0 f i clientsRegistration.obj
 0001:00021ae0       ??0?$_List_unchecked_const_iterator@V?$_List_val@U?$_List_simple_types@I@std@@@std@@U_Iterator_base0@2@@std@@QAE@PAU?$_List_node@IPAX@1@PBV?$_List_val@U?$_List_simple_types@I@std@@@1@@Z 00422ae0 f i clientsRegistration.obj
 0001:00021b10       ??0?$_List_unchecked_const_iterator@V?$_List_val@U?$_List_simple_types@VclientIPC@@@std@@@std@@U_Iterator_base0@2@@std@@QAE@PAU?$_List_node@VclientIPC@@PAX@1@PBV?$_List_val@U?$_List_simple_types@VclientIPC@@@std@@@1@@Z 00422b10 f i clientsRegistration.obj
 0001:00021b40       ??0?$_List_unchecked_iterator@V?$_List_val@U?$_List_simple_types@I@std@@@std@@@std@@QAE@PAU?$_List_node@IPAX@1@PBV?$_List_val@U?$_List_simple_types@I@std@@@1@@Z 00422b40 f i clientsRegistration.obj
 0001:00021b70       ??0?$_List_unchecked_iterator@V?$_List_val@U?$_List_simple_types@VclientIPC@@@std@@@std@@@std@@QAE@PAU?$_List_node@VclientIPC@@PAX@1@PBV?$_List_val@U?$_List_simple_types@VclientIPC@@@std@@@1@@Z 00422b70 f i clientsRegistration.obj
 0001:00021ba0       ??0?$_Tree@V?$_Tmap_traits@IPAVsingleReg@@U?$less@I@std@@V?$allocator@U?$pair@$$CBIPAVsingleReg@@@std@@@3@$00@std@@@std@@QAE@ABU?$less@I@1@ABV?$allocator@U?$pair@$$CBIPAVsingleReg@@@std@@@1@@Z 00422ba0 f i clientsRegistration.obj
 0001:00021bd0       ??0?$_Tree_alloc@$0A@U?$_Tree_base_types@U?$pair@$$CBIPAVsingleReg@@@std@@V?$allocator@U?$pair@$$CBIPAVsingleReg@@@std@@@2@@std@@@std@@QAE@ABV?$allocator@U?$pair@$$CBIPAVsingleReg@@@std@@@1@@Z 00422bd0 f i clientsRegistration.obj
 0001:00021ca0       ??0?$_Tree_buy@U?$pair@$$CBIPAVsingleReg@@@std@@V?$allocator@U?$pair@$$CBIPAVsingleReg@@@std@@@2@@std@@QAE@ABV?$allocator@U?$pair@$$CBIPAVsingleReg@@@std@@@1@@Z 00422ca0 f i clientsRegistration.obj
 0001:00021cd0       ??0?$_Tree_comp@$0A@V?$_Tmap_traits@IPAVsingleReg@@U?$less@I@std@@V?$allocator@U?$pair@$$CBIPAVsingleReg@@@std@@@3@$00@std@@@std@@QAE@ABU?$less@I@1@ABV?$allocator@U?$pair@$$CBIPAVsingleReg@@@std@@@1@@Z 00422cd0 f i clientsRegistration.obj
 0001:00021d00       ??0?$_Tree_const_iterator@V?$_Tree_val@U?$_Tree_simple_types@U?$pair@$$CBIPAVsingleReg@@@std@@@std@@@std@@@std@@QAE@ABV01@@Z 00422d00 f i clientsRegistration.obj
 0001:00021d30       ??0?$_Tree_const_iterator@V?$_Tree_val@U?$_Tree_simple_types@U?$pair@$$CBIPAVsingleReg@@@std@@@std@@@std@@@std@@QAE@PAU?$_Tree_node@U?$pair@$$CBIPAVsingleReg@@@std@@PAX@1@PBV?$_Tree_val@U?$_Tree_simple_types@U?$pair@$$CBIPAVsingleReg@@@std@@@std@@@1@@Z 00422d30 f i clientsRegistration.obj
 0001:00021d60       ??0?$_Tree_iterator@V?$_Tree_val@U?$_Tree_simple_types@U?$pair@$$CBIPAVsingleReg@@@std@@@std@@@std@@@std@@QAE@ABV01@@Z 00422d60 f i clientsRegistration.obj
 0001:00021d90       ??0?$_Tree_iterator@V?$_Tree_val@U?$_Tree_simple_types@U?$pair@$$CBIPAVsingleReg@@@std@@@std@@@std@@@std@@QAE@PAU?$_Tree_node@U?$pair@$$CBIPAVsingleReg@@@std@@PAX@1@PBV?$_Tree_val@U?$_Tree_simple_types@U?$pair@$$CBIPAVsingleReg@@@std@@@std@@@1@@Z 00422d90 f i clientsRegistration.obj
 0001:00021dc0       ??0?$_Tree_unchecked_const_iterator@V?$_Tree_val@U?$_Tree_simple_types@U?$pair@$$CBIPAVsingleReg@@@std@@@std@@@std@@U_Iterator_base12@2@@std@@QAE@ABV01@@Z 00422dc0 f i clientsRegistration.obj
 0001:00021e00       ??0?$_Tree_unchecked_const_iterator@V?$_Tree_val@U?$_Tree_simple_types@U?$pair@$$CBIPAVsingleReg@@@std@@@std@@@std@@U_Iterator_base12@2@@std@@QAE@PAU?$_Tree_node@U?$pair@$$CBIPAVsingleReg@@@std@@PAX@1@PBV?$_Tree_val@U?$_Tree_simple_types@U?$pair@$$CBIPAVsingleReg@@@std@@@std@@@1@@Z 00422e00 f i clientsRegistration.obj
 0001:00021e80       ??0?$_Tree_val@U?$_Tree_simple_types@U?$pair@$$CBIPAVsingleReg@@@std@@@std@@@std@@QAE@XZ 00422e80 f i clientsRegistration.obj
 0001:00021ec0       ??0?$_Wrap_alloc@V?$allocator@U?$_List_node@IPAX@std@@@std@@@std@@QAE@XZ 00422ec0 f i clientsRegistration.obj
 0001:00021ee0       ??0?$_Wrap_alloc@V?$allocator@U?$_List_node@VclientIPC@@PAX@std@@@std@@@std@@QAE@XZ 00422ee0 f i clientsRegistration.obj
 0001:00021f00       ??0?$_Wrap_alloc@V?$allocator@U?$_Tree_node@U?$pair@$$CBIPAVsingleReg@@@std@@PAX@std@@@std@@@std@@QAE@XZ 00422f00 f i clientsRegistration.obj
 0001:00021f20       ??0?$allocator@U?$_List_node@IPAX@std@@@std@@QAE@XZ 00422f20 f i clientsRegistration.obj
 0001:00021f40       ??0?$allocator@U?$_List_node@VclientIPC@@PAX@std@@@std@@QAE@XZ 00422f40 f i clientsRegistration.obj
 0001:00021f60       ??0?$allocator@U?$_Tree_node@U?$pair@$$CBIPAVsingleReg@@@std@@PAX@std@@@std@@QAE@XZ 00422f60 f i clientsRegistration.obj
 0001:00021f80       ??0?$allocator@U?$pair@$$CBIPAVsingleReg@@@std@@@std@@QAE@XZ 00422f80 f i clientsRegistration.obj
 0001:00021fa0       ??0?$multimap@IPAVsingleReg@@U?$less@I@std@@V?$allocator@U?$pair@$$CBIPAVsingleReg@@@std@@@3@@std@@QAE@XZ 00422fa0 f i clientsRegistration.obj
 0001:00021fd0       ??1?$_Iterator012@Ubidirectional_iterator_tag@std@@U?$pair@$$CBIPAVsingleReg@@@2@HPBU32@ABU32@U_Iterator_base12@2@@std@@QAE@XZ 00422fd0 f i clientsRegistration.obj
 0001:00021ff0       ??1?$_Tree@V?$_Tmap_traits@IPAVsingleReg@@U?$less@I@std@@V?$allocator@U?$pair@$$CBIPAVsingleReg@@@std@@@3@$00@std@@@std@@QAE@XZ 00422ff0 f i clientsRegistration.obj
 0001:00022020       ??1?$_Tree_alloc@$0A@U?$_Tree_base_types@U?$pair@$$CBIPAVsingleReg@@@std@@V?$allocator@U?$pair@$$CBIPAVsingleReg@@@std@@@2@@std@@@std@@QAE@XZ 00423020 f i clientsRegistration.obj
 0001:00022060       ??1?$_Tree_buy@U?$pair@$$CBIPAVsingleReg@@@std@@V?$allocator@U?$pair@$$CBIPAVsingleReg@@@std@@@2@@std@@QAE@XZ 00423060 f i clientsRegistration.obj
 0001:00022080       ??1?$_Tree_comp@$0A@V?$_Tmap_traits@IPAVsingleReg@@U?$less@I@std@@V?$allocator@U?$pair@$$CBIPAVsingleReg@@@std@@@3@$00@std@@@std@@QAE@XZ 00423080 f i clientsRegistration.obj
 0001:000220a0       ??1?$_Tree_const_iterator@V?$_Tree_val@U?$_Tree_simple_types@U?$pair@$$CBIPAVsingleReg@@@std@@@std@@@std@@@std@@QAE@XZ 004230a0 f i clientsRegistration.obj
 0001:000220c0       ??1?$_Tree_iterator@V?$_Tree_val@U?$_Tree_simple_types@U?$pair@$$CBIPAVsingleReg@@@std@@@std@@@std@@@std@@QAE@XZ 004230c0 f i clientsRegistration.obj
 0001:000220e0       ??1?$_Tree_unchecked_const_iterator@V?$_Tree_val@U?$_Tree_simple_types@U?$pair@$$CBIPAVsingleReg@@@std@@@std@@@std@@U_Iterator_base12@2@@std@@QAE@XZ 004230e0 f i clientsRegistration.obj
 0001:00022100       ??1?$_Tree_val@U?$_Tree_simple_types@U?$pair@$$CBIPAVsingleReg@@@std@@@std@@@std@@QAE@XZ 00423100 f i clientsRegistration.obj
 0001:00022120       ??1?$multimap@IPAVsingleReg@@U?$less@I@std@@V?$allocator@U?$pair@$$CBIPAVsingleReg@@@std@@@3@@std@@QAE@XZ 00423120 f i clientsRegistration.obj
 0001:00022140       ??1?$pair@V?$_Tree_iterator@V?$_Tree_val@U?$_Tree_simple_types@U?$pair@$$CBIPAVsingleReg@@@std@@@std@@@std@@@std@@_N@std@@QAE@XZ 00423140 f i clientsRegistration.obj
 0001:00022160       ??4?$_Iterator012@Ubidirectional_iterator_tag@std@@U?$pair@$$CBIPAVsingleReg@@@2@HPBU32@ABU32@U_Iterator_base12@2@@std@@QAEAAU01@ABU01@@Z 00423160 f i clientsRegistration.obj
 0001:00022190       ??4?$_Tree_const_iterator@V?$_Tree_val@U?$_Tree_simple_types@U?$pair@$$CBIPAVsingleReg@@@std@@@std@@@std@@@std@@QAEAAV01@ABV01@@Z 00423190 f i clientsRegistration.obj
 0001:000221c0       ??4?$_Tree_iterator@V?$_Tree_val@U?$_Tree_simple_types@U?$pair@$$CBIPAVsingleReg@@@std@@@std@@@std@@@std@@QAEAAV01@ABV01@@Z 004231c0 f i clientsRegistration.obj
 0001:000221f0       ??4?$_Tree_unchecked_const_iterator@V?$_Tree_val@U?$_Tree_simple_types@U?$pair@$$CBIPAVsingleReg@@@std@@@std@@@std@@U_Iterator_base12@2@@std@@QAEAAV01@ABV01@@Z 004231f0 f i clientsRegistration.obj
 0001:00022230       ??8?$_Tree_const_iterator@V?$_Tree_val@U?$_Tree_simple_types@U?$pair@$$CBIPAVsingleReg@@@std@@@std@@@std@@@std@@QBE_NABV01@@Z 00423230 f i clientsRegistration.obj
 0001:00022320       ??8clientIPC@@QAE_NABV0@@Z 00423320 f i clientsRegistration.obj
 0001:00022350       ??9?$_Tree_const_iterator@V?$_Tree_val@U?$_Tree_simple_types@U?$pair@$$CBIPAVsingleReg@@@std@@@std@@@std@@@std@@QBE_NABV01@@Z 00423350 f i clientsRegistration.obj
 0001:000223a0       ??C?$_Tree_const_iterator@V?$_Tree_val@U?$_Tree_simple_types@U?$pair@$$CBIPAVsingleReg@@@std@@@std@@@std@@@std@@QBEPBU?$pair@$$CBIPAVsingleReg@@@1@XZ 004233a0 f i clientsRegistration.obj
 0001:000223d0       ??C?$_Tree_iterator@V?$_Tree_val@U?$_Tree_simple_types@U?$pair@$$CBIPAVsingleReg@@@std@@@std@@@std@@@std@@QBEPAU?$pair@$$CBIPAVsingleReg@@@1@XZ 004233d0 f i clientsRegistration.obj
 0001:00022400       ??D?$_Tree_const_iterator@V?$_Tree_val@U?$_Tree_simple_types@U?$pair@$$CBIPAVsingleReg@@@std@@@std@@@std@@@std@@QBEABU?$pair@$$CBIPAVsingleReg@@@1@XZ 00423400 f i clientsRegistration.obj
 0001:000224e0       ??D?$_Tree_iterator@V?$_Tree_val@U?$_Tree_simple_types@U?$pair@$$CBIPAVsingleReg@@@std@@@std@@@std@@@std@@QBEAAU?$pair@$$CBIPAVsingleReg@@@1@XZ 004234e0 f i clientsRegistration.obj
 0001:00022500       ??E?$_Tree_const_iterator@V?$_Tree_val@U?$_Tree_simple_types@U?$pair@$$CBIPAVsingleReg@@@std@@@std@@@std@@@std@@QAE?AV01@H@Z 00423500 f i clientsRegistration.obj
 0001:000225b0       ??E?$_Tree_const_iterator@V?$_Tree_val@U?$_Tree_simple_types@U?$pair@$$CBIPAVsingleReg@@@std@@@std@@@std@@@std@@QAEAAV01@XZ 004235b0 f i clientsRegistration.obj
 0001:00022690       ??E?$_Tree_iterator@V?$_Tree_val@U?$_Tree_simple_types@U?$pair@$$CBIPAVsingleReg@@@std@@@std@@@std@@@std@@QAEAAV01@XZ 00423690 f i clientsRegistration.obj
 0001:000226b0       ??E?$_Tree_unchecked_const_iterator@V?$_Tree_val@U?$_Tree_simple_types@U?$pair@$$CBIPAVsingleReg@@@std@@@std@@@std@@U_Iterator_base12@2@@std@@QAEAAV01@XZ 004236b0 f i clientsRegistration.obj
 0001:000227a0       ??F?$_Tree_const_iterator@V?$_Tree_val@U?$_Tree_simple_types@U?$pair@$$CBIPAVsingleReg@@@std@@@std@@@std@@@std@@QAEAAV01@XZ 004237a0 f i clientsRegistration.obj
 0001:00022900       ??F?$_Tree_iterator@V?$_Tree_val@U?$_Tree_simple_types@U?$pair@$$CBIPAVsingleReg@@@std@@@std@@@std@@@std@@QAEAAV01@XZ 00423900 f i clientsRegistration.obj
 0001:00022920       ??F?$_Tree_unchecked_const_iterator@V?$_Tree_val@U?$_Tree_simple_types@U?$pair@$$CBIPAVsingleReg@@@std@@@std@@@std@@U_Iterator_base12@2@@std@@QAEAAV01@XZ 00423920 f i clientsRegistration.obj
 0001:00022a50       ??R?$less@I@std@@QBE_NABI0@Z 00423a50 f i clientsRegistration.obj
 0001:00022a90       ??_EclientsRegistration@@UAEPAXI@Z 00423a90 f i clientsRegistration.obj
 0001:00022a90       ??_GclientsRegistration@@UAEPAXI@Z 00423a90 f i clientsRegistration.obj
 0001:00022ad0       ?_Alloc_proxy@?$_Tree_alloc@$0A@U?$_Tree_base_types@U?$pair@$$CBIPAVsingleReg@@@std@@V?$allocator@U?$pair@$$CBIPAVsingleReg@@@std@@@2@@std@@@std@@QAEXXZ 00423ad0 f i clientsRegistration.obj
 0001:00022b40       ?_Buyheadnode@?$_Tree_alloc@$0A@U?$_Tree_base_types@U?$pair@$$CBIPAVsingleReg@@@std@@V?$allocator@U?$pair@$$CBIPAVsingleReg@@@std@@@2@@std@@@std@@QAEPAU?$_Tree_node@U?$pair@$$CBIPAVsingleReg@@@std@@PAX@2@XZ 00423b40 f i clientsRegistration.obj
 0001:00022d00       ?_Buynode0@?$_List_alloc@$0A@U?$_List_base_types@IV?$allocator@I@std@@@std@@@std@@QAEPAU?$_List_node@IPAX@2@PAU32@0@Z 00423d00 f i clientsRegistration.obj
 0001:00022e70       ?_Buynode0@?$_List_alloc@$0A@U?$_List_base_types@VclientIPC@@V?$allocator@VclientIPC@@@std@@@std@@@std@@QAEPAU?$_List_node@VclientIPC@@PAX@2@PAU32@0@Z 00423e70 f i clientsRegistration.obj
 0001:00022fe0       ?_Buynode0@?$_Tree_buy@U?$pair@$$CBIPAVsingleReg@@@std@@V?$allocator@U?$pair@$$CBIPAVsingleReg@@@std@@@2@@std@@QAEPAU?$_Tree_node@U?$pair@$$CBIPAVsingleReg@@@std@@PAX@2@XZ 00423fe0 f i clientsRegistration.obj
 0001:00023180       ?_Color@?$_Tree_val@U?$_Tree_simple_types@U?$pair@$$CBIPAVsingleReg@@@std@@@std@@@std@@SAAADPAU?$_Tree_node@U?$pair@$$CBIPAVsingleReg@@@std@@PAX@2@@Z 00424180 f i clientsRegistration.obj
 0001:00023190       ?_Destroy_if_not_nil@?$_Tree@V?$_Tmap_traits@IPAVsingleReg@@U?$less@I@std@@V?$allocator@U?$pair@$$CBIPAVsingleReg@@@std@@@3@$00@std@@@std@@IAEXPAU?$_Tree_node@U?$pair@$$CBIPAVsingleReg@@@std@@PAX@2@@Z 00424190 f i clientsRegistration.obj
 0001:00023200       ?_Erase@?$_Tree@V?$_Tmap_traits@IPAVsingleReg@@U?$less@I@std@@V?$allocator@U?$pair@$$CBIPAVsingleReg@@@std@@@3@$00@std@@@std@@IAEXPAU?$_Tree_node@U?$pair@$$CBIPAVsingleReg@@@std@@PAX@2@@Z 00424200 f i clientsRegistration.obj
 0001:000232d0       ?_Free_proxy@?$_Tree_alloc@$0A@U?$_Tree_base_types@U?$pair@$$CBIPAVsingleReg@@@std@@V?$allocator@U?$pair@$$CBIPAVsingleReg@@@std@@@2@@std@@@std@@QAEXXZ 004242d0 f i clientsRegistration.obj
 0001:00023340       ?_Freeheadnode@?$_Tree_alloc@$0A@U?$_Tree_base_types@U?$pair@$$CBIPAVsingleReg@@@std@@V?$allocator@U?$pair@$$CBIPAVsingleReg@@@std@@@2@@std@@@std@@QAEXPAU?$_Tree_node@U?$pair@$$CBIPAVsingleReg@@@std@@PAX@2@@Z 00424340 f i clientsRegistration.obj
 0001:00023410       ?_Freenode0@?$_Tree_buy@U?$pair@$$CBIPAVsingleReg@@@std@@V?$allocator@U?$pair@$$CBIPAVsingleReg@@@std@@@2@@std@@QAEXPAU?$_Tree_node@U?$pair@$$CBIPAVsingleReg@@@std@@PAX@2@@Z 00424410 f i clientsRegistration.obj
 0001:000234e0       ?_Getal@?$_List_alloc@$0A@U?$_List_base_types@IV?$allocator@I@std@@@std@@@std@@QBE?AU?$_Wrap_alloc@V?$allocator@U?$_List_node@IPAX@std@@@std@@@2@XZ 004244e0 f i clientsRegistration.obj
 0001:00023500       ?_Getal@?$_List_alloc@$0A@U?$_List_base_types@VclientIPC@@V?$allocator@VclientIPC@@@std@@@std@@@std@@QBE?AU?$_Wrap_alloc@V?$allocator@U?$_List_node@VclientIPC@@PAX@std@@@std@@@2@XZ 00424500 f i clientsRegistration.obj
 0001:00023520       ?_Getal@?$_Tree_alloc@$0A@U?$_Tree_base_types@U?$pair@$$CBIPAVsingleReg@@@std@@V?$allocator@U?$pair@$$CBIPAVsingleReg@@@std@@@2@@std@@@std@@QBE?AU?$_Wrap_alloc@V?$allocator@U?$_Tree_node@U?$pair@$$CBIPAVsingleReg@@@std@@PAX@std@@@std@@@2@XZ 00424520 f i clientsRegistration.obj
 0001:00023540       ?_Getcomp@?$_Tree_comp@$0A@V?$_Tmap_traits@IPAVsingleReg@@U?$less@I@std@@V?$allocator@U?$pair@$$CBIPAVsingleReg@@@std@@@3@$00@std@@@std@@QBE?AU?$less@I@2@XZ 00424540 f i clientsRegistration.obj
 0001:00023560       ?_Incsize@?$list@IV?$allocator@I@std@@@std@@QAEXI@Z 00424560 f i clientsRegistration.obj
 0001:000235b0       ?_Incsize@?$list@VclientIPC@@V?$allocator@VclientIPC@@@std@@@std@@QAEXI@Z 004245b0 f i clientsRegistration.obj
 0001:00023600       ?_Isnil@?$_Tree_val@U?$_Tree_simple_types@U?$pair@$$CBIPAVsingleReg@@@std@@@std@@@std@@SAAADPAU?$_Tree_node@U?$pair@$$CBIPAVsingleReg@@@std@@PAX@2@@Z 00424600 f i clientsRegistration.obj
 0001:00023610       ?_Key@?$_Tree@V?$_Tmap_traits@IPAVsingleReg@@U?$less@I@std@@V?$allocator@U?$pair@$$CBIPAVsingleReg@@@std@@@3@$00@std@@@std@@IBEABIPAU?$_Tree_node@U?$pair@$$CBIPAVsingleReg@@@std@@PAX@2@@Z 00424610 f i clientsRegistration.obj
 0001:00023640       ?_Kfn@?$_Tree@V?$_Tmap_traits@IPAVsingleReg@@U?$less@I@std@@V?$allocator@U?$pair@$$CBIPAVsingleReg@@@std@@@3@$00@std@@@std@@IBEABIABU?$pair@$$CBIPAVsingleReg@@@2@@Z 00424640 f i clientsRegistration.obj
 0001:00023660       ?_Lbound@?$_Tree@V?$_Tmap_traits@IPAVsingleReg@@U?$less@I@std@@V?$allocator@U?$pair@$$CBIPAVsingleReg@@@std@@@3@$00@std@@@std@@IAEPAU?$_Tree_node@U?$pair@$$CBIPAVsingleReg@@@std@@PAX@2@ABI@Z 00424660 f i clientsRegistration.obj
 0001:00023730       ?_Left@?$_Tree_val@U?$_Tree_simple_types@U?$pair@$$CBIPAVsingleReg@@@std@@@std@@@std@@SAAAPAU?$_Tree_node@U?$pair@$$CBIPAVsingleReg@@@std@@PAX@2@PAU32@@Z 00424730 f i clientsRegistration.obj
 0001:00023740       ?_Lmost@?$_Tree@V?$_Tmap_traits@IPAVsingleReg@@U?$less@I@std@@V?$allocator@U?$pair@$$CBIPAVsingleReg@@@std@@@3@$00@std@@@std@@IBEAAPAU?$_Tree_node@U?$pair@$$CBIPAVsingleReg@@@std@@PAX@2@XZ 00424740 f i clientsRegistration.obj
 0001:00023760       ?_Lrotate@?$_Tree@V?$_Tmap_traits@IPAVsingleReg@@U?$less@I@std@@V?$allocator@U?$pair@$$CBIPAVsingleReg@@@std@@@3@$00@std@@@std@@IAEXPAU?$_Tree_node@U?$pair@$$CBIPAVsingleReg@@@std@@PAX@2@@Z 00424760 f i clientsRegistration.obj
 0001:000238e0       ?_Max@?$_Tree_val@U?$_Tree_simple_types@U?$pair@$$CBIPAVsingleReg@@@std@@@std@@@std@@SAPAU?$_Tree_node@U?$pair@$$CBIPAVsingleReg@@@std@@PAX@2@PAU32@@Z 004248e0 f i clientsRegistration.obj
 0001:00023930       ?_Min@?$_Tree_val@U?$_Tree_simple_types@U?$pair@$$CBIPAVsingleReg@@@std@@@std@@@std@@SAPAU?$_Tree_node@U?$pair@$$CBIPAVsingleReg@@@std@@PAX@2@PAU32@@Z 00424930 f i clientsRegistration.obj
 0001:00023980       ?_Mynode@?$_List_unchecked_const_iterator@V?$_List_val@U?$_List_simple_types@I@std@@@std@@U_Iterator_base0@2@@std@@QBEPAU?$_List_node@IPAX@2@XZ 00424980 f i clientsRegistration.obj
 0001:000239a0       ?_Mynode@?$_List_unchecked_const_iterator@V?$_List_val@U?$_List_simple_types@VclientIPC@@@std@@@std@@U_Iterator_base0@2@@std@@QBEPAU?$_List_node@VclientIPC@@PAX@2@XZ 004249a0 f i clientsRegistration.obj
 0001:000239c0       ?_Mynode@?$_Tree_unchecked_const_iterator@V?$_Tree_val@U?$_Tree_simple_types@U?$pair@$$CBIPAVsingleReg@@@std@@@std@@@std@@U_Iterator_base12@2@@std@@QBEPAU?$_Tree_node@U?$pair@$$CBIPAVsingleReg@@@std@@PAX@2@XZ 004249c0 f i clientsRegistration.obj
 0001:000239e0       ?_Myval@?$_List_val@U?$_List_simple_types@I@std@@@std@@SAAAIPAU?$_List_node@IPAX@2@@Z 004249e0 f i clientsRegistration.obj
 0001:000239f0       ?_Myval@?$_List_val@U?$_List_simple_types@VclientIPC@@@std@@@std@@SAAAVclientIPC@@PAU?$_List_node@VclientIPC@@PAX@2@@Z 004249f0 f i clientsRegistration.obj
 0001:00023a00       ?_Myval@?$_Tree_val@U?$_Tree_simple_types@U?$pair@$$CBIPAVsingleReg@@@std@@@std@@@std@@SAAAU?$pair@$$CBIPAVsingleReg@@@2@PAU?$_Tree_node@U?$pair@$$CBIPAVsingleReg@@@std@@PAX@2@@Z 00424a00 f i clientsRegistration.obj
 0001:00023a10       ?_Nextnode@?$_List_val@U?$_List_simple_types@I@std@@@std@@SAAAPAU?$_List_node@IPAX@2@PAU32@@Z 00424a10 f i clientsRegistration.obj
 0001:00023a20       ?_Nextnode@?$_List_val@U?$_List_simple_types@VclientIPC@@@std@@@std@@SAAAPAU?$_List_node@VclientIPC@@PAX@2@PAU32@@Z 00424a20 f i clientsRegistration.obj
 0001:00023a30       ?_Orphan_ptr@?$_Tree@V?$_Tmap_traits@IPAVsingleReg@@U?$less@I@std@@V?$allocator@U?$pair@$$CBIPAVsingleReg@@@std@@@3@$00@std@@@std@@IBEXAAV12@PAU?$_Tree_node@U?$pair@$$CBIPAVsingleReg@@@std@@PAX@2@@Z 00424a30 f i clientsRegistration.obj
 0001:00023b30       ?_Parent@?$_Tree_val@U?$_Tree_simple_types@U?$pair@$$CBIPAVsingleReg@@@std@@@std@@@std@@SAAAPAU?$_Tree_node@U?$pair@$$CBIPAVsingleReg@@@std@@PAX@2@PAU32@@Z 00424b30 f i clientsRegistration.obj
 0001:00023b40       ?_Prevnode@?$_List_val@U?$_List_simple_types@I@std@@@std@@SAAAPAU?$_List_node@IPAX@2@PAU32@@Z 00424b40 f i clientsRegistration.obj
 0001:00023b50       ?_Prevnode@?$_List_val@U?$_List_simple_types@VclientIPC@@@std@@@std@@SAAAPAU?$_List_node@VclientIPC@@PAX@2@PAU32@@Z 00424b50 f i clientsRegistration.obj
 0001:00023b60       ?_Right@?$_Tree_val@U?$_Tree_simple_types@U?$pair@$$CBIPAVsingleReg@@@std@@@std@@@std@@SAAAPAU?$_Tree_node@U?$pair@$$CBIPAVsingleReg@@@std@@PAX@2@PAU32@@Z 00424b60 f i clientsRegistration.obj
 0001:00023b70       ?_Rmost@?$_Tree@V?$_Tmap_traits@IPAVsingleReg@@U?$less@I@std@@V?$allocator@U?$pair@$$CBIPAVsingleReg@@@std@@@3@$00@std@@@std@@IBEAAPAU?$_Tree_node@U?$pair@$$CBIPAVsingleReg@@@std@@PAX@2@XZ 00424b70 f i clientsRegistration.obj
 0001:00023b90       ?_Root@?$_Tree@V?$_Tmap_traits@IPAVsingleReg@@U?$less@I@std@@V?$allocator@U?$pair@$$CBIPAVsingleReg@@@std@@@3@$00@std@@@std@@IBEAAPAU?$_Tree_node@U?$pair@$$CBIPAVsingleReg@@@std@@PAX@2@XZ 00424b90 f i clientsRegistration.obj
 0001:00023bb0       ?_Rrotate@?$_Tree@V?$_Tmap_traits@IPAVsingleReg@@U?$less@I@std@@V?$allocator@U?$pair@$$CBIPAVsingleReg@@@std@@@3@$00@std@@@std@@IAEXPAU?$_Tree_node@U?$pair@$$CBIPAVsingleReg@@@std@@PAX@2@@Z 00424bb0 f i clientsRegistration.obj
 0001:00023d30       ?_Tidy@?$_Tree@V?$_Tmap_traits@IPAVsingleReg@@U?$less@I@std@@V?$allocator@U?$pair@$$CBIPAVsingleReg@@@std@@@3@$00@std@@@std@@IAEXXZ 00424d30 f i clientsRegistration.obj
 0001:00023e40       ?_Unchecked_end@?$list@IV?$allocator@I@std@@@std@@QAE?AV?$_List_unchecked_iterator@V?$_List_val@U?$_List_simple_types@I@std@@@std@@@2@XZ 00424e40 f i clientsRegistration.obj
 0001:00023e70       ?_Unchecked_end@?$list@VclientIPC@@V?$allocator@VclientIPC@@@std@@@std@@QAE?AV?$_List_unchecked_iterator@V?$_List_val@U?$_List_simple_types@VclientIPC@@@std@@@std@@@2@XZ 00424e70 f i clientsRegistration.obj
 0001:00023ea0       ?allocate@?$_Wrap_alloc@V?$allocator@U?$_List_node@IPAX@std@@@std@@@std@@QAEPAU?$_List_node@IPAX@2@I@Z 00424ea0 f i clientsRegistration.obj
 0001:00023ec0       ?allocate@?$_Wrap_alloc@V?$allocator@U?$_List_node@VclientIPC@@PAX@std@@@std@@@std@@QAEPAU?$_List_node@VclientIPC@@PAX@2@I@Z 00424ec0 f i clientsRegistration.obj
 0001:00023ee0       ?allocate@?$_Wrap_alloc@V?$allocator@U?$_Tree_node@U?$pair@$$CBIPAVsingleReg@@@std@@PAX@std@@@std@@@std@@QAEPAU?$_Tree_node@U?$pair@$$CBIPAVsingleReg@@@std@@PAX@2@I@Z 00424ee0 f i clientsRegistration.obj
 0001:00023f00       ?allocate@?$allocator@U?$_List_node@IPAX@std@@@std@@QAEPAU?$_List_node@IPAX@2@I@Z 00424f00 f i clientsRegistration.obj
 0001:00023f30       ?allocate@?$allocator@U?$_List_node@VclientIPC@@PAX@std@@@std@@QAEPAU?$_List_node@VclientIPC@@PAX@2@I@Z 00424f30 f i clientsRegistration.obj
 0001:00023f60       ?allocate@?$allocator@U?$_Tree_node@U?$pair@$$CBIPAVsingleReg@@@std@@PAX@std@@@std@@QAEPAU?$_Tree_node@U?$pair@$$CBIPAVsingleReg@@@std@@PAX@2@I@Z 00424f60 f i clientsRegistration.obj
 0001:00023f90       ?begin@?$_Tree@V?$_Tmap_traits@IPAVsingleReg@@U?$less@I@std@@V?$allocator@U?$pair@$$CBIPAVsingleReg@@@std@@@3@$00@std@@@std@@QAE?AV?$_Tree_iterator@V?$_Tree_val@U?$_Tree_simple_types@U?$pair@$$CBIPAVsingleReg@@@std@@@std@@@std@@@2@XZ 00424f90 f i clientsRegistration.obj
 0001:00023fc0       ?clear@?$_Tree@V?$_Tmap_traits@IPAVsingleReg@@U?$less@I@std@@V?$allocator@U?$pair@$$CBIPAVsingleReg@@@std@@@3@$00@std@@@std@@QAEXXZ 00424fc0 f i clientsRegistration.obj
 0001:00024040       ?deallocate@?$_Wrap_alloc@V?$allocator@U?$_List_node@IPAX@std@@@std@@@std@@QAEXPAU?$_List_node@IPAX@2@I@Z 00425040 f i clientsRegistration.obj
 0001:00024070       ?deallocate@?$_Wrap_alloc@V?$allocator@U?$_List_node@VclientIPC@@PAX@std@@@std@@@std@@QAEXPAU?$_List_node@VclientIPC@@PAX@2@I@Z 00425070 f i clientsRegistration.obj
 0001:000240a0       ?deallocate@?$_Wrap_alloc@V?$allocator@U?$_Tree_node@U?$pair@$$CBIPAVsingleReg@@@std@@PAX@std@@@std@@@std@@QAEXPAU?$_Tree_node@U?$pair@$$CBIPAVsingleReg@@@std@@PAX@2@I@Z 004250a0 f i clientsRegistration.obj
 0001:000240d0       ?deallocate@?$allocator@U?$_List_node@IPAX@std@@@std@@QAEXPAU?$_List_node@IPAX@2@I@Z 004250d0 f i clientsRegistration.obj
 0001:000240f0       ?deallocate@?$allocator@U?$_List_node@VclientIPC@@PAX@std@@@std@@QAEXPAU?$_List_node@VclientIPC@@PAX@2@I@Z 004250f0 f i clientsRegistration.obj
 0001:00024110       ?deallocate@?$allocator@U?$_Tree_node@U?$pair@$$CBIPAVsingleReg@@@std@@PAX@std@@@std@@QAEXPAU?$_Tree_node@U?$pair@$$CBIPAVsingleReg@@@std@@PAX@2@I@Z 00425110 f i clientsRegistration.obj
 0001:00024130       ?end@?$_Tree@V?$_Tmap_traits@IPAVsingleReg@@U?$less@I@std@@V?$allocator@U?$pair@$$CBIPAVsingleReg@@@std@@@3@$00@std@@@std@@QAE?AV?$_Tree_iterator@V?$_Tree_val@U?$_Tree_simple_types@U?$pair@$$CBIPAVsingleReg@@@std@@@std@@@std@@@2@XZ 00425130 f i clientsRegistration.obj
 0001:00024160       ?erase@?$_Tree@V?$_Tmap_traits@IPAVsingleReg@@U?$less@I@std@@V?$allocator@U?$pair@$$CBIPAVsingleReg@@@std@@@3@$00@std@@@std@@QAE?AV?$_Tree_iterator@V?$_Tree_val@U?$_Tree_simple_types@U?$pair@$$CBIPAVsingleReg@@@std@@@std@@@std@@@2@V?$_Tree_const_iterator@V?$_Tree_val@U?$_Tree_simple_types@U?$pair@$$CBIPAVsingleReg@@@std@@@std@@@std@@@2@0@Z 00425160 f i clientsRegistration.obj
 0001:000243c0       ?erase@?$_Tree@V?$_Tmap_traits@IPAVsingleReg@@U?$less@I@std@@V?$allocator@U?$pair@$$CBIPAVsingleReg@@@std@@@3@$00@std@@@std@@QAE?AV?$_Tree_iterator@V?$_Tree_val@U?$_Tree_simple_types@U?$pair@$$CBIPAVsingleReg@@@std@@@std@@@std@@@2@V?$_Tree_const_iterator@V?$_Tree_val@U?$_Tree_simple_types@U?$pair@$$CBIPAVsingleReg@@@std@@@std@@@std@@@2@@Z 004253c0 f i clientsRegistration.obj
 0001:00024de0       ?find@?$_Tree@V?$_Tmap_traits@IPAVsingleReg@@U?$less@I@std@@V?$allocator@U?$pair@$$CBIPAVsingleReg@@@std@@@3@$00@std@@@std@@QAE?AV?$_Tree_iterator@V?$_Tree_val@U?$_Tree_simple_types@U?$pair@$$CBIPAVsingleReg@@@std@@@std@@@std@@@2@ABI@Z 00425de0 f i clientsRegistration.obj
 0001:00024ff0       ?lower_bound@?$_Tree@V?$_Tmap_traits@IPAVsingleReg@@U?$less@I@std@@V?$allocator@U?$pair@$$CBIPAVsingleReg@@@std@@@3@$00@std@@@std@@QAE?AV?$_Tree_iterator@V?$_Tree_val@U?$_Tree_simple_types@U?$pair@$$CBIPAVsingleReg@@@std@@@std@@@std@@@2@ABI@Z 00425ff0 f i clientsRegistration.obj
 0001:00025040       ?max_size@?$_Tree@V?$_Tmap_traits@IPAVsingleReg@@U?$less@I@std@@V?$allocator@U?$pair@$$CBIPAVsingleReg@@@std@@@3@$00@std@@@std@@QBEIXZ 00426040 f i clientsRegistration.obj
 0001:00025070       ?max_size@?$_Wrap_alloc@V?$allocator@U?$_List_node@IPAX@std@@@std@@@std@@QBEIXZ 00426070 f i clientsRegistration.obj
 0001:00025090       ?max_size@?$_Wrap_alloc@V?$allocator@U?$_List_node@VclientIPC@@PAX@std@@@std@@@std@@QBEIXZ 00426090 f i clientsRegistration.obj
 0001:000250b0       ?max_size@?$_Wrap_alloc@V?$allocator@U?$_Tree_node@U?$pair@$$CBIPAVsingleReg@@@std@@PAX@std@@@std@@@std@@QBEIXZ 004260b0 f i clientsRegistration.obj
 0001:000250d0       ?max_size@?$allocator@U?$_List_node@IPAX@std@@@std@@QBEIXZ 004260d0 f i clientsRegistration.obj
 0001:000250f0       ?max_size@?$allocator@U?$_List_node@VclientIPC@@PAX@std@@@std@@QBEIXZ 004260f0 f i clientsRegistration.obj
 0001:00025110       ?max_size@?$allocator@U?$_Tree_node@U?$pair@$$CBIPAVsingleReg@@@std@@PAX@std@@@std@@QBEIXZ 00426110 f i clientsRegistration.obj
 0001:00025130       ?max_size@?$allocator_traits@V?$allocator@U?$_List_node@IPAX@std@@@std@@@std@@SAIABV?$allocator@U?$_List_node@IPAX@std@@@2@@Z 00426130 f i clientsRegistration.obj
 0001:00025140       ?max_size@?$allocator_traits@V?$allocator@U?$_List_node@VclientIPC@@PAX@std@@@std@@@std@@SAIABV?$allocator@U?$_List_node@VclientIPC@@PAX@std@@@2@@Z 00426140 f i clientsRegistration.obj
 0001:00025150       ?max_size@?$allocator_traits@V?$allocator@U?$_Tree_node@U?$pair@$$CBIPAVsingleReg@@@std@@PAX@std@@@std@@@std@@SAIABV?$allocator@U?$_Tree_node@U?$pair@$$CBIPAVsingleReg@@@std@@PAX@std@@@2@@Z 00426150 f i clientsRegistration.obj
 0001:00025160       ?max_size@?$list@IV?$allocator@I@std@@@std@@QBEIXZ 00426160 f i clientsRegistration.obj
 0001:00025190       ?max_size@?$list@VclientIPC@@V?$allocator@VclientIPC@@@std@@@std@@QBEIXZ 00426190 f i clientsRegistration.obj
 0001:000251c0       ?pointer_to@?$pointer_traits@PAU?$pair@$$CBIPAVsingleReg@@@std@@@std@@SAPAU?$pair@$$CBIPAVsingleReg@@@2@AAU32@@Z 004261c0 f i clientsRegistration.obj
 0001:000251e0       ?pointer_to@?$pointer_traits@PBU?$pair@$$CBIPAVsingleReg@@@std@@@std@@SAPBU?$pair@$$CBIPAVsingleReg@@@2@ABU32@@Z 004261e0 f i clientsRegistration.obj
 0001:00025200       ?push_back@?$list@IV?$allocator@I@std@@@std@@QAEX$$QAI@Z 00426200 f i clientsRegistration.obj
 0001:00025250       ?push_back@?$list@VclientIPC@@V?$allocator@VclientIPC@@@std@@@std@@QAEX$$QAVclientIPC@@@Z 00426250 f i clientsRegistration.obj
 0001:000252a0       ?size@?$_Tree@V?$_Tmap_traits@IPAVsingleReg@@U?$less@I@std@@V?$allocator@U?$pair@$$CBIPAVsingleReg@@@std@@@3@$00@std@@@std@@QBEIXZ 004262a0 f i clientsRegistration.obj
 0001:000252c0       ??0databaseSync@@QAE@I@Z   004262c0 f   databaseSync.obj
 0001:00025520       ??1databaseSync@@UAE@XZ    00426520 f   databaseSync.obj
 0001:00025540       ?save@databaseSync@@QAEIIII@Z 00426540 f   databaseSync.obj
 0001:00025e60       ?getDatabaseSync@databaseSync@@SAPAV1@I@Z 00426e60 f   databaseSync.obj
 0001:00025fd0       ?clear@databaseSync@@SAXXZ 00426fd0 f   databaseSync.obj
 0001:000260b0       ?setTransId@databaseSync@@QAEXABVQString@@I@Z 004270b0 f   databaseSync.obj
 0001:00026560       ?transId@databaseSync@@QAEIABVQString@@@Z 00427560 f   databaseSync.obj
 0001:00026950       ?transId@databaseSync@@QAEIXZ 00427950 f   databaseSync.obj
 0001:00026a60       ?getList@databaseSync@@QAE_NIIIAAV?$set@VdbEntry@@U?$less@VdbEntry@@@std@@V?$allocator@VdbEntry@@@3@@std@@@Z 00427a60 f   databaseSync.obj
 0001:00027610       ??$?0AAIAAPAVdatabaseSync@@X@?$pair@IPAVdatabaseSync@@@std@@QAE@AAIAAPAVdatabaseSync@@@Z 00428610 f i databaseSync.obj
 0001:00027660       ??$?0AAV?$_Tree_const_iterator@V?$_Tree_val@U?$_Tree_simple_types@VdbEntry@@@std@@@std@@@std@@_NX@?$pair@V?$_Tree_const_iterator@V?$_Tree_val@U?$_Tree_simple_types@VdbEntry@@@std@@@std@@@std@@_N@std@@QAE@AAV?$_Tree_const_iterator@V?$_Tree_val@U?$_Tree_simple_types@VdbEntry@@@std@@@std@@@1@$$QA_N@Z 00428660 f i databaseSync.obj
 0001:000276f0       ??$?0AAV?$_Tree_iterator@V?$_Tree_val@U?$_Tree_simple_types@U?$pair@$$CBIPAVdatabaseSync@@@std@@@std@@@std@@@std@@_NX@?$pair@V?$_Tree_iterator@V?$_Tree_val@U?$_Tree_simple_types@U?$pair@$$CBIPAVdatabaseSync@@@std@@@std@@@std@@@std@@_N@std@@QAE@AAV?$_Tree_iterator@V?$_Tree_val@U?$_Tree_simple_types@U?$pair@$$CBIPAVdatabaseSync@@@std@@@std@@@std@@@1@$$QA_N@Z 004286f0 f i databaseSync.obj
 0001:00027780       ??$?0IPAVdatabaseSync@@X@?$pair@$$CBIPAVdatabaseSync@@@std@@QAE@$$QAU?$pair@IPAVdatabaseSync@@@1@@Z 00428780 f i databaseSync.obj
 0001:000277d0       ??$?0U?$_Tree_node@U?$pair@$$CBIPAVdatabaseSync@@@std@@PAX@std@@@?$allocator@U_Container_proxy@std@@@std@@QAE@ABV?$allocator@U?$_Tree_node@U?$pair@$$CBIPAVdatabaseSync@@@std@@PAX@std@@@1@@Z 004287d0 f i databaseSync.obj
 0001:000277f0       ??$?0U?$_Wrap_alloc@V?$allocator@U?$_Tree_node@U?$pair@$$CBIPAVdatabaseSync@@@std@@PAX@std@@@std@@@std@@@?$_Wrap_alloc@V?$allocator@U_Container_proxy@std@@@std@@@std@@QAE@ABU?$_Wrap_alloc@V?$allocator@U?$_Tree_node@U?$pair@$$CBIPAVdatabaseSync@@@std@@PAX@std@@@std@@@1@@Z 004287f0 f i databaseSync.obj
 0001:00027820       ??$?0V?$_Tree_const_iterator@V?$_Tree_val@U?$_Tree_simple_types@VdbEntry@@@std@@@std@@@std@@_NX@?$pair@V?$_Tree_const_iterator@V?$_Tree_val@U?$_Tree_simple_types@VdbEntry@@@std@@@std@@@std@@_N@std@@QAE@$$QAV?$_Tree_const_iterator@V?$_Tree_val@U?$_Tree_simple_types@VdbEntry@@@std@@@std@@@1@$$QA_N@Z 00428820 f i databaseSync.obj
 0001:000278b0       ??$?0V?$_Tree_iterator@V?$_Tree_val@U?$_Tree_simple_types@U?$pair@$$CBIPAVdatabaseSync@@@std@@@std@@@std@@@std@@_NX@?$pair@V?$_Tree_iterator@V?$_Tree_val@U?$_Tree_simple_types@U?$pair@$$CBIPAVdatabaseSync@@@std@@@std@@@std@@@std@@_N@std@@QAE@$$QAV?$_Tree_iterator@V?$_Tree_val@U?$_Tree_simple_types@U?$pair@$$CBIPAVdatabaseSync@@@std@@@std@@@std@@@1@$$QA_N@Z 004288b0 f i databaseSync.obj
 0001:00027940       ??$_Allocate@U?$_Tree_node@U?$pair@$$CBIPAVdatabaseSync@@@std@@PAX@std@@@std@@YAPAU?$_Tree_node@U?$pair@$$CBIPAVdatabaseSync@@@std@@PAX@0@IPAU10@@Z 00428940 f i databaseSync.obj
 0001:00027990       ??$_Allocate@U?$_Tree_node@VdbEntry@@PAX@std@@@std@@YAPAU?$_Tree_node@VdbEntry@@PAX@0@IPAU10@@Z 00428990 f i databaseSync.obj
 0001:000279e0       ??$_Buynode@U?$pair@IPAVdatabaseSync@@@std@@@?$_Tree_buy@U?$pair@$$CBIPAVdatabaseSync@@@std@@V?$allocator@U?$pair@$$CBIPAVdatabaseSync@@@std@@@2@@std@@QAEPAU?$_Tree_node@U?$pair@$$CBIPAVdatabaseSync@@@std@@PAX@1@$$QAU?$pair@IPAVdatabaseSync@@@1@@Z 004289e0 f i databaseSync.obj
 0001:00027b10       ??$_Buynode@VdbEntry@@@?$_Tree_buy@VdbEntry@@V?$allocator@VdbEntry@@@std@@@std@@QAEPAU?$_Tree_node@VdbEntry@@PAX@1@$$QAVdbEntry@@@Z 00428b10 f i databaseSync.obj
 0001:00027c40       ??$_Buynode_if_nil@AAU?$pair@$$CBIPAVdatabaseSync@@@std@@@?$_Tree@V?$_Tmap_traits@IPAVdatabaseSync@@U?$less@I@std@@V?$allocator@U?$pair@$$CBIPAVdatabaseSync@@@std@@@3@$0A@@std@@@std@@IAEPAU?$_Tree_node@U?$pair@$$CBIPAVdatabaseSync@@@std@@PAX@1@PAU21@AAU?$pair@$$CBIPAVdatabaseSync@@@1@@Z 00428c40 f i databaseSync.obj
 0001:00027c60       ??$_Buynode_if_nil@VdbEntry@@@?$_Tree@V?$_Tset_traits@VdbEntry@@U?$less@VdbEntry@@@std@@V?$allocator@VdbEntry@@@3@$0A@@std@@@std@@IAEPAU?$_Tree_node@VdbEntry@@PAX@1@U_Nil@1@$$QAVdbEntry@@@Z 00428c60 f i databaseSync.obj
 0001:00027c90       ??$_Debug_lt_pred@U?$less@VdbEntry@@@std@@ABVdbEntry@@ABV3@@std@@YA_NU?$less@VdbEntry@@@0@ABVdbEntry@@1PB_WI@Z 00428c90 f i databaseSync.obj
 0001:00027d30       ??$_Insert_at@AAU?$pair@$$CBIPAVdatabaseSync@@@std@@PAU?$_Tree_node@U?$pair@$$CBIPAVdatabaseSync@@@std@@PAX@2@@?$_Tree@V?$_Tmap_traits@IPAVdatabaseSync@@U?$less@I@std@@V?$allocator@U?$pair@$$CBIPAVdatabaseSync@@@std@@@3@$0A@@std@@@std@@IAE?AV?$_Tree_iterator@V?$_Tree_val@U?$_Tree_simple_types@U?$pair@$$CBIPAVdatabaseSync@@@std@@@std@@@std@@@1@_NPAU?$_Tree_node@U?$pair@$$CBIPAVdatabaseSync@@@std@@PAX@1@AAU?$pair@$$CBIPAVdatabaseSync@@@1@1@Z 00428d30 f i databaseSync.obj
 0001:00028280       ??$_Insert_at@VdbEntry@@U_Nil@std@@@?$_Tree@V?$_Tset_traits@VdbEntry@@U?$less@VdbEntry@@@std@@V?$allocator@VdbEntry@@@3@$0A@@std@@@std@@IAE?AV?$_Tree_const_iterator@V?$_Tree_val@U?$_Tree_simple_types@VdbEntry@@@std@@@std@@@1@_NPAU?$_Tree_node@VdbEntry@@PAX@1@$$QAVdbEntry@@U_Nil@1@@Z 00429280 f i databaseSync.obj
 0001:000287d0       ??$_Insert_nohint@AAU?$pair@$$CBIPAVdatabaseSync@@@std@@PAU?$_Tree_node@U?$pair@$$CBIPAVdatabaseSync@@@std@@PAX@2@@?$_Tree@V?$_Tmap_traits@IPAVdatabaseSync@@U?$less@I@std@@V?$allocator@U?$pair@$$CBIPAVdatabaseSync@@@std@@@3@$0A@@std@@@std@@IAE?AU?$pair@V?$_Tree_iterator@V?$_Tree_val@U?$_Tree_simple_types@U?$pair@$$CBIPAVdatabaseSync@@@std@@@std@@@std@@@std@@_N@1@_NAAU?$pair@$$CBIPAVdatabaseSync@@@1@PAU?$_Tree_node@U?$pair@$$CBIPAVdatabaseSync@@@std@@PAX@1@@Z 004297d0 f i databaseSync.obj
 0001:00028db0       ??$_Insert_nohint@VdbEntry@@U_Nil@std@@@?$_Tree@V?$_Tset_traits@VdbEntry@@U?$less@VdbEntry@@@std@@V?$allocator@VdbEntry@@@3@$0A@@std@@@std@@IAE?AU?$pair@V?$_Tree_const_iterator@V?$_Tree_val@U?$_Tree_simple_types@VdbEntry@@@std@@@std@@@std@@_N@1@_N$$QAVdbEntry@@U_Nil@1@@Z 00429db0 f i databaseSync.obj
 0001:000293a0       ??$_Kfn@$$CBIPAVdatabaseSync@@@?$_Tmap_traits@IPAVdatabaseSync@@U?$less@I@std@@V?$allocator@U?$pair@$$CBIPAVdatabaseSync@@@std@@@3@$0A@@std@@SAABIABU?$pair@$$CBIPAVdatabaseSync@@@1@@Z 0042a3a0 f i databaseSync.obj
 0001:000293b0       ??$addressof@$$CBU?$pair@$$CBIPAVdatabaseSync@@@std@@@std@@YAPBU?$pair@$$CBIPAVdatabaseSync@@@0@ABU10@@Z 0042a3b0 f i databaseSync.obj
 0001:000293c0       ??$addressof@PAU?$_Tree_node@U?$pair@$$CBIPAVdatabaseSync@@@std@@PAX@std@@@std@@YAPAPAU?$_Tree_node@U?$pair@$$CBIPAVdatabaseSync@@@std@@PAX@0@AAPAU10@@Z 0042a3c0 f i databaseSync.obj
 0001:000293d0       ??$addressof@PAU?$_Tree_node@VdbEntry@@PAX@std@@@std@@YAPAPAU?$_Tree_node@VdbEntry@@PAX@0@AAPAU10@@Z 0042a3d0 f i databaseSync.obj
 0001:000293e0       ??$addressof@U?$pair@$$CBIPAVdatabaseSync@@@std@@@std@@YAPAU?$pair@$$CBIPAVdatabaseSync@@@0@AAU10@@Z 0042a3e0 f i databaseSync.obj
 0001:000293f0       ??$addressof@VdbEntry@@@std@@YAPAVdbEntry@@AAV1@@Z 0042a3f0 f i databaseSync.obj
 0001:00029400       ??$atomic@H@?$QAtomicOpsBySize@$03@@CAPAJPAH@Z 0042a400 f i databaseSync.obj
 0001:00029410       ??$construct@PAU?$_Tree_node@U?$pair@$$CBIPAVdatabaseSync@@@std@@PAX@std@@AAPAU12@@?$_Wrap_alloc@V?$allocator@U?$_Tree_node@U?$pair@$$CBIPAVdatabaseSync@@@std@@PAX@std@@@std@@@std@@QAEXPAPAU?$_Tree_node@U?$pair@$$CBIPAVdatabaseSync@@@std@@PAX@1@AAPAU21@@Z 0042a410 f i databaseSync.obj
 0001:00029450       ??$construct@PAU?$_Tree_node@U?$pair@$$CBIPAVdatabaseSync@@@std@@PAX@std@@AAPAU12@@?$allocator@U?$_Tree_node@U?$pair@$$CBIPAVdatabaseSync@@@std@@PAX@std@@@std@@QAEXPAPAU?$_Tree_node@U?$pair@$$CBIPAVdatabaseSync@@@std@@PAX@1@AAPAU21@@Z 0042a450 f i databaseSync.obj
 0001:00029500       ??$construct@PAU?$_Tree_node@U?$pair@$$CBIPAVdatabaseSync@@@std@@PAX@std@@AAPAU12@@?$allocator_traits@V?$allocator@U?$_Tree_node@U?$pair@$$CBIPAVdatabaseSync@@@std@@PAX@std@@@std@@@std@@SAXAAV?$allocator@U?$_Tree_node@U?$pair@$$CBIPAVdatabaseSync@@@std@@PAX@std@@@1@PAPAU?$_Tree_node@U?$pair@$$CBIPAVdatabaseSync@@@std@@PAX@1@AAPAU31@@Z 0042a500 f i databaseSync.obj
 0001:00029530       ??$construct@PAU?$_Tree_node@VdbEntry@@PAX@std@@AAPAU12@@?$_Wrap_alloc@V?$allocator@U?$_Tree_node@VdbEntry@@PAX@std@@@std@@@std@@QAEXPAPAU?$_Tree_node@VdbEntry@@PAX@1@AAPAU21@@Z 0042a530 f i databaseSync.obj
 0001:00029570       ??$construct@PAU?$_Tree_node@VdbEntry@@PAX@std@@AAPAU12@@?$allocator@U?$_Tree_node@VdbEntry@@PAX@std@@@std@@QAEXPAPAU?$_Tree_node@VdbEntry@@PAX@1@AAPAU21@@Z 0042a570 f i databaseSync.obj
 0001:00029620       ??$construct@PAU?$_Tree_node@VdbEntry@@PAX@std@@AAPAU12@@?$allocator_traits@V?$allocator@U?$_Tree_node@VdbEntry@@PAX@std@@@std@@@std@@SAXAAV?$allocator@U?$_Tree_node@VdbEntry@@PAX@std@@@1@PAPAU?$_Tree_node@VdbEntry@@PAX@1@AAPAU31@@Z 0042a620 f i databaseSync.obj
 0001:00029650       ??$construct@U?$pair@$$CBIPAVdatabaseSync@@@std@@U?$pair@IPAVdatabaseSync@@@2@@?$_Wrap_alloc@V?$allocator@U?$_Tree_node@U?$pair@$$CBIPAVdatabaseSync@@@std@@PAX@std@@@std@@@std@@QAEXPAU?$pair@$$CBIPAVdatabaseSync@@@1@$$QAU?$pair@IPAVdatabaseSync@@@1@@Z 0042a650 f i databaseSync.obj
 0001:00029690       ??$construct@U?$pair@$$CBIPAVdatabaseSync@@@std@@U?$pair@IPAVdatabaseSync@@@2@@?$allocator@U?$_Tree_node@U?$pair@$$CBIPAVdatabaseSync@@@std@@PAX@std@@@std@@QAEXPAU?$pair@$$CBIPAVdatabaseSync@@@1@$$QAU?$pair@IPAVdatabaseSync@@@1@@Z 0042a690 f i databaseSync.obj
 0001:00029740       ??$construct@U?$pair@$$CBIPAVdatabaseSync@@@std@@U?$pair@IPAVdatabaseSync@@@2@@?$allocator_traits@V?$allocator@U?$_Tree_node@U?$pair@$$CBIPAVdatabaseSync@@@std@@PAX@std@@@std@@@std@@SAXAAV?$allocator@U?$_Tree_node@U?$pair@$$CBIPAVdatabaseSync@@@std@@PAX@std@@@1@PAU?$pair@$$CBIPAVdatabaseSync@@@1@$$QAU?$pair@IPAVdatabaseSync@@@1@@Z 0042a740 f i databaseSync.obj
 0001:00029770       ??$construct@VdbEntry@@V1@@?$_Wrap_alloc@V?$allocator@U?$_Tree_node@VdbEntry@@PAX@std@@@std@@@std@@QAEXPAVdbEntry@@$$QAV2@@Z 0042a770 f i databaseSync.obj
 0001:000297b0       ??$construct@VdbEntry@@V1@@?$allocator@U?$_Tree_node@VdbEntry@@PAX@std@@@std@@QAEXPAVdbEntry@@$$QAV2@@Z 0042a7b0 f i databaseSync.obj
 0001:00029860       ??$construct@VdbEntry@@V1@@?$allocator_traits@V?$allocator@U?$_Tree_node@VdbEntry@@PAX@std@@@std@@@std@@SAXAAV?$allocator@U?$_Tree_node@VdbEntry@@PAX@std@@@1@PAVdbEntry@@$$QAV3@@Z 0042a860 f i databaseSync.obj
 0001:00029890       ??$deref@H@?$QAtomicOpsBySize@$03@@SA_NAAH@Z 0042a890 f i databaseSync.obj
 0001:000298d0       ??$destroy@PAU?$_Tree_node@U?$pair@$$CBIPAVdatabaseSync@@@std@@PAX@std@@@?$_Wrap_alloc@V?$allocator@U?$_Tree_node@U?$pair@$$CBIPAVdatabaseSync@@@std@@PAX@std@@@std@@@std@@QAEXPAPAU?$_Tree_node@U?$pair@$$CBIPAVdatabaseSync@@@std@@PAX@1@@Z 0042a8d0 f i databaseSync.obj
 0001:00029900       ??$destroy@PAU?$_Tree_node@U?$pair@$$CBIPAVdatabaseSync@@@std@@PAX@std@@@?$allocator@U?$_Tree_node@U?$pair@$$CBIPAVdatabaseSync@@@std@@PAX@std@@@std@@QAEXPAPAU?$_Tree_node@U?$pair@$$CBIPAVdatabaseSync@@@std@@PAX@1@@Z 0042a900 f i databaseSync.obj
 0001:00029910       ??$destroy@PAU?$_Tree_node@U?$pair@$$CBIPAVdatabaseSync@@@std@@PAX@std@@@?$allocator_traits@V?$allocator@U?$_Tree_node@U?$pair@$$CBIPAVdatabaseSync@@@std@@PAX@std@@@std@@@std@@SAXAAV?$allocator@U?$_Tree_node@U?$pair@$$CBIPAVdatabaseSync@@@std@@PAX@std@@@1@PAPAU?$_Tree_node@U?$pair@$$CBIPAVdatabaseSync@@@std@@PAX@1@@Z 0042a910 f i databaseSync.obj
 0001:00029930       ??$destroy@PAU?$_Tree_node@VdbEntry@@PAX@std@@@?$_Wrap_alloc@V?$allocator@U?$_Tree_node@VdbEntry@@PAX@std@@@std@@@std@@QAEXPAPAU?$_Tree_node@VdbEntry@@PAX@1@@Z 0042a930 f i databaseSync.obj
 0001:00029960       ??$destroy@PAU?$_Tree_node@VdbEntry@@PAX@std@@@?$allocator@U?$_Tree_node@VdbEntry@@PAX@std@@@std@@QAEXPAPAU?$_Tree_node@VdbEntry@@PAX@1@@Z 0042a960 f i databaseSync.obj
 0001:00029970       ??$destroy@PAU?$_Tree_node@VdbEntry@@PAX@std@@@?$allocator_traits@V?$allocator@U?$_Tree_node@VdbEntry@@PAX@std@@@std@@@std@@SAXAAV?$allocator@U?$_Tree_node@VdbEntry@@PAX@std@@@1@PAPAU?$_Tree_node@VdbEntry@@PAX@1@@Z 0042a970 f i databaseSync.obj
 0001:00029990       ??$destroy@U?$pair@$$CBIPAVdatabaseSync@@@std@@@?$_Wrap_alloc@V?$allocator@U?$_Tree_node@U?$pair@$$CBIPAVdatabaseSync@@@std@@PAX@std@@@std@@@std@@QAEXPAU?$pair@$$CBIPAVdatabaseSync@@@1@@Z 0042a990 f i databaseSync.obj
 0001:000299c0       ??$destroy@U?$pair@$$CBIPAVdatabaseSync@@@std@@@?$allocator@U?$_Tree_node@U?$pair@$$CBIPAVdatabaseSync@@@std@@PAX@std@@@std@@QAEXPAU?$pair@$$CBIPAVdatabaseSync@@@1@@Z 0042a9c0 f i databaseSync.obj
 0001:000299d0       ??$destroy@U?$pair@$$CBIPAVdatabaseSync@@@std@@@?$allocator_traits@V?$allocator@U?$_Tree_node@U?$pair@$$CBIPAVdatabaseSync@@@std@@PAX@std@@@std@@@std@@SAXAAV?$allocator@U?$_Tree_node@U?$pair@$$CBIPAVdatabaseSync@@@std@@PAX@std@@@1@PAU?$pair@$$CBIPAVdatabaseSync@@@1@@Z 0042a9d0 f i databaseSync.obj
 0001:000299f0       ??$forward@AAPAU?$_Tree_node@U?$pair@$$CBIPAVdatabaseSync@@@std@@PAX@std@@@std@@YAAAPAU?$_Tree_node@U?$pair@$$CBIPAVdatabaseSync@@@std@@PAX@0@AAPAU10@@Z 0042a9f0 f i databaseSync.obj
 0001:00029a00       ??$forward@AAPAU?$_Tree_node@VdbEntry@@PAX@std@@@std@@YAAAPAU?$_Tree_node@VdbEntry@@PAX@0@AAPAU10@@Z 0042aa00 f i databaseSync.obj
 0001:00029a10       ??$forward@AAPAVdatabaseSync@@@std@@YAAAPAVdatabaseSync@@AAPAV1@@Z 0042aa10 f i databaseSync.obj
 0001:00029a20       ??$forward@AAU?$pair@$$CBIPAVdatabaseSync@@@std@@@std@@YAAAU?$pair@$$CBIPAVdatabaseSync@@@0@AAU10@@Z 0042aa20 f i databaseSync.obj
 0001:00029a30       ??$forward@AAV?$_Tree_const_iterator@V?$_Tree_val@U?$_Tree_simple_types@VdbEntry@@@std@@@std@@@std@@@std@@YAAAV?$_Tree_const_iterator@V?$_Tree_val@U?$_Tree_simple_types@VdbEntry@@@std@@@std@@@0@AAV10@@Z 0042aa30 f i databaseSync.obj
 0001:00029a40       ??$forward@AAV?$_Tree_iterator@V?$_Tree_val@U?$_Tree_simple_types@U?$pair@$$CBIPAVdatabaseSync@@@std@@@std@@@std@@@std@@@std@@YAAAV?$_Tree_iterator@V?$_Tree_val@U?$_Tree_simple_types@U?$pair@$$CBIPAVdatabaseSync@@@std@@@std@@@std@@@0@AAV10@@Z 0042aa40 f i databaseSync.obj
 0001:00029a50       ??$forward@ABVdbEntry@@@std@@YAABVdbEntry@@ABV1@@Z 0042aa50 f i databaseSync.obj
 0001:00029a60       ??$forward@PAVdatabaseSync@@@std@@YA$$QAPAVdatabaseSync@@AAPAV1@@Z 0042aa60 f i databaseSync.obj
 0001:00029a70       ??$forward@U?$pair@IPAVdatabaseSync@@@std@@@std@@YA$$QAU?$pair@IPAVdatabaseSync@@@0@AAU10@@Z 0042aa70 f i databaseSync.obj
 0001:00029a80       ??$forward@V?$_Tree_const_iterator@V?$_Tree_val@U?$_Tree_simple_types@VdbEntry@@@std@@@std@@@std@@@std@@YA$$QAV?$_Tree_const_iterator@V?$_Tree_val@U?$_Tree_simple_types@VdbEntry@@@std@@@std@@@0@AAV10@@Z 0042aa80 f i databaseSync.obj
 0001:00029a90       ??$forward@V?$_Tree_iterator@V?$_Tree_val@U?$_Tree_simple_types@U?$pair@$$CBIPAVdatabaseSync@@@std@@@std@@@std@@@std@@@std@@YA$$QAV?$_Tree_iterator@V?$_Tree_val@U?$_Tree_simple_types@U?$pair@$$CBIPAVdatabaseSync@@@std@@@std@@@std@@@0@AAV10@@Z 0042aa90 f i databaseSync.obj
 0001:00029aa0       ??$forward@VdbEntry@@@std@@YA$$QAVdbEntry@@AAV1@@Z 0042aaa0 f i databaseSync.obj
 0001:00029ab0       ??$insert@U?$pair@IPAVdatabaseSync@@@std@@@?$_Tree@V?$_Tmap_traits@IPAVdatabaseSync@@U?$less@I@std@@V?$allocator@U?$pair@$$CBIPAVdatabaseSync@@@std@@@3@$0A@@std@@@std@@QAE?AU?$pair@V?$_Tree_iterator@V?$_Tree_val@U?$_Tree_simple_types@U?$pair@$$CBIPAVdatabaseSync@@@std@@@std@@@std@@@std@@_N@1@$$QAU?$pair@IPAVdatabaseSync@@@1@@Z 0042aab0 f i databaseSync.obj
 0001:00029b20       ??$load@H@?$QGenericAtomicOps@U?$QAtomicOpsBySize@$03@@@@SAHABH@Z 0042ab20 f i databaseSync.obj
 0001:00029b30       ??$make_pair@AAIAAPAVdatabaseSync@@@std@@YA?AU?$pair@IPAVdatabaseSync@@@0@AAIAAPAVdatabaseSync@@@Z 0042ab30 f i databaseSync.obj
 0001:00029b70       ??0?$_Iterator012@Ubidirectional_iterator_tag@std@@U?$pair@$$CBIPAVdatabaseSync@@@2@HPBU32@ABU32@U_Iterator_base12@2@@std@@QAE@ABU01@@Z 0042ab70 f i databaseSync.obj
 0001:00029ba0       ??0?$_Iterator012@Ubidirectional_iterator_tag@std@@U?$pair@$$CBIPAVdatabaseSync@@@2@HPBU32@ABU32@U_Iterator_base12@2@@std@@QAE@XZ 0042aba0 f i databaseSync.obj
 0001:00029bc0       ??0?$_Iterator012@Ubidirectional_iterator_tag@std@@VdbEntry@@HPBV3@ABV3@U_Iterator_base12@2@@std@@QAE@ABU01@@Z 0042abc0 f i databaseSync.obj
 0001:00029bf0       ??0?$_Iterator012@Ubidirectional_iterator_tag@std@@VdbEntry@@HPBV3@ABV3@U_Iterator_base12@2@@std@@QAE@XZ 0042abf0 f i databaseSync.obj
 0001:00029c10       ??0?$_Tree@V?$_Tmap_traits@IPAVdatabaseSync@@U?$less@I@std@@V?$allocator@U?$pair@$$CBIPAVdatabaseSync@@@std@@@3@$0A@@std@@@std@@QAE@ABU?$less@I@1@ABV?$allocator@U?$pair@$$CBIPAVdatabaseSync@@@std@@@1@@Z 0042ac10 f i databaseSync.obj
 0001:00029c40       ??0?$_Tree_alloc@$0A@U?$_Tree_base_types@U?$pair@$$CBIPAVdatabaseSync@@@std@@V?$allocator@U?$pair@$$CBIPAVdatabaseSync@@@std@@@2@@std@@@std@@QAE@ABV?$allocator@U?$pair@$$CBIPAVdatabaseSync@@@std@@@1@@Z 0042ac40 f i databaseSync.obj
 0001:00029d10       ??0?$_Tree_buy@U?$pair@$$CBIPAVdatabaseSync@@@std@@V?$allocator@U?$pair@$$CBIPAVdatabaseSync@@@std@@@2@@std@@QAE@ABV?$allocator@U?$pair@$$CBIPAVdatabaseSync@@@std@@@1@@Z 0042ad10 f i databaseSync.obj
 0001:00029d40       ??0?$_Tree_comp@$0A@V?$_Tmap_traits@IPAVdatabaseSync@@U?$less@I@std@@V?$allocator@U?$pair@$$CBIPAVdatabaseSync@@@std@@@3@$0A@@std@@@std@@QAE@ABU?$less@I@1@ABV?$allocator@U?$pair@$$CBIPAVdatabaseSync@@@std@@@1@@Z 0042ad40 f i databaseSync.obj
 0001:00029d70       ??0?$_Tree_const_iterator@V?$_Tree_val@U?$_Tree_simple_types@U?$pair@$$CBIPAVdatabaseSync@@@std@@@std@@@std@@@std@@QAE@ABV01@@Z 0042ad70 f i databaseSync.obj
 0001:00029da0       ??0?$_Tree_const_iterator@V?$_Tree_val@U?$_Tree_simple_types@U?$pair@$$CBIPAVdatabaseSync@@@std@@@std@@@std@@@std@@QAE@PAU?$_Tree_node@U?$pair@$$CBIPAVdatabaseSync@@@std@@PAX@1@PBV?$_Tree_val@U?$_Tree_simple_types@U?$pair@$$CBIPAVdatabaseSync@@@std@@@std@@@1@@Z 0042ada0 f i databaseSync.obj
 0001:00029dd0       ??0?$_Tree_const_iterator@V?$_Tree_val@U?$_Tree_simple_types@VdbEntry@@@std@@@std@@@std@@QAE@ABV01@@Z 0042add0 f i databaseSync.obj
 0001:00029e00       ??0?$_Tree_const_iterator@V?$_Tree_val@U?$_Tree_simple_types@VdbEntry@@@std@@@std@@@std@@QAE@PAU?$_Tree_node@VdbEntry@@PAX@1@PBV?$_Tree_val@U?$_Tree_simple_types@VdbEntry@@@std@@@1@@Z 0042ae00 f i databaseSync.obj
 0001:00029e30       ??0?$_Tree_iterator@V?$_Tree_val@U?$_Tree_simple_types@U?$pair@$$CBIPAVdatabaseSync@@@std@@@std@@@std@@@std@@QAE@ABV01@@Z 0042ae30 f i databaseSync.obj
 0001:00029e60       ??0?$_Tree_iterator@V?$_Tree_val@U?$_Tree_simple_types@U?$pair@$$CBIPAVdatabaseSync@@@std@@@std@@@std@@@std@@QAE@PAU?$_Tree_node@U?$pair@$$CBIPAVdatabaseSync@@@std@@PAX@1@PBV?$_Tree_val@U?$_Tree_simple_types@U?$pair@$$CBIPAVdatabaseSync@@@std@@@std@@@1@@Z 0042ae60 f i databaseSync.obj
 0001:00029e90       ??0?$_Tree_unchecked_const_iterator@V?$_Tree_val@U?$_Tree_simple_types@U?$pair@$$CBIPAVdatabaseSync@@@std@@@std@@@std@@U_Iterator_base12@2@@std@@QAE@ABV01@@Z 0042ae90 f i databaseSync.obj
 0001:00029ed0       ??0?$_Tree_unchecked_const_iterator@V?$_Tree_val@U?$_Tree_simple_types@U?$pair@$$CBIPAVdatabaseSync@@@std@@@std@@@std@@U_Iterator_base12@2@@std@@QAE@PAU?$_Tree_node@U?$pair@$$CBIPAVdatabaseSync@@@std@@PAX@1@PBV?$_Tree_val@U?$_Tree_simple_types@U?$pair@$$CBIPAVdatabaseSync@@@std@@@std@@@1@@Z 0042aed0 f i databaseSync.obj
 0001:00029f50       ??0?$_Tree_unchecked_const_iterator@V?$_Tree_val@U?$_Tree_simple_types@VdbEntry@@@std@@@std@@U_Iterator_base12@2@@std@@QAE@ABV01@@Z 0042af50 f i databaseSync.obj
 0001:00029f90       ??0?$_Tree_unchecked_const_iterator@V?$_Tree_val@U?$_Tree_simple_types@VdbEntry@@@std@@@std@@U_Iterator_base12@2@@std@@QAE@PAU?$_Tree_node@VdbEntry@@PAX@1@PBV?$_Tree_val@U?$_Tree_simple_types@VdbEntry@@@std@@@1@@Z 0042af90 f i databaseSync.obj
 0001:0002a010       ??0?$_Tree_val@U?$_Tree_simple_types@U?$pair@$$CBIPAVdatabaseSync@@@std@@@std@@@std@@QAE@XZ 0042b010 f i databaseSync.obj
 0001:0002a050       ??0?$_Wrap_alloc@V?$allocator@U?$_Tree_node@U?$pair@$$CBIPAVdatabaseSync@@@std@@PAX@std@@@std@@@std@@QAE@XZ 0042b050 f i databaseSync.obj
 0001:0002a070       ??0?$_Wrap_alloc@V?$allocator@U?$_Tree_node@VdbEntry@@PAX@std@@@std@@@std@@QAE@XZ 0042b070 f i databaseSync.obj
 0001:0002a090       ??0?$allocator@U?$_Tree_node@U?$pair@$$CBIPAVdatabaseSync@@@std@@PAX@std@@@std@@QAE@XZ 0042b090 f i databaseSync.obj
 0001:0002a0b0       ??0?$allocator@U?$_Tree_node@VdbEntry@@PAX@std@@@std@@QAE@XZ 0042b0b0 f i databaseSync.obj
 0001:0002a0d0       ??0?$allocator@U?$pair@$$CBIPAVdatabaseSync@@@std@@@std@@QAE@XZ 0042b0d0 f i databaseSync.obj
 0001:0002a0f0       ??0?$map@IPAVdatabaseSync@@U?$less@I@std@@V?$allocator@U?$pair@$$CBIPAVdatabaseSync@@@std@@@3@@std@@QAE@XZ 0042b0f0 f i databaseSync.obj
 0001:0002a120       ??0dbEntry@@QAE@II@Z       0042b120 f i databaseSync.obj
 0001:0002a150       ??1?$QList@VQString@@@@QAE@XZ 0042b150 f i databaseSync.obj
 0001:0002a1e0       ??1?$QListSpecialMethods@VQString@@@@IAE@XZ 0042b1e0 f i databaseSync.obj
 0001:0002a1f0       ??1?$_Iterator012@Ubidirectional_iterator_tag@std@@U?$pair@$$CBIPAVdatabaseSync@@@2@HPBU32@ABU32@U_Iterator_base12@2@@std@@QAE@XZ 0042b1f0 f i databaseSync.obj
 0001:0002a210       ??1?$_Iterator012@Ubidirectional_iterator_tag@std@@VdbEntry@@HPBV3@ABV3@U_Iterator_base12@2@@std@@QAE@XZ 0042b210 f i databaseSync.obj
 0001:0002a230       ??1?$_Tree@V?$_Tmap_traits@IPAVdatabaseSync@@U?$less@I@std@@V?$allocator@U?$pair@$$CBIPAVdatabaseSync@@@std@@@3@$0A@@std@@@std@@QAE@XZ 0042b230 f i databaseSync.obj
 0001:0002a260       ??1?$_Tree_alloc@$0A@U?$_Tree_base_types@U?$pair@$$CBIPAVdatabaseSync@@@std@@V?$allocator@U?$pair@$$CBIPAVdatabaseSync@@@std@@@2@@std@@@std@@QAE@XZ 0042b260 f i databaseSync.obj
 0001:0002a2a0       ??1?$_Tree_buy@U?$pair@$$CBIPAVdatabaseSync@@@std@@V?$allocator@U?$pair@$$CBIPAVdatabaseSync@@@std@@@2@@std@@QAE@XZ 0042b2a0 f i databaseSync.obj
 0001:0002a2c0       ??1?$_Tree_comp@$0A@V?$_Tmap_traits@IPAVdatabaseSync@@U?$less@I@std@@V?$allocator@U?$pair@$$CBIPAVdatabaseSync@@@std@@@3@$0A@@std@@@std@@QAE@XZ 0042b2c0 f i databaseSync.obj
 0001:0002a2e0       ??1?$_Tree_const_iterator@V?$_Tree_val@U?$_Tree_simple_types@U?$pair@$$CBIPAVdatabaseSync@@@std@@@std@@@std@@@std@@QAE@XZ 0042b2e0 f i databaseSync.obj
 0001:0002a300       ??1?$_Tree_const_iterator@V?$_Tree_val@U?$_Tree_simple_types@VdbEntry@@@std@@@std@@@std@@QAE@XZ 0042b300 f i databaseSync.obj
 0001:0002a320       ??1?$_Tree_iterator@V?$_Tree_val@U?$_Tree_simple_types@U?$pair@$$CBIPAVdatabaseSync@@@std@@@std@@@std@@@std@@QAE@XZ 0042b320 f i databaseSync.obj
 0001:0002a340       ??1?$_Tree_unchecked_const_iterator@V?$_Tree_val@U?$_Tree_simple_types@U?$pair@$$CBIPAVdatabaseSync@@@std@@@std@@@std@@U_Iterator_base12@2@@std@@QAE@XZ 0042b340 f i databaseSync.obj
 0001:0002a360       ??1?$_Tree_unchecked_const_iterator@V?$_Tree_val@U?$_Tree_simple_types@VdbEntry@@@std@@@std@@U_Iterator_base12@2@@std@@QAE@XZ 0042b360 f i databaseSync.obj
 0001:0002a380       ??1?$_Tree_val@U?$_Tree_simple_types@U?$pair@$$CBIPAVdatabaseSync@@@std@@@std@@@std@@QAE@XZ 0042b380 f i databaseSync.obj
 0001:0002a3a0       ??1?$map@IPAVdatabaseSync@@U?$less@I@std@@V?$allocator@U?$pair@$$CBIPAVdatabaseSync@@@std@@@3@@std@@QAE@XZ 0042b3a0 f i databaseSync.obj
 0001:0002a3c0       ??1?$pair@V?$_Tree_const_iterator@V?$_Tree_val@U?$_Tree_simple_types@VdbEntry@@@std@@@std@@@std@@_N@std@@QAE@XZ 0042b3c0 f i databaseSync.obj
 0001:0002a3e0       ??1?$pair@V?$_Tree_iterator@V?$_Tree_val@U?$_Tree_simple_types@U?$pair@$$CBIPAVdatabaseSync@@@std@@@std@@@std@@@std@@_N@std@@QAE@XZ 0042b3e0 f i databaseSync.obj
 0001:0002a400       ??1QStringList@@QAE@XZ     0042b400 f i databaseSync.obj
 0001:0002a420       ??8?$_Tree_const_iterator@V?$_Tree_val@U?$_Tree_simple_types@U?$pair@$$CBIPAVdatabaseSync@@@std@@@std@@@std@@@std@@QBE_NABV01@@Z 0042b420 f i databaseSync.obj
 0001:0002a510       ??8?$_Tree_const_iterator@V?$_Tree_val@U?$_Tree_simple_types@VdbEntry@@@std@@@std@@@std@@QBE_NABV01@@Z 0042b510 f i databaseSync.obj
 0001:0002a600       ??9?$_Tree_const_iterator@V?$_Tree_val@U?$_Tree_simple_types@U?$pair@$$CBIPAVdatabaseSync@@@std@@@std@@@std@@@std@@QBE_NABV01@@Z 0042b600 f i databaseSync.obj
 0001:0002a650       ??A?$QList@VQString@@@@QAEAAVQString@@H@Z 0042b650 f i databaseSync.obj
 0001:0002a6e0       ??C?$_Tree_const_iterator@V?$_Tree_val@U?$_Tree_simple_types@U?$pair@$$CBIPAVdatabaseSync@@@std@@@std@@@std@@@std@@QBEPBU?$pair@$$CBIPAVdatabaseSync@@@1@XZ 0042b6e0 f i databaseSync.obj
 0001:0002a710       ??C?$_Tree_iterator@V?$_Tree_val@U?$_Tree_simple_types@U?$pair@$$CBIPAVdatabaseSync@@@std@@@std@@@std@@@std@@QBEPAU?$pair@$$CBIPAVdatabaseSync@@@1@XZ 0042b710 f i databaseSync.obj
 0001:0002a740       ??D?$_Tree_const_iterator@V?$_Tree_val@U?$_Tree_simple_types@U?$pair@$$CBIPAVdatabaseSync@@@std@@@std@@@std@@@std@@QBEABU?$pair@$$CBIPAVdatabaseSync@@@1@XZ 0042b740 f i databaseSync.obj
 0001:0002a820       ??D?$_Tree_iterator@V?$_Tree_val@U?$_Tree_simple_types@U?$pair@$$CBIPAVdatabaseSync@@@std@@@std@@@std@@@std@@QBEAAU?$pair@$$CBIPAVdatabaseSync@@@1@XZ 0042b820 f i databaseSync.obj
 0001:0002a840       ??E?$_Tree_const_iterator@V?$_Tree_val@U?$_Tree_simple_types@U?$pair@$$CBIPAVdatabaseSync@@@std@@@std@@@std@@@std@@QAE?AV01@H@Z 0042b840 f i databaseSync.obj
 0001:0002a8f0       ??E?$_Tree_const_iterator@V?$_Tree_val@U?$_Tree_simple_types@U?$pair@$$CBIPAVdatabaseSync@@@std@@@std@@@std@@@std@@QAEAAV01@XZ 0042b8f0 f i databaseSync.obj
 0001:0002a9d0       ??E?$_Tree_iterator@V?$_Tree_val@U?$_Tree_simple_types@U?$pair@$$CBIPAVdatabaseSync@@@std@@@std@@@std@@@std@@QAEAAV01@XZ 0042b9d0 f i databaseSync.obj
 0001:0002a9f0       ??E?$_Tree_unchecked_const_iterator@V?$_Tree_val@U?$_Tree_simple_types@U?$pair@$$CBIPAVdatabaseSync@@@std@@@std@@@std@@U_Iterator_base12@2@@std@@QAEAAV01@XZ 0042b9f0 f i databaseSync.obj
 0001:0002aae0       ??F?$_Tree_const_iterator@V?$_Tree_val@U?$_Tree_simple_types@U?$pair@$$CBIPAVdatabaseSync@@@std@@@std@@@std@@@std@@QAEAAV01@XZ 0042bae0 f i databaseSync.obj
 0001:0002ac40       ??F?$_Tree_const_iterator@V?$_Tree_val@U?$_Tree_simple_types@VdbEntry@@@std@@@std@@@std@@QAEAAV01@XZ 0042bc40 f i databaseSync.obj
 0001:0002ada0       ??F?$_Tree_iterator@V?$_Tree_val@U?$_Tree_simple_types@U?$pair@$$CBIPAVdatabaseSync@@@std@@@std@@@std@@@std@@QAEAAV01@XZ 0042bda0 f i databaseSync.obj
 0001:0002adc0       ??F?$_Tree_unchecked_const_iterator@V?$_Tree_val@U?$_Tree_simple_types@U?$pair@$$CBIPAVdatabaseSync@@@std@@@std@@@std@@U_Iterator_base12@2@@std@@QAEAAV01@XZ 0042bdc0 f i databaseSync.obj
 0001:0002aef0       ??F?$_Tree_unchecked_const_iterator@V?$_Tree_val@U?$_Tree_simple_types@VdbEntry@@@std@@@std@@U_Iterator_base12@2@@std@@QAEAAV01@XZ 0042bef0 f i databaseSync.obj
 0001:0002b020       ??MdbEntry@@QBE_NABV0@@Z   0042c020 f i databaseSync.obj
 0001:0002b060       ??R?$less@VdbEntry@@@std@@QBE_NABVdbEntry@@0@Z 0042c060 f i databaseSync.obj
 0001:0002b080       ??_GQString@@QAEPAXI@Z     0042c080 f i databaseSync.obj
 0001:0002b0c0       ??_GdatabaseSync@@UAEPAXI@Z 0042c0c0 f i databaseSync.obj
 0001:0002b0c0       ??_EdatabaseSync@@UAEPAXI@Z 0042c0c0 f i databaseSync.obj
 0001:0002b100       ?_Alloc_proxy@?$_Tree_alloc@$0A@U?$_Tree_base_types@U?$pair@$$CBIPAVdatabaseSync@@@std@@V?$allocator@U?$pair@$$CBIPAVdatabaseSync@@@std@@@2@@std@@@std@@QAEXXZ 0042c100 f i databaseSync.obj
 0001:0002b170       ?_Buyheadnode@?$_Tree_alloc@$0A@U?$_Tree_base_types@U?$pair@$$CBIPAVdatabaseSync@@@std@@V?$allocator@U?$pair@$$CBIPAVdatabaseSync@@@std@@@2@@std@@@std@@QAEPAU?$_Tree_node@U?$pair@$$CBIPAVdatabaseSync@@@std@@PAX@2@XZ 0042c170 f i databaseSync.obj
 0001:0002b330       ?_Buynode0@?$_Tree_buy@U?$pair@$$CBIPAVdatabaseSync@@@std@@V?$allocator@U?$pair@$$CBIPAVdatabaseSync@@@std@@@2@@std@@QAEPAU?$_Tree_node@U?$pair@$$CBIPAVdatabaseSync@@@std@@PAX@2@XZ 0042c330 f i databaseSync.obj
 0001:0002b4d0       ?_Buynode0@?$_Tree_buy@VdbEntry@@V?$allocator@VdbEntry@@@std@@@std@@QAEPAU?$_Tree_node@VdbEntry@@PAX@2@XZ 0042c4d0 f i databaseSync.obj
 0001:0002b670       ?_Color@?$_Tree_val@U?$_Tree_simple_types@U?$pair@$$CBIPAVdatabaseSync@@@std@@@std@@@std@@SAAADPAU?$_Tree_node@U?$pair@$$CBIPAVdatabaseSync@@@std@@PAX@2@@Z 0042c670 f i databaseSync.obj
 0001:0002b680       ?_Color@?$_Tree_val@U?$_Tree_simple_types@VdbEntry@@@std@@@std@@SAAADPAU?$_Tree_node@VdbEntry@@PAX@2@@Z 0042c680 f i databaseSync.obj
 0001:0002b690       ?_Destroy_if_not_nil@?$_Tree@V?$_Tmap_traits@IPAVdatabaseSync@@U?$less@I@std@@V?$allocator@U?$pair@$$CBIPAVdatabaseSync@@@std@@@3@$0A@@std@@@std@@IAEXPAU?$_Tree_node@U?$pair@$$CBIPAVdatabaseSync@@@std@@PAX@2@@Z 0042c690 f i databaseSync.obj
 0001:0002b700       ?_Destroy_if_not_nil@?$_Tree@V?$_Tset_traits@VdbEntry@@U?$less@VdbEntry@@@std@@V?$allocator@VdbEntry@@@3@$0A@@std@@@std@@IAEXU_Nil@2@@Z 0042c700 f i databaseSync.obj
 0001:0002b710       ?_Erase@?$_Tree@V?$_Tmap_traits@IPAVdatabaseSync@@U?$less@I@std@@V?$allocator@U?$pair@$$CBIPAVdatabaseSync@@@std@@@3@$0A@@std@@@std@@IAEXPAU?$_Tree_node@U?$pair@$$CBIPAVdatabaseSync@@@std@@PAX@2@@Z 0042c710 f i databaseSync.obj
 0001:0002b7e0       ?_Free_proxy@?$_Tree_alloc@$0A@U?$_Tree_base_types@U?$pair@$$CBIPAVdatabaseSync@@@std@@V?$allocator@U?$pair@$$CBIPAVdatabaseSync@@@std@@@2@@std@@@std@@QAEXXZ 0042c7e0 f i databaseSync.obj
 0001:0002b850       ?_Freeheadnode@?$_Tree_alloc@$0A@U?$_Tree_base_types@U?$pair@$$CBIPAVdatabaseSync@@@std@@V?$allocator@U?$pair@$$CBIPAVdatabaseSync@@@std@@@2@@std@@@std@@QAEXPAU?$_Tree_node@U?$pair@$$CBIPAVdatabaseSync@@@std@@PAX@2@@Z 0042c850 f i databaseSync.obj
 0001:0002b920       ?_Freenode0@?$_Tree_buy@U?$pair@$$CBIPAVdatabaseSync@@@std@@V?$allocator@U?$pair@$$CBIPAVdatabaseSync@@@std@@@2@@std@@QAEXPAU?$_Tree_node@U?$pair@$$CBIPAVdatabaseSync@@@std@@PAX@2@@Z 0042c920 f i databaseSync.obj
 0001:0002b9f0       ?_Freenode0@?$_Tree_buy@VdbEntry@@V?$allocator@VdbEntry@@@std@@@std@@QAEXPAU?$_Tree_node@VdbEntry@@PAX@2@@Z 0042c9f0 f i databaseSync.obj
 0001:0002bac0       ?_Getal@?$_Tree_alloc@$0A@U?$_Tree_base_types@U?$pair@$$CBIPAVdatabaseSync@@@std@@V?$allocator@U?$pair@$$CBIPAVdatabaseSync@@@std@@@2@@std@@@std@@QBE?AU?$_Wrap_alloc@V?$allocator@U?$_Tree_node@U?$pair@$$CBIPAVdatabaseSync@@@std@@PAX@std@@@std@@@2@XZ 0042cac0 f i databaseSync.obj
 0001:0002bae0       ?_Getal@?$_Tree_alloc@$0A@U?$_Tree_base_types@VdbEntry@@V?$allocator@VdbEntry@@@std@@@std@@@std@@QBE?AU?$_Wrap_alloc@V?$allocator@U?$_Tree_node@VdbEntry@@PAX@std@@@std@@@2@XZ 0042cae0 f i databaseSync.obj
 0001:0002bb00       ?_Getcomp@?$_Tree_comp@$0A@V?$_Tmap_traits@IPAVdatabaseSync@@U?$less@I@std@@V?$allocator@U?$pair@$$CBIPAVdatabaseSync@@@std@@@3@$0A@@std@@@std@@QBE?AU?$less@I@2@XZ 0042cb00 f i databaseSync.obj
 0001:0002bb20       ?_Getcomp@?$_Tree_comp@$0A@V?$_Tset_traits@VdbEntry@@U?$less@VdbEntry@@@std@@V?$allocator@VdbEntry@@@3@$0A@@std@@@std@@QBE?AU?$less@VdbEntry@@@2@XZ 0042cb20 f i databaseSync.obj
 0001:0002bb40       ?_Isnil@?$_Tree_val@U?$_Tree_simple_types@U?$pair@$$CBIPAVdatabaseSync@@@std@@@std@@@std@@SAAADPAU?$_Tree_node@U?$pair@$$CBIPAVdatabaseSync@@@std@@PAX@2@@Z 0042cb40 f i databaseSync.obj
 0001:0002bb50       ?_Isnil@?$_Tree_val@U?$_Tree_simple_types@VdbEntry@@@std@@@std@@SAAADPAU?$_Tree_node@VdbEntry@@PAX@2@@Z 0042cb50 f i databaseSync.obj
 0001:0002bb60       ?_Key@?$_Tree@V?$_Tmap_traits@IPAVdatabaseSync@@U?$less@I@std@@V?$allocator@U?$pair@$$CBIPAVdatabaseSync@@@std@@@3@$0A@@std@@@std@@IBEABIPAU?$_Tree_node@U?$pair@$$CBIPAVdatabaseSync@@@std@@PAX@2@@Z 0042cb60 f i databaseSync.obj
 0001:0002bb90       ?_Key@?$_Tree@V?$_Tset_traits@VdbEntry@@U?$less@VdbEntry@@@std@@V?$allocator@VdbEntry@@@3@$0A@@std@@@std@@IBEABVdbEntry@@PAU?$_Tree_node@VdbEntry@@PAX@2@@Z 0042cb90 f i databaseSync.obj
 0001:0002bbc0       ?_Kfn@?$_Tree@V?$_Tmap_traits@IPAVdatabaseSync@@U?$less@I@std@@V?$allocator@U?$pair@$$CBIPAVdatabaseSync@@@std@@@3@$0A@@std@@@std@@IBEABIABU?$pair@$$CBIPAVdatabaseSync@@@2@@Z 0042cbc0 f i databaseSync.obj
 0001:0002bbe0       ?_Kfn@?$_Tree@V?$_Tset_traits@VdbEntry@@U?$less@VdbEntry@@@std@@V?$allocator@VdbEntry@@@3@$0A@@std@@@std@@IBEABVdbEntry@@ABV3@@Z 0042cbe0 f i databaseSync.obj
 0001:0002bc00       ?_Kfn@?$_Tset_traits@VdbEntry@@U?$less@VdbEntry@@@std@@V?$allocator@VdbEntry@@@3@$0A@@std@@SAABVdbEntry@@ABV3@@Z 0042cc00 f i databaseSync.obj
 0001:0002bc10       ?_Lbound@?$_Tree@V?$_Tmap_traits@IPAVdatabaseSync@@U?$less@I@std@@V?$allocator@U?$pair@$$CBIPAVdatabaseSync@@@std@@@3@$0A@@std@@@std@@IAEPAU?$_Tree_node@U?$pair@$$CBIPAVdatabaseSync@@@std@@PAX@2@ABI@Z 0042cc10 f i databaseSync.obj
 0001:0002bce0       ?_Left@?$_Tree_val@U?$_Tree_simple_types@U?$pair@$$CBIPAVdatabaseSync@@@std@@@std@@@std@@SAAAPAU?$_Tree_node@U?$pair@$$CBIPAVdatabaseSync@@@std@@PAX@2@PAU32@@Z 0042cce0 f i databaseSync.obj
 0001:0002bcf0       ?_Left@?$_Tree_val@U?$_Tree_simple_types@VdbEntry@@@std@@@std@@SAAAPAU?$_Tree_node@VdbEntry@@PAX@2@PAU32@@Z 0042ccf0 f i databaseSync.obj
 0001:0002bd00       ?_Lmost@?$_Tree@V?$_Tmap_traits@IPAVdatabaseSync@@U?$less@I@std@@V?$allocator@U?$pair@$$CBIPAVdatabaseSync@@@std@@@3@$0A@@std@@@std@@IBEAAPAU?$_Tree_node@U?$pair@$$CBIPAVdatabaseSync@@@std@@PAX@2@XZ 0042cd00 f i databaseSync.obj
 0001:0002bd20       ?_Lmost@?$_Tree@V?$_Tset_traits@VdbEntry@@U?$less@VdbEntry@@@std@@V?$allocator@VdbEntry@@@3@$0A@@std@@@std@@IBEAAPAU?$_Tree_node@VdbEntry@@PAX@2@XZ 0042cd20 f i databaseSync.obj
 0001:0002bd40       ?_Lrotate@?$_Tree@V?$_Tmap_traits@IPAVdatabaseSync@@U?$less@I@std@@V?$allocator@U?$pair@$$CBIPAVdatabaseSync@@@std@@@3@$0A@@std@@@std@@IAEXPAU?$_Tree_node@U?$pair@$$CBIPAVdatabaseSync@@@std@@PAX@2@@Z 0042cd40 f i databaseSync.obj
 0001:0002bec0       ?_Lrotate@?$_Tree@V?$_Tset_traits@VdbEntry@@U?$less@VdbEntry@@@std@@V?$allocator@VdbEntry@@@3@$0A@@std@@@std@@IAEXPAU?$_Tree_node@VdbEntry@@PAX@2@@Z 0042cec0 f i databaseSync.obj
 0001:0002c040       ?_Max@?$_Tree_val@U?$_Tree_simple_types@U?$pair@$$CBIPAVdatabaseSync@@@std@@@std@@@std@@SAPAU?$_Tree_node@U?$pair@$$CBIPAVdatabaseSync@@@std@@PAX@2@PAU32@@Z 0042d040 f i databaseSync.obj
 0001:0002c090       ?_Max@?$_Tree_val@U?$_Tree_simple_types@VdbEntry@@@std@@@std@@SAPAU?$_Tree_node@VdbEntry@@PAX@2@PAU32@@Z 0042d090 f i databaseSync.obj
 0001:0002c0e0       ?_Min@?$_Tree_val@U?$_Tree_simple_types@U?$pair@$$CBIPAVdatabaseSync@@@std@@@std@@@std@@SAPAU?$_Tree_node@U?$pair@$$CBIPAVdatabaseSync@@@std@@PAX@2@PAU32@@Z 0042d0e0 f i databaseSync.obj
 0001:0002c130       ?_Mynode@?$_Tree_unchecked_const_iterator@V?$_Tree_val@U?$_Tree_simple_types@U?$pair@$$CBIPAVdatabaseSync@@@std@@@std@@@std@@U_Iterator_base12@2@@std@@QBEPAU?$_Tree_node@U?$pair@$$CBIPAVdatabaseSync@@@std@@PAX@2@XZ 0042d130 f i databaseSync.obj
 0001:0002c150       ?_Mynode@?$_Tree_unchecked_const_iterator@V?$_Tree_val@U?$_Tree_simple_types@VdbEntry@@@std@@@std@@U_Iterator_base12@2@@std@@QBEPAU?$_Tree_node@VdbEntry@@PAX@2@XZ 0042d150 f i databaseSync.obj
 0001:0002c170       ?_Myval@?$_Tree_val@U?$_Tree_simple_types@U?$pair@$$CBIPAVdatabaseSync@@@std@@@std@@@std@@SAAAU?$pair@$$CBIPAVdatabaseSync@@@2@PAU?$_Tree_node@U?$pair@$$CBIPAVdatabaseSync@@@std@@PAX@2@@Z 0042d170 f i databaseSync.obj
 0001:0002c180       ?_Myval@?$_Tree_val@U?$_Tree_simple_types@VdbEntry@@@std@@@std@@SAAAVdbEntry@@PAU?$_Tree_node@VdbEntry@@PAX@2@@Z 0042d180 f i databaseSync.obj
 0001:0002c190       ?_Orphan_ptr@?$_Tree@V?$_Tmap_traits@IPAVdatabaseSync@@U?$less@I@std@@V?$allocator@U?$pair@$$CBIPAVdatabaseSync@@@std@@@3@$0A@@std@@@std@@IBEXAAV12@PAU?$_Tree_node@U?$pair@$$CBIPAVdatabaseSync@@@std@@PAX@2@@Z 0042d190 f i databaseSync.obj
 0001:0002c290       ?_Parent@?$_Tree_val@U?$_Tree_simple_types@U?$pair@$$CBIPAVdatabaseSync@@@std@@@std@@@std@@SAAAPAU?$_Tree_node@U?$pair@$$CBIPAVdatabaseSync@@@std@@PAX@2@PAU32@@Z 0042d290 f i databaseSync.obj
 0001:0002c2a0       ?_Parent@?$_Tree_val@U?$_Tree_simple_types@VdbEntry@@@std@@@std@@SAAAPAU?$_Tree_node@VdbEntry@@PAX@2@PAU32@@Z 0042d2a0 f i databaseSync.obj
 0001:0002c2b0       ?_Right@?$_Tree_val@U?$_Tree_simple_types@U?$pair@$$CBIPAVdatabaseSync@@@std@@@std@@@std@@SAAAPAU?$_Tree_node@U?$pair@$$CBIPAVdatabaseSync@@@std@@PAX@2@PAU32@@Z 0042d2b0 f i databaseSync.obj
 0001:0002c2c0       ?_Right@?$_Tree_val@U?$_Tree_simple_types@VdbEntry@@@std@@@std@@SAAAPAU?$_Tree_node@VdbEntry@@PAX@2@PAU32@@Z 0042d2c0 f i databaseSync.obj
 0001:0002c2d0       ?_Rmost@?$_Tree@V?$_Tmap_traits@IPAVdatabaseSync@@U?$less@I@std@@V?$allocator@U?$pair@$$CBIPAVdatabaseSync@@@std@@@3@$0A@@std@@@std@@IBEAAPAU?$_Tree_node@U?$pair@$$CBIPAVdatabaseSync@@@std@@PAX@2@XZ 0042d2d0 f i databaseSync.obj
 0001:0002c2f0       ?_Rmost@?$_Tree@V?$_Tset_traits@VdbEntry@@U?$less@VdbEntry@@@std@@V?$allocator@VdbEntry@@@3@$0A@@std@@@std@@IBEAAPAU?$_Tree_node@VdbEntry@@PAX@2@XZ 0042d2f0 f i databaseSync.obj
 0001:0002c310       ?_Root@?$_Tree@V?$_Tmap_traits@IPAVdatabaseSync@@U?$less@I@std@@V?$allocator@U?$pair@$$CBIPAVdatabaseSync@@@std@@@3@$0A@@std@@@std@@IBEAAPAU?$_Tree_node@U?$pair@$$CBIPAVdatabaseSync@@@std@@PAX@2@XZ 0042d310 f i databaseSync.obj
 0001:0002c330       ?_Root@?$_Tree@V?$_Tset_traits@VdbEntry@@U?$less@VdbEntry@@@std@@V?$allocator@VdbEntry@@@3@$0A@@std@@@std@@IBEAAPAU?$_Tree_node@VdbEntry@@PAX@2@XZ 0042d330 f i databaseSync.obj
 0001:0002c350       ?_Rrotate@?$_Tree@V?$_Tmap_traits@IPAVdatabaseSync@@U?$less@I@std@@V?$allocator@U?$pair@$$CBIPAVdatabaseSync@@@std@@@3@$0A@@std@@@std@@IAEXPAU?$_Tree_node@U?$pair@$$CBIPAVdatabaseSync@@@std@@PAX@2@@Z 0042d350 f i databaseSync.obj
 0001:0002c4d0       ?_Rrotate@?$_Tree@V?$_Tset_traits@VdbEntry@@U?$less@VdbEntry@@@std@@V?$allocator@VdbEntry@@@3@$0A@@std@@@std@@IAEXPAU?$_Tree_node@VdbEntry@@PAX@2@@Z 0042d4d0 f i databaseSync.obj
 0001:0002c650       ?_Tidy@?$_Tree@V?$_Tmap_traits@IPAVdatabaseSync@@U?$less@I@std@@V?$allocator@U?$pair@$$CBIPAVdatabaseSync@@@std@@@3@$0A@@std@@@std@@IAEXXZ 0042d650 f i databaseSync.obj
 0001:0002c760       ?allocate@?$_Wrap_alloc@V?$allocator@U?$_Tree_node@U?$pair@$$CBIPAVdatabaseSync@@@std@@PAX@std@@@std@@@std@@QAEPAU?$_Tree_node@U?$pair@$$CBIPAVdatabaseSync@@@std@@PAX@2@I@Z 0042d760 f i databaseSync.obj
 0001:0002c780       ?allocate@?$_Wrap_alloc@V?$allocator@U?$_Tree_node@VdbEntry@@PAX@std@@@std@@@std@@QAEPAU?$_Tree_node@VdbEntry@@PAX@2@I@Z 0042d780 f i databaseSync.obj
 0001:0002c7a0       ?allocate@?$allocator@U?$_Tree_node@U?$pair@$$CBIPAVdatabaseSync@@@std@@PAX@std@@@std@@QAEPAU?$_Tree_node@U?$pair@$$CBIPAVdatabaseSync@@@std@@PAX@2@I@Z 0042d7a0 f i databaseSync.obj
 0001:0002c7d0       ?allocate@?$allocator@U?$_Tree_node@VdbEntry@@PAX@std@@@std@@QAEPAU?$_Tree_node@VdbEntry@@PAX@2@I@Z 0042d7d0 f i databaseSync.obj
 0001:0002c800       ?begin@?$_Tree@V?$_Tmap_traits@IPAVdatabaseSync@@U?$less@I@std@@V?$allocator@U?$pair@$$CBIPAVdatabaseSync@@@std@@@3@$0A@@std@@@std@@QAE?AV?$_Tree_iterator@V?$_Tree_val@U?$_Tree_simple_types@U?$pair@$$CBIPAVdatabaseSync@@@std@@@std@@@std@@@2@XZ 0042d800 f i databaseSync.obj
 0001:0002c830       ?begin@?$_Tree@V?$_Tset_traits@VdbEntry@@U?$less@VdbEntry@@@std@@V?$allocator@VdbEntry@@@3@$0A@@std@@@std@@QAE?AV?$_Tree_const_iterator@V?$_Tree_val@U?$_Tree_simple_types@VdbEntry@@@std@@@std@@@2@XZ 0042d830 f i databaseSync.obj
 0001:0002c860       ?clear@?$_Tree@V?$_Tmap_traits@IPAVdatabaseSync@@U?$less@I@std@@V?$allocator@U?$pair@$$CBIPAVdatabaseSync@@@std@@@3@$0A@@std@@@std@@QAEXXZ 0042d860 f i databaseSync.obj
 0001:0002c8e0       ?count@?$QList@VQString@@@@QBEHXZ 0042d8e0 f i databaseSync.obj
 0001:0002c900       ?dealloc@?$QList@VQString@@@@AAEXPAUData@QListData@@@Z 0042d900 f i databaseSync.obj
 0001:0002c950       ?deallocate@?$_Wrap_alloc@V?$allocator@U?$_Tree_node@U?$pair@$$CBIPAVdatabaseSync@@@std@@PAX@std@@@std@@@std@@QAEXPAU?$_Tree_node@U?$pair@$$CBIPAVdatabaseSync@@@std@@PAX@2@I@Z 0042d950 f i databaseSync.obj
 0001:0002c980       ?deallocate@?$_Wrap_alloc@V?$allocator@U?$_Tree_node@VdbEntry@@PAX@std@@@std@@@std@@QAEXPAU?$_Tree_node@VdbEntry@@PAX@2@I@Z 0042d980 f i databaseSync.obj
 0001:0002c9b0       ?deallocate@?$allocator@U?$_Tree_node@U?$pair@$$CBIPAVdatabaseSync@@@std@@PAX@std@@@std@@QAEXPAU?$_Tree_node@U?$pair@$$CBIPAVdatabaseSync@@@std@@PAX@2@I@Z 0042d9b0 f i databaseSync.obj
 0001:0002c9d0       ?deallocate@?$allocator@U?$_Tree_node@VdbEntry@@PAX@std@@@std@@QAEXPAU?$_Tree_node@VdbEntry@@PAX@2@I@Z 0042d9d0 f i databaseSync.obj
 0001:0002c9f0       ?deref@?$QBasicAtomicInteger@H@@QAE_NXZ 0042d9f0 f i databaseSync.obj
 0001:0002ca10       ?deref@RefCount@QtPrivate@@QAE_NXZ 0042da10 f i databaseSync.obj
 0001:0002ca60       ?detach@?$QList@VQString@@@@QAEXXZ 0042da60 f i databaseSync.obj
 0001:0002ca90       ?detach_helper@?$QList@VQString@@@@AAEXH@Z 0042da90 f i databaseSync.obj
 0001:0002cba0       ?detach_helper@?$QList@VQString@@@@AAEXXZ 0042dba0 f i databaseSync.obj
 0001:0002cbd0       ?end@?$_Tree@V?$_Tmap_traits@IPAVdatabaseSync@@U?$less@I@std@@V?$allocator@U?$pair@$$CBIPAVdatabaseSync@@@std@@@3@$0A@@std@@@std@@QAE?AV?$_Tree_iterator@V?$_Tree_val@U?$_Tree_simple_types@U?$pair@$$CBIPAVdatabaseSync@@@std@@@std@@@std@@@2@XZ 0042dbd0 f i databaseSync.obj
 0001:0002cc00       ?erase@?$_Tree@V?$_Tmap_traits@IPAVdatabaseSync@@U?$less@I@std@@V?$allocator@U?$pair@$$CBIPAVdatabaseSync@@@std@@@3@$0A@@std@@@std@@QAE?AV?$_Tree_iterator@V?$_Tree_val@U?$_Tree_simple_types@U?$pair@$$CBIPAVdatabaseSync@@@std@@@std@@@std@@@2@V?$_Tree_const_iterator@V?$_Tree_val@U?$_Tree_simple_types@U?$pair@$$CBIPAVdatabaseSync@@@std@@@std@@@std@@@2@0@Z 0042dc00 f i databaseSync.obj
 0001:0002ce60       ?erase@?$_Tree@V?$_Tmap_traits@IPAVdatabaseSync@@U?$less@I@std@@V?$allocator@U?$pair@$$CBIPAVdatabaseSync@@@std@@@3@$0A@@std@@@std@@QAE?AV?$_Tree_iterator@V?$_Tree_val@U?$_Tree_simple_types@U?$pair@$$CBIPAVdatabaseSync@@@std@@@std@@@std@@@2@V?$_Tree_const_iterator@V?$_Tree_val@U?$_Tree_simple_types@U?$pair@$$CBIPAVdatabaseSync@@@std@@@std@@@std@@@2@@Z 0042de60 f i databaseSync.obj
 0001:0002d880       ?find@?$_Tree@V?$_Tmap_traits@IPAVdatabaseSync@@U?$less@I@std@@V?$allocator@U?$pair@$$CBIPAVdatabaseSync@@@std@@@3@$0A@@std@@@std@@QAE?AV?$_Tree_iterator@V?$_Tree_val@U?$_Tree_simple_types@U?$pair@$$CBIPAVdatabaseSync@@@std@@@std@@@std@@@2@ABI@Z 0042e880 f i databaseSync.obj
 0001:0002da90       ?insert@?$_Tree@V?$_Tset_traits@VdbEntry@@U?$less@VdbEntry@@@std@@V?$allocator@VdbEntry@@@3@$0A@@std@@@std@@QAE?AU?$pair@V?$_Tree_const_iterator@V?$_Tree_val@U?$_Tree_simple_types@VdbEntry@@@std@@@std@@@std@@_N@2@$$QAVdbEntry@@@Z 0042ea90 f i databaseSync.obj
 0001:0002daf0       ?insert@?$set@VdbEntry@@U?$less@VdbEntry@@@std@@V?$allocator@VdbEntry@@@3@@std@@QAE?AU?$pair@V?$_Tree_const_iterator@V?$_Tree_val@U?$_Tree_simple_types@VdbEntry@@@std@@@std@@@std@@_N@2@$$QAVdbEntry@@@Z 0042eaf0 f i databaseSync.obj
 0001:0002db40       ?isShared@RefCount@QtPrivate@@QBE_NXZ 0042eb40 f i databaseSync.obj
 0001:0002db90       ?load@?$QBasicAtomicInteger@H@@QBEHXZ 0042eb90 f i databaseSync.obj
 0001:0002dbb0       ?lower_bound@?$_Tree@V?$_Tmap_traits@IPAVdatabaseSync@@U?$less@I@std@@V?$allocator@U?$pair@$$CBIPAVdatabaseSync@@@std@@@3@$0A@@std@@@std@@QAE?AV?$_Tree_iterator@V?$_Tree_val@U?$_Tree_simple_types@U?$pair@$$CBIPAVdatabaseSync@@@std@@@std@@@std@@@2@ABI@Z 0042ebb0 f i databaseSync.obj
 0001:0002dc00       ?max_size@?$_Tree@V?$_Tmap_traits@IPAVdatabaseSync@@U?$less@I@std@@V?$allocator@U?$pair@$$CBIPAVdatabaseSync@@@std@@@3@$0A@@std@@@std@@QBEIXZ 0042ec00 f i databaseSync.obj
 0001:0002dc30       ?max_size@?$_Tree@V?$_Tset_traits@VdbEntry@@U?$less@VdbEntry@@@std@@V?$allocator@VdbEntry@@@3@$0A@@std@@@std@@QBEIXZ 0042ec30 f i databaseSync.obj
 0001:0002dc60       ?max_size@?$_Wrap_alloc@V?$allocator@U?$_Tree_node@U?$pair@$$CBIPAVdatabaseSync@@@std@@PAX@std@@@std@@@std@@QBEIXZ 0042ec60 f i databaseSync.obj
 0001:0002dc80       ?max_size@?$_Wrap_alloc@V?$allocator@U?$_Tree_node@VdbEntry@@PAX@std@@@std@@@std@@QBEIXZ 0042ec80 f i databaseSync.obj
 0001:0002dca0       ?max_size@?$allocator@U?$_Tree_node@U?$pair@$$CBIPAVdatabaseSync@@@std@@PAX@std@@@std@@QBEIXZ 0042eca0 f i databaseSync.obj
 0001:0002dcc0       ?max_size@?$allocator@U?$_Tree_node@VdbEntry@@PAX@std@@@std@@QBEIXZ 0042ecc0 f i databaseSync.obj
 0001:0002dce0       ?max_size@?$allocator_traits@V?$allocator@U?$_Tree_node@U?$pair@$$CBIPAVdatabaseSync@@@std@@PAX@std@@@std@@@std@@SAIABV?$allocator@U?$_Tree_node@U?$pair@$$CBIPAVdatabaseSync@@@std@@PAX@std@@@2@@Z 0042ece0 f i databaseSync.obj
 0001:0002dcf0       ?max_size@?$allocator_traits@V?$allocator@U?$_Tree_node@VdbEntry@@PAX@std@@@std@@@std@@SAIABV?$allocator@U?$_Tree_node@VdbEntry@@PAX@std@@@2@@Z 0042ecf0 f i databaseSync.obj
 0001:0002dd00       ?node_copy@?$QList@VQString@@@@AAEXPAUNode@1@00@Z 0042ed00 f i databaseSync.obj
 0001:0002df80       ?node_destruct@?$QList@VQString@@@@AAEXPAUNode@1@0@Z 0042ef80 f i databaseSync.obj
 0001:0002e020       ?pointer_to@?$pointer_traits@PAU?$pair@$$CBIPAVdatabaseSync@@@std@@@std@@SAPAU?$pair@$$CBIPAVdatabaseSync@@@2@AAU32@@Z 0042f020 f i databaseSync.obj
 0001:0002e040       ?pointer_to@?$pointer_traits@PBU?$pair@$$CBIPAVdatabaseSync@@@std@@@std@@SAPBU?$pair@$$CBIPAVdatabaseSync@@@2@ABU32@@Z 0042f040 f i databaseSync.obj
 0001:0002e060       ?qt_noop@@YAXXZ            0042f060 f i databaseSync.obj
 0001:0002e070       ?t@Node@?$QList@VQString@@@@QAEAAVQString@@XZ 0042f070 f i databaseSync.obj
 0001:0002e0a0       ??0decodeBNCSString@@QAE@PBDD@Z 0042f0a0 f   decodeBNCSString.obj
 0001:0002e340       ??1decodeBNCSString@@UAE@XZ 0042f340 f   decodeBNCSString.obj
 0001:0002e430       ??_GdecodeBNCSString@@UAEPAXI@Z 0042f430 f i decodeBNCSString.obj
 0001:0002e430       ??_EdecodeBNCSString@@UAEPAXI@Z 0042f430 f i decodeBNCSString.obj
 0001:0002e470       ??0fabianServer@@QAE@PAVQObject@@ABVQHostAddress@@H_N2PAVIfabian_clientCallback@@PAV?$set@VQString@@U?$less@VQString@@@std@@V?$allocator@VQString@@@3@@std@@4@Z 0042f470 f   fabianServer.obj
 0001:0002e7b0       ??1fabianServer@@UAE@XZ    0042f7b0 f   fabianServer.obj
 0001:0002e8a0       ?ok@fabianServer@@QAE_NXZ  0042f8a0 f   fabianServer.obj
 0001:0002e8c0       ?deleteClientsByName@fabianServer@@QAEHABVQString@@@Z 0042f8c0 f   fabianServer.obj
 0001:0002ea30       ?incomingConnection@fabianServer@@MAEXH@Z 0042fa30 f   fabianServer.obj
 0001:0002ef00       ?socketDisconnected@fabianServer@@AAEXXZ 0042ff00 f   fabianServer.obj
 0001:0002f220       ??$_Allocate@U?$_List_node@PAVfabian_client@@PAX@std@@@std@@YAPAU?$_List_node@PAVfabian_client@@PAX@0@IPAU10@@Z 00430220 f i fabianServer.obj
 0001:0002f270       ??$_Buynode@ABQAVfabian_client@@@?$_List_buy@PAVfabian_client@@V?$allocator@PAVfabian_client@@@std@@@std@@QAEPAU?$_List_node@PAVfabian_client@@PAX@1@PAU21@0ABQAVfabian_client@@@Z 00430270 f i fabianServer.obj
 0001:0002f390       ??$_Insert@ABQAVfabian_client@@@?$list@PAVfabian_client@@V?$allocator@PAVfabian_client@@@std@@@std@@QAEXV?$_List_unchecked_const_iterator@V?$_List_val@U?$_List_simple_types@PAVfabian_client@@@std@@@std@@U_Iterator_base0@2@@1@ABQAVfabian_client@@@Z 00430390 f i fabianServer.obj
 0001:0002f430       ??$addressof@PAU?$_List_node@PAVfabian_client@@PAX@std@@@std@@YAPAPAU?$_List_node@PAVfabian_client@@PAX@0@AAPAU10@@Z 00430430 f i fabianServer.obj
 0001:0002f440       ??$addressof@PAVfabian_client@@@std@@YAPAPAVfabian_client@@AAPAV1@@Z 00430440 f i fabianServer.obj
 0001:0002f450       ??$addressof@QAVfabian_client@@@std@@YAPBQAVfabian_client@@ABQAV1@@Z 00430450 f i fabianServer.obj
 0001:0002f460       ??$construct@PAU?$_List_node@PAVfabian_client@@PAX@std@@AAPAU12@@?$_Wrap_alloc@V?$allocator@U?$_List_node@PAVfabian_client@@PAX@std@@@std@@@std@@QAEXPAPAU?$_List_node@PAVfabian_client@@PAX@1@AAPAU21@@Z 00430460 f i fabianServer.obj
 0001:0002f4a0       ??$construct@PAU?$_List_node@PAVfabian_client@@PAX@std@@AAPAU12@@?$allocator@U?$_List_node@PAVfabian_client@@PAX@std@@@std@@QAEXPAPAU?$_List_node@PAVfabian_client@@PAX@1@AAPAU21@@Z 004304a0 f i fabianServer.obj
 0001:0002f550       ??$construct@PAU?$_List_node@PAVfabian_client@@PAX@std@@AAPAU12@@?$allocator_traits@V?$allocator@U?$_List_node@PAVfabian_client@@PAX@std@@@std@@@std@@SAXAAV?$allocator@U?$_List_node@PAVfabian_client@@PAX@std@@@1@PAPAU?$_List_node@PAVfabian_client@@PAX@1@AAPAU31@@Z 00430550 f i fabianServer.obj
 0001:0002f580       ??$construct@PAVfabian_client@@ABQAV1@@?$_Wrap_alloc@V?$allocator@U?$_List_node@PAVfabian_client@@PAX@std@@@std@@@std@@QAEXPAPAVfabian_client@@ABQAV2@@Z 00430580 f i fabianServer.obj
 0001:0002f5c0       ??$construct@PAVfabian_client@@ABQAV1@@?$allocator@U?$_List_node@PAVfabian_client@@PAX@std@@@std@@QAEXPAPAVfabian_client@@ABQAV2@@Z 004305c0 f i fabianServer.obj
 0001:0002f670       ??$construct@PAVfabian_client@@ABQAV1@@?$allocator_traits@V?$allocator@U?$_List_node@PAVfabian_client@@PAX@std@@@std@@@std@@SAXAAV?$allocator@U?$_List_node@PAVfabian_client@@PAX@std@@@1@PAPAVfabian_client@@ABQAV3@@Z 00430670 f i fabianServer.obj
 0001:0002f6a0       ??$destroy@PAU?$_List_node@PAVfabian_client@@PAX@std@@@?$_Wrap_alloc@V?$allocator@U?$_List_node@PAVfabian_client@@PAX@std@@@std@@@std@@QAEXPAPAU?$_List_node@PAVfabian_client@@PAX@1@@Z 004306a0 f i fabianServer.obj
 0001:0002f6d0       ??$destroy@PAU?$_List_node@PAVfabian_client@@PAX@std@@@?$allocator@U?$_List_node@PAVfabian_client@@PAX@std@@@std@@QAEXPAPAU?$_List_node@PAVfabian_client@@PAX@1@@Z 004306d0 f i fabianServer.obj
 0001:0002f6e0       ??$destroy@PAU?$_List_node@PAVfabian_client@@PAX@std@@@?$allocator_traits@V?$allocator@U?$_List_node@PAVfabian_client@@PAX@std@@@std@@@std@@SAXAAV?$allocator@U?$_List_node@PAVfabian_client@@PAX@std@@@1@PAPAU?$_List_node@PAVfabian_client@@PAX@1@@Z 004306e0 f i fabianServer.obj
 0001:0002f700       ??$destroy@PAVfabian_client@@@?$_Wrap_alloc@V?$allocator@U?$_List_node@PAVfabian_client@@PAX@std@@@std@@@std@@QAEXPAPAVfabian_client@@@Z 00430700 f i fabianServer.obj
 0001:0002f730       ??$destroy@PAVfabian_client@@@?$allocator@U?$_List_node@PAVfabian_client@@PAX@std@@@std@@QAEXPAPAVfabian_client@@@Z 00430730 f i fabianServer.obj
 0001:0002f740       ??$destroy@PAVfabian_client@@@?$allocator_traits@V?$allocator@U?$_List_node@PAVfabian_client@@PAX@std@@@std@@@std@@SAXAAV?$allocator@U?$_List_node@PAVfabian_client@@PAX@std@@@1@PAPAVfabian_client@@@Z 00430740 f i fabianServer.obj
 0001:0002f760       ??$forward@AAPAU?$_List_node@PAVfabian_client@@PAX@std@@@std@@YAAAPAU?$_List_node@PAVfabian_client@@PAX@0@AAPAU10@@Z 00430760 f i fabianServer.obj
 0001:0002f770       ??$forward@ABQAVfabian_client@@@std@@YAABQAVfabian_client@@ABQAV1@@Z 00430770 f i fabianServer.obj
 0001:0002f780       ??0?$_Iterator012@Ubidirectional_iterator_tag@std@@PAVfabian_client@@HPBQAV3@ABQAV3@U_Iterator_base12@2@@std@@QAE@ABU01@@Z 00430780 f i fabianServer.obj
 0001:0002f7b0       ??0?$_Iterator012@Ubidirectional_iterator_tag@std@@PAVfabian_client@@HPBQAV3@ABQAV3@U_Iterator_base12@2@@std@@QAE@XZ 004307b0 f i fabianServer.obj
 0001:0002f7d0       ??0?$_Iterator012@Ubidirectional_iterator_tag@std@@VQString@@HPBV3@ABV3@U_Iterator_base12@2@@std@@QAE@XZ 004307d0 f i fabianServer.obj
 0001:0002f7f0       ??0?$_List_alloc@$0A@U?$_List_base_types@PAVfabian_client@@V?$allocator@PAVfabian_client@@@std@@@std@@@std@@QAE@ABV?$allocator@PAVfabian_client@@@1@@Z 004307f0 f i fabianServer.obj
 0001:0002f8c0       ??0?$_List_buy@PAVfabian_client@@V?$allocator@PAVfabian_client@@@std@@@std@@QAE@ABV?$allocator@PAVfabian_client@@@1@@Z 004308c0 f i fabianServer.obj
 0001:0002f8f0       ??0?$_List_const_iterator@V?$_List_val@U?$_List_simple_types@PAVfabian_client@@@std@@@std@@@std@@QAE@ABV01@@Z 004308f0 f i fabianServer.obj
 0001:0002f920       ??0?$_List_const_iterator@V?$_List_val@U?$_List_simple_types@PAVfabian_client@@@std@@@std@@@std@@QAE@PAU?$_List_node@PAVfabian_client@@PAX@1@PBV?$_List_val@U?$_List_simple_types@PAVfabian_client@@@std@@@1@@Z 00430920 f i fabianServer.obj
 0001:0002f950       ??0?$_List_iterator@V?$_List_val@U?$_List_simple_types@PAVfabian_client@@@std@@@std@@@std@@QAE@ABV01@@Z 00430950 f i fabianServer.obj
 0001:0002f980       ??0?$_List_iterator@V?$_List_val@U?$_List_simple_types@PAVfabian_client@@@std@@@std@@@std@@QAE@PAU?$_List_node@PAVfabian_client@@PAX@1@PBV?$_List_val@U?$_List_simple_types@PAVfabian_client@@@std@@@1@@Z 00430980 f i fabianServer.obj
 0001:0002f9b0       ??0?$_List_unchecked_const_iterator@V?$_List_val@U?$_List_simple_types@PAVfabian_client@@@std@@@std@@U_Iterator_base0@2@@std@@QAE@PAU?$_List_node@PAVfabian_client@@PAX@1@PBV?$_List_val@U?$_List_simple_types@PAVfabian_client@@@std@@@1@@Z 004309b0 f i fabianServer.obj
 0001:0002f9e0       ??0?$_List_unchecked_const_iterator@V?$_List_val@U?$_List_simple_types@PAVfabian_client@@@std@@@std@@U_Iterator_base12@2@@std@@QAE@ABV01@@Z 004309e0 f i fabianServer.obj
 0001:0002fa20       ??0?$_List_unchecked_const_iterator@V?$_List_val@U?$_List_simple_types@PAVfabian_client@@@std@@@std@@U_Iterator_base12@2@@std@@QAE@PAU?$_List_node@PAVfabian_client@@PAX@1@PBV?$_List_val@U?$_List_simple_types@PAVfabian_client@@@std@@@1@@Z 00430a20 f i fabianServer.obj
 0001:0002faa0       ??0?$_List_unchecked_iterator@V?$_List_val@U?$_List_simple_types@PAVfabian_client@@@std@@@std@@@std@@QAE@PAU?$_List_node@PAVfabian_client@@PAX@1@PBV?$_List_val@U?$_List_simple_types@PAVfabian_client@@@std@@@1@@Z 00430aa0 f i fabianServer.obj
 0001:0002fad0       ??0?$_List_val@U?$_List_simple_types@PAVfabian_client@@@std@@@std@@QAE@XZ 00430ad0 f i fabianServer.obj
 0001:0002fb10       ??0?$_Tree_const_iterator@V?$_Tree_val@U?$_Tree_simple_types@VQString@@@std@@@std@@@std@@QAE@PAU?$_Tree_node@VQString@@PAX@1@PBV?$_Tree_val@U?$_Tree_simple_types@VQString@@@std@@@1@@Z 00430b10 f i fabianServer.obj
 0001:0002fb40       ??0?$_Tree_unchecked_const_iterator@V?$_Tree_val@U?$_Tree_simple_types@VQString@@@std@@@std@@U_Iterator_base12@2@@std@@QAE@PAU?$_Tree_node@VQString@@PAX@1@PBV?$_Tree_val@U?$_Tree_simple_types@VQString@@@std@@@1@@Z 00430b40 f i fabianServer.obj
 0001:0002fbc0       ??0?$_Wrap_alloc@V?$allocator@U?$_List_node@PAVfabian_client@@PAX@std@@@std@@@std@@QAE@XZ 00430bc0 f i fabianServer.obj
 0001:0002fbe0       ??0?$allocator@PAVfabian_client@@@std@@QAE@XZ 00430be0 f i fabianServer.obj
 0001:0002fc00       ??0?$allocator@U?$_List_node@PAVfabian_client@@PAX@std@@@std@@QAE@XZ 00430c00 f i fabianServer.obj
 0001:0002fc20       ??0?$list@PAVfabian_client@@V?$allocator@PAVfabian_client@@@std@@@std@@QAE@XZ 00430c20 f i fabianServer.obj
 0001:0002fc50       ??1?$QPair@VQHostAddress@@H@@QAE@XZ 00430c50 f i fabianServer.obj
 0001:0002fc70       ??1?$_Iterator012@Ubidirectional_iterator_tag@std@@PAVfabian_client@@HPBQAV3@ABQAV3@U_Iterator_base12@2@@std@@QAE@XZ 00430c70 f i fabianServer.obj
 0001:0002fc90       ??1?$_Iterator012@Ubidirectional_iterator_tag@std@@VQString@@HPBV3@ABV3@U_Iterator_base12@2@@std@@QAE@XZ 00430c90 f i fabianServer.obj
 0001:0002fcb0       ??1?$_List_alloc@$0A@U?$_List_base_types@PAVfabian_client@@V?$allocator@PAVfabian_client@@@std@@@std@@@std@@QAE@XZ 00430cb0 f i fabianServer.obj
 0001:0002fcf0       ??1?$_List_buy@PAVfabian_client@@V?$allocator@PAVfabian_client@@@std@@@std@@QAE@XZ 00430cf0 f i fabianServer.obj
 0001:0002fd10       ??1?$_List_const_iterator@V?$_List_val@U?$_List_simple_types@PAVfabian_client@@@std@@@std@@@std@@QAE@XZ 00430d10 f i fabianServer.obj
 0001:0002fd30       ??1?$_List_iterator@V?$_List_val@U?$_List_simple_types@PAVfabian_client@@@std@@@std@@@std@@QAE@XZ 00430d30 f i fabianServer.obj
 0001:0002fd50       ??1?$_List_unchecked_const_iterator@V?$_List_val@U?$_List_simple_types@PAVfabian_client@@@std@@@std@@U_Iterator_base12@2@@std@@QAE@XZ 00430d50 f i fabianServer.obj
 0001:0002fd70       ??1?$_List_val@U?$_List_simple_types@PAVfabian_client@@@std@@@std@@QAE@XZ 00430d70 f i fabianServer.obj
 0001:0002fd90       ??1?$_Tree_const_iterator@V?$_Tree_val@U?$_Tree_simple_types@VQString@@@std@@@std@@@std@@QAE@XZ 00430d90 f i fabianServer.obj
 0001:0002fdb0       ??1?$_Tree_unchecked_const_iterator@V?$_Tree_val@U?$_Tree_simple_types@VQString@@@std@@@std@@U_Iterator_base12@2@@std@@QAE@XZ 00430db0 f i fabianServer.obj
 0001:0002fdd0       ??1?$list@PAVfabian_client@@V?$allocator@PAVfabian_client@@@std@@@std@@QAE@XZ 00430dd0 f i fabianServer.obj
 0001:0002fe00       ??4?$_Iterator012@Ubidirectional_iterator_tag@std@@PAVfabian_client@@HPBQAV3@ABQAV3@U_Iterator_base12@2@@std@@QAEAAU01@ABU01@@Z 00430e00 f i fabianServer.obj
 0001:0002fe30       ??4?$_List_const_iterator@V?$_List_val@U?$_List_simple_types@PAVfabian_client@@@std@@@std@@@std@@QAEAAV01@ABV01@@Z 00430e30 f i fabianServer.obj
 0001:0002fe60       ??4?$_List_iterator@V?$_List_val@U?$_List_simple_types@PAVfabian_client@@@std@@@std@@@std@@QAEAAV01@ABV01@@Z 00430e60 f i fabianServer.obj
 0001:0002fe90       ??4?$_List_unchecked_const_iterator@V?$_List_val@U?$_List_simple_types@PAVfabian_client@@@std@@@std@@U_Iterator_base12@2@@std@@QAEAAV01@ABV01@@Z 00430e90 f i fabianServer.obj
 0001:0002fed0       ??8?$_List_const_iterator@V?$_List_val@U?$_List_simple_types@PAVfabian_client@@@std@@@std@@@std@@QBE_NABV01@@Z 00430ed0 f i fabianServer.obj
 0001:0002ffc0       ??8?$_Tree_const_iterator@V?$_Tree_val@U?$_Tree_simple_types@VQString@@@std@@@std@@@std@@QBE_NABV01@@Z 00430fc0 f i fabianServer.obj
 0001:000300b0       ??9?$_List_const_iterator@V?$_List_val@U?$_List_simple_types@PAVfabian_client@@@std@@@std@@@std@@QBE_NABV01@@Z 004310b0 f i fabianServer.obj
 0001:00030100       ??9?$_Tree_const_iterator@V?$_Tree_val@U?$_Tree_simple_types@VQString@@@std@@@std@@@std@@QBE_NABV01@@Z 00431100 f i fabianServer.obj
 0001:00030150       ??D?$_List_const_iterator@V?$_List_val@U?$_List_simple_types@PAVfabian_client@@@std@@@std@@@std@@QBEABQAVfabian_client@@XZ 00431150 f i fabianServer.obj
 0001:00030230       ??D?$_List_iterator@V?$_List_val@U?$_List_simple_types@PAVfabian_client@@@std@@@std@@@std@@QBEAAPAVfabian_client@@XZ 00431230 f i fabianServer.obj
 0001:00030250       ??D?$_Tree_const_iterator@V?$_Tree_val@U?$_Tree_simple_types@VQString@@@std@@@std@@@std@@QBEABVQString@@XZ 00431250 f i fabianServer.obj
 0001:00030330       ??E?$_List_const_iterator@V?$_List_val@U?$_List_simple_types@PAVfabian_client@@@std@@@std@@@std@@QAE?AV01@H@Z 00431330 f i fabianServer.obj
 0001:000303e0       ??E?$_List_const_iterator@V?$_List_val@U?$_List_simple_types@PAVfabian_client@@@std@@@std@@@std@@QAEAAV01@XZ 004313e0 f i fabianServer.obj
 0001:000304d0       ??E?$_List_iterator@V?$_List_val@U?$_List_simple_types@PAVfabian_client@@@std@@@std@@@std@@QAE?AV01@H@Z 004314d0 f i fabianServer.obj
 0001:00030580       ??E?$_List_iterator@V?$_List_val@U?$_List_simple_types@PAVfabian_client@@@std@@@std@@@std@@QAEAAV01@XZ 00431580 f i fabianServer.obj
 0001:000305a0       ??E?$_Tree_const_iterator@V?$_Tree_val@U?$_Tree_simple_types@VQString@@@std@@@std@@@std@@QAEAAV01@XZ 004315a0 f i fabianServer.obj
 0001:00030680       ??E?$_Tree_unchecked_const_iterator@V?$_Tree_val@U?$_Tree_simple_types@VQString@@@std@@@std@@U_Iterator_base12@2@@std@@QAEAAV01@XZ 00431680 f i fabianServer.obj
 0001:00030770       ??_EfabianServer@@UAEPAXI@Z 00431770 f i fabianServer.obj
 0001:00030770       ??_GfabianServer@@UAEPAXI@Z 00431770 f i fabianServer.obj
 0001:000307b0       ?_Alloc_proxy@?$_List_alloc@$0A@U?$_List_base_types@PAVfabian_client@@V?$allocator@PAVfabian_client@@@std@@@std@@@std@@QAEXXZ 004317b0 f i fabianServer.obj
 0001:00030810       ?_Buyheadnode@?$_List_alloc@$0A@U?$_List_base_types@PAVfabian_client@@V?$allocator@PAVfabian_client@@@std@@@std@@@std@@QAEPAU?$_List_node@PAVfabian_client@@PAX@2@XZ 00431810 f i fabianServer.obj
 0001:00030830       ?_Buynode0@?$_List_alloc@$0A@U?$_List_base_types@PAVfabian_client@@V?$allocator@PAVfabian_client@@@std@@@std@@@std@@QAEPAU?$_List_node@PAVfabian_client@@PAX@2@PAU32@0@Z 00431830 f i fabianServer.obj
 0001:000309a0       ?_Free_proxy@?$_List_alloc@$0A@U?$_List_base_types@PAVfabian_client@@V?$allocator@PAVfabian_client@@@std@@@std@@@std@@QAEXXZ 004319a0 f i fabianServer.obj
 0001:00030a00       ?_Freeheadnode@?$_List_alloc@$0A@U?$_List_base_types@PAVfabian_client@@V?$allocator@PAVfabian_client@@@std@@@std@@@std@@QAEXPAU?$_List_node@PAVfabian_client@@PAX@2@@Z 00431a00 f i fabianServer.obj
 0001:00030aa0       ?_Freenode@?$_List_buy@PAVfabian_client@@V?$allocator@PAVfabian_client@@@std@@@std@@QAEXPAU?$_List_node@PAVfabian_client@@PAX@2@@Z 00431aa0 f i fabianServer.obj
 0001:00030b70       ?_Getal@?$_List_alloc@$0A@U?$_List_base_types@PAVfabian_client@@V?$allocator@PAVfabian_client@@@std@@@std@@@std@@QBE?AU?$_Wrap_alloc@V?$allocator@U?$_List_node@PAVfabian_client@@PAX@std@@@std@@@2@XZ 00431b70 f i fabianServer.obj
 0001:00030b90       ?_Incsize@?$list@PAVfabian_client@@V?$allocator@PAVfabian_client@@@std@@@std@@QAEXI@Z 00431b90 f i fabianServer.obj
 0001:00030be0       ?_Isnil@?$_Tree_val@U?$_Tree_simple_types@VQString@@@std@@@std@@SAAADPAU?$_Tree_node@VQString@@PAX@2@@Z 00431be0 f i fabianServer.obj
 0001:00030bf0       ?_Left@?$_Tree_val@U?$_Tree_simple_types@VQString@@@std@@@std@@SAAAPAU?$_Tree_node@VQString@@PAX@2@PAU32@@Z 00431bf0 f i fabianServer.obj
 0001:00030c00       ?_Lmost@?$_Tree@V?$_Tset_traits@VQString@@U?$less@VQString@@@std@@V?$allocator@VQString@@@3@$0A@@std@@@std@@IBEAAPAU?$_Tree_node@VQString@@PAX@2@XZ 00431c00 f i fabianServer.obj
 0001:00030c20       ?_Make_iter@?$list@PAVfabian_client@@V?$allocator@PAVfabian_client@@@std@@@std@@QBE?AV?$_List_iterator@V?$_List_val@U?$_List_simple_types@PAVfabian_client@@@std@@@std@@@2@V?$_List_const_iterator@V?$_List_val@U?$_List_simple_types@PAVfabian_client@@@std@@@std@@@2@@Z 00431c20 f i fabianServer.obj
 0001:00030c60       ?_Min@?$_Tree_val@U?$_Tree_simple_types@VQString@@@std@@@std@@SAPAU?$_Tree_node@VQString@@PAX@2@PAU32@@Z 00431c60 f i fabianServer.obj
 0001:00030cb0       ?_Mynode@?$_List_unchecked_const_iterator@V?$_List_val@U?$_List_simple_types@PAVfabian_client@@@std@@@std@@U_Iterator_base0@2@@std@@QBEPAU?$_List_node@PAVfabian_client@@PAX@2@XZ 00431cb0 f i fabianServer.obj
 0001:00030cd0       ?_Mynode@?$_List_unchecked_const_iterator@V?$_List_val@U?$_List_simple_types@PAVfabian_client@@@std@@@std@@U_Iterator_base12@2@@std@@QBEPAU?$_List_node@PAVfabian_client@@PAX@2@XZ 00431cd0 f i fabianServer.obj
 0001:00030cf0       ?_Myval@?$_List_val@U?$_List_simple_types@PAVfabian_client@@@std@@@std@@SAAAPAVfabian_client@@PAU?$_List_node@PAVfabian_client@@PAX@2@@Z 00431cf0 f i fabianServer.obj
 0001:00030d00       ?_Myval@?$_Tree_val@U?$_Tree_simple_types@VQString@@@std@@@std@@SAAAVQString@@PAU?$_Tree_node@VQString@@PAX@2@@Z 00431d00 f i fabianServer.obj
 0001:00030d10       ?_Nextnode@?$_List_val@U?$_List_simple_types@PAVfabian_client@@@std@@@std@@SAAAPAU?$_List_node@PAVfabian_client@@PAX@2@PAU32@@Z 00431d10 f i fabianServer.obj
 0001:00030d20       ?_Orphan_ptr@?$list@PAVfabian_client@@V?$allocator@PAVfabian_client@@@std@@@std@@QBEXAAV12@PAU?$_List_node@PAVfabian_client@@PAX@2@@Z 00431d20 f i fabianServer.obj
 0001:00030e20       ?_Parent@?$_Tree_val@U?$_Tree_simple_types@VQString@@@std@@@std@@SAAAPAU?$_Tree_node@VQString@@PAX@2@PAU32@@Z 00431e20 f i fabianServer.obj
 0001:00030e30       ?_Prevnode@?$_List_val@U?$_List_simple_types@PAVfabian_client@@@std@@@std@@SAAAPAU?$_List_node@PAVfabian_client@@PAX@2@PAU32@@Z 00431e30 f i fabianServer.obj
 0001:00030e40       ?_Right@?$_Tree_val@U?$_Tree_simple_types@VQString@@@std@@@std@@SAAAPAU?$_Tree_node@VQString@@PAX@2@PAU32@@Z 00431e40 f i fabianServer.obj
 0001:00030e50       ?_Tidy@?$list@PAVfabian_client@@V?$allocator@PAVfabian_client@@@std@@@std@@QAEXXZ 00431e50 f i fabianServer.obj
 0001:00030e70       ?_Unchecked_end@?$list@PAVfabian_client@@V?$allocator@PAVfabian_client@@@std@@@std@@QAE?AV?$_List_unchecked_iterator@V?$_List_val@U?$_List_simple_types@PAVfabian_client@@@std@@@std@@@2@XZ 00431e70 f i fabianServer.obj
 0001:00030ea0       ?_Unlinknode@?$list@PAVfabian_client@@V?$allocator@PAVfabian_client@@@std@@@std@@QAEPAU?$_List_node@PAVfabian_client@@PAX@2@V?$_List_const_iterator@V?$_List_val@U?$_List_simple_types@PAVfabian_client@@@std@@@std@@@2@@Z 00431ea0 f i fabianServer.obj
 0001:00030ff0       ?allocate@?$_Wrap_alloc@V?$allocator@U?$_List_node@PAVfabian_client@@PAX@std@@@std@@@std@@QAEPAU?$_List_node@PAVfabian_client@@PAX@2@I@Z 00431ff0 f i fabianServer.obj
 0001:00031010       ?allocate@?$allocator@U?$_List_node@PAVfabian_client@@PAX@std@@@std@@QAEPAU?$_List_node@PAVfabian_client@@PAX@2@I@Z 00432010 f i fabianServer.obj
 0001:00031040       ?begin@?$_Tree@V?$_Tset_traits@VQString@@U?$less@VQString@@@std@@V?$allocator@VQString@@@3@$0A@@std@@@std@@QAE?AV?$_Tree_const_iterator@V?$_Tree_val@U?$_Tree_simple_types@VQString@@@std@@@std@@@2@XZ 00432040 f i fabianServer.obj
 0001:00031070       ?begin@?$list@PAVfabian_client@@V?$allocator@PAVfabian_client@@@std@@@std@@QAE?AV?$_List_iterator@V?$_List_val@U?$_List_simple_types@PAVfabian_client@@@std@@@std@@@2@XZ 00432070 f i fabianServer.obj
 0001:000310b0       ?clear@?$list@PAVfabian_client@@V?$allocator@PAVfabian_client@@@std@@@std@@QAEXXZ 004320b0 f i fabianServer.obj
 0001:00031170       ?deallocate@?$_Wrap_alloc@V?$allocator@U?$_List_node@PAVfabian_client@@PAX@std@@@std@@@std@@QAEXPAU?$_List_node@PAVfabian_client@@PAX@2@I@Z 00432170 f i fabianServer.obj
 0001:000311a0       ?deallocate@?$allocator@U?$_List_node@PAVfabian_client@@PAX@std@@@std@@QAEXPAU?$_List_node@PAVfabian_client@@PAX@2@I@Z 004321a0 f i fabianServer.obj
 0001:000311c0       ?end@?$_Tree@V?$_Tset_traits@VQString@@U?$less@VQString@@@std@@V?$allocator@VQString@@@3@$0A@@std@@@std@@QAE?AV?$_Tree_const_iterator@V?$_Tree_val@U?$_Tree_simple_types@VQString@@@std@@@std@@@2@XZ 004321c0 f i fabianServer.obj
 0001:000311f0       ?end@?$list@PAVfabian_client@@V?$allocator@PAVfabian_client@@@std@@@std@@QAE?AV?$_List_iterator@V?$_List_val@U?$_List_simple_types@PAVfabian_client@@@std@@@std@@@2@XZ 004321f0 f i fabianServer.obj
 0001:00031220       ?erase@?$list@PAVfabian_client@@V?$allocator@PAVfabian_client@@@std@@@std@@QAE?AV?$_List_iterator@V?$_List_val@U?$_List_simple_types@PAVfabian_client@@@std@@@std@@@2@V?$_List_const_iterator@V?$_List_val@U?$_List_simple_types@PAVfabian_client@@@std@@@std@@@2@@Z 00432220 f i fabianServer.obj
 0001:00031310       ?max_size@?$_Wrap_alloc@V?$allocator@U?$_List_node@PAVfabian_client@@PAX@std@@@std@@@std@@QBEIXZ 00432310 f i fabianServer.obj
 0001:00031330       ?max_size@?$allocator@U?$_List_node@PAVfabian_client@@PAX@std@@@std@@QBEIXZ 00432330 f i fabianServer.obj
 0001:00031350       ?max_size@?$allocator_traits@V?$allocator@U?$_List_node@PAVfabian_client@@PAX@std@@@std@@@std@@SAIABV?$allocator@U?$_List_node@PAVfabian_client@@PAX@std@@@2@@Z 00432350 f i fabianServer.obj
 0001:00031360       ?max_size@?$list@PAVfabian_client@@V?$allocator@PAVfabian_client@@@std@@@std@@QBEIXZ 00432360 f i fabianServer.obj
 0001:00031390       ?push_back@?$list@PAVfabian_client@@V?$allocator@PAVfabian_client@@@std@@@std@@QAEXABQAVfabian_client@@@Z 00432390 f i fabianServer.obj
 0001:000313d0       ?remove@?$list@PAVfabian_client@@V?$allocator@PAVfabian_client@@@std@@@std@@QAEXABQAVfabian_client@@@Z 004323d0 f i fabianServer.obj
 0001:00031650       ?size@?$_Tree@V?$_Tset_traits@VQString@@U?$less@VQString@@@std@@V?$allocator@VQString@@@3@$0A@@std@@@std@@QBEIXZ 00432650 f i fabianServer.obj
 0001:00031670       ??0fabian_client@@QAE@H_N0PAVIfabian_clientCallback@@PAVQObject@@@Z 00432670 f   fabian_client.obj
 0001:000331a0       ??1fabian_client@@UAE@XZ   004341a0 f   fabian_client.obj
 0001:000332e0       ?sendData@fabian_client@@QAEXABVQString@@@Z 004342e0 f   fabian_client.obj
 0001:00033390       ?peerAddress@fabian_client@@QAE?AVQHostAddress@@XZ 00434390 f   fabian_client.obj
 0001:000333f0       ?currentUser@fabian_client@@QAEPAVuser@@XZ 004343f0 f   fabian_client.obj
 0001:00033410       ?userId@fabian_client@@QAE?AVQString@@XZ 00434410 f   fabian_client.obj
 0001:00033520       ?workstationOverride@fabian_client@@QBEIXZ 00434520 f   fabian_client.obj
 0001:00033550       ?sendGreeting@fabian_client@@AAEXXZ 00434550 f   fabian_client.obj
 0001:00033780       ?lineParse@fabian_client@@AAEXABVQStringList@@@Z 00434780 f   fabian_client.obj
 0001:00037ae0       ?bufParse@fabian_client@@AAEHPADH@Z 00438ae0 f   fabian_client.obj
 0001:00037cf0       ?socketEncrypted@fabian_client@@QAEXXZ 00438cf0 f   fabian_client.obj
 0001:00037e60       ?socketSslErrors@fabian_client@@QAEXABV?$QList@VQSslError@@@@@Z 00438e60 f   fabian_client.obj
 0001:000380b0       ?socketDisconnected@fabian_client@@QAEXXZ 004390b0 f   fabian_client.obj
 0001:000381a0       ?socketReadyRead@fabian_client@@QAEXXZ 004391a0 f   fabian_client.obj
 0001:00038490       ?socketError@fabian_client@@QAEXW4SocketError@QAbstractSocket@@@Z 00439490 f   fabian_client.obj
 0001:00038860       ?preSharedKeyAuthenticationRequired@fabian_client@@QAEXPAVQSslPreSharedKeyAuthenticator@@@Z 00439860 f   fabian_client.obj
 0001:000388a0       ?sslMode@fabian_client@@QAEXW4SslMode@QSslSocket@@@Z 004398a0 f   fabian_client.obj
 0001:000388e0       ?timerEvent@fabian_client@@MAEXPAVQTimerEvent@@@Z 004398e0 f   fabian_client.obj
 0001:0003a820       ??$_Move@AAPAUData@QListData@@@std@@YA$$QAPAUData@QListData@@AAPAU12@@Z 0043b820 f i fabian_client.obj
 0001:0003a830       ??$move@AAV?$QList@VQString@@@@@std@@YA$$QAV?$QList@VQString@@@@AAV1@@Z 0043b830 f i fabian_client.obj
 0001:0003a840       ??$qSwap@PAUData@QListData@@@@YAXAAPAUData@QListData@@0@Z 0043b840 f i fabian_client.obj
 0001:0003a860       ??$ref@H@?$QAtomicOpsBySize@$03@@SA_NAAH@Z 0043b860 f i fabian_client.obj
 0001:0003a8a0       ??$swap@PAUData@QListData@@@std@@YAXAAPAUData@QListData@@0@Z 0043b8a0 f i fabian_client.obj
 0001:0003a8f0       ??0?$QFlags@W4OpenModeFlag@QIODevice@@@@QAE@W4OpenModeFlag@QIODevice@@@Z 0043b8f0 f i fabian_client.obj
 0001:0003a910       ??0?$QForeachContainer@$$CBV?$QList@VQSslError@@@@@@QAE@ABV?$QList@VQSslError@@@@@Z 0043b910 f i fabian_client.obj
 0001:0003a970       ??0?$QList@VQSslError@@@@QAE@ABV0@@Z 0043b970 f i fabian_client.obj
 0001:0003aa80       ??0?$QList@VQString@@@@QAE@$$QAV0@@Z 0043ba80 f i fabian_client.obj
 0001:0003aab0       ??0?$QList@VQString@@@@QAE@XZ 0043bab0 f i fabian_client.obj
 0001:0003aad0       ??0QStringList@@QAE@XZ     0043bad0 f i fabian_client.obj
 0001:0003aaf0       ??0const_iterator@?$QList@VQSslError@@@@QAE@PAUNode@1@@Z 0043baf0 f i fabian_client.obj
 0001:0003ab10       ??0const_iterator@?$QList@VQString@@@@QAE@PAUNode@1@@Z 0043bb10 f i fabian_client.obj
 0001:0003ab30       ??1?$QForeachContainer@$$CBV?$QList@VQSslError@@@@@@QAE@XZ 0043bb30 f i fabian_client.obj
 0001:0003ab50       ??1?$QList@VQSslError@@@@QAE@XZ 0043bb50 f i fabian_client.obj
 0001:0003abe0       ??1?$QListSpecialMethods@VQSslError@@@@IAE@XZ 0043bbe0 f i fabian_client.obj
 0001:0003abf0       ??4?$QList@VQString@@@@QAEAAV0@$$QAV0@@Z 0043bbf0 f i fabian_client.obj
 0001:0003ac50       ??9const_iterator@?$QList@VQSslError@@@@QBE_NABV01@@Z 0043bc50 f i fabian_client.obj
 0001:0003ac90       ??9const_iterator@?$QList@VQString@@@@QBE_NABV01@@Z 0043bc90 f i fabian_client.obj
 0001:0003acd0       ??Dconst_iterator@?$QList@VQSslError@@@@QBEABVQSslError@@XZ 0043bcd0 f i fabian_client.obj
 0001:0003acf0       ??Dconst_iterator@?$QList@VQString@@@@QBEABVQString@@XZ 0043bcf0 f i fabian_client.obj
 0001:0003ad10       ??Econst_iterator@?$QList@VQSslError@@@@QAEAAV01@XZ 0043bd10 f i fabian_client.obj
 0001:0003ad40       ??Econst_iterator@?$QList@VQString@@@@QAEAAV01@XZ 0043bd40 f i fabian_client.obj
 0001:0003ad61       ??_Efabian_client@@W7AEPAXI@Z 0043bd61 f i fabian_client.obj
 0001:0003ad70       ??_GQSslError@@QAEPAXI@Z   0043bd70 f i fabian_client.obj
 0001:0003adb0       ??_GQSslSocket@@UAEPAXI@Z  0043bdb0 f i fabian_client.obj
 0001:0003adb0       ??_EQSslSocket@@UAEPAXI@Z  0043bdb0 f i fabian_client.obj
 0001:0003adf0       ??_Gfabian_client@@UAEPAXI@Z 0043bdf0 f i fabian_client.obj
 0001:0003adf0       ??_Efabian_client@@UAEPAXI@Z 0043bdf0 f i fabian_client.obj
 0001:0003ae30       ?append@?$QList@VQString@@@@QAEXABVQString@@@Z 0043be30 f i fabian_client.obj
 0001:0003b000       ?begin@?$QList@VQSslError@@@@QBE?AVconst_iterator@1@XZ 0043c000 f i fabian_client.obj
 0001:0003b030       ?begin@?$QList@VQString@@@@QBE?AVconst_iterator@1@XZ 0043c030 f i fabian_client.obj
 0001:0003b060       ?clear@?$QList@VQString@@@@QAEXXZ 0043c060 f i fabian_client.obj
 0001:0003b0a0       ?dealloc@?$QList@VQSslError@@@@AAEXPAUData@QListData@@@Z 0043c0a0 f i fabian_client.obj
 0001:0003b0f0       ?detach_helper_grow@?$QList@VQString@@@@AAEPAUNode@1@HH@Z 0043c0f0 f i fabian_client.obj
 0001:0003b2d0       ?end@?$QList@VQSslError@@@@QBE?AVconst_iterator@1@XZ 0043c2d0 f i fabian_client.obj
 0001:0003b300       ?end@?$QList@VQString@@@@QBE?AVconst_iterator@1@XZ 0043c300 f i fabian_client.obj
 0001:0003b330       ?join@?$QListSpecialMethods@VQString@@@@QBE?AVQString@@ABV2@@Z 0043c330 f i fabian_client.obj
 0001:0003b390       ?node_construct@?$QList@VQString@@@@AAEXPAUNode@1@ABVQString@@@Z 0043c390 f i fabian_client.obj
 0001:0003b450       ?node_copy@?$QList@VQSslError@@@@AAEXPAUNode@1@00@Z 0043c450 f i fabian_client.obj
 0001:0003b700       ?node_destruct@?$QList@VQSslError@@@@AAEXPAUNode@1@0@Z 0043c700 f i fabian_client.obj
 0001:0003b7a0       ?node_destruct@?$QList@VQString@@@@AAEXPAUNode@1@@Z 0043c7a0 f i fabian_client.obj
 0001:0003b810       ?ref@?$QBasicAtomicInteger@H@@QAE_NXZ 0043c810 f i fabian_client.obj
 0001:0003b830       ?ref@RefCount@QtPrivate@@QAE_NXZ 0043c830 f i fabian_client.obj
 0001:0003b870       ?self@?$QListSpecialMethods@VQString@@@@ABEPBVQStringList@@XZ 0043c870 f i fabian_client.obj
 0001:0003b890       ?size@?$QList@VQSslError@@@@QBEHXZ 0043c890 f i fabian_client.obj
 0001:0003b8b0       ?swap@?$QList@VQString@@@@QAEXAAV1@@Z 0043c8b0 f i fabian_client.obj
 0001:0003b8e0       ?t@Node@?$QList@VQSslError@@@@QAEAAVQSslError@@XZ 0043c8e0 f i fabian_client.obj
 0001:0003b910       ?metaObject@fabianServer@@UBEPBUQMetaObject@@XZ 0043c910 f   moc_fabianServer.obj
 0001:0003b950       ?qt_metacast@fabianServer@@UAEPAXPBD@Z 0043c950 f   moc_fabianServer.obj
 0001:0003b990       ?qt_metacall@fabianServer@@UAEHW4Call@QMetaObject@@HPAPAX@Z 0043c990 f   moc_fabianServer.obj
 0001:0003ba20       ?qt_static_metacall@fabianServer@@CAXPAVQObject@@W4Call@QMetaObject@@HPAPAX@Z 0043ca20 f   moc_fabianServer.obj
 0001:0003baa0       ??C?$QScopedPointer@VQObjectData@@U?$QScopedPointerDeleter@VQObjectData@@@@@@QBEPAVQObjectData@@XZ 0043caa0 f i moc_fabianServer.obj
 0001:0003bac0       ?metaObject@fabian_client@@UBEPBUQMetaObject@@XZ 0043cac0 f   moc_fabian_client.obj
 0001:0003bb00       ?qt_metacast@fabian_client@@UAEPAXPBD@Z 0043cb00 f   moc_fabian_client.obj
 0001:0003bb80       ?qt_metacall@fabian_client@@UAEHW4Call@QMetaObject@@HPAPAX@Z 0043cb80 f   moc_fabian_client.obj
 0001:0003bc10       ?qt_static_metacall@fabian_client@@CAXPAVQObject@@W4Call@QMetaObject@@HPAPAX@Z 0043cc10 f   moc_fabian_client.obj
 0001:0003be30       ?disconnected@fabian_client@@QAEXXZ 0043ce30 f   moc_fabian_client.obj
 0001:0003bf40       ??$acquireMemoryFence@H@?$QGenericAtomicOps@U?$QAtomicOpsBySize@$03@@@@SAXABH@Z 0043cf40 f i moc_fabian_client.obj
 0001:0003bf60       ??$loadAcquire@H@?$QGenericAtomicOps@U?$QAtomicOpsBySize@$03@@@@SAHABH@Z 0043cf60 f i moc_fabian_client.obj
 0001:0003bf90       ??$orderedMemoryFence@H@?$QGenericAtomicOps@U?$QAtomicOpsBySize@$03@@@@SAXABH@Z 0043cf90 f i moc_fabian_client.obj
 0001:0003bfa0       ??$qMetaTypeId@V?$QList@VQSslError@@@@@@YAHXZ 0043cfa0 f i moc_fabian_client.obj
 0001:0003bfb0       ??$qMetaTypeId@W4SocketError@QAbstractSocket@@@@YAHXZ 0043cfb0 f i moc_fabian_client.obj
 0001:0003bfc0       ??$qRegisterMetaType@V?$QList@VQSslError@@@@@@YAHPBDPAV?$QList@VQSslError@@@@W4DefinedType@?$MetaTypeDefinedHelper@V?$QList@VQSslError@@@@$00@QtPrivate@@@Z 0043cfc0 f i moc_fabian_client.obj
 0001:0003c060       ??$qRegisterMetaType@V?$QList@VQSslError@@@@@@YAHXZ 0043d060 f i moc_fabian_client.obj
 0001:0003c070       ??$qRegisterMetaType@W4SocketError@QAbstractSocket@@@@YAHPBDPAW4SocketError@QAbstractSocket@@W4DefinedType@?$MetaTypeDefinedHelper@W4SocketError@QAbstractSocket@@$00@QtPrivate@@@Z 0043d070 f i moc_fabian_client.obj
 0001:0003c110       ??$qRegisterMetaType@W4SocketError@QAbstractSocket@@@@YAHXZ 0043d110 f i moc_fabian_client.obj
 0001:0003c120       ??$qRegisterNormalizedMetaType@V?$QList@VQSslError@@@@@@YAHABVQByteArray@@PAV?$QList@VQSslError@@@@W4DefinedType@?$MetaTypeDefinedHelper@V?$QList@VQSslError@@@@$00@QtPrivate@@@Z 0043d120 f i moc_fabian_client.obj
 0001:0003c300       ??$qRegisterNormalizedMetaType@W4SocketError@QAbstractSocket@@@@YAHABVQByteArray@@PAW4SocketError@QAbstractSocket@@W4DefinedType@?$MetaTypeDefinedHelper@W4SocketError@QAbstractSocket@@$00@QtPrivate@@@Z 0043d300 f i moc_fabian_client.obj
 0001:0003c4e0       ??$releaseMemoryFence@H@?$QGenericAtomicOps@U?$QAtomicOpsBySize@$03@@@@SAXABH@Z 0043d4e0 f i moc_fabian_client.obj
 0001:0003c500       ??$storeRelease@HH@?$QGenericAtomicOps@U?$QAtomicOpsBySize@$03@@@@SAXAAHH@Z 0043d500 f i moc_fabian_client.obj
 0001:0003c520       ??0?$QFlags@W4TypeFlag@QMetaType@@@@QAE@VQFlag@@@Z 0043d520 f i moc_fabian_client.obj
 0001:0003c550       ??0?$QList@VQSslError@@@@QAE@XZ 0043d550 f i moc_fabian_client.obj
 0001:0003c570       ??0QFlag@@QAE@H@Z          0043d570 f i moc_fabian_client.obj
 0001:0003c590       ??8@YA_NABVQByteArray@@0@Z 0043d590 f i moc_fabian_client.obj
 0001:0003c610       ??BQFlag@@QBEHXZ           0043d610 f i moc_fabian_client.obj
 0001:0003c630       ??_5?$QFlags@W4TypeFlag@QMetaType@@@@QAEAAV0@W4TypeFlag@QMetaType@@@Z 0043d630 f i moc_fabian_client.obj
 0001:0003c660       ??_G?$QList@VQSslError@@@@QAEPAXI@Z 0043d660 f i moc_fabian_client.obj
 0001:0003c6a0       ?Construct@?$QMetaTypeFunctionHelper@V?$QList@VQSslError@@@@$00@QtMetaTypePrivate@@SAPAXPAXPBX@Z 0043d6a0 f i moc_fabian_client.obj
 0001:0003c780       ?Construct@?$QMetaTypeFunctionHelper@W4SocketError@QAbstractSocket@@$00@QtMetaTypePrivate@@SAPAXPAXPBX@Z 0043d780 f i moc_fabian_client.obj
 0001:0003c7f0       ?Destruct@?$QMetaTypeFunctionHelper@V?$QList@VQSslError@@@@$00@QtMetaTypePrivate@@SAXPAX@Z 0043d7f0 f i moc_fabian_client.obj
 0001:0003c810       ?Destruct@?$QMetaTypeFunctionHelper@W4SocketError@QAbstractSocket@@$00@QtMetaTypePrivate@@SAXPAX@Z 0043d810 f i moc_fabian_client.obj
 0001:0003c820       ?loadAcquire@?$QBasicAtomicInteger@H@@QBEHXZ 0043d820 f i moc_fabian_client.obj
 0001:0003c840       ?qt_getEnumMetaObject@@YAPBUQMetaObject@@W4SocketError@QAbstractSocket@@@Z 0043d840 f i moc_fabian_client.obj
 0001:0003c850       ?qt_metatype_id@?$QMetaTypeId2@V?$QList@VQSslError@@@@@@SAHXZ 0043d850 f i moc_fabian_client.obj
 0001:0003c860       ?qt_metatype_id@?$QMetaTypeId2@W4SocketError@QAbstractSocket@@@@SAHXZ 0043d860 f i moc_fabian_client.obj
 0001:0003c870       ?qt_metatype_id@?$QMetaTypeId@V?$QList@VQSslError@@@@@@SAHXZ 0043d870 f i moc_fabian_client.obj
 0001:0003c8d0       ?qt_metatype_id@?$QMetaTypeId@W4SocketError@QAbstractSocket@@@@SAHXZ 0043d8d0 f i moc_fabian_client.obj
 0001:0003c930       ?qt_metatype_id@?$QMetaTypeIdHelper@V?$QList@VQSslError@@@@$00@QtPrivate@@SAHXZ 0043d930 f i moc_fabian_client.obj
 0001:0003c940       ?qt_metatype_id@?$QMetaTypeIdHelper@W4SocketError@QAbstractSocket@@$00@QtPrivate@@SAHXZ 0043d940 f i moc_fabian_client.obj
 0001:0003c950       ?registerConverter@?$AssociativeContainerConverterHelper@V?$QList@VQSslError@@@@$0A@@QtPrivate@@SA_NH@Z 0043d950 f i moc_fabian_client.obj
 0001:0003c960       ?registerConverter@?$AssociativeContainerConverterHelper@W4SocketError@QAbstractSocket@@$0A@@QtPrivate@@SA_NH@Z 0043d960 f i moc_fabian_client.obj
 0001:0003c970       ?registerConverter@?$IsPair@V?$QList@VQSslError@@@@@QtPrivate@@SA_NH@Z 0043d970 f i moc_fabian_client.obj
 0001:0003c980       ?registerConverter@?$IsPair@W4SocketError@QAbstractSocket@@@QtPrivate@@SA_NH@Z 0043d980 f i moc_fabian_client.obj
 0001:0003c990       ?registerConverter@?$MetaTypeSmartPointerHelper@V?$QList@VQSslError@@@@X@QtPrivate@@SA_NH@Z 0043d990 f i moc_fabian_client.obj
 0001:0003c9a0       ?registerConverter@?$MetaTypeSmartPointerHelper@W4SocketError@QAbstractSocket@@X@QtPrivate@@SA_NH@Z 0043d9a0 f i moc_fabian_client.obj
 0001:0003c9b0       ?registerConverter@?$SequentialContainerConverterHelper@W4SocketError@QAbstractSocket@@$0A@@QtPrivate@@SA_NH@Z 0043d9b0 f i moc_fabian_client.obj
 0001:0003c9c0       ?registerConverter@?$ValueTypeIsMetaType@V?$QList@VQSslError@@@@$0A@@QtPrivate@@SA_NH@Z 0043d9c0 f i moc_fabian_client.obj
 0001:0003c9d0       ?storeRelease@?$QBasicAtomicInteger@H@@QAEXH@Z 0043d9d0 f i moc_fabian_client.obj
 0001:0003ca00       ?value@?$MetaObjectForType@V?$QList@VQSslError@@@@X@QtPrivate@@SAPBUQMetaObject@@XZ 0043da00 f i moc_fabian_client.obj
 0001:0003ca10       ?value@?$MetaObjectForType@W4SocketError@QAbstractSocket@@X@QtPrivate@@SAPBUQMetaObject@@XZ 0043da10 f i moc_fabian_client.obj
 0001:0003ca30       ?metaObject@slink@@UBEPBUQMetaObject@@XZ 0043da30 f   moc_slink.obj
 0001:0003ca70       ?qt_metacast@slink@@UAEPAXPBD@Z 0043da70 f   moc_slink.obj
 0001:0003cab0       ?qt_metacall@slink@@UAEHW4Call@QMetaObject@@HPAPAX@Z 0043dab0 f   moc_slink.obj
 0001:0003cb40       ?qt_static_metacall@slink@@CAXPAVQObject@@W4Call@QMetaObject@@HPAPAX@Z 0043db40 f   moc_slink.obj
 0001:0003ccd0       ?metaObject@userEditDialog@@UBEPBUQMetaObject@@XZ 0043dcd0 f   moc_userEditDialog.obj
 0001:0003cd10       ?qt_metacast@userEditDialog@@UAEPAXPBD@Z 0043dd10 f   moc_userEditDialog.obj
 0001:0003cd50       ?qt_metacall@userEditDialog@@UAEHW4Call@QMetaObject@@HPAPAX@Z 0043dd50 f   moc_userEditDialog.obj
 0001:0003cde0       ?qt_static_metacall@userEditDialog@@CAXPAVQObject@@W4Call@QMetaObject@@HPAPAX@Z 0043dde0 f   moc_userEditDialog.obj
 0001:0003cf60       ?userAdded@userEditDialog@@QAEXPAVuser@@@Z 0043df60 f   moc_userEditDialog.obj
 0001:0003cfa0       ?userDeleted@userEditDialog@@QAEXABVQString@@@Z 0043dfa0 f   moc_userEditDialog.obj
 0001:0003d0a0       ?metaObject@userEditPermissionsDialog@@UBEPBUQMetaObject@@XZ 0043e0a0 f   moc_userEditPermissionsDialog.obj
 0001:0003d0e0       ?qt_metacast@userEditPermissionsDialog@@UAEPAXPBD@Z 0043e0e0 f   moc_userEditPermissionsDialog.obj
 0001:0003d120       ?qt_metacall@userEditPermissionsDialog@@UAEHW4Call@QMetaObject@@HPAPAX@Z 0043e120 f   moc_userEditPermissionsDialog.obj
 0001:0003d1b0       ?qt_static_metacall@userEditPermissionsDialog@@CAXPAVQObject@@W4Call@QMetaObject@@HPAPAX@Z 0043e1b0 f   moc_userEditPermissionsDialog.obj
 0001:0003d240       ?qInitResources_slink@@YAHXZ 0043e240 f   qrc_slink.obj
 0001:0003d250       ?qCleanupResources_slink@@YAHXZ 0043e250 f   qrc_slink.obj
 0001:0003d260       ??0initializer@?A0x3ad23e3c@@QAE@XZ 0043e260 f i qrc_slink.obj
 0001:0003d280       ??1initializer@?A0x3ad23e3c@@QAE@XZ 0043e280 f i qrc_slink.obj
 0001:0003d2a0       _main                      0043e2a0 f   main.obj
 0001:0003d720       ??6QStringList@@QAEAAV0@ABVQString@@@Z 0043e720 f i main.obj
 0001:0003d750       ??0singleReg@@IAE@XZ       0043e750 f   singleReg.obj
 0001:0003d790       ??0singleReg@@QAE@VclientIPC@@I@Z 0043e790 f   singleReg.obj
 0001:0003d7e0       ??1singleReg@@UAE@XZ       0043e7e0 f   singleReg.obj
 0001:0003d800       ?addRegistration@singleReg@@QAEXII@Z 0043e800 f   singleReg.obj
 0001:0003d870       ?removeAllRegistration@singleReg@@QAEXXZ 0043e870 f   singleReg.obj
 0001:0003d890       ?removeRegistration@singleReg@@QAEXII@Z 0043e890 f   singleReg.obj
 0001:0003db70       ?isRegistered@singleReg@@QBE_NI@Z 0043eb70 f   singleReg.obj
 0001:0003dc60       ?isRegisteredRange@singleReg@@QBE_NII@Z 0043ec60 f   singleReg.obj
 0001:0003dd80       ?hasAnyRegistrations@singleReg@@QBE_NXZ 0043ed80 f   singleReg.obj
 0001:0003ddb0       ?client@singleReg@@QBE?AVclientIPC@@XZ 0043edb0 f   singleReg.obj
 0001:0003ddd0       ?device@singleReg@@QBEIXZ  0043edd0 f   singleReg.obj
 0001:0003ddf0       ?minIndex@singleReg@@QBEIXZ 0043edf0 f   singleReg.obj
 0001:0003dec0       ?maxIndex@singleReg@@QBEIXZ 0043eec0 f   singleReg.obj
 0001:0003df90       ?dump@singleReg@@QAEXPBD@Z 0043ef90 f   singleReg.obj
 0001:0003e0e0       ?registrations@singleReg@@QAEPAV?$list@Vreg@@V?$allocator@Vreg@@@std@@@std@@XZ 0043f0e0 f   singleReg.obj
 0001:0003e100       ?extendExistingRegistration@singleReg@@AAE_NII@Z 0043f100 f   singleReg.obj
 0001:0003e2d0       ?cleanDuplicateRegistrations@singleReg@@AAEXXZ 0043f2d0 f   singleReg.obj
 0001:0003e7f0       ??$?0U?$_List_node@Vreg@@PAX@std@@@?$allocator@Vreg@@@std@@QAE@ABV?$allocator@U?$_List_node@Vreg@@PAX@std@@@1@@Z 0043f7f0 f i singleReg.obj
 0001:0003e810       ??$_Allocate@U?$_List_node@Vreg@@PAX@std@@@std@@YAPAU?$_List_node@Vreg@@PAX@0@IPAU10@@Z 0043f810 f i singleReg.obj
 0001:0003e870       ??$_Buynode@ABVreg@@@?$_List_buy@Vreg@@V?$allocator@Vreg@@@std@@@std@@QAEPAU?$_List_node@Vreg@@PAX@1@PAU21@0ABVreg@@@Z 0043f870 f i singleReg.obj
 0001:0003e990       ??$_Buynode@Vreg@@@?$_List_buy@Vreg@@V?$allocator@Vreg@@@std@@@std@@QAEPAU?$_List_node@Vreg@@PAX@1@PAU21@0$$QAVreg@@@Z 0043f990 f i singleReg.obj
 0001:0003eab0       ??$_Debug_range2@V?$_List_const_iterator@V?$_List_val@U?$_List_simple_types@Vreg@@@std@@@std@@@std@@@std@@YAXV?$_List_const_iterator@V?$_List_val@U?$_List_simple_types@Vreg@@@std@@@std@@@0@0PB_WIUinput_iterator_tag@0@@Z 0043fab0 f i singleReg.obj
 0001:0003eb40       ??$_Debug_range@V?$_List_const_iterator@V?$_List_val@U?$_List_simple_types@Vreg@@@std@@@std@@@std@@@std@@YAXV?$_List_const_iterator@V?$_List_val@U?$_List_simple_types@Vreg@@@std@@@std@@@0@0PB_WI@Z 0043fb40 f i singleReg.obj
 0001:0003ec20       ??$_Insert@ABVreg@@@?$list@Vreg@@V?$allocator@Vreg@@@std@@@std@@QAEXV?$_List_unchecked_const_iterator@V?$_List_val@U?$_List_simple_types@Vreg@@@std@@@std@@U_Iterator_base0@2@@1@ABVreg@@@Z 0043fc20 f i singleReg.obj
 0001:0003ecc0       ??$_Insert@Vreg@@@?$list@Vreg@@V?$allocator@Vreg@@@std@@@std@@QAEXV?$_List_unchecked_const_iterator@V?$_List_val@U?$_List_simple_types@Vreg@@@std@@@std@@U_Iterator_base0@2@@1@$$QAVreg@@@Z 0043fcc0 f i singleReg.obj
 0001:0003ed60       ??$_Insert_range@V?$_List_const_iterator@V?$_List_val@U?$_List_simple_types@Vreg@@@std@@@std@@@std@@@?$list@Vreg@@V?$allocator@Vreg@@@std@@@std@@QAEXV?$_List_unchecked_const_iterator@V?$_List_val@U?$_List_simple_types@Vreg@@@std@@@std@@U_Iterator_base0@2@@1@V?$_List_const_iterator@V?$_List_val@U?$_List_simple_types@Vreg@@@std@@@std@@@1@1Uforward_iterator_tag@1@@Z 0043fd60 f i singleReg.obj
 0001:0003ef20       ??$_Iter_cat@V?$_List_const_iterator@V?$_List_val@U?$_List_simple_types@Vreg@@@std@@@std@@@std@@@std@@YA?AUbidirectional_iterator_tag@0@ABV?$_List_const_iterator@V?$_List_val@U?$_List_simple_types@Vreg@@@std@@@std@@@0@@Z 0043ff20 f i singleReg.obj
 0001:0003ef40       ??$addressof@$$CBVreg@@@std@@YAPBVreg@@ABV1@@Z 0043ff40 f i singleReg.obj
 0001:0003ef50       ??$addressof@PAU?$_List_node@Vreg@@PAX@std@@@std@@YAPAPAU?$_List_node@Vreg@@PAX@0@AAPAU10@@Z 0043ff50 f i singleReg.obj
 0001:0003ef60       ??$addressof@Vreg@@@std@@YAPAVreg@@AAV1@@Z 0043ff60 f i singleReg.obj
 0001:0003ef70       ??$construct@PAU?$_List_node@Vreg@@PAX@std@@AAPAU12@@?$_Wrap_alloc@V?$allocator@U?$_List_node@Vreg@@PAX@std@@@std@@@std@@QAEXPAPAU?$_List_node@Vreg@@PAX@1@AAPAU21@@Z 0043ff70 f i singleReg.obj
 0001:0003efb0       ??$construct@PAU?$_List_node@Vreg@@PAX@std@@AAPAU12@@?$allocator@U?$_List_node@Vreg@@PAX@std@@@std@@QAEXPAPAU?$_List_node@Vreg@@PAX@1@AAPAU21@@Z 0043ffb0 f i singleReg.obj
 0001:0003f060       ??$construct@PAU?$_List_node@Vreg@@PAX@std@@AAPAU12@@?$allocator_traits@V?$allocator@U?$_List_node@Vreg@@PAX@std@@@std@@@std@@SAXAAV?$allocator@U?$_List_node@Vreg@@PAX@std@@@1@PAPAU?$_List_node@Vreg@@PAX@1@AAPAU31@@Z 00440060 f i singleReg.obj
 0001:0003f090       ??$construct@Vreg@@ABV1@@?$_Wrap_alloc@V?$allocator@U?$_List_node@Vreg@@PAX@std@@@std@@@std@@QAEXPAVreg@@ABV2@@Z 00440090 f i singleReg.obj
 0001:0003f0d0       ??$construct@Vreg@@ABV1@@?$allocator@U?$_List_node@Vreg@@PAX@std@@@std@@QAEXPAVreg@@ABV2@@Z 004400d0 f i singleReg.obj
 0001:0003f180       ??$construct@Vreg@@ABV1@@?$allocator_traits@V?$allocator@U?$_List_node@Vreg@@PAX@std@@@std@@@std@@SAXAAV?$allocator@U?$_List_node@Vreg@@PAX@std@@@1@PAVreg@@ABV3@@Z 00440180 f i singleReg.obj
 0001:0003f1b0       ??$construct@Vreg@@V1@@?$_Wrap_alloc@V?$allocator@U?$_List_node@Vreg@@PAX@std@@@std@@@std@@QAEXPAVreg@@$$QAV2@@Z 004401b0 f i singleReg.obj
 0001:0003f1f0       ??$construct@Vreg@@V1@@?$allocator@U?$_List_node@Vreg@@PAX@std@@@std@@QAEXPAVreg@@$$QAV2@@Z 004401f0 f i singleReg.obj
 0001:0003f2a0       ??$construct@Vreg@@V1@@?$allocator_traits@V?$allocator@U?$_List_node@Vreg@@PAX@std@@@std@@@std@@SAXAAV?$allocator@U?$_List_node@Vreg@@PAX@std@@@1@PAVreg@@$$QAV3@@Z 004402a0 f i singleReg.obj
 0001:0003f2d0       ??$destroy@PAU?$_List_node@Vreg@@PAX@std@@@?$_Wrap_alloc@V?$allocator@U?$_List_node@Vreg@@PAX@std@@@std@@@std@@QAEXPAPAU?$_List_node@Vreg@@PAX@1@@Z 004402d0 f i singleReg.obj
 0001:0003f300       ??$destroy@PAU?$_List_node@Vreg@@PAX@std@@@?$allocator@U?$_List_node@Vreg@@PAX@std@@@std@@QAEXPAPAU?$_List_node@Vreg@@PAX@1@@Z 00440300 f i singleReg.obj
 0001:0003f310       ??$destroy@PAU?$_List_node@Vreg@@PAX@std@@@?$allocator_traits@V?$allocator@U?$_List_node@Vreg@@PAX@std@@@std@@@std@@SAXAAV?$allocator@U?$_List_node@Vreg@@PAX@std@@@1@PAPAU?$_List_node@Vreg@@PAX@1@@Z 00440310 f i singleReg.obj
 0001:0003f330       ??$destroy@Vreg@@@?$_Wrap_alloc@V?$allocator@U?$_List_node@Vreg@@PAX@std@@@std@@@std@@QAEXPAVreg@@@Z 00440330 f i singleReg.obj
 0001:0003f360       ??$destroy@Vreg@@@?$allocator@U?$_List_node@Vreg@@PAX@std@@@std@@QAEXPAVreg@@@Z 00440360 f i singleReg.obj
 0001:0003f370       ??$destroy@Vreg@@@?$allocator_traits@V?$allocator@U?$_List_node@Vreg@@PAX@std@@@std@@@std@@SAXAAV?$allocator@U?$_List_node@Vreg@@PAX@std@@@1@PAVreg@@@Z 00440370 f i singleReg.obj
 0001:0003f390       ??$forward@AAPAU?$_List_node@Vreg@@PAX@std@@@std@@YAAAPAU?$_List_node@Vreg@@PAX@0@AAPAU10@@Z 00440390 f i singleReg.obj
 0001:0003f3a0       ??$forward@ABVreg@@@std@@YAABVreg@@ABV1@@Z 004403a0 f i singleReg.obj
 0001:0003f3b0       ??$forward@Vreg@@@std@@YA$$QAVreg@@AAV1@@Z 004403b0 f i singleReg.obj
 0001:0003f3c0       ??$insert@V?$_List_const_iterator@V?$_List_val@U?$_List_simple_types@Vreg@@@std@@@std@@@std@@@?$list@Vreg@@V?$allocator@Vreg@@@std@@@std@@QAE?AV?$_List_iterator@V?$_List_val@U?$_List_simple_types@Vreg@@@std@@@std@@@1@V?$_List_const_iterator@V?$_List_val@U?$_List_simple_types@Vreg@@@std@@@std@@@1@00@Z 004403c0 f i singleReg.obj
 0001:0003f700       ??0?$_Iterator012@Ubidirectional_iterator_tag@std@@Vreg@@HPBV3@ABV3@U_Iterator_base12@2@@std@@QAE@ABU01@@Z 00440700 f i singleReg.obj
 0001:0003f730       ??0?$_Iterator012@Ubidirectional_iterator_tag@std@@Vreg@@HPBV3@ABV3@U_Iterator_base12@2@@std@@QAE@XZ 00440730 f i singleReg.obj
 0001:0003f750       ??0?$_List_alloc@$0A@U?$_List_base_types@Vreg@@V?$allocator@Vreg@@@std@@@std@@@std@@QAE@ABV?$allocator@Vreg@@@1@@Z 00440750 f i singleReg.obj
 0001:0003f820       ??0?$_List_buy@Vreg@@V?$allocator@Vreg@@@std@@@std@@QAE@ABV?$allocator@Vreg@@@1@@Z 00440820 f i singleReg.obj
 0001:0003f850       ??0?$_List_const_iterator@V?$_List_val@U?$_List_simple_types@Vreg@@@std@@@std@@@std@@QAE@ABV01@@Z 00440850 f i singleReg.obj
 0001:0003f880       ??0?$_List_const_iterator@V?$_List_val@U?$_List_simple_types@Vreg@@@std@@@std@@@std@@QAE@PAU?$_List_node@Vreg@@PAX@1@PBV?$_List_val@U?$_List_simple_types@Vreg@@@std@@@1@@Z 00440880 f i singleReg.obj
 0001:0003f8b0       ??0?$_List_iterator@V?$_List_val@U?$_List_simple_types@Vreg@@@std@@@std@@@std@@QAE@ABV01@@Z 004408b0 f i singleReg.obj
 0001:0003f8e0       ??0?$_List_iterator@V?$_List_val@U?$_List_simple_types@Vreg@@@std@@@std@@@std@@QAE@PAU?$_List_node@Vreg@@PAX@1@PBV?$_List_val@U?$_List_simple_types@Vreg@@@std@@@1@@Z 004408e0 f i singleReg.obj
 0001:0003f910       ??0?$_List_unchecked_const_iterator@V?$_List_val@U?$_List_simple_types@Vreg@@@std@@@std@@U_Iterator_base0@2@@std@@QAE@PAU?$_List_node@Vreg@@PAX@1@PBV?$_List_val@U?$_List_simple_types@Vreg@@@std@@@1@@Z 00440910 f i singleReg.obj
 0001:0003f940       ??0?$_List_unchecked_const_iterator@V?$_List_val@U?$_List_simple_types@Vreg@@@std@@@std@@U_Iterator_base12@2@@std@@QAE@ABV01@@Z 00440940 f i singleReg.obj
 0001:0003f980       ??0?$_List_unchecked_const_iterator@V?$_List_val@U?$_List_simple_types@Vreg@@@std@@@std@@U_Iterator_base12@2@@std@@QAE@PAU?$_List_node@Vreg@@PAX@1@PBV?$_List_val@U?$_List_simple_types@Vreg@@@std@@@1@@Z 00440980 f i singleReg.obj
 0001:0003fa00       ??0?$_List_unchecked_iterator@V?$_List_val@U?$_List_simple_types@Vreg@@@std@@@std@@@std@@QAE@PAU?$_List_node@Vreg@@PAX@1@PBV?$_List_val@U?$_List_simple_types@Vreg@@@std@@@1@@Z 00440a00 f i singleReg.obj
 0001:0003fa30       ??0?$_List_val@U?$_List_simple_types@Vreg@@@std@@@std@@QAE@XZ 00440a30 f i singleReg.obj
 0001:0003fa70       ??0?$_Wrap_alloc@V?$allocator@U?$_List_node@Vreg@@PAX@std@@@std@@@std@@QAE@ABV?$allocator@U?$_List_node@Vreg@@PAX@std@@@1@@Z 00440a70 f i singleReg.obj
 0001:0003faa0       ??0?$_Wrap_alloc@V?$allocator@U?$_List_node@Vreg@@PAX@std@@@std@@@std@@QAE@XZ 00440aa0 f i singleReg.obj
 0001:0003fac0       ??0?$allocator@U?$_List_node@Vreg@@PAX@std@@@std@@QAE@ABV01@@Z 00440ac0 f i singleReg.obj
 0001:0003fae0       ??0?$allocator@U?$_List_node@Vreg@@PAX@std@@@std@@QAE@XZ 00440ae0 f i singleReg.obj
 0001:0003fb00       ??0?$allocator@Vreg@@@std@@QAE@XZ 00440b00 f i singleReg.obj
 0001:0003fb20       ??0?$list@Vreg@@V?$allocator@Vreg@@@std@@@std@@QAE@ABV01@@Z 00440b20 f i singleReg.obj
 0001:0003fcb0       ??0?$list@Vreg@@V?$allocator@Vreg@@@std@@@std@@QAE@XZ 00440cb0 f i singleReg.obj
 0001:0003fce0       ??0clientIPC@@QAE@XZ       00440ce0 f i singleReg.obj
 0001:0003fd00       ??0reg@@QAE@II@Z           00440d00 f i singleReg.obj
 0001:0003fd30       ??1?$_Iterator012@Ubidirectional_iterator_tag@std@@Vreg@@HPBV3@ABV3@U_Iterator_base12@2@@std@@QAE@XZ 00440d30 f i singleReg.obj
 0001:0003fd50       ??1?$_List_alloc@$0A@U?$_List_base_types@Vreg@@V?$allocator@Vreg@@@std@@@std@@@std@@QAE@XZ 00440d50 f i singleReg.obj
 0001:0003fd90       ??1?$_List_buy@Vreg@@V?$allocator@Vreg@@@std@@@std@@QAE@XZ 00440d90 f i singleReg.obj
 0001:0003fdb0       ??1?$_List_const_iterator@V?$_List_val@U?$_List_simple_types@Vreg@@@std@@@std@@@std@@QAE@XZ 00440db0 f i singleReg.obj
 0001:0003fdd0       ??1?$_List_iterator@V?$_List_val@U?$_List_simple_types@Vreg@@@std@@@std@@@std@@QAE@XZ 00440dd0 f i singleReg.obj
 0001:0003fdf0       ??1?$_List_unchecked_const_iterator@V?$_List_val@U?$_List_simple_types@Vreg@@@std@@@std@@U_Iterator_base12@2@@std@@QAE@XZ 00440df0 f i singleReg.obj
 0001:0003fe10       ??1?$_List_val@U?$_List_simple_types@Vreg@@@std@@@std@@QAE@XZ 00440e10 f i singleReg.obj
 0001:0003fe30       ??1?$list@Vreg@@V?$allocator@Vreg@@@std@@@std@@QAE@XZ 00440e30 f i singleReg.obj
 0001:0003fe60       ??4?$_Iterator012@Ubidirectional_iterator_tag@std@@Vreg@@HPBV3@ABV3@U_Iterator_base12@2@@std@@QAEAAU01@ABU01@@Z 00440e60 f i singleReg.obj
 0001:0003fe90       ??4?$_List_const_iterator@V?$_List_val@U?$_List_simple_types@Vreg@@@std@@@std@@@std@@QAEAAV01@ABV01@@Z 00440e90 f i singleReg.obj
 0001:0003fec0       ??4?$_List_iterator@V?$_List_val@U?$_List_simple_types@Vreg@@@std@@@std@@@std@@QAEAAV01@ABV01@@Z 00440ec0 f i singleReg.obj
 0001:0003fef0       ??4?$_List_unchecked_const_iterator@V?$_List_val@U?$_List_simple_types@Vreg@@@std@@@std@@U_Iterator_base12@2@@std@@QAEAAV01@ABV01@@Z 00440ef0 f i singleReg.obj
 0001:0003ff30       ??8?$_List_const_iterator@V?$_List_val@U?$_List_simple_types@Vreg@@@std@@@std@@@std@@QBE_NABV01@@Z 00440f30 f i singleReg.obj
 0001:00040020       ??9?$_List_const_iterator@V?$_List_val@U?$_List_simple_types@Vreg@@@std@@@std@@@std@@QBE_NABV01@@Z 00441020 f i singleReg.obj
 0001:00040070       ??9reg@@QBE_NABV0@@Z       00441070 f i singleReg.obj
 0001:000400b0       ??C?$_List_iterator@V?$_List_val@U?$_List_simple_types@Vreg@@@std@@@std@@@std@@QBEPAVreg@@XZ 004410b0 f i singleReg.obj
 0001:000400e0       ??C?$_List_unchecked_const_iterator@V?$_List_val@U?$_List_simple_types@Vreg@@@std@@@std@@U_Iterator_base12@2@@std@@QBEPBVreg@@XZ 004410e0 f i singleReg.obj
 0001:00040110       ??D?$_List_const_iterator@V?$_List_val@U?$_List_simple_types@Vreg@@@std@@@std@@@std@@QBEABVreg@@XZ 00441110 f i singleReg.obj
 0001:000401f0       ??D?$_List_iterator@V?$_List_val@U?$_List_simple_types@Vreg@@@std@@@std@@@std@@QBEAAVreg@@XZ 004411f0 f i singleReg.obj
 0001:00040210       ??D?$_List_unchecked_const_iterator@V?$_List_val@U?$_List_simple_types@Vreg@@@std@@@std@@U_Iterator_base12@2@@std@@QBEABVreg@@XZ 00441210 f i singleReg.obj
 0001:00040230       ??E?$_List_const_iterator@V?$_List_val@U?$_List_simple_types@Vreg@@@std@@@std@@@std@@QAE?AV01@H@Z 00441230 f i singleReg.obj
 0001:000402e0       ??E?$_List_const_iterator@V?$_List_val@U?$_List_simple_types@Vreg@@@std@@@std@@@std@@QAEAAV01@XZ 004412e0 f i singleReg.obj
 0001:000403d0       ??E?$_List_iterator@V?$_List_val@U?$_List_simple_types@Vreg@@@std@@@std@@@std@@QAEAAV01@XZ 004413d0 f i singleReg.obj
 0001:000403f0       ??F?$_List_const_iterator@V?$_List_val@U?$_List_simple_types@Vreg@@@std@@@std@@@std@@QAEAAV01@XZ 004413f0 f i singleReg.obj
 0001:000404e0       ??F?$_List_iterator@V?$_List_val@U?$_List_simple_types@Vreg@@@std@@@std@@@std@@QAEAAV01@XZ 004414e0 f i singleReg.obj
 0001:00040500       ??F?$_List_unchecked_const_iterator@V?$_List_val@U?$_List_simple_types@Vreg@@@std@@@std@@U_Iterator_base0@2@@std@@QAEAAV01@XZ 00441500 f i singleReg.obj
 0001:00040530       ??_GsingleReg@@UAEPAXI@Z   00441530 f i singleReg.obj
 0001:00040530       ??_EsingleReg@@UAEPAXI@Z   00441530 f i singleReg.obj
 0001:00040570       ?_Alloc_proxy@?$_List_alloc@$0A@U?$_List_base_types@Vreg@@V?$allocator@Vreg@@@std@@@std@@@std@@QAEXXZ 00441570 f i singleReg.obj
 0001:000405d0       ?_Buyheadnode@?$_List_alloc@$0A@U?$_List_base_types@Vreg@@V?$allocator@Vreg@@@std@@@std@@@std@@QAEPAU?$_List_node@Vreg@@PAX@2@XZ 004415d0 f i singleReg.obj
 0001:000405f0       ?_Buynode0@?$_List_alloc@$0A@U?$_List_base_types@Vreg@@V?$allocator@Vreg@@@std@@@std@@@std@@QAEPAU?$_List_node@Vreg@@PAX@2@PAU32@0@Z 004415f0 f i singleReg.obj
 0001:00040760       ?_Free_proxy@?$_List_alloc@$0A@U?$_List_base_types@Vreg@@V?$allocator@Vreg@@@std@@@std@@@std@@QAEXXZ 00441760 f i singleReg.obj
 0001:000407c0       ?_Freeheadnode@?$_List_alloc@$0A@U?$_List_base_types@Vreg@@V?$allocator@Vreg@@@std@@@std@@@std@@QAEXPAU?$_List_node@Vreg@@PAX@2@@Z 004417c0 f i singleReg.obj
 0001:00040860       ?_Freenode@?$_List_buy@Vreg@@V?$allocator@Vreg@@@std@@@std@@QAEXPAU?$_List_node@Vreg@@PAX@2@@Z 00441860 f i singleReg.obj
 0001:00040930       ?_Getal@?$_List_alloc@$0A@U?$_List_base_types@Vreg@@V?$allocator@Vreg@@@std@@@std@@@std@@QBE?AU?$_Wrap_alloc@V?$allocator@U?$_List_node@Vreg@@PAX@std@@@std@@@2@XZ 00441930 f i singleReg.obj
 0001:00040950       ?_Incsize@?$list@Vreg@@V?$allocator@Vreg@@@std@@@std@@QAEXI@Z 00441950 f i singleReg.obj
 0001:000409a0       ?_Make_iter@?$list@Vreg@@V?$allocator@Vreg@@@std@@@std@@QBE?AV?$_List_iterator@V?$_List_val@U?$_List_simple_types@Vreg@@@std@@@std@@@2@V?$_List_const_iterator@V?$_List_val@U?$_List_simple_types@Vreg@@@std@@@std@@@2@@Z 004419a0 f i singleReg.obj
 0001:000409e0       ?_Mynode@?$_List_unchecked_const_iterator@V?$_List_val@U?$_List_simple_types@Vreg@@@std@@@std@@U_Iterator_base0@2@@std@@QBEPAU?$_List_node@Vreg@@PAX@2@XZ 004419e0 f i singleReg.obj
 0001:00040a00       ?_Mynode@?$_List_unchecked_const_iterator@V?$_List_val@U?$_List_simple_types@Vreg@@@std@@@std@@U_Iterator_base12@2@@std@@QBEPAU?$_List_node@Vreg@@PAX@2@XZ 00441a00 f i singleReg.obj
 0001:00040a20       ?_Myval@?$_List_val@U?$_List_simple_types@Vreg@@@std@@@std@@SAAAVreg@@PAU?$_List_node@Vreg@@PAX@2@@Z 00441a20 f i singleReg.obj
 0001:00040a30       ?_Nextnode@?$_List_val@U?$_List_simple_types@Vreg@@@std@@@std@@SAAAPAU?$_List_node@Vreg@@PAX@2@PAU32@@Z 00441a30 f i singleReg.obj
 0001:00040a40       ?_Orphan_ptr@?$list@Vreg@@V?$allocator@Vreg@@@std@@@std@@QBEXAAV12@PAU?$_List_node@Vreg@@PAX@2@@Z 00441a40 f i singleReg.obj
 0001:00040b40       ?_Prevnode@?$_List_val@U?$_List_simple_types@Vreg@@@std@@@std@@SAAAPAU?$_List_node@Vreg@@PAX@2@PAU32@@Z 00441b40 f i singleReg.obj
 0001:00040b50       ?_Tidy@?$list@Vreg@@V?$allocator@Vreg@@@std@@@std@@QAEXXZ 00441b50 f i singleReg.obj
 0001:00040b70       ?_Unchecked@?$_List_const_iterator@V?$_List_val@U?$_List_simple_types@Vreg@@@std@@@std@@@std@@QBE?AV?$_List_unchecked_const_iterator@V?$_List_val@U?$_List_simple_types@Vreg@@@std@@@std@@U_Iterator_base0@2@@2@XZ 00441b70 f i singleReg.obj
 0001:00040bb0       ?_Unchecked_end@?$list@Vreg@@V?$allocator@Vreg@@@std@@@std@@QAE?AV?$_List_unchecked_iterator@V?$_List_val@U?$_List_simple_types@Vreg@@@std@@@std@@@2@XZ 00441bb0 f i singleReg.obj
 0001:00040be0       ?_Unchecked_erase@?$list@Vreg@@V?$allocator@Vreg@@@std@@@std@@QAEXV?$_List_unchecked_const_iterator@V?$_List_val@U?$_List_simple_types@Vreg@@@std@@@std@@U_Iterator_base0@2@@2@@Z 00441be0 f i singleReg.obj
 0001:00040c90       ?_Unlinknode@?$list@Vreg@@V?$allocator@Vreg@@@std@@@std@@QAEPAU?$_List_node@Vreg@@PAX@2@V?$_List_const_iterator@V?$_List_val@U?$_List_simple_types@Vreg@@@std@@@std@@@2@@Z 00441c90 f i singleReg.obj
 0001:00040de0       ?allocate@?$_Wrap_alloc@V?$allocator@U?$_List_node@Vreg@@PAX@std@@@std@@@std@@QAEPAU?$_List_node@Vreg@@PAX@2@I@Z 00441de0 f i singleReg.obj
 0001:00040e00       ?allocate@?$allocator@U?$_List_node@Vreg@@PAX@std@@@std@@QAEPAU?$_List_node@Vreg@@PAX@2@I@Z 00441e00 f i singleReg.obj
 0001:00040e30       ?begin@?$list@Vreg@@V?$allocator@Vreg@@@std@@@std@@QAE?AV?$_List_iterator@V?$_List_val@U?$_List_simple_types@Vreg@@@std@@@std@@@2@XZ 00441e30 f i singleReg.obj
 0001:00040e70       ?begin@?$list@Vreg@@V?$allocator@Vreg@@@std@@@std@@QBE?AV?$_List_const_iterator@V?$_List_val@U?$_List_simple_types@Vreg@@@std@@@std@@@2@XZ 00441e70 f i singleReg.obj
 0001:00040eb0       ?clear@?$list@Vreg@@V?$allocator@Vreg@@@std@@@std@@QAEXXZ 00441eb0 f i singleReg.obj
 0001:00040f70       ?deallocate@?$_Wrap_alloc@V?$allocator@U?$_List_node@Vreg@@PAX@std@@@std@@@std@@QAEXPAU?$_List_node@Vreg@@PAX@2@I@Z 00441f70 f i singleReg.obj
 0001:00040fa0       ?deallocate@?$allocator@U?$_List_node@Vreg@@PAX@std@@@std@@QAEXPAU?$_List_node@Vreg@@PAX@2@I@Z 00441fa0 f i singleReg.obj
 0001:00040fc0       ?end@?$list@Vreg@@V?$allocator@Vreg@@@std@@@std@@QAE?AV?$_List_iterator@V?$_List_val@U?$_List_simple_types@Vreg@@@std@@@std@@@2@XZ 00441fc0 f i singleReg.obj
 0001:00040ff0       ?end@?$list@Vreg@@V?$allocator@Vreg@@@std@@@std@@QBE?AV?$_List_const_iterator@V?$_List_val@U?$_List_simple_types@Vreg@@@std@@@std@@@2@XZ 00441ff0 f i singleReg.obj
 0001:00041020       ?erase@?$list@Vreg@@V?$allocator@Vreg@@@std@@@std@@QAE?AV?$_List_iterator@V?$_List_val@U?$_List_simple_types@Vreg@@@std@@@std@@@2@V?$_List_const_iterator@V?$_List_val@U?$_List_simple_types@Vreg@@@std@@@std@@@2@@Z 00442020 f i singleReg.obj
 0001:00041110       ?max_size@?$_Wrap_alloc@V?$allocator@U?$_List_node@Vreg@@PAX@std@@@std@@@std@@QBEIXZ 00442110 f i singleReg.obj
 0001:00041130       ?max_size@?$allocator@U?$_List_node@Vreg@@PAX@std@@@std@@QBEIXZ 00442130 f i singleReg.obj
 0001:00041150       ?max_size@?$allocator_traits@V?$allocator@U?$_List_node@Vreg@@PAX@std@@@std@@@std@@SAIABV?$allocator@U?$_List_node@Vreg@@PAX@std@@@2@@Z 00442150 f i singleReg.obj
 0001:00041160       ?max_size@?$list@Vreg@@V?$allocator@Vreg@@@std@@@std@@QBEIXZ 00442160 f i singleReg.obj
 0001:00041190       ?pointer_to@?$pointer_traits@PAVreg@@@std@@SAPAVreg@@AAV3@@Z 00442190 f i singleReg.obj
 0001:000411b0       ?pointer_to@?$pointer_traits@PBVreg@@@std@@SAPBVreg@@ABV3@@Z 004421b0 f i singleReg.obj
 0001:000411d0       ?push_back@?$list@Vreg@@V?$allocator@Vreg@@@std@@@std@@QAEX$$QAVreg@@@Z 004421d0 f i singleReg.obj
 0001:00041220       ?select_on_container_copy_construction@?$_Wrap_alloc@V?$allocator@U?$_List_node@Vreg@@PAX@std@@@std@@@std@@QBE?AU12@XZ 00442220 f i singleReg.obj
 0001:00041260       ?select_on_container_copy_construction@?$allocator@U?$_List_node@Vreg@@PAX@std@@@std@@QBE?AV12@XZ 00442260 f i singleReg.obj
 0001:00041290       ?select_on_container_copy_construction@?$allocator_traits@V?$allocator@U?$_List_node@Vreg@@PAX@std@@@std@@@std@@SA?AV?$allocator@U?$_List_node@Vreg@@PAX@std@@@2@ABV32@@Z 00442290 f i singleReg.obj
 0001:000412b0       ?size@?$list@Vreg@@V?$allocator@Vreg@@@std@@@std@@QBEIXZ 004422b0 f i singleReg.obj
 0001:00042170       ??0slink@@QAE@PAVQWidget@@@Z 00443170 f   slink.obj
 0001:000437e0       ??1slink@@UAE@XZ           004447e0 f   slink.obj
 0001:00043a20       ?timerEvent@slink@@MAEXPAVQTimerEvent@@@Z 00444a20 f   slink.obj
 0001:00043b20       ?cccInfoRevertive@slink@@EAEXHHABV?$basic_string@DU?$char_traits@D@std@@V?$allocator@D@2@@std@@@Z 00444b20 f   slink.obj
 0001:00043cf0       ?cccRtrRevertive@slink@@EAEXHHH@Z 00444cf0 f   slink.obj
 0001:00043ea0       ?cccGpiRevertive@slink@@EAEXHH_N@Z 00444ea0 f   slink.obj
 0001:00044050       ?cccDatabaseChange@slink@@EAEXHHH@Z 00445050 f   slink.obj
 0001:00044120       ?distributeDatabaseModify@slink@@AAEXPAVfabian_client@@IIIABVQString@@@Z 00445120 f   slink.obj
 0001:00044430       ?cccDisconnected@slink@@EAEXXZ 00445430 f   slink.obj
 0001:00044450       ?deferredClose@slink@@AAEXXZ 00445450 f   slink.obj
 0001:00044480       ?dumpServerList@slink@@AAEXXZ 00445480 f   slink.obj
 0001:00044620       ?addServer@slink@@AAE_NABVQHostAddress@@I_N@Z 00445620 f   slink.obj
 0001:00044970       ?deleteServer@slink@@AAE_NI@Z 00445970 f   slink.obj
 0001:00044a90       ?loadBlackList@slink@@AAEXXZ 00445a90 f   slink.obj
 0001:00044d90       ?loadWhiteList@slink@@AAEXXZ 00445d90 f   slink.obj
 0001:00045090       ?distributeRevertive@slink@@AAEXHHABVQString@@@Z 00446090 f   slink.obj
 0001:000451c0       ?nextPoll@slink@@AAEX_N@Z  004461c0 f   slink.obj
 0001:00045750       ?data@slink@@EAEXPAVfabian_client@@ABVQString@@@Z 00446750 f   slink.obj
 0001:000457f0       ?disconnected@slink@@EAEXPAVfabian_client@@@Z 004467f0 f   slink.obj
 0001:000458a0       ?connected@slink@@EAEXPAVfabian_client@@ABVQHostAddress@@G@Z 004468a0 f   slink.obj
 0001:00045960       ?connectedUser@slink@@EAEXPAVfabian_client@@ABVQString@@11I@Z 00446960 f   slink.obj
 0001:00045a80       ?encrypted@slink@@EAEXPAVfabian_client@@_N@Z 00446a80 f   slink.obj
 0001:00045a90       ?routerName@slink@@EAEXPAVfabian_client@@III@Z 00446a90 f   slink.obj
 0001:00045e30       ?listRouter@slink@@EAEXPAVfabian_client@@IIII@Z 00446e30 f   slink.obj
 0001:00046250       ?infoRegister@slink@@EAEXPAVfabian_client@@III@Z 00447250 f   slink.obj
 0001:00046840       ?infoUnregister@slink@@EAEXPAVfabian_client@@I@Z 00447840 f   slink.obj
 0001:00046930       ?gpiSwitch@slink@@EAEXPAVfabian_client@@III@Z 00447930 f   slink.obj
 0001:00046980       ?infoWrite@slink@@EAEXPAVfabian_client@@IIABVQString@@@Z 00447980 f   slink.obj
 0001:00046a20       ?routerCrosspoint@slink@@EAEXPAVfabian_client@@IHIABVQString@@@Z 00447a20 f   slink.obj
 0001:00046ac0       ?gpiLock@slink@@EAEXPAVfabian_client@@IIII@Z 00447ac0 f   slink.obj
 0001:00046b10       ?routerLock@slink@@EAEXPAVfabian_client@@IIII@Z 00447b10 f   slink.obj
 0001:00046b60       ?infoLock@slink@@EAEXPAVfabian_client@@IIII@Z 00447b60 f   slink.obj
 0001:00046bb0       ?gpiPoll@slink@@EAEXPAVfabian_client@@III@Z 00447bb0 f   slink.obj
 0001:00046be0       ?routerPoll@slink@@EAEXPAVfabian_client@@III@Z 00447be0 f   slink.obj
 0001:00046c10       ?infoPoll@slink@@EAEXPAVfabian_client@@III@Z 00447c10 f   slink.obj
 0001:00046c40       ?infoReg@slink@@AAEXPAVfabian_client@@III@Z 00447c40 f   slink.obj
 0001:00046c70       ?databaseModify@slink@@EAEXPAVfabian_client@@IIIABVQString@@@Z 00447c70 f   slink.obj
 0001:00046d30       ?checksumDatabase@slink@@EAEXPAVfabian_client@@IIII@Z 00447d30 f   slink.obj
 0001:00047250       ?getDevProps@slink@@EAEXPAVfabian_client@@I@Z 00448250 f   slink.obj
 0001:00047660       ?doPoll@slink@@AAEXPAVfabian_client@@DIII@Z 00448660 f   slink.obj
 0001:00048bd0       ?about@slink@@AAEXXZ       00449bd0 f   slink.obj
 0001:00048f20       ?doHelp@slink@@AAEXXZ      00449f20 f   slink.obj
 0001:00049150       ?doUserEdit@slink@@AAEXXZ  0044a150 f   slink.obj
 0001:00049230       ?doServerConfig@slink@@AAEXXZ 0044a230 f   slink.obj
 0001:000493d0       ?doWhiteBlackListEdit@slink@@AAEXXZ 0044a3d0 f   slink.obj
 0001:00049460       ?listClientContextMenu@slink@@AAEXABVQPoint@@@Z 0044a460 f   slink.obj
 0001:00049570       ?userDeleted@slink@@AAEXABVQString@@@Z 0044a570 f   slink.obj
 0001:00049810       ?userAdded@slink@@AAEXPAVuser@@@Z 0044a810 f   slink.obj
 0001:00049850       ?clearPollQueue@slink@@AAEXXZ 0044a850 f   slink.obj
 0001:00049970       ?doLogging@slink@@AAEX_N@Z 0044a970 f   slink.obj
 0001:0004bb40       ??$?0AAIAAPAVfabianServer@@X@?$pair@IPAVfabianServer@@@std@@QAE@AAIAAPAVfabianServer@@@Z 0044cb40 f i slink.obj
 0001:0004bb90       ??$?0AAV?$_Tree_const_iterator@V?$_Tree_val@U?$_Tree_simple_types@VQString@@@std@@@std@@@std@@_NX@?$pair@V?$_Tree_const_iterator@V?$_Tree_val@U?$_Tree_simple_types@VQString@@@std@@@std@@@std@@_N@std@@QAE@AAV?$_Tree_const_iterator@V?$_Tree_val@U?$_Tree_simple_types@VQString@@@std@@@std@@@1@$$QA_N@Z 0044cb90 f i slink.obj
 0001:0004bc20       ??$?0AAV?$_Tree_const_iterator@V?$_Tree_val@U?$_Tree_simple_types@VpollCommand@@@std@@@std@@@std@@AAV01@X@?$pair@V?$_Tree_const_iterator@V?$_Tree_val@U?$_Tree_simple_types@VpollCommand@@@std@@@std@@@std@@V12@@std@@QAE@AAV?$_Tree_const_iterator@V?$_Tree_val@U?$_Tree_simple_types@VpollCommand@@@std@@@std@@@1@0@Z 0044cc20 f i slink.obj
 0001:0004bcc0       ??$?0AAV?$_Tree_const_iterator@V?$_Tree_val@U?$_Tree_simple_types@VpollCommand@@@std@@@std@@@std@@_NX@?$pair@V?$_Tree_const_iterator@V?$_Tree_val@U?$_Tree_simple_types@VpollCommand@@@std@@@std@@@std@@_N@std@@QAE@AAV?$_Tree_const_iterator@V?$_Tree_val@U?$_Tree_simple_types@VpollCommand@@@std@@@std@@@1@$$QA_N@Z 0044ccc0 f i slink.obj
 0001:0004bd50       ??$?0AAV?$_Tree_iterator@V?$_Tree_val@U?$_Tree_simple_types@U?$pair@$$CBIPAVfabianServer@@@std@@@std@@@std@@@std@@_NX@?$pair@V?$_Tree_iterator@V?$_Tree_val@U?$_Tree_simple_types@U?$pair@$$CBIPAVfabianServer@@@std@@@std@@@std@@@std@@_N@std@@QAE@AAV?$_Tree_iterator@V?$_Tree_val@U?$_Tree_simple_types@U?$pair@$$CBIPAVfabianServer@@@std@@@std@@@std@@@1@$$QA_N@Z 0044cd50 f i slink.obj
 0001:0004bde0       ??$?0IPAVfabianServer@@X@?$pair@$$CBIPAVfabianServer@@@std@@QAE@$$QAU?$pair@IPAVfabianServer@@@1@@Z 0044cde0 f i slink.obj
 0001:0004be30       ??$?0U?$_Tree_node@U?$pair@$$CBIPAVfabianServer@@@std@@PAX@std@@@?$allocator@U_Container_proxy@std@@@std@@QAE@ABV?$allocator@U?$_Tree_node@U?$pair@$$CBIPAVfabianServer@@@std@@PAX@std@@@1@@Z 0044ce30 f i slink.obj
 0001:0004be50       ??$?0U?$_Tree_node@VQString@@PAX@std@@@?$allocator@U_Container_proxy@std@@@std@@QAE@ABV?$allocator@U?$_Tree_node@VQString@@PAX@std@@@1@@Z 0044ce50 f i slink.obj
 0001:0004be70       ??$?0U?$_Tree_node@VdbEntry@@PAX@std@@@?$allocator@U_Container_proxy@std@@@std@@QAE@ABV?$allocator@U?$_Tree_node@VdbEntry@@PAX@std@@@1@@Z 0044ce70 f i slink.obj
 0001:0004be90       ??$?0U?$_Tree_node@VpollCommand@@PAX@std@@@?$allocator@U_Container_proxy@std@@@std@@QAE@ABV?$allocator@U?$_Tree_node@VpollCommand@@PAX@std@@@1@@Z 0044ce90 f i slink.obj
 0001:0004beb0       ??$?0U?$_Wrap_alloc@V?$allocator@U?$_Tree_node@U?$pair@$$CBIPAVfabianServer@@@std@@PAX@std@@@std@@@std@@@?$_Wrap_alloc@V?$allocator@U_Container_proxy@std@@@std@@@std@@QAE@ABU?$_Wrap_alloc@V?$allocator@U?$_Tree_node@U?$pair@$$CBIPAVfabianServer@@@std@@PAX@std@@@std@@@1@@Z 0044ceb0 f i slink.obj
 0001:0004bee0       ??$?0U?$_Wrap_alloc@V?$allocator@U?$_Tree_node@VQString@@PAX@std@@@std@@@std@@@?$_Wrap_alloc@V?$allocator@U_Container_proxy@std@@@std@@@std@@QAE@ABU?$_Wrap_alloc@V?$allocator@U?$_Tree_node@VQString@@PAX@std@@@std@@@1@@Z 0044cee0 f i slink.obj
 0001:0004bf10       ??$?0U?$_Wrap_alloc@V?$allocator@U?$_Tree_node@VdbEntry@@PAX@std@@@std@@@std@@@?$_Wrap_alloc@V?$allocator@U_Container_proxy@std@@@std@@@std@@QAE@ABU?$_Wrap_alloc@V?$allocator@U?$_Tree_node@VdbEntry@@PAX@std@@@std@@@1@@Z 0044cf10 f i slink.obj
 0001:0004bf40       ??$?0U?$_Wrap_alloc@V?$allocator@U?$_Tree_node@VpollCommand@@PAX@std@@@std@@@std@@@?$_Wrap_alloc@V?$allocator@U_Container_proxy@std@@@std@@@std@@QAE@ABU?$_Wrap_alloc@V?$allocator@U?$_Tree_node@VpollCommand@@PAX@std@@@std@@@1@@Z 0044cf40 f i slink.obj
 0001:0004bf70       ??$?0U?$_Wrap_alloc@V?$allocator@VpollCommand@@@std@@@std@@@?$_Wrap_alloc@V?$allocator@PAVpollCommand@@@std@@@std@@QAE@ABU?$_Wrap_alloc@V?$allocator@VpollCommand@@@std@@@1@@Z 0044cf70 f i slink.obj
 0001:0004bfa0       ??$?0V?$_Tree_const_iterator@V?$_Tree_val@U?$_Tree_simple_types@VQString@@@std@@@std@@@std@@_NX@?$pair@V?$_Tree_const_iterator@V?$_Tree_val@U?$_Tree_simple_types@VQString@@@std@@@std@@@std@@_N@std@@QAE@$$QAV?$_Tree_const_iterator@V?$_Tree_val@U?$_Tree_simple_types@VQString@@@std@@@std@@@1@$$QA_N@Z 0044cfa0 f i slink.obj
 0001:0004c030       ??$?0V?$_Tree_const_iterator@V?$_Tree_val@U?$_Tree_simple_types@VpollCommand@@@std@@@std@@@std@@_NX@?$pair@V?$_Tree_const_iterator@V?$_Tree_val@U?$_Tree_simple_types@VpollCommand@@@std@@@std@@@std@@_N@std@@QAE@$$QAV?$_Tree_const_iterator@V?$_Tree_val@U?$_Tree_simple_types@VpollCommand@@@std@@@std@@@1@$$QA_N@Z 0044d030 f i slink.obj
 0001:0004c0c0       ??$?0V?$_Tree_iterator@V?$_Tree_val@U?$_Tree_simple_types@U?$pair@$$CBIPAVfabianServer@@@std@@@std@@@std@@@std@@_NX@?$pair@V?$_Tree_iterator@V?$_Tree_val@U?$_Tree_simple_types@U?$pair@$$CBIPAVfabianServer@@@std@@@std@@@std@@@std@@_N@std@@QAE@$$QAV?$_Tree_iterator@V?$_Tree_val@U?$_Tree_simple_types@U?$pair@$$CBIPAVfabianServer@@@std@@@std@@@std@@@1@$$QA_N@Z 0044d0c0 f i slink.obj
 0001:0004c150       ??$?0VpollCommand@@@?$allocator@PAVpollCommand@@@std@@QAE@ABV?$allocator@VpollCommand@@@1@@Z 0044d150 f i slink.obj
 0001:0004c170       ??$_Allocate@PAVpollCommand@@@std@@YAPAPAVpollCommand@@IPAPAV1@@Z 0044d170 f i slink.obj
 0001:0004c1d0       ??$_Allocate@U?$_List_node@PAVuser@@PAX@std@@@std@@YAPAU?$_List_node@PAVuser@@PAX@0@IPAU10@@Z 0044d1d0 f i slink.obj
 0001:0004c220       ??$_Allocate@U?$_Tree_node@U?$pair@$$CBIPAVfabianServer@@@std@@PAX@std@@@std@@YAPAU?$_Tree_node@U?$pair@$$CBIPAVfabianServer@@@std@@PAX@0@IPAU10@@Z 0044d220 f i slink.obj
 0001:0004c270       ??$_Allocate@U?$_Tree_node@VQString@@PAX@std@@@std@@YAPAU?$_Tree_node@VQString@@PAX@0@IPAU10@@Z 0044d270 f i slink.obj
 0001:0004c2c0       ??$_Allocate@U?$_Tree_node@VpollCommand@@PAX@std@@@std@@YAPAU?$_Tree_node@VpollCommand@@PAX@0@IPAU10@@Z 0044d2c0 f i slink.obj
 0001:0004c310       ??$_Allocate@VpollCommand@@@std@@YAPAVpollCommand@@IPAV1@@Z 0044d310 f i slink.obj
 0001:0004c360       ??$_Buynode@ABVpollCommand@@@?$_Tree_buy@VpollCommand@@V?$allocator@VpollCommand@@@std@@@std@@QAEPAU?$_Tree_node@VpollCommand@@PAX@1@ABVpollCommand@@@Z 0044d360 f i slink.obj
 0001:0004c490       ??$_Buynode@U?$pair@IPAVfabianServer@@@std@@@?$_Tree_buy@U?$pair@$$CBIPAVfabianServer@@@std@@V?$allocator@U?$pair@$$CBIPAVfabianServer@@@std@@@2@@std@@QAEPAU?$_Tree_node@U?$pair@$$CBIPAVfabianServer@@@std@@PAX@1@$$QAU?$pair@IPAVfabianServer@@@1@@Z 0044d490 f i slink.obj
 0001:0004c5c0       ??$_Buynode@VQString@@@?$_Tree_buy@VQString@@V?$allocator@VQString@@@std@@@std@@QAEPAU?$_Tree_node@VQString@@PAX@1@$$QAVQString@@@Z 0044d5c0 f i slink.obj
 0001:0004c6f0       ??$_Buynode_if_nil@AAU?$pair@$$CBIPAVfabianServer@@@std@@@?$_Tree@V?$_Tmap_traits@IPAVfabianServer@@U?$less@I@std@@V?$allocator@U?$pair@$$CBIPAVfabianServer@@@std@@@3@$0A@@std@@@std@@IAEPAU?$_Tree_node@U?$pair@$$CBIPAVfabianServer@@@std@@PAX@1@PAU21@AAU?$pair@$$CBIPAVfabianServer@@@1@@Z 0044d6f0 f i slink.obj
 0001:0004c710       ??$_Buynode_if_nil@ABVpollCommand@@@?$_Tree@V?$_Tset_traits@VpollCommand@@U?$less@VpollCommand@@@std@@V?$allocator@VpollCommand@@@3@$0A@@std@@@std@@IAEPAU?$_Tree_node@VpollCommand@@PAX@1@U_Nil@1@ABVpollCommand@@@Z 0044d710 f i slink.obj
 0001:0004c740       ??$_Buynode_if_nil@VQString@@@?$_Tree@V?$_Tset_traits@VQString@@U?$less@VQString@@@std@@V?$allocator@VQString@@@3@$0A@@std@@@std@@IAEPAU?$_Tree_node@VQString@@PAX@1@U_Nil@1@$$QAVQString@@@Z 0044d740 f i slink.obj
 0001:0004c770       ??$_Debug_lt_pred@U?$less@VQString@@@std@@ABVQString@@ABV3@@std@@YA_NU?$less@VQString@@@0@ABVQString@@1PB_WI@Z 0044d770 f i slink.obj
 0001:0004c810       ??$_Debug_lt_pred@U?$less@VpollCommand@@@std@@ABVpollCommand@@ABV3@@std@@YA_NU?$less@VpollCommand@@@0@ABVpollCommand@@1PB_WI@Z 0044d810 f i slink.obj
 0001:0004c8b0       ??$_Debug_pointer@PAVpollCommand@@@std@@YAXPAPAVpollCommand@@PB_WI@Z 0044d8b0 f i slink.obj
 0001:0004c8e0       ??$_Debug_range2@PAPAVpollCommand@@@std@@YAXPAPAVpollCommand@@0PB_WIUrandom_access_iterator_tag@0@@Z 0044d8e0 f i slink.obj
 0001:0004c950       ??$_Debug_range@PAPAVpollCommand@@@std@@YAXPAPAVpollCommand@@0PB_WI@Z 0044d950 f i slink.obj
 0001:0004c9a0       ??$_Destroy_range@U?$_Wrap_alloc@V?$allocator@PAVpollCommand@@@std@@@std@@@std@@YAXPAPAVpollCommand@@0AAU?$_Wrap_alloc@V?$allocator@PAVpollCommand@@@std@@@0@@Z 0044d9a0 f i slink.obj
 0001:0004c9f0       ??$_Destroy_range@U?$_Wrap_alloc@V?$allocator@PAVpollCommand@@@std@@@std@@@std@@YAXPAPAVpollCommand@@0AAU?$_Wrap_alloc@V?$allocator@PAVpollCommand@@@std@@@0@U_Scalar_ptr_iterator_tag@0@@Z 0044d9f0 f i slink.obj
 0001:0004ca00       ??$_Distance2@V?$_Tree_const_iterator@V?$_Tree_val@U?$_Tree_simple_types@VpollCommand@@@std@@@std@@@std@@I@std@@YAXV?$_Tree_const_iterator@V?$_Tree_val@U?$_Tree_simple_types@VpollCommand@@@std@@@std@@@0@0AAIUbidirectional_iterator_tag@0@@Z 0044da00 f i slink.obj
 0001:0004caa0       ??$_Distance@V?$_Tree_const_iterator@V?$_Tree_val@U?$_Tree_simple_types@VpollCommand@@@std@@@std@@@std@@I@std@@YAXV?$_Tree_const_iterator@V?$_Tree_val@U?$_Tree_simple_types@VpollCommand@@@std@@@std@@@0@0AAI@Z 0044daa0 f i slink.obj
 0001:0004cb80       ??$_Fill_n@PAPAVpollCommand@@IPAV1@@std@@YAPAPAVpollCommand@@PAPAV1@IABQAV1@@Z 0044db80 f i slink.obj
 0001:0004cbc0       ??$_Insert_at@AAU?$pair@$$CBIPAVfabianServer@@@std@@PAU?$_Tree_node@U?$pair@$$CBIPAVfabianServer@@@std@@PAX@2@@?$_Tree@V?$_Tmap_traits@IPAVfabianServer@@U?$less@I@std@@V?$allocator@U?$pair@$$CBIPAVfabianServer@@@std@@@3@$0A@@std@@@std@@IAE?AV?$_Tree_iterator@V?$_Tree_val@U?$_Tree_simple_types@U?$pair@$$CBIPAVfabianServer@@@std@@@std@@@std@@@1@_NPAU?$_Tree_node@U?$pair@$$CBIPAVfabianServer@@@std@@PAX@1@AAU?$pair@$$CBIPAVfabianServer@@@1@1@Z 0044dbc0 f i slink.obj
 0001:0004d110       ??$_Insert_at@ABVpollCommand@@U_Nil@std@@@?$_Tree@V?$_Tset_traits@VpollCommand@@U?$less@VpollCommand@@@std@@V?$allocator@VpollCommand@@@3@$0A@@std@@@std@@IAE?AV?$_Tree_const_iterator@V?$_Tree_val@U?$_Tree_simple_types@VpollCommand@@@std@@@std@@@1@_NPAU?$_Tree_node@VpollCommand@@PAX@1@ABVpollCommand@@U_Nil@1@@Z 0044e110 f i slink.obj
 0001:0004d660       ??$_Insert_at@VQString@@U_Nil@std@@@?$_Tree@V?$_Tset_traits@VQString@@U?$less@VQString@@@std@@V?$allocator@VQString@@@3@$0A@@std@@@std@@IAE?AV?$_Tree_const_iterator@V?$_Tree_val@U?$_Tree_simple_types@VQString@@@std@@@std@@@1@_NPAU?$_Tree_node@VQString@@PAX@1@$$QAVQString@@U_Nil@1@@Z 0044e660 f i slink.obj
 0001:0004dbb0       ??$_Insert_nohint@AAU?$pair@$$CBIPAVfabianServer@@@std@@PAU?$_Tree_node@U?$pair@$$CBIPAVfabianServer@@@std@@PAX@2@@?$_Tree@V?$_Tmap_traits@IPAVfabianServer@@U?$less@I@std@@V?$allocator@U?$pair@$$CBIPAVfabianServer@@@std@@@3@$0A@@std@@@std@@IAE?AU?$pair@V?$_Tree_iterator@V?$_Tree_val@U?$_Tree_simple_types@U?$pair@$$CBIPAVfabianServer@@@std@@@std@@@std@@@std@@_N@1@_NAAU?$pair@$$CBIPAVfabianServer@@@1@PAU?$_Tree_node@U?$pair@$$CBIPAVfabianServer@@@std@@PAX@1@@Z 0044ebb0 f i slink.obj
 0001:0004e190       ??$_Insert_nohint@ABVpollCommand@@U_Nil@std@@@?$_Tree@V?$_Tset_traits@VpollCommand@@U?$less@VpollCommand@@@std@@V?$allocator@VpollCommand@@@3@$0A@@std@@@std@@IAE?AU?$pair@V?$_Tree_const_iterator@V?$_Tree_val@U?$_Tree_simple_types@VpollCommand@@@std@@@std@@@std@@_N@1@_NABVpollCommand@@U_Nil@1@@Z 0044f190 f i slink.obj
 0001:0004e780       ??$_Insert_nohint@VQString@@U_Nil@std@@@?$_Tree@V?$_Tset_traits@VQString@@U?$less@VQString@@@std@@V?$allocator@VQString@@@3@$0A@@std@@@std@@IAE?AU?$pair@V?$_Tree_const_iterator@V?$_Tree_val@U?$_Tree_simple_types@VQString@@@std@@@std@@@std@@_N@1@_N$$QAVQString@@U_Nil@1@@Z 0044f780 f i slink.obj
 0001:0004ed70       ??$_Iter_cat@PAPAVpollCommand@@@std@@YA?AUrandom_access_iterator_tag@0@ABQAPAVpollCommand@@@Z 0044fd70 f i slink.obj
 0001:0004ed90       ??$_Iter_cat@V?$_Tree_const_iterator@V?$_Tree_val@U?$_Tree_simple_types@VpollCommand@@@std@@@std@@@std@@@std@@YA?AUbidirectional_iterator_tag@0@ABV?$_Tree_const_iterator@V?$_Tree_val@U?$_Tree_simple_types@VpollCommand@@@std@@@std@@@0@@Z 0044fd90 f i slink.obj
 0001:0004edb0       ??$_Kfn@$$CBIPAVfabianServer@@@?$_Tmap_traits@IPAVfabianServer@@U?$less@I@std@@V?$allocator@U?$pair@$$CBIPAVfabianServer@@@std@@@3@$0A@@std@@SAABIABU?$pair@$$CBIPAVfabianServer@@@1@@Z 0044fdb0 f i slink.obj
 0001:0004edc0       ??$_Ptr_cat@PAVpollCommand@@PAV1@@std@@YA?AU_Scalar_ptr_iterator_tag@0@PAPAVpollCommand@@0@Z 0044fdc0 f i slink.obj
 0001:0004edd0       ??$_Rechecked@PAPAVpollCommand@@PAPAV1@@std@@YAAAPAPAVpollCommand@@AAPAPAV1@PAPAV1@@Z 0044fdd0 f i slink.obj
 0001:0004edf0       ??$_Unchecked@PAPAVpollCommand@@@std@@YAPAPAVpollCommand@@PAPAV1@@Z 0044fdf0 f i slink.obj
 0001:0004ee00       ??$_Uninit_copy@PAPAVpollCommand@@PAPAV1@U?$_Wrap_alloc@V?$allocator@PAVpollCommand@@@std@@@std@@@std@@YAPAPAVpollCommand@@PAPAV1@00AAU?$_Wrap_alloc@V?$allocator@PAVpollCommand@@@std@@@0@@Z 0044fe00 f i slink.obj
 0001:0004ee50       ??$_Uninit_copy@PAVpollCommand@@PAV1@@std@@YAPAPAVpollCommand@@PAPAV1@00AAU?$_Wrap_alloc@V?$allocator@PAVpollCommand@@@std@@@0@U_Scalar_ptr_iterator_tag@0@@Z 0044fe50 f i slink.obj
 0001:0004eed0       ??$_Uninit_def_fill_n@PAVpollCommand@@IPAV1@@std@@YAXPAPAVpollCommand@@IAAU?$_Wrap_alloc@V?$allocator@PAVpollCommand@@@std@@@0@0U_Scalar_ptr_iterator_tag@0@@Z 0044fed0 f i slink.obj
 0001:0004ef00       ??$_Uninitialized_copy@PAPAVpollCommand@@PAPAV1@U?$_Wrap_alloc@V?$allocator@PAVpollCommand@@@std@@@std@@@std@@YAPAPAVpollCommand@@PAPAV1@00AAU?$_Wrap_alloc@V?$allocator@PAVpollCommand@@@std@@@0@@Z 0044ff00 f i slink.obj
 0001:0004ef60       ??$_Uninitialized_default_fill_n@PAPAVpollCommand@@IU?$_Wrap_alloc@V?$allocator@PAVpollCommand@@@std@@@std@@@std@@YAXPAPAVpollCommand@@IAAU?$_Wrap_alloc@V?$allocator@PAVpollCommand@@@std@@@0@@Z 0044ff60 f i slink.obj
 0001:0004efc0       ??$_Val_type@PAPAVpollCommand@@@std@@YAPAPAVpollCommand@@PAPAV1@@Z 0044ffc0 f i slink.obj
 0001:0004efd0       ??$addressof@$$CBU?$pair@$$CBIPAVfabianServer@@@std@@@std@@YAPBU?$pair@$$CBIPAVfabianServer@@@0@ABU10@@Z 0044ffd0 f i slink.obj
 0001:0004efe0       ??$addressof@$$CBVclientIPC@@@std@@YAPBVclientIPC@@ABV1@@Z 0044ffe0 f i slink.obj
 0001:0004eff0       ??$addressof@$$CBVdbEntry@@@std@@YAPBVdbEntry@@ABV1@@Z 0044fff0 f i slink.obj
 0001:0004f000       ??$addressof@$$CBVpollCommand@@@std@@YAPBVpollCommand@@ABV1@@Z 00450000 f i slink.obj
 0001:0004f010       ??$addressof@PAU?$_List_node@PAVuser@@PAX@std@@@std@@YAPAPAU?$_List_node@PAVuser@@PAX@0@AAPAU10@@Z 00450010 f i slink.obj
 0001:0004f020       ??$addressof@PAU?$_Tree_node@U?$pair@$$CBIPAVfabianServer@@@std@@PAX@std@@@std@@YAPAPAU?$_Tree_node@U?$pair@$$CBIPAVfabianServer@@@std@@PAX@0@AAPAU10@@Z 00450020 f i slink.obj
 0001:0004f030       ??$addressof@PAU?$_Tree_node@VQString@@PAX@std@@@std@@YAPAPAU?$_Tree_node@VQString@@PAX@0@AAPAU10@@Z 00450030 f i slink.obj
 0001:0004f040       ??$addressof@PAU?$_Tree_node@VpollCommand@@PAX@std@@@std@@YAPAPAU?$_Tree_node@VpollCommand@@PAX@0@AAPAU10@@Z 00450040 f i slink.obj
 0001:0004f050       ??$addressof@PAVuser@@@std@@YAPAPAVuser@@AAPAV1@@Z 00450050 f i slink.obj
 0001:0004f060       ??$addressof@U?$pair@$$CBIPAVfabianServer@@@std@@@std@@YAPAU?$pair@$$CBIPAVfabianServer@@@0@AAU10@@Z 00450060 f i slink.obj
 0001:0004f070       ??$addressof@VQString@@@std@@YAPAVQString@@AAV1@@Z 00450070 f i slink.obj
 0001:0004f080       ??$addressof@VpollCommand@@@std@@YAPAVpollCommand@@AAV1@@Z 00450080 f i slink.obj
 0001:0004f090       ??$construct@PAU?$_List_node@PAVuser@@PAX@std@@AAPAU12@@?$_Wrap_alloc@V?$allocator@U?$_List_node@PAVuser@@PAX@std@@@std@@@std@@QAEXPAPAU?$_List_node@PAVuser@@PAX@1@AAPAU21@@Z 00450090 f i slink.obj
 0001:0004f0d0       ??$construct@PAU?$_List_node@PAVuser@@PAX@std@@AAPAU12@@?$allocator@U?$_List_node@PAVuser@@PAX@std@@@std@@QAEXPAPAU?$_List_node@PAVuser@@PAX@1@AAPAU21@@Z 004500d0 f i slink.obj
 0001:0004f180       ??$construct@PAU?$_List_node@PAVuser@@PAX@std@@AAPAU12@@?$allocator_traits@V?$allocator@U?$_List_node@PAVuser@@PAX@std@@@std@@@std@@SAXAAV?$allocator@U?$_List_node@PAVuser@@PAX@std@@@1@PAPAU?$_List_node@PAVuser@@PAX@1@AAPAU31@@Z 00450180 f i slink.obj
 0001:0004f1b0       ??$construct@PAU?$_Tree_node@U?$pair@$$CBIPAVfabianServer@@@std@@PAX@std@@AAPAU12@@?$_Wrap_alloc@V?$allocator@U?$_Tree_node@U?$pair@$$CBIPAVfabianServer@@@std@@PAX@std@@@std@@@std@@QAEXPAPAU?$_Tree_node@U?$pair@$$CBIPAVfabianServer@@@std@@PAX@1@AAPAU21@@Z 004501b0 f i slink.obj
 0001:0004f1f0       ??$construct@PAU?$_Tree_node@U?$pair@$$CBIPAVfabianServer@@@std@@PAX@std@@AAPAU12@@?$allocator@U?$_Tree_node@U?$pair@$$CBIPAVfabianServer@@@std@@PAX@std@@@std@@QAEXPAPAU?$_Tree_node@U?$pair@$$CBIPAVfabianServer@@@std@@PAX@1@AAPAU21@@Z 004501f0 f i slink.obj
 0001:0004f2a0       ??$construct@PAU?$_Tree_node@U?$pair@$$CBIPAVfabianServer@@@std@@PAX@std@@AAPAU12@@?$allocator_traits@V?$allocator@U?$_Tree_node@U?$pair@$$CBIPAVfabianServer@@@std@@PAX@std@@@std@@@std@@SAXAAV?$allocator@U?$_Tree_node@U?$pair@$$CBIPAVfabianServer@@@std@@PAX@std@@@1@PAPAU?$_Tree_node@U?$pair@$$CBIPAVfabianServer@@@std@@PAX@1@AAPAU31@@Z 004502a0 f i slink.obj
 0001:0004f2d0       ??$construct@PAU?$_Tree_node@VQString@@PAX@std@@AAPAU12@@?$_Wrap_alloc@V?$allocator@U?$_Tree_node@VQString@@PAX@std@@@std@@@std@@QAEXPAPAU?$_Tree_node@VQString@@PAX@1@AAPAU21@@Z 004502d0 f i slink.obj
 0001:0004f310       ??$construct@PAU?$_Tree_node@VQString@@PAX@std@@AAPAU12@@?$allocator@U?$_Tree_node@VQString@@PAX@std@@@std@@QAEXPAPAU?$_Tree_node@VQString@@PAX@1@AAPAU21@@Z 00450310 f i slink.obj
 0001:0004f3c0       ??$construct@PAU?$_Tree_node@VQString@@PAX@std@@AAPAU12@@?$allocator_traits@V?$allocator@U?$_Tree_node@VQString@@PAX@std@@@std@@@std@@SAXAAV?$allocator@U?$_Tree_node@VQString@@PAX@std@@@1@PAPAU?$_Tree_node@VQString@@PAX@1@AAPAU31@@Z 004503c0 f i slink.obj
 0001:0004f3f0       ??$construct@PAU?$_Tree_node@VpollCommand@@PAX@std@@AAPAU12@@?$_Wrap_alloc@V?$allocator@U?$_Tree_node@VpollCommand@@PAX@std@@@std@@@std@@QAEXPAPAU?$_Tree_node@VpollCommand@@PAX@1@AAPAU21@@Z 004503f0 f i slink.obj
 0001:0004f430       ??$construct@PAU?$_Tree_node@VpollCommand@@PAX@std@@AAPAU12@@?$allocator@U?$_Tree_node@VpollCommand@@PAX@std@@@std@@QAEXPAPAU?$_Tree_node@VpollCommand@@PAX@1@AAPAU21@@Z 00450430 f i slink.obj
 0001:0004f4e0       ??$construct@PAU?$_Tree_node@VpollCommand@@PAX@std@@AAPAU12@@?$allocator_traits@V?$allocator@U?$_Tree_node@VpollCommand@@PAX@std@@@std@@@std@@SAXAAV?$allocator@U?$_Tree_node@VpollCommand@@PAX@std@@@1@PAPAU?$_Tree_node@VpollCommand@@PAX@1@AAPAU31@@Z 004504e0 f i slink.obj
 0001:0004f510       ??$construct@U?$pair@$$CBIPAVfabianServer@@@std@@U?$pair@IPAVfabianServer@@@2@@?$_Wrap_alloc@V?$allocator@U?$_Tree_node@U?$pair@$$CBIPAVfabianServer@@@std@@PAX@std@@@std@@@std@@QAEXPAU?$pair@$$CBIPAVfabianServer@@@1@$$QAU?$pair@IPAVfabianServer@@@1@@Z 00450510 f i slink.obj
 0001:0004f550       ??$construct@U?$pair@$$CBIPAVfabianServer@@@std@@U?$pair@IPAVfabianServer@@@2@@?$allocator@U?$_Tree_node@U?$pair@$$CBIPAVfabianServer@@@std@@PAX@std@@@std@@QAEXPAU?$pair@$$CBIPAVfabianServer@@@1@$$QAU?$pair@IPAVfabianServer@@@1@@Z 00450550 f i slink.obj
 0001:0004f600       ??$construct@U?$pair@$$CBIPAVfabianServer@@@std@@U?$pair@IPAVfabianServer@@@2@@?$allocator_traits@V?$allocator@U?$_Tree_node@U?$pair@$$CBIPAVfabianServer@@@std@@PAX@std@@@std@@@std@@SAXAAV?$allocator@U?$_Tree_node@U?$pair@$$CBIPAVfabianServer@@@std@@PAX@std@@@1@PAU?$pair@$$CBIPAVfabianServer@@@1@$$QAU?$pair@IPAVfabianServer@@@1@@Z 00450600 f i slink.obj
 0001:0004f630       ??$construct@VQString@@V1@@?$_Wrap_alloc@V?$allocator@U?$_Tree_node@VQString@@PAX@std@@@std@@@std@@QAEXPAVQString@@$$QAV2@@Z 00450630 f i slink.obj
 0001:0004f670       ??$construct@VQString@@V1@@?$allocator@U?$_Tree_node@VQString@@PAX@std@@@std@@QAEXPAVQString@@$$QAV2@@Z 00450670 f i slink.obj
 0001:0004f720       ??$construct@VQString@@V1@@?$allocator_traits@V?$allocator@U?$_Tree_node@VQString@@PAX@std@@@std@@@std@@SAXAAV?$allocator@U?$_Tree_node@VQString@@PAX@std@@@1@PAVQString@@$$QAV3@@Z 00450720 f i slink.obj
 0001:0004f750       ??$construct@VpollCommand@@ABV1@@?$_Wrap_alloc@V?$allocator@U?$_Tree_node@VpollCommand@@PAX@std@@@std@@@std@@QAEXPAVpollCommand@@ABV2@@Z 00450750 f i slink.obj
 0001:0004f790       ??$construct@VpollCommand@@ABV1@@?$_Wrap_alloc@V?$allocator@VpollCommand@@@std@@@std@@QAEXPAVpollCommand@@ABV2@@Z 00450790 f i slink.obj
 0001:0004f7d0       ??$construct@VpollCommand@@ABV1@@?$allocator@U?$_Tree_node@VpollCommand@@PAX@std@@@std@@QAEXPAVpollCommand@@ABV2@@Z 004507d0 f i slink.obj
 0001:0004f8a0       ??$construct@VpollCommand@@ABV1@@?$allocator_traits@V?$allocator@U?$_Tree_node@VpollCommand@@PAX@std@@@std@@@std@@SAXAAV?$allocator@U?$_Tree_node@VpollCommand@@PAX@std@@@1@PAVpollCommand@@ABV3@@Z 004508a0 f i slink.obj
 0001:0004f8d0       ??$construct@VpollCommand@@ABV1@@?$allocator_traits@V?$allocator@VpollCommand@@@std@@@std@@SAXAAV?$allocator@VpollCommand@@@1@PAVpollCommand@@ABV3@@Z 004508d0 f i slink.obj
 0001:0004f900       ??$destroy@PAU?$_List_node@PAVuser@@PAX@std@@@?$_Wrap_alloc@V?$allocator@U?$_List_node@PAVuser@@PAX@std@@@std@@@std@@QAEXPAPAU?$_List_node@PAVuser@@PAX@1@@Z 00450900 f i slink.obj
 0001:0004f930       ??$destroy@PAU?$_List_node@PAVuser@@PAX@std@@@?$allocator@U?$_List_node@PAVuser@@PAX@std@@@std@@QAEXPAPAU?$_List_node@PAVuser@@PAX@1@@Z 00450930 f i slink.obj
 0001:0004f940       ??$destroy@PAU?$_List_node@PAVuser@@PAX@std@@@?$allocator_traits@V?$allocator@U?$_List_node@PAVuser@@PAX@std@@@std@@@std@@SAXAAV?$allocator@U?$_List_node@PAVuser@@PAX@std@@@1@PAPAU?$_List_node@PAVuser@@PAX@1@@Z 00450940 f i slink.obj
 0001:0004f960       ??$destroy@PAU?$_List_node@VclientIPC@@PAX@std@@@?$_Wrap_alloc@V?$allocator@U?$_List_node@VclientIPC@@PAX@std@@@std@@@std@@QAEXPAPAU?$_List_node@VclientIPC@@PAX@1@@Z 00450960 f i slink.obj
 0001:0004f990       ??$destroy@PAU?$_List_node@VclientIPC@@PAX@std@@@?$allocator@U?$_List_node@VclientIPC@@PAX@std@@@std@@QAEXPAPAU?$_List_node@VclientIPC@@PAX@1@@Z 00450990 f i slink.obj
 0001:0004f9a0       ??$destroy@PAU?$_List_node@VclientIPC@@PAX@std@@@?$allocator_traits@V?$allocator@U?$_List_node@VclientIPC@@PAX@std@@@std@@@std@@SAXAAV?$allocator@U?$_List_node@VclientIPC@@PAX@std@@@1@PAPAU?$_List_node@VclientIPC@@PAX@1@@Z 004509a0 f i slink.obj
 0001:0004f9c0       ??$destroy@PAU?$_Tree_node@U?$pair@$$CBIPAVfabianServer@@@std@@PAX@std@@@?$_Wrap_alloc@V?$allocator@U?$_Tree_node@U?$pair@$$CBIPAVfabianServer@@@std@@PAX@std@@@std@@@std@@QAEXPAPAU?$_Tree_node@U?$pair@$$CBIPAVfabianServer@@@std@@PAX@1@@Z 004509c0 f i slink.obj
 0001:0004f9f0       ??$destroy@PAU?$_Tree_node@U?$pair@$$CBIPAVfabianServer@@@std@@PAX@std@@@?$allocator@U?$_Tree_node@U?$pair@$$CBIPAVfabianServer@@@std@@PAX@std@@@std@@QAEXPAPAU?$_Tree_node@U?$pair@$$CBIPAVfabianServer@@@std@@PAX@1@@Z 004509f0 f i slink.obj
 0001:0004fa00       ??$destroy@PAU?$_Tree_node@U?$pair@$$CBIPAVfabianServer@@@std@@PAX@std@@@?$allocator_traits@V?$allocator@U?$_Tree_node@U?$pair@$$CBIPAVfabianServer@@@std@@PAX@std@@@std@@@std@@SAXAAV?$allocator@U?$_Tree_node@U?$pair@$$CBIPAVfabianServer@@@std@@PAX@std@@@1@PAPAU?$_Tree_node@U?$pair@$$CBIPAVfabianServer@@@std@@PAX@1@@Z 00450a00 f i slink.obj
 0001:0004fa20       ??$destroy@PAU?$_Tree_node@VQString@@PAX@std@@@?$_Wrap_alloc@V?$allocator@U?$_Tree_node@VQString@@PAX@std@@@std@@@std@@QAEXPAPAU?$_Tree_node@VQString@@PAX@1@@Z 00450a20 f i slink.obj
 0001:0004fa50       ??$destroy@PAU?$_Tree_node@VQString@@PAX@std@@@?$allocator@U?$_Tree_node@VQString@@PAX@std@@@std@@QAEXPAPAU?$_Tree_node@VQString@@PAX@1@@Z 00450a50 f i slink.obj
 0001:0004fa60       ??$destroy@PAU?$_Tree_node@VQString@@PAX@std@@@?$allocator_traits@V?$allocator@U?$_Tree_node@VQString@@PAX@std@@@std@@@std@@SAXAAV?$allocator@U?$_Tree_node@VQString@@PAX@std@@@1@PAPAU?$_Tree_node@VQString@@PAX@1@@Z 00450a60 f i slink.obj
 0001:0004fa80       ??$destroy@PAU?$_Tree_node@VpollCommand@@PAX@std@@@?$_Wrap_alloc@V?$allocator@U?$_Tree_node@VpollCommand@@PAX@std@@@std@@@std@@QAEXPAPAU?$_Tree_node@VpollCommand@@PAX@1@@Z 00450a80 f i slink.obj
 0001:0004fab0       ??$destroy@PAU?$_Tree_node@VpollCommand@@PAX@std@@@?$allocator@U?$_Tree_node@VpollCommand@@PAX@std@@@std@@QAEXPAPAU?$_Tree_node@VpollCommand@@PAX@1@@Z 00450ab0 f i slink.obj
 0001:0004fac0       ??$destroy@PAU?$_Tree_node@VpollCommand@@PAX@std@@@?$allocator_traits@V?$allocator@U?$_Tree_node@VpollCommand@@PAX@std@@@std@@@std@@SAXAAV?$allocator@U?$_Tree_node@VpollCommand@@PAX@std@@@1@PAPAU?$_Tree_node@VpollCommand@@PAX@1@@Z 00450ac0 f i slink.obj
 0001:0004fae0       ??$destroy@PAVpollCommand@@@?$_Wrap_alloc@V?$allocator@VpollCommand@@@std@@@std@@QAEXPAPAVpollCommand@@@Z 00450ae0 f i slink.obj
 0001:0004fb10       ??$destroy@PAVpollCommand@@@?$allocator@VpollCommand@@@std@@QAEXPAPAVpollCommand@@@Z 00450b10 f i slink.obj
 0001:0004fb20       ??$destroy@PAVpollCommand@@@?$allocator_traits@V?$allocator@VpollCommand@@@std@@@std@@SAXAAV?$allocator@VpollCommand@@@1@PAPAVpollCommand@@@Z 00450b20 f i slink.obj
 0001:0004fb40       ??$destroy@PAVuser@@@?$_Wrap_alloc@V?$allocator@U?$_List_node@PAVuser@@PAX@std@@@std@@@std@@QAEXPAPAVuser@@@Z 00450b40 f i slink.obj
 0001:0004fb70       ??$destroy@PAVuser@@@?$allocator@U?$_List_node@PAVuser@@PAX@std@@@std@@QAEXPAPAVuser@@@Z 00450b70 f i slink.obj
 0001:0004fb80       ??$destroy@PAVuser@@@?$allocator_traits@V?$allocator@U?$_List_node@PAVuser@@PAX@std@@@std@@@std@@SAXAAV?$allocator@U?$_List_node@PAVuser@@PAX@std@@@1@PAPAVuser@@@Z 00450b80 f i slink.obj
 0001:0004fba0       ??$destroy@U?$pair@$$CBIPAVfabianServer@@@std@@@?$_Wrap_alloc@V?$allocator@U?$_Tree_node@U?$pair@$$CBIPAVfabianServer@@@std@@PAX@std@@@std@@@std@@QAEXPAU?$pair@$$CBIPAVfabianServer@@@1@@Z 00450ba0 f i slink.obj
 0001:0004fbd0       ??$destroy@U?$pair@$$CBIPAVfabianServer@@@std@@@?$allocator@U?$_Tree_node@U?$pair@$$CBIPAVfabianServer@@@std@@PAX@std@@@std@@QAEXPAU?$pair@$$CBIPAVfabianServer@@@1@@Z 00450bd0 f i slink.obj
 0001:0004fbe0       ??$destroy@U?$pair@$$CBIPAVfabianServer@@@std@@@?$allocator_traits@V?$allocator@U?$_Tree_node@U?$pair@$$CBIPAVfabianServer@@@std@@PAX@std@@@std@@@std@@SAXAAV?$allocator@U?$_Tree_node@U?$pair@$$CBIPAVfabianServer@@@std@@PAX@std@@@1@PAU?$pair@$$CBIPAVfabianServer@@@1@@Z 00450be0 f i slink.obj
 0001:0004fc00       ??$destroy@VQString@@@?$_Wrap_alloc@V?$allocator@U?$_Tree_node@VQString@@PAX@std@@@std@@@std@@QAEXPAVQString@@@Z 00450c00 f i slink.obj
 0001:0004fc30       ??$destroy@VQString@@@?$allocator@U?$_Tree_node@VQString@@PAX@std@@@std@@QAEXPAVQString@@@Z 00450c30 f i slink.obj
 0001:0004fc50       ??$destroy@VQString@@@?$allocator_traits@V?$allocator@U?$_Tree_node@VQString@@PAX@std@@@std@@@std@@SAXAAV?$allocator@U?$_Tree_node@VQString@@PAX@std@@@1@PAVQString@@@Z 00450c50 f i slink.obj
 0001:0004fc70       ??$destroy@VclientIPC@@@?$_Wrap_alloc@V?$allocator@U?$_List_node@VclientIPC@@PAX@std@@@std@@@std@@QAEXPAVclientIPC@@@Z 00450c70 f i slink.obj
 0001:0004fca0       ??$destroy@VclientIPC@@@?$allocator@U?$_List_node@VclientIPC@@PAX@std@@@std@@QAEXPAVclientIPC@@@Z 00450ca0 f i slink.obj
 0001:0004fcb0       ??$destroy@VclientIPC@@@?$allocator_traits@V?$allocator@U?$_List_node@VclientIPC@@PAX@std@@@std@@@std@@SAXAAV?$allocator@U?$_List_node@VclientIPC@@PAX@std@@@1@PAVclientIPC@@@Z 00450cb0 f i slink.obj
 0001:0004fcd0       ??$destroy@VdbEntry@@@?$_Wrap_alloc@V?$allocator@U?$_Tree_node@VdbEntry@@PAX@std@@@std@@@std@@QAEXPAVdbEntry@@@Z 00450cd0 f i slink.obj
 0001:0004fd00       ??$destroy@VdbEntry@@@?$allocator@U?$_Tree_node@VdbEntry@@PAX@std@@@std@@QAEXPAVdbEntry@@@Z 00450d00 f i slink.obj
 0001:0004fd10       ??$destroy@VdbEntry@@@?$allocator_traits@V?$allocator@U?$_Tree_node@VdbEntry@@PAX@std@@@std@@@std@@SAXAAV?$allocator@U?$_Tree_node@VdbEntry@@PAX@std@@@1@PAVdbEntry@@@Z 00450d10 f i slink.obj
 0001:0004fd30       ??$destroy@VpollCommand@@@?$_Wrap_alloc@V?$allocator@U?$_Tree_node@VpollCommand@@PAX@std@@@std@@@std@@QAEXPAVpollCommand@@@Z 00450d30 f i slink.obj
 0001:0004fd60       ??$destroy@VpollCommand@@@?$_Wrap_alloc@V?$allocator@VpollCommand@@@std@@@std@@QAEXPAVpollCommand@@@Z 00450d60 f i slink.obj
 0001:0004fd90       ??$destroy@VpollCommand@@@?$allocator@U?$_Tree_node@VpollCommand@@PAX@std@@@std@@QAEXPAVpollCommand@@@Z 00450d90 f i slink.obj
 0001:0004fda0       ??$destroy@VpollCommand@@@?$allocator@VpollCommand@@@std@@QAEXPAVpollCommand@@@Z 00450da0 f i slink.obj
 0001:0004fdb0       ??$destroy@VpollCommand@@@?$allocator_traits@V?$allocator@U?$_Tree_node@VpollCommand@@PAX@std@@@std@@@std@@SAXAAV?$allocator@U?$_Tree_node@VpollCommand@@PAX@std@@@1@PAVpollCommand@@@Z 00450db0 f i slink.obj
 0001:0004fdd0       ??$destroy@VpollCommand@@@?$allocator_traits@V?$allocator@VpollCommand@@@std@@@std@@SAXAAV?$allocator@VpollCommand@@@1@PAVpollCommand@@@Z 00450dd0 f i slink.obj
 0001:0004fdf0       ??$forward@AAPAU?$_List_node@PAVuser@@PAX@std@@@std@@YAAAPAU?$_List_node@PAVuser@@PAX@0@AAPAU10@@Z 00450df0 f i slink.obj
 0001:0004fe00       ??$forward@AAPAU?$_Tree_node@U?$pair@$$CBIPAVfabianServer@@@std@@PAX@std@@@std@@YAAAPAU?$_Tree_node@U?$pair@$$CBIPAVfabianServer@@@std@@PAX@0@AAPAU10@@Z 00450e00 f i slink.obj
 0001:0004fe10       ??$forward@AAPAU?$_Tree_node@VQString@@PAX@std@@@std@@YAAAPAU?$_Tree_node@VQString@@PAX@0@AAPAU10@@Z 00450e10 f i slink.obj
 0001:0004fe20       ??$forward@AAPAU?$_Tree_node@VpollCommand@@PAX@std@@@std@@YAAAPAU?$_Tree_node@VpollCommand@@PAX@0@AAPAU10@@Z 00450e20 f i slink.obj
 0001:0004fe30       ??$forward@AAPAVfabianServer@@@std@@YAAAPAVfabianServer@@AAPAV1@@Z 00450e30 f i slink.obj
 0001:0004fe40       ??$forward@AAU?$pair@$$CBIPAVfabianServer@@@std@@@std@@YAAAU?$pair@$$CBIPAVfabianServer@@@0@AAU10@@Z 00450e40 f i slink.obj
 0001:0004fe50       ??$forward@AAV?$_Tree_const_iterator@V?$_Tree_val@U?$_Tree_simple_types@VQString@@@std@@@std@@@std@@@std@@YAAAV?$_Tree_const_iterator@V?$_Tree_val@U?$_Tree_simple_types@VQString@@@std@@@std@@@0@AAV10@@Z 00450e50 f i slink.obj
 0001:0004fe60       ??$forward@AAV?$_Tree_const_iterator@V?$_Tree_val@U?$_Tree_simple_types@VpollCommand@@@std@@@std@@@std@@@std@@YAAAV?$_Tree_const_iterator@V?$_Tree_val@U?$_Tree_simple_types@VpollCommand@@@std@@@std@@@0@AAV10@@Z 00450e60 f i slink.obj
 0001:0004fe70       ??$forward@AAV?$_Tree_iterator@V?$_Tree_val@U?$_Tree_simple_types@U?$pair@$$CBIPAVfabianServer@@@std@@@std@@@std@@@std@@@std@@YAAAV?$_Tree_iterator@V?$_Tree_val@U?$_Tree_simple_types@U?$pair@$$CBIPAVfabianServer@@@std@@@std@@@std@@@0@AAV10@@Z 00450e70 f i slink.obj
 0001:0004fe80       ??$forward@ABVQString@@@std@@YAABVQString@@ABV1@@Z 00450e80 f i slink.obj
 0001:0004fe90       ??$forward@ABVpollCommand@@@std@@YAABVpollCommand@@ABV1@@Z 00450e90 f i slink.obj
 0001:0004fea0       ??$forward@PAVfabianServer@@@std@@YA$$QAPAVfabianServer@@AAPAV1@@Z 00450ea0 f i slink.obj
 0001:0004feb0       ??$forward@U?$pair@IPAVfabianServer@@@std@@@std@@YA$$QAU?$pair@IPAVfabianServer@@@0@AAU10@@Z 00450eb0 f i slink.obj
 0001:0004fec0       ??$forward@V?$_Tree_const_iterator@V?$_Tree_val@U?$_Tree_simple_types@VQString@@@std@@@std@@@std@@@std@@YA$$QAV?$_Tree_const_iterator@V?$_Tree_val@U?$_Tree_simple_types@VQString@@@std@@@std@@@0@AAV10@@Z 00450ec0 f i slink.obj
 0001:0004fed0       ??$forward@V?$_Tree_const_iterator@V?$_Tree_val@U?$_Tree_simple_types@VpollCommand@@@std@@@std@@@std@@@std@@YA$$QAV?$_Tree_const_iterator@V?$_Tree_val@U?$_Tree_simple_types@VpollCommand@@@std@@@std@@@0@AAV10@@Z 00450ed0 f i slink.obj
 0001:0004fee0       ??$forward@V?$_Tree_iterator@V?$_Tree_val@U?$_Tree_simple_types@U?$pair@$$CBIPAVfabianServer@@@std@@@std@@@std@@@std@@@std@@YA$$QAV?$_Tree_iterator@V?$_Tree_val@U?$_Tree_simple_types@U?$pair@$$CBIPAVfabianServer@@@std@@@std@@@std@@@0@AAV10@@Z 00450ee0 f i slink.obj
 0001:0004fef0       ??$forward@VQString@@@std@@YA$$QAVQString@@AAV1@@Z 00450ef0 f i slink.obj
 0001:0004ff00       ??$insert@U?$pair@IPAVfabianServer@@@std@@@?$_Tree@V?$_Tmap_traits@IPAVfabianServer@@U?$less@I@std@@V?$allocator@U?$pair@$$CBIPAVfabianServer@@@std@@@3@$0A@@std@@@std@@QAE?AU?$pair@V?$_Tree_iterator@V?$_Tree_val@U?$_Tree_simple_types@U?$pair@$$CBIPAVfabianServer@@@std@@@std@@@std@@@std@@_N@1@$$QAU?$pair@IPAVfabianServer@@@1@@Z 00450f00 f i slink.obj
 0001:0004ff70       ??$make_pair@AAIAAPAVfabianServer@@@std@@YA?AU?$pair@IPAVfabianServer@@@0@AAIAAPAVfabianServer@@@Z 00450f70 f i slink.obj
 0001:0004ffb0       ??0?$QFlags@W4AlignmentFlag@Qt@@@@QAE@PQPrivate@0@H@Z 00450fb0 f i slink.obj
 0001:0004ffd0       ??0?$QFlags@W4StandardButton@QMessageBox@@@@QAE@W4StandardButton@QMessageBox@@@Z 00450fd0 f i slink.obj
 0001:0004fff0       ??0?$QFlags@W4WindowType@Qt@@@@QAE@PQPrivate@0@H@Z 00450ff0 f i slink.obj
 0001:00050010       ??0?$QList@VQSslCipher@@@@QAE@XZ 00451010 f i slink.obj
 0001:00050030       ??0?$_Deque_alloc@$0A@U?$_Deque_base_types@VpollCommand@@V?$allocator@VpollCommand@@@std@@@std@@@std@@QAE@ABV?$allocator@VpollCommand@@@1@@Z 00451030 f i slink.obj
 0001:000500a0       ??0?$_Deque_const_iterator@V?$_Deque_val@U?$_Deque_simple_types@VpollCommand@@@std@@@std@@@std@@QAE@IPBU_Container_base12@1@@Z 004510a0 f i slink.obj
 0001:00050120       ??0?$_Deque_iterator@V?$_Deque_val@U?$_Deque_simple_types@VpollCommand@@@std@@@std@@@std@@QAE@IPBU_Container_base12@1@@Z 00451120 f i slink.obj
 0001:00050150       ??0?$_Deque_val@U?$_Deque_simple_types@VpollCommand@@@std@@@std@@QAE@XZ 00451150 f i slink.obj
 0001:000501a0       ??0?$_Iterator012@Ubidirectional_iterator_tag@std@@PAVuser@@HPBQAV3@ABQAV3@U_Iterator_base12@2@@std@@QAE@ABU01@@Z 004511a0 f i slink.obj
 0001:000501d0       ??0?$_Iterator012@Ubidirectional_iterator_tag@std@@PAVuser@@HPBQAV3@ABQAV3@U_Iterator_base12@2@@std@@QAE@XZ 004511d0 f i slink.obj
 0001:000501f0       ??0?$_Iterator012@Ubidirectional_iterator_tag@std@@U?$pair@$$CBIPAVfabianServer@@@2@HPBU32@ABU32@U_Iterator_base12@2@@std@@QAE@ABU01@@Z 004511f0 f i slink.obj
 0001:00050220       ??0?$_Iterator012@Ubidirectional_iterator_tag@std@@U?$pair@$$CBIPAVfabianServer@@@2@HPBU32@ABU32@U_Iterator_base12@2@@std@@QAE@XZ 00451220 f i slink.obj
 0001:00050240       ??0?$_Iterator012@Ubidirectional_iterator_tag@std@@VQString@@HPBV3@ABV3@U_Iterator_base12@2@@std@@QAE@ABU01@@Z 00451240 f i slink.obj
 0001:00050270       ??0?$_Iterator012@Ubidirectional_iterator_tag@std@@VclientIPC@@HPBV3@ABV3@U_Iterator_base12@2@@std@@QAE@ABU01@@Z 00451270 f i slink.obj
 0001:000502a0       ??0?$_Iterator012@Ubidirectional_iterator_tag@std@@VclientIPC@@HPBV3@ABV3@U_Iterator_base12@2@@std@@QAE@XZ 004512a0 f i slink.obj
 0001:000502c0       ??0?$_Iterator012@Ubidirectional_iterator_tag@std@@VpollCommand@@HPBV3@ABV3@U_Iterator_base12@2@@std@@QAE@ABU01@@Z 004512c0 f i slink.obj
 0001:000502f0       ??0?$_Iterator012@Ubidirectional_iterator_tag@std@@VpollCommand@@HPBV3@ABV3@U_Iterator_base12@2@@std@@QAE@XZ 004512f0 f i slink.obj
 0001:00050310       ??0?$_List_alloc@$0A@U?$_List_base_types@PAVuser@@V?$allocator@PAVuser@@@std@@@std@@@std@@QAE@ABV?$allocator@PAVuser@@@1@@Z 00451310 f i slink.obj
 0001:000503e0       ??0?$_List_alloc@$0A@U?$_List_base_types@VclientIPC@@V?$allocator@VclientIPC@@@std@@@std@@@std@@QAE@ABV?$allocator@VclientIPC@@@1@@Z 004513e0 f i slink.obj
 0001:000504b0       ??0?$_List_buy@PAVuser@@V?$allocator@PAVuser@@@std@@@std@@QAE@ABV?$allocator@PAVuser@@@1@@Z 004514b0 f i slink.obj
 0001:000504e0       ??0?$_List_buy@VclientIPC@@V?$allocator@VclientIPC@@@std@@@std@@QAE@ABV?$allocator@VclientIPC@@@1@@Z 004514e0 f i slink.obj
 0001:00050510       ??0?$_List_const_iterator@V?$_List_val@U?$_List_simple_types@PAVuser@@@std@@@std@@@std@@QAE@ABV01@@Z 00451510 f i slink.obj
 0001:00050540       ??0?$_List_const_iterator@V?$_List_val@U?$_List_simple_types@PAVuser@@@std@@@std@@@std@@QAE@PAU?$_List_node@PAVuser@@PAX@1@PBV?$_List_val@U?$_List_simple_types@PAVuser@@@std@@@1@@Z 00451540 f i slink.obj
 0001:00050570       ??0?$_List_const_iterator@V?$_List_val@U?$_List_simple_types@VclientIPC@@@std@@@std@@@std@@QAE@ABV01@@Z 00451570 f i slink.obj
 0001:000505a0       ??0?$_List_const_iterator@V?$_List_val@U?$_List_simple_types@VclientIPC@@@std@@@std@@@std@@QAE@PAU?$_List_node@VclientIPC@@PAX@1@PBV?$_List_val@U?$_List_simple_types@VclientIPC@@@std@@@1@@Z 004515a0 f i slink.obj
 0001:000505d0       ??0?$_List_iterator@V?$_List_val@U?$_List_simple_types@PAVuser@@@std@@@std@@@std@@QAE@PAU?$_List_node@PAVuser@@PAX@1@PBV?$_List_val@U?$_List_simple_types@PAVuser@@@std@@@1@@Z 004515d0 f i slink.obj
 0001:00050600       ??0?$_List_iterator@V?$_List_val@U?$_List_simple_types@VclientIPC@@@std@@@std@@@std@@QAE@PAU?$_List_node@VclientIPC@@PAX@1@PBV?$_List_val@U?$_List_simple_types@VclientIPC@@@std@@@1@@Z 00451600 f i slink.obj
 0001:00050630       ??0?$_List_unchecked_const_iterator@V?$_List_val@U?$_List_simple_types@PAVuser@@@std@@@std@@U_Iterator_base12@2@@std@@QAE@ABV01@@Z 00451630 f i slink.obj
 0001:00050670       ??0?$_List_unchecked_const_iterator@V?$_List_val@U?$_List_simple_types@PAVuser@@@std@@@std@@U_Iterator_base12@2@@std@@QAE@PAU?$_List_node@PAVuser@@PAX@1@PBV?$_List_val@U?$_List_simple_types@PAVuser@@@std@@@1@@Z 00451670 f i slink.obj
 0001:000506f0       ??0?$_List_unchecked_const_iterator@V?$_List_val@U?$_List_simple_types@VclientIPC@@@std@@@std@@U_Iterator_base12@2@@std@@QAE@ABV01@@Z 004516f0 f i slink.obj
 0001:00050730       ??0?$_List_unchecked_const_iterator@V?$_List_val@U?$_List_simple_types@VclientIPC@@@std@@@std@@U_Iterator_base12@2@@std@@QAE@PAU?$_List_node@VclientIPC@@PAX@1@PBV?$_List_val@U?$_List_simple_types@VclientIPC@@@std@@@1@@Z 00451730 f i slink.obj
 0001:000507b0       ??0?$_List_val@U?$_List_simple_types@PAVuser@@@std@@@std@@QAE@XZ 004517b0 f i slink.obj
 0001:000507f0       ??0?$_List_val@U?$_List_simple_types@VclientIPC@@@std@@@std@@QAE@XZ 004517f0 f i slink.obj
 0001:00050830       ??0?$_Tree@V?$_Tmap_traits@IPAVfabianServer@@U?$less@I@std@@V?$allocator@U?$pair@$$CBIPAVfabianServer@@@std@@@3@$0A@@std@@@std@@QAE@ABU?$less@I@1@ABV?$allocator@U?$pair@$$CBIPAVfabianServer@@@std@@@1@@Z 00451830 f i slink.obj
 0001:00050860       ??0?$_Tree@V?$_Tset_traits@VQString@@U?$less@VQString@@@std@@V?$allocator@VQString@@@3@$0A@@std@@@std@@QAE@ABU?$less@VQString@@@1@ABV?$allocator@VQString@@@1@@Z 00451860 f i slink.obj
 0001:00050890       ??0?$_Tree@V?$_Tset_traits@VdbEntry@@U?$less@VdbEntry@@@std@@V?$allocator@VdbEntry@@@3@$0A@@std@@@std@@QAE@ABU?$less@VdbEntry@@@1@ABV?$allocator@VdbEntry@@@1@@Z 00451890 f i slink.obj
 0001:000508c0       ??0?$_Tree@V?$_Tset_traits@VpollCommand@@U?$less@VpollCommand@@@std@@V?$allocator@VpollCommand@@@3@$0A@@std@@@std@@QAE@ABU?$less@VpollCommand@@@1@ABV?$allocator@VpollCommand@@@1@@Z 004518c0 f i slink.obj
 0001:000508f0       ??0?$_Tree_alloc@$0A@U?$_Tree_base_types@U?$pair@$$CBIPAVfabianServer@@@std@@V?$allocator@U?$pair@$$CBIPAVfabianServer@@@std@@@2@@std@@@std@@QAE@ABV?$allocator@U?$pair@$$CBIPAVfabianServer@@@std@@@1@@Z 004518f0 f i slink.obj
 0001:000509c0       ??0?$_Tree_alloc@$0A@U?$_Tree_base_types@VQString@@V?$allocator@VQString@@@std@@@std@@@std@@QAE@ABV?$allocator@VQString@@@1@@Z 004519c0 f i slink.obj
 0001:00050a90       ??0?$_Tree_alloc@$0A@U?$_Tree_base_types@VdbEntry@@V?$allocator@VdbEntry@@@std@@@std@@@std@@QAE@ABV?$allocator@VdbEntry@@@1@@Z 00451a90 f i slink.obj
 0001:00050b60       ??0?$_Tree_alloc@$0A@U?$_Tree_base_types@VpollCommand@@V?$allocator@VpollCommand@@@std@@@std@@@std@@QAE@ABV?$allocator@VpollCommand@@@1@@Z 00451b60 f i slink.obj
 0001:00050c30       ??0?$_Tree_buy@U?$pair@$$CBIPAVfabianServer@@@std@@V?$allocator@U?$pair@$$CBIPAVfabianServer@@@std@@@2@@std@@QAE@ABV?$allocator@U?$pair@$$CBIPAVfabianServer@@@std@@@1@@Z 00451c30 f i slink.obj
 0001:00050c60       ??0?$_Tree_buy@VQString@@V?$allocator@VQString@@@std@@@std@@QAE@ABV?$allocator@VQString@@@1@@Z 00451c60 f i slink.obj
 0001:00050c90       ??0?$_Tree_buy@VdbEntry@@V?$allocator@VdbEntry@@@std@@@std@@QAE@ABV?$allocator@VdbEntry@@@1@@Z 00451c90 f i slink.obj
 0001:00050cc0       ??0?$_Tree_buy@VpollCommand@@V?$allocator@VpollCommand@@@std@@@std@@QAE@ABV?$allocator@VpollCommand@@@1@@Z 00451cc0 f i slink.obj
 0001:00050cf0       ??0?$_Tree_comp@$0A@V?$_Tmap_traits@IPAVfabianServer@@U?$less@I@std@@V?$allocator@U?$pair@$$CBIPAVfabianServer@@@std@@@3@$0A@@std@@@std@@QAE@ABU?$less@I@1@ABV?$allocator@U?$pair@$$CBIPAVfabianServer@@@std@@@1@@Z 00451cf0 f i slink.obj
 0001:00050d20       ??0?$_Tree_comp@$0A@V?$_Tset_traits@VQString@@U?$less@VQString@@@std@@V?$allocator@VQString@@@3@$0A@@std@@@std@@QAE@ABU?$less@VQString@@@1@ABV?$allocator@VQString@@@1@@Z 00451d20 f i slink.obj
 0001:00050d50       ??0?$_Tree_comp@$0A@V?$_Tset_traits@VdbEntry@@U?$less@VdbEntry@@@std@@V?$allocator@VdbEntry@@@3@$0A@@std@@@std@@QAE@ABU?$less@VdbEntry@@@1@ABV?$allocator@VdbEntry@@@1@@Z 00451d50 f i slink.obj
 0001:00050d80       ??0?$_Tree_comp@$0A@V?$_Tset_traits@VpollCommand@@U?$less@VpollCommand@@@std@@V?$allocator@VpollCommand@@@3@$0A@@std@@@std@@QAE@ABU?$less@VpollCommand@@@1@ABV?$allocator@VpollCommand@@@1@@Z 00451d80 f i slink.obj
 0001:00050db0       ??0?$_Tree_const_iterator@V?$_Tree_val@U?$_Tree_simple_types@U?$pair@$$CBIPAVfabianServer@@@std@@@std@@@std@@@std@@QAE@ABV01@@Z 00451db0 f i slink.obj
 0001:00050de0       ??0?$_Tree_const_iterator@V?$_Tree_val@U?$_Tree_simple_types@U?$pair@$$CBIPAVfabianServer@@@std@@@std@@@std@@@std@@QAE@PAU?$_Tree_node@U?$pair@$$CBIPAVfabianServer@@@std@@PAX@1@PBV?$_Tree_val@U?$_Tree_simple_types@U?$pair@$$CBIPAVfabianServer@@@std@@@std@@@1@@Z 00451de0 f i slink.obj
 0001:00050e10       ??0?$_Tree_const_iterator@V?$_Tree_val@U?$_Tree_simple_types@VQString@@@std@@@std@@@std@@QAE@ABV01@@Z 00451e10 f i slink.obj
 0001:00050e40       ??0?$_Tree_const_iterator@V?$_Tree_val@U?$_Tree_simple_types@VpollCommand@@@std@@@std@@@std@@QAE@ABV01@@Z 00451e40 f i slink.obj
 0001:00050e70       ??0?$_Tree_const_iterator@V?$_Tree_val@U?$_Tree_simple_types@VpollCommand@@@std@@@std@@@std@@QAE@PAU?$_Tree_node@VpollCommand@@PAX@1@PBV?$_Tree_val@U?$_Tree_simple_types@VpollCommand@@@std@@@1@@Z 00451e70 f i slink.obj
 0001:00050ea0       ??0?$_Tree_iterator@V?$_Tree_val@U?$_Tree_simple_types@U?$pair@$$CBIPAVfabianServer@@@std@@@std@@@std@@@std@@QAE@ABV01@@Z 00451ea0 f i slink.obj
 0001:00050ed0       ??0?$_Tree_iterator@V?$_Tree_val@U?$_Tree_simple_types@U?$pair@$$CBIPAVfabianServer@@@std@@@std@@@std@@@std@@QAE@PAU?$_Tree_node@U?$pair@$$CBIPAVfabianServer@@@std@@PAX@1@PBV?$_Tree_val@U?$_Tree_simple_types@U?$pair@$$CBIPAVfabianServer@@@std@@@std@@@1@@Z 00451ed0 f i slink.obj
 0001:00050f00       ??0?$_Tree_unchecked_const_iterator@V?$_Tree_val@U?$_Tree_simple_types@U?$pair@$$CBIPAVfabianServer@@@std@@@std@@@std@@U_Iterator_base12@2@@std@@QAE@ABV01@@Z 00451f00 f i slink.obj
 0001:00050f40       ??0?$_Tree_unchecked_const_iterator@V?$_Tree_val@U?$_Tree_simple_types@U?$pair@$$CBIPAVfabianServer@@@std@@@std@@@std@@U_Iterator_base12@2@@std@@QAE@PAU?$_Tree_node@U?$pair@$$CBIPAVfabianServer@@@std@@PAX@1@PBV?$_Tree_val@U?$_Tree_simple_types@U?$pair@$$CBIPAVfabianServer@@@std@@@std@@@1@@Z 00451f40 f i slink.obj
 0001:00050fc0       ??0?$_Tree_unchecked_const_iterator@V?$_Tree_val@U?$_Tree_simple_types@VQString@@@std@@@std@@U_Iterator_base12@2@@std@@QAE@ABV01@@Z 00451fc0 f i slink.obj
 0001:00051000       ??0?$_Tree_unchecked_const_iterator@V?$_Tree_val@U?$_Tree_simple_types@VpollCommand@@@std@@@std@@U_Iterator_base12@2@@std@@QAE@ABV01@@Z 00452000 f i slink.obj
 0001:00051040       ??0?$_Tree_unchecked_const_iterator@V?$_Tree_val@U?$_Tree_simple_types@VpollCommand@@@std@@@std@@U_Iterator_base12@2@@std@@QAE@PAU?$_Tree_node@VpollCommand@@PAX@1@PBV?$_Tree_val@U?$_Tree_simple_types@VpollCommand@@@std@@@1@@Z 00452040 f i slink.obj
 0001:000510c0       ??0?$_Tree_val@U?$_Tree_simple_types@U?$pair@$$CBIPAVfabianServer@@@std@@@std@@@std@@QAE@XZ 004520c0 f i slink.obj
 0001:00051100       ??0?$_Tree_val@U?$_Tree_simple_types@VQString@@@std@@@std@@QAE@XZ 00452100 f i slink.obj
 0001:00051140       ??0?$_Tree_val@U?$_Tree_simple_types@VdbEntry@@@std@@@std@@QAE@XZ 00452140 f i slink.obj
 0001:00051180       ??0?$_Tree_val@U?$_Tree_simple_types@VpollCommand@@@std@@@std@@QAE@XZ 00452180 f i slink.obj
 0001:000511c0       ??0?$_Wrap_alloc@V?$allocator@U?$_List_node@PAVuser@@PAX@std@@@std@@@std@@QAE@XZ 004521c0 f i slink.obj
 0001:000511e0       ??0?$_Wrap_alloc@V?$allocator@U?$_Tree_node@U?$pair@$$CBIPAVfabianServer@@@std@@PAX@std@@@std@@@std@@QAE@XZ 004521e0 f i slink.obj
 0001:00051200       ??0?$_Wrap_alloc@V?$allocator@U?$_Tree_node@VQString@@PAX@std@@@std@@@std@@QAE@XZ 00452200 f i slink.obj
 0001:00051220       ??0?$_Wrap_alloc@V?$allocator@U?$_Tree_node@VpollCommand@@PAX@std@@@std@@@std@@QAE@XZ 00452220 f i slink.obj
 0001:00051240       ??0?$_Wrap_alloc@V?$allocator@VpollCommand@@@std@@@std@@QAE@XZ 00452240 f i slink.obj
 0001:00051260       ??0?$allocator@PAVuser@@@std@@QAE@XZ 00452260 f i slink.obj
 0001:00051280       ??0?$allocator@U?$_List_node@PAVuser@@PAX@std@@@std@@QAE@XZ 00452280 f i slink.obj
 0001:000512a0       ??0?$allocator@U?$_Tree_node@U?$pair@$$CBIPAVfabianServer@@@std@@PAX@std@@@std@@QAE@XZ 004522a0 f i slink.obj
 0001:000512c0       ??0?$allocator@U?$_Tree_node@VQString@@PAX@std@@@std@@QAE@XZ 004522c0 f i slink.obj
 0001:000512e0       ??0?$allocator@U?$_Tree_node@VpollCommand@@PAX@std@@@std@@QAE@XZ 004522e0 f i slink.obj
 0001:00051300       ??0?$allocator@U?$pair@$$CBIPAVfabianServer@@@std@@@std@@QAE@XZ 00452300 f i slink.obj
 0001:00051320       ??0?$allocator@VQString@@@std@@QAE@XZ 00452320 f i slink.obj
 0001:00051340       ??0?$allocator@VclientIPC@@@std@@QAE@XZ 00452340 f i slink.obj
 0001:00051360       ??0?$allocator@VdbEntry@@@std@@QAE@XZ 00452360 f i slink.obj
 0001:00051380       ??0?$allocator@VpollCommand@@@std@@QAE@XZ 00452380 f i slink.obj
 0001:000513a0       ??0?$deque@VpollCommand@@V?$allocator@VpollCommand@@@std@@@std@@QAE@XZ 004523a0 f i slink.obj
 0001:000513d0       ??0?$list@PAVuser@@V?$allocator@PAVuser@@@std@@@std@@QAE@XZ 004523d0 f i slink.obj
 0001:00051400       ??0?$list@VclientIPC@@V?$allocator@VclientIPC@@@std@@@std@@QAE@XZ 00452400 f i slink.obj
 0001:00051430       ??0?$map@IPAVfabianServer@@U?$less@I@std@@V?$allocator@U?$pair@$$CBIPAVfabianServer@@@std@@@3@@std@@QAE@XZ 00452430 f i slink.obj
 0001:00051460       ??0?$queue@VpollCommand@@V?$deque@VpollCommand@@V?$allocator@VpollCommand@@@std@@@std@@@std@@QAE@XZ 00452460 f i slink.obj
 0001:00051480       ??0?$set@VQString@@U?$less@VQString@@@std@@V?$allocator@VQString@@@3@@std@@QAE@XZ 00452480 f i slink.obj
 0001:000514b0       ??0?$set@VdbEntry@@U?$less@VdbEntry@@@std@@V?$allocator@VdbEntry@@@3@@std@@QAE@XZ 004524b0 f i slink.obj
 0001:000514e0       ??0?$set@VpollCommand@@U?$less@VpollCommand@@@std@@V?$allocator@VpollCommand@@@3@@std@@QAE@XZ 004524e0 f i slink.obj
 0001:00051510       ??0IccClientCallback@@QAE@XZ 00452510 f i slink.obj
 0001:00051530       ??0Ifabian_clientCallback@@QAE@XZ 00452530 f i slink.obj
 0001:00051550       ??0clientIPC@@QAE@PAVfabian_client@@@Z 00452550 f i slink.obj
 0001:00051570       ??0const_iterator@?$QList@VQSslCipher@@@@QAE@ABViterator@1@@Z 00452570 f i slink.obj
 0001:00051590       ??0const_iterator@?$QList@VQString@@@@QAE@ABViterator@1@@Z 00452590 f i slink.obj
 0001:000515b0       ??0iterator@?$QList@VQSslCipher@@@@QAE@PAUNode@1@@Z 004525b0 f i slink.obj
 0001:000515d0       ??0iterator@?$QList@VQString@@@@QAE@PAUNode@1@@Z 004525d0 f i slink.obj
 0001:000515f0       ??0pollCommand@@QAE@PAVQListWidgetItem@@DIII@Z 004525f0 f i slink.obj
 0001:00051640       ??1?$QList@VQSslCipher@@@@QAE@XZ 00452640 f i slink.obj
 0001:000516d0       ??1?$QListSpecialMethods@VQSslCipher@@@@IAE@XZ 004526d0 f i slink.obj
 0001:000516e0       ??1?$_Deque_alloc@$0A@U?$_Deque_base_types@VpollCommand@@V?$allocator@VpollCommand@@@std@@@std@@@std@@QAE@XZ 004526e0 f i slink.obj
 0001:00051710       ??1?$_Deque_const_iterator@V?$_Deque_val@U?$_Deque_simple_types@VpollCommand@@@std@@@std@@@std@@QAE@XZ 00452710 f i slink.obj
 0001:00051730       ??1?$_Deque_iterator@V?$_Deque_val@U?$_Deque_simple_types@VpollCommand@@@std@@@std@@@std@@QAE@XZ 00452730 f i slink.obj
 0001:00051750       ??1?$_Deque_val@U?$_Deque_simple_types@VpollCommand@@@std@@@std@@QAE@XZ 00452750 f i slink.obj
 0001:00051770       ??1?$_Iterator012@Ubidirectional_iterator_tag@std@@PAVuser@@HPBQAV3@ABQAV3@U_Iterator_base12@2@@std@@QAE@XZ 00452770 f i slink.obj
 0001:00051790       ??1?$_Iterator012@Ubidirectional_iterator_tag@std@@U?$pair@$$CBIPAVfabianServer@@@2@HPBU32@ABU32@U_Iterator_base12@2@@std@@QAE@XZ 00452790 f i slink.obj
 0001:000517b0       ??1?$_Iterator012@Ubidirectional_iterator_tag@std@@VclientIPC@@HPBV3@ABV3@U_Iterator_base12@2@@std@@QAE@XZ 004527b0 f i slink.obj
 0001:000517d0       ??1?$_Iterator012@Ubidirectional_iterator_tag@std@@VpollCommand@@HPBV3@ABV3@U_Iterator_base12@2@@std@@QAE@XZ 004527d0 f i slink.obj
 0001:000517f0       ??1?$_List_alloc@$0A@U?$_List_base_types@PAVuser@@V?$allocator@PAVuser@@@std@@@std@@@std@@QAE@XZ 004527f0 f i slink.obj
 0001:00051830       ??1?$_List_alloc@$0A@U?$_List_base_types@VclientIPC@@V?$allocator@VclientIPC@@@std@@@std@@@std@@QAE@XZ 00452830 f i slink.obj
 0001:00051870       ??1?$_List_buy@PAVuser@@V?$allocator@PAVuser@@@std@@@std@@QAE@XZ 00452870 f i slink.obj
 0001:00051890       ??1?$_List_buy@VclientIPC@@V?$allocator@VclientIPC@@@std@@@std@@QAE@XZ 00452890 f i slink.obj
 0001:000518b0       ??1?$_List_const_iterator@V?$_List_val@U?$_List_simple_types@PAVuser@@@std@@@std@@@std@@QAE@XZ 004528b0 f i slink.obj
 0001:000518d0       ??1?$_List_const_iterator@V?$_List_val@U?$_List_simple_types@VclientIPC@@@std@@@std@@@std@@QAE@XZ 004528d0 f i slink.obj
 0001:000518f0       ??1?$_List_iterator@V?$_List_val@U?$_List_simple_types@PAVuser@@@std@@@std@@@std@@QAE@XZ 004528f0 f i slink.obj
 0001:00051910       ??1?$_List_iterator@V?$_List_val@U?$_List_simple_types@VclientIPC@@@std@@@std@@@std@@QAE@XZ 00452910 f i slink.obj
 0001:00051930       ??1?$_List_unchecked_const_iterator@V?$_List_val@U?$_List_simple_types@PAVuser@@@std@@@std@@U_Iterator_base12@2@@std@@QAE@XZ 00452930 f i slink.obj
 0001:00051950       ??1?$_List_unchecked_const_iterator@V?$_List_val@U?$_List_simple_types@VclientIPC@@@std@@@std@@U_Iterator_base12@2@@std@@QAE@XZ 00452950 f i slink.obj
 0001:00051970       ??1?$_List_val@U?$_List_simple_types@PAVuser@@@std@@@std@@QAE@XZ 00452970 f i slink.obj
 0001:00051990       ??1?$_List_val@U?$_List_simple_types@VclientIPC@@@std@@@std@@QAE@XZ 00452990 f i slink.obj
 0001:000519b0       ??1?$_Tree@V?$_Tmap_traits@IPAVfabianServer@@U?$less@I@std@@V?$allocator@U?$pair@$$CBIPAVfabianServer@@@std@@@3@$0A@@std@@@std@@QAE@XZ 004529b0 f i slink.obj
 0001:000519e0       ??1?$_Tree@V?$_Tset_traits@VQString@@U?$less@VQString@@@std@@V?$allocator@VQString@@@3@$0A@@std@@@std@@QAE@XZ 004529e0 f i slink.obj
 0001:00051a10       ??1?$_Tree@V?$_Tset_traits@VdbEntry@@U?$less@VdbEntry@@@std@@V?$allocator@VdbEntry@@@3@$0A@@std@@@std@@QAE@XZ 00452a10 f i slink.obj
 0001:00051a40       ??1?$_Tree@V?$_Tset_traits@VpollCommand@@U?$less@VpollCommand@@@std@@V?$allocator@VpollCommand@@@3@$0A@@std@@@std@@QAE@XZ 00452a40 f i slink.obj
 0001:00051a70       ??1?$_Tree_alloc@$0A@U?$_Tree_base_types@U?$pair@$$CBIPAVfabianServer@@@std@@V?$allocator@U?$pair@$$CBIPAVfabianServer@@@std@@@2@@std@@@std@@QAE@XZ 00452a70 f i slink.obj
 0001:00051ab0       ??1?$_Tree_alloc@$0A@U?$_Tree_base_types@VQString@@V?$allocator@VQString@@@std@@@std@@@std@@QAE@XZ 00452ab0 f i slink.obj
 0001:00051af0       ??1?$_Tree_alloc@$0A@U?$_Tree_base_types@VdbEntry@@V?$allocator@VdbEntry@@@std@@@std@@@std@@QAE@XZ 00452af0 f i slink.obj
 0001:00051b30       ??1?$_Tree_alloc@$0A@U?$_Tree_base_types@VpollCommand@@V?$allocator@VpollCommand@@@std@@@std@@@std@@QAE@XZ 00452b30 f i slink.obj
 0001:00051b70       ??1?$_Tree_buy@U?$pair@$$CBIPAVfabianServer@@@std@@V?$allocator@U?$pair@$$CBIPAVfabianServer@@@std@@@2@@std@@QAE@XZ 00452b70 f i slink.obj
 0001:00051b90       ??1?$_Tree_buy@VQString@@V?$allocator@VQString@@@std@@@std@@QAE@XZ 00452b90 f i slink.obj
 0001:00051bb0       ??1?$_Tree_buy@VdbEntry@@V?$allocator@VdbEntry@@@std@@@std@@QAE@XZ 00452bb0 f i slink.obj
 0001:00051bd0       ??1?$_Tree_buy@VpollCommand@@V?$allocator@VpollCommand@@@std@@@std@@QAE@XZ 00452bd0 f i slink.obj
 0001:00051bf0       ??1?$_Tree_comp@$0A@V?$_Tmap_traits@IPAVfabianServer@@U?$less@I@std@@V?$allocator@U?$pair@$$CBIPAVfabianServer@@@std@@@3@$0A@@std@@@std@@QAE@XZ 00452bf0 f i slink.obj
 0001:00051c10       ??1?$_Tree_comp@$0A@V?$_Tset_traits@VQString@@U?$less@VQString@@@std@@V?$allocator@VQString@@@3@$0A@@std@@@std@@QAE@XZ 00452c10 f i slink.obj
 0001:00051c30       ??1?$_Tree_comp@$0A@V?$_Tset_traits@VdbEntry@@U?$less@VdbEntry@@@std@@V?$allocator@VdbEntry@@@3@$0A@@std@@@std@@QAE@XZ 00452c30 f i slink.obj
 0001:00051c50       ??1?$_Tree_comp@$0A@V?$_Tset_traits@VpollCommand@@U?$less@VpollCommand@@@std@@V?$allocator@VpollCommand@@@3@$0A@@std@@@std@@QAE@XZ 00452c50 f i slink.obj
 0001:00051c70       ??1?$_Tree_const_iterator@V?$_Tree_val@U?$_Tree_simple_types@U?$pair@$$CBIPAVfabianServer@@@std@@@std@@@std@@@std@@QAE@XZ 00452c70 f i slink.obj
 0001:00051c90       ??1?$_Tree_const_iterator@V?$_Tree_val@U?$_Tree_simple_types@VpollCommand@@@std@@@std@@@std@@QAE@XZ 00452c90 f i slink.obj
 0001:00051cb0       ??1?$_Tree_iterator@V?$_Tree_val@U?$_Tree_simple_types@U?$pair@$$CBIPAVfabianServer@@@std@@@std@@@std@@@std@@QAE@XZ 00452cb0 f i slink.obj
 0001:00051cd0       ??1?$_Tree_unchecked_const_iterator@V?$_Tree_val@U?$_Tree_simple_types@U?$pair@$$CBIPAVfabianServer@@@std@@@std@@@std@@U_Iterator_base12@2@@std@@QAE@XZ 00452cd0 f i slink.obj
 0001:00051cf0       ??1?$_Tree_unchecked_const_iterator@V?$_Tree_val@U?$_Tree_simple_types@VpollCommand@@@std@@@std@@U_Iterator_base12@2@@std@@QAE@XZ 00452cf0 f i slink.obj
 0001:00051d10       ??1?$_Tree_val@U?$_Tree_simple_types@U?$pair@$$CBIPAVfabianServer@@@std@@@std@@@std@@QAE@XZ 00452d10 f i slink.obj
 0001:00051d30       ??1?$_Tree_val@U?$_Tree_simple_types@VQString@@@std@@@std@@QAE@XZ 00452d30 f i slink.obj
 0001:00051d50       ??1?$_Tree_val@U?$_Tree_simple_types@VdbEntry@@@std@@@std@@QAE@XZ 00452d50 f i slink.obj
 0001:00051d70       ??1?$_Tree_val@U?$_Tree_simple_types@VpollCommand@@@std@@@std@@QAE@XZ 00452d70 f i slink.obj
 0001:00051d90       ??1?$deque@VpollCommand@@V?$allocator@VpollCommand@@@std@@@std@@QAE@XZ 00452d90 f i slink.obj
 0001:00051dc0       ??1?$list@PAVuser@@V?$allocator@PAVuser@@@std@@@std@@QAE@XZ 00452dc0 f i slink.obj
 0001:00051df0       ??1?$list@VclientIPC@@V?$allocator@VclientIPC@@@std@@@std@@QAE@XZ 00452df0 f i slink.obj
 0001:00051e20       ??1?$map@IPAVfabianServer@@U?$less@I@std@@V?$allocator@U?$pair@$$CBIPAVfabianServer@@@std@@@3@@std@@QAE@XZ 00452e20 f i slink.obj
 0001:00051e40       ??1?$pair@V?$_Tree_const_iterator@V?$_Tree_val@U?$_Tree_simple_types@VQString@@@std@@@std@@@std@@_N@std@@QAE@XZ 00452e40 f i slink.obj
 0001:00051e60       ??1?$pair@V?$_Tree_const_iterator@V?$_Tree_val@U?$_Tree_simple_types@VpollCommand@@@std@@@std@@@std@@V12@@std@@QAE@XZ 00452e60 f i slink.obj
 0001:00051e90       ??1?$pair@V?$_Tree_const_iterator@V?$_Tree_val@U?$_Tree_simple_types@VpollCommand@@@std@@@std@@@std@@_N@std@@QAE@XZ 00452e90 f i slink.obj
 0001:00051eb0       ??1?$pair@V?$_Tree_iterator@V?$_Tree_val@U?$_Tree_simple_types@U?$pair@$$CBIPAVfabianServer@@@std@@@std@@@std@@@std@@_N@std@@QAE@XZ 00452eb0 f i slink.obj
 0001:00051ed0       ??1?$queue@VpollCommand@@V?$deque@VpollCommand@@V?$allocator@VpollCommand@@@std@@@std@@@std@@QAE@XZ 00452ed0 f i slink.obj
 0001:00051ef0       ??1?$set@VQString@@U?$less@VQString@@@std@@V?$allocator@VQString@@@3@@std@@QAE@XZ 00452ef0 f i slink.obj
 0001:00051f10       ??1?$set@VdbEntry@@U?$less@VdbEntry@@@std@@V?$allocator@VdbEntry@@@3@@std@@QAE@XZ 00452f10 f i slink.obj
 0001:00051f30       ??1?$set@VpollCommand@@U?$less@VpollCommand@@@std@@V?$allocator@VpollCommand@@@3@@std@@QAE@XZ 00452f30 f i slink.obj
 0001:00051f50       ??8?$_List_const_iterator@V?$_List_val@U?$_List_simple_types@PAVuser@@@std@@@std@@@std@@QBE_NABV01@@Z 00452f50 f i slink.obj
 0001:00052040       ??8?$_List_const_iterator@V?$_List_val@U?$_List_simple_types@VclientIPC@@@std@@@std@@@std@@QBE_NABV01@@Z 00453040 f i slink.obj
 0001:00052130       ??8?$_Tree_const_iterator@V?$_Tree_val@U?$_Tree_simple_types@U?$pair@$$CBIPAVfabianServer@@@std@@@std@@@std@@@std@@QBE_NABV01@@Z 00453130 f i slink.obj
 0001:00052220       ??8?$_Tree_const_iterator@V?$_Tree_val@U?$_Tree_simple_types@VpollCommand@@@std@@@std@@@std@@QBE_NABV01@@Z 00453220 f i slink.obj
 0001:00052310       ??9?$_List_const_iterator@V?$_List_val@U?$_List_simple_types@PAVuser@@@std@@@std@@@std@@QBE_NABV01@@Z 00453310 f i slink.obj
 0001:00052360       ??9?$_List_const_iterator@V?$_List_val@U?$_List_simple_types@VclientIPC@@@std@@@std@@@std@@QBE_NABV01@@Z 00453360 f i slink.obj
 0001:000523b0       ??9?$_Tree_const_iterator@V?$_Tree_val@U?$_Tree_simple_types@U?$pair@$$CBIPAVfabianServer@@@std@@@std@@@std@@@std@@QBE_NABV01@@Z 004533b0 f i slink.obj
 0001:00052400       ??9?$_Tree_const_iterator@V?$_Tree_val@U?$_Tree_simple_types@VdbEntry@@@std@@@std@@@std@@QBE_NABV01@@Z 00453400 f i slink.obj
 0001:00052450       ??9?$_Tree_const_iterator@V?$_Tree_val@U?$_Tree_simple_types@VpollCommand@@@std@@@std@@@std@@QBE_NABV01@@Z 00453450 f i slink.obj
 0001:000524a0       ??9const_iterator@?$QList@VQSslCipher@@@@QBE_NABV01@@Z 004534a0 f i slink.obj
 0001:000524e0       ??9iterator@?$QList@VQString@@@@QBE_NABV01@@Z 004534e0 f i slink.obj
 0001:00052520       ??C?$_List_unchecked_const_iterator@V?$_List_val@U?$_List_simple_types@VclientIPC@@@std@@@std@@U_Iterator_base12@2@@std@@QBEPBVclientIPC@@XZ 00453520 f i slink.obj
 0001:00052550       ??C?$_Tree_const_iterator@V?$_Tree_val@U?$_Tree_simple_types@U?$pair@$$CBIPAVfabianServer@@@std@@@std@@@std@@@std@@QBEPBU?$pair@$$CBIPAVfabianServer@@@1@XZ 00453550 f i slink.obj
 0001:00052580       ??C?$_Tree_const_iterator@V?$_Tree_val@U?$_Tree_simple_types@VdbEntry@@@std@@@std@@@std@@QBEPBVdbEntry@@XZ 00453580 f i slink.obj
 0001:000525b0       ??C?$_Tree_const_iterator@V?$_Tree_val@U?$_Tree_simple_types@VpollCommand@@@std@@@std@@@std@@QBEPBVpollCommand@@XZ 004535b0 f i slink.obj
 0001:000525e0       ??C?$_Tree_iterator@V?$_Tree_val@U?$_Tree_simple_types@U?$pair@$$CBIPAVfabianServer@@@std@@@std@@@std@@@std@@QBEPAU?$pair@$$CBIPAVfabianServer@@@1@XZ 004535e0 f i slink.obj
 0001:00052610       ??D?$_Deque_const_iterator@V?$_Deque_val@U?$_Deque_simple_types@VpollCommand@@@std@@@std@@@std@@QBEABVpollCommand@@XZ 00453610 f i slink.obj
 0001:00052730       ??D?$_Deque_iterator@V?$_Deque_val@U?$_Deque_simple_types@VpollCommand@@@std@@@std@@@std@@QBEAAVpollCommand@@XZ 00453730 f i slink.obj
 0001:00052750       ??D?$_List_const_iterator@V?$_List_val@U?$_List_simple_types@PAVuser@@@std@@@std@@@std@@QBEABQAVuser@@XZ 00453750 f i slink.obj
 0001:00052830       ??D?$_List_unchecked_const_iterator@V?$_List_val@U?$_List_simple_types@VclientIPC@@@std@@@std@@U_Iterator_base12@2@@std@@QBEABVclientIPC@@XZ 00453830 f i slink.obj
 0001:00052850       ??D?$_Tree_const_iterator@V?$_Tree_val@U?$_Tree_simple_types@U?$pair@$$CBIPAVfabianServer@@@std@@@std@@@std@@@std@@QBEABU?$pair@$$CBIPAVfabianServer@@@1@XZ 00453850 f i slink.obj
 0001:00052930       ??D?$_Tree_const_iterator@V?$_Tree_val@U?$_Tree_simple_types@VdbEntry@@@std@@@std@@@std@@QBEABVdbEntry@@XZ 00453930 f i slink.obj
 0001:00052a10       ??D?$_Tree_const_iterator@V?$_Tree_val@U?$_Tree_simple_types@VpollCommand@@@std@@@std@@@std@@QBEABVpollCommand@@XZ 00453a10 f i slink.obj
 0001:00052af0       ??D?$_Tree_iterator@V?$_Tree_val@U?$_Tree_simple_types@U?$pair@$$CBIPAVfabianServer@@@std@@@std@@@std@@@std@@QBEAAU?$pair@$$CBIPAVfabianServer@@@1@XZ 00453af0 f i slink.obj
 0001:00052b10       ??Dconst_iterator@?$QList@VQSslCipher@@@@QBEABVQSslCipher@@XZ 00453b10 f i slink.obj
 0001:00052b30       ??Diterator@?$QList@VQString@@@@QBEAAVQString@@XZ 00453b30 f i slink.obj
 0001:00052b50       ??E?$_List_const_iterator@V?$_List_val@U?$_List_simple_types@PAVuser@@@std@@@std@@@std@@QAE?AV01@H@Z 00453b50 f i slink.obj
 0001:00052c00       ??E?$_List_const_iterator@V?$_List_val@U?$_List_simple_types@PAVuser@@@std@@@std@@@std@@QAEAAV01@XZ 00453c00 f i slink.obj
 0001:00052cf0       ??E?$_List_const_iterator@V?$_List_val@U?$_List_simple_types@VclientIPC@@@std@@@std@@@std@@QAEAAV01@XZ 00453cf0 f i slink.obj
 0001:00052de0       ??E?$_Tree_const_iterator@V?$_Tree_val@U?$_Tree_simple_types@U?$pair@$$CBIPAVfabianServer@@@std@@@std@@@std@@@std@@QAE?AV01@H@Z 00453de0 f i slink.obj
 0001:00052e90       ??E?$_Tree_const_iterator@V?$_Tree_val@U?$_Tree_simple_types@U?$pair@$$CBIPAVfabianServer@@@std@@@std@@@std@@@std@@QAEAAV01@XZ 00453e90 f i slink.obj
 0001:00052f70       ??E?$_Tree_const_iterator@V?$_Tree_val@U?$_Tree_simple_types@VQString@@@std@@@std@@@std@@QAE?AV01@H@Z 00453f70 f i slink.obj
 0001:00053020       ??E?$_Tree_const_iterator@V?$_Tree_val@U?$_Tree_simple_types@VdbEntry@@@std@@@std@@@std@@QAE?AV01@H@Z 00454020 f i slink.obj
 0001:000530d0       ??E?$_Tree_const_iterator@V?$_Tree_val@U?$_Tree_simple_types@VdbEntry@@@std@@@std@@@std@@QAEAAV01@XZ 004540d0 f i slink.obj
 0001:000531b0       ??E?$_Tree_const_iterator@V?$_Tree_val@U?$_Tree_simple_types@VpollCommand@@@std@@@std@@@std@@QAE?AV01@H@Z 004541b0 f i slink.obj
 0001:00053260       ??E?$_Tree_const_iterator@V?$_Tree_val@U?$_Tree_simple_types@VpollCommand@@@std@@@std@@@std@@QAEAAV01@XZ 00454260 f i slink.obj
 0001:00053340       ??E?$_Tree_iterator@V?$_Tree_val@U?$_Tree_simple_types@U?$pair@$$CBIPAVfabianServer@@@std@@@std@@@std@@@std@@QAEAAV01@XZ 00454340 f i slink.obj
 0001:00053360       ??E?$_Tree_unchecked_const_iterator@V?$_Tree_val@U?$_Tree_simple_types@U?$pair@$$CBIPAVfabianServer@@@std@@@std@@@std@@U_Iterator_base12@2@@std@@QAEAAV01@XZ 00454360 f i slink.obj
 0001:00053450       ??E?$_Tree_unchecked_const_iterator@V?$_Tree_val@U?$_Tree_simple_types@VdbEntry@@@std@@@std@@U_Iterator_base12@2@@std@@QAEAAV01@XZ 00454450 f i slink.obj
 0001:00053540       ??E?$_Tree_unchecked_const_iterator@V?$_Tree_val@U?$_Tree_simple_types@VpollCommand@@@std@@@std@@U_Iterator_base12@2@@std@@QAEAAV01@XZ 00454540 f i slink.obj
 0001:00053630       ??Econst_iterator@?$QList@VQSslCipher@@@@QAEAAV01@XZ 00454630 f i slink.obj
 0001:00053660       ??Eiterator@?$QList@VQString@@@@QAEAAV01@XZ 00454660 f i slink.obj
 0001:00053690       ??F?$_Tree_const_iterator@V?$_Tree_val@U?$_Tree_simple_types@U?$pair@$$CBIPAVfabianServer@@@std@@@std@@@std@@@std@@QAEAAV01@XZ 00454690 f i slink.obj
 0001:000537f0       ??F?$_Tree_const_iterator@V?$_Tree_val@U?$_Tree_simple_types@VQString@@@std@@@std@@@std@@QAEAAV01@XZ 004547f0 f i slink.obj
 0001:00053950       ??F?$_Tree_const_iterator@V?$_Tree_val@U?$_Tree_simple_types@VpollCommand@@@std@@@std@@@std@@QAEAAV01@XZ 00454950 f i slink.obj
 0001:00053ab0       ??F?$_Tree_iterator@V?$_Tree_val@U?$_Tree_simple_types@U?$pair@$$CBIPAVfabianServer@@@std@@@std@@@std@@@std@@QAEAAV01@XZ 00454ab0 f i slink.obj
 0001:00053ad0       ??F?$_Tree_unchecked_const_iterator@V?$_Tree_val@U?$_Tree_simple_types@U?$pair@$$CBIPAVfabianServer@@@std@@@std@@@std@@U_Iterator_base12@2@@std@@QAEAAV01@XZ 00454ad0 f i slink.obj
 0001:00053c00       ??F?$_Tree_unchecked_const_iterator@V?$_Tree_val@U?$_Tree_simple_types@VQString@@@std@@@std@@U_Iterator_base12@2@@std@@QAEAAV01@XZ 00454c00 f i slink.obj
 0001:00053d30       ??F?$_Tree_unchecked_const_iterator@V?$_Tree_val@U?$_Tree_simple_types@VpollCommand@@@std@@@std@@U_Iterator_base12@2@@std@@QAEAAV01@XZ 00454d30 f i slink.obj
 0001:00053e60       ??MpollCommand@@QBE_NABV0@@Z 00454e60 f i slink.obj
 0001:00053ef0       ??R?$less@VQString@@@std@@QBE_NABVQString@@0@Z 00454ef0 f i slink.obj
 0001:00053f20       ??R?$less@VpollCommand@@@std@@QBE_NABVpollCommand@@0@Z 00454f20 f i slink.obj
 0001:00053f3f       ??_EQGroupBox@@W7AEPAXI@Z  00454f3f f i slink.obj
 0001:00053f49       ??_EQHBoxLayout@@W7AEPAXI@Z 00454f49 f i slink.obj
 0001:00053f53       ??_EQListWidget@@W7AEPAXI@Z 00454f53 f i slink.obj
 0001:00053f5d       ??_EQMenu@@W7AEPAXI@Z      00454f5d f i slink.obj
 0001:00053f67       ??_EQMenuBar@@W7AEPAXI@Z   00454f67 f i slink.obj
 0001:00053f71       ??_EQPushButton@@W7AEPAXI@Z 00454f71 f i slink.obj
 0001:00053f7b       ??_EQSplitter@@W7AEPAXI@Z  00454f7b f i slink.obj
 0001:00053f85       ??_EQStatusBar@@W7AEPAXI@Z 00454f85 f i slink.obj
 0001:00053f8f       ??_EQTextEdit@@W7AEPAXI@Z  00454f8f f i slink.obj
 0001:00053f99       ??_EQToolBar@@W7AEPAXI@Z   00454f99 f i slink.obj
 0001:00053fa3       ??_EQTreeWidget@@W7AEPAXI@Z 00454fa3 f i slink.obj
 0001:00053fad       ??_EQVBoxLayout@@W7AEPAXI@Z 00454fad f i slink.obj
 0001:00053fb7       ??_EQWidget@@W7AEPAXI@Z    00454fb7 f i slink.obj
 0001:00053fc1       ??_Eslink@@W7AEPAXI@Z      00454fc1 f i slink.obj
 0001:00053fcb       ??_Eslink@@WCA@AEPAXI@Z    00454fcb f i slink.obj
 0001:00053fe0       ??_GQAction@@UAEPAXI@Z     00454fe0 f i slink.obj
 0001:00053fe0       ??_EQAction@@UAEPAXI@Z     00454fe0 f i slink.obj
 0001:00054020       ??_EQGroupBox@@UAEPAXI@Z   00455020 f i slink.obj
 0001:00054020       ??_GQGroupBox@@UAEPAXI@Z   00455020 f i slink.obj
 0001:00054060       ??_EQHBoxLayout@@UAEPAXI@Z 00455060 f i slink.obj
 0001:00054060       ??_GQHBoxLayout@@UAEPAXI@Z 00455060 f i slink.obj
 0001:000540a0       ??_GQListWidget@@UAEPAXI@Z 004550a0 f i slink.obj
 0001:000540a0       ??_EQListWidget@@UAEPAXI@Z 004550a0 f i slink.obj
 0001:000540e0       ??_GQListWidgetItem@@UAEPAXI@Z 004550e0 f i slink.obj
 0001:000540e0       ??_EQListWidgetItem@@UAEPAXI@Z 004550e0 f i slink.obj
 0001:00054120       ??_GQMenu@@UAEPAXI@Z       00455120 f i slink.obj
 0001:00054120       ??_EQMenu@@UAEPAXI@Z       00455120 f i slink.obj
 0001:00054160       ??_GQMenuBar@@UAEPAXI@Z    00455160 f i slink.obj
 0001:00054160       ??_EQMenuBar@@UAEPAXI@Z    00455160 f i slink.obj
 0001:000541a0       ??_EQPushButton@@UAEPAXI@Z 004551a0 f i slink.obj
 0001:000541a0       ??_GQPushButton@@UAEPAXI@Z 004551a0 f i slink.obj
 0001:000541e0       ??_EQSpacerItem@@UAEPAXI@Z 004551e0 f i slink.obj
 0001:000541e0       ??_GQSpacerItem@@UAEPAXI@Z 004551e0 f i slink.obj
 0001:00054220       ??_GQSplitter@@UAEPAXI@Z   00455220 f i slink.obj
 0001:00054220       ??_EQSplitter@@UAEPAXI@Z   00455220 f i slink.obj
 0001:00054260       ??_GQSslCipher@@QAEPAXI@Z  00455260 f i slink.obj
 0001:000542a0       ??_GQStatusBar@@UAEPAXI@Z  004552a0 f i slink.obj
 0001:000542a0       ??_EQStatusBar@@UAEPAXI@Z  004552a0 f i slink.obj
 0001:000542e0       ??_GQTextEdit@@UAEPAXI@Z   004552e0 f i slink.obj
 0001:000542e0       ??_EQTextEdit@@UAEPAXI@Z   004552e0 f i slink.obj
 0001:00054320       ??_GQToolBar@@UAEPAXI@Z    00455320 f i slink.obj
 0001:00054320       ??_EQToolBar@@UAEPAXI@Z    00455320 f i slink.obj
 0001:00054360       ??_GQTreeWidget@@UAEPAXI@Z 00455360 f i slink.obj
 0001:00054360       ??_EQTreeWidget@@UAEPAXI@Z 00455360 f i slink.obj
 0001:000543a0       ??_GQVBoxLayout@@UAEPAXI@Z 004553a0 f i slink.obj
 0001:000543a0       ??_EQVBoxLayout@@UAEPAXI@Z 004553a0 f i slink.obj
 0001:000543e0       ??_GQWidget@@UAEPAXI@Z     004553e0 f i slink.obj
 0001:000543e0       ??_EQWidget@@UAEPAXI@Z     004553e0 f i slink.obj
 0001:00054420       ??_Gslink@@UAEPAXI@Z       00455420 f i slink.obj
 0001:00054420       ??_Eslink@@UAEPAXI@Z       00455420 f i slink.obj
 0001:00054460       ?_Alloc_proxy@?$_Deque_alloc@$0A@U?$_Deque_base_types@VpollCommand@@V?$allocator@VpollCommand@@@std@@@std@@@std@@QAEXXZ 00455460 f i slink.obj
 0001:000544c0       ?_Alloc_proxy@?$_List_alloc@$0A@U?$_List_base_types@PAVuser@@V?$allocator@PAVuser@@@std@@@std@@@std@@QAEXXZ 004554c0 f i slink.obj
 0001:00054520       ?_Alloc_proxy@?$_List_alloc@$0A@U?$_List_base_types@VclientIPC@@V?$allocator@VclientIPC@@@std@@@std@@@std@@QAEXXZ 00455520 f i slink.obj
 0001:00054580       ?_Alloc_proxy@?$_Tree_alloc@$0A@U?$_Tree_base_types@U?$pair@$$CBIPAVfabianServer@@@std@@V?$allocator@U?$pair@$$CBIPAVfabianServer@@@std@@@2@@std@@@std@@QAEXXZ 00455580 f i slink.obj
 0001:000545f0       ?_Alloc_proxy@?$_Tree_alloc@$0A@U?$_Tree_base_types@VQString@@V?$allocator@VQString@@@std@@@std@@@std@@QAEXXZ 004555f0 f i slink.obj
 0001:00054660       ?_Alloc_proxy@?$_Tree_alloc@$0A@U?$_Tree_base_types@VdbEntry@@V?$allocator@VdbEntry@@@std@@@std@@@std@@QAEXXZ 00455660 f i slink.obj
 0001:000546d0       ?_Alloc_proxy@?$_Tree_alloc@$0A@U?$_Tree_base_types@VpollCommand@@V?$allocator@VpollCommand@@@std@@@std@@@std@@QAEXXZ 004556d0 f i slink.obj
 0001:00054740       ?_Buyheadnode@?$_List_alloc@$0A@U?$_List_base_types@PAVuser@@V?$allocator@PAVuser@@@std@@@std@@@std@@QAEPAU?$_List_node@PAVuser@@PAX@2@XZ 00455740 f i slink.obj
 0001:00054760       ?_Buyheadnode@?$_List_alloc@$0A@U?$_List_base_types@VclientIPC@@V?$allocator@VclientIPC@@@std@@@std@@@std@@QAEPAU?$_List_node@VclientIPC@@PAX@2@XZ 00455760 f i slink.obj
 0001:00054780       ?_Buyheadnode@?$_Tree_alloc@$0A@U?$_Tree_base_types@U?$pair@$$CBIPAVfabianServer@@@std@@V?$allocator@U?$pair@$$CBIPAVfabianServer@@@std@@@2@@std@@@std@@QAEPAU?$_Tree_node@U?$pair@$$CBIPAVfabianServer@@@std@@PAX@2@XZ 00455780 f i slink.obj
 0001:00054940       ?_Buyheadnode@?$_Tree_alloc@$0A@U?$_Tree_base_types@VQString@@V?$allocator@VQString@@@std@@@std@@@std@@QAEPAU?$_Tree_node@VQString@@PAX@2@XZ 00455940 f i slink.obj
 0001:00054b00       ?_Buyheadnode@?$_Tree_alloc@$0A@U?$_Tree_base_types@VdbEntry@@V?$allocator@VdbEntry@@@std@@@std@@@std@@QAEPAU?$_Tree_node@VdbEntry@@PAX@2@XZ 00455b00 f i slink.obj
 0001:00054cc0       ?_Buyheadnode@?$_Tree_alloc@$0A@U?$_Tree_base_types@VpollCommand@@V?$allocator@VpollCommand@@@std@@@std@@@std@@QAEPAU?$_Tree_node@VpollCommand@@PAX@2@XZ 00455cc0 f i slink.obj
 0001:00054e80       ?_Buynode0@?$_List_alloc@$0A@U?$_List_base_types@PAVuser@@V?$allocator@PAVuser@@@std@@@std@@@std@@QAEPAU?$_List_node@PAVuser@@PAX@2@PAU32@0@Z 00455e80 f i slink.obj
 0001:00054ff0       ?_Buynode0@?$_Tree_buy@U?$pair@$$CBIPAVfabianServer@@@std@@V?$allocator@U?$pair@$$CBIPAVfabianServer@@@std@@@2@@std@@QAEPAU?$_Tree_node@U?$pair@$$CBIPAVfabianServer@@@std@@PAX@2@XZ 00455ff0 f i slink.obj
 0001:00055190       ?_Buynode0@?$_Tree_buy@VQString@@V?$allocator@VQString@@@std@@@std@@QAEPAU?$_Tree_node@VQString@@PAX@2@XZ 00456190 f i slink.obj
 0001:00055330       ?_Buynode0@?$_Tree_buy@VpollCommand@@V?$allocator@VpollCommand@@@std@@@std@@QAEPAU?$_Tree_node@VpollCommand@@PAX@2@XZ 00456330 f i slink.obj
 0001:000554d0       ?_Color@?$_Tree_val@U?$_Tree_simple_types@U?$pair@$$CBIPAVfabianServer@@@std@@@std@@@std@@SAAADPAU?$_Tree_node@U?$pair@$$CBIPAVfabianServer@@@std@@PAX@2@@Z 004564d0 f i slink.obj
 0001:000554e0       ?_Color@?$_Tree_val@U?$_Tree_simple_types@VQString@@@std@@@std@@SAAADPAU?$_Tree_node@VQString@@PAX@2@@Z 004564e0 f i slink.obj
 0001:000554f0       ?_Color@?$_Tree_val@U?$_Tree_simple_types@VpollCommand@@@std@@@std@@SAAADPAU?$_Tree_node@VpollCommand@@PAX@2@@Z 004564f0 f i slink.obj
 0001:00055500       ?_Destroy_if_not_nil@?$_Tree@V?$_Tmap_traits@IPAVfabianServer@@U?$less@I@std@@V?$allocator@U?$pair@$$CBIPAVfabianServer@@@std@@@3@$0A@@std@@@std@@IAEXPAU?$_Tree_node@U?$pair@$$CBIPAVfabianServer@@@std@@PAX@2@@Z 00456500 f i slink.obj
 0001:00055570       ?_Destroy_if_not_nil@?$_Tree@V?$_Tset_traits@VQString@@U?$less@VQString@@@std@@V?$allocator@VQString@@@3@$0A@@std@@@std@@IAEXU_Nil@2@@Z 00456570 f i slink.obj
 0001:00055580       ?_Destroy_if_not_nil@?$_Tree@V?$_Tset_traits@VpollCommand@@U?$less@VpollCommand@@@std@@V?$allocator@VpollCommand@@@3@$0A@@std@@@std@@IAEXU_Nil@2@@Z 00456580 f i slink.obj
 0001:00055590       ?_Eqrange@?$_Tree@V?$_Tset_traits@VpollCommand@@U?$less@VpollCommand@@@std@@V?$allocator@VpollCommand@@@3@$0A@@std@@@std@@IAE?AU?$pair@V?$_Tree_const_iterator@V?$_Tree_val@U?$_Tree_simple_types@VpollCommand@@@std@@@std@@@std@@V12@@2@ABVpollCommand@@@Z 00456590 f i slink.obj
 0001:00055870       ?_Erase@?$_Tree@V?$_Tmap_traits@IPAVfabianServer@@U?$less@I@std@@V?$allocator@U?$pair@$$CBIPAVfabianServer@@@std@@@3@$0A@@std@@@std@@IAEXPAU?$_Tree_node@U?$pair@$$CBIPAVfabianServer@@@std@@PAX@2@@Z 00456870 f i slink.obj
 0001:00055940       ?_Erase@?$_Tree@V?$_Tset_traits@VQString@@U?$less@VQString@@@std@@V?$allocator@VQString@@@3@$0A@@std@@@std@@IAEXPAU?$_Tree_node@VQString@@PAX@2@@Z 00456940 f i slink.obj
 0001:00055a10       ?_Erase@?$_Tree@V?$_Tset_traits@VdbEntry@@U?$less@VdbEntry@@@std@@V?$allocator@VdbEntry@@@3@$0A@@std@@@std@@IAEXPAU?$_Tree_node@VdbEntry@@PAX@2@@Z 00456a10 f i slink.obj
 0001:00055ae0       ?_Erase@?$_Tree@V?$_Tset_traits@VpollCommand@@U?$less@VpollCommand@@@std@@V?$allocator@VpollCommand@@@3@$0A@@std@@@std@@IAEXPAU?$_Tree_node@VpollCommand@@PAX@2@@Z 00456ae0 f i slink.obj
 0001:00055bb0       ?_Free_proxy@?$_Deque_alloc@$0A@U?$_Deque_base_types@VpollCommand@@V?$allocator@VpollCommand@@@std@@@std@@@std@@QAEXXZ 00456bb0 f i slink.obj
 0001:00055c10       ?_Free_proxy@?$_List_alloc@$0A@U?$_List_base_types@PAVuser@@V?$allocator@PAVuser@@@std@@@std@@@std@@QAEXXZ 00456c10 f i slink.obj
 0001:00055c70       ?_Free_proxy@?$_List_alloc@$0A@U?$_List_base_types@VclientIPC@@V?$allocator@VclientIPC@@@std@@@std@@@std@@QAEXXZ 00456c70 f i slink.obj
 0001:00055cd0       ?_Free_proxy@?$_Tree_alloc@$0A@U?$_Tree_base_types@U?$pair@$$CBIPAVfabianServer@@@std@@V?$allocator@U?$pair@$$CBIPAVfabianServer@@@std@@@2@@std@@@std@@QAEXXZ 00456cd0 f i slink.obj
 0001:00055d40       ?_Free_proxy@?$_Tree_alloc@$0A@U?$_Tree_base_types@VQString@@V?$allocator@VQString@@@std@@@std@@@std@@QAEXXZ 00456d40 f i slink.obj
 0001:00055db0       ?_Free_proxy@?$_Tree_alloc@$0A@U?$_Tree_base_types@VdbEntry@@V?$allocator@VdbEntry@@@std@@@std@@@std@@QAEXXZ 00456db0 f i slink.obj
 0001:00055e20       ?_Free_proxy@?$_Tree_alloc@$0A@U?$_Tree_base_types@VpollCommand@@V?$allocator@VpollCommand@@@std@@@std@@@std@@QAEXXZ 00456e20 f i slink.obj
 0001:00055e90       ?_Freeheadnode@?$_List_alloc@$0A@U?$_List_base_types@PAVuser@@V?$allocator@PAVuser@@@std@@@std@@@std@@QAEXPAU?$_List_node@PAVuser@@PAX@2@@Z 00456e90 f i slink.obj
 0001:00055f30       ?_Freeheadnode@?$_List_alloc@$0A@U?$_List_base_types@VclientIPC@@V?$allocator@VclientIPC@@@std@@@std@@@std@@QAEXPAU?$_List_node@VclientIPC@@PAX@2@@Z 00456f30 f i slink.obj
 0001:00055fd0       ?_Freeheadnode@?$_Tree_alloc@$0A@U?$_Tree_base_types@U?$pair@$$CBIPAVfabianServer@@@std@@V?$allocator@U?$pair@$$CBIPAVfabianServer@@@std@@@2@@std@@@std@@QAEXPAU?$_Tree_node@U?$pair@$$CBIPAVfabianServer@@@std@@PAX@2@@Z 00456fd0 f i slink.obj
 0001:000560a0       ?_Freeheadnode@?$_Tree_alloc@$0A@U?$_Tree_base_types@VQString@@V?$allocator@VQString@@@std@@@std@@@std@@QAEXPAU?$_Tree_node@VQString@@PAX@2@@Z 004570a0 f i slink.obj
 0001:00056170       ?_Freeheadnode@?$_Tree_alloc@$0A@U?$_Tree_base_types@VdbEntry@@V?$allocator@VdbEntry@@@std@@@std@@@std@@QAEXPAU?$_Tree_node@VdbEntry@@PAX@2@@Z 00457170 f i slink.obj
 0001:00056240       ?_Freeheadnode@?$_Tree_alloc@$0A@U?$_Tree_base_types@VpollCommand@@V?$allocator@VpollCommand@@@std@@@std@@@std@@QAEXPAU?$_Tree_node@VpollCommand@@PAX@2@@Z 00457240 f i slink.obj
 0001:00056310       ?_Freenode0@?$_Tree_buy@U?$pair@$$CBIPAVfabianServer@@@std@@V?$allocator@U?$pair@$$CBIPAVfabianServer@@@std@@@2@@std@@QAEXPAU?$_Tree_node@U?$pair@$$CBIPAVfabianServer@@@std@@PAX@2@@Z 00457310 f i slink.obj
 0001:000563e0       ?_Freenode0@?$_Tree_buy@VQString@@V?$allocator@VQString@@@std@@@std@@QAEXPAU?$_Tree_node@VQString@@PAX@2@@Z 004573e0 f i slink.obj
 0001:000564b0       ?_Freenode0@?$_Tree_buy@VpollCommand@@V?$allocator@VpollCommand@@@std@@@std@@QAEXPAU?$_Tree_node@VpollCommand@@PAX@2@@Z 004574b0 f i slink.obj
 0001:00056580       ?_Freenode@?$_List_buy@PAVuser@@V?$allocator@PAVuser@@@std@@@std@@QAEXPAU?$_List_node@PAVuser@@PAX@2@@Z 00457580 f i slink.obj
 0001:00056650       ?_Freenode@?$_List_buy@VclientIPC@@V?$allocator@VclientIPC@@@std@@@std@@QAEXPAU?$_List_node@VclientIPC@@PAX@2@@Z 00457650 f i slink.obj
 0001:00056720       ?_Getal@?$_Deque_alloc@$0A@U?$_Deque_base_types@VpollCommand@@V?$allocator@VpollCommand@@@std@@@std@@@std@@QBE?AU?$_Wrap_alloc@V?$allocator@VpollCommand@@@std@@@2@XZ 00457720 f i slink.obj
 0001:00056740       ?_Getal@?$_List_alloc@$0A@U?$_List_base_types@PAVuser@@V?$allocator@PAVuser@@@std@@@std@@@std@@QBE?AU?$_Wrap_alloc@V?$allocator@U?$_List_node@PAVuser@@PAX@std@@@std@@@2@XZ 00457740 f i slink.obj
 0001:00056760       ?_Getal@?$_Tree_alloc@$0A@U?$_Tree_base_types@U?$pair@$$CBIPAVfabianServer@@@std@@V?$allocator@U?$pair@$$CBIPAVfabianServer@@@std@@@2@@std@@@std@@QBE?AU?$_Wrap_alloc@V?$allocator@U?$_Tree_node@U?$pair@$$CBIPAVfabianServer@@@std@@PAX@std@@@std@@@2@XZ 00457760 f i slink.obj
 0001:00056780       ?_Getal@?$_Tree_alloc@$0A@U?$_Tree_base_types@VQString@@V?$allocator@VQString@@@std@@@std@@@std@@QBE?AU?$_Wrap_alloc@V?$allocator@U?$_Tree_node@VQString@@PAX@std@@@std@@@2@XZ 00457780 f i slink.obj
 0001:000567a0       ?_Getal@?$_Tree_alloc@$0A@U?$_Tree_base_types@VpollCommand@@V?$allocator@VpollCommand@@@std@@@std@@@std@@QBE?AU?$_Wrap_alloc@V?$allocator@U?$_Tree_node@VpollCommand@@PAX@std@@@std@@@2@XZ 004577a0 f i slink.obj
 0001:000567c0       ?_Getblock@?$_Deque_val@U?$_Deque_simple_types@VpollCommand@@@std@@@std@@QBEII@Z 004577c0 f i slink.obj
 0001:000567e0       ?_Getcomp@?$_Tree_comp@$0A@V?$_Tmap_traits@IPAVfabianServer@@U?$less@I@std@@V?$allocator@U?$pair@$$CBIPAVfabianServer@@@std@@@3@$0A@@std@@@std@@QBE?AU?$less@I@2@XZ 004577e0 f i slink.obj
 0001:00056800       ?_Getcomp@?$_Tree_comp@$0A@V?$_Tset_traits@VQString@@U?$less@VQString@@@std@@V?$allocator@VQString@@@3@$0A@@std@@@std@@QBE?AU?$less@VQString@@@2@XZ 00457800 f i slink.obj
 0001:00056820       ?_Getcomp@?$_Tree_comp@$0A@V?$_Tset_traits@VpollCommand@@U?$less@VpollCommand@@@std@@V?$allocator@VpollCommand@@@3@$0A@@std@@@std@@QBE?AU?$less@VpollCommand@@@2@XZ 00457820 f i slink.obj
 0001:00056840       ?_Growmap@?$deque@VpollCommand@@V?$allocator@VpollCommand@@@std@@@std@@IAEXI@Z 00457840 f i slink.obj
 0001:00056ad0       ?_Isnil@?$_Tree_val@U?$_Tree_simple_types@U?$pair@$$CBIPAVfabianServer@@@std@@@std@@@std@@SAAADPAU?$_Tree_node@U?$pair@$$CBIPAVfabianServer@@@std@@PAX@2@@Z 00457ad0 f i slink.obj
 0001:00056ae0       ?_Isnil@?$_Tree_val@U?$_Tree_simple_types@VpollCommand@@@std@@@std@@SAAADPAU?$_Tree_node@VpollCommand@@PAX@2@@Z 00457ae0 f i slink.obj
 0001:00056af0       ?_Key@?$_Tree@V?$_Tmap_traits@IPAVfabianServer@@U?$less@I@std@@V?$allocator@U?$pair@$$CBIPAVfabianServer@@@std@@@3@$0A@@std@@@std@@IBEABIPAU?$_Tree_node@U?$pair@$$CBIPAVfabianServer@@@std@@PAX@2@@Z 00457af0 f i slink.obj
 0001:00056b20       ?_Key@?$_Tree@V?$_Tset_traits@VQString@@U?$less@VQString@@@std@@V?$allocator@VQString@@@3@$0A@@std@@@std@@IBEABVQString@@PAU?$_Tree_node@VQString@@PAX@2@@Z 00457b20 f i slink.obj
 0001:00056b50       ?_Key@?$_Tree@V?$_Tset_traits@VpollCommand@@U?$less@VpollCommand@@@std@@V?$allocator@VpollCommand@@@3@$0A@@std@@@std@@IBEABVpollCommand@@PAU?$_Tree_node@VpollCommand@@PAX@2@@Z 00457b50 f i slink.obj
 0001:00056b80       ?_Kfn@?$_Tree@V?$_Tmap_traits@IPAVfabianServer@@U?$less@I@std@@V?$allocator@U?$pair@$$CBIPAVfabianServer@@@std@@@3@$0A@@std@@@std@@IBEABIABU?$pair@$$CBIPAVfabianServer@@@2@@Z 00457b80 f i slink.obj
 0001:00056ba0       ?_Kfn@?$_Tree@V?$_Tset_traits@VQString@@U?$less@VQString@@@std@@V?$allocator@VQString@@@3@$0A@@std@@@std@@IBEABVQString@@ABV3@@Z 00457ba0 f i slink.obj
 0001:00056bc0       ?_Kfn@?$_Tree@V?$_Tset_traits@VpollCommand@@U?$less@VpollCommand@@@std@@V?$allocator@VpollCommand@@@3@$0A@@std@@@std@@IBEABVpollCommand@@ABV3@@Z 00457bc0 f i slink.obj
 0001:00056be0       ?_Kfn@?$_Tset_traits@VQString@@U?$less@VQString@@@std@@V?$allocator@VQString@@@3@$0A@@std@@SAABVQString@@ABV3@@Z 00457be0 f i slink.obj
 0001:00056bf0       ?_Kfn@?$_Tset_traits@VpollCommand@@U?$less@VpollCommand@@@std@@V?$allocator@VpollCommand@@@3@$0A@@std@@SAABVpollCommand@@ABV3@@Z 00457bf0 f i slink.obj
 0001:00056c00       ?_Lbound@?$_Tree@V?$_Tmap_traits@IPAVfabianServer@@U?$less@I@std@@V?$allocator@U?$pair@$$CBIPAVfabianServer@@@std@@@3@$0A@@std@@@std@@IAEPAU?$_Tree_node@U?$pair@$$CBIPAVfabianServer@@@std@@PAX@2@ABI@Z 00457c00 f i slink.obj
 0001:00056cd0       ?_Lbound@?$_Tree@V?$_Tset_traits@VpollCommand@@U?$less@VpollCommand@@@std@@V?$allocator@VpollCommand@@@3@$0A@@std@@@std@@IAEPAU?$_Tree_node@VpollCommand@@PAX@2@ABVpollCommand@@@Z 00457cd0 f i slink.obj
 0001:00056da0       ?_Left@?$_Tree_val@U?$_Tree_simple_types@U?$pair@$$CBIPAVfabianServer@@@std@@@std@@@std@@SAAAPAU?$_Tree_node@U?$pair@$$CBIPAVfabianServer@@@std@@PAX@2@PAU32@@Z 00457da0 f i slink.obj
 0001:00056db0       ?_Left@?$_Tree_val@U?$_Tree_simple_types@VpollCommand@@@std@@@std@@SAAAPAU?$_Tree_node@VpollCommand@@PAX@2@PAU32@@Z 00457db0 f i slink.obj
 0001:00056dc0       ?_Lmost@?$_Tree@V?$_Tmap_traits@IPAVfabianServer@@U?$less@I@std@@V?$allocator@U?$pair@$$CBIPAVfabianServer@@@std@@@3@$0A@@std@@@std@@IBEAAPAU?$_Tree_node@U?$pair@$$CBIPAVfabianServer@@@std@@PAX@2@XZ 00457dc0 f i slink.obj
 0001:00056de0       ?_Lmost@?$_Tree@V?$_Tset_traits@VpollCommand@@U?$less@VpollCommand@@@std@@V?$allocator@VpollCommand@@@3@$0A@@std@@@std@@IBEAAPAU?$_Tree_node@VpollCommand@@PAX@2@XZ 00457de0 f i slink.obj
 0001:00056e00       ?_Lrotate@?$_Tree@V?$_Tmap_traits@IPAVfabianServer@@U?$less@I@std@@V?$allocator@U?$pair@$$CBIPAVfabianServer@@@std@@@3@$0A@@std@@@std@@IAEXPAU?$_Tree_node@U?$pair@$$CBIPAVfabianServer@@@std@@PAX@2@@Z 00457e00 f i slink.obj
 0001:00056f80       ?_Lrotate@?$_Tree@V?$_Tset_traits@VQString@@U?$less@VQString@@@std@@V?$allocator@VQString@@@3@$0A@@std@@@std@@IAEXPAU?$_Tree_node@VQString@@PAX@2@@Z 00457f80 f i slink.obj
 0001:00057100       ?_Lrotate@?$_Tree@V?$_Tset_traits@VpollCommand@@U?$less@VpollCommand@@@std@@V?$allocator@VpollCommand@@@3@$0A@@std@@@std@@IAEXPAU?$_Tree_node@VpollCommand@@PAX@2@@Z 00458100 f i slink.obj
 0001:00057280       ?_Max@?$_Tree_val@U?$_Tree_simple_types@U?$pair@$$CBIPAVfabianServer@@@std@@@std@@@std@@SAPAU?$_Tree_node@U?$pair@$$CBIPAVfabianServer@@@std@@PAX@2@PAU32@@Z 00458280 f i slink.obj
 0001:000572d0       ?_Max@?$_Tree_val@U?$_Tree_simple_types@VQString@@@std@@@std@@SAPAU?$_Tree_node@VQString@@PAX@2@PAU32@@Z 004582d0 f i slink.obj
 0001:00057320       ?_Max@?$_Tree_val@U?$_Tree_simple_types@VpollCommand@@@std@@@std@@SAPAU?$_Tree_node@VpollCommand@@PAX@2@PAU32@@Z 00458320 f i slink.obj
 0001:00057370       ?_Min@?$_Tree_val@U?$_Tree_simple_types@U?$pair@$$CBIPAVfabianServer@@@std@@@std@@@std@@SAPAU?$_Tree_node@U?$pair@$$CBIPAVfabianServer@@@std@@PAX@2@PAU32@@Z 00458370 f i slink.obj
 0001:000573c0       ?_Min@?$_Tree_val@U?$_Tree_simple_types@VdbEntry@@@std@@@std@@SAPAU?$_Tree_node@VdbEntry@@PAX@2@PAU32@@Z 004583c0 f i slink.obj
 0001:00057410       ?_Min@?$_Tree_val@U?$_Tree_simple_types@VpollCommand@@@std@@@std@@SAPAU?$_Tree_node@VpollCommand@@PAX@2@PAU32@@Z 00458410 f i slink.obj
 0001:00057460       ?_Mynode@?$_Tree_unchecked_const_iterator@V?$_Tree_val@U?$_Tree_simple_types@U?$pair@$$CBIPAVfabianServer@@@std@@@std@@@std@@U_Iterator_base12@2@@std@@QBEPAU?$_Tree_node@U?$pair@$$CBIPAVfabianServer@@@std@@PAX@2@XZ 00458460 f i slink.obj
 0001:00057480       ?_Mynode@?$_Tree_unchecked_const_iterator@V?$_Tree_val@U?$_Tree_simple_types@VQString@@@std@@@std@@U_Iterator_base12@2@@std@@QBEPAU?$_Tree_node@VQString@@PAX@2@XZ 00458480 f i slink.obj
 0001:000574a0       ?_Mynode@?$_Tree_unchecked_const_iterator@V?$_Tree_val@U?$_Tree_simple_types@VpollCommand@@@std@@@std@@U_Iterator_base12@2@@std@@QBEPAU?$_Tree_node@VpollCommand@@PAX@2@XZ 004584a0 f i slink.obj
 0001:000574c0       ?_Myval@?$_List_val@U?$_List_simple_types@PAVuser@@@std@@@std@@SAAAPAVuser@@PAU?$_List_node@PAVuser@@PAX@2@@Z 004584c0 f i slink.obj
 0001:000574d0       ?_Myval@?$_Tree_val@U?$_Tree_simple_types@U?$pair@$$CBIPAVfabianServer@@@std@@@std@@@std@@SAAAU?$pair@$$CBIPAVfabianServer@@@2@PAU?$_Tree_node@U?$pair@$$CBIPAVfabianServer@@@std@@PAX@2@@Z 004584d0 f i slink.obj
 0001:000574e0       ?_Myval@?$_Tree_val@U?$_Tree_simple_types@VpollCommand@@@std@@@std@@SAAAVpollCommand@@PAU?$_Tree_node@VpollCommand@@PAX@2@@Z 004584e0 f i slink.obj
 0001:000574f0       ?_Nextnode@?$_List_val@U?$_List_simple_types@PAVuser@@@std@@@std@@SAAAPAU?$_List_node@PAVuser@@PAX@2@PAU32@@Z 004584f0 f i slink.obj
 0001:00057500       ?_Orphan_off@?$deque@VpollCommand@@V?$allocator@VpollCommand@@@std@@@std@@IBEXI@Z 00458500 f i slink.obj
 0001:00057640       ?_Orphan_ptr@?$_Tree@V?$_Tmap_traits@IPAVfabianServer@@U?$less@I@std@@V?$allocator@U?$pair@$$CBIPAVfabianServer@@@std@@@3@$0A@@std@@@std@@IBEXAAV12@PAU?$_Tree_node@U?$pair@$$CBIPAVfabianServer@@@std@@PAX@2@@Z 00458640 f i slink.obj
 0001:00057740       ?_Orphan_ptr@?$_Tree@V?$_Tset_traits@VQString@@U?$less@VQString@@@std@@V?$allocator@VQString@@@3@$0A@@std@@@std@@IBEXAAV12@PAU?$_Tree_node@VQString@@PAX@2@@Z 00458740 f i slink.obj
 0001:00057840       ?_Orphan_ptr@?$_Tree@V?$_Tset_traits@VdbEntry@@U?$less@VdbEntry@@@std@@V?$allocator@VdbEntry@@@3@$0A@@std@@@std@@IBEXAAV12@PAU?$_Tree_node@VdbEntry@@PAX@2@@Z 00458840 f i slink.obj
 0001:00057940       ?_Orphan_ptr@?$_Tree@V?$_Tset_traits@VpollCommand@@U?$less@VpollCommand@@@std@@V?$allocator@VpollCommand@@@3@$0A@@std@@@std@@IBEXAAV12@PAU?$_Tree_node@VpollCommand@@PAX@2@@Z 00458940 f i slink.obj
 0001:00057a40       ?_Orphan_ptr@?$list@PAVuser@@V?$allocator@PAVuser@@@std@@@std@@QBEXAAV12@PAU?$_List_node@PAVuser@@PAX@2@@Z 00458a40 f i slink.obj
 0001:00057b40       ?_Orphan_ptr@?$list@VclientIPC@@V?$allocator@VclientIPC@@@std@@@std@@QBEXAAV12@PAU?$_List_node@VclientIPC@@PAX@2@@Z 00458b40 f i slink.obj
 0001:00057c40       ?_Parent@?$_Tree_val@U?$_Tree_simple_types@U?$pair@$$CBIPAVfabianServer@@@std@@@std@@@std@@SAAAPAU?$_Tree_node@U?$pair@$$CBIPAVfabianServer@@@std@@PAX@2@PAU32@@Z 00458c40 f i slink.obj
 0001:00057c50       ?_Parent@?$_Tree_val@U?$_Tree_simple_types@VpollCommand@@@std@@@std@@SAAAPAU?$_Tree_node@VpollCommand@@PAX@2@PAU32@@Z 00458c50 f i slink.obj
 0001:00057c60       ?_Prevnode@?$_List_val@U?$_List_simple_types@PAVuser@@@std@@@std@@SAAAPAU?$_List_node@PAVuser@@PAX@2@PAU32@@Z 00458c60 f i slink.obj
 0001:00057c70       ?_Right@?$_Tree_val@U?$_Tree_simple_types@U?$pair@$$CBIPAVfabianServer@@@std@@@std@@@std@@SAAAPAU?$_Tree_node@U?$pair@$$CBIPAVfabianServer@@@std@@PAX@2@PAU32@@Z 00458c70 f i slink.obj
 0001:00057c80       ?_Right@?$_Tree_val@U?$_Tree_simple_types@VpollCommand@@@std@@@std@@SAAAPAU?$_Tree_node@VpollCommand@@PAX@2@PAU32@@Z 00458c80 f i slink.obj
 0001:00057c90       ?_Rmost@?$_Tree@V?$_Tmap_traits@IPAVfabianServer@@U?$less@I@std@@V?$allocator@U?$pair@$$CBIPAVfabianServer@@@std@@@3@$0A@@std@@@std@@IBEAAPAU?$_Tree_node@U?$pair@$$CBIPAVfabianServer@@@std@@PAX@2@XZ 00458c90 f i slink.obj
 0001:00057cb0       ?_Rmost@?$_Tree@V?$_Tset_traits@VQString@@U?$less@VQString@@@std@@V?$allocator@VQString@@@3@$0A@@std@@@std@@IBEAAPAU?$_Tree_node@VQString@@PAX@2@XZ 00458cb0 f i slink.obj
 0001:00057cd0       ?_Rmost@?$_Tree@V?$_Tset_traits@VpollCommand@@U?$less@VpollCommand@@@std@@V?$allocator@VpollCommand@@@3@$0A@@std@@@std@@IBEAAPAU?$_Tree_node@VpollCommand@@PAX@2@XZ 00458cd0 f i slink.obj
 0001:00057cf0       ?_Root@?$_Tree@V?$_Tmap_traits@IPAVfabianServer@@U?$less@I@std@@V?$allocator@U?$pair@$$CBIPAVfabianServer@@@std@@@3@$0A@@std@@@std@@IBEAAPAU?$_Tree_node@U?$pair@$$CBIPAVfabianServer@@@std@@PAX@2@XZ 00458cf0 f i slink.obj
 0001:00057d10       ?_Root@?$_Tree@V?$_Tset_traits@VQString@@U?$less@VQString@@@std@@V?$allocator@VQString@@@3@$0A@@std@@@std@@IBEAAPAU?$_Tree_node@VQString@@PAX@2@XZ 00458d10 f i slink.obj
 0001:00057d30       ?_Root@?$_Tree@V?$_Tset_traits@VpollCommand@@U?$less@VpollCommand@@@std@@V?$allocator@VpollCommand@@@3@$0A@@std@@@std@@IBEAAPAU?$_Tree_node@VpollCommand@@PAX@2@XZ 00458d30 f i slink.obj
 0001:00057d50       ?_Rrotate@?$_Tree@V?$_Tmap_traits@IPAVfabianServer@@U?$less@I@std@@V?$allocator@U?$pair@$$CBIPAVfabianServer@@@std@@@3@$0A@@std@@@std@@IAEXPAU?$_Tree_node@U?$pair@$$CBIPAVfabianServer@@@std@@PAX@2@@Z 00458d50 f i slink.obj
 0001:00057ed0       ?_Rrotate@?$_Tree@V?$_Tset_traits@VQString@@U?$less@VQString@@@std@@V?$allocator@VQString@@@3@$0A@@std@@@std@@IAEXPAU?$_Tree_node@VQString@@PAX@2@@Z 00458ed0 f i slink.obj
 0001:00058050       ?_Rrotate@?$_Tree@V?$_Tset_traits@VpollCommand@@U?$less@VpollCommand@@@std@@V?$allocator@VpollCommand@@@3@$0A@@std@@@std@@IAEXPAU?$_Tree_node@VpollCommand@@PAX@2@@Z 00459050 f i slink.obj
 0001:000581d0       ?_Setcont@?$_Deque_const_iterator@V?$_Deque_val@U?$_Deque_simple_types@VpollCommand@@@std@@@std@@@std@@QAEXPBV?$_Deque_val@U?$_Deque_simple_types@VpollCommand@@@std@@@2@@Z 004591d0 f i slink.obj
 0001:000581f0       ?_Tidy@?$_Tree@V?$_Tmap_traits@IPAVfabianServer@@U?$less@I@std@@V?$allocator@U?$pair@$$CBIPAVfabianServer@@@std@@@3@$0A@@std@@@std@@IAEXXZ 004591f0 f i slink.obj
 0001:00058300       ?_Tidy@?$_Tree@V?$_Tset_traits@VQString@@U?$less@VQString@@@std@@V?$allocator@VQString@@@3@$0A@@std@@@std@@IAEXXZ 00459300 f i slink.obj
 0001:00058360       ?_Tidy@?$_Tree@V?$_Tset_traits@VdbEntry@@U?$less@VdbEntry@@@std@@V?$allocator@VdbEntry@@@3@$0A@@std@@@std@@IAEXXZ 00459360 f i slink.obj
 0001:000583c0       ?_Tidy@?$_Tree@V?$_Tset_traits@VpollCommand@@U?$less@VpollCommand@@@std@@V?$allocator@VpollCommand@@@3@$0A@@std@@@std@@IAEXXZ 004593c0 f i slink.obj
 0001:00058420       ?_Tidy@?$deque@VpollCommand@@V?$allocator@VpollCommand@@@std@@@std@@IAEXXZ 00459420 f i slink.obj
 0001:00058530       ?_Tidy@?$list@PAVuser@@V?$allocator@PAVuser@@@std@@@std@@QAEXXZ 00459530 f i slink.obj
 0001:00058550       ?_Tidy@?$list@VclientIPC@@V?$allocator@VclientIPC@@@std@@@std@@QAEXXZ 00459550 f i slink.obj
 0001:00058570       ?_Xlen@?$deque@VpollCommand@@V?$allocator@VpollCommand@@@std@@@std@@IBEXXZ 00459570 f i slink.obj
 0001:00058590       ?allocate@?$_Wrap_alloc@V?$allocator@PAVpollCommand@@@std@@@std@@QAEPAPAVpollCommand@@I@Z 00459590 f i slink.obj
 0001:000585b0       ?allocate@?$_Wrap_alloc@V?$allocator@U?$_List_node@PAVuser@@PAX@std@@@std@@@std@@QAEPAU?$_List_node@PAVuser@@PAX@2@I@Z 004595b0 f i slink.obj
 0001:000585d0       ?allocate@?$_Wrap_alloc@V?$allocator@U?$_Tree_node@U?$pair@$$CBIPAVfabianServer@@@std@@PAX@std@@@std@@@std@@QAEPAU?$_Tree_node@U?$pair@$$CBIPAVfabianServer@@@std@@PAX@2@I@Z 004595d0 f i slink.obj
 0001:000585f0       ?allocate@?$_Wrap_alloc@V?$allocator@U?$_Tree_node@VQString@@PAX@std@@@std@@@std@@QAEPAU?$_Tree_node@VQString@@PAX@2@I@Z 004595f0 f i slink.obj
 0001:00058610       ?allocate@?$_Wrap_alloc@V?$allocator@U?$_Tree_node@VpollCommand@@PAX@std@@@std@@@std@@QAEPAU?$_Tree_node@VpollCommand@@PAX@2@I@Z 00459610 f i slink.obj
 0001:00058630       ?allocate@?$_Wrap_alloc@V?$allocator@VpollCommand@@@std@@@std@@QAEPAVpollCommand@@I@Z 00459630 f i slink.obj
 0001:00058650       ?allocate@?$allocator@PAVpollCommand@@@std@@QAEPAPAVpollCommand@@I@Z 00459650 f i slink.obj
 0001:00058680       ?allocate@?$allocator@U?$_List_node@PAVuser@@PAX@std@@@std@@QAEPAU?$_List_node@PAVuser@@PAX@2@I@Z 00459680 f i slink.obj
 0001:000586b0       ?allocate@?$allocator@U?$_Tree_node@U?$pair@$$CBIPAVfabianServer@@@std@@PAX@std@@@std@@QAEPAU?$_Tree_node@U?$pair@$$CBIPAVfabianServer@@@std@@PAX@2@I@Z 004596b0 f i slink.obj
 0001:000586e0       ?allocate@?$allocator@U?$_Tree_node@VQString@@PAX@std@@@std@@QAEPAU?$_Tree_node@VQString@@PAX@2@I@Z 004596e0 f i slink.obj
 0001:00058710       ?allocate@?$allocator@U?$_Tree_node@VpollCommand@@PAX@std@@@std@@QAEPAU?$_Tree_node@VpollCommand@@PAX@2@I@Z 00459710 f i slink.obj
 0001:00058740       ?allocate@?$allocator@VpollCommand@@@std@@QAEPAVpollCommand@@I@Z 00459740 f i slink.obj
 0001:00058770       ?append@?$QList@VQSslCipher@@@@QAEXABVQSslCipher@@@Z 00459770 f i slink.obj
 0001:00058940       ?begin@?$QList@VQSslCipher@@@@QAE?AViterator@1@XZ 00459940 f i slink.obj
 0001:00058980       ?begin@?$QList@VQString@@@@QAE?AViterator@1@XZ 00459980 f i slink.obj
 0001:000589c0       ?begin@?$_Tree@V?$_Tmap_traits@IPAVfabianServer@@U?$less@I@std@@V?$allocator@U?$pair@$$CBIPAVfabianServer@@@std@@@3@$0A@@std@@@std@@QAE?AV?$_Tree_iterator@V?$_Tree_val@U?$_Tree_simple_types@U?$pair@$$CBIPAVfabianServer@@@std@@@std@@@std@@@2@XZ 004599c0 f i slink.obj
 0001:000589f0       ?begin@?$_Tree@V?$_Tset_traits@VpollCommand@@U?$less@VpollCommand@@@std@@V?$allocator@VpollCommand@@@3@$0A@@std@@@std@@QAE?AV?$_Tree_const_iterator@V?$_Tree_val@U?$_Tree_simple_types@VpollCommand@@@std@@@std@@@2@XZ 004599f0 f i slink.obj
 0001:00058a20       ?begin@?$deque@VpollCommand@@V?$allocator@VpollCommand@@@std@@@std@@QAE?AV?$_Deque_iterator@V?$_Deque_val@U?$_Deque_simple_types@VpollCommand@@@std@@@std@@@2@XZ 00459a20 f i slink.obj
 0001:00058a50       ?begin@?$list@PAVuser@@V?$allocator@PAVuser@@@std@@@std@@QAE?AV?$_List_iterator@V?$_List_val@U?$_List_simple_types@PAVuser@@@std@@@std@@@2@XZ 00459a50 f i slink.obj
 0001:00058a90       ?begin@?$list@VclientIPC@@V?$allocator@VclientIPC@@@std@@@std@@QAE?AV?$_List_iterator@V?$_List_val@U?$_List_simple_types@VclientIPC@@@std@@@std@@@2@XZ 00459a90 f i slink.obj
 0001:00058ad0       ?cccConfigChangeMessage@IccClientCallback@@MAEXABV?$basic_string@DU?$char_traits@D@std@@V?$allocator@D@2@@std@@@Z 00459ad0 f i slink.obj
 0001:00058ae0       ?cccConnected@IccClientCallback@@MAEXXZ 00459ae0 f i slink.obj
 0001:00058af0       ?cccDatabaseChange@IccClientCallback@@MAEXHHH@Z 00459af0 f i slink.obj
 0001:00058b00       ?cccDeviceMessage@IccClientCallback@@MAEXHHABV?$basic_string@DU?$char_traits@D@std@@V?$allocator@D@2@@std@@H@Z 00459b00 f i slink.obj
 0001:00058b10       ?cccDeviceMode@IccClientCallback@@MAEXHHW4redundancyState@cc@@@Z 00459b10 f i slink.obj
 0001:00058b20       ?cccDisconnected@IccClientCallback@@MAEXXZ 00459b20 f i slink.obj
 0001:00058b30       ?cccGpiRevertive@IccClientCallback@@MAEXHH_N@Z 00459b30 f i slink.obj
 0001:00058b40       ?cccInfoRevertive@IccClientCallback@@MAEXHHABV?$basic_string@DU?$char_traits@D@std@@V?$allocator@D@2@@std@@@Z 00459b40 f i slink.obj
 0001:00058b50       ?cccPollError@IccClientCallback@@MAEXHH@Z 00459b50 f i slink.obj
 0001:00058b60       ?cccRtrRevertive@IccClientCallback@@MAEXHHH@Z 00459b60 f i slink.obj
 0001:00058b70       ?cccSerialNumberError@IccClientCallback@@MAEXHH@Z 00459b70 f i slink.obj
 0001:00058b80       ?clear@?$_Tree@V?$_Tmap_traits@IPAVfabianServer@@U?$less@I@std@@V?$allocator@U?$pair@$$CBIPAVfabianServer@@@std@@@3@$0A@@std@@@std@@QAEXXZ 00459b80 f i slink.obj
 0001:00058c00       ?clear@?$_Tree@V?$_Tset_traits@VQString@@U?$less@VQString@@@std@@V?$allocator@VQString@@@3@$0A@@std@@@std@@QAEXXZ 00459c00 f i slink.obj
 0001:00058c80       ?clear@?$_Tree@V?$_Tset_traits@VdbEntry@@U?$less@VdbEntry@@@std@@V?$allocator@VdbEntry@@@3@$0A@@std@@@std@@QAEXXZ 00459c80 f i slink.obj
 0001:00058d00       ?clear@?$_Tree@V?$_Tset_traits@VpollCommand@@U?$less@VpollCommand@@@std@@V?$allocator@VpollCommand@@@3@$0A@@std@@@std@@QAEXXZ 00459d00 f i slink.obj
 0001:00058d80       ?clear@?$list@PAVuser@@V?$allocator@PAVuser@@@std@@@std@@QAEXXZ 00459d80 f i slink.obj
 0001:00058e40       ?clear@?$list@VclientIPC@@V?$allocator@VclientIPC@@@std@@@std@@QAEXXZ 00459e40 f i slink.obj
 0001:00058f00       ?construct@?$allocator@VpollCommand@@@std@@QAEXPAVpollCommand@@ABV3@@Z 00459f00 f i slink.obj
 0001:00058f70       ?count@?$QList@VQSslCipher@@@@QBEHXZ 00459f70 f i slink.obj
 0001:00058f90       ?data_ptr@?$QStaticStringData@$06@@QBEPAU?$QTypedArrayData@G@@XZ 00459f90 f i slink.obj
 0001:00058ff0       ?data_ptr@?$QStaticStringData@$07@@QBEPAU?$QTypedArrayData@G@@XZ 00459ff0 f i slink.obj
 0001:00059050       ?data_ptr@?$QStaticStringData@$08@@QBEPAU?$QTypedArrayData@G@@XZ 0045a050 f i slink.obj
 0001:000590b0       ?data_ptr@?$QStaticStringData@$09@@QBEPAU?$QTypedArrayData@G@@XZ 0045a0b0 f i slink.obj
 0001:00059110       ?data_ptr@?$QStaticStringData@$0BA@@@QBEPAU?$QTypedArrayData@G@@XZ 0045a110 f i slink.obj
 0001:00059170       ?data_ptr@?$QStaticStringData@$0BM@@@QBEPAU?$QTypedArrayData@G@@XZ 0045a170 f i slink.obj
 0001:000591d0       ?data_ptr@?$QStaticStringData@$0L@@@QBEPAU?$QTypedArrayData@G@@XZ 0045a1d0 f i slink.obj
 0001:00059230       ?data_ptr@?$QStaticStringData@$0M@@@QBEPAU?$QTypedArrayData@G@@XZ 0045a230 f i slink.obj
 0001:00059290       ?data_ptr@?$QStaticStringData@$0N@@@QBEPAU?$QTypedArrayData@G@@XZ 0045a290 f i slink.obj
 0001:000592f0       ?data_ptr@?$QStaticStringData@$0O@@@QBEPAU?$QTypedArrayData@G@@XZ 0045a2f0 f i slink.obj
 0001:00059350       ?data_ptr@?$QStaticStringData@$0P@@@QBEPAU?$QTypedArrayData@G@@XZ 0045a350 f i slink.obj
 0001:000593b0       ?db@dbEntry@@QBEIXZ        0045a3b0 f i slink.obj
 0001:000593d0       ?dealloc@?$QList@VQSslCipher@@@@AAEXPAUData@QListData@@@Z 0045a3d0 f i slink.obj
 0001:00059420       ?deallocate@?$_Wrap_alloc@V?$allocator@PAVpollCommand@@@std@@@std@@QAEXPAPAVpollCommand@@I@Z 0045a420 f i slink.obj
 0001:00059450       ?deallocate@?$_Wrap_alloc@V?$allocator@U?$_List_node@PAVuser@@PAX@std@@@std@@@std@@QAEXPAU?$_List_node@PAVuser@@PAX@2@I@Z 0045a450 f i slink.obj
 0001:00059480       ?deallocate@?$_Wrap_alloc@V?$allocator@U?$_Tree_node@U?$pair@$$CBIPAVfabianServer@@@std@@PAX@std@@@std@@@std@@QAEXPAU?$_Tree_node@U?$pair@$$CBIPAVfabianServer@@@std@@PAX@2@I@Z 0045a480 f i slink.obj
 0001:000594b0       ?deallocate@?$_Wrap_alloc@V?$allocator@U?$_Tree_node@VQString@@PAX@std@@@std@@@std@@QAEXPAU?$_Tree_node@VQString@@PAX@2@I@Z 0045a4b0 f i slink.obj
 0001:000594e0       ?deallocate@?$_Wrap_alloc@V?$allocator@U?$_Tree_node@VpollCommand@@PAX@std@@@std@@@std@@QAEXPAU?$_Tree_node@VpollCommand@@PAX@2@I@Z 0045a4e0 f i slink.obj
 0001:00059510       ?deallocate@?$_Wrap_alloc@V?$allocator@VpollCommand@@@std@@@std@@QAEXPAVpollCommand@@I@Z 0045a510 f i slink.obj
 0001:00059540       ?deallocate@?$allocator@PAVpollCommand@@@std@@QAEXPAPAVpollCommand@@I@Z 0045a540 f i slink.obj
 0001:00059560       ?deallocate@?$allocator@U?$_List_node@PAVuser@@PAX@std@@@std@@QAEXPAU?$_List_node@PAVuser@@PAX@2@I@Z 0045a560 f i slink.obj
 0001:00059580       ?deallocate@?$allocator@U?$_Tree_node@U?$pair@$$CBIPAVfabianServer@@@std@@PAX@std@@@std@@QAEXPAU?$_Tree_node@U?$pair@$$CBIPAVfabianServer@@@std@@PAX@2@I@Z 0045a580 f i slink.obj
 0001:000595a0       ?deallocate@?$allocator@U?$_Tree_node@VQString@@PAX@std@@@std@@QAEXPAU?$_Tree_node@VQString@@PAX@2@I@Z 0045a5a0 f i slink.obj
 0001:000595c0       ?deallocate@?$allocator@U?$_Tree_node@VpollCommand@@PAX@std@@@std@@QAEXPAU?$_Tree_node@VpollCommand@@PAX@2@I@Z 0045a5c0 f i slink.obj
 0001:000595e0       ?deallocate@?$allocator@VpollCommand@@@std@@QAEXPAVpollCommand@@I@Z 0045a5e0 f i slink.obj
 0001:00059600       ?detach@?$QList@VQSslCipher@@@@QAEXXZ 0045a600 f i slink.obj
 0001:00059630       ?detach_helper@?$QList@VQSslCipher@@@@AAEXH@Z 0045a630 f i slink.obj
 0001:00059740       ?detach_helper@?$QList@VQSslCipher@@@@AAEXXZ 0045a740 f i slink.obj
 0001:00059770       ?detach_helper_grow@?$QList@VQSslCipher@@@@AAEPAUNode@1@HH@Z 0045a770 f i slink.obj
 0001:00059950       ?device@pollCommand@@QBEIXZ 0045a950 f i slink.obj
 0001:00059970       ?empty@?$deque@VpollCommand@@V?$allocator@VpollCommand@@@std@@@std@@QBE_NXZ 0045a970 f i slink.obj
 0001:000599b0       ?end@?$QList@VQSslCipher@@@@QAE?AViterator@1@XZ 0045a9b0 f i slink.obj
 0001:000599f0       ?end@?$QList@VQString@@@@QAE?AViterator@1@XZ 0045a9f0 f i slink.obj
 0001:00059a30       ?end@?$_Tree@V?$_Tmap_traits@IPAVfabianServer@@U?$less@I@std@@V?$allocator@U?$pair@$$CBIPAVfabianServer@@@std@@@3@$0A@@std@@@std@@QAE?AV?$_Tree_iterator@V?$_Tree_val@U?$_Tree_simple_types@U?$pair@$$CBIPAVfabianServer@@@std@@@std@@@std@@@2@XZ 0045aa30 f i slink.obj
 0001:00059a60       ?end@?$_Tree@V?$_Tset_traits@VdbEntry@@U?$less@VdbEntry@@@std@@V?$allocator@VdbEntry@@@3@$0A@@std@@@std@@QAE?AV?$_Tree_const_iterator@V?$_Tree_val@U?$_Tree_simple_types@VdbEntry@@@std@@@std@@@2@XZ 0045aa60 f i slink.obj
 0001:00059a90       ?end@?$_Tree@V?$_Tset_traits@VpollCommand@@U?$less@VpollCommand@@@std@@V?$allocator@VpollCommand@@@3@$0A@@std@@@std@@QAE?AV?$_Tree_const_iterator@V?$_Tree_val@U?$_Tree_simple_types@VpollCommand@@@std@@@std@@@2@XZ 0045aa90 f i slink.obj
 0001:00059ac0       ?end@?$list@PAVuser@@V?$allocator@PAVuser@@@std@@@std@@QAE?AV?$_List_iterator@V?$_List_val@U?$_List_simple_types@PAVuser@@@std@@@std@@@2@XZ 0045aac0 f i slink.obj
 0001:00059af0       ?end@?$list@VclientIPC@@V?$allocator@VclientIPC@@@std@@@std@@QAE?AV?$_List_iterator@V?$_List_val@U?$_List_simple_types@VclientIPC@@@std@@@std@@@2@XZ 0045aaf0 f i slink.obj
 0001:00059b20       ?end@pollCommand@@QBEIXZ   0045ab20 f i slink.obj
 0001:00059b40       ?equal_range@?$_Tree@V?$_Tset_traits@VpollCommand@@U?$less@VpollCommand@@@std@@V?$allocator@VpollCommand@@@3@$0A@@std@@@std@@QAE?AU?$pair@V?$_Tree_const_iterator@V?$_Tree_val@U?$_Tree_simple_types@VpollCommand@@@std@@@std@@@std@@V12@@2@ABVpollCommand@@@Z 0045ab40 f i slink.obj
 0001:00059b80       ?erase@?$_Tree@V?$_Tmap_traits@IPAVfabianServer@@U?$less@I@std@@V?$allocator@U?$pair@$$CBIPAVfabianServer@@@std@@@3@$0A@@std@@@std@@QAE?AV?$_Tree_iterator@V?$_Tree_val@U?$_Tree_simple_types@U?$pair@$$CBIPAVfabianServer@@@std@@@std@@@std@@@2@V?$_Tree_const_iterator@V?$_Tree_val@U?$_Tree_simple_types@U?$pair@$$CBIPAVfabianServer@@@std@@@std@@@std@@@2@0@Z 0045ab80 f i slink.obj
 0001:00059de0       ?erase@?$_Tree@V?$_Tmap_traits@IPAVfabianServer@@U?$less@I@std@@V?$allocator@U?$pair@$$CBIPAVfabianServer@@@std@@@3@$0A@@std@@@std@@QAE?AV?$_Tree_iterator@V?$_Tree_val@U?$_Tree_simple_types@U?$pair@$$CBIPAVfabianServer@@@std@@@std@@@std@@@2@V?$_Tree_const_iterator@V?$_Tree_val@U?$_Tree_simple_types@U?$pair@$$CBIPAVfabianServer@@@std@@@std@@@std@@@2@@Z 0045ade0 f i slink.obj
 0001:0005a800       ?erase@?$_Tree@V?$_Tset_traits@VQString@@U?$less@VQString@@@std@@V?$allocator@VQString@@@3@$0A@@std@@@std@@QAE?AV?$_Tree_const_iterator@V?$_Tree_val@U?$_Tree_simple_types@VQString@@@std@@@std@@@2@V32@0@Z 0045b800 f i slink.obj
 0001:0005aa60       ?erase@?$_Tree@V?$_Tset_traits@VQString@@U?$less@VQString@@@std@@V?$allocator@VQString@@@3@$0A@@std@@@std@@QAE?AV?$_Tree_const_iterator@V?$_Tree_val@U?$_Tree_simple_types@VQString@@@std@@@std@@@2@V32@@Z 0045ba60 f i slink.obj
 0001:0005b480       ?erase@?$_Tree@V?$_Tset_traits@VdbEntry@@U?$less@VdbEntry@@@std@@V?$allocator@VdbEntry@@@3@$0A@@std@@@std@@QAE?AV?$_Tree_const_iterator@V?$_Tree_val@U?$_Tree_simple_types@VdbEntry@@@std@@@std@@@2@V32@0@Z 0045c480 f i slink.obj
 0001:0005b6e0       ?erase@?$_Tree@V?$_Tset_traits@VdbEntry@@U?$less@VdbEntry@@@std@@V?$allocator@VdbEntry@@@3@$0A@@std@@@std@@QAE?AV?$_Tree_const_iterator@V?$_Tree_val@U?$_Tree_simple_types@VdbEntry@@@std@@@std@@@2@V32@@Z 0045c6e0 f i slink.obj
 0001:0005c100       ?erase@?$_Tree@V?$_Tset_traits@VpollCommand@@U?$less@VpollCommand@@@std@@V?$allocator@VpollCommand@@@3@$0A@@std@@@std@@QAE?AV?$_Tree_const_iterator@V?$_Tree_val@U?$_Tree_simple_types@VpollCommand@@@std@@@std@@@2@V32@0@Z 0045d100 f i slink.obj
 0001:0005c360       ?erase@?$_Tree@V?$_Tset_traits@VpollCommand@@U?$less@VpollCommand@@@std@@V?$allocator@VpollCommand@@@3@$0A@@std@@@std@@QAE?AV?$_Tree_const_iterator@V?$_Tree_val@U?$_Tree_simple_types@VpollCommand@@@std@@@std@@@2@V32@@Z 0045d360 f i slink.obj
 0001:0005cd80       ?erase@?$_Tree@V?$_Tset_traits@VpollCommand@@U?$less@VpollCommand@@@std@@V?$allocator@VpollCommand@@@3@$0A@@std@@@std@@QAEIABVpollCommand@@@Z 0045dd80 f i slink.obj
 0001:0005cec0       ?find@?$_Tree@V?$_Tmap_traits@IPAVfabianServer@@U?$less@I@std@@V?$allocator@U?$pair@$$CBIPAVfabianServer@@@std@@@3@$0A@@std@@@std@@QAE?AV?$_Tree_iterator@V?$_Tree_val@U?$_Tree_simple_types@U?$pair@$$CBIPAVfabianServer@@@std@@@std@@@std@@@2@ABI@Z 0045dec0 f i slink.obj
 0001:0005d0d0       ?find@?$_Tree@V?$_Tset_traits@VpollCommand@@U?$less@VpollCommand@@@std@@V?$allocator@VpollCommand@@@3@$0A@@std@@@std@@QAE?AV?$_Tree_const_iterator@V?$_Tree_val@U?$_Tree_simple_types@VpollCommand@@@std@@@std@@@2@ABVpollCommand@@@Z 0045e0d0 f i slink.obj
 0001:0005d2e0       ?front@?$deque@VpollCommand@@V?$allocator@VpollCommand@@@std@@@std@@QAEAAVpollCommand@@XZ 0045e2e0 f i slink.obj
 0001:0005d370       ?front@?$queue@VpollCommand@@V?$deque@VpollCommand@@V?$allocator@VpollCommand@@@std@@@std@@@std@@QAEAAVpollCommand@@XZ 0045e370 f i slink.obj
 0001:0005d390       ?index@dbEntry@@QBEIXZ     0045e390 f i slink.obj
 0001:0005d3b0       ?insert@?$_Tree@V?$_Tset_traits@VQString@@U?$less@VQString@@@std@@V?$allocator@VQString@@@3@$0A@@std@@@std@@QAE?AU?$pair@V?$_Tree_const_iterator@V?$_Tree_val@U?$_Tree_simple_types@VQString@@@std@@@std@@@std@@_N@2@$$QAVQString@@@Z 0045e3b0 f i slink.obj
 0001:0005d410       ?insert@?$_Tree@V?$_Tset_traits@VpollCommand@@U?$less@VpollCommand@@@std@@V?$allocator@VpollCommand@@@3@$0A@@std@@@std@@QAE?AU?$pair@V?$_Tree_const_iterator@V?$_Tree_val@U?$_Tree_simple_types@VpollCommand@@@std@@@std@@@std@@_N@2@ABVpollCommand@@@Z 0045e410 f i slink.obj
 0001:0005d460       ?insert@?$set@VQString@@U?$less@VQString@@@std@@V?$allocator@VQString@@@3@@std@@QAE?AU?$pair@V?$_Tree_const_iterator@V?$_Tree_val@U?$_Tree_simple_types@VQString@@@std@@@std@@@std@@_N@2@$$QAVQString@@@Z 0045e460 f i slink.obj
 0001:0005d4b0       ?insert@?$set@VpollCommand@@U?$less@VpollCommand@@@std@@V?$allocator@VpollCommand@@@3@@std@@QAE?AU?$pair@V?$_Tree_const_iterator@V?$_Tree_val@U?$_Tree_simple_types@VpollCommand@@@std@@@std@@@std@@_N@2@ABVpollCommand@@@Z 0045e4b0 f i slink.obj
 0001:0005d4f0       ?isStatic@RefCount@QtPrivate@@QBE_NXZ 0045e4f0 f i slink.obj
 0001:0005d530       ?lower_bound@?$_Tree@V?$_Tmap_traits@IPAVfabianServer@@U?$less@I@std@@V?$allocator@U?$pair@$$CBIPAVfabianServer@@@std@@@3@$0A@@std@@@std@@QAE?AV?$_Tree_iterator@V?$_Tree_val@U?$_Tree_simple_types@U?$pair@$$CBIPAVfabianServer@@@std@@@std@@@std@@@2@ABI@Z 0045e530 f i slink.obj
 0001:0005d580       ?lower_bound@?$_Tree@V?$_Tset_traits@VpollCommand@@U?$less@VpollCommand@@@std@@V?$allocator@VpollCommand@@@3@$0A@@std@@@std@@QAE?AV?$_Tree_const_iterator@V?$_Tree_val@U?$_Tree_simple_types@VpollCommand@@@std@@@std@@@2@ABVpollCommand@@@Z 0045e580 f i slink.obj
 0001:0005d5d0       ?lwi@pollCommand@@QBEPAVQListWidgetItem@@XZ 0045e5d0 f i slink.obj
 0001:0005d5f0       ?max_size@?$_Tree@V?$_Tmap_traits@IPAVfabianServer@@U?$less@I@std@@V?$allocator@U?$pair@$$CBIPAVfabianServer@@@std@@@3@$0A@@std@@@std@@QBEIXZ 0045e5f0 f i slink.obj
 0001:0005d620       ?max_size@?$_Tree@V?$_Tset_traits@VQString@@U?$less@VQString@@@std@@V?$allocator@VQString@@@3@$0A@@std@@@std@@QBEIXZ 0045e620 f i slink.obj
 0001:0005d650       ?max_size@?$_Tree@V?$_Tset_traits@VpollCommand@@U?$less@VpollCommand@@@std@@V?$allocator@VpollCommand@@@3@$0A@@std@@@std@@QBEIXZ 0045e650 f i slink.obj
 0001:0005d680       ?max_size@?$_Wrap_alloc@V?$allocator@U?$_Tree_node@U?$pair@$$CBIPAVfabianServer@@@std@@PAX@std@@@std@@@std@@QBEIXZ 0045e680 f i slink.obj
 0001:0005d6a0       ?max_size@?$_Wrap_alloc@V?$allocator@U?$_Tree_node@VQString@@PAX@std@@@std@@@std@@QBEIXZ 0045e6a0 f i slink.obj
 0001:0005d6c0       ?max_size@?$_Wrap_alloc@V?$allocator@U?$_Tree_node@VpollCommand@@PAX@std@@@std@@@std@@QBEIXZ 0045e6c0 f i slink.obj
 0001:0005d6e0       ?max_size@?$_Wrap_alloc@V?$allocator@VpollCommand@@@std@@@std@@QBEIXZ 0045e6e0 f i slink.obj
 0001:0005d700       ?max_size@?$allocator@U?$_Tree_node@U?$pair@$$CBIPAVfabianServer@@@std@@PAX@std@@@std@@QBEIXZ 0045e700 f i slink.obj
 0001:0005d720       ?max_size@?$allocator@U?$_Tree_node@VQString@@PAX@std@@@std@@QBEIXZ 0045e720 f i slink.obj
 0001:0005d740       ?max_size@?$allocator@U?$_Tree_node@VpollCommand@@PAX@std@@@std@@QBEIXZ 0045e740 f i slink.obj
 0001:0005d760       ?max_size@?$allocator@VpollCommand@@@std@@QBEIXZ 0045e760 f i slink.obj
 0001:0005d780       ?max_size@?$allocator_traits@V?$allocator@U?$_Tree_node@U?$pair@$$CBIPAVfabianServer@@@std@@PAX@std@@@std@@@std@@SAIABV?$allocator@U?$_Tree_node@U?$pair@$$CBIPAVfabianServer@@@std@@PAX@std@@@2@@Z 0045e780 f i slink.obj
 0001:0005d790       ?max_size@?$allocator_traits@V?$allocator@U?$_Tree_node@VQString@@PAX@std@@@std@@@std@@SAIABV?$allocator@U?$_Tree_node@VQString@@PAX@std@@@2@@Z 0045e790 f i slink.obj
 0001:0005d7a0       ?max_size@?$allocator_traits@V?$allocator@U?$_Tree_node@VpollCommand@@PAX@std@@@std@@@std@@SAIABV?$allocator@U?$_Tree_node@VpollCommand@@PAX@std@@@2@@Z 0045e7a0 f i slink.obj
 0001:0005d7b0       ?max_size@?$allocator_traits@V?$allocator@VpollCommand@@@std@@@std@@SAIABV?$allocator@VpollCommand@@@2@@Z 0045e7b0 f i slink.obj
 0001:0005d7c0       ?max_size@?$deque@VpollCommand@@V?$allocator@VpollCommand@@@std@@@std@@QBEIXZ 0045e7c0 f i slink.obj
 0001:0005d7f0       ?node_construct@?$QList@VQSslCipher@@@@AAEXPAUNode@1@ABVQSslCipher@@@Z 0045e7f0 f i slink.obj
 0001:0005d920       ?node_copy@?$QList@VQSslCipher@@@@AAEXPAUNode@1@00@Z 0045e920 f i slink.obj
 0001:0005dbd0       ?node_destruct@?$QList@VQSslCipher@@@@AAEXPAUNode@1@0@Z 0045ebd0 f i slink.obj
 0001:0005dc70       ?node_destruct@?$QList@VQSslCipher@@@@AAEXPAUNode@1@@Z 0045ec70 f i slink.obj
 0001:0005dce0       ?pointer_to@?$pointer_traits@PAU?$pair@$$CBIPAVfabianServer@@@std@@@std@@SAPAU?$pair@$$CBIPAVfabianServer@@@2@AAU32@@Z 0045ece0 f i slink.obj
 0001:0005dd00       ?pointer_to@?$pointer_traits@PBU?$pair@$$CBIPAVfabianServer@@@std@@@std@@SAPBU?$pair@$$CBIPAVfabianServer@@@2@ABU32@@Z 0045ed00 f i slink.obj
 0001:0005dd20       ?pointer_to@?$pointer_traits@PBVclientIPC@@@std@@SAPBVclientIPC@@ABV3@@Z 0045ed20 f i slink.obj
 0001:0005dd40       ?pointer_to@?$pointer_traits@PBVdbEntry@@@std@@SAPBVdbEntry@@ABV3@@Z 0045ed40 f i slink.obj
 0001:0005dd60       ?pointer_to@?$pointer_traits@PBVpollCommand@@@std@@SAPBVpollCommand@@ABV3@@Z 0045ed60 f i slink.obj
 0001:0005dd80       ?pop@?$queue@VpollCommand@@V?$deque@VpollCommand@@V?$allocator@VpollCommand@@@std@@@std@@@std@@QAEXXZ 0045ed80 f i slink.obj
 0001:0005dda0       ?pop_back@?$deque@VpollCommand@@V?$allocator@VpollCommand@@@std@@@std@@QAEXXZ 0045eda0 f i slink.obj
 0001:0005de90       ?pop_front@?$deque@VpollCommand@@V?$allocator@VpollCommand@@@std@@@std@@QAEXXZ 0045ee90 f i slink.obj
 0001:0005df90       ?push@?$queue@VpollCommand@@V?$deque@VpollCommand@@V?$allocator@VpollCommand@@@std@@@std@@@std@@QAEXABVpollCommand@@@Z 0045ef90 f i slink.obj
 0001:0005dfb0       ?push_back@?$deque@VpollCommand@@V?$allocator@VpollCommand@@@std@@@std@@QAEXABVpollCommand@@@Z 0045efb0 f i slink.obj
 0001:0005e0e0       ?retranslateUi@Ui_slinkClass@@QAEXPAVQMainWindow@@@Z 0045f0e0 f i slink.obj
 0001:0005eb10       ?setupUi@Ui_slinkClass@@QAEXPAVQMainWindow@@@Z 0045fb10 f i slink.obj
 0001:00060a50       ?size@?$_Tree@V?$_Tset_traits@VpollCommand@@U?$less@VpollCommand@@@std@@V?$allocator@VpollCommand@@@3@$0A@@std@@@std@@QBEIXZ 00461a50 f i slink.obj
 0001:00060a70       ?size@?$deque@VpollCommand@@V?$allocator@VpollCommand@@@std@@@std@@QBEIXZ 00461a70 f i slink.obj
 0001:00060a90       ?size@?$queue@VpollCommand@@V?$deque@VpollCommand@@V?$allocator@VpollCommand@@@std@@@std@@@std@@QBEIXZ 00461a90 f i slink.obj
 0001:00060ab0       ?start@pollCommand@@QBEIXZ 00461ab0 f i slink.obj
 0001:00060ad0       ?t@Node@?$QList@VQSslCipher@@@@QAEAAVQSslCipher@@XZ 00461ad0 f i slink.obj
 0001:00060b00       ?type@pollCommand@@QBEDXZ  00461b00 f i slink.obj
 0001:00060b20       ??0user@@QAE@ABVQString@@000II@Z 00461b20 f   user.obj
 0001:00060c20       ??1user@@UAE@XZ            00461c20 f   user.obj
 0001:00060e20       ?userName@user@@QBE?AVQString@@XZ 00461e20 f   user.obj
 0001:00060e60       ?password@user@@QBE?AVQString@@XZ 00461e60 f   user.obj
 0001:00060ea0       ?controlPassword@user@@QBE?AVQString@@XZ 00461ea0 f   user.obj
 0001:00060ee0       ?configKey@user@@QBE?AVQString@@XZ 00461ee0 f   user.obj
 0001:00060f20       ?serverPort@user@@QBEIXZ   00461f20 f   user.obj
 0001:00060f40       ?workstationOverride@user@@QBEIXZ 00461f40 f   user.obj
 0001:00060f60       ?isReadEnabled@user@@QBE_NI@Z 00461f60 f   user.obj
 0001:00061040       ?isReadEnabled@user@@QBE_NII@Z 00462040 f   user.obj
 0001:00061120       ?isWriteEnabled@user@@QBE_NI@Z 00462120 f   user.obj
 0001:000611e0       ?isWriteEnabled@user@@QBE_NII@Z 004621e0 f   user.obj
 0001:000612c0       ?isWriteEnabled@user@@QBE_NIII@Z 004622c0 f   user.obj
 0001:000613a0       ?isReadEnabled@user@@QBE_NIII@Z 004623a0 f   user.obj
 0001:00061480       ?addReadAccess@user@@QAEXIII@Z 00462480 f   user.obj
 0001:000615e0       ?addWriteAccess@user@@QAEXIII@Z 004625e0 f   user.obj
 0001:00061740       ?writePermissions@user@@QAEPAV?$map@IPAVsingleReg@@U?$less@I@std@@V?$allocator@U?$pair@$$CBIPAVsingleReg@@@std@@@3@@std@@XZ 00462740 f   user.obj
 0001:00061760       ?readPermissions@user@@QAEPAV?$map@IPAVsingleReg@@U?$less@I@std@@V?$allocator@U?$pair@$$CBIPAVsingleReg@@@std@@@3@@std@@XZ 00462760 f   user.obj
 0001:00061a90       ??$?0AAIAAPAVsingleReg@@X@?$pair@IPAVsingleReg@@@std@@QAE@AAIAAPAVsingleReg@@@Z 00462a90 f i user.obj
 0001:00061ae0       ??$?0IPAVsingleReg@@X@?$pair@$$CBIPAVsingleReg@@@std@@QAE@$$QAU?$pair@IPAVsingleReg@@@1@@Z 00462ae0 f i user.obj
 0001:00061b30       ??$_Buynode@U?$pair@IPAVsingleReg@@@std@@@?$_Tree_buy@U?$pair@$$CBIPAVsingleReg@@@std@@V?$allocator@U?$pair@$$CBIPAVsingleReg@@@std@@@2@@std@@QAEPAU?$_Tree_node@U?$pair@$$CBIPAVsingleReg@@@std@@PAX@1@$$QAU?$pair@IPAVsingleReg@@@1@@Z 00462b30 f i user.obj
 0001:00061c60       ??$_Buynode_if_nil@AAU?$pair@$$CBIPAVsingleReg@@@std@@@?$_Tree@V?$_Tmap_traits@IPAVsingleReg@@U?$less@I@std@@V?$allocator@U?$pair@$$CBIPAVsingleReg@@@std@@@3@$0A@@std@@@std@@IAEPAU?$_Tree_node@U?$pair@$$CBIPAVsingleReg@@@std@@PAX@1@PAU21@AAU?$pair@$$CBIPAVsingleReg@@@1@@Z 00462c60 f i user.obj
 0001:00061c80       ??$_Insert_at@AAU?$pair@$$CBIPAVsingleReg@@@std@@PAU?$_Tree_node@U?$pair@$$CBIPAVsingleReg@@@std@@PAX@2@@?$_Tree@V?$_Tmap_traits@IPAVsingleReg@@U?$less@I@std@@V?$allocator@U?$pair@$$CBIPAVsingleReg@@@std@@@3@$0A@@std@@@std@@IAE?AV?$_Tree_iterator@V?$_Tree_val@U?$_Tree_simple_types@U?$pair@$$CBIPAVsingleReg@@@std@@@std@@@std@@@1@_NPAU?$_Tree_node@U?$pair@$$CBIPAVsingleReg@@@std@@PAX@1@AAU?$pair@$$CBIPAVsingleReg@@@1@1@Z 00462c80 f i user.obj
 0001:000621d0       ??$_Insert_nohint@AAU?$pair@$$CBIPAVsingleReg@@@std@@PAU?$_Tree_node@U?$pair@$$CBIPAVsingleReg@@@std@@PAX@2@@?$_Tree@V?$_Tmap_traits@IPAVsingleReg@@U?$less@I@std@@V?$allocator@U?$pair@$$CBIPAVsingleReg@@@std@@@3@$0A@@std@@@std@@IAE?AU?$pair@V?$_Tree_iterator@V?$_Tree_val@U?$_Tree_simple_types@U?$pair@$$CBIPAVsingleReg@@@std@@@std@@@std@@@std@@_N@1@_NAAU?$pair@$$CBIPAVsingleReg@@@1@PAU?$_Tree_node@U?$pair@$$CBIPAVsingleReg@@@std@@PAX@1@@Z 004631d0 f i user.obj
 0001:000627b0       ??$_Kfn@$$CBIPAVsingleReg@@@?$_Tmap_traits@IPAVsingleReg@@U?$less@I@std@@V?$allocator@U?$pair@$$CBIPAVsingleReg@@@std@@@3@$0A@@std@@SAABIABU?$pair@$$CBIPAVsingleReg@@@1@@Z 004637b0 f i user.obj
 0001:000627c0       ??$construct@U?$pair@$$CBIPAVsingleReg@@@std@@U?$pair@IPAVsingleReg@@@2@@?$_Wrap_alloc@V?$allocator@U?$_Tree_node@U?$pair@$$CBIPAVsingleReg@@@std@@PAX@std@@@std@@@std@@QAEXPAU?$pair@$$CBIPAVsingleReg@@@1@$$QAU?$pair@IPAVsingleReg@@@1@@Z 004637c0 f i user.obj
 0001:00062800       ??$construct@U?$pair@$$CBIPAVsingleReg@@@std@@U?$pair@IPAVsingleReg@@@2@@?$allocator@U?$_Tree_node@U?$pair@$$CBIPAVsingleReg@@@std@@PAX@std@@@std@@QAEXPAU?$pair@$$CBIPAVsingleReg@@@1@$$QAU?$pair@IPAVsingleReg@@@1@@Z 00463800 f i user.obj
 0001:000628b0       ??$construct@U?$pair@$$CBIPAVsingleReg@@@std@@U?$pair@IPAVsingleReg@@@2@@?$allocator_traits@V?$allocator@U?$_Tree_node@U?$pair@$$CBIPAVsingleReg@@@std@@PAX@std@@@std@@@std@@SAXAAV?$allocator@U?$_Tree_node@U?$pair@$$CBIPAVsingleReg@@@std@@PAX@std@@@1@PAU?$pair@$$CBIPAVsingleReg@@@1@$$QAU?$pair@IPAVsingleReg@@@1@@Z 004638b0 f i user.obj
 0001:000628e0       ??$forward@U?$pair@IPAVsingleReg@@@std@@@std@@YA$$QAU?$pair@IPAVsingleReg@@@0@AAU10@@Z 004638e0 f i user.obj
 0001:000628f0       ??$insert@U?$pair@IPAVsingleReg@@@std@@@?$_Tree@V?$_Tmap_traits@IPAVsingleReg@@U?$less@I@std@@V?$allocator@U?$pair@$$CBIPAVsingleReg@@@std@@@3@$0A@@std@@@std@@QAE?AU?$pair@V?$_Tree_iterator@V?$_Tree_val@U?$_Tree_simple_types@U?$pair@$$CBIPAVsingleReg@@@std@@@std@@@std@@@std@@_N@1@$$QAU?$pair@IPAVsingleReg@@@1@@Z 004638f0 f i user.obj
 0001:00062960       ??0?$_Tree@V?$_Tmap_traits@IPAVsingleReg@@U?$less@I@std@@V?$allocator@U?$pair@$$CBIPAVsingleReg@@@std@@@3@$0A@@std@@@std@@QAE@ABU?$less@I@1@ABV?$allocator@U?$pair@$$CBIPAVsingleReg@@@std@@@1@@Z 00463960 f i user.obj
 0001:00062990       ??0?$_Tree_comp@$0A@V?$_Tmap_traits@IPAVsingleReg@@U?$less@I@std@@V?$allocator@U?$pair@$$CBIPAVsingleReg@@@std@@@3@$0A@@std@@@std@@QAE@ABU?$less@I@1@ABV?$allocator@U?$pair@$$CBIPAVsingleReg@@@std@@@1@@Z 00463990 f i user.obj
 0001:000629c0       ??0?$map@IPAVsingleReg@@U?$less@I@std@@V?$allocator@U?$pair@$$CBIPAVsingleReg@@@std@@@3@@std@@QAE@XZ 004639c0 f i user.obj
 0001:000629f0       ??1?$_Tree@V?$_Tmap_traits@IPAVsingleReg@@U?$less@I@std@@V?$allocator@U?$pair@$$CBIPAVsingleReg@@@std@@@3@$0A@@std@@@std@@QAE@XZ 004639f0 f i user.obj
 0001:00062a20       ??1?$_Tree_comp@$0A@V?$_Tmap_traits@IPAVsingleReg@@U?$less@I@std@@V?$allocator@U?$pair@$$CBIPAVsingleReg@@@std@@@3@$0A@@std@@@std@@QAE@XZ 00463a20 f i user.obj
 0001:00062a40       ??1?$map@IPAVsingleReg@@U?$less@I@std@@V?$allocator@U?$pair@$$CBIPAVsingleReg@@@std@@@3@@std@@QAE@XZ 00463a40 f i user.obj
 0001:00062a60       ??_Euser@@UAEPAXI@Z        00463a60 f i user.obj
 0001:00062a60       ??_Guser@@UAEPAXI@Z        00463a60 f i user.obj
 0001:00062aa0       ?_Destroy_if_not_nil@?$_Tree@V?$_Tmap_traits@IPAVsingleReg@@U?$less@I@std@@V?$allocator@U?$pair@$$CBIPAVsingleReg@@@std@@@3@$0A@@std@@@std@@IAEXPAU?$_Tree_node@U?$pair@$$CBIPAVsingleReg@@@std@@PAX@2@@Z 00463aa0 f i user.obj
 0001:00062b10       ?_Erase@?$_Tree@V?$_Tmap_traits@IPAVsingleReg@@U?$less@I@std@@V?$allocator@U?$pair@$$CBIPAVsingleReg@@@std@@@3@$0A@@std@@@std@@IAEXPAU?$_Tree_node@U?$pair@$$CBIPAVsingleReg@@@std@@PAX@2@@Z 00463b10 f i user.obj
 0001:00062be0       ?_Getcomp@?$_Tree_comp@$0A@V?$_Tmap_traits@IPAVsingleReg@@U?$less@I@std@@V?$allocator@U?$pair@$$CBIPAVsingleReg@@@std@@@3@$0A@@std@@@std@@QBE?AU?$less@I@2@XZ 00463be0 f i user.obj
 0001:00062c00       ?_Key@?$_Tree@V?$_Tmap_traits@IPAVsingleReg@@U?$less@I@std@@V?$allocator@U?$pair@$$CBIPAVsingleReg@@@std@@@3@$0A@@std@@@std@@IBEABIPAU?$_Tree_node@U?$pair@$$CBIPAVsingleReg@@@std@@PAX@2@@Z 00463c00 f i user.obj
 0001:00062c30       ?_Kfn@?$_Tree@V?$_Tmap_traits@IPAVsingleReg@@U?$less@I@std@@V?$allocator@U?$pair@$$CBIPAVsingleReg@@@std@@@3@$0A@@std@@@std@@IBEABIABU?$pair@$$CBIPAVsingleReg@@@2@@Z 00463c30 f i user.obj
 0001:00062c50       ?_Lbound@?$_Tree@V?$_Tmap_traits@IPAVsingleReg@@U?$less@I@std@@V?$allocator@U?$pair@$$CBIPAVsingleReg@@@std@@@3@$0A@@std@@@std@@IAEPAU?$_Tree_node@U?$pair@$$CBIPAVsingleReg@@@std@@PAX@2@ABI@Z 00463c50 f i user.obj
 0001:00062d20       ?_Lbound@?$_Tree@V?$_Tmap_traits@IPAVsingleReg@@U?$less@I@std@@V?$allocator@U?$pair@$$CBIPAVsingleReg@@@std@@@3@$0A@@std@@@std@@IBEPAU?$_Tree_node@U?$pair@$$CBIPAVsingleReg@@@std@@PAX@2@ABI@Z 00463d20 f i user.obj
 0001:00062df0       ?_Lmost@?$_Tree@V?$_Tmap_traits@IPAVsingleReg@@U?$less@I@std@@V?$allocator@U?$pair@$$CBIPAVsingleReg@@@std@@@3@$0A@@std@@@std@@IBEAAPAU?$_Tree_node@U?$pair@$$CBIPAVsingleReg@@@std@@PAX@2@XZ 00463df0 f i user.obj
 0001:00062e10       ?_Lrotate@?$_Tree@V?$_Tmap_traits@IPAVsingleReg@@U?$less@I@std@@V?$allocator@U?$pair@$$CBIPAVsingleReg@@@std@@@3@$0A@@std@@@std@@IAEXPAU?$_Tree_node@U?$pair@$$CBIPAVsingleReg@@@std@@PAX@2@@Z 00463e10 f i user.obj
 0001:00062f90       ?_Orphan_ptr@?$_Tree@V?$_Tmap_traits@IPAVsingleReg@@U?$less@I@std@@V?$allocator@U?$pair@$$CBIPAVsingleReg@@@std@@@3@$0A@@std@@@std@@IBEXAAV12@PAU?$_Tree_node@U?$pair@$$CBIPAVsingleReg@@@std@@PAX@2@@Z 00463f90 f i user.obj
 0001:00063090       ?_Rmost@?$_Tree@V?$_Tmap_traits@IPAVsingleReg@@U?$less@I@std@@V?$allocator@U?$pair@$$CBIPAVsingleReg@@@std@@@3@$0A@@std@@@std@@IBEAAPAU?$_Tree_node@U?$pair@$$CBIPAVsingleReg@@@std@@PAX@2@XZ 00464090 f i user.obj
 0001:000630b0       ?_Root@?$_Tree@V?$_Tmap_traits@IPAVsingleReg@@U?$less@I@std@@V?$allocator@U?$pair@$$CBIPAVsingleReg@@@std@@@3@$0A@@std@@@std@@IBEAAPAU?$_Tree_node@U?$pair@$$CBIPAVsingleReg@@@std@@PAX@2@XZ 004640b0 f i user.obj
 0001:000630d0       ?_Rrotate@?$_Tree@V?$_Tmap_traits@IPAVsingleReg@@U?$less@I@std@@V?$allocator@U?$pair@$$CBIPAVsingleReg@@@std@@@3@$0A@@std@@@std@@IAEXPAU?$_Tree_node@U?$pair@$$CBIPAVsingleReg@@@std@@PAX@2@@Z 004640d0 f i user.obj
 0001:00063250       ?_Tidy@?$_Tree@V?$_Tmap_traits@IPAVsingleReg@@U?$less@I@std@@V?$allocator@U?$pair@$$CBIPAVsingleReg@@@std@@@3@$0A@@std@@@std@@IAEXXZ 00464250 f i user.obj
 0001:00063360       ?begin@?$_Tree@V?$_Tmap_traits@IPAVsingleReg@@U?$less@I@std@@V?$allocator@U?$pair@$$CBIPAVsingleReg@@@std@@@3@$0A@@std@@@std@@QAE?AV?$_Tree_iterator@V?$_Tree_val@U?$_Tree_simple_types@U?$pair@$$CBIPAVsingleReg@@@std@@@std@@@std@@@2@XZ 00464360 f i user.obj
 0001:00063390       ?clear@?$_Tree@V?$_Tmap_traits@IPAVsingleReg@@U?$less@I@std@@V?$allocator@U?$pair@$$CBIPAVsingleReg@@@std@@@3@$0A@@std@@@std@@QAEXXZ 00464390 f i user.obj
 0001:00063410       ?end@?$_Tree@V?$_Tmap_traits@IPAVsingleReg@@U?$less@I@std@@V?$allocator@U?$pair@$$CBIPAVsingleReg@@@std@@@3@$0A@@std@@@std@@QAE?AV?$_Tree_iterator@V?$_Tree_val@U?$_Tree_simple_types@U?$pair@$$CBIPAVsingleReg@@@std@@@std@@@std@@@2@XZ 00464410 f i user.obj
 0001:00063440       ?end@?$_Tree@V?$_Tmap_traits@IPAVsingleReg@@U?$less@I@std@@V?$allocator@U?$pair@$$CBIPAVsingleReg@@@std@@@3@$0A@@std@@@std@@QBE?AV?$_Tree_const_iterator@V?$_Tree_val@U?$_Tree_simple_types@U?$pair@$$CBIPAVsingleReg@@@std@@@std@@@std@@@2@XZ 00464440 f i user.obj
 0001:00063470       ?erase@?$_Tree@V?$_Tmap_traits@IPAVsingleReg@@U?$less@I@std@@V?$allocator@U?$pair@$$CBIPAVsingleReg@@@std@@@3@$0A@@std@@@std@@QAE?AV?$_Tree_iterator@V?$_Tree_val@U?$_Tree_simple_types@U?$pair@$$CBIPAVsingleReg@@@std@@@std@@@std@@@2@V?$_Tree_const_iterator@V?$_Tree_val@U?$_Tree_simple_types@U?$pair@$$CBIPAVsingleReg@@@std@@@std@@@std@@@2@0@Z 00464470 f i user.obj
 0001:000636d0       ?erase@?$_Tree@V?$_Tmap_traits@IPAVsingleReg@@U?$less@I@std@@V?$allocator@U?$pair@$$CBIPAVsingleReg@@@std@@@3@$0A@@std@@@std@@QAE?AV?$_Tree_iterator@V?$_Tree_val@U?$_Tree_simple_types@U?$pair@$$CBIPAVsingleReg@@@std@@@std@@@std@@@2@V?$_Tree_const_iterator@V?$_Tree_val@U?$_Tree_simple_types@U?$pair@$$CBIPAVsingleReg@@@std@@@std@@@std@@@2@@Z 004646d0 f i user.obj
 0001:000640f0       ?find@?$_Tree@V?$_Tmap_traits@IPAVsingleReg@@U?$less@I@std@@V?$allocator@U?$pair@$$CBIPAVsingleReg@@@std@@@3@$0A@@std@@@std@@QAE?AV?$_Tree_iterator@V?$_Tree_val@U?$_Tree_simple_types@U?$pair@$$CBIPAVsingleReg@@@std@@@std@@@std@@@2@ABI@Z 004650f0 f i user.obj
 0001:00064300       ?find@?$_Tree@V?$_Tmap_traits@IPAVsingleReg@@U?$less@I@std@@V?$allocator@U?$pair@$$CBIPAVsingleReg@@@std@@@3@$0A@@std@@@std@@QBE?AV?$_Tree_const_iterator@V?$_Tree_val@U?$_Tree_simple_types@U?$pair@$$CBIPAVsingleReg@@@std@@@std@@@std@@@2@ABI@Z 00465300 f i user.obj
 0001:00064510       ?lower_bound@?$_Tree@V?$_Tmap_traits@IPAVsingleReg@@U?$less@I@std@@V?$allocator@U?$pair@$$CBIPAVsingleReg@@@std@@@3@$0A@@std@@@std@@QAE?AV?$_Tree_iterator@V?$_Tree_val@U?$_Tree_simple_types@U?$pair@$$CBIPAVsingleReg@@@std@@@std@@@std@@@2@ABI@Z 00465510 f i user.obj
 0001:00064560       ?lower_bound@?$_Tree@V?$_Tmap_traits@IPAVsingleReg@@U?$less@I@std@@V?$allocator@U?$pair@$$CBIPAVsingleReg@@@std@@@3@$0A@@std@@@std@@QBE?AV?$_Tree_const_iterator@V?$_Tree_val@U?$_Tree_simple_types@U?$pair@$$CBIPAVsingleReg@@@std@@@std@@@std@@@2@ABI@Z 00465560 f i user.obj
 0001:000645b0       ?max_size@?$_Tree@V?$_Tmap_traits@IPAVsingleReg@@U?$less@I@std@@V?$allocator@U?$pair@$$CBIPAVsingleReg@@@std@@@3@$0A@@std@@@std@@QBEIXZ 004655b0 f i user.obj
 0001:00064b80       ??0userEditDialog@@QAE@XZ  00465b80 f   userEditDialog.obj
 0001:000651e0       ??1userEditDialog@@UAE@XZ  004661e0 f   userEditDialog.obj
 0001:00065210       ?slotItemDoubleClicked@userEditDialog@@AAEXPAVQTreeWidgetItem@@H@Z 00466210 f   userEditDialog.obj
 0001:000652a0       ?slotAddUser@userEditDialog@@AAEXXZ 004662a0 f   userEditDialog.obj
 0001:00065860       ?slotDeleteUser@userEditDialog@@AAEXXZ 00466860 f   userEditDialog.obj
 0001:00065f10       ??0?$QFlags@W4InputMethodHint@Qt@@@@QAE@W4InputMethodHint@Qt@@@Z 00466f10 f i userEditDialog.obj
 0001:00065f30       ??0?$QFlags@W4StandardButton@QMessageBox@@@@QAE@VQFlag@@@Z 00466f30 f i userEditDialog.obj
 0001:00065f60       ??U?$QFlags@W4StandardButton@QMessageBox@@@@QBE?AV0@W4StandardButton@QMessageBox@@@Z 00466f60 f i userEditDialog.obj
 0001:00065fa0       ??U@YA?AV?$QFlags@W4StandardButton@QMessageBox@@@@W4StandardButton@QMessageBox@@0@Z 00466fa0 f i userEditDialog.obj
 0001:00065fcf       ??_EQLabel@@W7AEPAXI@Z     00466fcf f i userEditDialog.obj
 0001:00065fd9       ??_EuserEditDialog@@W7AEPAXI@Z 00466fd9 f i userEditDialog.obj
 0001:00065ff0       ??_EQLabel@@UAEPAXI@Z      00466ff0 f i userEditDialog.obj
 0001:00065ff0       ??_GQLabel@@UAEPAXI@Z      00466ff0 f i userEditDialog.obj
 0001:00066030       ??_EQTreeWidgetItem@@UAEPAXI@Z 00467030 f i userEditDialog.obj
 0001:00066030       ??_GQTreeWidgetItem@@UAEPAXI@Z 00467030 f i userEditDialog.obj
 0001:00066070       ??_GuserEditDialog@@UAEPAXI@Z 00467070 f i userEditDialog.obj
 0001:00066070       ??_EuserEditDialog@@UAEPAXI@Z 00467070 f i userEditDialog.obj
 0001:000660b0       ?data_ptr@?$QStaticStringData@$04@@QBEPAU?$QTypedArrayData@G@@XZ 004670b0 f i userEditDialog.obj
 0001:00066110       ?data_ptr@?$QStaticStringData@$0BC@@@QBEPAU?$QTypedArrayData@G@@XZ 00467110 f i userEditDialog.obj
 0001:00066170       ?retranslateUi@Ui_userEditDialog@@QAEXPAVQDialog@@@Z 00467170 f i userEditDialog.obj
 0001:00066600       ?setupUi@Ui_userEditDialog@@QAEXPAVQDialog@@@Z 00467600 f i userEditDialog.obj
 0001:00067c30       ??0userEditPermissionsDialog@@QAE@ABVQString@@@Z 00468c30 f   userEditPermissionsDialog.obj
 0001:00068980       ??1userEditPermissionsDialog@@UAE@XZ 00469980 f   userEditPermissionsDialog.obj
 0001:000689b0       ?accept@userEditPermissionsDialog@@UAEXXZ 004699b0 f   userEditPermissionsDialog.obj
 0001:00069810       ?doCopyRight@userEditPermissionsDialog@@AAEXXZ 0046a810 f   userEditPermissionsDialog.obj
 0001:00069850       ?doCopyLeft@userEditPermissionsDialog@@AAEXXZ 0046a850 f   userEditPermissionsDialog.obj
 0001:00069890       ?validDevAndRange@@YA_NABVQString@@@Z 0046a890 f   userEditPermissionsDialog.obj
 0001:0006a420       ??0?$QFlags@W4StandardButton@QDialogButtonBox@@@@QAE@VQFlag@@@Z 0046b420 f i userEditPermissionsDialog.obj
 0001:0006a450       ??0?$QFlags@W4StandardButton@QDialogButtonBox@@@@QAE@W4StandardButton@QDialogButtonBox@@@Z 0046b450 f i userEditPermissionsDialog.obj
 0001:0006a470       ??U?$QFlags@W4StandardButton@QDialogButtonBox@@@@QBE?AV0@W4StandardButton@QDialogButtonBox@@@Z 0046b470 f i userEditPermissionsDialog.obj
 0001:0006a4b0       ??U@YA?AV?$QFlags@W4StandardButton@QDialogButtonBox@@@@W4StandardButton@QDialogButtonBox@@0@Z 0046b4b0 f i userEditPermissionsDialog.obj
 0001:0006a4df       ??_EQDialogButtonBox@@W7AEPAXI@Z 0046b4df f i userEditPermissionsDialog.obj
 0001:0006a4e9       ??_EQToolButton@@W7AEPAXI@Z 0046b4e9 f i userEditPermissionsDialog.obj
 0001:0006a4f3       ??_EuserEditPermissionsDialog@@W7AEPAXI@Z 0046b4f3 f i userEditPermissionsDialog.obj
 0001:0006a500       ??_GQDialogButtonBox@@UAEPAXI@Z 0046b500 f i userEditPermissionsDialog.obj
 0001:0006a500       ??_EQDialogButtonBox@@UAEPAXI@Z 0046b500 f i userEditPermissionsDialog.obj
 0001:0006a540       ??_GQToolButton@@UAEPAXI@Z 0046b540 f i userEditPermissionsDialog.obj
 0001:0006a540       ??_EQToolButton@@UAEPAXI@Z 0046b540 f i userEditPermissionsDialog.obj
 0001:0006a580       ??_EuserEditPermissionsDialog@@UAEPAXI@Z 0046b580 f i userEditPermissionsDialog.obj
 0001:0006a580       ??_GuserEditPermissionsDialog@@UAEPAXI@Z 0046b580 f i userEditPermissionsDialog.obj
 0001:0006a5c0       ?data_ptr@?$QStaticStringData@$0BJ@@@QBEPAU?$QTypedArrayData@G@@XZ 0046b5c0 f i userEditPermissionsDialog.obj
 0001:0006a620       ?length@?$QList@VQString@@@@QBEHXZ 0046b620 f i userEditPermissionsDialog.obj
 0001:0006a640       ?retranslateUi@Ui_userEditPermissionsDialog@@QAEXPAVQDialog@@@Z 0046b640 f i userEditPermissionsDialog.obj
 0001:0006a8c0       ?setupUi@Ui_userEditPermissionsDialog@@QAEXPAVQDialog@@@Z 0046b8c0 f i userEditPermissionsDialog.obj
 0001:0006bcf0       ??0users@@QAE@XZ           0046ccf0 f   users.obj
 0001:0006bd10       ??1users@@UAE@XZ           0046cd10 f   users.obj
 0001:0006bd30       ?loadUsers@users@@SAXXZ    0046cd30 f   users.obj
 0001:0006bf90       ?loadAccess@users@@SAXAAVccConfig@@PAVuser@@ABVQString@@@Z 0046cf90 f   users.obj
 0001:0006c700       ?userList@users@@SAXAAV?$list@PAVuser@@V?$allocator@PAVuser@@@std@@@std@@@Z 0046d700 f   users.obj
 0001:0006c7f0       ?loadUserInfo@users@@SAXABVQString@@@Z 0046d7f0 f   users.obj
 0001:0006d140       ?getUser@users@@SAPBVuser@@ABVQString@@@Z 0046e140 f   users.obj
 0001:0006d240       ?getUserByConfigKey@users@@SAPBVuser@@ABVQString@@@Z 0046e240 f   users.obj
 0001:0006d380       ?createUser@users@@SAPAVuser@@ABVQString@@00II@Z 0046e380 f   users.obj
 0001:0006daa0       ?deleteUser@users@@SAXABVQString@@@Z 0046eaa0 f   users.obj
 0001:0006e630       ??$?0AAV?$_Tree_iterator@V?$_Tree_val@U?$_Tree_simple_types@U?$pair@$$CBVQString@@PAVuser@@@std@@@std@@@std@@@std@@_NX@?$pair@V?$_Tree_iterator@V?$_Tree_val@U?$_Tree_simple_types@U?$pair@$$CBVQString@@PAVuser@@@std@@@std@@@std@@@std@@_N@std@@QAE@AAV?$_Tree_iterator@V?$_Tree_val@U?$_Tree_simple_types@U?$pair@$$CBVQString@@PAVuser@@@std@@@std@@@std@@@1@$$QA_N@Z 0046f630 f i users.obj
 0001:0006e6c0       ??$?0ABVQString@@AAPAVuser@@X@?$pair@VQString@@PAVuser@@@std@@QAE@ABVQString@@AAPAVuser@@@Z 0046f6c0 f i users.obj
 0001:0006e750       ??$?0PBDAAPAVuser@@X@?$pair@VQString@@PAVuser@@@std@@QAE@$$QAPBDAAPAVuser@@@Z 0046f750 f i users.obj
 0001:0006e7f0       ??$?0U?$_Tree_node@U?$pair@$$CBVQString@@PAVuser@@@std@@PAX@std@@@?$allocator@U_Container_proxy@std@@@std@@QAE@ABV?$allocator@U?$_Tree_node@U?$pair@$$CBVQString@@PAVuser@@@std@@PAX@std@@@1@@Z 0046f7f0 f i users.obj
 0001:0006e810       ??$?0U?$_Wrap_alloc@V?$allocator@U?$_Tree_node@U?$pair@$$CBVQString@@PAVuser@@@std@@PAX@std@@@std@@@std@@@?$_Wrap_alloc@V?$allocator@U_Container_proxy@std@@@std@@@std@@QAE@ABU?$_Wrap_alloc@V?$allocator@U?$_Tree_node@U?$pair@$$CBVQString@@PAVuser@@@std@@PAX@std@@@std@@@1@@Z 0046f810 f i users.obj
 0001:0006e840       ??$?0V?$_Tree_iterator@V?$_Tree_val@U?$_Tree_simple_types@U?$pair@$$CBVQString@@PAVuser@@@std@@@std@@@std@@@std@@_NX@?$pair@V?$_Tree_iterator@V?$_Tree_val@U?$_Tree_simple_types@U?$pair@$$CBVQString@@PAVuser@@@std@@@std@@@std@@@std@@_N@std@@QAE@$$QAV?$_Tree_iterator@V?$_Tree_val@U?$_Tree_simple_types@U?$pair@$$CBVQString@@PAVuser@@@std@@@std@@@std@@@1@$$QA_N@Z 0046f840 f i users.obj
 0001:0006e8d0       ??$?0VQString@@PAVuser@@X@?$pair@$$CBVQString@@PAVuser@@@std@@QAE@$$QAU?$pair@VQString@@PAVuser@@@1@@Z 0046f8d0 f i users.obj
 0001:0006e970       ??$_Allocate@U?$_Tree_node@U?$pair@$$CBVQString@@PAVuser@@@std@@PAX@std@@@std@@YAPAU?$_Tree_node@U?$pair@$$CBVQString@@PAVuser@@@std@@PAX@0@IPAU10@@Z 0046f970 f i users.obj
 0001:0006e9c0       ??$_Buynode@ABQAVuser@@@?$_List_buy@PAVuser@@V?$allocator@PAVuser@@@std@@@std@@QAEPAU?$_List_node@PAVuser@@PAX@1@PAU21@0ABQAVuser@@@Z 0046f9c0 f i users.obj
 0001:0006eae0       ??$_Buynode@U?$pair@VQString@@PAVuser@@@std@@@?$_Tree_buy@U?$pair@$$CBVQString@@PAVuser@@@std@@V?$allocator@U?$pair@$$CBVQString@@PAVuser@@@std@@@2@@std@@QAEPAU?$_Tree_node@U?$pair@$$CBVQString@@PAVuser@@@std@@PAX@1@$$QAU?$pair@VQString@@PAVuser@@@1@@Z 0046fae0 f i users.obj
 0001:0006ec10       ??$_Buynode_if_nil@AAU?$pair@$$CBVQString@@PAVuser@@@std@@@?$_Tree@V?$_Tmap_traits@VQString@@PAVuser@@U?$less@VQString@@@std@@V?$allocator@U?$pair@$$CBVQString@@PAVuser@@@std@@@4@$0A@@std@@@std@@IAEPAU?$_Tree_node@U?$pair@$$CBVQString@@PAVuser@@@std@@PAX@1@PAU21@AAU?$pair@$$CBVQString@@PAVuser@@@1@@Z 0046fc10 f i users.obj
 0001:0006ec30       ??$_Insert@ABQAVuser@@@?$list@PAVuser@@V?$allocator@PAVuser@@@std@@@std@@QAEXV?$_List_unchecked_const_iterator@V?$_List_val@U?$_List_simple_types@PAVuser@@@std@@@std@@U_Iterator_base0@2@@1@ABQAVuser@@@Z 0046fc30 f i users.obj
 0001:0006ecd0       ??$_Insert_at@AAU?$pair@$$CBVQString@@PAVuser@@@std@@PAU?$_Tree_node@U?$pair@$$CBVQString@@PAVuser@@@std@@PAX@2@@?$_Tree@V?$_Tmap_traits@VQString@@PAVuser@@U?$less@VQString@@@std@@V?$allocator@U?$pair@$$CBVQString@@PAVuser@@@std@@@4@$0A@@std@@@std@@IAE?AV?$_Tree_iterator@V?$_Tree_val@U?$_Tree_simple_types@U?$pair@$$CBVQString@@PAVuser@@@std@@@std@@@std@@@1@_NPAU?$_Tree_node@U?$pair@$$CBVQString@@PAVuser@@@std@@PAX@1@AAU?$pair@$$CBVQString@@PAVuser@@@1@1@Z 0046fcd0 f i users.obj
 0001:0006f220       ??$_Insert_nohint@AAU?$pair@$$CBVQString@@PAVuser@@@std@@PAU?$_Tree_node@U?$pair@$$CBVQString@@PAVuser@@@std@@PAX@2@@?$_Tree@V?$_Tmap_traits@VQString@@PAVuser@@U?$less@VQString@@@std@@V?$allocator@U?$pair@$$CBVQString@@PAVuser@@@std@@@4@$0A@@std@@@std@@IAE?AU?$pair@V?$_Tree_iterator@V?$_Tree_val@U?$_Tree_simple_types@U?$pair@$$CBVQString@@PAVuser@@@std@@@std@@@std@@@std@@_N@1@_NAAU?$pair@$$CBVQString@@PAVuser@@@1@PAU?$_Tree_node@U?$pair@$$CBVQString@@PAVuser@@@std@@PAX@1@@Z 00470220 f i users.obj
 0001:0006f800       ??$_Kfn@$$CBVQString@@PAVuser@@@?$_Tmap_traits@VQString@@PAVuser@@U?$less@VQString@@@std@@V?$allocator@U?$pair@$$CBVQString@@PAVuser@@@std@@@4@$0A@@std@@SAABVQString@@ABU?$pair@$$CBVQString@@PAVuser@@@1@@Z 00470800 f i users.obj
 0001:0006f810       ??$addressof@$$CBU?$pair@$$CBVQString@@PAVuser@@@std@@@std@@YAPBU?$pair@$$CBVQString@@PAVuser@@@0@ABU10@@Z 00470810 f i users.obj
 0001:0006f820       ??$addressof@PAU?$_Tree_node@U?$pair@$$CBVQString@@PAVuser@@@std@@PAX@std@@@std@@YAPAPAU?$_Tree_node@U?$pair@$$CBVQString@@PAVuser@@@std@@PAX@0@AAPAU10@@Z 00470820 f i users.obj
 0001:0006f830       ??$addressof@U?$pair@$$CBVQString@@PAVuser@@@std@@@std@@YAPAU?$pair@$$CBVQString@@PAVuser@@@0@AAU10@@Z 00470830 f i users.obj
 0001:0006f840       ??$construct@PAU?$_Tree_node@U?$pair@$$CBVQString@@PAVuser@@@std@@PAX@std@@AAPAU12@@?$_Wrap_alloc@V?$allocator@U?$_Tree_node@U?$pair@$$CBVQString@@PAVuser@@@std@@PAX@std@@@std@@@std@@QAEXPAPAU?$_Tree_node@U?$pair@$$CBVQString@@PAVuser@@@std@@PAX@1@AAPAU21@@Z 00470840 f i users.obj
 0001:0006f880       ??$construct@PAU?$_Tree_node@U?$pair@$$CBVQString@@PAVuser@@@std@@PAX@std@@AAPAU12@@?$allocator@U?$_Tree_node@U?$pair@$$CBVQString@@PAVuser@@@std@@PAX@std@@@std@@QAEXPAPAU?$_Tree_node@U?$pair@$$CBVQString@@PAVuser@@@std@@PAX@1@AAPAU21@@Z 00470880 f i users.obj
 0001:0006f930       ??$construct@PAU?$_Tree_node@U?$pair@$$CBVQString@@PAVuser@@@std@@PAX@std@@AAPAU12@@?$allocator_traits@V?$allocator@U?$_Tree_node@U?$pair@$$CBVQString@@PAVuser@@@std@@PAX@std@@@std@@@std@@SAXAAV?$allocator@U?$_Tree_node@U?$pair@$$CBVQString@@PAVuser@@@std@@PAX@std@@@1@PAPAU?$_Tree_node@U?$pair@$$CBVQString@@PAVuser@@@std@@PAX@1@AAPAU31@@Z 00470930 f i users.obj
 0001:0006f960       ??$construct@PAVuser@@ABQAV1@@?$_Wrap_alloc@V?$allocator@U?$_List_node@PAVuser@@PAX@std@@@std@@@std@@QAEXPAPAVuser@@ABQAV2@@Z 00470960 f i users.obj
 0001:0006f9a0       ??$construct@PAVuser@@ABQAV1@@?$allocator@U?$_List_node@PAVuser@@PAX@std@@@std@@QAEXPAPAVuser@@ABQAV2@@Z 004709a0 f i users.obj
 0001:0006fa50       ??$construct@PAVuser@@ABQAV1@@?$allocator_traits@V?$allocator@U?$_List_node@PAVuser@@PAX@std@@@std@@@std@@SAXAAV?$allocator@U?$_List_node@PAVuser@@PAX@std@@@1@PAPAVuser@@ABQAV3@@Z 00470a50 f i users.obj
 0001:0006fa80       ??$construct@U?$pair@$$CBVQString@@PAVuser@@@std@@U?$pair@VQString@@PAVuser@@@2@@?$_Wrap_alloc@V?$allocator@U?$_Tree_node@U?$pair@$$CBVQString@@PAVuser@@@std@@PAX@std@@@std@@@std@@QAEXPAU?$pair@$$CBVQString@@PAVuser@@@1@$$QAU?$pair@VQString@@PAVuser@@@1@@Z 00470a80 f i users.obj
 0001:0006fac0       ??$construct@U?$pair@$$CBVQString@@PAVuser@@@std@@U?$pair@VQString@@PAVuser@@@2@@?$allocator@U?$_Tree_node@U?$pair@$$CBVQString@@PAVuser@@@std@@PAX@std@@@std@@QAEXPAU?$pair@$$CBVQString@@PAVuser@@@1@$$QAU?$pair@VQString@@PAVuser@@@1@@Z 00470ac0 f i users.obj
 0001:0006fb70       ??$construct@U?$pair@$$CBVQString@@PAVuser@@@std@@U?$pair@VQString@@PAVuser@@@2@@?$allocator_traits@V?$allocator@U?$_Tree_node@U?$pair@$$CBVQString@@PAVuser@@@std@@PAX@std@@@std@@@std@@SAXAAV?$allocator@U?$_Tree_node@U?$pair@$$CBVQString@@PAVuser@@@std@@PAX@std@@@1@PAU?$pair@$$CBVQString@@PAVuser@@@1@$$QAU?$pair@VQString@@PAVuser@@@1@@Z 00470b70 f i users.obj
 0001:0006fba0       ??$destroy@PAU?$_List_node@V?$basic_string@DU?$char_traits@D@std@@V?$allocator@D@2@@std@@PAX@std@@@?$_Wrap_alloc@V?$allocator@U?$_List_node@V?$basic_string@DU?$char_traits@D@std@@V?$allocator@D@2@@std@@PAX@std@@@std@@@std@@QAEXPAPAU?$_List_node@V?$basic_string@DU?$char_traits@D@std@@V?$allocator@D@2@@std@@PAX@1@@Z 00470ba0 f i users.obj
 0001:0006fbd0       ??$destroy@PAU?$_List_node@V?$basic_string@DU?$char_traits@D@std@@V?$allocator@D@2@@std@@PAX@std@@@?$allocator@U?$_List_node@V?$basic_string@DU?$char_traits@D@std@@V?$allocator@D@2@@std@@PAX@std@@@std@@QAEXPAPAU?$_List_node@V?$basic_string@DU?$char_traits@D@std@@V?$allocator@D@2@@std@@PAX@1@@Z 00470bd0 f i users.obj
 0001:0006fbe0       ??$destroy@PAU?$_List_node@V?$basic_string@DU?$char_traits@D@std@@V?$allocator@D@2@@std@@PAX@std@@@?$allocator_traits@V?$allocator@U?$_List_node@V?$basic_string@DU?$char_traits@D@std@@V?$allocator@D@2@@std@@PAX@std@@@std@@@std@@SAXAAV?$allocator@U?$_List_node@V?$basic_string@DU?$char_traits@D@std@@V?$allocator@D@2@@std@@PAX@std@@@1@PAPAU?$_List_node@V?$basic_string@DU?$char_traits@D@std@@V?$allocator@D@2@@std@@PAX@1@@Z 00470be0 f i users.obj
 0001:0006fc00       ??$destroy@PAU?$_Tree_node@U?$pair@$$CBVQString@@PAVuser@@@std@@PAX@std@@@?$_Wrap_alloc@V?$allocator@U?$_Tree_node@U?$pair@$$CBVQString@@PAVuser@@@std@@PAX@std@@@std@@@std@@QAEXPAPAU?$_Tree_node@U?$pair@$$CBVQString@@PAVuser@@@std@@PAX@1@@Z 00470c00 f i users.obj
 0001:0006fc30       ??$destroy@PAU?$_Tree_node@U?$pair@$$CBVQString@@PAVuser@@@std@@PAX@std@@@?$allocator@U?$_Tree_node@U?$pair@$$CBVQString@@PAVuser@@@std@@PAX@std@@@std@@QAEXPAPAU?$_Tree_node@U?$pair@$$CBVQString@@PAVuser@@@std@@PAX@1@@Z 00470c30 f i users.obj
 0001:0006fc40       ??$destroy@PAU?$_Tree_node@U?$pair@$$CBVQString@@PAVuser@@@std@@PAX@std@@@?$allocator_traits@V?$allocator@U?$_Tree_node@U?$pair@$$CBVQString@@PAVuser@@@std@@PAX@std@@@std@@@std@@SAXAAV?$allocator@U?$_Tree_node@U?$pair@$$CBVQString@@PAVuser@@@std@@PAX@std@@@1@PAPAU?$_Tree_node@U?$pair@$$CBVQString@@PAVuser@@@std@@PAX@1@@Z 00470c40 f i users.obj
 0001:0006fc60       ??$destroy@U?$pair@$$CBVQString@@PAVuser@@@std@@@?$_Wrap_alloc@V?$allocator@U?$_Tree_node@U?$pair@$$CBVQString@@PAVuser@@@std@@PAX@std@@@std@@@std@@QAEXPAU?$pair@$$CBVQString@@PAVuser@@@1@@Z 00470c60 f i users.obj
 0001:0006fc90       ??$destroy@U?$pair@$$CBVQString@@PAVuser@@@std@@@?$allocator@U?$_Tree_node@U?$pair@$$CBVQString@@PAVuser@@@std@@PAX@std@@@std@@QAEXPAU?$pair@$$CBVQString@@PAVuser@@@1@@Z 00470c90 f i users.obj
 0001:0006fcb0       ??$destroy@U?$pair@$$CBVQString@@PAVuser@@@std@@@?$allocator_traits@V?$allocator@U?$_Tree_node@U?$pair@$$CBVQString@@PAVuser@@@std@@PAX@std@@@std@@@std@@SAXAAV?$allocator@U?$_Tree_node@U?$pair@$$CBVQString@@PAVuser@@@std@@PAX@std@@@1@PAU?$pair@$$CBVQString@@PAVuser@@@1@@Z 00470cb0 f i users.obj
 0001:0006fcd0       ??$destroy@V?$basic_string@DU?$char_traits@D@std@@V?$allocator@D@2@@std@@@?$_Wrap_alloc@V?$allocator@U?$_List_node@V?$basic_string@DU?$char_traits@D@std@@V?$allocator@D@2@@std@@PAX@std@@@std@@@std@@QAEXPAV?$basic_string@DU?$char_traits@D@std@@V?$allocator@D@2@@1@@Z 00470cd0 f i users.obj
 0001:0006fd00       ??$destroy@V?$basic_string@DU?$char_traits@D@std@@V?$allocator@D@2@@std@@@?$allocator@U?$_List_node@V?$basic_string@DU?$char_traits@D@std@@V?$allocator@D@2@@std@@PAX@std@@@std@@QAEXPAV?$basic_string@DU?$char_traits@D@std@@V?$allocator@D@2@@1@@Z 00470d00 f i users.obj
 0001:0006fd20       ??$destroy@V?$basic_string@DU?$char_traits@D@std@@V?$allocator@D@2@@std@@@?$allocator_traits@V?$allocator@U?$_List_node@V?$basic_string@DU?$char_traits@D@std@@V?$allocator@D@2@@std@@PAX@std@@@std@@@std@@SAXAAV?$allocator@U?$_List_node@V?$basic_string@DU?$char_traits@D@std@@V?$allocator@D@2@@std@@PAX@std@@@1@PAV?$basic_string@DU?$char_traits@D@std@@V?$allocator@D@2@@1@@Z 00470d20 f i users.obj
 0001:0006fd40       ??$forward@AAPAU?$_Tree_node@U?$pair@$$CBVQString@@PAVuser@@@std@@PAX@std@@@std@@YAAAPAU?$_Tree_node@U?$pair@$$CBVQString@@PAVuser@@@std@@PAX@0@AAPAU10@@Z 00470d40 f i users.obj
 0001:0006fd50       ??$forward@AAPAVuser@@@std@@YAAAPAVuser@@AAPAV1@@Z 00470d50 f i users.obj
 0001:0006fd60       ??$forward@AAU?$pair@$$CBVQString@@PAVuser@@@std@@@std@@YAAAU?$pair@$$CBVQString@@PAVuser@@@0@AAU10@@Z 00470d60 f i users.obj
 0001:0006fd70       ??$forward@AAV?$_Tree_iterator@V?$_Tree_val@U?$_Tree_simple_types@U?$pair@$$CBVQString@@PAVuser@@@std@@@std@@@std@@@std@@@std@@YAAAV?$_Tree_iterator@V?$_Tree_val@U?$_Tree_simple_types@U?$pair@$$CBVQString@@PAVuser@@@std@@@std@@@std@@@0@AAV10@@Z 00470d70 f i users.obj
 0001:0006fd80       ??$forward@ABQAVuser@@@std@@YAABQAVuser@@ABQAV1@@Z 00470d80 f i users.obj
 0001:0006fd90       ??$forward@PAVuser@@@std@@YA$$QAPAVuser@@AAPAV1@@Z 00470d90 f i users.obj
 0001:0006fda0       ??$forward@PBD@std@@YA$$QAPBDAAPBD@Z 00470da0 f i users.obj
 0001:0006fdb0       ??$forward@U?$pair@VQString@@PAVuser@@@std@@@std@@YA$$QAU?$pair@VQString@@PAVuser@@@0@AAU10@@Z 00470db0 f i users.obj
 0001:0006fdc0       ??$forward@V?$_Tree_iterator@V?$_Tree_val@U?$_Tree_simple_types@U?$pair@$$CBVQString@@PAVuser@@@std@@@std@@@std@@@std@@@std@@YA$$QAV?$_Tree_iterator@V?$_Tree_val@U?$_Tree_simple_types@U?$pair@$$CBVQString@@PAVuser@@@std@@@std@@@std@@@0@AAV10@@Z 00470dc0 f i users.obj
 0001:0006fdd0       ??$insert@U?$pair@VQString@@PAVuser@@@std@@@?$_Tree@V?$_Tmap_traits@VQString@@PAVuser@@U?$less@VQString@@@std@@V?$allocator@U?$pair@$$CBVQString@@PAVuser@@@std@@@4@$0A@@std@@@std@@QAE?AU?$pair@V?$_Tree_iterator@V?$_Tree_val@U?$_Tree_simple_types@U?$pair@$$CBVQString@@PAVuser@@@std@@@std@@@std@@@std@@_N@1@$$QAU?$pair@VQString@@PAVuser@@@1@@Z 00470dd0 f i users.obj
 0001:0006fe40       ??0?$_Iterator012@Ubidirectional_iterator_tag@std@@U?$pair@$$CBVQString@@PAVuser@@@2@HPBU32@ABU32@U_Iterator_base12@2@@std@@QAE@ABU01@@Z 00470e40 f i users.obj
 0001:0006fe70       ??0?$_Iterator012@Ubidirectional_iterator_tag@std@@U?$pair@$$CBVQString@@PAVuser@@@2@HPBU32@ABU32@U_Iterator_base12@2@@std@@QAE@XZ 00470e70 f i users.obj
 0001:0006fe90       ??0?$_Iterator012@Ubidirectional_iterator_tag@std@@V?$basic_string@DU?$char_traits@D@std@@V?$allocator@D@2@@2@HPBV32@ABV32@U_Iterator_base12@2@@std@@QAE@ABU01@@Z 00470e90 f i users.obj
 0001:0006fec0       ??0?$_Iterator012@Ubidirectional_iterator_tag@std@@V?$basic_string@DU?$char_traits@D@std@@V?$allocator@D@2@@2@HPBV32@ABV32@U_Iterator_base12@2@@std@@QAE@XZ 00470ec0 f i users.obj
 0001:0006fee0       ??0?$_List_alloc@$0A@U?$_List_base_types@V?$basic_string@DU?$char_traits@D@std@@V?$allocator@D@2@@std@@V?$allocator@V?$basic_string@DU?$char_traits@D@std@@V?$allocator@D@2@@std@@@2@@std@@@std@@QAE@ABV?$allocator@V?$basic_string@DU?$char_traits@D@std@@V?$allocator@D@2@@std@@@1@@Z 00470ee0 f i users.obj
 0001:0006ffb0       ??0?$_List_buy@V?$basic_string@DU?$char_traits@D@std@@V?$allocator@D@2@@std@@V?$allocator@V?$basic_string@DU?$char_traits@D@std@@V?$allocator@D@2@@std@@@2@@std@@QAE@ABV?$allocator@V?$basic_string@DU?$char_traits@D@std@@V?$allocator@D@2@@std@@@1@@Z 00470fb0 f i users.obj
 0001:0006ffe0       ??0?$_List_const_iterator@V?$_List_val@U?$_List_simple_types@V?$basic_string@DU?$char_traits@D@std@@V?$allocator@D@2@@std@@@std@@@std@@@std@@QAE@ABV01@@Z 00470fe0 f i users.obj
 0001:00070010       ??0?$_List_const_iterator@V?$_List_val@U?$_List_simple_types@V?$basic_string@DU?$char_traits@D@std@@V?$allocator@D@2@@std@@@std@@@std@@@std@@QAE@PAU?$_List_node@V?$basic_string@DU?$char_traits@D@std@@V?$allocator@D@2@@std@@PAX@1@PBV?$_List_val@U?$_List_simple_types@V?$basic_string@DU?$char_traits@D@std@@V?$allocator@D@2@@std@@@std@@@1@@Z 00471010 f i users.obj
 0001:00070040       ??0?$_List_iterator@V?$_List_val@U?$_List_simple_types@V?$basic_string@DU?$char_traits@D@std@@V?$allocator@D@2@@std@@@std@@@std@@@std@@QAE@PAU?$_List_node@V?$basic_string@DU?$char_traits@D@std@@V?$allocator@D@2@@std@@PAX@1@PBV?$_List_val@U?$_List_simple_types@V?$basic_string@DU?$char_traits@D@std@@V?$allocator@D@2@@std@@@std@@@1@@Z 00471040 f i users.obj
 0001:00070070       ??0?$_List_unchecked_const_iterator@V?$_List_val@U?$_List_simple_types@PAVuser@@@std@@@std@@U_Iterator_base0@2@@std@@QAE@PAU?$_List_node@PAVuser@@PAX@1@PBV?$_List_val@U?$_List_simple_types@PAVuser@@@std@@@1@@Z 00471070 f i users.obj
 0001:000700a0       ??0?$_List_unchecked_const_iterator@V?$_List_val@U?$_List_simple_types@V?$basic_string@DU?$char_traits@D@std@@V?$allocator@D@2@@std@@@std@@@std@@U_Iterator_base12@2@@std@@QAE@ABV01@@Z 004710a0 f i users.obj
 0001:000700e0       ??0?$_List_unchecked_const_iterator@V?$_List_val@U?$_List_simple_types@V?$basic_string@DU?$char_traits@D@std@@V?$allocator@D@2@@std@@@std@@@std@@U_Iterator_base12@2@@std@@QAE@PAU?$_List_node@V?$basic_string@DU?$char_traits@D@std@@V?$allocator@D@2@@std@@PAX@1@PBV?$_List_val@U?$_List_simple_types@V?$basic_string@DU?$char_traits@D@std@@V?$allocator@D@2@@std@@@std@@@1@@Z 004710e0 f i users.obj
 0001:00070160       ??0?$_List_unchecked_iterator@V?$_List_val@U?$_List_simple_types@PAVuser@@@std@@@std@@@std@@QAE@PAU?$_List_node@PAVuser@@PAX@1@PBV?$_List_val@U?$_List_simple_types@PAVuser@@@std@@@1@@Z 00471160 f i users.obj
 0001:00070190       ??0?$_List_val@U?$_List_simple_types@V?$basic_string@DU?$char_traits@D@std@@V?$allocator@D@2@@std@@@std@@@std@@QAE@XZ 00471190 f i users.obj
 0001:000701d0       ??0?$_Tree@V?$_Tmap_traits@VQString@@PAVuser@@U?$less@VQString@@@std@@V?$allocator@U?$pair@$$CBVQString@@PAVuser@@@std@@@4@$0A@@std@@@std@@QAE@ABU?$less@VQString@@@1@ABV?$allocator@U?$pair@$$CBVQString@@PAVuser@@@std@@@1@@Z 004711d0 f i users.obj
 0001:00070200       ??0?$_Tree_alloc@$0A@U?$_Tree_base_types@U?$pair@$$CBVQString@@PAVuser@@@std@@V?$allocator@U?$pair@$$CBVQString@@PAVuser@@@std@@@2@@std@@@std@@QAE@ABV?$allocator@U?$pair@$$CBVQString@@PAVuser@@@std@@@1@@Z 00471200 f i users.obj
 0001:000702d0       ??0?$_Tree_buy@U?$pair@$$CBVQString@@PAVuser@@@std@@V?$allocator@U?$pair@$$CBVQString@@PAVuser@@@std@@@2@@std@@QAE@ABV?$allocator@U?$pair@$$CBVQString@@PAVuser@@@std@@@1@@Z 004712d0 f i users.obj
 0001:00070300       ??0?$_Tree_comp@$0A@V?$_Tmap_traits@VQString@@PAVuser@@U?$less@VQString@@@std@@V?$allocator@U?$pair@$$CBVQString@@PAVuser@@@std@@@4@$0A@@std@@@std@@QAE@ABU?$less@VQString@@@1@ABV?$allocator@U?$pair@$$CBVQString@@PAVuser@@@std@@@1@@Z 00471300 f i users.obj
 0001:00070330       ??0?$_Tree_const_iterator@V?$_Tree_val@U?$_Tree_simple_types@U?$pair@$$CBVQString@@PAVuser@@@std@@@std@@@std@@@std@@QAE@ABV01@@Z 00471330 f i users.obj
 0001:00070360       ??0?$_Tree_const_iterator@V?$_Tree_val@U?$_Tree_simple_types@U?$pair@$$CBVQString@@PAVuser@@@std@@@std@@@std@@@std@@QAE@PAU?$_Tree_node@U?$pair@$$CBVQString@@PAVuser@@@std@@PAX@1@PBV?$_Tree_val@U?$_Tree_simple_types@U?$pair@$$CBVQString@@PAVuser@@@std@@@std@@@1@@Z 00471360 f i users.obj
 0001:00070390       ??0?$_Tree_iterator@V?$_Tree_val@U?$_Tree_simple_types@U?$pair@$$CBVQString@@PAVuser@@@std@@@std@@@std@@@std@@QAE@ABV01@@Z 00471390 f i users.obj
 0001:000703c0       ??0?$_Tree_iterator@V?$_Tree_val@U?$_Tree_simple_types@U?$pair@$$CBVQString@@PAVuser@@@std@@@std@@@std@@@std@@QAE@PAU?$_Tree_node@U?$pair@$$CBVQString@@PAVuser@@@std@@PAX@1@PBV?$_Tree_val@U?$_Tree_simple_types@U?$pair@$$CBVQString@@PAVuser@@@std@@@std@@@1@@Z 004713c0 f i users.obj
 0001:000703f0       ??0?$_Tree_unchecked_const_iterator@V?$_Tree_val@U?$_Tree_simple_types@U?$pair@$$CBVQString@@PAVuser@@@std@@@std@@@std@@U_Iterator_base12@2@@std@@QAE@ABV01@@Z 004713f0 f i users.obj
 0001:00070430       ??0?$_Tree_unchecked_const_iterator@V?$_Tree_val@U?$_Tree_simple_types@U?$pair@$$CBVQString@@PAVuser@@@std@@@std@@@std@@U_Iterator_base12@2@@std@@QAE@PAU?$_Tree_node@U?$pair@$$CBVQString@@PAVuser@@@std@@PAX@1@PBV?$_Tree_val@U?$_Tree_simple_types@U?$pair@$$CBVQString@@PAVuser@@@std@@@std@@@1@@Z 00471430 f i users.obj
 0001:000704b0       ??0?$_Tree_val@U?$_Tree_simple_types@U?$pair@$$CBVQString@@PAVuser@@@std@@@std@@@std@@QAE@XZ 004714b0 f i users.obj
 0001:000704f0       ??0?$_Wrap_alloc@V?$allocator@U?$_Tree_node@U?$pair@$$CBVQString@@PAVuser@@@std@@PAX@std@@@std@@@std@@QAE@XZ 004714f0 f i users.obj
 0001:00070510       ??0?$allocator@U?$_Tree_node@U?$pair@$$CBVQString@@PAVuser@@@std@@PAX@std@@@std@@QAE@XZ 00471510 f i users.obj
 0001:00070530       ??0?$allocator@U?$pair@$$CBVQString@@PAVuser@@@std@@@std@@QAE@XZ 00471530 f i users.obj
 0001:00070550       ??0?$list@V?$basic_string@DU?$char_traits@D@std@@V?$allocator@D@2@@std@@V?$allocator@V?$basic_string@DU?$char_traits@D@std@@V?$allocator@D@2@@std@@@2@@std@@QAE@XZ 00471550 f i users.obj
 0001:00070580       ??0?$map@VQString@@PAVuser@@U?$less@VQString@@@std@@V?$allocator@U?$pair@$$CBVQString@@PAVuser@@@std@@@4@@std@@QAE@XZ 00471580 f i users.obj
 0001:000705b0       ??1?$_Iterator012@Ubidirectional_iterator_tag@std@@U?$pair@$$CBVQString@@PAVuser@@@2@HPBU32@ABU32@U_Iterator_base12@2@@std@@QAE@XZ 004715b0 f i users.obj
 0001:000705d0       ??1?$_Iterator012@Ubidirectional_iterator_tag@std@@V?$basic_string@DU?$char_traits@D@std@@V?$allocator@D@2@@2@HPBV32@ABV32@U_Iterator_base12@2@@std@@QAE@XZ 004715d0 f i users.obj
 0001:000705f0       ??1?$_List_alloc@$0A@U?$_List_base_types@V?$basic_string@DU?$char_traits@D@std@@V?$allocator@D@2@@std@@V?$allocator@V?$basic_string@DU?$char_traits@D@std@@V?$allocator@D@2@@std@@@2@@std@@@std@@QAE@XZ 004715f0 f i users.obj
 0001:00070630       ??1?$_List_buy@V?$basic_string@DU?$char_traits@D@std@@V?$allocator@D@2@@std@@V?$allocator@V?$basic_string@DU?$char_traits@D@std@@V?$allocator@D@2@@std@@@2@@std@@QAE@XZ 00471630 f i users.obj
 0001:00070650       ??1?$_List_const_iterator@V?$_List_val@U?$_List_simple_types@V?$basic_string@DU?$char_traits@D@std@@V?$allocator@D@2@@std@@@std@@@std@@@std@@QAE@XZ 00471650 f i users.obj
 0001:00070670       ??1?$_List_iterator@V?$_List_val@U?$_List_simple_types@V?$basic_string@DU?$char_traits@D@std@@V?$allocator@D@2@@std@@@std@@@std@@@std@@QAE@XZ 00471670 f i users.obj
 0001:00070690       ??1?$_List_unchecked_const_iterator@V?$_List_val@U?$_List_simple_types@V?$basic_string@DU?$char_traits@D@std@@V?$allocator@D@2@@std@@@std@@@std@@U_Iterator_base12@2@@std@@QAE@XZ 00471690 f i users.obj
 0001:000706b0       ??1?$_List_val@U?$_List_simple_types@V?$basic_string@DU?$char_traits@D@std@@V?$allocator@D@2@@std@@@std@@@std@@QAE@XZ 004716b0 f i users.obj
 0001:000706d0       ??1?$_Tree@V?$_Tmap_traits@VQString@@PAVuser@@U?$less@VQString@@@std@@V?$allocator@U?$pair@$$CBVQString@@PAVuser@@@std@@@4@$0A@@std@@@std@@QAE@XZ 004716d0 f i users.obj
 0001:00070700       ??1?$_Tree_alloc@$0A@U?$_Tree_base_types@U?$pair@$$CBVQString@@PAVuser@@@std@@V?$allocator@U?$pair@$$CBVQString@@PAVuser@@@std@@@2@@std@@@std@@QAE@XZ 00471700 f i users.obj
 0001:00070740       ??1?$_Tree_buy@U?$pair@$$CBVQString@@PAVuser@@@std@@V?$allocator@U?$pair@$$CBVQString@@PAVuser@@@std@@@2@@std@@QAE@XZ 00471740 f i users.obj
 0001:00070760       ??1?$_Tree_comp@$0A@V?$_Tmap_traits@VQString@@PAVuser@@U?$less@VQString@@@std@@V?$allocator@U?$pair@$$CBVQString@@PAVuser@@@std@@@4@$0A@@std@@@std@@QAE@XZ 00471760 f i users.obj
 0001:00070780       ??1?$_Tree_const_iterator@V?$_Tree_val@U?$_Tree_simple_types@U?$pair@$$CBVQString@@PAVuser@@@std@@@std@@@std@@@std@@QAE@XZ 00471780 f i users.obj
 0001:000707a0       ??1?$_Tree_iterator@V?$_Tree_val@U?$_Tree_simple_types@U?$pair@$$CBVQString@@PAVuser@@@std@@@std@@@std@@@std@@QAE@XZ 004717a0 f i users.obj
 0001:000707c0       ??1?$_Tree_unchecked_const_iterator@V?$_Tree_val@U?$_Tree_simple_types@U?$pair@$$CBVQString@@PAVuser@@@std@@@std@@@std@@U_Iterator_base12@2@@std@@QAE@XZ 004717c0 f i users.obj
 0001:000707e0       ??1?$_Tree_val@U?$_Tree_simple_types@U?$pair@$$CBVQString@@PAVuser@@@std@@@std@@@std@@QAE@XZ 004717e0 f i users.obj
 0001:00070800       ??1?$list@V?$basic_string@DU?$char_traits@D@std@@V?$allocator@D@2@@std@@V?$allocator@V?$basic_string@DU?$char_traits@D@std@@V?$allocator@D@2@@std@@@2@@std@@QAE@XZ 00471800 f i users.obj
 0001:00070830       ??1?$map@VQString@@PAVuser@@U?$less@VQString@@@std@@V?$allocator@U?$pair@$$CBVQString@@PAVuser@@@std@@@4@@std@@QAE@XZ 00471830 f i users.obj
 0001:00070850       ??1?$pair@$$CBVQString@@PAVuser@@@std@@QAE@XZ 00471850 f i users.obj
 0001:00070870       ??1?$pair@V?$_Tree_iterator@V?$_Tree_val@U?$_Tree_simple_types@U?$pair@$$CBVQString@@PAVuser@@@std@@@std@@@std@@@std@@_N@std@@QAE@XZ 00471870 f i users.obj
 0001:00070890       ??1?$pair@VQString@@PAVuser@@@std@@QAE@XZ 00471890 f i users.obj
 0001:000708b0       ??8?$_List_const_iterator@V?$_List_val@U?$_List_simple_types@V?$basic_string@DU?$char_traits@D@std@@V?$allocator@D@2@@std@@@std@@@std@@@std@@QBE_NABV01@@Z 004718b0 f i users.obj
 0001:000709a0       ??8?$_Tree_const_iterator@V?$_Tree_val@U?$_Tree_simple_types@U?$pair@$$CBVQString@@PAVuser@@@std@@@std@@@std@@@std@@QBE_NABV01@@Z 004719a0 f i users.obj
 0001:00070a90       ??9?$_List_const_iterator@V?$_List_val@U?$_List_simple_types@V?$basic_string@DU?$char_traits@D@std@@V?$allocator@D@2@@std@@@std@@@std@@@std@@QBE_NABV01@@Z 00471a90 f i users.obj
 0001:00070ae0       ??9?$_Tree_const_iterator@V?$_Tree_val@U?$_Tree_simple_types@U?$pair@$$CBVQString@@PAVuser@@@std@@@std@@@std@@@std@@QBE_NABV01@@Z 00471ae0 f i users.obj
 0001:00070b30       ??C?$_Tree_const_iterator@V?$_Tree_val@U?$_Tree_simple_types@U?$pair@$$CBVQString@@PAVuser@@@std@@@std@@@std@@@std@@QBEPBU?$pair@$$CBVQString@@PAVuser@@@1@XZ 00471b30 f i users.obj
 0001:00070b60       ??C?$_Tree_iterator@V?$_Tree_val@U?$_Tree_simple_types@U?$pair@$$CBVQString@@PAVuser@@@std@@@std@@@std@@@std@@QBEPAU?$pair@$$CBVQString@@PAVuser@@@1@XZ 00471b60 f i users.obj
 0001:00070b90       ??Citerator@?$QList@VQString@@@@QBEPAVQString@@XZ 00471b90 f i users.obj
 0001:00070bb0       ??D?$_List_const_iterator@V?$_List_val@U?$_List_simple_types@V?$basic_string@DU?$char_traits@D@std@@V?$allocator@D@2@@std@@@std@@@std@@@std@@QBEABV?$basic_string@DU?$char_traits@D@std@@V?$allocator@D@2@@1@XZ 00471bb0 f i users.obj
 0001:00070c90       ??D?$_Tree_const_iterator@V?$_Tree_val@U?$_Tree_simple_types@U?$pair@$$CBVQString@@PAVuser@@@std@@@std@@@std@@@std@@QBEABU?$pair@$$CBVQString@@PAVuser@@@1@XZ 00471c90 f i users.obj
 0001:00070d70       ??D?$_Tree_iterator@V?$_Tree_val@U?$_Tree_simple_types@U?$pair@$$CBVQString@@PAVuser@@@std@@@std@@@std@@@std@@QBEAAU?$pair@$$CBVQString@@PAVuser@@@1@XZ 00471d70 f i users.obj
 0001:00070d90       ??E?$_List_const_iterator@V?$_List_val@U?$_List_simple_types@V?$basic_string@DU?$char_traits@D@std@@V?$allocator@D@2@@std@@@std@@@std@@@std@@QAEAAV01@XZ 00471d90 f i users.obj
 0001:00070e80       ??E?$_Tree_const_iterator@V?$_Tree_val@U?$_Tree_simple_types@U?$pair@$$CBVQString@@PAVuser@@@std@@@std@@@std@@@std@@QAE?AV01@H@Z 00471e80 f i users.obj
 0001:00070f30       ??E?$_Tree_const_iterator@V?$_Tree_val@U?$_Tree_simple_types@U?$pair@$$CBVQString@@PAVuser@@@std@@@std@@@std@@@std@@QAEAAV01@XZ 00471f30 f i users.obj
 0001:00071010       ??E?$_Tree_unchecked_const_iterator@V?$_Tree_val@U?$_Tree_simple_types@U?$pair@$$CBVQString@@PAVuser@@@std@@@std@@@std@@U_Iterator_base12@2@@std@@QAEAAV01@XZ 00472010 f i users.obj
 0001:00071100       ??Eiterator@?$QList@VQString@@@@QAE?AV01@H@Z 00472100 f i users.obj
 0001:00071140       ??F?$_Tree_const_iterator@V?$_Tree_val@U?$_Tree_simple_types@U?$pair@$$CBVQString@@PAVuser@@@std@@@std@@@std@@@std@@QAEAAV01@XZ 00472140 f i users.obj
 0001:000712a0       ??F?$_Tree_iterator@V?$_Tree_val@U?$_Tree_simple_types@U?$pair@$$CBVQString@@PAVuser@@@std@@@std@@@std@@@std@@QAEAAV01@XZ 004722a0 f i users.obj
 0001:000712c0       ??F?$_Tree_unchecked_const_iterator@V?$_Tree_val@U?$_Tree_simple_types@U?$pair@$$CBVQString@@PAVuser@@@std@@@std@@@std@@U_Iterator_base12@2@@std@@QAEAAV01@XZ 004722c0 f i users.obj
 0001:000713f0       ??_G?$pair@$$CBVQString@@PAVuser@@@std@@QAEPAXI@Z 004723f0 f i users.obj
 0001:00071430       ??_Eusers@@UAEPAXI@Z       00472430 f i users.obj
 0001:00071430       ??_Gusers@@UAEPAXI@Z       00472430 f i users.obj
 0001:00071470       ?_Alloc_proxy@?$_List_alloc@$0A@U?$_List_base_types@V?$basic_string@DU?$char_traits@D@std@@V?$allocator@D@2@@std@@V?$allocator@V?$basic_string@DU?$char_traits@D@std@@V?$allocator@D@2@@std@@@2@@std@@@std@@QAEXXZ 00472470 f i users.obj
 0001:000714d0       ?_Alloc_proxy@?$_Tree_alloc@$0A@U?$_Tree_base_types@U?$pair@$$CBVQString@@PAVuser@@@std@@V?$allocator@U?$pair@$$CBVQString@@PAVuser@@@std@@@2@@std@@@std@@QAEXXZ 004724d0 f i users.obj
 0001:00071540       ?_Buyheadnode@?$_List_alloc@$0A@U?$_List_base_types@V?$basic_string@DU?$char_traits@D@std@@V?$allocator@D@2@@std@@V?$allocator@V?$basic_string@DU?$char_traits@D@std@@V?$allocator@D@2@@std@@@2@@std@@@std@@QAEPAU?$_List_node@V?$basic_string@DU?$char_traits@D@std@@V?$allocator@D@2@@std@@PAX@2@XZ 00472540 f i users.obj
 0001:00071560       ?_Buyheadnode@?$_Tree_alloc@$0A@U?$_Tree_base_types@U?$pair@$$CBVQString@@PAVuser@@@std@@V?$allocator@U?$pair@$$CBVQString@@PAVuser@@@std@@@2@@std@@@std@@QAEPAU?$_Tree_node@U?$pair@$$CBVQString@@PAVuser@@@std@@PAX@2@XZ 00472560 f i users.obj
 0001:00071720       ?_Buynode0@?$_Tree_buy@U?$pair@$$CBVQString@@PAVuser@@@std@@V?$allocator@U?$pair@$$CBVQString@@PAVuser@@@std@@@2@@std@@QAEPAU?$_Tree_node@U?$pair@$$CBVQString@@PAVuser@@@std@@PAX@2@XZ 00472720 f i users.obj
 0001:000718c0       ?_Color@?$_Tree_val@U?$_Tree_simple_types@U?$pair@$$CBVQString@@PAVuser@@@std@@@std@@@std@@SAAADPAU?$_Tree_node@U?$pair@$$CBVQString@@PAVuser@@@std@@PAX@2@@Z 004728c0 f i users.obj
 0001:000718d0       ?_Destroy_if_not_nil@?$_Tree@V?$_Tmap_traits@VQString@@PAVuser@@U?$less@VQString@@@std@@V?$allocator@U?$pair@$$CBVQString@@PAVuser@@@std@@@4@$0A@@std@@@std@@IAEXPAU?$_Tree_node@U?$pair@$$CBVQString@@PAVuser@@@std@@PAX@2@@Z 004728d0 f i users.obj
 0001:00071940       ?_Erase@?$_Tree@V?$_Tmap_traits@VQString@@PAVuser@@U?$less@VQString@@@std@@V?$allocator@U?$pair@$$CBVQString@@PAVuser@@@std@@@4@$0A@@std@@@std@@IAEXPAU?$_Tree_node@U?$pair@$$CBVQString@@PAVuser@@@std@@PAX@2@@Z 00472940 f i users.obj
 0001:00071a10       ?_Free_proxy@?$_List_alloc@$0A@U?$_List_base_types@V?$basic_string@DU?$char_traits@D@std@@V?$allocator@D@2@@std@@V?$allocator@V?$basic_string@DU?$char_traits@D@std@@V?$allocator@D@2@@std@@@2@@std@@@std@@QAEXXZ 00472a10 f i users.obj
 0001:00071a70       ?_Free_proxy@?$_Tree_alloc@$0A@U?$_Tree_base_types@U?$pair@$$CBVQString@@PAVuser@@@std@@V?$allocator@U?$pair@$$CBVQString@@PAVuser@@@std@@@2@@std@@@std@@QAEXXZ 00472a70 f i users.obj
 0001:00071ae0       ?_Freeheadnode@?$_List_alloc@$0A@U?$_List_base_types@V?$basic_string@DU?$char_traits@D@std@@V?$allocator@D@2@@std@@V?$allocator@V?$basic_string@DU?$char_traits@D@std@@V?$allocator@D@2@@std@@@2@@std@@@std@@QAEXPAU?$_List_node@V?$basic_string@DU?$char_traits@D@std@@V?$allocator@D@2@@std@@PAX@2@@Z 00472ae0 f i users.obj
 0001:00071b80       ?_Freeheadnode@?$_Tree_alloc@$0A@U?$_Tree_base_types@U?$pair@$$CBVQString@@PAVuser@@@std@@V?$allocator@U?$pair@$$CBVQString@@PAVuser@@@std@@@2@@std@@@std@@QAEXPAU?$_Tree_node@U?$pair@$$CBVQString@@PAVuser@@@std@@PAX@2@@Z 00472b80 f i users.obj
 0001:00071c50       ?_Freenode0@?$_Tree_buy@U?$pair@$$CBVQString@@PAVuser@@@std@@V?$allocator@U?$pair@$$CBVQString@@PAVuser@@@std@@@2@@std@@QAEXPAU?$_Tree_node@U?$pair@$$CBVQString@@PAVuser@@@std@@PAX@2@@Z 00472c50 f i users.obj
 0001:00071d20       ?_Freenode@?$_List_buy@V?$basic_string@DU?$char_traits@D@std@@V?$allocator@D@2@@std@@V?$allocator@V?$basic_string@DU?$char_traits@D@std@@V?$allocator@D@2@@std@@@2@@std@@QAEXPAU?$_List_node@V?$basic_string@DU?$char_traits@D@std@@V?$allocator@D@2@@std@@PAX@2@@Z 00472d20 f i users.obj
 0001:00071df0       ?_Getal@?$_Tree_alloc@$0A@U?$_Tree_base_types@U?$pair@$$CBVQString@@PAVuser@@@std@@V?$allocator@U?$pair@$$CBVQString@@PAVuser@@@std@@@2@@std@@@std@@QBE?AU?$_Wrap_alloc@V?$allocator@U?$_Tree_node@U?$pair@$$CBVQString@@PAVuser@@@std@@PAX@std@@@std@@@2@XZ 00472df0 f i users.obj
 0001:00071e10       ?_Getcomp@?$_Tree_comp@$0A@V?$_Tmap_traits@VQString@@PAVuser@@U?$less@VQString@@@std@@V?$allocator@U?$pair@$$CBVQString@@PAVuser@@@std@@@4@$0A@@std@@@std@@QBE?AU?$less@VQString@@@2@XZ 00472e10 f i users.obj
 0001:00071e30       ?_Incsize@?$list@PAVuser@@V?$allocator@PAVuser@@@std@@@std@@QAEXI@Z 00472e30 f i users.obj
 0001:00071e80       ?_Isnil@?$_Tree_val@U?$_Tree_simple_types@U?$pair@$$CBVQString@@PAVuser@@@std@@@std@@@std@@SAAADPAU?$_Tree_node@U?$pair@$$CBVQString@@PAVuser@@@std@@PAX@2@@Z 00472e80 f i users.obj
 0001:00071e90       ?_Key@?$_Tree@V?$_Tmap_traits@VQString@@PAVuser@@U?$less@VQString@@@std@@V?$allocator@U?$pair@$$CBVQString@@PAVuser@@@std@@@4@$0A@@std@@@std@@IBEABVQString@@PAU?$_Tree_node@U?$pair@$$CBVQString@@PAVuser@@@std@@PAX@2@@Z 00472e90 f i users.obj
 0001:00071ec0       ?_Kfn@?$_Tree@V?$_Tmap_traits@VQString@@PAVuser@@U?$less@VQString@@@std@@V?$allocator@U?$pair@$$CBVQString@@PAVuser@@@std@@@4@$0A@@std@@@std@@IBEABVQString@@ABU?$pair@$$CBVQString@@PAVuser@@@2@@Z 00472ec0 f i users.obj
 0001:00071ee0       ?_Lbound@?$_Tree@V?$_Tmap_traits@VQString@@PAVuser@@U?$less@VQString@@@std@@V?$allocator@U?$pair@$$CBVQString@@PAVuser@@@std@@@4@$0A@@std@@@std@@IAEPAU?$_Tree_node@U?$pair@$$CBVQString@@PAVuser@@@std@@PAX@2@ABVQString@@@Z 00472ee0 f i users.obj
 0001:00071fb0       ?_Left@?$_Tree_val@U?$_Tree_simple_types@U?$pair@$$CBVQString@@PAVuser@@@std@@@std@@@std@@SAAAPAU?$_Tree_node@U?$pair@$$CBVQString@@PAVuser@@@std@@PAX@2@PAU32@@Z 00472fb0 f i users.obj
 0001:00071fc0       ?_Lmost@?$_Tree@V?$_Tmap_traits@VQString@@PAVuser@@U?$less@VQString@@@std@@V?$allocator@U?$pair@$$CBVQString@@PAVuser@@@std@@@4@$0A@@std@@@std@@IBEAAPAU?$_Tree_node@U?$pair@$$CBVQString@@PAVuser@@@std@@PAX@2@XZ 00472fc0 f i users.obj
 0001:00071fe0       ?_Lrotate@?$_Tree@V?$_Tmap_traits@VQString@@PAVuser@@U?$less@VQString@@@std@@V?$allocator@U?$pair@$$CBVQString@@PAVuser@@@std@@@4@$0A@@std@@@std@@IAEXPAU?$_Tree_node@U?$pair@$$CBVQString@@PAVuser@@@std@@PAX@2@@Z 00472fe0 f i users.obj
 0001:00072160       ?_Max@?$_Tree_val@U?$_Tree_simple_types@U?$pair@$$CBVQString@@PAVuser@@@std@@@std@@@std@@SAPAU?$_Tree_node@U?$pair@$$CBVQString@@PAVuser@@@std@@PAX@2@PAU32@@Z 00473160 f i users.obj
 0001:000721b0       ?_Min@?$_Tree_val@U?$_Tree_simple_types@U?$pair@$$CBVQString@@PAVuser@@@std@@@std@@@std@@SAPAU?$_Tree_node@U?$pair@$$CBVQString@@PAVuser@@@std@@PAX@2@PAU32@@Z 004731b0 f i users.obj
 0001:00072200       ?_Mynode@?$_List_unchecked_const_iterator@V?$_List_val@U?$_List_simple_types@PAVuser@@@std@@@std@@U_Iterator_base0@2@@std@@QBEPAU?$_List_node@PAVuser@@PAX@2@XZ 00473200 f i users.obj
 0001:00072220       ?_Mynode@?$_Tree_unchecked_const_iterator@V?$_Tree_val@U?$_Tree_simple_types@U?$pair@$$CBVQString@@PAVuser@@@std@@@std@@@std@@U_Iterator_base12@2@@std@@QBEPAU?$_Tree_node@U?$pair@$$CBVQString@@PAVuser@@@std@@PAX@2@XZ 00473220 f i users.obj
 0001:00072240       ?_Myval@?$_Tree_val@U?$_Tree_simple_types@U?$pair@$$CBVQString@@PAVuser@@@std@@@std@@@std@@SAAAU?$pair@$$CBVQString@@PAVuser@@@2@PAU?$_Tree_node@U?$pair@$$CBVQString@@PAVuser@@@std@@PAX@2@@Z 00473240 f i users.obj
 0001:00072250       ?_Orphan_ptr@?$_Tree@V?$_Tmap_traits@VQString@@PAVuser@@U?$less@VQString@@@std@@V?$allocator@U?$pair@$$CBVQString@@PAVuser@@@std@@@4@$0A@@std@@@std@@IBEXAAV12@PAU?$_Tree_node@U?$pair@$$CBVQString@@PAVuser@@@std@@PAX@2@@Z 00473250 f i users.obj
 0001:00072350       ?_Orphan_ptr@?$list@V?$basic_string@DU?$char_traits@D@std@@V?$allocator@D@2@@std@@V?$allocator@V?$basic_string@DU?$char_traits@D@std@@V?$allocator@D@2@@std@@@2@@std@@QBEXAAV12@PAU?$_List_node@V?$basic_string@DU?$char_traits@D@std@@V?$allocator@D@2@@std@@PAX@2@@Z 00473350 f i users.obj
 0001:00072450       ?_Parent@?$_Tree_val@U?$_Tree_simple_types@U?$pair@$$CBVQString@@PAVuser@@@std@@@std@@@std@@SAAAPAU?$_Tree_node@U?$pair@$$CBVQString@@PAVuser@@@std@@PAX@2@PAU32@@Z 00473450 f i users.obj
 0001:00072460       ?_Right@?$_Tree_val@U?$_Tree_simple_types@U?$pair@$$CBVQString@@PAVuser@@@std@@@std@@@std@@SAAAPAU?$_Tree_node@U?$pair@$$CBVQString@@PAVuser@@@std@@PAX@2@PAU32@@Z 00473460 f i users.obj
 0001:00072470       ?_Rmost@?$_Tree@V?$_Tmap_traits@VQString@@PAVuser@@U?$less@VQString@@@std@@V?$allocator@U?$pair@$$CBVQString@@PAVuser@@@std@@@4@$0A@@std@@@std@@IBEAAPAU?$_Tree_node@U?$pair@$$CBVQString@@PAVuser@@@std@@PAX@2@XZ 00473470 f i users.obj
 0001:00072490       ?_Root@?$_Tree@V?$_Tmap_traits@VQString@@PAVuser@@U?$less@VQString@@@std@@V?$allocator@U?$pair@$$CBVQString@@PAVuser@@@std@@@4@$0A@@std@@@std@@IBEAAPAU?$_Tree_node@U?$pair@$$CBVQString@@PAVuser@@@std@@PAX@2@XZ 00473490 f i users.obj
 0001:000724b0       ?_Rrotate@?$_Tree@V?$_Tmap_traits@VQString@@PAVuser@@U?$less@VQString@@@std@@V?$allocator@U?$pair@$$CBVQString@@PAVuser@@@std@@@4@$0A@@std@@@std@@IAEXPAU?$_Tree_node@U?$pair@$$CBVQString@@PAVuser@@@std@@PAX@2@@Z 004734b0 f i users.obj
 0001:00072630       ?_Tidy@?$_Tree@V?$_Tmap_traits@VQString@@PAVuser@@U?$less@VQString@@@std@@V?$allocator@U?$pair@$$CBVQString@@PAVuser@@@std@@@4@$0A@@std@@@std@@IAEXXZ 00473630 f i users.obj
 0001:00072740       ?_Tidy@?$list@V?$basic_string@DU?$char_traits@D@std@@V?$allocator@D@2@@std@@V?$allocator@V?$basic_string@DU?$char_traits@D@std@@V?$allocator@D@2@@std@@@2@@std@@QAEXXZ 00473740 f i users.obj
 0001:00072760       ?_Unchecked_end@?$list@PAVuser@@V?$allocator@PAVuser@@@std@@@std@@QAE?AV?$_List_unchecked_iterator@V?$_List_val@U?$_List_simple_types@PAVuser@@@std@@@std@@@2@XZ 00473760 f i users.obj
 0001:00072790       ?allocate@?$_Wrap_alloc@V?$allocator@U?$_Tree_node@U?$pair@$$CBVQString@@PAVuser@@@std@@PAX@std@@@std@@@std@@QAEPAU?$_Tree_node@U?$pair@$$CBVQString@@PAVuser@@@std@@PAX@2@I@Z 00473790 f i users.obj
 0001:000727b0       ?allocate@?$allocator@U?$_Tree_node@U?$pair@$$CBVQString@@PAVuser@@@std@@PAX@std@@@std@@QAEPAU?$_Tree_node@U?$pair@$$CBVQString@@PAVuser@@@std@@PAX@2@I@Z 004737b0 f i users.obj
 0001:000727e0       ?begin@?$_Tree@V?$_Tmap_traits@VQString@@PAVuser@@U?$less@VQString@@@std@@V?$allocator@U?$pair@$$CBVQString@@PAVuser@@@std@@@4@$0A@@std@@@std@@QAE?AV?$_Tree_iterator@V?$_Tree_val@U?$_Tree_simple_types@U?$pair@$$CBVQString@@PAVuser@@@std@@@std@@@std@@@2@XZ 004737e0 f i users.obj
 0001:00072810       ?begin@?$list@V?$basic_string@DU?$char_traits@D@std@@V?$allocator@D@2@@std@@V?$allocator@V?$basic_string@DU?$char_traits@D@std@@V?$allocator@D@2@@std@@@2@@std@@QAE?AV?$_List_iterator@V?$_List_val@U?$_List_simple_types@V?$basic_string@DU?$char_traits@D@std@@V?$allocator@D@2@@std@@@std@@@std@@@2@XZ 00473810 f i users.obj
 0001:00072850       ?clear@?$_Tree@V?$_Tmap_traits@VQString@@PAVuser@@U?$less@VQString@@@std@@V?$allocator@U?$pair@$$CBVQString@@PAVuser@@@std@@@4@$0A@@std@@@std@@QAEXXZ 00473850 f i users.obj
 0001:000728d0       ?clear@?$list@V?$basic_string@DU?$char_traits@D@std@@V?$allocator@D@2@@std@@V?$allocator@V?$basic_string@DU?$char_traits@D@std@@V?$allocator@D@2@@std@@@2@@std@@QAEXXZ 004738d0 f i users.obj
 0001:00072990       ?deallocate@?$_Wrap_alloc@V?$allocator@U?$_Tree_node@U?$pair@$$CBVQString@@PAVuser@@@std@@PAX@std@@@std@@@std@@QAEXPAU?$_Tree_node@U?$pair@$$CBVQString@@PAVuser@@@std@@PAX@2@I@Z 00473990 f i users.obj
 0001:000729c0       ?deallocate@?$allocator@U?$_Tree_node@U?$pair@$$CBVQString@@PAVuser@@@std@@PAX@std@@@std@@QAEXPAU?$_Tree_node@U?$pair@$$CBVQString@@PAVuser@@@std@@PAX@2@I@Z 004739c0 f i users.obj
 0001:000729e0       ?end@?$_Tree@V?$_Tmap_traits@VQString@@PAVuser@@U?$less@VQString@@@std@@V?$allocator@U?$pair@$$CBVQString@@PAVuser@@@std@@@4@$0A@@std@@@std@@QAE?AV?$_Tree_iterator@V?$_Tree_val@U?$_Tree_simple_types@U?$pair@$$CBVQString@@PAVuser@@@std@@@std@@@std@@@2@XZ 004739e0 f i users.obj
 0001:00072a10       ?end@?$list@V?$basic_string@DU?$char_traits@D@std@@V?$allocator@D@2@@std@@V?$allocator@V?$basic_string@DU?$char_traits@D@std@@V?$allocator@D@2@@std@@@2@@std@@QAE?AV?$_List_iterator@V?$_List_val@U?$_List_simple_types@V?$basic_string@DU?$char_traits@D@std@@V?$allocator@D@2@@std@@@std@@@std@@@2@XZ 00473a10 f i users.obj
 0001:00072a40       ?erase@?$_Tree@V?$_Tmap_traits@VQString@@PAVuser@@U?$less@VQString@@@std@@V?$allocator@U?$pair@$$CBVQString@@PAVuser@@@std@@@4@$0A@@std@@@std@@QAE?AV?$_Tree_iterator@V?$_Tree_val@U?$_Tree_simple_types@U?$pair@$$CBVQString@@PAVuser@@@std@@@std@@@std@@@2@V?$_Tree_const_iterator@V?$_Tree_val@U?$_Tree_simple_types@U?$pair@$$CBVQString@@PAVuser@@@std@@@std@@@std@@@2@0@Z 00473a40 f i users.obj
 0001:00072ca0       ?erase@?$_Tree@V?$_Tmap_traits@VQString@@PAVuser@@U?$less@VQString@@@std@@V?$allocator@U?$pair@$$CBVQString@@PAVuser@@@std@@@4@$0A@@std@@@std@@QAE?AV?$_Tree_iterator@V?$_Tree_val@U?$_Tree_simple_types@U?$pair@$$CBVQString@@PAVuser@@@std@@@std@@@std@@@2@V?$_Tree_const_iterator@V?$_Tree_val@U?$_Tree_simple_types@U?$pair@$$CBVQString@@PAVuser@@@std@@@std@@@std@@@2@@Z 00473ca0 f i users.obj
 0001:000736c0       ?find@?$_Tree@V?$_Tmap_traits@VQString@@PAVuser@@U?$less@VQString@@@std@@V?$allocator@U?$pair@$$CBVQString@@PAVuser@@@std@@@4@$0A@@std@@@std@@QAE?AV?$_Tree_iterator@V?$_Tree_val@U?$_Tree_simple_types@U?$pair@$$CBVQString@@PAVuser@@@std@@@std@@@std@@@2@ABVQString@@@Z 004746c0 f i users.obj
 0001:000738d0       ?lower_bound@?$_Tree@V?$_Tmap_traits@VQString@@PAVuser@@U?$less@VQString@@@std@@V?$allocator@U?$pair@$$CBVQString@@PAVuser@@@std@@@4@$0A@@std@@@std@@QAE?AV?$_Tree_iterator@V?$_Tree_val@U?$_Tree_simple_types@U?$pair@$$CBVQString@@PAVuser@@@std@@@std@@@std@@@2@ABVQString@@@Z 004748d0 f i users.obj
 0001:00073920       ?max_size@?$_Tree@V?$_Tmap_traits@VQString@@PAVuser@@U?$less@VQString@@@std@@V?$allocator@U?$pair@$$CBVQString@@PAVuser@@@std@@@4@$0A@@std@@@std@@QBEIXZ 00474920 f i users.obj
 0001:00073950       ?max_size@?$_Wrap_alloc@V?$allocator@U?$_List_node@PAVuser@@PAX@std@@@std@@@std@@QBEIXZ 00474950 f i users.obj
 0001:00073970       ?max_size@?$_Wrap_alloc@V?$allocator@U?$_Tree_node@U?$pair@$$CBVQString@@PAVuser@@@std@@PAX@std@@@std@@@std@@QBEIXZ 00474970 f i users.obj
 0001:00073990       ?max_size@?$allocator@U?$_List_node@PAVuser@@PAX@std@@@std@@QBEIXZ 00474990 f i users.obj
 0001:000739b0       ?max_size@?$allocator@U?$_Tree_node@U?$pair@$$CBVQString@@PAVuser@@@std@@PAX@std@@@std@@QBEIXZ 004749b0 f i users.obj
 0001:000739d0       ?max_size@?$allocator_traits@V?$allocator@U?$_List_node@PAVuser@@PAX@std@@@std@@@std@@SAIABV?$allocator@U?$_List_node@PAVuser@@PAX@std@@@2@@Z 004749d0 f i users.obj
 0001:000739e0       ?max_size@?$allocator_traits@V?$allocator@U?$_Tree_node@U?$pair@$$CBVQString@@PAVuser@@@std@@PAX@std@@@std@@@std@@SAIABV?$allocator@U?$_Tree_node@U?$pair@$$CBVQString@@PAVuser@@@std@@PAX@std@@@2@@Z 004749e0 f i users.obj
 0001:000739f0       ?max_size@?$list@PAVuser@@V?$allocator@PAVuser@@@std@@@std@@QBEIXZ 004749f0 f i users.obj
 0001:00073a20       ?pointer_to@?$pointer_traits@PAU?$pair@$$CBVQString@@PAVuser@@@std@@@std@@SAPAU?$pair@$$CBVQString@@PAVuser@@@2@AAU32@@Z 00474a20 f i users.obj
 0001:00073a40       ?pointer_to@?$pointer_traits@PBU?$pair@$$CBVQString@@PAVuser@@@std@@@std@@SAPBU?$pair@$$CBVQString@@PAVuser@@@2@ABU32@@Z 00474a40 f i users.obj
 0001:00073a60       ?push_back@?$list@PAVuser@@V?$allocator@PAVuser@@@std@@@std@@QAEXABQAVuser@@@Z 00474a60 f i users.obj
 0001:00073aa0       ?size@?$_Tree@V?$_Tmap_traits@VQString@@PAVuser@@U?$less@VQString@@@std@@V?$allocator@U?$pair@$$CBVQString@@PAVuser@@@std@@@4@$0A@@std@@@std@@QBEIXZ 00474aa0 f i users.obj
 0001:000743c0       ??0whiteBlackListEditDialog@@QAE@PAV?$set@VQString@@U?$less@VQString@@@std@@V?$allocator@VQString@@@3@@std@@0@Z 004753c0 f   whiteBlackListEditDialog.obj
 0001:00074580       ??1whiteBlackListEditDialog@@UAE@XZ 00475580 f   whiteBlackListEditDialog.obj
 0001:000745b0       ?accept@whiteBlackListEditDialog@@UAEXXZ 004755b0 f   whiteBlackListEditDialog.obj
 0001:00074f40       ?validateIpEntries@whiteBlackListEditDialog@@AAE?AVQString@@PAVQTextEdit@@@Z 00475f40 f   whiteBlackListEditDialog.obj
 0001:0007569c       ??_EwhiteBlackListEditDialog@@W7AEPAXI@Z 0047669c f i whiteBlackListEditDialog.obj
 0001:000756b0       ??_EwhiteBlackListEditDialog@@UAEPAXI@Z 004766b0 f i whiteBlackListEditDialog.obj
 0001:000756b0       ??_GwhiteBlackListEditDialog@@UAEPAXI@Z 004766b0 f i whiteBlackListEditDialog.obj
 0001:000756f0       ?retranslateUi@Ui_whiteBlackListEdit@@QAEXPAVQDialog@@@Z 004766f0 f i whiteBlackListEditDialog.obj
 0001:00075a30       ?setupUi@Ui_whiteBlackListEdit@@QAEXPAVQDialog@@@Z 00476a30 f i whiteBlackListEditDialog.obj
 0001:00077176       _GetFileVersionInfoSizeA@8 00478176 f   version:VERSION.dll
 0001:0007717c       _GetFileVersionInfoA@16    0047817c f   version:VERSION.dll
 0001:00077182       _VerQueryValueA@16         00478182 f   version:VERSION.dll
 0001:00077188       ??0QChar@@QAE@UQLatin1Char@@@Z 00478188 f   Qt5Cored:Qt5Cored.dll
 0001:0007718e       ??1QByteArray@@QAE@XZ      0047818e f   Qt5Cored:Qt5Cored.dll
 0001:00077194       ??BQByteArray@@QBEPBDXZ    00478194 f   Qt5Cored:Qt5Cored.dll
 0001:0007719a       ??0QString@@QAE@XZ         0047819a f   Qt5Cored:Qt5Cored.dll
 0001:000771a0       ??0QString@@QAE@ABV0@@Z    004781a0 f   Qt5Cored:Qt5Cored.dll
 0001:000771a6       ??1QString@@QAE@XZ         004781a6 f   Qt5Cored:Qt5Cored.dll
 0001:000771ac       ??4QString@@QAEAAV0@ABV0@@Z 004781ac f   Qt5Cored:Qt5Cored.dll
 0001:000771b2       ??0QString@@QAE@$$QAV0@@Z  004781b2 f   Qt5Cored:Qt5Cored.dll
 0001:000771b8       ??4QString@@QAEAAV0@$$QAV0@@Z 004781b8 f   Qt5Cored:Qt5Cored.dll
 0001:000771be       ?length@QString@@QBEHXZ    004781be f   Qt5Cored:Qt5Cored.dll
 0001:000771c4       ?arg@QString@@QBE?AV1@ABV1@HVQChar@@@Z 004781c4 f   Qt5Cored:Qt5Cored.dll
 0001:000771ca       ??YQString@@QAEAAV0@ABV0@@Z 004781ca f   Qt5Cored:Qt5Cored.dll
 0001:000771d0       ?toLatin1@QString@@QBE?AVQByteArray@@XZ 004781d0 f   Qt5Cored:Qt5Cored.dll
 0001:000771d6       ?fromUtf8@QString@@SA?AV1@PBDH@Z 004781d6 f   Qt5Cored:Qt5Cored.dll
 0001:000771dc       ??0QString@@QAE@PBD@Z      004781dc f   Qt5Cored:Qt5Cored.dll
 0001:000771e2       ??4QString@@QAEAAV0@PBD@Z  004781e2 f   Qt5Cored:Qt5Cored.dll
 0001:000771e8       ??1QDateTime@@QAE@XZ       004781e8 f   Qt5Cored:Qt5Cored.dll
 0001:000771ee       ?toString@QDateTime@@QBE?AVQString@@ABV2@@Z 004781ee f   Qt5Cored:Qt5Cored.dll
 0001:000771f4       ?currentDateTime@QDateTime@@SA?AV1@XZ 004781f4 f   Qt5Cored:Qt5Cored.dll
 0001:000771fa       ??0QDir@@QAE@ABVQString@@@Z 004781fa f   Qt5Cored:Qt5Cored.dll
 0001:00077200       ??1QDir@@QAE@XZ            00478200 f   Qt5Cored:Qt5Cored.dll
 0001:00077206       ?mkdir@QDir@@QBE_NABVQString@@@Z 00478206 f   Qt5Cored:Qt5Cored.dll
 0001:0007720c       ?exists@QDir@@QBE_NXZ      0047820c f   Qt5Cored:Qt5Cored.dll
 0001:00077212       ?qt_assert_x@@YAXPBD00H@Z  00478212 f   Qt5Cored:Qt5Cored.dll
 0001:00077218       ??0QMessageLogger@@QAE@PBDH0@Z 00478218 f   Qt5Cored:Qt5Cored.dll
 0001:0007721e       ?debug@QMessageLogger@@QBAXPBDZZ 0047821e f   Qt5Cored:Qt5Cored.dll
 0001:00077224       ??0QChar@@QAE@H@Z          00478224 f   Qt5Cored:Qt5Cored.dll
 0001:0007722a       ?arg@QString@@QBE?AV1@HHHVQChar@@@Z 0047822a f   Qt5Cored:Qt5Cored.dll
 0001:00077230       ?arg@QString@@QBE?AV1@IHHVQChar@@@Z 00478230 f   Qt5Cored:Qt5Cored.dll
 0001:00077236       ?split@QString@@QBE?AVQStringList@@VQChar@@W4SplitBehavior@1@W4CaseSensitivity@Qt@@@Z 00478236 f   Qt5Cored:Qt5Cored.dll
 0001:0007723c       ?toUInt@QString@@QBEIPA_NH@Z 0047823c f   Qt5Cored:Qt5Cored.dll
 0001:00077242       ?detach@QListData@@QAEPAUData@1@H@Z 00478242 f   Qt5Cored:Qt5Cored.dll
 0001:00077248       ?dispose@QListData@@QAEXXZ 00478248 f   Qt5Cored:Qt5Cored.dll
 0001:0007724e       ?dispose@QListData@@SAXPAUData@1@@Z 0047824e f   Qt5Cored:Qt5Cored.dll
 0001:00077254       ?size@QListData@@QBEHXZ    00478254 f   Qt5Cored:Qt5Cored.dll
 0001:0007725a       ?at@QListData@@QBEPAPAXH@Z 0047825a f   Qt5Cored:Qt5Cored.dll
 0001:00077260       ?begin@QListData@@QBEPAPAXXZ 00478260 f   Qt5Cored:Qt5Cored.dll
 0001:00077266       ?end@QListData@@QBEPAPAXXZ 00478266 f   Qt5Cored:Qt5Cored.dll
 0001:0007726c       ?qFlagLocation@@YAPBDPBD@Z 0047826c f   Qt5Cored:Qt5Cored.dll
 0001:00077272       ??1Connection@QMetaObject@@QAE@XZ 00478272 f   Qt5Cored:Qt5Cored.dll
 0001:00077278       ??8@YA_NABVQString@@0@Z    00478278 f   Qt5Cored:Qt5Cored.dll
 0001:0007727e       ?connect@QObject@@SA?AVConnection@QMetaObject@@PBV1@PBD01W4ConnectionType@Qt@@@Z 0047827e f   Qt5Cored:Qt5Cored.dll
 0001:00077284       ?deleteLater@QObject@@QAEXXZ 00478284 f   Qt5Cored:Qt5Cored.dll
 0001:0007728a       ?sender@QObject@@IBEPAV1@XZ 0047828a f   Qt5Cored:Qt5Cored.dll
 0001:00077290       ?childEvent@QObject@@MAEXPAVQChildEvent@@@Z 00478290 f   Qt5Cored:Qt5Cored.dll
 0001:00077296       ?connectNotify@QObject@@MAEXABVQMetaMethod@@@Z 00478296 f   Qt5Cored:Qt5Cored.dll
 0001:0007729c       ?customEvent@QObject@@MAEXPAVQEvent@@@Z 0047829c f   Qt5Cored:Qt5Cored.dll
 0001:000772a2       ?disconnectNotify@QObject@@MAEXABVQMetaMethod@@@Z 004782a2 f   Qt5Cored:Qt5Cored.dll
 0001:000772a8       ?event@QObject@@UAE_NPAVQEvent@@@Z 004782a8 f   Qt5Cored:Qt5Cored.dll
 0001:000772ae       ?eventFilter@QObject@@UAE_NPAV1@PAVQEvent@@@Z 004782ae f   Qt5Cored:Qt5Cored.dll
 0001:000772b4       ?timerEvent@QObject@@MAEXPAVQTimerEvent@@@Z 004782b4 f   Qt5Cored:Qt5Cored.dll
 0001:000772ba       ?debug@QMessageLogger@@QBE?AVQDebug@@XZ 004782ba f   Qt5Cored:Qt5Cored.dll
 0001:000772c0       ??0QByteArray@@QAE@XZ      004782c0 f   Qt5Cored:Qt5Cored.dll
 0001:000772c6       ?constData@QString@@QBEPBVQChar@@XZ 004782c6 f   Qt5Cored:Qt5Cored.dll
 0001:000772cc       ??AQString@@QAE?AVQCharRef@@H@Z 004782cc f   Qt5Cored:Qt5Cored.dll
 0001:000772d2       ?arg@QString@@QBE?AV1@_KHHVQChar@@@Z 004782d2 f   Qt5Cored:Qt5Cored.dll
 0001:000772d8       ?arg@QString@@QBE?AV1@GHHVQChar@@@Z 004782d8 f   Qt5Cored:Qt5Cored.dll
 0001:000772de       ?arg@QString@@QBE?AV1@VQChar@@H0@Z 004782de f   Qt5Cored:Qt5Cored.dll
 0001:000772e4       ?right@QString@@QBE?AV1@H@Z 004782e4 f   Qt5Cored:Qt5Cored.dll
 0001:000772ea       ?startsWith@QString@@QBE_NABV1@W4CaseSensitivity@Qt@@@Z 004782ea f   Qt5Cored:Qt5Cored.dll
 0001:000772f0       ?toLower@QString@@QBE?AV1@XZ 004782f0 f   Qt5Cored:Qt5Cored.dll
 0001:000772f6       ?append@QString@@QAEAAV1@ABV1@@Z 004782f6 f   Qt5Cored:Qt5Cored.dll
 0001:000772fc       ?toLocal8Bit@QString@@QBE?AVQByteArray@@XZ 004782fc f   Qt5Cored:Qt5Cored.dll
 0001:00077302       ??8QString@@QBE_NPBD@Z     00478302 f   Qt5Cored:Qt5Cored.dll
 0001:00077308       ?toStdString@QString@@QBE?AV?$basic_string@DU?$char_traits@D@std@@V?$allocator@D@2@@std@@XZ 00478308 f   Qt5Cored:Qt5Cored.dll
 0001:0007730e       ??BQCharRef@@QBE?AVQChar@@XZ 0047830e f   Qt5Cored:Qt5Cored.dll
 0001:00077314       ?toLatin1@QCharRef@@QBEDXZ 00478314 f   Qt5Cored:Qt5Cored.dll
 0001:0007731a       ?detach_grow@QListData@@QAEPAUData@1@PAHH@Z 0047831a f   Qt5Cored:Qt5Cored.dll
 0001:00077320       ?append@QListData@@QAEPAPAXXZ 00478320 f   Qt5Cored:Qt5Cored.dll
 0001:00077326       ?QStringList_join@QtPrivate@@YA?AVQString@@PBVQStringList@@PBVQChar@@H@Z 00478326 f   Qt5Cored:Qt5Cored.dll
 0001:0007732c       ??0QObject@@QAE@PAV0@@Z    0047832c f   Qt5Cored:Qt5Cored.dll
 0001:00077332       ??1QObject@@UAE@XZ         00478332 f   Qt5Cored:Qt5Cored.dll
 0001:00077338       ?startTimer@QObject@@QAEHHW4TimerType@Qt@@@Z 00478338 f   Qt5Cored:Qt5Cored.dll
 0001:0007733e       ?read@QIODevice@@QAE_JPAD_J@Z 0047833e f   Qt5Cored:Qt5Cored.dll
 0001:00077344       ?write@QIODevice@@QAE_JPBD_J@Z 00478344 f   Qt5Cored:Qt5Cored.dll
 0001:0007734a       ?write@QIODevice@@QAE_JPBD@Z 0047834a f   Qt5Cored:Qt5Cored.dll
 0001:00077350       ?write@QIODevice@@QAE_JABVQByteArray@@@Z 00478350 f   Qt5Cored:Qt5Cored.dll
 0001:00077356       ??1QVariant@@QAE@XZ        00478356 f   Qt5Cored:Qt5Cored.dll
 0001:0007735c       ??0QVariant@@QAE@_N@Z      0047835c f   Qt5Cored:Qt5Cored.dll
 0001:00077362       ??1QDebug@@QAE@XZ          00478362 f   Qt5Cored:Qt5Cored.dll
 0001:00077368       ??6QDebug@@QAEAAV0@PBD@Z   00478368 f   Qt5Cored:Qt5Cored.dll
 0001:0007736e       ??6QDebug@@QAEAAV0@ABVQString@@@Z 0047836e f   Qt5Cored:Qt5Cored.dll
 0001:00077374       ?timerId@QTimerEvent@@QBEHXZ 00478374 f   Qt5Cored:Qt5Cored.dll
 0001:0007737a       ?close@QFileDevice@@UAEXXZ 0047837a f   Qt5Cored:Qt5Cored.dll
 0001:00077380       ??0QFile@@QAE@ABVQString@@@Z 00478380 f   Qt5Cored:Qt5Cored.dll
 0001:00077386       ??1QFile@@UAE@XZ           00478386 f   Qt5Cored:Qt5Cored.dll
 0001:0007738c       ?fileName@QFile@@UBE?AVQString@@XZ 0047838c f   Qt5Cored:Qt5Cored.dll
 0001:00077392       ?open@QFile@@UAE_NV?$QFlags@W4OpenModeFlag@QIODevice@@@@@Z 00478392 f   Qt5Cored:Qt5Cored.dll
 0001:00077398       ?open@QIODevice@@UAE_NV?$QFlags@W4OpenModeFlag@QIODevice@@@@@Z 00478398 f   Qt5Cored:Qt5Cored.dll
 0001:0007739e       ?pos@QIODevice@@UBE_JXZ    0047839e f   Qt5Cored:Qt5Cored.dll
 0001:000773a4       ?reset@QIODevice@@UAE_NXZ  004783a4 f   Qt5Cored:Qt5Cored.dll
 0001:000773aa       ?seek@QIODevice@@UAE_N_J@Z 004783aa f   Qt5Cored:Qt5Cored.dll
 0001:000773b0       ?size@QIODevice@@UBE_JXZ   004783b0 f   Qt5Cored:Qt5Cored.dll
 0001:000773b6       ?dynamicMetaObject@QObjectData@@QBEPAUQMetaObject@@XZ 004783b6 f   Qt5Cored:Qt5Cored.dll
 0001:000773bc       ?normalizedType@QMetaObject@@SA?AVQByteArray@@PBD@Z 004783bc f   Qt5Cored:Qt5Cored.dll
 0001:000773c2       ?activate@QMetaObject@@SAXPAVQObject@@PBU1@HPAPAX@Z 004783c2 f   Qt5Cored:Qt5Cored.dll
 0001:000773c8       ?size@QByteArray@@QBEHXZ   004783c8 f   Qt5Cored:Qt5Cored.dll
 0001:000773ce       ?constData@QByteArray@@QBEPBDXZ 004783ce f   Qt5Cored:Qt5Cored.dll
 0001:000773d4       ?registerNormalizedType@QMetaType@@SAHABVQByteArray@@P6AXPAX@ZP6APAX1PBX@ZHV?$QFlags@W4TypeFlag@QMetaType@@@@PBUQMetaObject@@@Z 004783d4 f   Qt5Cored:Qt5Cored.dll
 0001:000773da       ?registerNormalizedTypedef@QMetaType@@SAHABVQByteArray@@H@Z 004783da f   Qt5Cored:Qt5Cored.dll
 0001:000773e0       ?qt_metacast@QObject@@UAEPAXPBD@Z 004783e0 f   Qt5Cored:Qt5Cored.dll
 0001:000773e6       ?qt_metacall@QObject@@UAEHW4Call@QMetaObject@@HPAPAX@Z 004783e6 f   Qt5Cored:Qt5Cored.dll
 0001:000773ec       ?setLibraryPaths@QCoreApplication@@SAXABVQStringList@@@Z 004783ec f   Qt5Cored:Qt5Cored.dll
 0001:000773f2       ?qt_assert@@YAXPBD0H@Z     004783f2 f   Qt5Cored:Qt5Cored.dll
 0001:000773f8       ?connectSlotsByName@QMetaObject@@SAXPAVQObject@@@Z 004783f8 f   Qt5Cored:Qt5Cored.dll
 0001:000773fe       ??0QChar@@QAE@D@Z          004783fe f   Qt5Cored:Qt5Cored.dll
 0001:00077404       ?data@QByteArray@@QAEPADXZ 00478404 f   Qt5Cored:Qt5Cored.dll
 0001:0007740a       ?toHex@QByteArray@@QBE?AV1@XZ 0047840a f   Qt5Cored:Qt5Cored.dll
 0001:00077410       ?isEmpty@QString@@QBE_NXZ  00478410 f   Qt5Cored:Qt5Cored.dll
 0001:00077416       ?arg@QString@@QBE?AV1@DHVQChar@@@Z 00478416 f   Qt5Cored:Qt5Cored.dll
 0001:0007741c       ?replace@QString@@QAEAAV1@ABV1@0W4CaseSensitivity@Qt@@@Z 0047841c f   Qt5Cored:Qt5Cored.dll
 0001:00077422       ?split@QString@@QBE?AVQStringList@@ABV1@W4SplitBehavior@1@W4CaseSensitivity@Qt@@@Z 00478422 f   Qt5Cored:Qt5Cored.dll
 0001:00077428       ??M@YA_NABVQString@@0@Z    00478428 f   Qt5Cored:Qt5Cored.dll
 0001:0007742e       ??9QString@@QBE_NPBD@Z     0047842e f   Qt5Cored:Qt5Cored.dll
 0001:00077434       ??0QString@@QAE@UQStringDataPtr@@@Z 00478434 f   Qt5Cored:Qt5Cored.dll
 0001:0007743a       ?objectName@QObject@@QBE?AVQString@@XZ 0047843a f   Qt5Cored:Qt5Cored.dll
 0001:00077440       ?setObjectName@QObject@@QAEXABVQString@@@Z 00478440 f   Qt5Cored:Qt5Cored.dll
 0001:00077446       ?killTimer@QObject@@QAEXH@Z 00478446 f   Qt5Cored:Qt5Cored.dll
 0001:0007744c       ??0QSize@@QAE@HH@Z         0047844c f   Qt5Cored:Qt5Cored.dll
 0001:00077452       ??0QRect@@QAE@HHHH@Z       00478452 f   Qt5Cored:Qt5Cored.dll
 0001:00077458       ?arguments@QCoreApplication@@SA?AVQStringList@@XZ 00478458 f   Qt5Cored:Qt5Cored.dll
 0001:0007745e       ?translate@QCoreApplication@@SA?AVQString@@PBD00H@Z 0047845e f   Qt5Cored:Qt5Cored.dll
 0001:00077464       ??6QDebug@@QAEAAV0@H@Z     00478464 f   Qt5Cored:Qt5Cored.dll
 0001:0007746a       ??6QDebug@@QAEAAV0@I@Z     0047846a f   Qt5Cored:Qt5Cored.dll
 0001:00077470       ??0QCryptographicHash@@QAE@W4Algorithm@0@@Z 00478470 f   Qt5Cored:Qt5Cored.dll
 0001:00077476       ??1QCryptographicHash@@QAE@XZ 00478476 f   Qt5Cored:Qt5Cored.dll
 0001:0007747c       ?addData@QCryptographicHash@@QAEXPBDH@Z 0047847c f   Qt5Cored:Qt5Cored.dll
 0001:00077482       ?result@QCryptographicHash@@QBE?AVQByteArray@@XZ 00478482 f   Qt5Cored:Qt5Cored.dll
 0001:00077488       ?toInt@QString@@QBEHPA_NH@Z 00478488 f   Qt5Cored:Qt5Cored.dll
 0001:0007748e       ?simplified@QString@@QBE?AV1@XZ 0047848e f   Qt5Cored:Qt5Cored.dll
 0001:00077494       ?contains@QString@@QBE_NABV1@W4CaseSensitivity@Qt@@@Z 00478494 f   Qt5Cored:Qt5Cored.dll
 0001:0007749a       ?fromStdString@QString@@SA?AV1@ABV?$basic_string@DU?$char_traits@D@std@@V?$allocator@D@2@@std@@@Z 0047849a f   Qt5Cored:Qt5Cored.dll
 0001:000774a0       ??YQString@@QAEAAV0@PBD@Z  004784a0 f   Qt5Cored:Qt5Cored.dll
 0001:000774a6       ?setMaximumBlockCount@QTextDocument@@QAEXH@Z 004784a6 f   Qt5Guid:Qt5Guid.dll
 0001:000774ac       ??0QPixmap@@QAE@QBQBD@Z    004784ac f   Qt5Guid:Qt5Guid.dll
 0001:000774b2       ??1QPixmap@@UAE@XZ         004784b2 f   Qt5Guid:Qt5Guid.dll
 0001:000774b8       ??0QKeySequence@@QAE@ABVQString@@W4SequenceFormat@0@@Z 004784b8 f   Qt5Guid:Qt5Guid.dll
 0001:000774be       ??1QKeySequence@@QAE@XZ    004784be f   Qt5Guid:Qt5Guid.dll
 0001:000774c4       ??0QIcon@@QAE@ABVQPixmap@@@Z 004784c4 f   Qt5Guid:Qt5Guid.dll
 0001:000774ca       ??1QIcon@@QAE@XZ           004784ca f   Qt5Guid:Qt5Guid.dll
 0001:000774d0       ?clone@QTextDocument@@QBEPAV1@PAVQObject@@@Z 004784d0 f   Qt5Guid:Qt5Guid.dll
 0001:000774d6       ?begin@QTextDocument@@QBE?AVQTextBlock@@XZ 004784d6 f   Qt5Guid:Qt5Guid.dll
 0001:000774dc       ?end@QTextDocument@@QBE?AVQTextBlock@@XZ 004784dc f   Qt5Guid:Qt5Guid.dll
 0001:000774e2       ??4QTextBlock@@QAEAAV0@ABV0@@Z 004784e2 f   Qt5Guid:Qt5Guid.dll
 0001:000774e8       ??9QTextBlock@@QBE_NABV0@@Z 004784e8 f   Qt5Guid:Qt5Guid.dll
 0001:000774ee       ?text@QTextBlock@@QBE?AVQString@@XZ 004784ee f   Qt5Guid:Qt5Guid.dll
 0001:000774f4       ?next@QTextBlock@@QBE?AV1@XZ 004784f4 f   Qt5Guid:Qt5Guid.dll
 0001:000774fa       ??1QHostAddress@@QAE@XZ    004784fa f   Qt5Networkd:Qt5Networkd.dll
 0001:00077500       ?toString@QHostAddress@@QBE?AVQString@@XZ 00478500 f   Qt5Networkd:Qt5Networkd.dll
 0001:00077506       ?isInSubnet@QHostAddress@@QBE_NABU?$QPair@VQHostAddress@@H@@@Z 00478506 f   Qt5Networkd:Qt5Networkd.dll
 0001:0007750c       ?parseSubnet@QHostAddress@@SA?AU?$QPair@VQHostAddress@@H@@ABVQString@@@Z 0047850c f   Qt5Networkd:Qt5Networkd.dll
 0001:00077512       ??0QTcpServer@@QAE@PAVQObject@@@Z 00478512 f   Qt5Networkd:Qt5Networkd.dll
 0001:00077518       ??1QTcpServer@@UAE@XZ      00478518 f   Qt5Networkd:Qt5Networkd.dll
 0001:0007751e       ?listen@QTcpServer@@QAE_NABVQHostAddress@@G@Z 0047851e f   Qt5Networkd:Qt5Networkd.dll
 0001:00077524       ?errorString@QTcpServer@@QBE?AVQString@@XZ 00478524 f   Qt5Networkd:Qt5Networkd.dll
 0001:0007752a       ?setProxy@QTcpServer@@QAEXABVQNetworkProxy@@@Z 0047852a f   Qt5Networkd:Qt5Networkd.dll
 0001:00077530       ??0QNetworkProxy@@QAE@W4ProxyType@0@ABVQString@@G11@Z 00478530 f   Qt5Networkd:Qt5Networkd.dll
 0001:00077536       ??1QNetworkProxy@@QAE@XZ   00478536 f   Qt5Networkd:Qt5Networkd.dll
 0001:0007753c       ?hasPendingConnections@QTcpServer@@UBE_NXZ 0047853c f   Qt5Networkd:Qt5Networkd.dll
 0001:00077542       ?nextPendingConnection@QTcpServer@@UAEPAVQTcpSocket@@XZ 00478542 f   Qt5Networkd:Qt5Networkd.dll
 0001:00077548       ?localPort@QAbstractSocket@@QBEGXZ 00478548 f   Qt5Networkd:Qt5Networkd.dll
 0001:0007754e       ?peerPort@QAbstractSocket@@QBEGXZ 0047854e f   Qt5Networkd:Qt5Networkd.dll
 0001:00077554       ?peerAddress@QAbstractSocket@@QBE?AVQHostAddress@@XZ 00478554 f   Qt5Networkd:Qt5Networkd.dll
 0001:0007755a       ??0QSslCertificate@@QAE@PAVQIODevice@@W4EncodingFormat@QSsl@@@Z 0047855a f   Qt5Networkd:Qt5Networkd.dll
 0001:00077560       ??1QSslCertificate@@QAE@XZ 00478560 f   Qt5Networkd:Qt5Networkd.dll
 0001:00077566       ?isNull@QSslCertificate@@QBE_NXZ 00478566 f   Qt5Networkd:Qt5Networkd.dll
 0001:0007756c       ?issuerInfo@QSslCertificate@@QBE?AVQStringList@@W4SubjectInfo@1@@Z 0047856c f   Qt5Networkd:Qt5Networkd.dll
 0001:00077572       ??0QSslError@@QAE@ABV0@@Z  00478572 f   Qt5Networkd:Qt5Networkd.dll
 0001:00077578       ??1QSslError@@QAE@XZ       00478578 f   Qt5Networkd:Qt5Networkd.dll
 0001:0007757e       ?errorString@QSslError@@QBE?AVQString@@XZ 0047857e f   Qt5Networkd:Qt5Networkd.dll
 0001:00077584       ??0QSslSocket@@QAE@PAVQObject@@@Z 00478584 f   Qt5Networkd:Qt5Networkd.dll
 0001:0007758a       ??1QSslSocket@@UAE@XZ      0047858a f   Qt5Networkd:Qt5Networkd.dll
 0001:00077590       ?protocol@QSslSocket@@QBE?AW4SslProtocol@QSsl@@XZ 00478590 f   Qt5Networkd:Qt5Networkd.dll
 0001:00077596       ?setSslConfiguration@QSslSocket@@QAEXABVQSslConfiguration@@@Z 00478596 f   Qt5Networkd:Qt5Networkd.dll
 0001:0007759c       ?localCertificate@QSslSocket@@QBE?AVQSslCertificate@@XZ 0047859c f   Qt5Networkd:Qt5Networkd.dll
 0001:000775a2       ?sessionCipher@QSslSocket@@QBE?AVQSslCipher@@XZ 004785a2 f   Qt5Networkd:Qt5Networkd.dll
 0001:000775a8       ?privateKey@QSslSocket@@QBE?AVQSslKey@@XZ 004785a8 f   Qt5Networkd:Qt5Networkd.dll
 0001:000775ae       ?startServerEncryption@QSslSocket@@QAEXXZ 004785ae f   Qt5Networkd:Qt5Networkd.dll
 0001:000775b4       ??0QHostAddress@@QAE@XZ    004785b4 f   Qt5Networkd:Qt5Networkd.dll
 0001:000775ba       ??4QHostAddress@@QAEAAV0@$$QAV0@@Z 004785ba f   Qt5Networkd:Qt5Networkd.dll
 0001:000775c0       ??0QSslKey@@QAE@PAVQIODevice@@W4KeyAlgorithm@QSsl@@W4EncodingFormat@3@W4KeyType@3@ABVQByteArray@@@Z 004785c0 f   Qt5Networkd:Qt5Networkd.dll
 0001:000775c6       ??1QSslKey@@QAE@XZ         004785c6 f   Qt5Networkd:Qt5Networkd.dll
 0001:000775cc       ?isNull@QSslKey@@QBE_NXZ   004785cc f   Qt5Networkd:Qt5Networkd.dll
 0001:000775d2       ??0QSslConfiguration@@QAE@XZ 004785d2 f   Qt5Networkd:Qt5Networkd.dll
 0001:000775d8       ??1QSslConfiguration@@QAE@XZ 004785d8 f   Qt5Networkd:Qt5Networkd.dll
 0001:000775de       ?setProtocol@QSslConfiguration@@QAEXW4SslProtocol@QSsl@@@Z 004785de f   Qt5Networkd:Qt5Networkd.dll
 0001:000775e4       ?setPeerVerifyMode@QSslConfiguration@@QAEXW4PeerVerifyMode@QSslSocket@@@Z 004785e4 f   Qt5Networkd:Qt5Networkd.dll
 0001:000775ea       ?setLocalCertificate@QSslConfiguration@@QAEXABVQSslCertificate@@@Z 004785ea f   Qt5Networkd:Qt5Networkd.dll
 0001:000775f0       ?setPrivateKey@QSslConfiguration@@QAEXABVQSslKey@@@Z 004785f0 f   Qt5Networkd:Qt5Networkd.dll
 0001:000775f6       ??1QSslCipher@@QAE@XZ      004785f6 f   Qt5Networkd:Qt5Networkd.dll
 0001:000775fc       ?name@QSslCipher@@QBE?AVQString@@XZ 004785fc f   Qt5Networkd:Qt5Networkd.dll
 0001:00077602       ?atEnd@QSslSocket@@UBE_NXZ 00478602 f   Qt5Networkd:Qt5Networkd.dll
 0001:00077608       ?bytesAvailable@QSslSocket@@UBE_JXZ 00478608 f   Qt5Networkd:Qt5Networkd.dll
 0001:0007760e       ?bytesToWrite@QSslSocket@@UBE_JXZ 0047860e f   Qt5Networkd:Qt5Networkd.dll
 0001:00077614       ?canReadLine@QSslSocket@@UBE_NXZ 00478614 f   Qt5Networkd:Qt5Networkd.dll
 0001:0007761a       ?close@QSslSocket@@UAEXXZ  0047861a f   Qt5Networkd:Qt5Networkd.dll
 0001:00077620       ?connectToHost@QAbstractSocket@@UAEXABVQHostAddress@@GV?$QFlags@W4OpenModeFlag@QIODevice@@@@@Z 00478620 f   Qt5Networkd:Qt5Networkd.dll
 0001:00077626       ?connectToHost@QSslSocket@@UAEXABVQString@@GV?$QFlags@W4OpenModeFlag@QIODevice@@@@W4NetworkLayerProtocol@QAbstractSocket@@@Z 00478626 f   Qt5Networkd:Qt5Networkd.dll
 0001:0007762c       ?disconnectFromHost@QSslSocket@@UAEXXZ 0047862c f   Qt5Networkd:Qt5Networkd.dll
 0001:00077632       ?isSequential@QAbstractSocket@@UBE_NXZ 00478632 f   Qt5Networkd:Qt5Networkd.dll
 0001:00077638       ?metaObject@QSslSocket@@UBEPBUQMetaObject@@XZ 00478638 f   Qt5Networkd:Qt5Networkd.dll
 0001:0007763e       ?qt_metacall@QSslSocket@@UAEHW4Call@QMetaObject@@HPAPAX@Z 0047863e f   Qt5Networkd:Qt5Networkd.dll
 0001:00077644       ?qt_metacast@QSslSocket@@UAEPAXPBD@Z 00478644 f   Qt5Networkd:Qt5Networkd.dll
 0001:0007764a       ?readData@QSslSocket@@MAE_JPAD_J@Z 0047864a f   Qt5Networkd:Qt5Networkd.dll
 0001:00077650       ?readLineData@QAbstractSocket@@MAE_JPAD_J@Z 00478650 f   Qt5Networkd:Qt5Networkd.dll
 0001:00077656       ?resume@QSslSocket@@UAEXXZ 00478656 f   Qt5Networkd:Qt5Networkd.dll
 0001:0007765c       ?setReadBufferSize@QSslSocket@@UAEX_J@Z 0047865c f   Qt5Networkd:Qt5Networkd.dll
 0001:00077662       ?setSocketDescriptor@QSslSocket@@UAE_NHW4SocketState@QAbstractSocket@@V?$QFlags@W4OpenModeFlag@QIODevice@@@@@Z 00478662 f   Qt5Networkd:Qt5Networkd.dll
 0001:00077668       ?setSocketOption@QSslSocket@@UAEXW4SocketOption@QAbstractSocket@@ABVQVariant@@@Z 00478668 f   Qt5Networkd:Qt5Networkd.dll
 0001:0007766e       ?socketDescriptor@QAbstractSocket@@UBEHXZ 0047866e f   Qt5Networkd:Qt5Networkd.dll
 0001:00077674       ?socketOption@QSslSocket@@UAE?AVQVariant@@W4SocketOption@QAbstractSocket@@@Z 00478674 f   Qt5Networkd:Qt5Networkd.dll
 0001:0007767a       ?waitForBytesWritten@QSslSocket@@UAE_NH@Z 0047867a f   Qt5Networkd:Qt5Networkd.dll
 0001:00077680       ?waitForConnected@QSslSocket@@UAE_NH@Z 00478680 f   Qt5Networkd:Qt5Networkd.dll
 0001:00077686       ?waitForDisconnected@QSslSocket@@UAE_NH@Z 00478686 f   Qt5Networkd:Qt5Networkd.dll
 0001:0007768c       ?waitForReadyRead@QSslSocket@@UAE_NH@Z 0047868c f   Qt5Networkd:Qt5Networkd.dll
 0001:00077692       ?writeData@QSslSocket@@MAE_JPBD_J@Z 00478692 f   Qt5Networkd:Qt5Networkd.dll
 0001:00077698       ?qt_metacast@QTcpServer@@UAEPAXPBD@Z 00478698 f   Qt5Networkd:Qt5Networkd.dll
 0001:0007769e       ?qt_metacall@QTcpServer@@UAEHW4Call@QMetaObject@@HPAPAX@Z 0047869e f   Qt5Networkd:Qt5Networkd.dll
 0001:000776a4       ??0QHostAddress@@QAE@ABVQString@@@Z 004786a4 f   Qt5Networkd:Qt5Networkd.dll
 0001:000776aa       ?serverPort@QTcpServer@@QBEGXZ 004786aa f   Qt5Networkd:Qt5Networkd.dll
 0001:000776b0       ?setDefaultCiphers@QSslSocket@@SAXABV?$QList@VQSslCipher@@@@@Z 004786b0 f   Qt5Networkd:Qt5Networkd.dll
 0001:000776b6       ??0QSslCipher@@QAE@ABVQString@@@Z 004786b6 f   Qt5Networkd:Qt5Networkd.dll
 0001:000776bc       ??0QSslCipher@@QAE@ABV0@@Z 004786bc f   Qt5Networkd:Qt5Networkd.dll
 0001:000776c2       ?isNull@QSslCipher@@QBE_NXZ 004786c2 f   Qt5Networkd:Qt5Networkd.dll
 0001:000776c8       ?isNull@QHostAddress@@QBE_NXZ 004786c8 f   Qt5Networkd:Qt5Networkd.dll
 0001:000776ce       ?document@QTextEdit@@QBEPAVQTextDocument@@XZ 004786ce f   Qt5Widgetsd:Qt5Widgetsd.dll
 0001:000776d4       ?append@QTextEdit@@QAEXABVQString@@@Z 004786d4 f   Qt5Widgetsd:Qt5Widgetsd.dll
 0001:000776da       ??0QTreeWidgetItem@@QAE@H@Z 004786da f   Qt5Widgetsd:Qt5Widgetsd.dll
 0001:000776e0       ??1QTreeWidgetItem@@UAE@XZ 004786e0 f   Qt5Widgetsd:Qt5Widgetsd.dll
 0001:000776e6       ?setText@QTreeWidgetItem@@QAEXHABVQString@@@Z 004786e6 f   Qt5Widgetsd:Qt5Widgetsd.dll
 0001:000776ec       ??MQTreeWidgetItem@@UBE_NABV0@@Z 004786ec f   Qt5Widgetsd:Qt5Widgetsd.dll
 0001:000776f2       ?clone@QTreeWidgetItem@@UBEPAV1@XZ 004786f2 f   Qt5Widgetsd:Qt5Widgetsd.dll
 0001:000776f8       ?data@QTreeWidgetItem@@UBE?AVQVariant@@HH@Z 004786f8 f   Qt5Widgetsd:Qt5Widgetsd.dll
 0001:000776fe       ?read@QTreeWidgetItem@@UAEXAAVQDataStream@@@Z 004786fe f   Qt5Widgetsd:Qt5Widgetsd.dll
 0001:00077704       ?setData@QTreeWidgetItem@@UAEXHHABVQVariant@@@Z 00478704 f   Qt5Widgetsd:Qt5Widgetsd.dll
 0001:0007770a       ?write@QTreeWidgetItem@@UBEXAAVQDataStream@@@Z 0047870a f   Qt5Widgetsd:Qt5Widgetsd.dll
 0001:00077710       ?qt_metacast@QMainWindow@@UAEPAXPBD@Z 00478710 f   Qt5Widgetsd:Qt5Widgetsd.dll
 0001:00077716       ?qt_metacall@QMainWindow@@UAEHW4Call@QMetaObject@@HPAPAX@Z 00478716 f   Qt5Widgetsd:Qt5Widgetsd.dll
 0001:0007771c       ?qt_metacast@QDialog@@UAEPAXPBD@Z 0047871c f   Qt5Widgetsd:Qt5Widgetsd.dll
 0001:00077722       ?qt_metacall@QDialog@@UAEHW4Call@QMetaObject@@HPAPAX@Z 00478722 f   Qt5Widgetsd:Qt5Widgetsd.dll
 0001:00077728       ?show@QWidget@@QAEXXZ      00478728 f   Qt5Widgetsd:Qt5Widgetsd.dll
 0001:0007772e       ??0QApplication@@QAE@AAHPAPADH@Z 0047872e f   Qt5Widgetsd:Qt5Widgetsd.dll
 0001:00077734       ??1QApplication@@UAE@XZ    00478734 f   Qt5Widgetsd:Qt5Widgetsd.dll
 0001:0007773a       ?exec@QApplication@@SAHXZ  0047873a f   Qt5Widgetsd:Qt5Widgetsd.dll
 0001:00077740       ??0QSizePolicy@@QAE@W4Policy@0@0W4ControlType@0@@Z 00478740 f   Qt5Widgetsd:Qt5Widgetsd.dll
 0001:00077746       ?setHeightForWidth@QSizePolicy@@QAEX_N@Z 00478746 f   Qt5Widgetsd:Qt5Widgetsd.dll
 0001:0007774c       ?hasHeightForWidth@QSizePolicy@@QBE_NXZ 0047874c f   Qt5Widgetsd:Qt5Widgetsd.dll
 0001:00077752       ?setHorizontalStretch@QSizePolicy@@QAEXH@Z 00478752 f   Qt5Widgetsd:Qt5Widgetsd.dll
 0001:00077758       ?setVerticalStretch@QSizePolicy@@QAEXH@Z 00478758 f   Qt5Widgetsd:Qt5Widgetsd.dll
 0001:0007775e       ??0QWidget@@QAE@PAV0@V?$QFlags@W4WindowType@Qt@@@@@Z 0047875e f   Qt5Widgetsd:Qt5Widgetsd.dll
 0001:00077764       ??1QWidget@@UAE@XZ         00478764 f   Qt5Widgetsd:Qt5Widgetsd.dll
 0001:0007776a       ?winId@QWidget@@QBEIXZ     0047876a f   Qt5Widgetsd:Qt5Widgetsd.dll
 0001:00077770       ?setMaximumSize@QWidget@@QAEXABVQSize@@@Z 00478770 f   Qt5Widgetsd:Qt5Widgetsd.dll
 0001:00077776       ?mapToGlobal@QWidget@@QBE?AVQPoint@@ABV2@@Z 00478776 f   Qt5Widgetsd:Qt5Widgetsd.dll
 0001:0007777c       ?setWindowTitle@QWidget@@QAEXABVQString@@@Z 0047877c f   Qt5Widgetsd:Qt5Widgetsd.dll
 0001:00077782       ?setWindowIcon@QWidget@@QAEXABVQIcon@@@Z 00478782 f   Qt5Widgetsd:Qt5Widgetsd.dll
 0001:00077788       ?setContextMenuPolicy@QWidget@@QAEXW4ContextMenuPolicy@Qt@@@Z 00478788 f   Qt5Widgetsd:Qt5Widgetsd.dll
 0001:0007778e       ?close@QWidget@@QAE_NXZ    0047878e f   Qt5Widgetsd:Qt5Widgetsd.dll
 0001:00077794       ?resize@QWidget@@QAEXHH@Z  00478794 f   Qt5Widgetsd:Qt5Widgetsd.dll
 0001:0007779a       ?setGeometry@QWidget@@QAEXABVQRect@@@Z 0047879a f   Qt5Widgetsd:Qt5Widgetsd.dll
 0001:000777a0       ?sizePolicy@QWidget@@QBE?AVQSizePolicy@@XZ 004787a0 f   Qt5Widgetsd:Qt5Widgetsd.dll
 0001:000777a6       ?setSizePolicy@QWidget@@QAEXVQSizePolicy@@@Z 004787a6 f   Qt5Widgetsd:Qt5Widgetsd.dll
 0001:000777ac       ?addAction@QWidget@@QAEXPAVQAction@@@Z 004787ac f   Qt5Widgetsd:Qt5Widgetsd.dll
 0001:000777b2       ??0QMainWindow@@QAE@PAVQWidget@@V?$QFlags@W4WindowType@Qt@@@@@Z 004787b2 f   Qt5Widgetsd:Qt5Widgetsd.dll
 0001:000777b8       ??1QMainWindow@@UAE@XZ     004787b8 f   Qt5Widgetsd:Qt5Widgetsd.dll
 0001:000777be       ?setMenuBar@QMainWindow@@QAEXPAVQMenuBar@@@Z 004787be f   Qt5Widgetsd:Qt5Widgetsd.dll
 0001:000777c4       ?setStatusBar@QMainWindow@@QAEXPAVQStatusBar@@@Z 004787c4 f   Qt5Widgetsd:Qt5Widgetsd.dll
 0001:000777ca       ?setCentralWidget@QMainWindow@@QAEXPAVQWidget@@@Z 004787ca f   Qt5Widgetsd:Qt5Widgetsd.dll
 0001:000777d0       ?addToolBar@QMainWindow@@QAEXW4ToolBarArea@Qt@@PAVQToolBar@@@Z 004787d0 f   Qt5Widgetsd:Qt5Widgetsd.dll
 0001:000777d6       ??0QAction@@QAE@PAVQObject@@@Z 004787d6 f   Qt5Widgetsd:Qt5Widgetsd.dll
 0001:000777dc       ??1QAction@@UAE@XZ         004787dc f   Qt5Widgetsd:Qt5Widgetsd.dll
 0001:000777e2       ?setText@QAction@@QAEXABVQString@@@Z 004787e2 f   Qt5Widgetsd:Qt5Widgetsd.dll
 0001:000777e8       ?setShortcut@QAction@@QAEXABVQKeySequence@@@Z 004787e8 f   Qt5Widgetsd:Qt5Widgetsd.dll
 0001:000777ee       ?setCheckable@QAction@@QAEX_N@Z 004787ee f   Qt5Widgetsd:Qt5Widgetsd.dll
 0001:000777f4       ?setChecked@QAction@@QAEX_N@Z 004787f4 f   Qt5Widgetsd:Qt5Widgetsd.dll
 0001:000777fa       ??0QGroupBox@@QAE@PAVQWidget@@@Z 004787fa f   Qt5Widgetsd:Qt5Widgetsd.dll
 0001:00077800       ??1QGroupBox@@UAE@XZ       00478800 f   Qt5Widgetsd:Qt5Widgetsd.dll
 0001:00077806       ?setTitle@QGroupBox@@QAEXABVQString@@@Z 00478806 f   Qt5Widgetsd:Qt5Widgetsd.dll
 0001:0007780c       ??0QSpacerItem@@QAE@HHW4Policy@QSizePolicy@@0@Z 0047880c f   Qt5Widgetsd:Qt5Widgetsd.dll
 0001:00077812       ??1QSpacerItem@@UAE@XZ     00478812 f   Qt5Widgetsd:Qt5Widgetsd.dll
 0001:00077818       ?setContentsMargins@QLayout@@QAEXHHHH@Z 00478818 f   Qt5Widgetsd:Qt5Widgetsd.dll
 0001:0007781e       ?setSizeConstraint@QLayout@@QAEXW4SizeConstraint@1@@Z 0047881e f   Qt5Widgetsd:Qt5Widgetsd.dll
 0001:00077824       ?addWidget@QBoxLayout@@QAEXPAVQWidget@@HV?$QFlags@W4AlignmentFlag@Qt@@@@@Z 00478824 f   Qt5Widgetsd:Qt5Widgetsd.dll
 0001:0007782a       ?addLayout@QBoxLayout@@QAEXPAVQLayout@@H@Z 0047882a f   Qt5Widgetsd:Qt5Widgetsd.dll
 0001:00077830       ?setSpacing@QBoxLayout@@QAEXH@Z 00478830 f   Qt5Widgetsd:Qt5Widgetsd.dll
 0001:00077836       ??0QHBoxLayout@@QAE@XZ     00478836 f   Qt5Widgetsd:Qt5Widgetsd.dll
 0001:0007783c       ??1QHBoxLayout@@UAE@XZ     0047883c f   Qt5Widgetsd:Qt5Widgetsd.dll
 0001:00077842       ??0QVBoxLayout@@QAE@PAVQWidget@@@Z 00478842 f   Qt5Widgetsd:Qt5Widgetsd.dll
 0001:00077848       ??1QVBoxLayout@@UAE@XZ     00478848 f   Qt5Widgetsd:Qt5Widgetsd.dll
 0001:0007784e       ?setSectionResizeMode@QHeaderView@@QAEXW4ResizeMode@1@@Z 0047884e f   Qt5Widgetsd:Qt5Widgetsd.dll
 0001:00077854       ??0QListWidgetItem@@QAE@ABVQString@@PAVQListWidget@@H@Z 00478854 f   Qt5Widgetsd:Qt5Widgetsd.dll
 0001:0007785a       ??1QListWidgetItem@@UAE@XZ 0047885a f   Qt5Widgetsd:Qt5Widgetsd.dll
 0001:00077860       ??0QListWidget@@QAE@PAVQWidget@@@Z 00478860 f   Qt5Widgetsd:Qt5Widgetsd.dll
 0001:00077866       ??1QListWidget@@UAE@XZ     00478866 f   Qt5Widgetsd:Qt5Widgetsd.dll
 0001:0007786c       ?addItem@QListWidget@@QAEXPAVQListWidgetItem@@@Z 0047886c f   Qt5Widgetsd:Qt5Widgetsd.dll
 0001:00077872       ??0QMenu@@QAE@PAVQWidget@@@Z 00478872 f   Qt5Widgetsd:Qt5Widgetsd.dll
 0001:00077878       ??1QMenu@@UAE@XZ           00478878 f   Qt5Widgetsd:Qt5Widgetsd.dll
 0001:0007787e       ?addAction@QMenu@@QAEPAVQAction@@ABVQString@@@Z 0047887e f   Qt5Widgetsd:Qt5Widgetsd.dll
 0001:00077884       ?exec@QMenu@@QAEPAVQAction@@ABVQPoint@@PAV2@@Z 00478884 f   Qt5Widgetsd:Qt5Widgetsd.dll
 0001:0007788a       ?menuAction@QMenu@@QBEPAVQAction@@XZ 0047888a f   Qt5Widgetsd:Qt5Widgetsd.dll
 0001:00077890       ?setTitle@QMenu@@QAEXABVQString@@@Z 00478890 f   Qt5Widgetsd:Qt5Widgetsd.dll
 0001:00077896       ??0QMenuBar@@QAE@PAVQWidget@@@Z 00478896 f   Qt5Widgetsd:Qt5Widgetsd.dll
 0001:0007789c       ??1QMenuBar@@UAE@XZ        0047889c f   Qt5Widgetsd:Qt5Widgetsd.dll
 0001:000778a2       ?setText@QAbstractButton@@QAEXABVQString@@@Z 004788a2 f   Qt5Widgetsd:Qt5Widgetsd.dll
 0001:000778a8       ??0QPushButton@@QAE@PAVQWidget@@@Z 004788a8 f   Qt5Widgetsd:Qt5Widgetsd.dll
 0001:000778ae       ??1QPushButton@@UAE@XZ     004788ae f   Qt5Widgetsd:Qt5Widgetsd.dll
 0001:000778b4       ??0QSplitter@@QAE@PAVQWidget@@@Z 004788b4 f   Qt5Widgetsd:Qt5Widgetsd.dll
 0001:000778ba       ??1QSplitter@@UAE@XZ       004788ba f   Qt5Widgetsd:Qt5Widgetsd.dll
 0001:000778c0       ?addWidget@QSplitter@@QAEXPAVQWidget@@@Z 004788c0 f   Qt5Widgetsd:Qt5Widgetsd.dll
 0001:000778c6       ?setOrientation@QSplitter@@QAEXW4Orientation@Qt@@@Z 004788c6 f   Qt5Widgetsd:Qt5Widgetsd.dll
 0001:000778cc       ??0QStatusBar@@QAE@PAVQWidget@@@Z 004788cc f   Qt5Widgetsd:Qt5Widgetsd.dll
 0001:000778d2       ??1QStatusBar@@UAE@XZ      004788d2 f   Qt5Widgetsd:Qt5Widgetsd.dll
 0001:000778d8       ??0QTextEdit@@QAE@PAVQWidget@@@Z 004788d8 f   Qt5Widgetsd:Qt5Widgetsd.dll
 0001:000778de       ??1QTextEdit@@UAE@XZ       004788de f   Qt5Widgetsd:Qt5Widgetsd.dll
 0001:000778e4       ?setReadOnly@QTextEdit@@QAEX_N@Z 004788e4 f   Qt5Widgetsd:Qt5Widgetsd.dll
 0001:000778ea       ??0QToolBar@@QAE@PAVQWidget@@@Z 004788ea f   Qt5Widgetsd:Qt5Widgetsd.dll
 0001:000778f0       ??1QToolBar@@UAE@XZ        004788f0 f   Qt5Widgetsd:Qt5Widgetsd.dll
 0001:000778f6       ?header@QTreeView@@QBEPAVQHeaderView@@XZ 004788f6 f   Qt5Widgetsd:Qt5Widgetsd.dll
 0001:000778fc       ??0QTreeWidget@@QAE@PAVQWidget@@@Z 004788fc f   Qt5Widgetsd:Qt5Widgetsd.dll
 0001:00077902       ??1QTreeWidget@@UAE@XZ     00478902 f   Qt5Widgetsd:Qt5Widgetsd.dll
 0001:00077908       ?addTopLevelItem@QTreeWidget@@QAEXPAVQTreeWidgetItem@@@Z 00478908 f   Qt5Widgetsd:Qt5Widgetsd.dll
 0001:0007790e       ?headerItem@QTreeWidget@@QBEPAVQTreeWidgetItem@@XZ 0047890e f   Qt5Widgetsd:Qt5Widgetsd.dll
 0001:00077914       ?itemAt@QTreeWidget@@QBEPAVQTreeWidgetItem@@ABVQPoint@@@Z 00478914 f   Qt5Widgetsd:Qt5Widgetsd.dll
 0001:0007791a       ?exec@QDialog@@UAEHXZ      0047891a f   Qt5Widgetsd:Qt5Widgetsd.dll
 0001:00077920       ?information@QMessageBox@@SA?AW4StandardButton@1@PAVQWidget@@ABVQString@@1V?$QFlags@W4StandardButton@QMessageBox@@@@W421@@Z 00478920 f   Qt5Widgetsd:Qt5Widgetsd.dll
 0001:00077926       ?critical@QMessageBox@@SA?AW4StandardButton@1@PAVQWidget@@ABVQString@@1V?$QFlags@W4StandardButton@QMessageBox@@@@W421@@Z 00478926 f   Qt5Widgetsd:Qt5Widgetsd.dll
 0001:0007792c       ??MQListWidgetItem@@UBE_NABV0@@Z 0047892c f   Qt5Widgetsd:Qt5Widgetsd.dll
 0001:00077932       ?actionEvent@QMenu@@MAEXPAVQActionEvent@@@Z 00478932 f   Qt5Widgetsd:Qt5Widgetsd.dll
 0001:00077938       ?actionEvent@QMenuBar@@MAEXPAVQActionEvent@@@Z 00478938 f   Qt5Widgetsd:Qt5Widgetsd.dll
 0001:0007793e       ?actionEvent@QToolBar@@MAEXPAVQActionEvent@@@Z 0047893e f   Qt5Widgetsd:Qt5Widgetsd.dll
 0001:00077944       ?actionEvent@QWidget@@MAEXPAVQActionEvent@@@Z 00478944 f   Qt5Widgetsd:Qt5Widgetsd.dll
 0001:0007794a       ?addItem@QBoxLayout@@UAEXPAVQLayoutItem@@@Z 0047894a f   Qt5Widgetsd:Qt5Widgetsd.dll
 0001:00077950       ?canInsertFromMimeData@QTextEdit@@MBE_NPBVQMimeData@@@Z 00478950 f   Qt5Widgetsd:Qt5Widgetsd.dll
 0001:00077956       ?changeEvent@QAbstractButton@@MAEXPAVQEvent@@@Z 00478956 f   Qt5Widgetsd:Qt5Widgetsd.dll
 0001:0007795c       ?changeEvent@QFrame@@MAEXPAVQEvent@@@Z 0047895c f   Qt5Widgetsd:Qt5Widgetsd.dll
 0001:00077962       ?changeEvent@QGroupBox@@MAEXPAVQEvent@@@Z 00478962 f   Qt5Widgetsd:Qt5Widgetsd.dll
 0001:00077968       ?changeEvent@QMenu@@MAEXPAVQEvent@@@Z 00478968 f   Qt5Widgetsd:Qt5Widgetsd.dll
 0001:0007796e       ?changeEvent@QMenuBar@@MAEXPAVQEvent@@@Z 0047896e f   Qt5Widgetsd:Qt5Widgetsd.dll
 0001:00077974       ?changeEvent@QSplitter@@MAEXPAVQEvent@@@Z 00478974 f   Qt5Widgetsd:Qt5Widgetsd.dll
 0001:0007797a       ?changeEvent@QTextEdit@@MAEXPAVQEvent@@@Z 0047897a f   Qt5Widgetsd:Qt5Widgetsd.dll
 0001:00077980       ?changeEvent@QToolBar@@MAEXPAVQEvent@@@Z 00478980 f   Qt5Widgetsd:Qt5Widgetsd.dll
 0001:00077986       ?changeEvent@QWidget@@MAEXPAVQEvent@@@Z 00478986 f   Qt5Widgetsd:Qt5Widgetsd.dll
 0001:0007798c       ?checkStateSet@QAbstractButton@@MAEXXZ 0047898c f   Qt5Widgetsd:Qt5Widgetsd.dll
 0001:00077992       ?childEvent@QGroupBox@@MAEXPAVQChildEvent@@@Z 00478992 f   Qt5Widgetsd:Qt5Widgetsd.dll
 0001:00077998       ?childEvent@QLayout@@MAEXPAVQChildEvent@@@Z 00478998 f   Qt5Widgetsd:Qt5Widgetsd.dll
 0001:0007799e       ?childEvent@QSplitter@@MAEXPAVQChildEvent@@@Z 0047899e f   Qt5Widgetsd:Qt5Widgetsd.dll
 0001:000779a4       ?clone@QListWidgetItem@@UBEPAV1@XZ 004789a4 f   Qt5Widgetsd:Qt5Widgetsd.dll
 0001:000779aa       ?closeEditor@QAbstractItemView@@MAEXPAVQWidget@@W4EndEditHint@QAbstractItemDelegate@@@Z 004789aa f   Qt5Widgetsd:Qt5Widgetsd.dll
 0001:000779b0       ?closeEvent@QWidget@@MAEXPAVQCloseEvent@@@Z 004789b0 f   Qt5Widgetsd:Qt5Widgetsd.dll
 0001:000779b6       ?commitData@QAbstractItemView@@MAEXPAVQWidget@@@Z 004789b6 f   Qt5Widgetsd:Qt5Widgetsd.dll
 0001:000779bc       ?contextMenuEvent@QAbstractScrollArea@@MAEXPAVQContextMenuEvent@@@Z 004789bc f   Qt5Widgetsd:Qt5Widgetsd.dll
 0001:000779c2       ?contextMenuEvent@QMainWindow@@MAEXPAVQContextMenuEvent@@@Z 004789c2 f   Qt5Widgetsd:Qt5Widgetsd.dll
 0001:000779c8       ?contextMenuEvent@QTextEdit@@MAEXPAVQContextMenuEvent@@@Z 004789c8 f   Qt5Widgetsd:Qt5Widgetsd.dll
 0001:000779ce       ?contextMenuEvent@QWidget@@MAEXPAVQContextMenuEvent@@@Z 004789ce f   Qt5Widgetsd:Qt5Widgetsd.dll
 0001:000779d4       ?controlTypes@QLayout@@UBE?AV?$QFlags@W4ControlType@QSizePolicy@@@@XZ 004789d4 f   Qt5Widgetsd:Qt5Widgetsd.dll
 0001:000779da       ?controlTypes@QLayoutItem@@UBE?AV?$QFlags@W4ControlType@QSizePolicy@@@@XZ 004789da f   Qt5Widgetsd:Qt5Widgetsd.dll
 0001:000779e0       ?count@QBoxLayout@@UBEHXZ  004789e0 f   Qt5Widgetsd:Qt5Widgetsd.dll
 0001:000779e6       ?createHandle@QSplitter@@MAEPAVQSplitterHandle@@XZ 004789e6 f   Qt5Widgetsd:Qt5Widgetsd.dll
 0001:000779ec       ?createMimeDataFromSelection@QTextEdit@@MBEPAVQMimeData@@XZ 004789ec f   Qt5Widgetsd:Qt5Widgetsd.dll
 0001:000779f2       ?createPopupMenu@QMainWindow@@UAEPAVQMenu@@XZ 004789f2 f   Qt5Widgetsd:Qt5Widgetsd.dll
 0001:000779f8       ?currentChanged@QListView@@MAEXABVQModelIndex@@0@Z 004789f8 f   Qt5Widgetsd:Qt5Widgetsd.dll
 0001:000779fe       ?currentChanged@QTreeView@@MAEXABVQModelIndex@@0@Z 004789fe f   Qt5Widgetsd:Qt5Widgetsd.dll
 0001:00077a04       ?data@QListWidgetItem@@UBE?AVQVariant@@H@Z 00478a04 f   Qt5Widgetsd:Qt5Widgetsd.dll
 0001:00077a0a       ?dataChanged@QListView@@MAEXABVQModelIndex@@0ABV?$QVector@H@@@Z 00478a0a f   Qt5Widgetsd:Qt5Widgetsd.dll
 0001:00077a10       ?dataChanged@QTreeView@@UAEXABVQModelIndex@@0ABV?$QVector@H@@@Z 00478a10 f   Qt5Widgetsd:Qt5Widgetsd.dll
 0001:00077a16       ?devType@QWidget@@UBEHXZ   00478a16 f   Qt5Widgetsd:Qt5Widgetsd.dll
 0001:00077a1c       ?doItemsLayout@QListView@@UAEXXZ 00478a1c f   Qt5Widgetsd:Qt5Widgetsd.dll
 0001:00077a22       ?doItemsLayout@QTreeView@@UAEXXZ 00478a22 f   Qt5Widgetsd:Qt5Widgetsd.dll
 0001:00077a28       ?doSetTextCursor@QTextEdit@@MAEXABVQTextCursor@@@Z 00478a28 f   Qt5Widgetsd:Qt5Widgetsd.dll
 0001:00077a2e       ?dragEnterEvent@QAbstractItemView@@MAEXPAVQDragEnterEvent@@@Z 00478a2e f   Qt5Widgetsd:Qt5Widgetsd.dll
 0001:00077a34       ?dragEnterEvent@QTextEdit@@MAEXPAVQDragEnterEvent@@@Z 00478a34 f   Qt5Widgetsd:Qt5Widgetsd.dll
 0001:00077a3a       ?dragEnterEvent@QWidget@@MAEXPAVQDragEnterEvent@@@Z 00478a3a f   Qt5Widgetsd:Qt5Widgetsd.dll
 0001:00077a40       ?dragLeaveEvent@QAbstractItemView@@MAEXPAVQDragLeaveEvent@@@Z 00478a40 f   Qt5Widgetsd:Qt5Widgetsd.dll
 0001:00077a46       ?dragLeaveEvent@QListView@@MAEXPAVQDragLeaveEvent@@@Z 00478a46 f   Qt5Widgetsd:Qt5Widgetsd.dll
 0001:00077a4c       ?dragLeaveEvent@QTextEdit@@MAEXPAVQDragLeaveEvent@@@Z 00478a4c f   Qt5Widgetsd:Qt5Widgetsd.dll
 0001:00077a52       ?dragLeaveEvent@QWidget@@MAEXPAVQDragLeaveEvent@@@Z 00478a52 f   Qt5Widgetsd:Qt5Widgetsd.dll
 0001:00077a58       ?dragMoveEvent@QListView@@MAEXPAVQDragMoveEvent@@@Z 00478a58 f   Qt5Widgetsd:Qt5Widgetsd.dll
 0001:00077a5e       ?dragMoveEvent@QTextEdit@@MAEXPAVQDragMoveEvent@@@Z 00478a5e f   Qt5Widgetsd:Qt5Widgetsd.dll
 0001:00077a64       ?dragMoveEvent@QTreeView@@MAEXPAVQDragMoveEvent@@@Z 00478a64 f   Qt5Widgetsd:Qt5Widgetsd.dll
 0001:00077a6a       ?dragMoveEvent@QWidget@@MAEXPAVQDragMoveEvent@@@Z 00478a6a f   Qt5Widgetsd:Qt5Widgetsd.dll
 0001:00077a70       ?drawBranches@QTreeView@@MBEXPAVQPainter@@ABVQRect@@ABVQModelIndex@@@Z 00478a70 f   Qt5Widgetsd:Qt5Widgetsd.dll
 0001:00077a76       ?drawRow@QTreeView@@MBEXPAVQPainter@@ABVQStyleOptionViewItem@@ABVQModelIndex@@@Z 00478a76 f   Qt5Widgetsd:Qt5Widgetsd.dll
 0001:00077a7c       ?dropEvent@QListWidget@@UAEXPAVQDropEvent@@@Z 00478a7c f   Qt5Widgetsd:Qt5Widgetsd.dll
 0001:00077a82       ?dropEvent@QTextEdit@@MAEXPAVQDropEvent@@@Z 00478a82 f   Qt5Widgetsd:Qt5Widgetsd.dll
 0001:00077a88       ?dropEvent@QTreeWidget@@MAEXPAVQDropEvent@@@Z 00478a88 f   Qt5Widgetsd:Qt5Widgetsd.dll
 0001:00077a8e       ?dropEvent@QWidget@@MAEXPAVQDropEvent@@@Z 00478a8e f   Qt5Widgetsd:Qt5Widgetsd.dll
 0001:00077a94       ?dropMimeData@QListWidget@@MAE_NHPBVQMimeData@@W4DropAction@Qt@@@Z 00478a94 f   Qt5Widgetsd:Qt5Widgetsd.dll
 0001:00077a9a       ?dropMimeData@QTreeWidget@@MAE_NPAVQTreeWidgetItem@@HPBVQMimeData@@W4DropAction@Qt@@@Z 00478a9a f   Qt5Widgetsd:Qt5Widgetsd.dll
 0001:00077aa0       ?edit@QAbstractItemView@@MAE_NABVQModelIndex@@W4EditTrigger@1@PAVQEvent@@@Z 00478aa0 f   Qt5Widgetsd:Qt5Widgetsd.dll
 0001:00077aa6       ?editorDestroyed@QAbstractItemView@@MAEXPAVQObject@@@Z 00478aa6 f   Qt5Widgetsd:Qt5Widgetsd.dll
 0001:00077aac       ?enterEvent@QMenu@@MAEXPAVQEvent@@@Z 00478aac f   Qt5Widgetsd:Qt5Widgetsd.dll
 0001:00077ab2       ?enterEvent@QWidget@@MAEXPAVQEvent@@@Z 00478ab2 f   Qt5Widgetsd:Qt5Widgetsd.dll
 0001:00077ab8       ?event@QAction@@MAE_NPAVQEvent@@@Z 00478ab8 f   Qt5Widgetsd:Qt5Widgetsd.dll
 0001:00077abe       ?event@QGroupBox@@MAE_NPAVQEvent@@@Z 00478abe f   Qt5Widgetsd:Qt5Widgetsd.dll
 0001:00077ac4       ?event@QListWidget@@MAE_NPAVQEvent@@@Z 00478ac4 f   Qt5Widgetsd:Qt5Widgetsd.dll
 0001:00077aca       ?event@QMainWindow@@MAE_NPAVQEvent@@@Z 00478aca f   Qt5Widgetsd:Qt5Widgetsd.dll
 0001:00077ad0       ?event@QMenu@@MAE_NPAVQEvent@@@Z 00478ad0 f   Qt5Widgetsd:Qt5Widgetsd.dll
 0001:00077ad6       ?event@QMenuBar@@MAE_NPAVQEvent@@@Z 00478ad6 f   Qt5Widgetsd:Qt5Widgetsd.dll
 0001:00077adc       ?event@QPushButton@@MAE_NPAVQEvent@@@Z 00478adc f   Qt5Widgetsd:Qt5Widgetsd.dll
 0001:00077ae2       ?event@QSplitter@@MAE_NPAVQEvent@@@Z 00478ae2 f   Qt5Widgetsd:Qt5Widgetsd.dll
 0001:00077ae8       ?event@QStatusBar@@MAE_NPAVQEvent@@@Z 00478ae8 f   Qt5Widgetsd:Qt5Widgetsd.dll
 0001:00077aee       ?event@QTextEdit@@MAE_NPAVQEvent@@@Z 00478aee f   Qt5Widgetsd:Qt5Widgetsd.dll
 0001:00077af4       ?event@QToolBar@@MAE_NPAVQEvent@@@Z 00478af4 f   Qt5Widgetsd:Qt5Widgetsd.dll
 0001:00077afa       ?event@QTreeWidget@@MAE_NPAVQEvent@@@Z 00478afa f   Qt5Widgetsd:Qt5Widgetsd.dll
 0001:00077b00       ?event@QWidget@@MAE_NPAVQEvent@@@Z 00478b00 f   Qt5Widgetsd:Qt5Widgetsd.dll
 0001:00077b06       ?eventFilter@QAbstractScrollArea@@MAE_NPAVQObject@@PAVQEvent@@@Z 00478b06 f   Qt5Widgetsd:Qt5Widgetsd.dll
 0001:00077b0c       ?eventFilter@QMenuBar@@MAE_NPAVQObject@@PAVQEvent@@@Z 00478b0c f   Qt5Widgetsd:Qt5Widgetsd.dll
 0001:00077b12       ?expandingDirections@QBoxLayout@@UBE?AV?$QFlags@W4Orientation@Qt@@@@XZ 00478b12 f   Qt5Widgetsd:Qt5Widgetsd.dll
 0001:00077b18       ?expandingDirections@QSpacerItem@@UBE?AV?$QFlags@W4Orientation@Qt@@@@XZ 00478b18 f   Qt5Widgetsd:Qt5Widgetsd.dll
 0001:00077b1e       ?focusInEvent@QAbstractItemView@@MAEXPAVQFocusEvent@@@Z 00478b1e f   Qt5Widgetsd:Qt5Widgetsd.dll
 0001:00077b24       ?focusInEvent@QGroupBox@@MAEXPAVQFocusEvent@@@Z 00478b24 f   Qt5Widgetsd:Qt5Widgetsd.dll
 0001:00077b2a       ?focusInEvent@QMenuBar@@MAEXPAVQFocusEvent@@@Z 00478b2a f   Qt5Widgetsd:Qt5Widgetsd.dll
 0001:00077b30       ?focusInEvent@QPushButton@@MAEXPAVQFocusEvent@@@Z 00478b30 f   Qt5Widgetsd:Qt5Widgetsd.dll
 0001:00077b36       ?focusInEvent@QTextEdit@@MAEXPAVQFocusEvent@@@Z 00478b36 f   Qt5Widgetsd:Qt5Widgetsd.dll
 0001:00077b3c       ?focusInEvent@QWidget@@MAEXPAVQFocusEvent@@@Z 00478b3c f   Qt5Widgetsd:Qt5Widgetsd.dll
 0001:00077b42       ?focusNextPrevChild@QAbstractItemView@@MAE_N_N@Z 00478b42 f   Qt5Widgetsd:Qt5Widgetsd.dll
 0001:00077b48       ?focusNextPrevChild@QMenu@@MAE_N_N@Z 00478b48 f   Qt5Widgetsd:Qt5Widgetsd.dll
 0001:00077b4e       ?focusNextPrevChild@QTextEdit@@MAE_N_N@Z 00478b4e f   Qt5Widgetsd:Qt5Widgetsd.dll
 0001:00077b54       ?focusNextPrevChild@QWidget@@MAE_N_N@Z 00478b54 f   Qt5Widgetsd:Qt5Widgetsd.dll
 0001:00077b5a       ?focusOutEvent@QAbstractItemView@@MAEXPAVQFocusEvent@@@Z 00478b5a f   Qt5Widgetsd:Qt5Widgetsd.dll
 0001:00077b60       ?focusOutEvent@QMenuBar@@MAEXPAVQFocusEvent@@@Z 00478b60 f   Qt5Widgetsd:Qt5Widgetsd.dll
 0001:00077b66       ?focusOutEvent@QPushButton@@MAEXPAVQFocusEvent@@@Z 00478b66 f   Qt5Widgetsd:Qt5Widgetsd.dll
 0001:00077b6c       ?focusOutEvent@QTextEdit@@MAEXPAVQFocusEvent@@@Z 00478b6c f   Qt5Widgetsd:Qt5Widgetsd.dll
 0001:00077b72       ?focusOutEvent@QWidget@@MAEXPAVQFocusEvent@@@Z 00478b72 f   Qt5Widgetsd:Qt5Widgetsd.dll
 0001:00077b78       ?geometry@QLayout@@UBE?AVQRect@@XZ 00478b78 f   Qt5Widgetsd:Qt5Widgetsd.dll
 0001:00077b7e       ?geometry@QSpacerItem@@UBE?AVQRect@@XZ 00478b7e f   Qt5Widgetsd:Qt5Widgetsd.dll
 0001:00077b84       ?hasHeightForWidth@QBoxLayout@@UBE_NXZ 00478b84 f   Qt5Widgetsd:Qt5Widgetsd.dll
 0001:00077b8a       ?hasHeightForWidth@QLayoutItem@@UBE_NXZ 00478b8a f   Qt5Widgetsd:Qt5Widgetsd.dll
 0001:00077b90       ?hasHeightForWidth@QWidget@@UBE_NXZ 00478b90 f   Qt5Widgetsd:Qt5Widgetsd.dll
 0001:00077b96       ?heightForWidth@QBoxLayout@@UBEHH@Z 00478b96 f   Qt5Widgetsd:Qt5Widgetsd.dll
 0001:00077b9c       ?heightForWidth@QLayoutItem@@UBEHH@Z 00478b9c f   Qt5Widgetsd:Qt5Widgetsd.dll
 0001:00077ba2       ?heightForWidth@QMenuBar@@UBEHH@Z 00478ba2 f   Qt5Widgetsd:Qt5Widgetsd.dll
 0001:00077ba8       ?heightForWidth@QWidget@@UBEHH@Z 00478ba8 f   Qt5Widgetsd:Qt5Widgetsd.dll
 0001:00077bae       ?hideEvent@QMenu@@MAEXPAVQHideEvent@@@Z 00478bae f   Qt5Widgetsd:Qt5Widgetsd.dll
 0001:00077bb4       ?hideEvent@QWidget@@MAEXPAVQHideEvent@@@Z 00478bb4 f   Qt5Widgetsd:Qt5Widgetsd.dll
 0001:00077bba       ?hitButton@QAbstractButton@@MBE_NABVQPoint@@@Z 00478bba f   Qt5Widgetsd:Qt5Widgetsd.dll
 0001:00077bc0       ?horizontalOffset@QListView@@MBEHXZ 00478bc0 f   Qt5Widgetsd:Qt5Widgetsd.dll
 0001:00077bc6       ?horizontalOffset@QTreeView@@MBEHXZ 00478bc6 f   Qt5Widgetsd:Qt5Widgetsd.dll
 0001:00077bcc       ?horizontalScrollbarAction@QAbstractItemView@@MAEXH@Z 00478bcc f   Qt5Widgetsd:Qt5Widgetsd.dll
 0001:00077bd2       ?horizontalScrollbarAction@QTreeView@@MAEXH@Z 00478bd2 f   Qt5Widgetsd:Qt5Widgetsd.dll
 0001:00077bd8       ?horizontalScrollbarValueChanged@QAbstractItemView@@MAEXH@Z 00478bd8 f   Qt5Widgetsd:Qt5Widgetsd.dll
 0001:00077bde       ?indexAt@QListView@@UBE?AVQModelIndex@@ABVQPoint@@@Z 00478bde f   Qt5Widgetsd:Qt5Widgetsd.dll
 0001:00077be4       ?indexAt@QTreeView@@UBE?AVQModelIndex@@ABVQPoint@@@Z 00478be4 f   Qt5Widgetsd:Qt5Widgetsd.dll
 0001:00077bea       ?indexOf@QLayout@@UBEHPAVQWidget@@@Z 00478bea f   Qt5Widgetsd:Qt5Widgetsd.dll
 0001:00077bf0       ?initPainter@QWidget@@MBEXPAVQPainter@@@Z 00478bf0 f   Qt5Widgetsd:Qt5Widgetsd.dll
 0001:00077bf6       ?inputMethodEvent@QAbstractItemView@@MAEXPAVQInputMethodEvent@@@Z 00478bf6 f   Qt5Widgetsd:Qt5Widgetsd.dll
 0001:00077bfc       ?inputMethodEvent@QTextEdit@@MAEXPAVQInputMethodEvent@@@Z 00478bfc f   Qt5Widgetsd:Qt5Widgetsd.dll
 0001:00077c02       ?inputMethodEvent@QWidget@@MAEXPAVQInputMethodEvent@@@Z 00478c02 f   Qt5Widgetsd:Qt5Widgetsd.dll
 0001:00077c08       ?inputMethodQuery@QAbstractItemView@@UBE?AVQVariant@@W4InputMethodQuery@Qt@@@Z 00478c08 f   Qt5Widgetsd:Qt5Widgetsd.dll
 0001:00077c0e       ?inputMethodQuery@QTextEdit@@UBE?AVQVariant@@W4InputMethodQuery@Qt@@@Z 00478c0e f   Qt5Widgetsd:Qt5Widgetsd.dll
 0001:00077c14       ?inputMethodQuery@QWidget@@UBE?AVQVariant@@W4InputMethodQuery@Qt@@@Z 00478c14 f   Qt5Widgetsd:Qt5Widgetsd.dll
 0001:00077c1a       ?insertFromMimeData@QTextEdit@@MAEXPBVQMimeData@@@Z 00478c1a f   Qt5Widgetsd:Qt5Widgetsd.dll
 0001:00077c20       ?invalidate@QBoxLayout@@UAEXXZ 00478c20 f   Qt5Widgetsd:Qt5Widgetsd.dll
 0001:00077c26       ?invalidate@QLayoutItem@@UAEXXZ 00478c26 f   Qt5Widgetsd:Qt5Widgetsd.dll
 0001:00077c2c       ?isEmpty@QLayout@@UBE_NXZ  00478c2c f   Qt5Widgetsd:Qt5Widgetsd.dll
 0001:00077c32       ?isEmpty@QSpacerItem@@UBE_NXZ 00478c32 f   Qt5Widgetsd:Qt5Widgetsd.dll
 0001:00077c38       ?isIndexHidden@QListView@@MBE_NABVQModelIndex@@@Z 00478c38 f   Qt5Widgetsd:Qt5Widgetsd.dll
 0001:00077c3e       ?isIndexHidden@QTreeView@@MBE_NABVQModelIndex@@@Z 00478c3e f   Qt5Widgetsd:Qt5Widgetsd.dll
 0001:00077c44       ?itemAt@QBoxLayout@@UBEPAVQLayoutItem@@H@Z 00478c44 f   Qt5Widgetsd:Qt5Widgetsd.dll
 0001:00077c4a       ?keyPressEvent@QAbstractItemView@@MAEXPAVQKeyEvent@@@Z 00478c4a f   Qt5Widgetsd:Qt5Widgetsd.dll
 0001:00077c50       ?keyPressEvent@QMenu@@MAEXPAVQKeyEvent@@@Z 00478c50 f   Qt5Widgetsd:Qt5Widgetsd.dll
 0001:00077c56       ?keyPressEvent@QMenuBar@@MAEXPAVQKeyEvent@@@Z 00478c56 f   Qt5Widgetsd:Qt5Widgetsd.dll
 0001:00077c5c       ?keyPressEvent@QPushButton@@MAEXPAVQKeyEvent@@@Z 00478c5c f   Qt5Widgetsd:Qt5Widgetsd.dll
 0001:00077c62       ?keyPressEvent@QTextEdit@@MAEXPAVQKeyEvent@@@Z 00478c62 f   Qt5Widgetsd:Qt5Widgetsd.dll
 0001:00077c68       ?keyPressEvent@QTreeView@@MAEXPAVQKeyEvent@@@Z 00478c68 f   Qt5Widgetsd:Qt5Widgetsd.dll
 0001:00077c6e       ?keyPressEvent@QWidget@@MAEXPAVQKeyEvent@@@Z 00478c6e f   Qt5Widgetsd:Qt5Widgetsd.dll
 0001:00077c74       ?keyReleaseEvent@QAbstractButton@@MAEXPAVQKeyEvent@@@Z 00478c74 f   Qt5Widgetsd:Qt5Widgetsd.dll
 0001:00077c7a       ?keyReleaseEvent@QTextEdit@@MAEXPAVQKeyEvent@@@Z 00478c7a f   Qt5Widgetsd:Qt5Widgetsd.dll
 0001:00077c80       ?keyReleaseEvent@QWidget@@MAEXPAVQKeyEvent@@@Z 00478c80 f   Qt5Widgetsd:Qt5Widgetsd.dll
 0001:00077c86       ?keyboardSearch@QAbstractItemView@@UAEXABVQString@@@Z 00478c86 f   Qt5Widgetsd:Qt5Widgetsd.dll
 0001:00077c8c       ?keyboardSearch@QTreeView@@UAEXABVQString@@@Z 00478c8c f   Qt5Widgetsd:Qt5Widgetsd.dll
 0001:00077c92       ?layout@QLayout@@UAEPAV1@XZ 00478c92 f   Qt5Widgetsd:Qt5Widgetsd.dll
 0001:00077c98       ?layout@QLayoutItem@@UAEPAVQLayout@@XZ 00478c98 f   Qt5Widgetsd:Qt5Widgetsd.dll
 0001:00077c9e       ?leaveEvent@QMenu@@MAEXPAVQEvent@@@Z 00478c9e f   Qt5Widgetsd:Qt5Widgetsd.dll
 0001:00077ca4       ?leaveEvent@QMenuBar@@MAEXPAVQEvent@@@Z 00478ca4 f   Qt5Widgetsd:Qt5Widgetsd.dll
 0001:00077caa       ?leaveEvent@QWidget@@MAEXPAVQEvent@@@Z 00478caa f   Qt5Widgetsd:Qt5Widgetsd.dll
 0001:00077cb0       ?loadResource@QTextEdit@@UAE?AVQVariant@@HABVQUrl@@@Z 00478cb0 f   Qt5Widgetsd:Qt5Widgetsd.dll
 0001:00077cb6       ?maximumSize@QBoxLayout@@UBE?AVQSize@@XZ 00478cb6 f   Qt5Widgetsd:Qt5Widgetsd.dll
 0001:00077cbc       ?maximumSize@QSpacerItem@@UBE?AVQSize@@XZ 00478cbc f   Qt5Widgetsd:Qt5Widgetsd.dll
 0001:00077cc2       ?metaObject@QAction@@UBEPBUQMetaObject@@XZ 00478cc2 f   Qt5Widgetsd:Qt5Widgetsd.dll
 0001:00077cc8       ?metaObject@QGroupBox@@UBEPBUQMetaObject@@XZ 00478cc8 f   Qt5Widgetsd:Qt5Widgetsd.dll
 0001:00077cce       ?metaObject@QHBoxLayout@@UBEPBUQMetaObject@@XZ 00478cce f   Qt5Widgetsd:Qt5Widgetsd.dll
 0001:00077cd4       ?metaObject@QListWidget@@UBEPBUQMetaObject@@XZ 00478cd4 f   Qt5Widgetsd:Qt5Widgetsd.dll
 0001:00077cda       ?metaObject@QMenu@@UBEPBUQMetaObject@@XZ 00478cda f   Qt5Widgetsd:Qt5Widgetsd.dll
 0001:00077ce0       ?metaObject@QMenuBar@@UBEPBUQMetaObject@@XZ 00478ce0 f   Qt5Widgetsd:Qt5Widgetsd.dll
 0001:00077ce6       ?metaObject@QPushButton@@UBEPBUQMetaObject@@XZ 00478ce6 f   Qt5Widgetsd:Qt5Widgetsd.dll
 0001:00077cec       ?metaObject@QSplitter@@UBEPBUQMetaObject@@XZ 00478cec f   Qt5Widgetsd:Qt5Widgetsd.dll
 0001:00077cf2       ?metaObject@QStatusBar@@UBEPBUQMetaObject@@XZ 00478cf2 f   Qt5Widgetsd:Qt5Widgetsd.dll
 0001:00077cf8       ?metaObject@QTextEdit@@UBEPBUQMetaObject@@XZ 00478cf8 f   Qt5Widgetsd:Qt5Widgetsd.dll
 0001:00077cfe       ?metaObject@QToolBar@@UBEPBUQMetaObject@@XZ 00478cfe f   Qt5Widgetsd:Qt5Widgetsd.dll
 0001:00077d04       ?metaObject@QTreeWidget@@UBEPBUQMetaObject@@XZ 00478d04 f   Qt5Widgetsd:Qt5Widgetsd.dll
 0001:00077d0a       ?metaObject@QVBoxLayout@@UBEPBUQMetaObject@@XZ 00478d0a f   Qt5Widgetsd:Qt5Widgetsd.dll
 0001:00077d10       ?metaObject@QWidget@@UBEPBUQMetaObject@@XZ 00478d10 f   Qt5Widgetsd:Qt5Widgetsd.dll
 0001:00077d16       ?metric@QWidget@@MBEHW4PaintDeviceMetric@QPaintDevice@@@Z 00478d16 f   Qt5Widgetsd:Qt5Widgetsd.dll
 0001:00077d1c       ?mimeData@QListWidget@@MBEPAVQMimeData@@V?$QList@PAVQListWidgetItem@@@@@Z 00478d1c f   Qt5Widgetsd:Qt5Widgetsd.dll
 0001:00077d22       ?mimeData@QTreeWidget@@MBEPAVQMimeData@@V?$QList@PAVQTreeWidgetItem@@@@@Z 00478d22 f   Qt5Widgetsd:Qt5Widgetsd.dll
 0001:00077d28       ?mimeTypes@QListWidget@@MBE?AVQStringList@@XZ 00478d28 f   Qt5Widgetsd:Qt5Widgetsd.dll
 0001:00077d2e       ?mimeTypes@QTreeWidget@@MBE?AVQStringList@@XZ 00478d2e f   Qt5Widgetsd:Qt5Widgetsd.dll
 0001:00077d34       ?minimumHeightForWidth@QBoxLayout@@UBEHH@Z 00478d34 f   Qt5Widgetsd:Qt5Widgetsd.dll
 0001:00077d3a       ?minimumHeightForWidth@QLayoutItem@@UBEHH@Z 00478d3a f   Qt5Widgetsd:Qt5Widgetsd.dll
 0001:00077d40       ?minimumSize@QBoxLayout@@UBE?AVQSize@@XZ 00478d40 f   Qt5Widgetsd:Qt5Widgetsd.dll
 0001:00077d46       ?minimumSize@QSpacerItem@@UBE?AVQSize@@XZ 00478d46 f   Qt5Widgetsd:Qt5Widgetsd.dll
 0001:00077d4c       ?minimumSizeHint@QAbstractScrollArea@@UBE?AVQSize@@XZ 00478d4c f   Qt5Widgetsd:Qt5Widgetsd.dll
 0001:00077d52       ?minimumSizeHint@QGroupBox@@UBE?AVQSize@@XZ 00478d52 f   Qt5Widgetsd:Qt5Widgetsd.dll
 0001:00077d58       ?minimumSizeHint@QMenuBar@@UBE?AVQSize@@XZ 00478d58 f   Qt5Widgetsd:Qt5Widgetsd.dll
 0001:00077d5e       ?minimumSizeHint@QPushButton@@UBE?AVQSize@@XZ 00478d5e f   Qt5Widgetsd:Qt5Widgetsd.dll
 0001:00077d64       ?minimumSizeHint@QSplitter@@UBE?AVQSize@@XZ 00478d64 f   Qt5Widgetsd:Qt5Widgetsd.dll
 0001:00077d6a       ?minimumSizeHint@QWidget@@UBE?AVQSize@@XZ 00478d6a f   Qt5Widgetsd:Qt5Widgetsd.dll
 0001:00077d70       ?mouseDoubleClickEvent@QAbstractItemView@@MAEXPAVQMouseEvent@@@Z 00478d70 f   Qt5Widgetsd:Qt5Widgetsd.dll
 0001:00077d76       ?mouseDoubleClickEvent@QTextEdit@@MAEXPAVQMouseEvent@@@Z 00478d76 f   Qt5Widgetsd:Qt5Widgetsd.dll
 0001:00077d7c       ?mouseDoubleClickEvent@QTreeView@@MAEXPAVQMouseEvent@@@Z 00478d7c f   Qt5Widgetsd:Qt5Widgetsd.dll
 0001:00077d82       ?mouseDoubleClickEvent@QWidget@@MAEXPAVQMouseEvent@@@Z 00478d82 f   Qt5Widgetsd:Qt5Widgetsd.dll
 0001:00077d88       ?mouseMoveEvent@QAbstractButton@@MAEXPAVQMouseEvent@@@Z 00478d88 f   Qt5Widgetsd:Qt5Widgetsd.dll
 0001:00077d8e       ?mouseMoveEvent@QGroupBox@@MAEXPAVQMouseEvent@@@Z 00478d8e f   Qt5Widgetsd:Qt5Widgetsd.dll
 0001:00077d94       ?mouseMoveEvent@QListView@@MAEXPAVQMouseEvent@@@Z 00478d94 f   Qt5Widgetsd:Qt5Widgetsd.dll
 0001:00077d9a       ?mouseMoveEvent@QMenu@@MAEXPAVQMouseEvent@@@Z 00478d9a f   Qt5Widgetsd:Qt5Widgetsd.dll
 0001:00077da0       ?mouseMoveEvent@QMenuBar@@MAEXPAVQMouseEvent@@@Z 00478da0 f   Qt5Widgetsd:Qt5Widgetsd.dll
 0001:00077da6       ?mouseMoveEvent@QTextEdit@@MAEXPAVQMouseEvent@@@Z 00478da6 f   Qt5Widgetsd:Qt5Widgetsd.dll
 0001:00077dac       ?mouseMoveEvent@QTreeView@@MAEXPAVQMouseEvent@@@Z 00478dac f   Qt5Widgetsd:Qt5Widgetsd.dll
 0001:00077db2       ?mouseMoveEvent@QWidget@@MAEXPAVQMouseEvent@@@Z 00478db2 f   Qt5Widgetsd:Qt5Widgetsd.dll
 0001:00077db8       ?mousePressEvent@QAbstractButton@@MAEXPAVQMouseEvent@@@Z 00478db8 f   Qt5Widgetsd:Qt5Widgetsd.dll
 0001:00077dbe       ?mousePressEvent@QAbstractItemView@@MAEXPAVQMouseEvent@@@Z 00478dbe f   Qt5Widgetsd:Qt5Widgetsd.dll
 0001:00077dc4       ?mousePressEvent@QGroupBox@@MAEXPAVQMouseEvent@@@Z 00478dc4 f   Qt5Widgetsd:Qt5Widgetsd.dll
 0001:00077dca       ?mousePressEvent@QMenu@@MAEXPAVQMouseEvent@@@Z 00478dca f   Qt5Widgetsd:Qt5Widgetsd.dll
 0001:00077dd0       ?mousePressEvent@QMenuBar@@MAEXPAVQMouseEvent@@@Z 00478dd0 f   Qt5Widgetsd:Qt5Widgetsd.dll
 0001:00077dd6       ?mousePressEvent@QTextEdit@@MAEXPAVQMouseEvent@@@Z 00478dd6 f   Qt5Widgetsd:Qt5Widgetsd.dll
 0001:00077ddc       ?mousePressEvent@QTreeView@@MAEXPAVQMouseEvent@@@Z 00478ddc f   Qt5Widgetsd:Qt5Widgetsd.dll
 0001:00077de2       ?mousePressEvent@QWidget@@MAEXPAVQMouseEvent@@@Z 00478de2 f   Qt5Widgetsd:Qt5Widgetsd.dll
 0001:00077de8       ?mouseReleaseEvent@QAbstractButton@@MAEXPAVQMouseEvent@@@Z 00478de8 f   Qt5Widgetsd:Qt5Widgetsd.dll
 0001:00077dee       ?mouseReleaseEvent@QGroupBox@@MAEXPAVQMouseEvent@@@Z 00478dee f   Qt5Widgetsd:Qt5Widgetsd.dll
 0001:00077df4       ?mouseReleaseEvent@QListView@@MAEXPAVQMouseEvent@@@Z 00478df4 f   Qt5Widgetsd:Qt5Widgetsd.dll
 0001:00077dfa       ?mouseReleaseEvent@QMenu@@MAEXPAVQMouseEvent@@@Z 00478dfa f   Qt5Widgetsd:Qt5Widgetsd.dll
 0001:00077e00       ?mouseReleaseEvent@QMenuBar@@MAEXPAVQMouseEvent@@@Z 00478e00 f   Qt5Widgetsd:Qt5Widgetsd.dll
 0001:00077e06       ?mouseReleaseEvent@QTextEdit@@MAEXPAVQMouseEvent@@@Z 00478e06 f   Qt5Widgetsd:Qt5Widgetsd.dll
 0001:00077e0c       ?mouseReleaseEvent@QTreeView@@MAEXPAVQMouseEvent@@@Z 00478e0c f   Qt5Widgetsd:Qt5Widgetsd.dll
 0001:00077e12       ?mouseReleaseEvent@QWidget@@MAEXPAVQMouseEvent@@@Z 00478e12 f   Qt5Widgetsd:Qt5Widgetsd.dll
 0001:00077e18       ?moveCursor@QListView@@MAE?AVQModelIndex@@W4CursorAction@QAbstractItemView@@V?$QFlags@W4KeyboardModifier@Qt@@@@@Z 00478e18 f   Qt5Widgetsd:Qt5Widgetsd.dll
 0001:00077e1e       ?moveCursor@QTreeView@@MAE?AVQModelIndex@@W4CursorAction@QAbstractItemView@@V?$QFlags@W4KeyboardModifier@Qt@@@@@Z 00478e1e f   Qt5Widgetsd:Qt5Widgetsd.dll
 0001:00077e24       ?moveEvent@QWidget@@MAEXPAVQMoveEvent@@@Z 00478e24 f   Qt5Widgetsd:Qt5Widgetsd.dll
 0001:00077e2a       ?nativeEvent@QWidget@@MAE_NABVQByteArray@@PAXPAJ@Z 00478e2a f   Qt5Widgetsd:Qt5Widgetsd.dll
 0001:00077e30       ?nextCheckState@QAbstractButton@@MAEXXZ 00478e30 f   Qt5Widgetsd:Qt5Widgetsd.dll
 0001:00077e36       ?paintEngine@QWidget@@UBEPAVQPaintEngine@@XZ 00478e36 f   Qt5Widgetsd:Qt5Widgetsd.dll
 0001:00077e3c       ?paintEvent@QFrame@@MAEXPAVQPaintEvent@@@Z 00478e3c f   Qt5Widgetsd:Qt5Widgetsd.dll
 0001:00077e42       ?paintEvent@QGroupBox@@MAEXPAVQPaintEvent@@@Z 00478e42 f   Qt5Widgetsd:Qt5Widgetsd.dll
 0001:00077e48       ?paintEvent@QListView@@MAEXPAVQPaintEvent@@@Z 00478e48 f   Qt5Widgetsd:Qt5Widgetsd.dll
 0001:00077e4e       ?paintEvent@QMenu@@MAEXPAVQPaintEvent@@@Z 00478e4e f   Qt5Widgetsd:Qt5Widgetsd.dll
 0001:00077e54       ?paintEvent@QMenuBar@@MAEXPAVQPaintEvent@@@Z 00478e54 f   Qt5Widgetsd:Qt5Widgetsd.dll
 0001:00077e5a       ?paintEvent@QPushButton@@MAEXPAVQPaintEvent@@@Z 00478e5a f   Qt5Widgetsd:Qt5Widgetsd.dll
 0001:00077e60       ?paintEvent@QStatusBar@@MAEXPAVQPaintEvent@@@Z 00478e60 f   Qt5Widgetsd:Qt5Widgetsd.dll
 0001:00077e66       ?paintEvent@QTextEdit@@MAEXPAVQPaintEvent@@@Z 00478e66 f   Qt5Widgetsd:Qt5Widgetsd.dll
 0001:00077e6c       ?paintEvent@QToolBar@@MAEXPAVQPaintEvent@@@Z 00478e6c f   Qt5Widgetsd:Qt5Widgetsd.dll
 0001:00077e72       ?paintEvent@QTreeView@@MAEXPAVQPaintEvent@@@Z 00478e72 f   Qt5Widgetsd:Qt5Widgetsd.dll
 0001:00077e78       ?paintEvent@QWidget@@MAEXPAVQPaintEvent@@@Z 00478e78 f   Qt5Widgetsd:Qt5Widgetsd.dll
 0001:00077e7e       ?qt_metacall@QAction@@UAEHW4Call@QMetaObject@@HPAPAX@Z 00478e7e f   Qt5Widgetsd:Qt5Widgetsd.dll
 0001:00077e84       ?qt_metacall@QGroupBox@@UAEHW4Call@QMetaObject@@HPAPAX@Z 00478e84 f   Qt5Widgetsd:Qt5Widgetsd.dll
 0001:00077e8a       ?qt_metacall@QHBoxLayout@@UAEHW4Call@QMetaObject@@HPAPAX@Z 00478e8a f   Qt5Widgetsd:Qt5Widgetsd.dll
 0001:00077e90       ?qt_metacall@QListWidget@@UAEHW4Call@QMetaObject@@HPAPAX@Z 00478e90 f   Qt5Widgetsd:Qt5Widgetsd.dll
 0001:00077e96       ?qt_metacall@QMenu@@UAEHW4Call@QMetaObject@@HPAPAX@Z 00478e96 f   Qt5Widgetsd:Qt5Widgetsd.dll
 0001:00077e9c       ?qt_metacall@QMenuBar@@UAEHW4Call@QMetaObject@@HPAPAX@Z 00478e9c f   Qt5Widgetsd:Qt5Widgetsd.dll
 0001:00077ea2       ?qt_metacall@QPushButton@@UAEHW4Call@QMetaObject@@HPAPAX@Z 00478ea2 f   Qt5Widgetsd:Qt5Widgetsd.dll
 0001:00077ea8       ?qt_metacall@QSplitter@@UAEHW4Call@QMetaObject@@HPAPAX@Z 00478ea8 f   Qt5Widgetsd:Qt5Widgetsd.dll
 0001:00077eae       ?qt_metacall@QStatusBar@@UAEHW4Call@QMetaObject@@HPAPAX@Z 00478eae f   Qt5Widgetsd:Qt5Widgetsd.dll
 0001:00077eb4       ?qt_metacall@QTextEdit@@UAEHW4Call@QMetaObject@@HPAPAX@Z 00478eb4 f   Qt5Widgetsd:Qt5Widgetsd.dll
 0001:00077eba       ?qt_metacall@QToolBar@@UAEHW4Call@QMetaObject@@HPAPAX@Z 00478eba f   Qt5Widgetsd:Qt5Widgetsd.dll
 0001:00077ec0       ?qt_metacall@QTreeWidget@@UAEHW4Call@QMetaObject@@HPAPAX@Z 00478ec0 f   Qt5Widgetsd:Qt5Widgetsd.dll
 0001:00077ec6       ?qt_metacall@QVBoxLayout@@UAEHW4Call@QMetaObject@@HPAPAX@Z 00478ec6 f   Qt5Widgetsd:Qt5Widgetsd.dll
 0001:00077ecc       ?qt_metacall@QWidget@@UAEHW4Call@QMetaObject@@HPAPAX@Z 00478ecc f   Qt5Widgetsd:Qt5Widgetsd.dll
 0001:00077ed2       ?qt_metacast@QAction@@UAEPAXPBD@Z 00478ed2 f   Qt5Widgetsd:Qt5Widgetsd.dll
 0001:00077ed8       ?qt_metacast@QGroupBox@@UAEPAXPBD@Z 00478ed8 f   Qt5Widgetsd:Qt5Widgetsd.dll
 0001:00077ede       ?qt_metacast@QHBoxLayout@@UAEPAXPBD@Z 00478ede f   Qt5Widgetsd:Qt5Widgetsd.dll
 0001:00077ee4       ?qt_metacast@QListWidget@@UAEPAXPBD@Z 00478ee4 f   Qt5Widgetsd:Qt5Widgetsd.dll
 0001:00077eea       ?qt_metacast@QMenu@@UAEPAXPBD@Z 00478eea f   Qt5Widgetsd:Qt5Widgetsd.dll
 0001:00077ef0       ?qt_metacast@QMenuBar@@UAEPAXPBD@Z 00478ef0 f   Qt5Widgetsd:Qt5Widgetsd.dll
 0001:00077ef6       ?qt_metacast@QPushButton@@UAEPAXPBD@Z 00478ef6 f   Qt5Widgetsd:Qt5Widgetsd.dll
 0001:00077efc       ?qt_metacast@QSplitter@@UAEPAXPBD@Z 00478efc f   Qt5Widgetsd:Qt5Widgetsd.dll
 0001:00077f02       ?qt_metacast@QStatusBar@@UAEPAXPBD@Z 00478f02 f   Qt5Widgetsd:Qt5Widgetsd.dll
 0001:00077f08       ?qt_metacast@QTextEdit@@UAEPAXPBD@Z 00478f08 f   Qt5Widgetsd:Qt5Widgetsd.dll
 0001:00077f0e       ?qt_metacast@QToolBar@@UAEPAXPBD@Z 00478f0e f   Qt5Widgetsd:Qt5Widgetsd.dll
 0001:00077f14       ?qt_metacast@QTreeWidget@@UAEPAXPBD@Z 00478f14 f   Qt5Widgetsd:Qt5Widgetsd.dll
 0001:00077f1a       ?qt_metacast@QVBoxLayout@@UAEPAXPBD@Z 00478f1a f   Qt5Widgetsd:Qt5Widgetsd.dll
 0001:00077f20       ?qt_metacast@QWidget@@UAEPAXPBD@Z 00478f20 f   Qt5Widgetsd:Qt5Widgetsd.dll
 0001:00077f26       ?read@QListWidgetItem@@UAEXAAVQDataStream@@@Z 00478f26 f   Qt5Widgetsd:Qt5Widgetsd.dll
 0001:00077f2c       ?redirected@QWidget@@MBEPAVQPaintDevice@@PAVQPoint@@@Z 00478f2c f   Qt5Widgetsd:Qt5Widgetsd.dll
 0001:00077f32       ?reset@QListView@@UAEXXZ   00478f32 f   Qt5Widgetsd:Qt5Widgetsd.dll
 0001:00077f38       ?reset@QTreeView@@UAEXXZ   00478f38 f   Qt5Widgetsd:Qt5Widgetsd.dll
 0001:00077f3e       ?resizeEvent@QAbstractItemView@@MAEXPAVQResizeEvent@@@Z 00478f3e f   Qt5Widgetsd:Qt5Widgetsd.dll
 0001:00077f44       ?resizeEvent@QGroupBox@@MAEXPAVQResizeEvent@@@Z 00478f44 f   Qt5Widgetsd:Qt5Widgetsd.dll
 0001:00077f4a       ?resizeEvent@QListView@@MAEXPAVQResizeEvent@@@Z 00478f4a f   Qt5Widgetsd:Qt5Widgetsd.dll
 0001:00077f50       ?resizeEvent@QMenuBar@@MAEXPAVQResizeEvent@@@Z 00478f50 f   Qt5Widgetsd:Qt5Widgetsd.dll
 0001:00077f56       ?resizeEvent@QSplitter@@MAEXPAVQResizeEvent@@@Z 00478f56 f   Qt5Widgetsd:Qt5Widgetsd.dll
 0001:00077f5c       ?resizeEvent@QStatusBar@@MAEXPAVQResizeEvent@@@Z 00478f5c f   Qt5Widgetsd:Qt5Widgetsd.dll
 0001:00077f62       ?resizeEvent@QTextEdit@@MAEXPAVQResizeEvent@@@Z 00478f62 f   Qt5Widgetsd:Qt5Widgetsd.dll
 0001:00077f68       ?resizeEvent@QWidget@@MAEXPAVQResizeEvent@@@Z 00478f68 f   Qt5Widgetsd:Qt5Widgetsd.dll
 0001:00077f6e       ?rowsAboutToBeRemoved@QListView@@MAEXABVQModelIndex@@HH@Z 00478f6e f   Qt5Widgetsd:Qt5Widgetsd.dll
 0001:00077f74       ?rowsAboutToBeRemoved@QTreeView@@MAEXABVQModelIndex@@HH@Z 00478f74 f   Qt5Widgetsd:Qt5Widgetsd.dll
 0001:00077f7a       ?rowsInserted@QListView@@MAEXABVQModelIndex@@HH@Z 00478f7a f   Qt5Widgetsd:Qt5Widgetsd.dll
 0001:00077f80       ?rowsInserted@QTreeView@@MAEXABVQModelIndex@@HH@Z 00478f80 f   Qt5Widgetsd:Qt5Widgetsd.dll
 0001:00077f86       ?scrollContentsBy@QListView@@MAEXHH@Z 00478f86 f   Qt5Widgetsd:Qt5Widgetsd.dll
 0001:00077f8c       ?scrollContentsBy@QTextEdit@@MAEXHH@Z 00478f8c f   Qt5Widgetsd:Qt5Widgetsd.dll
 0001:00077f92       ?scrollContentsBy@QTreeView@@MAEXHH@Z 00478f92 f   Qt5Widgetsd:Qt5Widgetsd.dll
 0001:00077f98       ?scrollTo@QListView@@UAEXABVQModelIndex@@W4ScrollHint@QAbstractItemView@@@Z 00478f98 f   Qt5Widgetsd:Qt5Widgetsd.dll
 0001:00077f9e       ?scrollTo@QTreeView@@UAEXABVQModelIndex@@W4ScrollHint@QAbstractItemView@@@Z 00478f9e f   Qt5Widgetsd:Qt5Widgetsd.dll
 0001:00077fa4       ?selectAll@QAbstractItemView@@UAEXXZ 00478fa4 f   Qt5Widgetsd:Qt5Widgetsd.dll
 0001:00077faa       ?selectAll@QTreeView@@UAEXXZ 00478faa f   Qt5Widgetsd:Qt5Widgetsd.dll
 0001:00077fb0       ?selectedIndexes@QListView@@MBE?AV?$QList@VQModelIndex@@@@XZ 00478fb0 f   Qt5Widgetsd:Qt5Widgetsd.dll
 0001:00077fb6       ?selectedIndexes@QTreeView@@MBE?AV?$QList@VQModelIndex@@@@XZ 00478fb6 f   Qt5Widgetsd:Qt5Widgetsd.dll
 0001:00077fbc       ?selectionChanged@QListView@@MAEXABVQItemSelection@@0@Z 00478fbc f   Qt5Widgetsd:Qt5Widgetsd.dll
 0001:00077fc2       ?selectionChanged@QTreeView@@MAEXABVQItemSelection@@0@Z 00478fc2 f   Qt5Widgetsd:Qt5Widgetsd.dll
 0001:00077fc8       ?selectionCommand@QAbstractItemView@@MBE?AV?$QFlags@W4SelectionFlag@QItemSelectionModel@@@@ABVQModelIndex@@PBVQEvent@@@Z 00478fc8 f   Qt5Widgetsd:Qt5Widgetsd.dll
 0001:00077fce       ?setBackgroundColor@QListWidgetItem@@UAEXABVQColor@@@Z 00478fce f   Qt5Widgetsd:Qt5Widgetsd.dll
 0001:00077fd4       ?setData@QListWidgetItem@@UAEXHABVQVariant@@@Z 00478fd4 f   Qt5Widgetsd:Qt5Widgetsd.dll
 0001:00077fda       ?setGeometry@QBoxLayout@@UAEXABVQRect@@@Z 00478fda f   Qt5Widgetsd:Qt5Widgetsd.dll
 0001:00077fe0       ?setGeometry@QSpacerItem@@UAEXABVQRect@@@Z 00478fe0 f   Qt5Widgetsd:Qt5Widgetsd.dll
 0001:00077fe6       ?setModel@QListWidget@@EAEXPAVQAbstractItemModel@@@Z 00478fe6 f   Qt5Widgetsd:Qt5Widgetsd.dll
 0001:00077fec       ?setModel@QTreeWidget@@EAEXPAVQAbstractItemModel@@@Z 00478fec f   Qt5Widgetsd:Qt5Widgetsd.dll
 0001:00077ff2       ?setRootIndex@QListView@@UAEXABVQModelIndex@@@Z 00478ff2 f   Qt5Widgetsd:Qt5Widgetsd.dll
 0001:00077ff8       ?setRootIndex@QTreeView@@UAEXABVQModelIndex@@@Z 00478ff8 f   Qt5Widgetsd:Qt5Widgetsd.dll
 0001:00077ffe       ?setSelection@QListView@@MAEXABVQRect@@V?$QFlags@W4SelectionFlag@QItemSelectionModel@@@@@Z 00478ffe f   Qt5Widgetsd:Qt5Widgetsd.dll
 0001:00078004       ?setSelection@QTreeView@@MAEXABVQRect@@V?$QFlags@W4SelectionFlag@QItemSelectionModel@@@@@Z 00479004 f   Qt5Widgetsd:Qt5Widgetsd.dll
 0001:0007800a       ?setSelectionModel@QListWidget@@UAEXPAVQItemSelectionModel@@@Z 0047900a f   Qt5Widgetsd:Qt5Widgetsd.dll
 0001:00078010       ?setSelectionModel@QTreeWidget@@UAEXPAVQItemSelectionModel@@@Z 00479010 f   Qt5Widgetsd:Qt5Widgetsd.dll
 0001:00078016       ?setVisible@QMenuBar@@UAEX_N@Z 00479016 f   Qt5Widgetsd:Qt5Widgetsd.dll
 0001:0007801c       ?setVisible@QWidget@@UAEX_N@Z 0047901c f   Qt5Widgetsd:Qt5Widgetsd.dll
 0001:00078022       ?setupViewport@QAbstractScrollArea@@UAEXPAVQWidget@@@Z 00479022 f   Qt5Widgetsd:Qt5Widgetsd.dll
 0001:00078028       ?sharedPainter@QWidget@@MBEPAVQPainter@@XZ 00479028 f   Qt5Widgetsd:Qt5Widgetsd.dll
 0001:0007802e       ?showEvent@QStatusBar@@MAEXPAVQShowEvent@@@Z 0047902e f   Qt5Widgetsd:Qt5Widgetsd.dll
 0001:00078034       ?showEvent@QTextEdit@@MAEXPAVQShowEvent@@@Z 00479034 f   Qt5Widgetsd:Qt5Widgetsd.dll
 0001:0007803a       ?showEvent@QWidget@@MAEXPAVQShowEvent@@@Z 0047903a f   Qt5Widgetsd:Qt5Widgetsd.dll
 0001:00078040       ?sizeHint@QAbstractScrollArea@@UBE?AVQSize@@XZ 00479040 f   Qt5Widgetsd:Qt5Widgetsd.dll
 0001:00078046       ?sizeHint@QBoxLayout@@UBE?AVQSize@@XZ 00479046 f   Qt5Widgetsd:Qt5Widgetsd.dll
 0001:0007804c       ?sizeHint@QMenu@@UBE?AVQSize@@XZ 0047904c f   Qt5Widgetsd:Qt5Widgetsd.dll
 0001:00078052       ?sizeHint@QMenuBar@@UBE?AVQSize@@XZ 00479052 f   Qt5Widgetsd:Qt5Widgetsd.dll
 0001:00078058       ?sizeHint@QPushButton@@UBE?AVQSize@@XZ 00479058 f   Qt5Widgetsd:Qt5Widgetsd.dll
 0001:0007805e       ?sizeHint@QSpacerItem@@UBE?AVQSize@@XZ 0047905e f   Qt5Widgetsd:Qt5Widgetsd.dll
 0001:00078064       ?sizeHint@QSplitter@@UBE?AVQSize@@XZ 00479064 f   Qt5Widgetsd:Qt5Widgetsd.dll
 0001:0007806a       ?sizeHint@QWidget@@UBE?AVQSize@@XZ 0047906a f   Qt5Widgetsd:Qt5Widgetsd.dll
 0001:00078070       ?sizeHintForColumn@QAbstractItemView@@UBEHH@Z 00479070 f   Qt5Widgetsd:Qt5Widgetsd.dll
 0001:00078076       ?sizeHintForColumn@QTreeView@@MBEHH@Z 00479076 f   Qt5Widgetsd:Qt5Widgetsd.dll
 0001:0007807c       ?sizeHintForRow@QAbstractItemView@@UBEHH@Z 0047907c f   Qt5Widgetsd:Qt5Widgetsd.dll
 0001:00078082       ?spacerItem@QLayoutItem@@UAEPAVQSpacerItem@@XZ 00479082 f   Qt5Widgetsd:Qt5Widgetsd.dll
 0001:00078088       ?spacerItem@QSpacerItem@@UAEPAV1@XZ 00479088 f   Qt5Widgetsd:Qt5Widgetsd.dll
 0001:0007808e       ?startDrag@QAbstractItemView@@MAEXV?$QFlags@W4DropAction@Qt@@@@@Z 0047908e f   Qt5Widgetsd:Qt5Widgetsd.dll
 0001:00078094       ?startDrag@QListView@@MAEXV?$QFlags@W4DropAction@Qt@@@@@Z 00479094 f   Qt5Widgetsd:Qt5Widgetsd.dll
 0001:0007809a       ?supportedDropActions@QListWidget@@MBE?AV?$QFlags@W4DropAction@Qt@@@@XZ 0047909a f   Qt5Widgetsd:Qt5Widgetsd.dll
 0001:000780a0       ?supportedDropActions@QTreeWidget@@MBE?AV?$QFlags@W4DropAction@Qt@@@@XZ 004790a0 f   Qt5Widgetsd:Qt5Widgetsd.dll
 0001:000780a6       ?tabletEvent@QWidget@@MAEXPAVQTabletEvent@@@Z 004790a6 f   Qt5Widgetsd:Qt5Widgetsd.dll
 0001:000780ac       ?takeAt@QBoxLayout@@UAEPAVQLayoutItem@@H@Z 004790ac f   Qt5Widgetsd:Qt5Widgetsd.dll
 0001:000780b2       ?timerEvent@QAbstractButton@@MAEXPAVQTimerEvent@@@Z 004790b2 f   Qt5Widgetsd:Qt5Widgetsd.dll
 0001:000780b8       ?timerEvent@QListView@@MAEXPAVQTimerEvent@@@Z 004790b8 f   Qt5Widgetsd:Qt5Widgetsd.dll
 0001:000780be       ?timerEvent@QMenu@@MAEXPAVQTimerEvent@@@Z 004790be f   Qt5Widgetsd:Qt5Widgetsd.dll
 0001:000780c4       ?timerEvent@QMenuBar@@MAEXPAVQTimerEvent@@@Z 004790c4 f   Qt5Widgetsd:Qt5Widgetsd.dll
 0001:000780ca       ?timerEvent@QTextEdit@@MAEXPAVQTimerEvent@@@Z 004790ca f   Qt5Widgetsd:Qt5Widgetsd.dll
 0001:000780d0       ?timerEvent@QTreeView@@MAEXPAVQTimerEvent@@@Z 004790d0 f   Qt5Widgetsd:Qt5Widgetsd.dll
 0001:000780d6       ?updateEditorData@QAbstractItemView@@MAEXXZ 004790d6 f   Qt5Widgetsd:Qt5Widgetsd.dll
 0001:000780dc       ?updateEditorGeometries@QAbstractItemView@@MAEXXZ 004790dc f   Qt5Widgetsd:Qt5Widgetsd.dll
 0001:000780e2       ?updateGeometries@QListView@@MAEXXZ 004790e2 f   Qt5Widgetsd:Qt5Widgetsd.dll
 0001:000780e8       ?updateGeometries@QTreeView@@MAEXXZ 004790e8 f   Qt5Widgetsd:Qt5Widgetsd.dll
 0001:000780ee       ?verticalOffset@QListView@@MBEHXZ 004790ee f   Qt5Widgetsd:Qt5Widgetsd.dll
 0001:000780f4       ?verticalOffset@QTreeView@@MBEHXZ 004790f4 f   Qt5Widgetsd:Qt5Widgetsd.dll
 0001:000780fa       ?verticalScrollbarAction@QAbstractItemView@@MAEXH@Z 004790fa f   Qt5Widgetsd:Qt5Widgetsd.dll
 0001:00078100       ?verticalScrollbarValueChanged@QAbstractItemView@@MAEXH@Z 00479100 f   Qt5Widgetsd:Qt5Widgetsd.dll
 0001:00078106       ?viewOptions@QAbstractItemView@@MBE?AVQStyleOptionViewItem@@XZ 00479106 f   Qt5Widgetsd:Qt5Widgetsd.dll
 0001:0007810c       ?viewOptions@QListView@@MBE?AVQStyleOptionViewItem@@XZ 0047910c f   Qt5Widgetsd:Qt5Widgetsd.dll
 0001:00078112       ?viewportEvent@QAbstractItemView@@MAE_NPAVQEvent@@@Z 00479112 f   Qt5Widgetsd:Qt5Widgetsd.dll
 0001:00078118       ?viewportEvent@QAbstractScrollArea@@MAE_NPAVQEvent@@@Z 00479118 f   Qt5Widgetsd:Qt5Widgetsd.dll
 0001:0007811e       ?viewportEvent@QTreeView@@MAE_NPAVQEvent@@@Z 0047911e f   Qt5Widgetsd:Qt5Widgetsd.dll
 0001:00078124       ?viewportSizeHint@QAbstractScrollArea@@MBE?AVQSize@@XZ 00479124 f   Qt5Widgetsd:Qt5Widgetsd.dll
 0001:0007812a       ?viewportSizeHint@QListView@@MBE?AVQSize@@XZ 0047912a f   Qt5Widgetsd:Qt5Widgetsd.dll
 0001:00078130       ?viewportSizeHint@QTreeView@@MBE?AVQSize@@XZ 00479130 f   Qt5Widgetsd:Qt5Widgetsd.dll
 0001:00078136       ?visualRect@QListView@@UBE?AVQRect@@ABVQModelIndex@@@Z 00479136 f   Qt5Widgetsd:Qt5Widgetsd.dll
 0001:0007813c       ?visualRect@QTreeView@@UBE?AVQRect@@ABVQModelIndex@@@Z 0047913c f   Qt5Widgetsd:Qt5Widgetsd.dll
 0001:00078142       ?visualRegionForSelection@QListView@@MBE?AVQRegion@@ABVQItemSelection@@@Z 00479142 f   Qt5Widgetsd:Qt5Widgetsd.dll
 0001:00078148       ?visualRegionForSelection@QTreeView@@MBE?AVQRegion@@ABVQItemSelection@@@Z 00479148 f   Qt5Widgetsd:Qt5Widgetsd.dll
 0001:0007814e       ?wheelEvent@QAbstractScrollArea@@MAEXPAVQWheelEvent@@@Z 0047914e f   Qt5Widgetsd:Qt5Widgetsd.dll
 0001:00078154       ?wheelEvent@QListView@@MAEXPAVQWheelEvent@@@Z 00479154 f   Qt5Widgetsd:Qt5Widgetsd.dll
 0001:0007815a       ?wheelEvent@QMenu@@MAEXPAVQWheelEvent@@@Z 0047915a f   Qt5Widgetsd:Qt5Widgetsd.dll
 0001:00078160       ?wheelEvent@QTextEdit@@MAEXPAVQWheelEvent@@@Z 00479160 f   Qt5Widgetsd:Qt5Widgetsd.dll
 0001:00078166       ?wheelEvent@QWidget@@MAEXPAVQWheelEvent@@@Z 00479166 f   Qt5Widgetsd:Qt5Widgetsd.dll
 0001:0007816c       ?widget@QLayoutItem@@UAEPAVQWidget@@XZ 0047916c f   Qt5Widgetsd:Qt5Widgetsd.dll
 0001:00078172       ?write@QListWidgetItem@@UBEXAAVQDataStream@@@Z 00479172 f   Qt5Widgetsd:Qt5Widgetsd.dll
 0001:00078178       ??0QDialog@@QAE@PAVQWidget@@V?$QFlags@W4WindowType@Qt@@@@@Z 00479178 f   Qt5Widgetsd:Qt5Widgetsd.dll
 0001:0007817e       ??1QDialog@@UAE@XZ         0047917e f   Qt5Widgetsd:Qt5Widgetsd.dll
 0001:00078184       ??0QLabel@@QAE@PAVQWidget@@V?$QFlags@W4WindowType@Qt@@@@@Z 00479184 f   Qt5Widgetsd:Qt5Widgetsd.dll
 0001:0007818a       ??1QLabel@@UAE@XZ          0047918a f   Qt5Widgetsd:Qt5Widgetsd.dll
 0001:00078190       ?setText@QLabel@@QAEXABVQString@@@Z 00479190 f   Qt5Widgetsd:Qt5Widgetsd.dll
 0001:00078196       ??0QTreeWidgetItem@@QAE@PAVQTreeWidget@@H@Z 00479196 f   Qt5Widgetsd:Qt5Widgetsd.dll
 0001:0007819c       ?text@QTreeWidgetItem@@QBE?AVQString@@H@Z 0047919c f   Qt5Widgetsd:Qt5Widgetsd.dll
 0001:000781a2       ?currentItem@QTreeWidget@@QBEPAVQTreeWidgetItem@@XZ 004791a2 f   Qt5Widgetsd:Qt5Widgetsd.dll
 0001:000781a8       ?getText@QInputDialog@@SA?AVQString@@PAVQWidget@@ABV2@1W4EchoMode@QLineEdit@@1PA_NV?$QFlags@W4WindowType@Qt@@@@V?$QFlags@W4InputMethodHint@Qt@@@@@Z 004791a8 f   Qt5Widgetsd:Qt5Widgetsd.dll
 0001:000781ae       ?accept@QDialog@@UAEXXZ    004791ae f   Qt5Widgetsd:Qt5Widgetsd.dll
 0001:000781b4       ?changeEvent@QLabel@@MAEXPAVQEvent@@@Z 004791b4 f   Qt5Widgetsd:Qt5Widgetsd.dll
 0001:000781ba       ?closeEvent@QDialog@@MAEXPAVQCloseEvent@@@Z 004791ba f   Qt5Widgetsd:Qt5Widgetsd.dll
 0001:000781c0       ?contextMenuEvent@QDialog@@MAEXPAVQContextMenuEvent@@@Z 004791c0 f   Qt5Widgetsd:Qt5Widgetsd.dll
 0001:000781c6       ?contextMenuEvent@QLabel@@MAEXPAVQContextMenuEvent@@@Z 004791c6 f   Qt5Widgetsd:Qt5Widgetsd.dll
 0001:000781cc       ?done@QDialog@@UAEXH@Z     004791cc f   Qt5Widgetsd:Qt5Widgetsd.dll
 0001:000781d2       ?event@QLabel@@MAE_NPAVQEvent@@@Z 004791d2 f   Qt5Widgetsd:Qt5Widgetsd.dll
 0001:000781d8       ?eventFilter@QDialog@@MAE_NPAVQObject@@PAVQEvent@@@Z 004791d8 f   Qt5Widgetsd:Qt5Widgetsd.dll
 0001:000781de       ?focusInEvent@QLabel@@MAEXPAVQFocusEvent@@@Z 004791de f   Qt5Widgetsd:Qt5Widgetsd.dll
 0001:000781e4       ?focusNextPrevChild@QLabel@@MAE_N_N@Z 004791e4 f   Qt5Widgetsd:Qt5Widgetsd.dll
 0001:000781ea       ?focusOutEvent@QLabel@@MAEXPAVQFocusEvent@@@Z 004791ea f   Qt5Widgetsd:Qt5Widgetsd.dll
 0001:000781f0       ?heightForWidth@QLabel@@UBEHH@Z 004791f0 f   Qt5Widgetsd:Qt5Widgetsd.dll
 0001:000781f6       ?keyPressEvent@QDialog@@MAEXPAVQKeyEvent@@@Z 004791f6 f   Qt5Widgetsd:Qt5Widgetsd.dll
 0001:000781fc       ?keyPressEvent@QLabel@@MAEXPAVQKeyEvent@@@Z 004791fc f   Qt5Widgetsd:Qt5Widgetsd.dll
 0001:00078202       ?metaObject@QLabel@@UBEPBUQMetaObject@@XZ 00479202 f   Qt5Widgetsd:Qt5Widgetsd.dll
 0001:00078208       ?minimumSizeHint@QDialog@@UBE?AVQSize@@XZ 00479208 f   Qt5Widgetsd:Qt5Widgetsd.dll
 0001:0007820e       ?minimumSizeHint@QLabel@@UBE?AVQSize@@XZ 0047920e f   Qt5Widgetsd:Qt5Widgetsd.dll
 0001:00078214       ?mouseMoveEvent@QLabel@@MAEXPAVQMouseEvent@@@Z 00479214 f   Qt5Widgetsd:Qt5Widgetsd.dll
 0001:0007821a       ?mousePressEvent@QLabel@@MAEXPAVQMouseEvent@@@Z 0047921a f   Qt5Widgetsd:Qt5Widgetsd.dll
 0001:00078220       ?mouseReleaseEvent@QLabel@@MAEXPAVQMouseEvent@@@Z 00479220 f   Qt5Widgetsd:Qt5Widgetsd.dll
 0001:00078226       ?open@QDialog@@UAEXXZ      00479226 f   Qt5Widgetsd:Qt5Widgetsd.dll
 0001:0007822c       ?paintEvent@QLabel@@MAEXPAVQPaintEvent@@@Z 0047922c f   Qt5Widgetsd:Qt5Widgetsd.dll
 0001:00078232       ?qt_metacall@QLabel@@UAEHW4Call@QMetaObject@@HPAPAX@Z 00479232 f   Qt5Widgetsd:Qt5Widgetsd.dll
 0001:00078238       ?qt_metacast@QLabel@@UAEPAXPBD@Z 00479238 f   Qt5Widgetsd:Qt5Widgetsd.dll
 0001:0007823e       ?reject@QDialog@@UAEXXZ    0047923e f   Qt5Widgetsd:Qt5Widgetsd.dll
 0001:00078244       ?resizeEvent@QDialog@@MAEXPAVQResizeEvent@@@Z 00479244 f   Qt5Widgetsd:Qt5Widgetsd.dll
 0001:0007824a       ?setVisible@QDialog@@UAEX_N@Z 0047924a f   Qt5Widgetsd:Qt5Widgetsd.dll
 0001:00078250       ?showEvent@QDialog@@MAEXPAVQShowEvent@@@Z 00479250 f   Qt5Widgetsd:Qt5Widgetsd.dll
 0001:00078256       ?sizeHint@QDialog@@UBE?AVQSize@@XZ 00479256 f   Qt5Widgetsd:Qt5Widgetsd.dll
 0001:0007825c       ?sizeHint@QLabel@@UBE?AVQSize@@XZ 0047925c f   Qt5Widgetsd:Qt5Widgetsd.dll
 0001:00078262       ??0QDialogButtonBox@@QAE@PAVQWidget@@@Z 00479262 f   Qt5Widgetsd:Qt5Widgetsd.dll
 0001:00078268       ??1QDialogButtonBox@@UAE@XZ 00479268 f   Qt5Widgetsd:Qt5Widgetsd.dll
 0001:0007826e       ?setStandardButtons@QDialogButtonBox@@QAEXV?$QFlags@W4StandardButton@QDialogButtonBox@@@@@Z 0047926e f   Qt5Widgetsd:Qt5Widgetsd.dll
 0001:00078274       ??0QVBoxLayout@@QAE@XZ     00479274 f   Qt5Widgetsd:Qt5Widgetsd.dll
 0001:0007827a       ?setDocument@QTextEdit@@QAEXPAVQTextDocument@@@Z 0047927a f   Qt5Widgetsd:Qt5Widgetsd.dll
 0001:00078280       ??0QToolButton@@QAE@PAVQWidget@@@Z 00479280 f   Qt5Widgetsd:Qt5Widgetsd.dll
 0001:00078286       ??1QToolButton@@UAE@XZ     00479286 f   Qt5Widgetsd:Qt5Widgetsd.dll
 0001:0007828c       ?actionEvent@QToolButton@@MAEXPAVQActionEvent@@@Z 0047928c f   Qt5Widgetsd:Qt5Widgetsd.dll
 0001:00078292       ?changeEvent@QDialogButtonBox@@MAEXPAVQEvent@@@Z 00479292 f   Qt5Widgetsd:Qt5Widgetsd.dll
 0001:00078298       ?changeEvent@QToolButton@@MAEXPAVQEvent@@@Z 00479298 f   Qt5Widgetsd:Qt5Widgetsd.dll
 0001:0007829e       ?enterEvent@QToolButton@@MAEXPAVQEvent@@@Z 0047929e f   Qt5Widgetsd:Qt5Widgetsd.dll
 0001:000782a4       ?event@QDialogButtonBox@@MAE_NPAVQEvent@@@Z 004792a4 f   Qt5Widgetsd:Qt5Widgetsd.dll
 0001:000782aa       ?event@QToolButton@@MAE_NPAVQEvent@@@Z 004792aa f   Qt5Widgetsd:Qt5Widgetsd.dll
 0001:000782b0       ?focusInEvent@QAbstractButton@@MAEXPAVQFocusEvent@@@Z 004792b0 f   Qt5Widgetsd:Qt5Widgetsd.dll
 0001:000782b6       ?focusOutEvent@QAbstractButton@@MAEXPAVQFocusEvent@@@Z 004792b6 f   Qt5Widgetsd:Qt5Widgetsd.dll
 0001:000782bc       ?hitButton@QToolButton@@MBE_NABVQPoint@@@Z 004792bc f   Qt5Widgetsd:Qt5Widgetsd.dll
 0001:000782c2       ?keyPressEvent@QAbstractButton@@MAEXPAVQKeyEvent@@@Z 004792c2 f   Qt5Widgetsd:Qt5Widgetsd.dll
 0001:000782c8       ?leaveEvent@QToolButton@@MAEXPAVQEvent@@@Z 004792c8 f   Qt5Widgetsd:Qt5Widgetsd.dll
 0001:000782ce       ?metaObject@QDialogButtonBox@@UBEPBUQMetaObject@@XZ 004792ce f   Qt5Widgetsd:Qt5Widgetsd.dll
 0001:000782d4       ?metaObject@QToolButton@@UBEPBUQMetaObject@@XZ 004792d4 f   Qt5Widgetsd:Qt5Widgetsd.dll
 0001:000782da       ?minimumSizeHint@QToolButton@@UBE?AVQSize@@XZ 004792da f   Qt5Widgetsd:Qt5Widgetsd.dll
 0001:000782e0       ?mousePressEvent@QToolButton@@MAEXPAVQMouseEvent@@@Z 004792e0 f   Qt5Widgetsd:Qt5Widgetsd.dll
 0001:000782e6       ?mouseReleaseEvent@QToolButton@@MAEXPAVQMouseEvent@@@Z 004792e6 f   Qt5Widgetsd:Qt5Widgetsd.dll
 0001:000782ec       ?nextCheckState@QToolButton@@MAEXXZ 004792ec f   Qt5Widgetsd:Qt5Widgetsd.dll
 0001:000782f2       ?paintEvent@QToolButton@@MAEXPAVQPaintEvent@@@Z 004792f2 f   Qt5Widgetsd:Qt5Widgetsd.dll
 0001:000782f8       ?qt_metacall@QDialogButtonBox@@UAEHW4Call@QMetaObject@@HPAPAX@Z 004792f8 f   Qt5Widgetsd:Qt5Widgetsd.dll
 0001:000782fe       ?qt_metacall@QToolButton@@UAEHW4Call@QMetaObject@@HPAPAX@Z 004792fe f   Qt5Widgetsd:Qt5Widgetsd.dll
 0001:00078304       ?qt_metacast@QDialogButtonBox@@UAEPAXPBD@Z 00479304 f   Qt5Widgetsd:Qt5Widgetsd.dll
 0001:0007830a       ?qt_metacast@QToolButton@@UAEPAXPBD@Z 0047930a f   Qt5Widgetsd:Qt5Widgetsd.dll
 0001:00078310       ?sizeHint@QToolButton@@UBE?AVQSize@@XZ 00479310 f   Qt5Widgetsd:Qt5Widgetsd.dll
 0001:00078316       ?timerEvent@QToolButton@@MAEXPAVQTimerEvent@@@Z 00479316 f   Qt5Widgetsd:Qt5Widgetsd.dll
 0001:0007831c       ?setWordWrap@QLabel@@QAEX_N@Z 0047931c f   Qt5Widgetsd:Qt5Widgetsd.dll
 0001:00078322       ?metaObject@QDialog@@UBEPBUQMetaObject@@XZ 00479322 f   Qt5Widgetsd:Qt5Widgetsd.dll
 0001:00078330       _BNCS32ReceiveMessage      00479330 f   bncswm32:BncsWM32.obj
 0001:00078480       _BNCS32SendMessage         00479480 f   bncswm32:BncsWM32.obj
 0001:00078554       _BNCS32RxMessage           00479554 f   bncsif32:BNCSIF32.dll
 0001:0007855a       _BNCS32TxMessage           0047955a f   bncsif32:BNCSIF32.dll
 0001:00078560       _lstrcpynA@12              00479560 f   kernel32:KERNEL32.dll
 0001:00078566       _CreateFileA@28            00479566 f   kernel32:KERNEL32.dll
 0001:0007856c       _SetEndOfFile@4            0047956c f   kernel32:KERNEL32.dll
 0001:00078572       _SetFilePointer@16         00479572 f   kernel32:KERNEL32.dll
 0001:00078578       _WriteFile@20              00479578 f   kernel32:KERNEL32.dll
 0001:0007857e       _OutputDebugStringA@4      0047957e f   kernel32:KERNEL32.dll
 0001:00078584       _CloseHandle@4             00479584 f   kernel32:KERNEL32.dll
 0001:0007858a       _GetLastError@0            0047958a f   kernel32:KERNEL32.dll
 0001:00078590       _GetSystemTime@4           00479590 f   kernel32:KERNEL32.dll
 0001:00078596       _GetLocalTime@4            00479596 f   kernel32:KERNEL32.dll
 0001:0007859c       _FreeLibrary@4             0047959c f   kernel32:KERNEL32.dll
 0001:000785a2       _GetProcAddress@8          004795a2 f   kernel32:KERNEL32.dll
 0001:000785a8       _LoadLibraryA@4            004795a8 f   kernel32:KERNEL32.dll
 0001:000785ae       _GetPrivateProfileIntA@16  004795ae f   kernel32:KERNEL32.dll
 0001:000785b4       _GetPrivateProfileStringA@24 004795b4 f   kernel32:KERNEL32.dll
 0001:000785ba       _WritePrivateProfileStringA@16 004795ba f   kernel32:KERNEL32.dll
 0001:000785c0       _GetWindowsDirectoryA@8    004795c0 f   kernel32:KERNEL32.dll
 0001:000785c6       _GetModuleFileNameA@12     004795c6 f   kernel32:KERNEL32.dll
 0001:000785cc       _GetModuleHandleA@4        004795cc f   kernel32:KERNEL32.dll
 0001:000785d2       _wsprintfA                 004795d2 f   user32:USER32.dll
 0001:000785d8       _SendMessageA@16           004795d8 f   user32:USER32.dll
 0001:000785de       _PostMessageA@16           004795de f   user32:USER32.dll
 0001:000785e4       _DefWindowProcA@16         004795e4 f   user32:USER32.dll
 0001:000785ea       _RegisterClassA@4          004795ea f   user32:USER32.dll
 0001:000785f0       _UnregisterClassA@8        004795f0 f   user32:USER32.dll
 0001:000785f6       _CreateWindowExA@48        004795f6 f   user32:USER32.dll
 0001:000785fc       _IsWindow@4                004795fc f   user32:USER32.dll
 0001:00078602       _DestroyWindow@4           00479602 f   user32:USER32.dll
 0001:00078608       _MessageBoxA@16            00479608 f   user32:USER32.dll
 0001:0007860e       _GetWindowLongA@8          0047960e f   user32:USER32.dll
 0001:00078614       _SetWindowLongA@12         00479614 f   user32:USER32.dll
 0001:0007861a       _GetClassNameA@12          0047961a f   user32:USER32.dll
 0001:00078620       _RegCloseKey@4             00479620 f   advapi32:ADVAPI32.dll
 0001:00078626       _RegQueryValueExA@24       00479626 f   advapi32:ADVAPI32.dll
 0001:0007862c       _RegOpenKeyExA@20          0047962c f   advapi32:ADVAPI32.dll
 0001:00078632       _ShellExecuteA@24          00479632 f   shell32:SHELL32.dll
 0001:00078638       ??2@YAPAXI@Z               00479638 f   MSVCRTD:MSVCR120D.dll
 0001:0007863e       ??3@YAXPAX@Z               0047963e f   MSVCRTD:MSVCR120D.dll
 0001:00078644       _strcpy                    00479644 f   MSVCRTD:MSVCR120D.dll
 0001:0007864a       _strlen                    0047964a f   MSVCRTD:MSVCR120D.dll
 0001:00078650       _strpbrk                   00479650 f   MSVCRTD:MSVCR120D.dll
 0001:00078656       _free                      00479656 f   MSVCRTD:MSVCR120D.dll
 0001:0007865c       _malloc                    0047965c f   MSVCRTD:MSVCR120D.dll
 0001:00078670       @__security_check_cookie@4 00479670 f   MSVCRTD:secchk.obj
 0001:00078680       ??0type_info@@AAE@ABV0@@Z  00479680 f   MSVCRTD:ti_inst.obj
 0001:000786a0       ??4type_info@@AAEAAV0@ABV0@@Z 004796a0 f   MSVCRTD:ti_inst.obj
 0001:000786b0       ??_Etype_info@@UAEPAXI@Z   004796b0 f i MSVCRTD:ti_inst.obj
 0001:0007871a       _strcat                    0047971a f   MSVCRTD:MSVCR120D.dll
 0001:00078720       _strncpy                   00479720 f   MSVCRTD:MSVCR120D.dll
 0001:00078726       _strtok                    00479726 f   MSVCRTD:MSVCR120D.dll
 0001:0007872c       _getenv                    0047972c f   MSVCRTD:MSVCR120D.dll
 0001:00078732       __localtime64              00479732 f   MSVCRTD:MSVCR120D.dll
 0001:00078738       __time64                   00479738 f   MSVCRTD:MSVCR120D.dll
 0001:0007873e       _sprintf                   0047973e f   MSVCRTD:MSVCR120D.dll
 0001:00078744       __mkdir                    00479744 f   MSVCRTD:MSVCR120D.dll
 0001:0007874a       __purecall                 0047974a f   MSVCRTD:MSVCR120D.dll
 0001:00078750       ___atonexitinit            00479750 f   MSVCRTD:atonexit.obj
 0001:00078800       __onexit                   00479800 f   MSVCRTD:atonexit.obj
 0001:00078900       _atexit                    00479900 f   MSVCRTD:atonexit.obj
 0001:0007892c       _memcpy                    0047992c f   MSVCRTD:MSVCR120D.dll
 0001:00078932       _memmove                   00479932 f   MSVCRTD:MSVCR120D.dll
 0001:00078938       __hypot                    00479938 f   MSVCRTD:MSVCR120D.dll
 0001:0007893e       _sprintf_s                 0047993e f   MSVCRTD:MSVCR120D.dll
 0001:00078944       __CxxThrowException@8      00479944 f   MSVCRTD:MSVCR120D.dll
 0001:0007894a       ___CxxFrameHandler3        0047994a f   MSVCRTD:MSVCR120D.dll
 0001:00078950       __invalid_parameter        00479950 f   MSVCRTD:MSVCR120D.dll
 0001:00078956       _memset                    00479956 f   MSVCRTD:MSVCR120D.dll
 0001:0007895c       _strcmp                    0047995c f   MSVCRTD:MSVCR120D.dll
 0001:00078962       _atoi                      00479962 f   MSVCRTD:MSVCR120D.dll
 0001:00078968       ??_V@YAXPAX@Z              00479968 f   MSVCRTD:MSVCR120D.dll
 0001:0007896e       ??_U@YAPAXI@Z              0047996e f   MSVCRTD:MSVCR120D.dll
 0001:00078974       __CrtDbgReportW            00479974 f   MSVCRTD:MSVCR120D.dll
 0001:0007897a       _tolower                   0047997a f   MSVCRTD:MSVCR120D.dll
 0001:00078980       _memchr                    00479980 f   MSVCRTD:MSVCR120D.dll
 0001:00078986       _memcmp                    00479986 f   MSVCRTD:MSVCR120D.dll
 0001:0007898c       _strchr                    0047998c f   MSVCRTD:MSVCR120D.dll
 0001:00078992       __stricmp                  00479992 f   MSVCRTD:MSVCR120D.dll
 0001:00078998       _fclose                    00479998 f   MSVCRTD:MSVCR120D.dll
 0001:0007899e       _fgets                     0047999e f   MSVCRTD:MSVCR120D.dll
 0001:000789a4       _fopen                     004799a4 f   MSVCRTD:MSVCR120D.dll
 0001:000789aa       _fprintf                   004799aa f   MSVCRTD:MSVCR120D.dll
 0001:000789b0       _fputs                     004799b0 f   MSVCRTD:MSVCR120D.dll
 0001:000789b6       _remove                    004799b6 f   MSVCRTD:MSVCR120D.dll
 0001:000789bc       _rename                    004799bc f   MSVCRTD:MSVCR120D.dll
 0001:000789c2       _strtoul                   004799c2 f   MSVCRTD:MSVCR120D.dll
 0001:000789d0       __chkstk                   004799d0 f   MSVCRTD:chkstk.obj
 0001:000789d0       __alloca_probe             004799d0 f   MSVCRTD:chkstk.obj
 0001:00078af0       _NtCurrentTeb              00479af0 f i MSVCRTD:crtexew.obj
 0001:00078b00       _WinMainCRTStartup         00479b00 f   MSVCRTD:crtexew.obj
 0001:00078e72       _sscanf                    00479e72 f   MSVCRTD:MSVCR120D.dll
 0001:00078e80       ___raise_securityfailure   00479e80 f   MSVCRTD:gs_report.obj
 0001:00078ed0       ___report_gsfailure        00479ed0 f   MSVCRTD:gs_report.obj
 0001:00078fe0       ___report_rangecheckfailure 00479fe0 f   MSVCRTD:gs_report.obj
 0001:00078ff0       ___report_securityfailure  00479ff0 f   MSVCRTD:gs_report.obj
 0001:000790d0       ___report_securityfailureEx 0047a0d0 f   MSVCRTD:gs_report.obj
 0001:00079200       ??_M@YGXPAXIHP6EX0@Z@Z     0047a200 f   MSVCRTD:ehvecdtr.obj
 0001:000792e0       ?__ArrayUnwind@@YGXPAXIHP6EX0@Z@Z 0047a2e0 f   MSVCRTD:ehvecdtr.obj
 0001:0007936a       ??1type_info@@UAE@XZ       0047a36a f   MSVCRTD:MSVCR120D.dll
 0001:00079370       __lock                     0047a370 f   MSVCRTD:MSVCR120D.dll
 0001:00079376       __unlock                   0047a376 f   MSVCRTD:MSVCR120D.dll
 0001:0007937c       __calloc_dbg               0047a37c f   MSVCRTD:MSVCR120D.dll
 0001:00079382       ___dllonexit               0047a382 f   MSVCRTD:MSVCR120D.dll
 0001:00079390       __except_handler4          0047a390 f   MSVCRTD:chandler4gs.obj
 0001:000793c0       ?__CxxUnhandledExceptionFilter@@YGJPAU_EXCEPTION_POINTERS@@@Z 0047a3c0 f   MSVCRTD:unhandld.obj
 0001:00079430       ___CxxSetUnhandledExceptionFilter 0047a430 f   MSVCRTD:unhandld.obj
 0001:00079444       __XcptFilter               0047a444 f   MSVCRTD:MSVCR120D.dll
 0001:0007944a       ___crtGetShowWindowMode    0047a44a f   MSVCRTD:MSVCR120D.dll
 0001:00079450       __amsg_exit                0047a450 f   MSVCRTD:MSVCR120D.dll
 0001:00079460       __setargv                  0047a460 f   MSVCRTD:dllargv.obj
 0001:00079468       ___getmainargs             0047a468 f   MSVCRTD:MSVCR120D.dll
 0001:0007946e       ___set_app_type            0047a46e f   MSVCRTD:MSVCR120D.dll
 0001:00079474       __CrtSetCheckCount         0047a474 f   MSVCRTD:MSVCR120D.dll
 0001:00079480       __FindPESection            0047a480 f   MSVCRTD:pesect.obj
 0001:00079500       __IsNonwritableInCurrentImage 0047a500 f   MSVCRTD:pesect.obj
 0001:00079630       __ValidateImageBase        0047a630 f   MSVCRTD:pesect.obj
 0001:0007968e       _exit                      0047a68e f   MSVCRTD:MSVCR120D.dll
 0001:00079694       __exit                     0047a694 f   MSVCRTD:MSVCR120D.dll
 0001:0007969a       __cexit                    0047a69a f   MSVCRTD:MSVCR120D.dll
 0001:000796a0       ___security_init_cookie    0047a6a0 f   MSVCRTD:gs_support.obj
 0001:00079780       __matherr                  0047a780 f   MSVCRTD:merr.obj
 0001:00079788       __ismbblead                0047a788 f   MSVCRTD:MSVCR120D.dll
 0001:00079790       __RTC_Initialize           0047a790 f   MSVCRTD:initsect.obj
 0001:000797c0       __RTC_Terminate            0047a7c0 f   MSVCRTD:initsect.obj
 0001:000797e6       __configthreadlocale       0047a7e6 f   MSVCRTD:MSVCR120D.dll
 0001:000797f0       __invoke_watson_if_error   0047a7f0 f i MSVCRTD:fp8.obj
 0001:00079820       __setdefaultprecision      0047a820 f   MSVCRTD:fp8.obj
 0001:00079856       ___setusermatherr          0047a856 f   MSVCRTD:MSVCR120D.dll
 0001:0007985c       __initterm_e               0047a85c f   MSVCRTD:MSVCR120D.dll
 0001:00079862       __initterm                 0047a862 f   MSVCRTD:MSVCR120D.dll
 0001:00079868       __crt_debugger_hook        0047a868 f   MSVCRTD:MSVCR120D.dll
 0001:0007986e       ___crtUnhandledException   0047a86e f   MSVCRTD:MSVCR120D.dll
 0001:00079874       ___crtTerminateProcess     0047a874 f   MSVCRTD:MSVCR120D.dll
 0001:0007987a       ?terminate@@YAXXZ          0047a87a f   MSVCRTD:MSVCR120D.dll
 0001:00079880       __except_handler4_common   0047a880 f   MSVCRTD:MSVCR120D.dll
 0001:00079886       ___crtSetUnhandledExceptionFilter 0047a886 f   MSVCRTD:MSVCR120D.dll
 0001:0007988c       __invoke_watson            0047a88c f   MSVCRTD:MSVCR120D.dll
 0001:00079892       __controlfp_s              0047a892 f   MSVCRTD:MSVCR120D.dll
 0001:00079898       ?_Debug_message@std@@YAXPB_W0I@Z 0047a898 f   msvcprtd:MSVCP120D.dll
 0001:0007989e       ??0_Container_base12@std@@QAE@XZ 0047a89e f   msvcprtd:MSVCP120D.dll
 0001:000798a4       ??1_Container_base12@std@@QAE@XZ 0047a8a4 f   msvcprtd:MSVCP120D.dll
 0001:000798aa       ?_Orphan_all@_Container_base12@std@@QAEXXZ 0047a8aa f   msvcprtd:MSVCP120D.dll
 0001:000798b0       ?_Xbad_alloc@std@@YAXXZ    0047a8b0 f   msvcprtd:MSVCP120D.dll
 0001:000798b6       ?_Xlength_error@std@@YAXPBD@Z 0047a8b6 f   msvcprtd:MSVCP120D.dll
 0001:000798bc       ?_Xout_of_range@std@@YAXPBD@Z 0047a8bc f   msvcprtd:MSVCP120D.dll
 0001:000798c2       ??0id@locale@std@@QAE@I@Z  0047a8c2 f   msvcprtd:MSVCP120D.dll
 0001:000798c8       ?_Syserror_map@std@@YAPBDH@Z 0047a8c8 f   msvcprtd:MSVCP120D.dll
 0001:000798ce       ?_Winerror_map@std@@YAPBDH@Z 0047a8ce f   msvcprtd:MSVCP120D.dll
 0001:000798d4       ??0_Lockit@std@@QAE@H@Z    0047a8d4 f   msvcprtd:MSVCP120D.dll
 0001:000798da       ??1_Lockit@std@@QAE@XZ     0047a8da f   msvcprtd:MSVCP120D.dll
 0001:000798e0       ?_Getpfirst@_Container_base12@std@@QBEPAPAU_Iterator_base12@2@XZ 0047a8e0 f   msvcprtd:MSVCP120D.dll
 0001:000798f0       _WinMain@16                0047a8f0 f   qtmaind:qtmain_win.obj
 0001:00079a5e       _EncodePointer@4           0047aa5e f   kernel32:KERNEL32.dll
 0001:00079a64       _DecodePointer@4           0047aa64 f   kernel32:KERNEL32.dll
 0001:00079a6a       _IsDebuggerPresent@0       0047aa6a f   kernel32:KERNEL32.dll
 0001:00079a70       _IsProcessorFeaturePresent@4 0047aa70 f   kernel32:KERNEL32.dll
 0001:00079a76       _QueryPerformanceCounter@4 0047aa76 f   kernel32:KERNEL32.dll
 0001:00079a7c       _GetCurrentProcessId@0     0047aa7c f   kernel32:KERNEL32.dll
 0001:00079a82       _GetCurrentThreadId@0      0047aa82 f   kernel32:KERNEL32.dll
 0001:00079a88       _GetSystemTimeAsFileTime@4 0047aa88 f   kernel32:KERNEL32.dll
 0001:00079a8e       _GetCommandLineW@0         0047aa8e f   kernel32:KERNEL32.dll
 0001:00079a94       _LocalFree@4               0047aa94 f   kernel32:KERNEL32.dll
 0001:00079a9a       _WideCharToMultiByte@32    0047aa9a f   kernel32:KERNEL32.dll
 0001:00079aa0       _CommandLineToArgvW@8      0047aaa0 f   shell32:SHELL32.dll
 0002:00000000       ___xc_a                    0048c000     MSVCRTD:cinitexe.obj
 0002:000004f0       ___xc_z                    0048c4f0     MSVCRTD:cinitexe.obj
 0002:000005f4       ___xi_a                    0048c5f4     MSVCRTD:cinitexe.obj
 0002:00000a04       ___xi_z                    0048ca04     MSVCRTD:cinitexe.obj
 0002:00000d70       ??_7cBncsVersion@@6B@      0048cd70     cBncsVersion.obj
 0002:00000ebc       ??_7bncs_disklog@@6B@      0048cebc     bncs_disklog.obj
 0002:000011f8       ?npos@?$basic_string@DU?$char_traits@D@std@@V?$allocator@D@2@@std@@2IB 0048d1f8     ccCheck.obj
 0002:00001200       ??_7error_category@std@@6B@ 0048d200     ccCheck.obj
 0002:00001224       ??_7_Generic_error_category@std@@6B@ 0048d224     ccCheck.obj
 0002:00001244       ??_C@_07DCLBNMLN@generic?$AA@ 0048d244     ccCheck.obj
 0002:00001250       ??_C@_0O@BFJCFAAK@unknown?5error?$AA@ 0048d250     ccCheck.obj
 0002:00001264       ??_7_Iostream_error_category@std@@6B@ 0048d264     ccCheck.obj
 0002:00001284       ??_C@_08LLGCOLLL@iostream?$AA@ 0048d284     ccCheck.obj
 0002:00001290       ??_C@_0BG@PADBLCHM@iostream?5stream?5error?$AA@ 0048d290     ccCheck.obj
 0002:000012b0       ??_7_System_error_category@std@@6B@ 0048d2b0     ccCheck.obj
 0002:000012d0       ??_C@_06FHFOAHML@system?$AA@ 0048d2d0     ccCheck.obj
 0002:000012dc       ??_7ccCheck@@6B@           0048d2dc     ccCheck.obj
 0002:000012e8       ??_C@_1IO@FEAPGJBD@?$AAC?$AA?3?$AA?2?$AAP?$AAr?$AAo?$AAg?$AAr?$AAa?$AAm?$AA?5?$AAF?$AAi?$AAl?$AAe?$AAs?$AA?5?$AA?$CI?$AAx?$AA8?$AA6?$AA?$CJ?$AA?2?$AAM?$AAi?$AAc?$AAr?$AAo?$AAs?$AAo?$AAf?$AAt@ 0048d2e8     ccCheck.obj
 0002:00001394       ??_C@_0BA@JFNIOLAK@string?5too?5long?$AA@ 0048d394     ccCheck.obj
 0002:000013a8       ??_C@_0BI@CFPLBAOH@invalid?5string?5position?$AA@ 0048d3a8     ccCheck.obj
 0002:000013c4       ??_C@_1CK@EOPGIILJ@?$AAi?$AAn?$AAv?$AAa?$AAl?$AAi?$AAd?$AA?5?$AAn?$AAu?$AAl?$AAl?$AA?5?$AAp?$AAo?$AAi?$AAn?$AAt?$AAe?$AAr?$AA?$AA@ 0048d3c4     ccCheck.obj
 0002:000017f8       ??_C@_1JA@EADLBAJ@?$AAC?$AA?3?$AA?2?$AAP?$AAr?$AAo?$AAg?$AAr?$AAa?$AAm?$AA?5?$AAF?$AAi?$AAl?$AAe?$AAs?$AA?5?$AA?$CI?$AAx?$AA8?$AA6?$AA?$CJ?$AA?2?$AAM?$AAi?$AAc?$AAr?$AAo?$AAs?$AAo?$AAf?$AAt@ 0048d7f8     ccClient.obj
 0002:000018a4       ??_C@_1DC@POOIKBAO@?$AAI?$AAT?$AAE?$AAR?$AAA?$AAT?$AAO?$AAR?$AA?5?$AAL?$AAI?$AAS?$AAT?$AA?5?$AAC?$AAO?$AAR?$AAR?$AAU?$AAP?$AAT?$AAE?$AAD?$AA?$CB?$AA?$AA@ 0048d8a4     ccClient.obj
 0002:000018e4       ??_7ccClient@@6B@          0048d8e4     ccClient.obj
 0002:000018f0       ??_C@_1IK@CIFBAAFK@?$AAC?$AA?3?$AA?2?$AAP?$AAr?$AAo?$AAg?$AAr?$AAa?$AAm?$AA?5?$AAF?$AAi?$AAl?$AAe?$AAs?$AA?5?$AA?$CI?$AAx?$AA8?$AA6?$AA?$CJ?$AA?2?$AAM?$AAi?$AAc?$AAr?$AAo?$AAs?$AAo?$AAf?$AAt@ 0048d8f0     ccClient.obj
 0002:00001998       ??_C@_1CO@FNIDKHMC@?$AAd?$AAe?$AAq?$AAu?$AAe?$AA?5?$AAe?$AAm?$AAp?$AAt?$AAy?$AA?5?$AAb?$AAe?$AAf?$AAo?$AAr?$AAe?$AA?5?$AAp?$AAo?$AAp?$AA?$AA@ 0048d998     ccClient.obj
 0002:000019d0       ??_C@_0BC@KBDMBKEH@deque?$DMT?$DO?5too?5long?$AA@ 0048d9d0     ccClient.obj
 0002:000019e8       ??_C@_1EE@INPCGGNP@?$AAd?$AAe?$AAq?$AAu?$AAe?$AA?5?$AAi?$AAt?$AAe?$AAr?$AAa?$AAt?$AAo?$AAr?$AA?5?$AAn?$AAo?$AAt?$AA?5?$AAd?$AAe?$AAr?$AAe?$AAf?$AAe?$AAr?$AAe?$AAn?$AAc?$AAa?$AAb?$AAl@ 0048d9e8     ccClient.obj
 0002:00001a3c       ??_C@_0CE@OFMIGAMM@Standard?5C?$CL?$CL?5Libraries?5Out?5of?5Ra@ 0048da3c     ccClient.obj
 0002:00001a68       ??_C@_1FG@IBPIFFN@?$AA?$CC?$AAS?$AAt?$AAa?$AAn?$AAd?$AAa?$AAr?$AAd?$AA?5?$AAC?$AA?$CL?$AA?$CL?$AA?5?$AAL?$AAi?$AAb?$AAr?$AAa?$AAr?$AAi?$AAe?$AAs?$AA?5?$AAO?$AAu?$AAt?$AA?5?$AAo?$AAf?$AA?5?$AAR@ 0048da68     ccClient.obj
 0002:00001ad0       ??_C@_15GANGMFKL@?$AA?$CF?$AAs?$AA?$AA@ 0048dad0     ccClient.obj
 0002:00001ad8       ??_C@_1BHG@DFCOEAOK@?$AAs?$AAt?$AAd?$AA?3?$AA?3?$AA_?$AAD?$AAe?$AAq?$AAu?$AAe?$AA_?$AAc?$AAo?$AAn?$AAs?$AAt?$AA_?$AAi?$AAt?$AAe?$AAr?$AAa?$AAt?$AAo?$AAr?$AA?$DM?$AAc?$AAl?$AAa?$AAs?$AAs@ 0048dad8     ccClient.obj
 0002:00001c98       ??_C@_1BO@MEPPHOO@?$AA?$CC?$AAo?$AAu?$AAt?$AA?5?$AAo?$AAf?$AA?5?$AAr?$AAa?$AAn?$AAg?$AAe?$AA?$CC?$AA?$AA@ 0048dc98     ccClient.obj
 0002:00001cbc       ??_C@_1CO@DGLIKNHI@?$AAi?$AAn?$AAv?$AAa?$AAl?$AAi?$AAd?$AA?5?$AAi?$AAt?$AAe?$AAr?$AAa?$AAt?$AAo?$AAr?$AA?5?$AAr?$AAa?$AAn?$AAg?$AAe?$AA?$AA@ 0048dcbc     ccClient.obj
 0002:00001cf8       ??_C@_1IO@LKIDJAMC@?$AAC?$AA?3?$AA?2?$AAP?$AAr?$AAo?$AAg?$AAr?$AAa?$AAm?$AA?5?$AAF?$AAi?$AAl?$AAe?$AAs?$AA?5?$AA?$CI?$AAx?$AA8?$AA6?$AA?$CJ?$AA?2?$AAM?$AAi?$AAc?$AAr?$AAo?$AAs?$AAo?$AAf?$AAt@ 0048dcf8     ccClient.obj
 0002:000021c0       ??_7ccConfig@@6B@          0048e1c0     ccConfig.obj
 0002:000021c8       ??_C@_1IK@GEHGEPIJ@?$AAC?$AA?3?$AA?2?$AAP?$AAr?$AAo?$AAg?$AAr?$AAa?$AAm?$AA?5?$AAF?$AAi?$AAl?$AAe?$AAs?$AA?5?$AA?$CI?$AAx?$AA8?$AA6?$AA?$CJ?$AA?2?$AAM?$AAi?$AAc?$AAr?$AAo?$AAs?$AAo?$AAf?$AAt@ 0048e1c8     ccConfig.obj
 0002:00002270       ??_C@_1EK@PPDBPCAN@?$AAm?$AAa?$AAp?$AA?1?$AAs?$AAe?$AAt?$AA?5?$AAe?$AAr?$AAa?$AAs?$AAe?$AA?5?$AAi?$AAt?$AAe?$AAr?$AAa?$AAt?$AAo?$AAr?$AA?5?$AAo?$AAu?$AAt?$AAs?$AAi?$AAd?$AAe?$AA?5?$AAr@ 0048e270     ccConfig.obj
 0002:000022c8       ??_C@_1EG@EHJFMBHJ@?$AAm?$AAa?$AAp?$AA?1?$AAs?$AAe?$AAt?$AA?5?$AAi?$AAt?$AAe?$AAr?$AAa?$AAt?$AAo?$AAr?$AA?5?$AAn?$AAo?$AAt?$AA?5?$AAi?$AAn?$AAc?$AAr?$AAe?$AAm?$AAe?$AAn?$AAt?$AAa?$AAb@ 0048e2c8     ccConfig.obj
 0002:00002320       ??_C@_1CFG@PGGKMBNC@?$AAs?$AAt?$AAd?$AA?3?$AA?3?$AA_?$AAT?$AAr?$AAe?$AAe?$AA_?$AAc?$AAo?$AAn?$AAs?$AAt?$AA_?$AAi?$AAt?$AAe?$AAr?$AAa?$AAt?$AAo?$AAr?$AA?$DM?$AAc?$AAl?$AAa?$AAs?$AAs?$AA?5@ 0048e320     ccConfig.obj
 0002:000025f0       ??_C@_1EI@FHEHNNNM@?$AAm?$AAa?$AAp?$AA?1?$AAs?$AAe?$AAt?$AA?5?$AAi?$AAt?$AAe?$AAr?$AAa?$AAt?$AAo?$AAr?$AA?5?$AAn?$AAo?$AAt?$AA?5?$AAd?$AAe?$AAr?$AAe?$AAf?$AAe?$AAr?$AAe?$AAn?$AAc?$AAa@ 0048e5f0     ccConfig.obj
 0002:00002648       ??_C@_1CFE@PPLBLEGL@?$AAs?$AAt?$AAd?$AA?3?$AA?3?$AA_?$AAT?$AAr?$AAe?$AAe?$AA_?$AAc?$AAo?$AAn?$AAs?$AAt?$AA_?$AAi?$AAt?$AAe?$AAr?$AAa?$AAt?$AAo?$AAr?$AA?$DM?$AAc?$AAl?$AAa?$AAs?$AAs?$AA?5@ 0048e648     ccConfig.obj
 0002:00002914       ??_C@_1DO@CFEEPGGJ@?$AAm?$AAa?$AAp?$AA?1?$AAs?$AAe?$AAt?$AA?5?$AAi?$AAt?$AAe?$AAr?$AAa?$AAt?$AAo?$AAr?$AAs?$AA?5?$AAi?$AAn?$AAc?$AAo?$AAm?$AAp?$AAa?$AAt?$AAi?$AAb?$AAl?$AAe?$AA?$AA@ 0048e914     ccConfig.obj
 0002:00002960       ??_C@_0CI@FNPHFCCM@Standard?5C?$CL?$CL?5Libraries?5Invalid?5A@ 0048e960     ccConfig.obj
 0002:00002990       ??_C@_1FO@GJIHNDLM@?$AA?$CC?$AAS?$AAt?$AAa?$AAn?$AAd?$AAa?$AAr?$AAd?$AA?5?$AAC?$AA?$CL?$AA?$CL?$AA?5?$AAL?$AAi?$AAb?$AAr?$AAa?$AAr?$AAi?$AAe?$AAs?$AA?5?$AAI?$AAn?$AAv?$AAa?$AAl?$AAi?$AAd?$AA?5@ 0048e990     ccConfig.obj
 0002:00002a00       ??_C@_1CFG@FGJHCIBH@?$AAs?$AAt?$AAd?$AA?3?$AA?3?$AA_?$AAT?$AAr?$AAe?$AAe?$AA_?$AAc?$AAo?$AAn?$AAs?$AAt?$AA_?$AAi?$AAt?$AAe?$AAr?$AAa?$AAt?$AAo?$AAr?$AA?$DM?$AAc?$AAl?$AAa?$AAs?$AAs?$AA?5@ 0048ea00     ccConfig.obj
 0002:00002cd0       ??_C@_1CG@JNLFBNGN@?$AA?$CC?$AAi?$AAn?$AAv?$AAa?$AAl?$AAi?$AAd?$AA?5?$AAa?$AAr?$AAg?$AAu?$AAm?$AAe?$AAn?$AAt?$AA?$CC?$AA?$AA@ 0048ecd0     ccConfig.obj
 0002:00002d00       ??_C@_1DM@KDEKGMPF@?$AAs?$AAt?$AAr?$AAi?$AAn?$AAg?$AA?5?$AAi?$AAt?$AAe?$AAr?$AAa?$AAt?$AAo?$AAr?$AAs?$AA?5?$AAi?$AAn?$AAc?$AAo?$AAm?$AAp?$AAa?$AAt?$AAi?$AAb?$AAl?$AAe?$AA?$AA@ 0048ed00     ccConfig.obj
 0002:00002d48       ??_C@_1MA@BDELDFHB@?$AAs?$AAt?$AAd?$AA?3?$AA?3?$AA_?$AAS?$AAt?$AAr?$AAi?$AAn?$AAg?$AA_?$AAc?$AAo?$AAn?$AAs?$AAt?$AA_?$AAi?$AAt?$AAe?$AAr?$AAa?$AAt?$AAo?$AAr?$AA?$DM?$AAc?$AAl?$AAa?$AAs@ 0048ed48     ccConfig.obj
 0002:00002e30       ??_C@_0BB@MOGOBHAF@list?$DMT?$DO?5too?5long?$AA@ 0048ee30     ccConfig.obj
 0002:00002e48       ??_C@_1EG@CNCHLAOB@?$AAs?$AAt?$AAr?$AAi?$AAn?$AAg?$AA?5?$AAi?$AAt?$AAe?$AAr?$AAa?$AAt?$AAo?$AAr?$AA?5?$AAn?$AAo?$AAt?$AA?5?$AAd?$AAe?$AAr?$AAe?$AAf?$AAe?$AAr?$AAe?$AAn?$AAc?$AAa?$AAb@ 0048ee48     ccConfig.obj
 0002:00002ea0       ??_C@_1MG@GDGHDIKC@?$AAs?$AAt?$AAd?$AA?3?$AA?3?$AA_?$AAS?$AAt?$AAr?$AAi?$AAn?$AAg?$AA_?$AAc?$AAo?$AAn?$AAs?$AAt?$AA_?$AAi?$AAt?$AAe?$AAr?$AAa?$AAt?$AAo?$AAr?$AA?$DM?$AAc?$AAl?$AAa?$AAs@ 0048eea0     ccConfig.obj
 0002:00002f90       ??_C@_1EG@OKCGOALM@?$AAm?$AAa?$AAp?$AA?1?$AAs?$AAe?$AAt?$AA?5?$AAi?$AAt?$AAe?$AAr?$AAa?$AAt?$AAo?$AAr?$AA?5?$AAn?$AAo?$AAt?$AA?5?$AAd?$AAe?$AAc?$AAr?$AAe?$AAm?$AAe?$AAn?$AAt?$AAa?$AAb@ 0048ef90     ccConfig.obj
 0002:00002fe8       ??_C@_1CFG@FFIHNBD@?$AAs?$AAt?$AAd?$AA?3?$AA?3?$AA_?$AAT?$AAr?$AAe?$AAe?$AA_?$AAc?$AAo?$AAn?$AAs?$AAt?$AA_?$AAi?$AAt?$AAe?$AAr?$AAa?$AAt?$AAo?$AAr?$AA?$DM?$AAc?$AAl?$AAa?$AAs?$AAs?$AA?5@ 0048efe8     ccConfig.obj
 0002:000032b8       ??_C@_1CE@IGJMOCCK@?$AAi?$AAn?$AAv?$AAa?$AAl?$AAi?$AAd?$AA?5?$AAo?$AAp?$AAe?$AAr?$AAa?$AAt?$AAo?$AAr?$AA?$DM?$AA?$AA@ 0048f2b8     ccConfig.obj
 0002:000032e4       ??_C@_0BE@JONHPENG@map?1set?$DMT?$DO?5too?5long?$AA@ 0048f2e4     ccConfig.obj
 0002:00003300       ??_7sizedBuffer@@6B@       0048f300     sizedBuffer.obj
 0002:000039c8       ??_7clientsRegistration@@6B@ 0048f9c8     clientsRegistration.obj
 0002:000039d0       ??_C@_1BDC@OPJNHBBK@?$AAs?$AAt?$AAd?$AA?3?$AA?3?$AA_?$AAT?$AAr?$AAe?$AAe?$AA_?$AAc?$AAo?$AAn?$AAs?$AAt?$AA_?$AAi?$AAt?$AAe?$AAr?$AAa?$AAt?$AAo?$AAr?$AA?$DM?$AAc?$AAl?$AAa?$AAs?$AAs?$AA?5@ 0048f9d0     clientsRegistration.obj
 0002:00003b40       ??_C@_1BDC@EPGAJINP@?$AAs?$AAt?$AAd?$AA?3?$AA?3?$AA_?$AAT?$AAr?$AAe?$AAe?$AA_?$AAc?$AAo?$AAn?$AAs?$AAt?$AA_?$AAi?$AAt?$AAe?$AAr?$AAa?$AAt?$AAo?$AAr?$AA?$DM?$AAc?$AAl?$AAa?$AAs?$AAs?$AA?5@ 0048fb40     clientsRegistration.obj
 0002:00003cb0       ??_C@_1BDA@BNMKJCKL@?$AAs?$AAt?$AAd?$AA?3?$AA?3?$AA_?$AAT?$AAr?$AAe?$AAe?$AA_?$AAc?$AAo?$AAn?$AAs?$AAt?$AA_?$AAi?$AAt?$AAe?$AAr?$AAa?$AAt?$AAo?$AAr?$AA?$DM?$AAc?$AAl?$AAa?$AAs?$AAs?$AA?5@ 0048fcb0     clientsRegistration.obj
 0002:00003e20       ??_C@_1BDC@BMKPMNNL@?$AAs?$AAt?$AAd?$AA?3?$AA?3?$AA_?$AAT?$AAr?$AAe?$AAe?$AA_?$AAc?$AAo?$AAn?$AAs?$AAt?$AA_?$AAi?$AAt?$AAe?$AAr?$AAa?$AAt?$AAo?$AAr?$AA?$DM?$AAc?$AAl?$AAa?$AAs?$AAs?$AA?5@ 0048fe20     clientsRegistration.obj
 0002:0000482c       ??_7databaseSync@@6B@      0049082c     databaseSync.obj
 0002:00004838       ??_C@_1BDI@MPMFDDBJ@?$AAs?$AAt?$AAd?$AA?3?$AA?3?$AA_?$AAT?$AAr?$AAe?$AAe?$AA_?$AAc?$AAo?$AAn?$AAs?$AAt?$AA_?$AAi?$AAt?$AAe?$AAr?$AAa?$AAt?$AAo?$AAr?$AA?$DM?$AAc?$AAl?$AAa?$AAs?$AAs?$AA?5@ 00490838     databaseSync.obj
 0002:000049b0       ??_C@_1BDG@GLKLKKNE@?$AAs?$AAt?$AAd?$AA?3?$AA?3?$AA_?$AAT?$AAr?$AAe?$AAe?$AA_?$AAc?$AAo?$AAn?$AAs?$AAt?$AA_?$AAi?$AAt?$AAe?$AAr?$AAa?$AAt?$AAo?$AAr?$AA?$DM?$AAc?$AAl?$AAa?$AAs?$AAs?$AA?5@ 004909b0     databaseSync.obj
 0002:00004b28       ??_C@_1BDI@GPDINKNM@?$AAs?$AAt?$AAd?$AA?3?$AA?3?$AA_?$AAT?$AAr?$AAe?$AAe?$AA_?$AAc?$AAo?$AAn?$AAs?$AAt?$AA_?$AAi?$AAt?$AAe?$AAr?$AAa?$AAt?$AAo?$AAr?$AA?$DM?$AAc?$AAl?$AAa?$AAs?$AAs?$AA?5@ 00490b28     databaseSync.obj
 0002:00004ca0       ??_C@_0DH@HONCPKCD@C?3?2Qt_licensed?25?48?25?48?2msvc2013?2@ 00490ca0     databaseSync.obj
 0002:00004ce4       ??_C@_0BD@ILOGJALA@index?5out?5of?5range?$AA@ 00490ce4     databaseSync.obj
 0002:00004cfc       ??_C@_0BF@MNODFIHK@QList?$DMT?$DO?3?3operator?$FL?$FN?$AA@ 00490cfc     databaseSync.obj
 0002:00004d18       ??_C@_1NM@HDGGLLFE@?$AAs?$AAt?$AAd?$AA?3?$AA?3?$AA_?$AAT?$AAr?$AAe?$AAe?$AA_?$AAc?$AAo?$AAn?$AAs?$AAt?$AA_?$AAi?$AAt?$AAe?$AAr?$AAa?$AAt?$AAo?$AAr?$AA?$DM?$AAc?$AAl?$AAa?$AAs?$AAs?$AA?5@ 00490d18     databaseSync.obj
 0002:00004e20       ??_C@_1NM@CAKJOOFA@?$AAs?$AAt?$AAd?$AA?3?$AA?3?$AA_?$AAT?$AAr?$AAe?$AAe?$AA_?$AAc?$AAo?$AAn?$AAs?$AAt?$AA_?$AAi?$AAt?$AAe?$AAr?$AAa?$AAt?$AAo?$AAr?$AA?$DM?$AAc?$AAl?$AAa?$AAs?$AAs?$AA?5@ 00490e20     databaseSync.obj
 0002:00004f28       ??_C@_1BDI@JMAKGGBN@?$AAs?$AAt?$AAd?$AA?3?$AA?3?$AA_?$AAT?$AAr?$AAe?$AAe?$AA_?$AAc?$AAo?$AAn?$AAs?$AAt?$AA_?$AAi?$AAt?$AAe?$AAr?$AAa?$AAt?$AAo?$AAr?$AA?$DM?$AAc?$AAl?$AAa?$AAs?$AAs?$AA?5@ 00490f28     databaseSync.obj
 0002:000050a4       ??_7decodeBNCSString@@6B@  004910a4     decodeBNCSString.obj
 0002:00005f64       ??_7fabianServer@@6B@      00491f64     fabianServer.obj
 0002:00005fa8       ??_C@_1NK@KPJCDALK@?$AAs?$AAt?$AAd?$AA?3?$AA?3?$AA_?$AAT?$AAr?$AAe?$AAe?$AA_?$AAc?$AAo?$AAn?$AAs?$AAt?$AA_?$AAi?$AAt?$AAe?$AAr?$AAa?$AAt?$AAo?$AAr?$AA?$DM?$AAc?$AAl?$AAa?$AAs?$AAs?$AA?5@ 00491fa8     fabianServer.obj
 0002:000060b0       ??_C@_1NM@IEJMCCJG@?$AAs?$AAt?$AAd?$AA?3?$AA?3?$AA_?$AAT?$AAr?$AAe?$AAe?$AA_?$AAc?$AAo?$AAn?$AAs?$AAt?$AA_?$AAi?$AAt?$AAe?$AAr?$AAa?$AAt?$AAo?$AAr?$AA?$DM?$AAc?$AAl?$AAa?$AAs?$AAs?$AA?5@ 004920b0     fabianServer.obj
 0002:000061b8       ??_C@_1II@KCNBAEMF@?$AAC?$AA?3?$AA?2?$AAP?$AAr?$AAo?$AAg?$AAr?$AAa?$AAm?$AA?5?$AAF?$AAi?$AAl?$AAe?$AAs?$AA?5?$AA?$CI?$AAx?$AA8?$AA6?$AA?$CJ?$AA?2?$AAM?$AAi?$AAc?$AAr?$AAo?$AAs?$AAo?$AAf?$AAt@ 004921b8     fabianServer.obj
 0002:00006260       ??_C@_1EE@BBMFLDOC@?$AAl?$AAi?$AAs?$AAt?$AA?5?$AAe?$AAr?$AAa?$AAs?$AAe?$AA?5?$AAi?$AAt?$AAe?$AAr?$AAa?$AAt?$AAo?$AAr?$AA?5?$AAo?$AAu?$AAt?$AAs?$AAi?$AAd?$AAe?$AA?5?$AAr?$AAa?$AAn?$AAg@ 00492260     fabianServer.obj
 0002:000062b8       ??_C@_1EC@HILJLMMC@?$AAl?$AAi?$AAs?$AAt?$AA?5?$AAi?$AAt?$AAe?$AAr?$AAa?$AAt?$AAo?$AAr?$AA?5?$AAn?$AAo?$AAt?$AA?5?$AAd?$AAe?$AAr?$AAe?$AAf?$AAe?$AAr?$AAe?$AAn?$AAc?$AAa?$AAb?$AAl?$AAe@ 004922b8     fabianServer.obj
 0002:00006308       ??_C@_1OK@MINIDLIM@?$AAs?$AAt?$AAd?$AA?3?$AA?3?$AA_?$AAL?$AAi?$AAs?$AAt?$AA_?$AAc?$AAo?$AAn?$AAs?$AAt?$AA_?$AAi?$AAt?$AAe?$AAr?$AAa?$AAt?$AAo?$AAr?$AA?$DM?$AAc?$AAl?$AAa?$AAs?$AAs?$AA?5@ 00492308     fabianServer.obj
 0002:00006420       ??_C@_1EA@DOGAGKDH@?$AAl?$AAi?$AAs?$AAt?$AA?5?$AAi?$AAt?$AAe?$AAr?$AAa?$AAt?$AAo?$AAr?$AA?5?$AAn?$AAo?$AAt?$AA?5?$AAi?$AAn?$AAc?$AAr?$AAe?$AAm?$AAe?$AAn?$AAt?$AAa?$AAb?$AAl?$AAe?$AA?$AA@ 00492420     fabianServer.obj
 0002:00006470       ??_C@_1OM@JKFCANCB@?$AAs?$AAt?$AAd?$AA?3?$AA?3?$AA_?$AAL?$AAi?$AAs?$AAt?$AA_?$AAc?$AAo?$AAn?$AAs?$AAt?$AA_?$AAi?$AAt?$AAe?$AAr?$AAa?$AAt?$AAo?$AAr?$AA?$DM?$AAc?$AAl?$AAa?$AAs?$AAs?$AA?5@ 00492470     fabianServer.obj
 0002:0000658c       ??_C@_1DI@MDELDGPI@?$AAl?$AAi?$AAs?$AAt?$AA?5?$AAi?$AAt?$AAe?$AAr?$AAa?$AAt?$AAo?$AAr?$AAs?$AA?5?$AAi?$AAn?$AAc?$AAo?$AAm?$AAp?$AAa?$AAt?$AAi?$AAb?$AAl?$AAe?$AA?$AA@ 0049258c     fabianServer.obj
 0002:000065d0       ??_C@_1OM@DKKPOEOE@?$AAs?$AAt?$AAd?$AA?3?$AA?3?$AA_?$AAL?$AAi?$AAs?$AAt?$AA_?$AAc?$AAo?$AAn?$AAs?$AAt?$AA_?$AAi?$AAt?$AAe?$AAr?$AAa?$AAt?$AAo?$AAr?$AA?$DM?$AAc?$AAl?$AAa?$AAs?$AAs?$AA?5@ 004925d0     fabianServer.obj
 0002:000066f0       ??_C@_1NM@CEGBMLFD@?$AAs?$AAt?$AAd?$AA?3?$AA?3?$AA_?$AAT?$AAr?$AAe?$AAe?$AA_?$AAc?$AAo?$AAn?$AAs?$AAt?$AA_?$AAi?$AAt?$AAe?$AAr?$AAa?$AAt?$AAo?$AAr?$AA?$DM?$AAc?$AAl?$AAa?$AAs?$AAs?$AA?5@ 004926f0     fabianServer.obj
 0002:00008e3c       ??_SQSslSocket@@6B@        00494e3c     fabian_client.obj
 0002:00008ef8       ??_7fabian_client@@6BQObject@@@ 00494ef8     fabian_client.obj
 0002:00008f34       ??_7fabian_client@@6BQTreeWidgetItem@@@ 00494f34     fabian_client.obj
 0002:0000a878       ??_C@_0BN@GNBMPDOC@QAbstractSocket?3?3SocketError?$AA@ 00496878     moc_fabian_client.obj
 0002:0000a89c       ??_C@_0BB@LIJGMFNJ@QList?$DMQSslError?$DO?$AA@ 0049689c     moc_fabian_client.obj
 0002:0000d520       ??_7singleReg@@6B@         00499520     singleReg.obj
 0002:0000d528       ??_C@_1NE@NNEDDMPI@?$AAs?$AAt?$AAd?$AA?3?$AA?3?$AA_?$AAL?$AAi?$AAs?$AAt?$AA_?$AAc?$AAo?$AAn?$AAs?$AAt?$AA_?$AAi?$AAt?$AAe?$AAr?$AAa?$AAt?$AAo?$AAr?$AA?$DM?$AAc?$AAl?$AAa?$AAs?$AAs?$AA?5@ 00499528     singleReg.obj
 0002:0000d628       ??_C@_1NC@IKHOKBOO@?$AAs?$AAt?$AAd?$AA?3?$AA?3?$AA_?$AAL?$AAi?$AAs?$AAt?$AA_?$AAc?$AAo?$AAn?$AAs?$AAt?$AA_?$AAi?$AAt?$AAe?$AAr?$AAa?$AAt?$AAo?$AAr?$AA?$DM?$AAc?$AAl?$AAa?$AAs?$AAs?$AA?5@ 00499628     singleReg.obj
 0002:0000d728       ??_C@_1NE@HNLONFDN@?$AAs?$AAt?$AAd?$AA?3?$AA?3?$AA_?$AAL?$AAi?$AAs?$AAt?$AA_?$AAc?$AAo?$AAn?$AAs?$AAt?$AA_?$AAi?$AAt?$AAe?$AAr?$AAa?$AAt?$AAo?$AAr?$AA?$DM?$AAc?$AAl?$AAa?$AAs?$AAs?$AA?5@ 00499728     singleReg.obj
 0002:0000d828       ??_C@_1EG@BPNHNPIG@?$AAl?$AAi?$AAs?$AAt?$AA?5?$AAi?$AAn?$AAs?$AAe?$AAr?$AAt?$AA?5?$AAi?$AAt?$AAe?$AAr?$AAa?$AAt?$AAo?$AAr?$AA?5?$AAo?$AAu?$AAt?$AAs?$AAi?$AAd?$AAe?$AA?5?$AAr?$AAa?$AAn@ 00499828     singleReg.obj
 0002:0000d880       ??_C@_1EA@JDNDELPC@?$AAl?$AAi?$AAs?$AAt?$AA?5?$AAi?$AAt?$AAe?$AAr?$AAa?$AAt?$AAo?$AAr?$AA?5?$AAn?$AAo?$AAt?$AA?5?$AAd?$AAe?$AAc?$AAr?$AAe?$AAm?$AAe?$AAn?$AAt?$AAa?$AAb?$AAl?$AAe?$AA?$AA@ 00499880     singleReg.obj
 0002:0000d8d0       ??_C@_1NE@COHBIADJ@?$AAs?$AAt?$AAd?$AA?3?$AA?3?$AA_?$AAL?$AAi?$AAs?$AAt?$AA_?$AAc?$AAo?$AAn?$AAs?$AAt?$AA_?$AAi?$AAt?$AAe?$AAr?$AAa?$AAt?$AAo?$AAr?$AA?$DM?$AAc?$AAl?$AAa?$AAs?$AAs?$AA?5@ 004998d0     singleReg.obj
 0002:00010fb4       ??_C@_0DJ@PBFOGDEA@C?3?2Qt_licensed?25?48?25?48?2msvc2013?2@ 0049cfb4     slink.obj
 0002:00010ffc       ??_SQWidget@@6BQObject@@@  0049cffc     slink.obj
 0002:000110d8       ??_SQWidget@@6BQPaintDevice@@@ 0049d0d8     slink.obj
 0002:00011100       ??_SQAction@@6B@           0049d100     slink.obj
 0002:0001113c       ??_SQGroupBox@@6BQObject@@@ 0049d13c     slink.obj
 0002:00011218       ??_SQGroupBox@@6BQPaintDevice@@@ 0049d218     slink.obj
 0002:00011244       ??_SQSpacerItem@@6B@       0049d244     slink.obj
 0002:0001129c       ??_SQHBoxLayout@@6BQObject@@@ 0049d29c     slink.obj
 0002:000112f4       ??_SQHBoxLayout@@6BQLayoutItem@@@ 0049d2f4     slink.obj
 0002:0001134c       ??_SQVBoxLayout@@6BQObject@@@ 0049d34c     slink.obj
 0002:000113a4       ??_SQVBoxLayout@@6BQLayoutItem@@@ 0049d3a4     slink.obj
 0002:000113f8       ??_SQListWidgetItem@@6B@   0049d3f8     slink.obj
 0002:00011424       ??_SQListWidget@@6BQObject@@@ 0049d424     slink.obj
 0002:000115e0       ??_SQListWidget@@6BQPaintDevice@@@ 0049d5e0     slink.obj
 0002:0001160c       ??_SQMenu@@6BQObject@@@    0049d60c     slink.obj
 0002:000116e8       ??_SQMenu@@6BQPaintDevice@@@ 0049d6e8     slink.obj
 0002:00011714       ??_SQMenuBar@@6BQObject@@@ 0049d714     slink.obj
 0002:000117f0       ??_SQMenuBar@@6BQPaintDevice@@@ 0049d7f0     slink.obj
 0002:0001181c       ??_SQPushButton@@6BQObject@@@ 0049d81c     slink.obj
 0002:00011908       ??_SQPushButton@@6BQPaintDevice@@@ 0049d908     slink.obj
 0002:00011934       ??_SQSplitter@@6BQObject@@@ 0049d934     slink.obj
 0002:00011a18       ??_SQSplitter@@6BQPaintDevice@@@ 0049da18     slink.obj
 0002:00011a44       ??_SQStatusBar@@6BQObject@@@ 0049da44     slink.obj
 0002:00011b20       ??_SQStatusBar@@6BQPaintDevice@@@ 0049db20     slink.obj
 0002:00011b4c       ??_SQTextEdit@@6BQObject@@@ 0049db4c     slink.obj
 0002:00011c54       ??_SQTextEdit@@6BQPaintDevice@@@ 0049dc54     slink.obj
 0002:00011c7c       ??_SQToolBar@@6BQObject@@@ 0049dc7c     slink.obj
 0002:00011d58       ??_SQToolBar@@6BQPaintDevice@@@ 0049dd58     slink.obj
 0002:00011d84       ??_SQTreeWidget@@6BQObject@@@ 0049dd84     slink.obj
 0002:00011f48       ??_SQTreeWidget@@6BQPaintDevice@@@ 0049df48     slink.obj
 0002:00011f70       ??_C@_0FK@ONIKEGHK@1close?$CI?$CJ?$AAc?3?2bncs?2core_system?2Sou@ 0049df70     slink.obj
 0002:00011fe0       ??_C@_0FO@MJNFENFL@2triggered?$CI?$CJ?$AAc?3?2bncs?2core_system@ 0049dfe0     slink.obj
 0002:00012050       ??_C@_05BNCHFHLA@slink?$AA@ 0049e050     slink.obj
 0002:00012058       ??_C@_0L@IAECINKC@slinkClass?$AA@ 0049e058     slink.obj
 0002:00012068       ??_C@_05PNPHNLAJ@E?$CGxit?$AA@ 0049e068     slink.obj
 0002:00012070       ??_C@_06JDCECANP@?$CGAbout?$AA@ 0049e070     slink.obj
 0002:00012078       ??_C@_09CGBJIDBA@?$CGContents?$AA@ 0049e078     slink.obj
 0002:00012084       ??_C@_06HDFALOEG@?$CGUsers?$AA@ 0049e084     slink.obj
 0002:0001208c       ??_C@_0CE@HFMHFAKE@?$CGServer?5?$CIchanges?5require?5a?5resta@ 0049e08c     slink.obj
 0002:000120b8       ??_C@_0BJ@IIJAFOIC@?$CGBlack?9list?5?1?5White?9list?$AA@ 0049e0b8     slink.obj
 0002:000120d8       ??_C@_06EDBEHDPL@?$CGClear?$AA@ 0049e0d8     slink.obj
 0002:000120e0       ??_C@_02MPIDCEGI@F4?$AA@   0049e0e0     slink.obj
 0002:000120e4       ??_C@_08PLOJMMKK@?$CGLogging?$AA@ 0049e0e4     slink.obj
 0002:000120f0       ??_C@_02IIGACPMN@Rx?$AA@   0049e0f0     slink.obj
 0002:000120f4       ??_C@_02IMONFDHP@Tx?$AA@   0049e0f4     slink.obj
 0002:000120f8       ??_C@_0P@NDOKOLCG@Control?5Access?$AA@ 0049e0f8     slink.obj
 0002:0001210c       ??_C@_04ODLBFFJE@User?$AA@ 0049e10c     slink.obj
 0002:00012114       ??_C@_0M@DMGJCGFF@Server?5Port?$AA@ 0049e114     slink.obj
 0002:00012124       ??_C@_0L@BNKDIMHH@Local?5Port?$AA@ 0049e124     slink.obj
 0002:00012134       ??_C@_07EODJIPPN@Address?$AA@ 0049e134     slink.obj
 0002:00012140       ??_C@_0L@IOCMLEJH@Poll?5Queue?$AA@ 0049e140     slink.obj
 0002:00012150       ??_C@_05MDNHABIA@Clear?$AA@ 0049e150     slink.obj
 0002:00012158       ??_C@_05FHBCAALB@?$CGFile?$AA@ 0049e158     slink.obj
 0002:00012160       ??_C@_05JFEBOHHM@?$CGHelp?$AA@ 0049e160     slink.obj
 0002:00012168       ??_C@_07HMHAPFBA@?$CGConfig?$AA@ 0049e168     slink.obj
 0002:00012174       ??_C@_07NNPOAILI@?$CGWindow?$AA@ 0049e174     slink.obj
 0002:000126d8       ??_7Ifabian_clientCallback@@6B@ 0049e6d8     slink.obj
 0002:00012744       ??_7IccClientCallback@@6B@ 0049e744     slink.obj
 0002:00012780       ??_7slink@@6BQObject@@@    0049e780     slink.obj
 0002:00012864       ??_7slink@@6BQPaintDevice@@@ 0049e864     slink.obj
 0002:0001288c       ??_7slink@@6BIccClientCallback@@@ 0049e88c     slink.obj
 0002:000128c8       ??_7slink@@6BIfabian_clientCallback@@@ 0049e8c8     slink.obj
 0002:00012934       ??_7slink@@6BccCheck@@@    0049e934     slink.obj
 0002:0001293c       ??_C@_0BD@GFNBLPCE@str?4ref?4isStatic?$CI?$CJ?$AA@ 0049e93c     slink.obj
 0002:00012958       ??_C@_1NI@DAGPLBKA@?$AAs?$AAt?$AAd?$AA?3?$AA?3?$AA_?$AAL?$AAi?$AAs?$AAt?$AA_?$AAc?$AAo?$AAn?$AAs?$AAt?$AA_?$AAi?$AAt?$AAe?$AAr?$AAa?$AAt?$AAo?$AAr?$AA?$DM?$AAc?$AAl?$AAa?$AAs?$AAs?$AA?5@ 0049e958     slink.obj
 0002:00012a60       ??_C@_1BDI@LFPAJCID@?$AAs?$AAt?$AAd?$AA?3?$AA?3?$AA_?$AAT?$AAr?$AAe?$AAe?$AA_?$AAc?$AAo?$AAn?$AAs?$AAt?$AA_?$AAi?$AAt?$AAe?$AAr?$AAa?$AAt?$AAo?$AAr?$AA?$DM?$AAc?$AAl?$AAa?$AAs?$AAs?$AA?5@ 0049ea60     slink.obj
 0002:00012bd8       ??_C@_1OA@PGDMCJDD@?$AAs?$AAt?$AAd?$AA?3?$AA?3?$AA_?$AAL?$AAi?$AAs?$AAt?$AA_?$AAc?$AAo?$AAn?$AAs?$AAt?$AA_?$AAi?$AAt?$AAe?$AAr?$AAa?$AAt?$AAo?$AAr?$AA?$DM?$AAc?$AAl?$AAa?$AAs?$AAs?$AA?5@ 0049ebd8     slink.obj
 0002:00012ce8       ??_C@_1NM@IAFEAHJF@?$AAs?$AAt?$AAd?$AA?3?$AA?3?$AA_?$AAT?$AAr?$AAe?$AAe?$AA_?$AAc?$AAo?$AAn?$AAs?$AAt?$AA_?$AAi?$AAt?$AAe?$AAr?$AAa?$AAt?$AAo?$AAr?$AA?$DM?$AAc?$AAl?$AAa?$AAs?$AAs?$AA?5@ 0049ece8     slink.obj
 0002:00012df0       ??_C@_1OE@CJFNGDIA@?$AAs?$AAt?$AAd?$AA?3?$AA?3?$AA_?$AAT?$AAr?$AAe?$AAe?$AA_?$AAc?$AAo?$AAn?$AAs?$AAt?$AA_?$AAi?$AAt?$AAe?$AAr?$AAa?$AAt?$AAo?$AAr?$AA?$DM?$AAc?$AAl?$AAa?$AAs?$AAs?$AA?5@ 0049edf0     slink.obj
 0002:00012f08       ??_C@_1OE@IJKAIKEF@?$AAs?$AAt?$AAd?$AA?3?$AA?3?$AA_?$AAT?$AAr?$AAe?$AAe?$AA_?$AAc?$AAo?$AAn?$AAs?$AAt?$AA_?$AAi?$AAt?$AAe?$AAr?$AAa?$AAt?$AAo?$AAr?$AA?$DM?$AAc?$AAl?$AAa?$AAs?$AAs?$AA?5@ 0049ef08     slink.obj
 0002:00013020       ??_C@_1NK@KOAOPEAG@?$AAs?$AAt?$AAd?$AA?3?$AA?3?$AA_?$AAL?$AAi?$AAs?$AAt?$AA_?$AAc?$AAo?$AAn?$AAs?$AAt?$AA_?$AAi?$AAt?$AAe?$AAr?$AAa?$AAt?$AAo?$AAr?$AA?$DM?$AAc?$AAl?$AAa?$AAs?$AAs?$AA?5@ 0049f020     slink.obj
 0002:00013128       ??_C@_1NK@OPDBNMD@?$AAs?$AAt?$AAd?$AA?3?$AA?3?$AA_?$AAL?$AAi?$AAs?$AAt?$AA_?$AAc?$AAo?$AAn?$AAs?$AAt?$AA_?$AAi?$AAt?$AAe?$AAr?$AAa?$AAt?$AAo?$AAr?$AA?$DM?$AAc?$AAl?$AAa?$AAs?$AAs?$AA?5@ 0049f128     slink.obj
 0002:00013230       ??_C@_1BDG@PMPLJEHJ@?$AAs?$AAt?$AAd?$AA?3?$AA?3?$AA_?$AAT?$AAr?$AAe?$AAe?$AA_?$AAc?$AAo?$AAn?$AAs?$AAt?$AA_?$AAi?$AAt?$AAe?$AAr?$AAa?$AAt?$AAo?$AAr?$AA?$DM?$AAc?$AAl?$AAa?$AAs?$AAs?$AA?5@ 0049f230     slink.obj
 0002:000133a8       ??_C@_1BDI@BFANHLEG@?$AAs?$AAt?$AAd?$AA?3?$AA?3?$AA_?$AAT?$AAr?$AAe?$AAe?$AA_?$AAc?$AAo?$AAn?$AAs?$AAt?$AA_?$AAi?$AAt?$AAe?$AAr?$AAa?$AAt?$AAo?$AAr?$AA?$DM?$AAc?$AAl?$AAa?$AAs?$AAs?$AA?5@ 0049f3a8     slink.obj
 0002:00013520       ??_C@_1OA@FGMBMAPG@?$AAs?$AAt?$AAd?$AA?3?$AA?3?$AA_?$AAL?$AAi?$AAs?$AAt?$AA_?$AAc?$AAo?$AAn?$AAs?$AAt?$AA_?$AAi?$AAt?$AAe?$AAr?$AAa?$AAt?$AAo?$AAr?$AA?$DM?$AAc?$AAl?$AAa?$AAs?$AAs?$AA?5@ 0049f520     slink.obj
 0002:00013630       ??_C@_1NK@MABMOAKC@?$AAs?$AAt?$AAd?$AA?3?$AA?3?$AA_?$AAT?$AAr?$AAe?$AAe?$AA_?$AAc?$AAo?$AAn?$AAs?$AAt?$AA_?$AAi?$AAt?$AAe?$AAr?$AAa?$AAt?$AAo?$AAr?$AA?$DM?$AAc?$AAl?$AAa?$AAs?$AAs?$AA?5@ 0049f630     slink.obj
 0002:00013738       ??_C@_1OC@NKJFDNBP@?$AAs?$AAt?$AAd?$AA?3?$AA?3?$AA_?$AAT?$AAr?$AAe?$AAe?$AA_?$AAc?$AAo?$AAn?$AAs?$AAt?$AA_?$AAi?$AAt?$AAe?$AAr?$AAa?$AAt?$AAo?$AAr?$AA?$DM?$AAc?$AAl?$AAa?$AAs?$AAs?$AA?5@ 0049f738     slink.obj
 0002:00013848       ??_C@_1OI@BHDEKLNO@?$AAs?$AAt?$AAd?$AA?3?$AA?3?$AA_?$AAD?$AAe?$AAq?$AAu?$AAe?$AA_?$AAc?$AAo?$AAn?$AAs?$AAt?$AA_?$AAi?$AAt?$AAe?$AAr?$AAa?$AAt?$AAo?$AAr?$AA?$DM?$AAc?$AAl?$AAa?$AAs?$AAs@ 0049f848     slink.obj
 0002:00013960       ??_C@_1OE@NKGPNPEB@?$AAs?$AAt?$AAd?$AA?3?$AA?3?$AA_?$AAT?$AAr?$AAe?$AAe?$AA_?$AAc?$AAo?$AAn?$AAs?$AAt?$AA_?$AAi?$AAt?$AAe?$AAr?$AAa?$AAt?$AAo?$AAr?$AA?$DM?$AAc?$AAl?$AAa?$AAs?$AAs?$AA?5@ 0049f960     slink.obj
 0002:00013a78       ??_C@_1NM@HHKOJOFH@?$AAs?$AAt?$AAd?$AA?3?$AA?3?$AA_?$AAT?$AAr?$AAe?$AAe?$AA_?$AAc?$AAo?$AAn?$AAs?$AAt?$AA_?$AAi?$AAt?$AAe?$AAr?$AAa?$AAt?$AAo?$AAr?$AA?$DM?$AAc?$AAl?$AAa?$AAs?$AAs?$AA?5@ 0049fa78     slink.obj
 0002:00013b80       ??_C@_1BDI@EGMCCOEC@?$AAs?$AAt?$AAd?$AA?3?$AA?3?$AA_?$AAT?$AAr?$AAe?$AAe?$AA_?$AAc?$AAo?$AAn?$AAs?$AAt?$AA_?$AAi?$AAt?$AAe?$AAr?$AAa?$AAt?$AAo?$AAr?$AA?$DM?$AAc?$AAl?$AAa?$AAs?$AAs?$AA?5@ 0049fb80     slink.obj
 0002:00013cfc       ??_7user@@6B@              0049fcfc     user.obj
 0002:000148bc       ??_SQLabel@@6BQObject@@@   004a08bc     userEditDialog.obj
 0002:00014998       ??_SQLabel@@6BQPaintDevice@@@ 004a0998     userEditDialog.obj
 0002:000149c0       ??_SQTreeWidgetItem@@6B@   004a09c0     userEditDialog.obj
 0002:000149e8       ??_C@_0FM@DNMCBLNI@1close?$CI?$CJ?$AAc?3?2bncs?2core_system?2Sou@ 004a09e8     userEditDialog.obj
 0002:00014a58       ??_C@_0FO@PAMBJOLN@2clicked?$CI?$CJ?$AAc?3?2bncs?2core_system?2S@ 004a0a58     userEditDialog.obj
 0002:00014ac8       ??_C@_0BB@OGCFNDOP@Slink?5Edit?5Users?$AA@ 004a0ac8     userEditDialog.obj
 0002:00014adc       ??_C@_0P@NELHKJHG@userEditDialog?$AA@ 004a0adc     userEditDialog.obj
 0002:00014af0       ??_C@_0BN@FHPDMDEP@Double?9click?5for?5permissions?$AA@ 004a0af0     userEditDialog.obj
 0002:00014b14       ??_C@_0BF@OBNMEGJI@Workstation?5Override?$AA@ 004a0b14     userEditDialog.obj
 0002:00014b30       ??_C@_0BB@GGCBLED@Control?5Password?$AA@ 004a0b30     userEditDialog.obj
 0002:00014b44       ??_C@_08FJIAHGMM@Password?$AA@ 004a0b44     userEditDialog.obj
 0002:00014b50       ??_C@_09FCOKPOKB@User?5Name?$AA@ 004a0b50     userEditDialog.obj
 0002:00014b5c       ??_C@_03LDFMNCOE@Add?$AA@  004a0b5c     userEditDialog.obj
 0002:00014b60       ??_C@_06JBKGCNBB@Delete?$AA@ 004a0b60     userEditDialog.obj
 0002:00014b68       ??_C@_0DO@IAOHBLGP@Changes?5are?5dynamic?5and?5do?5not?5r@ 004a0b68     userEditDialog.obj
 0002:00014bb4       ??_C@_05LGELBCGM@Close?$AA@ 004a0bb4     userEditDialog.obj
 0002:00014ddc       ??_7userEditDialog@@6BQObject@@@ 004a0ddc     userEditDialog.obj
 0002:00014ed0       ??_7userEditDialog@@6BQPaintDevice@@@ 004a0ed0     userEditDialog.obj
 0002:000158b4       ??_SQDialogButtonBox@@6BQObject@@@ 004a18b4     userEditPermissionsDialog.obj
 0002:00015990       ??_SQDialogButtonBox@@6BQPaintDevice@@@ 004a1990     userEditPermissionsDialog.obj
 0002:000159bc       ??_SQToolButton@@6BQObject@@@ 004a19bc     userEditPermissionsDialog.obj
 0002:00015aa8       ??_SQToolButton@@6BQPaintDevice@@@ 004a1aa8     userEditPermissionsDialog.obj
 0002:00015ad0       ??_C@_0GP@BJOJGLDF@1accept?$CI?$CJ?$AAc?3?2bncs?2core_system?2So@ 004a1ad0     userEditPermissionsDialog.obj
 0002:00015b58       ??_C@_0HB@ILLNJNIO@2accepted?$CI?$CJ?$AAc?3?2bncs?2core_system?2@ 004a1b58     userEditPermissionsDialog.obj
 0002:00015be0       ??_C@_0GP@NLAPGLPJ@1reject?$CI?$CJ?$AAc?3?2bncs?2core_system?2So@ 004a1be0     userEditPermissionsDialog.obj
 0002:00015c68       ??_C@_0HB@NFGKDLAH@2rejected?$CI?$CJ?$AAc?3?2bncs?2core_system?2@ 004a1c68     userEditPermissionsDialog.obj
 0002:00015cf0       ??_C@_0BB@NLAHLNMG@User?5Permissions?$AA@ 004a1cf0     userEditPermissionsDialog.obj
 0002:00015d04       ??_C@_0BK@GKAGFJOK@userEditPermissionsDialog?$AA@ 004a1d04     userEditPermissionsDialog.obj
 0002:00015d24       ??_C@_0M@JAFLNGPM@Read?5access?$AA@ 004a1d24     userEditPermissionsDialog.obj
 0002:00015d34       ??_C@_02GPIOPFAK@?$DO?$DO?$AA@ 004a1d34     userEditPermissionsDialog.obj
 0002:00015d38       ??_C@_02FODMEDOG@?$DM?$DM?$AA@ 004a1d38     userEditPermissionsDialog.obj
 0002:00015d3c       ??_C@_0N@JLGJEJHE@Write?5Access?$AA@ 004a1d3c     userEditPermissionsDialog.obj
 0002:00015d4c       ??_C@_0CP@HMPLGKJE@Entries?5are?3?5device?3start?9end?5e?4@ 004a1d4c     userEditPermissionsDialog.obj
 0002:0001607c       ??_7userEditPermissionsDialog@@6BQObject@@@ 004a207c     userEditPermissionsDialog.obj
 0002:00016170       ??_7userEditPermissionsDialog@@6BQPaintDevice@@@ 004a2170     userEditPermissionsDialog.obj
 0002:00016994       ??_7users@@6B@             004a2994     users.obj
 0002:000169a0       ??_C@_1BCK@EDJEAOCB@?$AAs?$AAt?$AAd?$AA?3?$AA?3?$AA_?$AAT?$AAr?$AAe?$AAe?$AA_?$AAc?$AAo?$AAn?$AAs?$AAt?$AA_?$AAi?$AAt?$AAe?$AAr?$AAa?$AAt?$AAo?$AAr?$AA?$DM?$AAc?$AAl?$AAa?$AAs?$AAs?$AA?5@ 004a29a0     users.obj
 0002:00016b08       ??_C@_1BHA@GCEHFIND@?$AAs?$AAt?$AAd?$AA?3?$AA?3?$AA_?$AAL?$AAi?$AAs?$AAt?$AA_?$AAc?$AAo?$AAn?$AAs?$AAt?$AA_?$AAi?$AAt?$AAe?$AAr?$AAa?$AAt?$AAo?$AAr?$AA?$DM?$AAc?$AAl?$AAa?$AAs?$AAs?$AA?5@ 004a2b08     users.obj
 0002:00016cc8       ??_C@_1BHC@HDMKNGMH@?$AAs?$AAt?$AAd?$AA?3?$AA?3?$AA_?$AAL?$AAi?$AAs?$AAt?$AA_?$AAc?$AAo?$AAn?$AAs?$AAt?$AA_?$AAi?$AAt?$AAe?$AAr?$AAa?$AAt?$AAo?$AAr?$AA?$DM?$AAc?$AAl?$AAa?$AAs?$AAs?$AA?5@ 004a2cc8     users.obj
 0002:00016e88       ??_C@_1BCI@ELHOIIBG@?$AAs?$AAt?$AAd?$AA?3?$AA?3?$AA_?$AAT?$AAr?$AAe?$AAe?$AA_?$AAc?$AAo?$AAn?$AAs?$AAt?$AA_?$AAi?$AAt?$AAe?$AAr?$AAa?$AAt?$AAo?$AAr?$AA?$DM?$AAc?$AAl?$AAa?$AAs?$AAs?$AA?5@ 004a2e88     users.obj
 0002:00016ff0       ??_C@_1BCK@ODGJOHOE@?$AAs?$AAt?$AAd?$AA?3?$AA?3?$AA_?$AAT?$AAr?$AAe?$AAe?$AA_?$AAc?$AAo?$AAn?$AAs?$AAt?$AA_?$AAi?$AAt?$AAe?$AAr?$AAa?$AAt?$AAo?$AAr?$AA?$DM?$AAc?$AAl?$AAa?$AAs?$AAs?$AA?5@ 004a2ff0     users.obj
 0002:00017158       ??_C@_1BHC@NDDHDPAC@?$AAs?$AAt?$AAd?$AA?3?$AA?3?$AA_?$AAL?$AAi?$AAs?$AAt?$AA_?$AAc?$AAo?$AAn?$AAs?$AAt?$AA_?$AAi?$AAt?$AAe?$AAr?$AAa?$AAt?$AAo?$AAr?$AA?$DM?$AAc?$AAl?$AAa?$AAs?$AAs?$AA?5@ 004a3158     users.obj
 0002:00017318       ??_C@_1BCK@LAKGLCOA@?$AAs?$AAt?$AAd?$AA?3?$AA?3?$AA_?$AAT?$AAr?$AAe?$AAe?$AA_?$AAc?$AAo?$AAn?$AAs?$AAt?$AA_?$AAi?$AAt?$AAe?$AAr?$AAa?$AAt?$AAo?$AAr?$AA?$DM?$AAc?$AAl?$AAa?$AAs?$AAs?$AA?5@ 004a3318     users.obj
 0002:00018050       ??_C@_0GI@GEFKPEMM@1accept?$CI?$CJ?$AAc?3?2bncs?2core_system?2So@ 004a4050     whiteBlackListEditDialog.obj
 0002:000180d0       ??_C@_0GK@DANAAPMJ@2accepted?$CI?$CJ?$AAc?3?2bncs?2core_system?2@ 004a40d0     whiteBlackListEditDialog.obj
 0002:00018150       ??_C@_0GI@MGECFLON@1reject?$CI?$CJ?$AAc?3?2bncs?2core_system?2So@ 004a4150     whiteBlackListEditDialog.obj
 0002:000181d0       ??_C@_0GK@CFNNAKNC@2rejected?$CI?$CJ?$AAc?3?2bncs?2core_system?2@ 004a41d0     whiteBlackListEditDialog.obj
 0002:00018250       ??_C@_0CA@JPBLPPDP@IP?5Blacklist?5?1?5Whitelist?5Editor?$AA@ 004a4250     whiteBlackListEditDialog.obj
 0002:00018278       ??_C@_0BD@HKELOHGG@whiteBlackListEdit?$AA@ 004a4278     whiteBlackListEditDialog.obj
 0002:00018290       ??_C@_09CILELAHL@Whitelist?$AA@ 004a4290     whiteBlackListEditDialog.obj
 0002:000182a0       ??_C@_0LE@PJDPLBLG@Any?5entry?5here?5means?5the?5host?5mu@ 004a42a0     whiteBlackListEditDialog.obj
 0002:00018378       ??_C@_09PPEJHDFO@Blacklist?$AA@ 004a4378     whiteBlackListEditDialog.obj
 0002:00018388       ??_C@_0FF@DPGHHDNK@Any?5entry?5here?5means?5host?5is?5exp@ 004a4388     whiteBlackListEditDialog.obj
 0002:000183f0       ??_C@_0FB@IHLMIFKI@Entries?5can?5be?5specific?5IP?5addre@ 004a43f0     whiteBlackListEditDialog.obj
 0002:00018454       ??_C@_0CI@NBLDMPPA@e?4g?4?5192?4168?40?40?124?5?5?5or?5?5192?416@ 004a4454     whiteBlackListEditDialog.obj
 0002:000187b4       ??_7whiteBlackListEditDialog@@6BQObject@@@ 004a47b4     whiteBlackListEditDialog.obj
 0002:000188a8       ??_7whiteBlackListEditDialog@@6BQPaintDevice@@@ 004a48a8     whiteBlackListEditDialog.obj
 0002:0001891c       ??_C@_00A@?$AA@            004a491c     htmlhelp:init.obj
 0002:00018920       ??_C@_05CLMJGDKL@?$CF08lx?$AA@ 004a4920     bncswm32:BncsWM32.obj
 0002:00018926       ?value@?$integral_constant@_N$0A@@std@@2_NB 004a4926     MSVCRTD:ti_inst.obj
 0002:00018927       ?value@?$integral_constant@_N$00@std@@2_NB 004a4927     MSVCRTD:ti_inst.obj
 0002:0001892c       ??_7type_info@@6B@         004a492c     MSVCRTD:ti_inst.obj
 0002:00018930       ??_C@_1MC@KPMPFEII@?$AA?$CI?$AA_?$AA_?$AAo?$AAn?$AAe?$AAx?$AAi?$AAt?$AAb?$AAe?$AAg?$AAi?$AAn?$AA?5?$AA?$CB?$AA?$DN?$AA?5?$AAN?$AAU?$AAL?$AAL?$AA?5?$AA?$CG?$AA?$CG?$AA?5?$AA_?$AA_?$AAo?$AAn?$AAe?$AAx@ 004a4930     MSVCRTD:atonexit.obj
 0002:000189f8       ??_C@_1FK@IGIDCAPD@?$AAf?$AA?3?$AA?2?$AAd?$AAd?$AA?2?$AAv?$AAc?$AAt?$AAo?$AAo?$AAl?$AAs?$AA?2?$AAc?$AAr?$AAt?$AA?2?$AAc?$AAr?$AAt?$AAw?$AA3?$AA2?$AA?2?$AAd?$AAl?$AAl?$AAs?$AAt?$AAu?$AAf@ 004a49f8     MSVCRTD:atonexit.obj
 0002:00018a54       ??_C@_0CN@LMJJPMEG@f?3?2dd?2vctools?2crt?2crtw32?2dllstuf@ 004a4a54     MSVCRTD:atonexit.obj
 0002:00018a88       ??_C@_1FA@DALEHHGL@?$AA_?$AA_?$AAn?$AAa?$AAt?$AAi?$AAv?$AAe?$AA_?$AAs?$AAt?$AAa?$AAr?$AAt?$AAu?$AAp?$AA_?$AAs?$AAt?$AAa?$AAt?$AAe?$AA?5?$AA?$DN?$AA?$DN?$AA?5?$AA_?$AA_?$AAi?$AAn?$AAi?$AAt@ 004a4a88     MSVCRTD:crtexew.obj
 0002:00018ad8       ??_C@_1FG@DKNDLLJO@?$AAf?$AA?3?$AA?2?$AAd?$AAd?$AA?2?$AAv?$AAc?$AAt?$AAo?$AAo?$AAl?$AAs?$AA?2?$AAc?$AAr?$AAt?$AA?2?$AAc?$AAr?$AAt?$AAw?$AA3?$AA2?$AA?2?$AAd?$AAl?$AAl?$AAs?$AAt?$AAu?$AAf@ 004a4ad8     MSVCRTD:crtexew.obj
 0002:00018b38       ?ProcessDetach@NativeDll@<CrtImplementationDetails>@@0IB 004a4b38     MSVCRTD:unhandld.obj
 0002:00018b3c       ?ProcessAttach@NativeDll@<CrtImplementationDetails>@@0IB 004a4b3c     MSVCRTD:unhandld.obj
 0002:00018b40       ?ThreadAttach@NativeDll@<CrtImplementationDetails>@@0IB 004a4b40     MSVCRTD:unhandld.obj
 0002:00018b44       ?ThreadDetach@NativeDll@<CrtImplementationDetails>@@0IB 004a4b44     MSVCRTD:unhandld.obj
 0002:00018b48       ?ProcessVerifier@NativeDll@<CrtImplementationDetails>@@0IB 004a4b48     MSVCRTD:unhandld.obj
 0002:00018b50       ??_C@_1FI@JJOJLGLE@?$AAf?$AA?3?$AA?2?$AAd?$AAd?$AA?2?$AAv?$AAc?$AAt?$AAo?$AAo?$AAl?$AAs?$AA?2?$AAc?$AAr?$AAt?$AA?2?$AAc?$AAr?$AAt?$AAw?$AA3?$AA2?$AA?2?$AAs?$AAt?$AAa?$AAr?$AAt?$AAu?$AAp@ 004a4b50     MSVCRTD:fp8.obj
 0002:00018ba8       ??_C@_1CK@JMKHCBEI@?$AA_?$AAs?$AAe?$AAt?$AAd?$AAe?$AAf?$AAa?$AAu?$AAl?$AAt?$AAp?$AAr?$AAe?$AAc?$AAi?$AAs?$AAi?$AAo?$AAn?$AA?$AA@ 004a4ba8     MSVCRTD:fp8.obj
 0002:00018bd8       ??_C@_1GE@KOCFNGPB@?$AA_?$AAc?$AAo?$AAn?$AAt?$AAr?$AAo?$AAl?$AAf?$AAp?$AA_?$AAs?$AA?$CI?$AA?$CI?$AA?$CI?$AAv?$AAo?$AAi?$AAd?$AA?5?$AA?$CK?$AA?$CJ?$AA0?$AA?$CJ?$AA?0?$AA?5?$AA0?$AAx?$AA0?$AA0?$AA0?$AA1@ 004a4bd8     MSVCRTD:fp8.obj
 0002:00018c40       ??_C@_1IC@PFEDBGCL@?$AAC?$AA?3?$AA?2?$AAP?$AAr?$AAo?$AAg?$AAr?$AAa?$AAm?$AA?5?$AAF?$AAi?$AAl?$AAe?$AAs?$AA?2?$AAM?$AAi?$AAc?$AAr?$AAo?$AAs?$AAo?$AAf?$AAt?$AA?5?$AAV?$AAi?$AAs?$AAu?$AAa@ 004a4c40     qtmaind:qtmain_win.obj
 0002:00018cc8       __load_config_used         004a4cc8     MSVCRTD:loadcfg.obj
 0002:00019178       ??_R4cBncsVersion@@6B@     004a5178     cBncsVersion.obj
 0002:00019190       ??_R3cBncsVersion@@8       004a5190     cBncsVersion.obj
 0002:000191a4       ??_R2cBncsVersion@@8       004a51a4     cBncsVersion.obj
 0002:000191ac       ??_R1A@?0A@EA@cBncsVersion@@8 004a51ac     cBncsVersion.obj
 0002:000191d0       ??_R4bncs_disklog@@6B@     004a51d0     bncs_disklog.obj
 0002:000191e8       ??_R3bncs_disklog@@8       004a51e8     bncs_disklog.obj
 0002:000191fc       ??_R2bncs_disklog@@8       004a51fc     bncs_disklog.obj
 0002:00019204       ??_R1A@?0A@EA@bncs_disklog@@8 004a5204     bncs_disklog.obj
 0002:00019228       ??_R4error_category@std@@6B@ 004a5228     ccCheck.obj
 0002:00019240       ??_R3error_category@std@@8 004a5240     ccCheck.obj
 0002:00019254       ??_R2error_category@std@@8 004a5254     ccCheck.obj
 0002:0001925c       ??_R1A@?0A@EA@error_category@std@@8 004a525c     ccCheck.obj
 0002:00019280       ??_R4_Generic_error_category@std@@6B@ 004a5280     ccCheck.obj
 0002:00019298       ??_R3_Generic_error_category@std@@8 004a5298     ccCheck.obj
 0002:000192ac       ??_R2_Generic_error_category@std@@8 004a52ac     ccCheck.obj
 0002:000192b8       ??_R1A@?0A@EA@_Generic_error_category@std@@8 004a52b8     ccCheck.obj
 0002:000192dc       ??_R4_Iostream_error_category@std@@6B@ 004a52dc     ccCheck.obj
 0002:000192f4       ??_R3_Iostream_error_category@std@@8 004a52f4     ccCheck.obj
 0002:00019308       ??_R2_Iostream_error_category@std@@8 004a5308     ccCheck.obj
 0002:00019318       ??_R1A@?0A@EA@_Iostream_error_category@std@@8 004a5318     ccCheck.obj
 0002:0001933c       ??_R4_System_error_category@std@@6B@ 004a533c     ccCheck.obj
 0002:00019354       ??_R3_System_error_category@std@@8 004a5354     ccCheck.obj
 0002:00019368       ??_R2_System_error_category@std@@8 004a5368     ccCheck.obj
 0002:00019378       ??_R1A@?0A@EA@_System_error_category@std@@8 004a5378     ccCheck.obj
 0002:0001939c       ??_R4ccCheck@@6B@          004a539c     ccCheck.obj
 0002:000193b4       ??_R3ccCheck@@8            004a53b4     ccCheck.obj
 0002:000193c8       ??_R2ccCheck@@8            004a53c8     ccCheck.obj
 0002:000193d0       ??_R1A@?0A@EA@ccCheck@@8   004a53d0     ccCheck.obj
 0002:000193f4       ??_R4ccClient@@6B@         004a53f4     ccClient.obj
 0002:0001940c       ??_R3ccClient@@8           004a540c     ccClient.obj
 0002:00019420       ??_R2ccClient@@8           004a5420     ccClient.obj
 0002:0001942c       ??_R1A@?0A@EA@ccClient@@8  004a542c     ccClient.obj
 0002:00019450       ??_R4ccConfig@@6B@         004a5450     ccConfig.obj
 0002:00019468       ??_R3ccConfig@@8           004a5468     ccConfig.obj
 0002:0001947c       ??_R2ccConfig@@8           004a547c     ccConfig.obj
 0002:00019484       ??_R1A@?0A@EA@ccConfig@@8  004a5484     ccConfig.obj
 0002:000194a8       ??_R4sizedBuffer@@6B@      004a54a8     sizedBuffer.obj
 0002:000194c0       ??_R3sizedBuffer@@8        004a54c0     sizedBuffer.obj
 0002:000194d4       ??_R2sizedBuffer@@8        004a54d4     sizedBuffer.obj
 0002:000194dc       ??_R1A@?0A@EA@sizedBuffer@@8 004a54dc     sizedBuffer.obj
 0002:00019500       ??_R4clientsRegistration@@6B@ 004a5500     clientsRegistration.obj
 0002:00019518       ??_R3clientsRegistration@@8 004a5518     clientsRegistration.obj
 0002:0001952c       ??_R2clientsRegistration@@8 004a552c     clientsRegistration.obj
 0002:00019534       ??_R1A@?0A@EA@clientsRegistration@@8 004a5534     clientsRegistration.obj
 0002:00019558       ??_R4databaseSync@@6B@     004a5558     databaseSync.obj
 0002:00019570       ??_R3databaseSync@@8       004a5570     databaseSync.obj
 0002:00019584       ??_R2databaseSync@@8       004a5584     databaseSync.obj
 0002:0001958c       ??_R1A@?0A@EA@databaseSync@@8 004a558c     databaseSync.obj
 0002:000195b0       ??_R4decodeBNCSString@@6B@ 004a55b0     decodeBNCSString.obj
 0002:000195c8       ??_R3decodeBNCSString@@8   004a55c8     decodeBNCSString.obj
 0002:000195dc       ??_R2decodeBNCSString@@8   004a55dc     decodeBNCSString.obj
 0002:000195e4       ??_R1A@?0A@EA@decodeBNCSString@@8 004a55e4     decodeBNCSString.obj
 0002:00019608       ??_R4fabianServer@@6B@     004a5608     fabianServer.obj
 0002:00019620       ??_R3fabianServer@@8       004a5620     fabianServer.obj
 0002:00019634       ??_R2fabianServer@@8       004a5634     fabianServer.obj
 0002:00019644       ??_R1A@?0A@EA@fabianServer@@8 004a5644     fabianServer.obj
 0002:00019668       ??_R1A@?0A@EA@QTcpServer@@8 004a5668     fabianServer.obj
 0002:0001968c       ??_R3QTcpServer@@8         004a568c     fabianServer.obj
 0002:000196a0       ??_R2QTcpServer@@8         004a56a0     fabianServer.obj
 0002:000196ac       ??_R1A@?0A@EA@QObject@@8   004a56ac     fabianServer.obj
 0002:000196d0       ??_R3QObject@@8            004a56d0     fabianServer.obj
 0002:000196e4       ??_R2QObject@@8            004a56e4     fabianServer.obj
 0002:000196ec       ??_R4QSslSocket@@6B@       004a56ec     fabian_client.obj
 0002:00019704       ??_R3QSslSocket@@8         004a5704     fabian_client.obj
 0002:00019718       ??_R2QSslSocket@@8         004a5718     fabian_client.obj
 0002:00019734       ??_R1A@?0A@EA@QSslSocket@@8 004a5734     fabian_client.obj
 0002:00019758       ??_R1A@?0A@EA@QTcpSocket@@8 004a5758     fabian_client.obj
 0002:0001977c       ??_R3QTcpSocket@@8         004a577c     fabian_client.obj
 0002:00019790       ??_R2QTcpSocket@@8         004a5790     fabian_client.obj
 0002:000197a4       ??_R1A@?0A@EA@QAbstractSocket@@8 004a57a4     fabian_client.obj
 0002:000197c8       ??_R3QAbstractSocket@@8    004a57c8     fabian_client.obj
 0002:000197dc       ??_R2QAbstractSocket@@8    004a57dc     fabian_client.obj
 0002:000197ec       ??_R1A@?0A@EA@QIODevice@@8 004a57ec     fabian_client.obj
 0002:00019810       ??_R3QIODevice@@8          004a5810     fabian_client.obj
 0002:00019824       ??_R2QIODevice@@8          004a5824     fabian_client.obj
 0002:00019830       ??_R4fabian_client@@6BQObject@@@ 004a5830     fabian_client.obj
 0002:00019848       ??_R3fabian_client@@8      004a5848     fabian_client.obj
 0002:0001985c       ??_R2fabian_client@@8      004a585c     fabian_client.obj
 0002:0001986c       ??_R1A@?0A@EA@fabian_client@@8 004a586c     fabian_client.obj
 0002:00019890       ??_R17?0A@EA@QTreeWidgetItem@@8 004a5890     fabian_client.obj
 0002:000198b4       ??_R3QTreeWidgetItem@@8    004a58b4     fabian_client.obj
 0002:000198c8       ??_R2QTreeWidgetItem@@8    004a58c8     fabian_client.obj
 0002:000198d0       ??_R1A@?0A@EA@QTreeWidgetItem@@8 004a58d0     fabian_client.obj
 0002:000198f4       ??_R4fabian_client@@6BQTreeWidgetItem@@@ 004a58f4     fabian_client.obj
 0002:0001990c       ??_R4singleReg@@6B@        004a590c     singleReg.obj
 0002:00019924       ??_R3singleReg@@8          004a5924     singleReg.obj
 0002:00019938       ??_R2singleReg@@8          004a5938     singleReg.obj
 0002:00019940       ??_R1A@?0A@EA@singleReg@@8 004a5940     singleReg.obj
 0002:00019964       ??_R4QWidget@@6BQObject@@@ 004a5964     slink.obj
 0002:0001997c       ??_R3QWidget@@8            004a597c     slink.obj
 0002:00019990       ??_R2QWidget@@8            004a5990     slink.obj
 0002:000199a0       ??_R1A@?0A@EA@QWidget@@8   004a59a0     slink.obj
 0002:000199c4       ??_R17?0A@EA@QPaintDevice@@8 004a59c4     slink.obj
 0002:000199e8       ??_R3QPaintDevice@@8       004a59e8     slink.obj
 0002:000199fc       ??_R2QPaintDevice@@8       004a59fc     slink.obj
 0002:00019a04       ??_R1A@?0A@EA@QPaintDevice@@8 004a5a04     slink.obj
 0002:00019a28       ??_R4QWidget@@6BQPaintDevice@@@ 004a5a28     slink.obj
 0002:00019a40       ??_R4QAction@@6B@          004a5a40     slink.obj
 0002:00019a58       ??_R3QAction@@8            004a5a58     slink.obj
 0002:00019a6c       ??_R2QAction@@8            004a5a6c     slink.obj
 0002:00019a78       ??_R1A@?0A@EA@QAction@@8   004a5a78     slink.obj
 0002:00019a9c       ??_R4QMenuBar@@6BQObject@@@ 004a5a9c     slink.obj
 0002:00019ab4       ??_R3QMenuBar@@8           004a5ab4     slink.obj
 0002:00019ac8       ??_R2QMenuBar@@8           004a5ac8     slink.obj
 0002:00019adc       ??_R1A@?0A@EA@QMenuBar@@8  004a5adc     slink.obj
 0002:00019b00       ??_R4QMenuBar@@6BQPaintDevice@@@ 004a5b00     slink.obj
 0002:00019b18       ??_R4QStatusBar@@6BQObject@@@ 004a5b18     slink.obj
 0002:00019b30       ??_R3QStatusBar@@8         004a5b30     slink.obj
 0002:00019b44       ??_R2QStatusBar@@8         004a5b44     slink.obj
 0002:00019b58       ??_R1A@?0A@EA@QStatusBar@@8 004a5b58     slink.obj
 0002:00019b7c       ??_R4QStatusBar@@6BQPaintDevice@@@ 004a5b7c     slink.obj
 0002:00019b94       ??_R4QToolBar@@6BQObject@@@ 004a5b94     slink.obj
 0002:00019bac       ??_R3QToolBar@@8           004a5bac     slink.obj
 0002:00019bc0       ??_R2QToolBar@@8           004a5bc0     slink.obj
 0002:00019bd4       ??_R1A@?0A@EA@QToolBar@@8  004a5bd4     slink.obj
 0002:00019bf8       ??_R4QToolBar@@6BQPaintDevice@@@ 004a5bf8     slink.obj
 0002:00019c10       ??_R4QMenu@@6BQObject@@@   004a5c10     slink.obj
 0002:00019c28       ??_R3QMenu@@8              004a5c28     slink.obj
 0002:00019c3c       ??_R2QMenu@@8              004a5c3c     slink.obj
 0002:00019c50       ??_R1A@?0A@EA@QMenu@@8     004a5c50     slink.obj
 0002:00019c74       ??_R4QMenu@@6BQPaintDevice@@@ 004a5c74     slink.obj
 0002:00019c8c       ??_R4QGroupBox@@6BQObject@@@ 004a5c8c     slink.obj
 0002:00019ca4       ??_R3QGroupBox@@8          004a5ca4     slink.obj
 0002:00019cb8       ??_R2QGroupBox@@8          004a5cb8     slink.obj
 0002:00019ccc       ??_R1A@?0A@EA@QGroupBox@@8 004a5ccc     slink.obj
 0002:00019cf0       ??_R4QGroupBox@@6BQPaintDevice@@@ 004a5cf0     slink.obj
 0002:00019d08       ??_R4QSpacerItem@@6B@      004a5d08     slink.obj
 0002:00019d20       ??_R3QSpacerItem@@8        004a5d20     slink.obj
 0002:00019d34       ??_R2QSpacerItem@@8        004a5d34     slink.obj
 0002:00019d40       ??_R1A@?0A@EA@QSpacerItem@@8 004a5d40     slink.obj
 0002:00019d64       ??_R1A@?0A@EA@QLayoutItem@@8 004a5d64     slink.obj
 0002:00019d88       ??_R3QLayoutItem@@8        004a5d88     slink.obj
 0002:00019d9c       ??_R2QLayoutItem@@8        004a5d9c     slink.obj
 0002:00019da4       ??_R4QHBoxLayout@@6BQObject@@@ 004a5da4     slink.obj
 0002:00019dbc       ??_R3QHBoxLayout@@8        004a5dbc     slink.obj
 0002:00019dd0       ??_R2QHBoxLayout@@8        004a5dd0     slink.obj
 0002:00019dec       ??_R1A@?0A@EA@QHBoxLayout@@8 004a5dec     slink.obj
 0002:00019e10       ??_R1A@?0A@EA@QBoxLayout@@8 004a5e10     slink.obj
 0002:00019e34       ??_R3QBoxLayout@@8         004a5e34     slink.obj
 0002:00019e48       ??_R2QBoxLayout@@8         004a5e48     slink.obj
 0002:00019e5c       ??_R1A@?0A@EA@QLayout@@8   004a5e5c     slink.obj
 0002:00019e80       ??_R3QLayout@@8            004a5e80     slink.obj
 0002:00019e94       ??_R2QLayout@@8            004a5e94     slink.obj
 0002:00019ea4       ??_R17?0A@EA@QLayoutItem@@8 004a5ea4     slink.obj
 0002:00019ec8       ??_R4QHBoxLayout@@6BQLayoutItem@@@ 004a5ec8     slink.obj
 0002:00019ee0       ??_R4QVBoxLayout@@6BQObject@@@ 004a5ee0     slink.obj
 0002:00019ef8       ??_R3QVBoxLayout@@8        004a5ef8     slink.obj
 0002:00019f0c       ??_R2QVBoxLayout@@8        004a5f0c     slink.obj
 0002:00019f28       ??_R1A@?0A@EA@QVBoxLayout@@8 004a5f28     slink.obj
 0002:00019f4c       ??_R4QVBoxLayout@@6BQLayoutItem@@@ 004a5f4c     slink.obj
 0002:00019f64       ??_R4QListWidget@@6BQObject@@@ 004a5f64     slink.obj
 0002:00019f7c       ??_R3QListWidget@@8        004a5f7c     slink.obj
 0002:00019f90       ??_R2QListWidget@@8        004a5f90     slink.obj
 0002:00019fb8       ??_R1A@?0A@EA@QListWidget@@8 004a5fb8     slink.obj
 0002:00019fdc       ??_R1A@?0A@EA@QListView@@8 004a5fdc     slink.obj
 0002:0001a000       ??_R3QListView@@8          004a6000     slink.obj
 0002:0001a014       ??_R2QListView@@8          004a6014     slink.obj
 0002:0001a038       ??_R1A@?0A@EA@QAbstractItemView@@8 004a6038     slink.obj
 0002:0001a05c       ??_R3QAbstractItemView@@8  004a605c     slink.obj
 0002:0001a070       ??_R2QAbstractItemView@@8  004a6070     slink.obj
 0002:0001a090       ??_R1A@?0A@EA@QAbstractScrollArea@@8 004a6090     slink.obj
 0002:0001a0b4       ??_R3QAbstractScrollArea@@8 004a60b4     slink.obj
 0002:0001a0c8       ??_R2QAbstractScrollArea@@8 004a60c8     slink.obj
 0002:0001a0e4       ??_R1A@?0A@EA@QFrame@@8    004a60e4     slink.obj
 0002:0001a108       ??_R3QFrame@@8             004a6108     slink.obj
 0002:0001a11c       ??_R2QFrame@@8             004a611c     slink.obj
 0002:0001a130       ??_R4QListWidget@@6BQPaintDevice@@@ 004a6130     slink.obj
 0002:0001a148       ??_R4QListWidgetItem@@6B@  004a6148     slink.obj
 0002:0001a160       ??_R3QListWidgetItem@@8    004a6160     slink.obj
 0002:0001a174       ??_R2QListWidgetItem@@8    004a6174     slink.obj
 0002:0001a17c       ??_R1A@?0A@EA@QListWidgetItem@@8 004a617c     slink.obj
 0002:0001a1a0       ??_R4QPushButton@@6BQObject@@@ 004a61a0     slink.obj
 0002:0001a1b8       ??_R3QPushButton@@8        004a61b8     slink.obj
 0002:0001a1cc       ??_R2QPushButton@@8        004a61cc     slink.obj
 0002:0001a1e8       ??_R1A@?0A@EA@QPushButton@@8 004a61e8     slink.obj
 0002:0001a20c       ??_R1A@?0A@EA@QAbstractButton@@8 004a620c     slink.obj
 0002:0001a230       ??_R3QAbstractButton@@8    004a6230     slink.obj
 0002:0001a244       ??_R2QAbstractButton@@8    004a6244     slink.obj
 0002:0001a258       ??_R4QPushButton@@6BQPaintDevice@@@ 004a6258     slink.obj
 0002:0001a270       ??_R4QSplitter@@6BQObject@@@ 004a6270     slink.obj
 0002:0001a288       ??_R3QSplitter@@8          004a6288     slink.obj
 0002:0001a29c       ??_R2QSplitter@@8          004a629c     slink.obj
 0002:0001a2b8       ??_R1A@?0A@EA@QSplitter@@8 004a62b8     slink.obj
 0002:0001a2dc       ??_R4QSplitter@@6BQPaintDevice@@@ 004a62dc     slink.obj
 0002:0001a2f4       ??_R4QTextEdit@@6BQObject@@@ 004a62f4     slink.obj
 0002:0001a30c       ??_R3QTextEdit@@8          004a630c     slink.obj
 0002:0001a320       ??_R2QTextEdit@@8          004a6320     slink.obj
 0002:0001a340       ??_R1A@?0A@EA@QTextEdit@@8 004a6340     slink.obj
 0002:0001a364       ??_R4QTextEdit@@6BQPaintDevice@@@ 004a6364     slink.obj
 0002:0001a37c       ??_R4QTreeWidget@@6BQObject@@@ 004a637c     slink.obj
 0002:0001a394       ??_R3QTreeWidget@@8        004a6394     slink.obj
 0002:0001a3a8       ??_R2QTreeWidget@@8        004a63a8     slink.obj
 0002:0001a3d0       ??_R1A@?0A@EA@QTreeWidget@@8 004a63d0     slink.obj
 0002:0001a3f4       ??_R1A@?0A@EA@QTreeView@@8 004a63f4     slink.obj
 0002:0001a418       ??_R3QTreeView@@8          004a6418     slink.obj
 0002:0001a42c       ??_R2QTreeView@@8          004a642c     slink.obj
 0002:0001a450       ??_R4QTreeWidget@@6BQPaintDevice@@@ 004a6450     slink.obj
 0002:0001a468       ??_R4Ifabian_clientCallback@@6B@ 004a6468     slink.obj
 0002:0001a480       ??_R3Ifabian_clientCallback@@8 004a6480     slink.obj
 0002:0001a494       ??_R2Ifabian_clientCallback@@8 004a6494     slink.obj
 0002:0001a49c       ??_R1A@?0A@EA@Ifabian_clientCallback@@8 004a649c     slink.obj
 0002:0001a4c0       ??_R4IccClientCallback@@6B@ 004a64c0     slink.obj
 0002:0001a4d8       ??_R3IccClientCallback@@8  004a64d8     slink.obj
 0002:0001a4ec       ??_R2IccClientCallback@@8  004a64ec     slink.obj
 0002:0001a4f4       ??_R1A@?0A@EA@IccClientCallback@@8 004a64f4     slink.obj
 0002:0001a518       ??_R4slink@@6BQObject@@@   004a6518     slink.obj
 0002:0001a530       ??_R3slink@@8              004a6530     slink.obj
 0002:0001a544       ??_R2slink@@8              004a6544     slink.obj
 0002:0001a56c       ??_R1A@?0A@EA@slink@@8     004a656c     slink.obj
 0002:0001a590       ??_R1A@?0A@EA@QMainWindow@@8 004a6590     slink.obj
 0002:0001a5b4       ??_R3QMainWindow@@8        004a65b4     slink.obj
 0002:0001a5c8       ??_R2QMainWindow@@8        004a65c8     slink.obj
 0002:0001a5dc       ??_R1BI@?0A@EN@IccClientCallback@@8 004a65dc     slink.obj
 0002:0001a600       ??_R1BM@?0A@EN@Ifabian_clientCallback@@8 004a6600     slink.obj
 0002:0001a624       ??_R1CA@?0A@EN@ccCheck@@8  004a6624     slink.obj
 0002:0001a648       ??_R4slink@@6BQPaintDevice@@@ 004a6648     slink.obj
 0002:0001a660       ??_R4slink@@6BIccClientCallback@@@ 004a6660     slink.obj
 0002:0001a678       ??_R4slink@@6BIfabian_clientCallback@@@ 004a6678     slink.obj
 0002:0001a690       ??_R4slink@@6BccCheck@@@   004a6690     slink.obj
 0002:0001a6a8       ??_R4user@@6B@             004a66a8     user.obj
 0002:0001a6c0       ??_R3user@@8               004a66c0     user.obj
 0002:0001a6d4       ??_R2user@@8               004a66d4     user.obj
 0002:0001a6dc       ??_R1A@?0A@EA@user@@8      004a66dc     user.obj
 0002:0001a700       ??_R4QLabel@@6BQObject@@@  004a6700     userEditDialog.obj
 0002:0001a718       ??_R3QLabel@@8             004a6718     userEditDialog.obj
 0002:0001a72c       ??_R2QLabel@@8             004a672c     userEditDialog.obj
 0002:0001a748       ??_R1A@?0A@EA@QLabel@@8    004a6748     userEditDialog.obj
 0002:0001a76c       ??_R4QLabel@@6BQPaintDevice@@@ 004a676c     userEditDialog.obj
 0002:0001a784       ??_R4QTreeWidgetItem@@6B@  004a6784     userEditDialog.obj
 0002:0001a79c       ??_R4userEditDialog@@6BQObject@@@ 004a679c     userEditDialog.obj
 0002:0001a7b4       ??_R3userEditDialog@@8     004a67b4     userEditDialog.obj
 0002:0001a7c8       ??_R2userEditDialog@@8     004a67c8     userEditDialog.obj
 0002:0001a7e4       ??_R1A@?0A@EA@userEditDialog@@8 004a67e4     userEditDialog.obj
 0002:0001a808       ??_R1A@?0A@EA@QDialog@@8   004a6808     userEditDialog.obj
 0002:0001a82c       ??_R3QDialog@@8            004a682c     userEditDialog.obj
 0002:0001a840       ??_R2QDialog@@8            004a6840     userEditDialog.obj
 0002:0001a854       ??_R4userEditDialog@@6BQPaintDevice@@@ 004a6854     userEditDialog.obj
 0002:0001a86c       ??_R4QToolButton@@6BQObject@@@ 004a686c     userEditPermissionsDialog.obj
 0002:0001a884       ??_R3QToolButton@@8        004a6884     userEditPermissionsDialog.obj
 0002:0001a898       ??_R2QToolButton@@8        004a6898     userEditPermissionsDialog.obj
 0002:0001a8b4       ??_R1A@?0A@EA@QToolButton@@8 004a68b4     userEditPermissionsDialog.obj
 0002:0001a8d8       ??_R4QToolButton@@6BQPaintDevice@@@ 004a68d8     userEditPermissionsDialog.obj
 0002:0001a8f0       ??_R4QDialogButtonBox@@6BQObject@@@ 004a68f0     userEditPermissionsDialog.obj
 0002:0001a908       ??_R3QDialogButtonBox@@8   004a6908     userEditPermissionsDialog.obj
 0002:0001a91c       ??_R2QDialogButtonBox@@8   004a691c     userEditPermissionsDialog.obj
 0002:0001a930       ??_R1A@?0A@EA@QDialogButtonBox@@8 004a6930     userEditPermissionsDialog.obj
 0002:0001a954       ??_R4QDialogButtonBox@@6BQPaintDevice@@@ 004a6954     userEditPermissionsDialog.obj
 0002:0001a96c       ??_R4userEditPermissionsDialog@@6BQObject@@@ 004a696c     userEditPermissionsDialog.obj
 0002:0001a984       ??_R3userEditPermissionsDialog@@8 004a6984     userEditPermissionsDialog.obj
 0002:0001a998       ??_R2userEditPermissionsDialog@@8 004a6998     userEditPermissionsDialog.obj
 0002:0001a9b4       ??_R1A@?0A@EA@userEditPermissionsDialog@@8 004a69b4     userEditPermissionsDialog.obj
 0002:0001a9d8       ??_R4userEditPermissionsDialog@@6BQPaintDevice@@@ 004a69d8     userEditPermissionsDialog.obj
 0002:0001a9f0       ??_R4users@@6B@            004a69f0     users.obj
 0002:0001aa08       ??_R3users@@8              004a6a08     users.obj
 0002:0001aa1c       ??_R2users@@8              004a6a1c     users.obj
 0002:0001aa24       ??_R1A@?0A@EA@users@@8     004a6a24     users.obj
 0002:0001aa48       ??_R4whiteBlackListEditDialog@@6BQObject@@@ 004a6a48     whiteBlackListEditDialog.obj
 0002:0001aa60       ??_R3whiteBlackListEditDialog@@8 004a6a60     whiteBlackListEditDialog.obj
 0002:0001aa74       ??_R2whiteBlackListEditDialog@@8 004a6a74     whiteBlackListEditDialog.obj
 0002:0001aa90       ??_R1A@?0A@EA@whiteBlackListEditDialog@@8 004a6a90     whiteBlackListEditDialog.obj
 0002:0001aab4       ??_R4whiteBlackListEditDialog@@6BQPaintDevice@@@ 004a6ab4     whiteBlackListEditDialog.obj
 0002:0001aacc       ??_R4type_info@@6B@        004a6acc     MSVCRTD:ti_inst.obj
 0002:0001aae0       ??_R3type_info@@8          004a6ae0     MSVCRTD:ti_inst.obj
 0002:0001aaf0       ??_R2type_info@@8          004a6af0     MSVCRTD:ti_inst.obj
 0002:0001aaf8       ??_R1A@?0A@EA@type_info@@8 004a6af8     MSVCRTD:ti_inst.obj
 0002:0001acb4       ___rtc_iaa                 004a6cb4     MSVCRTD:initsect.obj
 0002:0001adb8       ___rtc_izz                 004a6db8     MSVCRTD:initsect.obj
 0002:0001aebc       ___rtc_taa                 004a6ebc     MSVCRTD:initsect.obj
 0002:0001afc0       ___rtc_tzz                 004a6fc0     MSVCRTD:initsect.obj
 0003:000001f2       ?g_doLogging@appGlobal@@0_NA 004b31f2     appGlobal.obj
 0003:00000564       ___security_cookie         004b3564     MSVCRTD:gs_cookie.obj
 0003:00000568       ___security_cookie_complement 004b3568     MSVCRTD:gs_cookie.obj
 0003:00000570       ___defaultmatherr          004b3570     MSVCRTD:merr.obj
 0003:00000574       ___globallocalestatus      004b3574     MSVCRTD:xthdloc.obj
 0003:00000578       ___native_dllmain_reason   004b3578     MSVCRTD:natstart.obj
 0003:00000698       ??_R0?AVcBncsVersion@@@8   004b3698     cBncsVersion.obj
 0003:000006b8       ??_R0?AVbncs_disklog@@@8   004b36b8     bncs_disklog.obj
 0003:000006d8       ??_R0?AVerror_category@std@@@8 004b36d8     ccCheck.obj
 0003:00000700       ??_R0?AV_Generic_error_category@std@@@8 004b3700     ccCheck.obj
 0003:00000734       ??_R0?AV_Iostream_error_category@std@@@8 004b3734     ccCheck.obj
 0003:00000768       ??_R0?AV_System_error_category@std@@@8 004b3768     ccCheck.obj
 0003:0000079c       ??_R0?AVccCheck@@@8        004b379c     ccCheck.obj
 0003:000007b8       ??_R0?AVccClient@@@8       004b37b8     ccClient.obj
 0003:000007d4       ??_R0?AVccConfig@@@8       004b37d4     ccConfig.obj
 0003:000007f0       ??_R0?AVsizedBuffer@@@8    004b37f0     sizedBuffer.obj
 0003:00000810       ??_R0?AVclientsRegistration@@@8 004b3810     clientsRegistration.obj
 0003:00000838       ??_R0?AVdatabaseSync@@@8   004b3838     databaseSync.obj
 0003:00000858       ??_R0?AVdecodeBNCSString@@@8 004b3858     decodeBNCSString.obj
 0003:00000880       ??_R0?AVfabianServer@@@8   004b3880     fabianServer.obj
 0003:000008a0       ??_R0?AVQTcpServer@@@8     004b38a0     fabianServer.obj
 0003:000008c0       ??_R0?AVQObject@@@8        004b38c0     fabianServer.obj
 0003:000008dc       ??_R0?AVQSslSocket@@@8     004b38dc     fabian_client.obj
 0003:000008fc       ??_R0?AVQTcpSocket@@@8     004b38fc     fabian_client.obj
 0003:0000091c       ??_R0?AVQAbstractSocket@@@8 004b391c     fabian_client.obj
 0003:00000940       ??_R0?AVQIODevice@@@8      004b3940     fabian_client.obj
 0003:0000095c       ??_R0?AVfabian_client@@@8  004b395c     fabian_client.obj
 0003:00000980       ??_R0?AVQTreeWidgetItem@@@8 004b3980     fabian_client.obj
 0003:000009a4       ??_R0?AVsingleReg@@@8      004b39a4     singleReg.obj
 0003:000009c0       ??_R0?AVQWidget@@@8        004b39c0     slink.obj
 0003:000009dc       ??_R0?AVQPaintDevice@@@8   004b39dc     slink.obj
 0003:000009fc       ??_R0?AVQAction@@@8        004b39fc     slink.obj
 0003:00000a18       ??_R0?AVQMenuBar@@@8       004b3a18     slink.obj
 0003:00000a34       ??_R0?AVQStatusBar@@@8     004b3a34     slink.obj
 0003:00000a54       ??_R0?AVQToolBar@@@8       004b3a54     slink.obj
 0003:00000a70       ??_R0?AVQMenu@@@8          004b3a70     slink.obj
 0003:00000a88       ??_R0?AVQGroupBox@@@8      004b3a88     slink.obj
 0003:00000aa4       ??_R0?AVQSpacerItem@@@8    004b3aa4     slink.obj
 0003:00000ac4       ??_R0?AVQLayoutItem@@@8    004b3ac4     slink.obj
 0003:00000ae4       ??_R0?AVQHBoxLayout@@@8    004b3ae4     slink.obj
 0003:00000b04       ??_R0?AVQBoxLayout@@@8     004b3b04     slink.obj
 0003:00000b24       ??_R0?AVQLayout@@@8        004b3b24     slink.obj
 0003:00000b40       ??_R0?AVQVBoxLayout@@@8    004b3b40     slink.obj
 0003:00000b60       ??_R0?AVQListWidget@@@8    004b3b60     slink.obj
 0003:00000b80       ??_R0?AVQListView@@@8      004b3b80     slink.obj
 0003:00000b9c       ??_R0?AVQAbstractItemView@@@8 004b3b9c     slink.obj
 0003:00000bc4       ??_R0?AVQAbstractScrollArea@@@8 004b3bc4     slink.obj
 0003:00000bec       ??_R0?AVQFrame@@@8         004b3bec     slink.obj
 0003:00000c08       ??_R0?AVQListWidgetItem@@@8 004b3c08     slink.obj
 0003:00000c2c       ??_R0?AVQPushButton@@@8    004b3c2c     slink.obj
 0003:00000c4c       ??_R0?AVQAbstractButton@@@8 004b3c4c     slink.obj
 0003:00000c70       ??_R0?AVQSplitter@@@8      004b3c70     slink.obj
 0003:00000c8c       ??_R0?AVQTextEdit@@@8      004b3c8c     slink.obj
 0003:00000ca8       ??_R0?AVQTreeWidget@@@8    004b3ca8     slink.obj
 0003:00000cc8       ??_R0?AVQTreeView@@@8      004b3cc8     slink.obj
 0003:00000ce4       ??_R0?AVIfabian_clientCallback@@@8 004b3ce4     slink.obj
 0003:00000d10       ??_R0?AVIccClientCallback@@@8 004b3d10     slink.obj
 0003:00000d38       ??_R0?AVslink@@@8          004b3d38     slink.obj
 0003:00000d50       ??_R0?AVQMainWindow@@@8    004b3d50     slink.obj
 0003:00000d70       ??_R0?AVuser@@@8           004b3d70     user.obj
 0003:00000d88       ??_R0?AVQLabel@@@8         004b3d88     userEditDialog.obj
 0003:00000da4       ??_R0?AVuserEditDialog@@@8 004b3da4     userEditDialog.obj
 0003:00000dc8       ??_R0?AVQDialog@@@8        004b3dc8     userEditDialog.obj
 0003:00000de4       ??_R0?AVQToolButton@@@8    004b3de4     userEditPermissionsDialog.obj
 0003:00000e04       ??_R0?AVQDialogButtonBox@@@8 004b3e04     userEditPermissionsDialog.obj
 0003:00000e2c       ??_R0?AVuserEditPermissionsDialog@@@8 004b3e2c     userEditPermissionsDialog.obj
 0003:00000e5c       ??_R0?AVusers@@@8          004b3e5c     users.obj
 0003:00000e74       ??_R0?AVwhiteBlackListEditDialog@@@8 004b3e74     whiteBlackListEditDialog.obj
 0003:00000ea4       ??_R0?AVtype_info@@@8      004b3ea4     MSVCRTD:ti_inst.obj
 0003:00000fec       ?_Generic_object@?$_Error_objects@H@std@@2V_Generic_error_category@2@A 004b3fec     ccCheck.obj
 0003:00000ff0       ?_Iostream_object@?$_Error_objects@H@std@@2V_Iostream_error_category@2@A 004b3ff0     ccCheck.obj
 0003:00000ff4       ?_System_object@?$_Error_objects@H@std@@2V_System_error_category@2@A 004b3ff4     ccCheck.obj
 0003:00000ff8       ?id@?$num_put@DV?$back_insert_iterator@V?$basic_string@DU?$char_traits@D@std@@V?$allocator@D@2@@std@@@std@@@std@@2V0locale@2@A 004b3ff8     ccCheck.obj
 0003:00000ffc       ?id@?$num_put@_WV?$back_insert_iterator@V?$basic_string@_WU?$char_traits@_W@std@@V?$allocator@_W@2@@std@@@std@@@std@@2V0locale@2@A 004b3ffc     ccCheck.obj
 0003:00001008       ?m_textEdit@appGlobal@@0PAVQTextEdit@@A 004b4008     appGlobal.obj
 0003:0000100c       ?g_disklog@appGlobal@@0PAVbncs_disklog@@A 004b400c     appGlobal.obj
 0003:00001014       ?m_dataPath@appGlobal@@0VQString@@A 004b4014     appGlobal.obj
 0003:00001018       ?m_profile@appGlobal@@0VQString@@A 004b4018     appGlobal.obj
 0003:00001028       ?m_obj@databaseSync@@0V?$map@IPAVdatabaseSync@@U?$less@I@std@@V?$allocator@U?$pair@$$CBIPAVdatabaseSync@@@std@@@3@@std@@A 004b4028     databaseSync.obj
 0003:00001044       ?staticMetaObject@fabianServer@@2UQMetaObject@@B 004b4044     moc_fabianServer.obj
 0003:00001068       ?staticMetaObject@fabian_client@@2UQMetaObject@@B 004b4068     moc_fabian_client.obj
 0003:00001088       ?metatype_id@?1??qt_metatype_id@?$QMetaTypeId@W4SocketError@QAbstractSocket@@@@SAHXZ@4V?$QBasicAtomicInteger@H@@A 004b4088     moc_fabian_client.obj
 0003:0000108c       ?metatype_id@?1??qt_metatype_id@?$QMetaTypeId@V?$QList@VQSslError@@@@@@SAHXZ@4V?$QBasicAtomicInteger@H@@A 004b408c     moc_fabian_client.obj
 0003:00001094       ?staticMetaObject@slink@@2UQMetaObject@@B 004b4094     moc_slink.obj
 0003:000010b8       ?staticMetaObject@userEditDialog@@2UQMetaObject@@B 004b40b8     moc_userEditDialog.obj
 0003:000010dc       ?staticMetaObject@userEditPermissionsDialog@@2UQMetaObject@@B 004b40dc     moc_userEditPermissionsDialog.obj
 0003:000010f9       ?dummy@?A0x3ad23e3c@@3Uinitializer@1@A 004b40f9     qrc_slink.obj
 0003:00001114       ?m_users@users@@0V?$map@VQString@@PAVuser@@U?$less@VQString@@@std@@V?$allocator@U?$pair@$$CBVQString@@PAVuser@@@std@@@4@@std@@A 004b4114     users.obj
 0003:0000113c       ?pHtmlHelpW@@3P6GPAUHWND__@@PAU1@PBGIK@ZA 004b413c     htmlhelp:init.obj
 0003:00001140       ?pHtmlHelpA@@3P6GPAUHWND__@@PAU1@PBDIK@ZA 004b4140     htmlhelp:init.obj
 0003:000016c0       __commode                  004b46c0     MSVCRTD:xncommod.obj
 0003:000016c4       __dowildcard               004b46c4     MSVCRTD:wildcard.obj
 0003:000016c8       __newmode                  004b46c8     MSVCRTD:_newmode.obj
 0003:000016cc       __fmode                    004b46cc     MSVCRTD:xtxtmode.obj
 0003:000016d4       ___native_startup_lock     004b46d4     <common>
 0003:000016e4       ___native_startup_state    004b46e4     <common>
 0003:000016e8       ___dyn_tls_init_callback   004b46e8     <common>
 0003:000016f8       ___onexitend               004b46f8     <common>
 0003:00001708       ___onexitbegin             004b4708     <common>
 0004:00000000       __imp__RegQueryValueExA@24 004b5000     advapi32:ADVAPI32.dll
 0004:00000004       __imp__RegOpenKeyExA@20    004b5004     advapi32:ADVAPI32.dll
 0004:00000008       __imp__RegCloseKey@4       004b5008     advapi32:ADVAPI32.dll
 0004:0000000c       \177ADVAPI32_NULL_THUNK_DATA 004b500c     advapi32:ADVAPI32.dll
 0004:00000038       __imp__BNCS32TxMessage     004b5038     bncsif32:BNCSIF32.dll
 0004:0000003c       __imp__BNCS32RxMessage     004b503c     bncsif32:BNCSIF32.dll
 0004:00000040       \177BNCSIF32_NULL_THUNK_DATA 004b5040     bncsif32:BNCSIF32.dll
 0004:0000006c       __imp__SetEndOfFile@4      004b506c     kernel32:KERNEL32.dll
 0004:00000070       __imp__GetCommandLineW@0   004b5070     kernel32:KERNEL32.dll
 0004:00000074       __imp__LocalFree@4         004b5074     kernel32:KERNEL32.dll
 0004:00000078       __imp__WideCharToMultiByte@32 004b5078     kernel32:KERNEL32.dll
 0004:0000007c       __imp__lstrcpynA@12        004b507c     kernel32:KERNEL32.dll
 0004:00000080       __imp__CreateFileA@28      004b5080     kernel32:KERNEL32.dll
 0004:00000084       __imp__SetFilePointer@16   004b5084     kernel32:KERNEL32.dll
 0004:00000088       __imp__WriteFile@20        004b5088     kernel32:KERNEL32.dll
 0004:0000008c       __imp__OutputDebugStringA@4 004b508c     kernel32:KERNEL32.dll
 0004:00000090       __imp__CloseHandle@4       004b5090     kernel32:KERNEL32.dll
 0004:00000094       __imp__GetLastError@0      004b5094     kernel32:KERNEL32.dll
 0004:00000098       __imp__GetSystemTime@4     004b5098     kernel32:KERNEL32.dll
 0004:0000009c       __imp__EncodePointer@4     004b509c     kernel32:KERNEL32.dll
 0004:000000a0       __imp__DecodePointer@4     004b50a0     kernel32:KERNEL32.dll
 0004:000000a4       __imp__IsDebuggerPresent@0 004b50a4     kernel32:KERNEL32.dll
 0004:000000a8       __imp__IsProcessorFeaturePresent@4 004b50a8     kernel32:KERNEL32.dll
 0004:000000ac       __imp__QueryPerformanceCounter@4 004b50ac     kernel32:KERNEL32.dll
 0004:000000b0       __imp__GetCurrentProcessId@0 004b50b0     kernel32:KERNEL32.dll
 0004:000000b4       __imp__GetCurrentThreadId@0 004b50b4     kernel32:KERNEL32.dll
 0004:000000b8       __imp__GetSystemTimeAsFileTime@4 004b50b8     kernel32:KERNEL32.dll
 0004:000000bc       __imp__GetModuleHandleA@4  004b50bc     kernel32:KERNEL32.dll
 0004:000000c0       __imp__GetModuleFileNameA@12 004b50c0     kernel32:KERNEL32.dll
 0004:000000c4       __imp__GetWindowsDirectoryA@8 004b50c4     kernel32:KERNEL32.dll
 0004:000000c8       __imp__WritePrivateProfileStringA@16 004b50c8     kernel32:KERNEL32.dll
 0004:000000cc       __imp__GetPrivateProfileStringA@24 004b50cc     kernel32:KERNEL32.dll
 0004:000000d0       __imp__GetPrivateProfileIntA@16 004b50d0     kernel32:KERNEL32.dll
 0004:000000d4       __imp__LoadLibraryA@4      004b50d4     kernel32:KERNEL32.dll
 0004:000000d8       __imp__GetProcAddress@8    004b50d8     kernel32:KERNEL32.dll
 0004:000000dc       __imp__FreeLibrary@4       004b50dc     kernel32:KERNEL32.dll
 0004:000000e0       __imp__GetLocalTime@4      004b50e0     kernel32:KERNEL32.dll
 0004:000000e4       \177KERNEL32_NULL_THUNK_DATA 004b50e4     kernel32:KERNEL32.dll
 0004:00000128       __imp_?_Getpfirst@_Container_base12@std@@QBEPAPAU_Iterator_base12@2@XZ 004b5128     msvcprtd:MSVCP120D.dll
 0004:0000012c       __imp_??1_Lockit@std@@QAE@XZ 004b512c     msvcprtd:MSVCP120D.dll
 0004:00000130       __imp_??0_Lockit@std@@QAE@H@Z 004b5130     msvcprtd:MSVCP120D.dll
 0004:00000134       __imp_?_Winerror_map@std@@YAPBDH@Z 004b5134     msvcprtd:MSVCP120D.dll
 0004:00000138       __imp_?_Syserror_map@std@@YAPBDH@Z 004b5138     msvcprtd:MSVCP120D.dll
 0004:0000013c       __imp_?_Xlength_error@std@@YAXPBD@Z 004b513c     msvcprtd:MSVCP120D.dll
 0004:00000140       __imp_?_Xbad_alloc@std@@YAXXZ 004b5140     msvcprtd:MSVCP120D.dll
 0004:00000144       __imp_?_Debug_message@std@@YAXPB_W0I@Z 004b5144     msvcprtd:MSVCP120D.dll
 0004:00000148       __imp_??0_Container_base12@std@@QAE@XZ 004b5148     msvcprtd:MSVCP120D.dll
 0004:0000014c       __imp_??1_Container_base12@std@@QAE@XZ 004b514c     msvcprtd:MSVCP120D.dll
 0004:00000150       __imp_??0id@locale@std@@QAE@I@Z 004b5150     msvcprtd:MSVCP120D.dll
 0004:00000154       __imp_?_Xout_of_range@std@@YAXPBD@Z 004b5154     msvcprtd:MSVCP120D.dll
 0004:00000158       __imp_?_Orphan_all@_Container_base12@std@@QAEXXZ 004b5158     msvcprtd:MSVCP120D.dll
 0004:0000015c       \177MSVCP120D_NULL_THUNK_DATA 004b515c     msvcprtd:MSVCP120D.dll
 0004:00000190       __imp_??2@YAPAXI@Z         004b5190     MSVCRTD:MSVCR120D.dll
 0004:00000194       __imp__strcpy              004b5194     MSVCRTD:MSVCR120D.dll
 0004:00000198       __imp__strlen              004b5198     MSVCRTD:MSVCR120D.dll
 0004:0000019c       __imp__strpbrk             004b519c     MSVCRTD:MSVCR120D.dll
 0004:000001a0       __imp__free                004b51a0     MSVCRTD:MSVCR120D.dll
 0004:000001a4       __imp__malloc              004b51a4     MSVCRTD:MSVCR120D.dll
 0004:000001a8       __imp__strcat              004b51a8     MSVCRTD:MSVCR120D.dll
 0004:000001ac       __imp__strncpy             004b51ac     MSVCRTD:MSVCR120D.dll
 0004:000001b0       __imp__strtok              004b51b0     MSVCRTD:MSVCR120D.dll
 0004:000001b4       __imp__getenv              004b51b4     MSVCRTD:MSVCR120D.dll
 0004:000001b8       __imp___localtime64        004b51b8     MSVCRTD:MSVCR120D.dll
 0004:000001bc       __imp___time64             004b51bc     MSVCRTD:MSVCR120D.dll
 0004:000001c0       __imp__sprintf             004b51c0     MSVCRTD:MSVCR120D.dll
 0004:000001c4       __imp___mkdir              004b51c4     MSVCRTD:MSVCR120D.dll
 0004:000001c8       __imp___purecall           004b51c8     MSVCRTD:MSVCR120D.dll
 0004:000001cc       __imp__memcpy              004b51cc     MSVCRTD:MSVCR120D.dll
 0004:000001d0       __imp__memmove             004b51d0     MSVCRTD:MSVCR120D.dll
 0004:000001d4       __imp___hypot              004b51d4     MSVCRTD:MSVCR120D.dll
 0004:000001d8       __imp__sprintf_s           004b51d8     MSVCRTD:MSVCR120D.dll
 0004:000001dc       __imp___CxxThrowException@8 004b51dc     MSVCRTD:MSVCR120D.dll
 0004:000001e0       __imp____CxxFrameHandler3  004b51e0     MSVCRTD:MSVCR120D.dll
 0004:000001e4       __imp___invalid_parameter  004b51e4     MSVCRTD:MSVCR120D.dll
 0004:000001e8       __imp__memset              004b51e8     MSVCRTD:MSVCR120D.dll
 0004:000001ec       __imp__strcmp              004b51ec     MSVCRTD:MSVCR120D.dll
 0004:000001f0       __imp__atoi                004b51f0     MSVCRTD:MSVCR120D.dll
 0004:000001f4       __imp_??_V@YAXPAX@Z        004b51f4     MSVCRTD:MSVCR120D.dll
 0004:000001f8       __imp_??_U@YAPAXI@Z        004b51f8     MSVCRTD:MSVCR120D.dll
 0004:000001fc       __imp___CrtDbgReportW      004b51fc     MSVCRTD:MSVCR120D.dll
 0004:00000200       __imp__tolower             004b5200     MSVCRTD:MSVCR120D.dll
 0004:00000204       __imp__memchr              004b5204     MSVCRTD:MSVCR120D.dll
 0004:00000208       __imp__memcmp              004b5208     MSVCRTD:MSVCR120D.dll
 0004:0000020c       __imp__strchr              004b520c     MSVCRTD:MSVCR120D.dll
 0004:00000210       __imp___stricmp            004b5210     MSVCRTD:MSVCR120D.dll
 0004:00000210       __imp__stricmp             004b5210     MSVCRTD:MSVCR120D.dll
 0004:00000214       __imp__fclose              004b5214     MSVCRTD:MSVCR120D.dll
 0004:00000218       __imp__fgets               004b5218     MSVCRTD:MSVCR120D.dll
 0004:0000021c       __imp__fopen               004b521c     MSVCRTD:MSVCR120D.dll
 0004:00000220       __imp__fprintf             004b5220     MSVCRTD:MSVCR120D.dll
 0004:00000224       __imp__fputs               004b5224     MSVCRTD:MSVCR120D.dll
 0004:00000228       __imp__remove              004b5228     MSVCRTD:MSVCR120D.dll
 0004:0000022c       __imp__rename              004b522c     MSVCRTD:MSVCR120D.dll
 0004:00000230       __imp__strtoul             004b5230     MSVCRTD:MSVCR120D.dll
 0004:00000234       __imp__sscanf              004b5234     MSVCRTD:MSVCR120D.dll
 0004:00000238       __imp_??1type_info@@UAE@XZ 004b5238     MSVCRTD:MSVCR120D.dll
 0004:0000023c       __imp___lock               004b523c     MSVCRTD:MSVCR120D.dll
 0004:00000240       __imp___unlock             004b5240     MSVCRTD:MSVCR120D.dll
 0004:00000244       __imp___calloc_dbg         004b5244     MSVCRTD:MSVCR120D.dll
 0004:00000248       __imp____dllonexit         004b5248     MSVCRTD:MSVCR120D.dll
 0004:0000024c       __imp___onexit             004b524c     MSVCRTD:MSVCR120D.dll
 0004:00000250       __imp___XcptFilter         004b5250     MSVCRTD:MSVCR120D.dll
 0004:00000254       __imp____crtGetShowWindowMode 004b5254     MSVCRTD:MSVCR120D.dll
 0004:00000258       __imp___amsg_exit          004b5258     MSVCRTD:MSVCR120D.dll
 0004:0000025c       __imp____getmainargs       004b525c     MSVCRTD:MSVCR120D.dll
 0004:00000260       __imp____set_app_type      004b5260     MSVCRTD:MSVCR120D.dll
 0004:00000264       __imp___CrtSetCheckCount   004b5264     MSVCRTD:MSVCR120D.dll
 0004:00000268       __imp__exit                004b5268     MSVCRTD:MSVCR120D.dll
 0004:0000026c       __imp___exit               004b526c     MSVCRTD:MSVCR120D.dll
 0004:00000270       __imp___cexit              004b5270     MSVCRTD:MSVCR120D.dll
 0004:00000274       __imp___ismbblead          004b5274     MSVCRTD:MSVCR120D.dll
 0004:00000278       __imp___configthreadlocale 004b5278     MSVCRTD:MSVCR120D.dll
 0004:0000027c       __imp____setusermatherr    004b527c     MSVCRTD:MSVCR120D.dll
 0004:00000280       __imp___initterm_e         004b5280     MSVCRTD:MSVCR120D.dll
 0004:00000284       __imp___initterm           004b5284     MSVCRTD:MSVCR120D.dll
 0004:00000288       __imp___acmdln             004b5288     MSVCRTD:MSVCR120D.dll
 0004:0000028c       __imp___fmode              004b528c     MSVCRTD:MSVCR120D.dll
 0004:00000290       __imp___commode            004b5290     MSVCRTD:MSVCR120D.dll
 0004:00000294       __imp___crt_debugger_hook  004b5294     MSVCRTD:MSVCR120D.dll
 0004:00000298       __imp____crtUnhandledException 004b5298     MSVCRTD:MSVCR120D.dll
 0004:0000029c       __imp____crtTerminateProcess 004b529c     MSVCRTD:MSVCR120D.dll
 0004:000002a0       __imp_?terminate@@YAXXZ    004b52a0     MSVCRTD:MSVCR120D.dll
 0004:000002a4       __imp___except_handler4_common 004b52a4     MSVCRTD:MSVCR120D.dll
 0004:000002a8       __imp____crtSetUnhandledExceptionFilter 004b52a8     MSVCRTD:MSVCR120D.dll
 0004:000002ac       __imp___invoke_watson      004b52ac     MSVCRTD:MSVCR120D.dll
 0004:000002b0       __imp___controlfp_s        004b52b0     MSVCRTD:MSVCR120D.dll
 0004:000002b4       __imp_??3@YAXPAX@Z         004b52b4     MSVCRTD:MSVCR120D.dll
 0004:000002b8       \177MSVCR120D_NULL_THUNK_DATA 004b52b8     MSVCRTD:MSVCR120D.dll
 0004:0000031c       __imp_?translate@QCoreApplication@@SA?AVQString@@PBD00H@Z 004b531c     Qt5Cored:Qt5Cored.dll
 0004:00000320       __imp_??6QDebug@@QAEAAV0@H@Z 004b5320     Qt5Cored:Qt5Cored.dll
 0004:00000324       __imp_??6QDebug@@QAEAAV0@I@Z 004b5324     Qt5Cored:Qt5Cored.dll
 0004:00000328       __imp_??0QCryptographicHash@@QAE@W4Algorithm@0@@Z 004b5328     Qt5Cored:Qt5Cored.dll
 0004:0000032c       __imp_??1QCryptographicHash@@QAE@XZ 004b532c     Qt5Cored:Qt5Cored.dll
 0004:00000330       __imp_?addData@QCryptographicHash@@QAEXPBDH@Z 004b5330     Qt5Cored:Qt5Cored.dll
 0004:00000334       __imp_?result@QCryptographicHash@@QBE?AVQByteArray@@XZ 004b5334     Qt5Cored:Qt5Cored.dll
 0004:00000338       __imp_?arguments@QCoreApplication@@SA?AVQStringList@@XZ 004b5338     Qt5Cored:Qt5Cored.dll
 0004:0000033c       __imp_?simplified@QString@@QBE?AV1@XZ 004b533c     Qt5Cored:Qt5Cored.dll
 0004:00000340       __imp_?contains@QString@@QBE_NABV1@W4CaseSensitivity@Qt@@@Z 004b5340     Qt5Cored:Qt5Cored.dll
 0004:00000344       __imp_?fromStdString@QString@@SA?AV1@ABV?$basic_string@DU?$char_traits@D@std@@V?$allocator@D@2@@std@@@Z 004b5344     Qt5Cored:Qt5Cored.dll
 0004:00000348       __imp_??YQString@@QAEAAV0@PBD@Z 004b5348     Qt5Cored:Qt5Cored.dll
 0004:0000034c       __imp_??1QByteArray@@QAE@XZ 004b534c     Qt5Cored:Qt5Cored.dll
 0004:00000350       __imp_??BQByteArray@@QBEPBDXZ 004b5350     Qt5Cored:Qt5Cored.dll
 0004:00000354       __imp_??0QRect@@QAE@HHHH@Z 004b5354     Qt5Cored:Qt5Cored.dll
 0004:00000358       __imp_??0QSize@@QAE@HH@Z   004b5358     Qt5Cored:Qt5Cored.dll
 0004:0000035c       __imp_?killTimer@QObject@@QAEXH@Z 004b535c     Qt5Cored:Qt5Cored.dll
 0004:00000360       __imp_?setObjectName@QObject@@QAEXABVQString@@@Z 004b5360     Qt5Cored:Qt5Cored.dll
 0004:00000364       __imp_?objectName@QObject@@QBE?AVQString@@XZ 004b5364     Qt5Cored:Qt5Cored.dll
 0004:00000368       __imp_??0QString@@QAE@UQStringDataPtr@@@Z 004b5368     Qt5Cored:Qt5Cored.dll
 0004:0000036c       __imp_??9QString@@QBE_NPBD@Z 004b536c     Qt5Cored:Qt5Cored.dll
 0004:00000370       __imp_??M@YA_NABVQString@@0@Z 004b5370     Qt5Cored:Qt5Cored.dll
 0004:00000374       __imp_?split@QString@@QBE?AVQStringList@@ABV1@W4SplitBehavior@1@W4CaseSensitivity@Qt@@@Z 004b5374     Qt5Cored:Qt5Cored.dll
 0004:00000378       __imp_?replace@QString@@QAEAAV1@ABV1@0W4CaseSensitivity@Qt@@@Z 004b5378     Qt5Cored:Qt5Cored.dll
 0004:0000037c       __imp_?arg@QString@@QBE?AV1@DHVQChar@@@Z 004b537c     Qt5Cored:Qt5Cored.dll
 0004:00000380       __imp_?isEmpty@QString@@QBE_NXZ 004b5380     Qt5Cored:Qt5Cored.dll
 0004:00000384       __imp_?toHex@QByteArray@@QBE?AV1@XZ 004b5384     Qt5Cored:Qt5Cored.dll
 0004:00000388       __imp_?data@QByteArray@@QAEPADXZ 004b5388     Qt5Cored:Qt5Cored.dll
 0004:0000038c       __imp_??0QChar@@QAE@D@Z    004b538c     Qt5Cored:Qt5Cored.dll
 0004:00000390       __imp_?connectSlotsByName@QMetaObject@@SAXPAVQObject@@@Z 004b5390     Qt5Cored:Qt5Cored.dll
 0004:00000394       __imp_?qt_assert@@YAXPBD0H@Z 004b5394     Qt5Cored:Qt5Cored.dll
 0004:00000398       __imp_?setLibraryPaths@QCoreApplication@@SAXABVQStringList@@@Z 004b5398     Qt5Cored:Qt5Cored.dll
 0004:0000039c       __imp_?staticMetaObject@QObject@@2UQMetaObject@@B 004b539c     Qt5Cored:Qt5Cored.dll
 0004:000003a0       __imp_?qt_metacall@QObject@@UAEHW4Call@QMetaObject@@HPAPAX@Z 004b53a0     Qt5Cored:Qt5Cored.dll
 0004:000003a4       __imp_?qt_metacast@QObject@@UAEPAXPBD@Z 004b53a4     Qt5Cored:Qt5Cored.dll
 0004:000003a8       __imp_?registerNormalizedTypedef@QMetaType@@SAHABVQByteArray@@H@Z 004b53a8     Qt5Cored:Qt5Cored.dll
 0004:000003ac       __imp_?registerNormalizedType@QMetaType@@SAHABVQByteArray@@P6AXPAX@ZP6APAX1PBX@ZHV?$QFlags@W4TypeFlag@QMetaType@@@@PBUQMetaObject@@@Z 004b53ac     Qt5Cored:Qt5Cored.dll
 0004:000003b0       __imp_?constData@QByteArray@@QBEPBDXZ 004b53b0     Qt5Cored:Qt5Cored.dll
 0004:000003b4       __imp_?size@QByteArray@@QBEHXZ 004b53b4     Qt5Cored:Qt5Cored.dll
 0004:000003b8       __imp_?activate@QMetaObject@@SAXPAVQObject@@PBU1@HPAPAX@Z 004b53b8     Qt5Cored:Qt5Cored.dll
 0004:000003bc       __imp_?normalizedType@QMetaObject@@SA?AVQByteArray@@PBD@Z 004b53bc     Qt5Cored:Qt5Cored.dll
 0004:000003c0       __imp_?dynamicMetaObject@QObjectData@@QBEPAUQMetaObject@@XZ 004b53c0     Qt5Cored:Qt5Cored.dll
 0004:000003c4       __imp_?shared_null@QListData@@2UData@1@B 004b53c4     Qt5Cored:Qt5Cored.dll
 0004:000003c8       __imp_?size@QIODevice@@UBE_JXZ 004b53c8     Qt5Cored:Qt5Cored.dll
 0004:000003cc       __imp_?seek@QIODevice@@UAE_N_J@Z 004b53cc     Qt5Cored:Qt5Cored.dll
 0004:000003d0       __imp_?reset@QIODevice@@UAE_NXZ 004b53d0     Qt5Cored:Qt5Cored.dll
 0004:000003d4       __imp_?pos@QIODevice@@UBE_JXZ 004b53d4     Qt5Cored:Qt5Cored.dll
 0004:000003d8       __imp_?open@QIODevice@@UAE_NV?$QFlags@W4OpenModeFlag@QIODevice@@@@@Z 004b53d8     Qt5Cored:Qt5Cored.dll
 0004:000003dc       __imp_?open@QFile@@UAE_NV?$QFlags@W4OpenModeFlag@QIODevice@@@@@Z 004b53dc     Qt5Cored:Qt5Cored.dll
 0004:000003e0       __imp_?fileName@QFile@@UBE?AVQString@@XZ 004b53e0     Qt5Cored:Qt5Cored.dll
 0004:000003e4       __imp_??1QFile@@UAE@XZ     004b53e4     Qt5Cored:Qt5Cored.dll
 0004:000003e8       __imp_??0QFile@@QAE@ABVQString@@@Z 004b53e8     Qt5Cored:Qt5Cored.dll
 0004:000003ec       __imp_?close@QFileDevice@@UAEXXZ 004b53ec     Qt5Cored:Qt5Cored.dll
 0004:000003f0       __imp_?timerId@QTimerEvent@@QBEHXZ 004b53f0     Qt5Cored:Qt5Cored.dll
 0004:000003f4       __imp_??6QDebug@@QAEAAV0@ABVQString@@@Z 004b53f4     Qt5Cored:Qt5Cored.dll
 0004:000003f8       __imp_??6QDebug@@QAEAAV0@PBD@Z 004b53f8     Qt5Cored:Qt5Cored.dll
 0004:000003fc       __imp_??1QDebug@@QAE@XZ    004b53fc     Qt5Cored:Qt5Cored.dll
 0004:00000400       __imp_??0QVariant@@QAE@_N@Z 004b5400     Qt5Cored:Qt5Cored.dll
 0004:00000404       __imp_??1QVariant@@QAE@XZ  004b5404     Qt5Cored:Qt5Cored.dll
 0004:00000408       __imp_?write@QIODevice@@QAE_JABVQByteArray@@@Z 004b5408     Qt5Cored:Qt5Cored.dll
 0004:0000040c       __imp_?write@QIODevice@@QAE_JPBD@Z 004b540c     Qt5Cored:Qt5Cored.dll
 0004:00000410       __imp_?write@QIODevice@@QAE_JPBD_J@Z 004b5410     Qt5Cored:Qt5Cored.dll
 0004:00000414       __imp_?read@QIODevice@@QAE_JPAD_J@Z 004b5414     Qt5Cored:Qt5Cored.dll
 0004:00000418       __imp_?startTimer@QObject@@QAEHHW4TimerType@Qt@@@Z 004b5418     Qt5Cored:Qt5Cored.dll
 0004:0000041c       __imp_??1QObject@@UAE@XZ   004b541c     Qt5Cored:Qt5Cored.dll
 0004:00000420       __imp_??0QObject@@QAE@PAV0@@Z 004b5420     Qt5Cored:Qt5Cored.dll
 0004:00000424       __imp_?QStringList_join@QtPrivate@@YA?AVQString@@PBVQStringList@@PBVQChar@@H@Z 004b5424     Qt5Cored:Qt5Cored.dll
 0004:00000428       __imp_?append@QListData@@QAEPAPAXXZ 004b5428     Qt5Cored:Qt5Cored.dll
 0004:0000042c       __imp_?detach_grow@QListData@@QAEPAUData@1@PAHH@Z 004b542c     Qt5Cored:Qt5Cored.dll
 0004:00000430       __imp_?toLatin1@QCharRef@@QBEDXZ 004b5430     Qt5Cored:Qt5Cored.dll
 0004:00000434       __imp_??BQCharRef@@QBE?AVQChar@@XZ 004b5434     Qt5Cored:Qt5Cored.dll
 0004:00000438       __imp_?toStdString@QString@@QBE?AV?$basic_string@DU?$char_traits@D@std@@V?$allocator@D@2@@std@@XZ 004b5438     Qt5Cored:Qt5Cored.dll
 0004:0000043c       __imp_??8QString@@QBE_NPBD@Z 004b543c     Qt5Cored:Qt5Cored.dll
 0004:00000440       __imp_?toLocal8Bit@QString@@QBE?AVQByteArray@@XZ 004b5440     Qt5Cored:Qt5Cored.dll
 0004:00000444       __imp_?append@QString@@QAEAAV1@ABV1@@Z 004b5444     Qt5Cored:Qt5Cored.dll
 0004:00000448       __imp_?toLower@QString@@QBE?AV1@XZ 004b5448     Qt5Cored:Qt5Cored.dll
 0004:0000044c       __imp_?startsWith@QString@@QBE_NABV1@W4CaseSensitivity@Qt@@@Z 004b544c     Qt5Cored:Qt5Cored.dll
 0004:00000450       __imp_?right@QString@@QBE?AV1@H@Z 004b5450     Qt5Cored:Qt5Cored.dll
 0004:00000454       __imp_?arg@QString@@QBE?AV1@VQChar@@H0@Z 004b5454     Qt5Cored:Qt5Cored.dll
 0004:00000458       __imp_?arg@QString@@QBE?AV1@GHHVQChar@@@Z 004b5458     Qt5Cored:Qt5Cored.dll
 0004:0000045c       __imp_?arg@QString@@QBE?AV1@_KHHVQChar@@@Z 004b545c     Qt5Cored:Qt5Cored.dll
 0004:00000460       __imp_??AQString@@QAE?AVQCharRef@@H@Z 004b5460     Qt5Cored:Qt5Cored.dll
 0004:00000464       __imp_?constData@QString@@QBEPBVQChar@@XZ 004b5464     Qt5Cored:Qt5Cored.dll
 0004:00000468       __imp_??0QByteArray@@QAE@XZ 004b5468     Qt5Cored:Qt5Cored.dll
 0004:0000046c       __imp_?debug@QMessageLogger@@QBE?AVQDebug@@XZ 004b546c     Qt5Cored:Qt5Cored.dll
 0004:00000470       __imp_?timerEvent@QObject@@MAEXPAVQTimerEvent@@@Z 004b5470     Qt5Cored:Qt5Cored.dll
 0004:00000474       __imp_?eventFilter@QObject@@UAE_NPAV1@PAVQEvent@@@Z 004b5474     Qt5Cored:Qt5Cored.dll
 0004:00000478       __imp_?toInt@QString@@QBEHPA_NH@Z 004b5478     Qt5Cored:Qt5Cored.dll
 0004:0000047c       __imp_?event@QObject@@UAE_NPAVQEvent@@@Z 004b547c     Qt5Cored:Qt5Cored.dll
 0004:00000480       __imp_??0QString@@QAE@XZ   004b5480     Qt5Cored:Qt5Cored.dll
 0004:00000484       __imp_??0QString@@QAE@ABV0@@Z 004b5484     Qt5Cored:Qt5Cored.dll
 0004:00000488       __imp_??1QString@@QAE@XZ   004b5488     Qt5Cored:Qt5Cored.dll
 0004:0000048c       __imp_??4QString@@QAEAAV0@ABV0@@Z 004b548c     Qt5Cored:Qt5Cored.dll
 0004:00000490       __imp_??0QString@@QAE@$$QAV0@@Z 004b5490     Qt5Cored:Qt5Cored.dll
 0004:00000494       __imp_??4QString@@QAEAAV0@$$QAV0@@Z 004b5494     Qt5Cored:Qt5Cored.dll
 0004:00000498       __imp_?length@QString@@QBEHXZ 004b5498     Qt5Cored:Qt5Cored.dll
 0004:0000049c       __imp_?arg@QString@@QBE?AV1@ABV1@HVQChar@@@Z 004b549c     Qt5Cored:Qt5Cored.dll
 0004:000004a0       __imp_??YQString@@QAEAAV0@ABV0@@Z 004b54a0     Qt5Cored:Qt5Cored.dll
 0004:000004a4       __imp_?toLatin1@QString@@QBE?AVQByteArray@@XZ 004b54a4     Qt5Cored:Qt5Cored.dll
 0004:000004a8       __imp_?fromUtf8@QString@@SA?AV1@PBDH@Z 004b54a8     Qt5Cored:Qt5Cored.dll
 0004:000004ac       __imp_??0QString@@QAE@PBD@Z 004b54ac     Qt5Cored:Qt5Cored.dll
 0004:000004b0       __imp_??4QString@@QAEAAV0@PBD@Z 004b54b0     Qt5Cored:Qt5Cored.dll
 0004:000004b4       __imp_??1QDateTime@@QAE@XZ 004b54b4     Qt5Cored:Qt5Cored.dll
 0004:000004b8       __imp_?toString@QDateTime@@QBE?AVQString@@ABV2@@Z 004b54b8     Qt5Cored:Qt5Cored.dll
 0004:000004bc       __imp_?currentDateTime@QDateTime@@SA?AV1@XZ 004b54bc     Qt5Cored:Qt5Cored.dll
 0004:000004c0       __imp_??0QDir@@QAE@ABVQString@@@Z 004b54c0     Qt5Cored:Qt5Cored.dll
 0004:000004c4       __imp_??1QDir@@QAE@XZ      004b54c4     Qt5Cored:Qt5Cored.dll
 0004:000004c8       __imp_?mkdir@QDir@@QBE_NABVQString@@@Z 004b54c8     Qt5Cored:Qt5Cored.dll
 0004:000004cc       __imp_?exists@QDir@@QBE_NXZ 004b54cc     Qt5Cored:Qt5Cored.dll
 0004:000004d0       __imp_?qt_assert_x@@YAXPBD00H@Z 004b54d0     Qt5Cored:Qt5Cored.dll
 0004:000004d4       __imp_??0QMessageLogger@@QAE@PBDH0@Z 004b54d4     Qt5Cored:Qt5Cored.dll
 0004:000004d8       __imp_?debug@QMessageLogger@@QBAXPBDZZ 004b54d8     Qt5Cored:Qt5Cored.dll
 0004:000004dc       __imp_??0QChar@@QAE@H@Z    004b54dc     Qt5Cored:Qt5Cored.dll
 0004:000004e0       __imp_?arg@QString@@QBE?AV1@HHHVQChar@@@Z 004b54e0     Qt5Cored:Qt5Cored.dll
 0004:000004e4       __imp_?arg@QString@@QBE?AV1@IHHVQChar@@@Z 004b54e4     Qt5Cored:Qt5Cored.dll
 0004:000004e8       __imp_?split@QString@@QBE?AVQStringList@@VQChar@@W4SplitBehavior@1@W4CaseSensitivity@Qt@@@Z 004b54e8     Qt5Cored:Qt5Cored.dll
 0004:000004ec       __imp_?toUInt@QString@@QBEIPA_NH@Z 004b54ec     Qt5Cored:Qt5Cored.dll
 0004:000004f0       __imp_?detach@QListData@@QAEPAUData@1@H@Z 004b54f0     Qt5Cored:Qt5Cored.dll
 0004:000004f4       __imp_?dispose@QListData@@QAEXXZ 004b54f4     Qt5Cored:Qt5Cored.dll
 0004:000004f8       __imp_?dispose@QListData@@SAXPAUData@1@@Z 004b54f8     Qt5Cored:Qt5Cored.dll
 0004:000004fc       __imp_?size@QListData@@QBEHXZ 004b54fc     Qt5Cored:Qt5Cored.dll
 0004:00000500       __imp_?at@QListData@@QBEPAPAXH@Z 004b5500     Qt5Cored:Qt5Cored.dll
 0004:00000504       __imp_?begin@QListData@@QBEPAPAXXZ 004b5504     Qt5Cored:Qt5Cored.dll
 0004:00000508       __imp_?end@QListData@@QBEPAPAXXZ 004b5508     Qt5Cored:Qt5Cored.dll
 0004:0000050c       __imp_?qFlagLocation@@YAPBDPBD@Z 004b550c     Qt5Cored:Qt5Cored.dll
 0004:00000510       __imp_??1Connection@QMetaObject@@QAE@XZ 004b5510     Qt5Cored:Qt5Cored.dll
 0004:00000514       __imp_??8@YA_NABVQString@@0@Z 004b5514     Qt5Cored:Qt5Cored.dll
 0004:00000518       __imp_?connect@QObject@@SA?AVConnection@QMetaObject@@PBV1@PBD01W4ConnectionType@Qt@@@Z 004b5518     Qt5Cored:Qt5Cored.dll
 0004:0000051c       __imp_?deleteLater@QObject@@QAEXXZ 004b551c     Qt5Cored:Qt5Cored.dll
 0004:00000520       __imp_?sender@QObject@@IBEPAV1@XZ 004b5520     Qt5Cored:Qt5Cored.dll
 0004:00000524       __imp_?childEvent@QObject@@MAEXPAVQChildEvent@@@Z 004b5524     Qt5Cored:Qt5Cored.dll
 0004:00000528       __imp_?connectNotify@QObject@@MAEXABVQMetaMethod@@@Z 004b5528     Qt5Cored:Qt5Cored.dll
 0004:0000052c       __imp_??0QChar@@QAE@UQLatin1Char@@@Z 004b552c     Qt5Cored:Qt5Cored.dll
 0004:00000530       __imp_?customEvent@QObject@@MAEXPAVQEvent@@@Z 004b5530     Qt5Cored:Qt5Cored.dll
 0004:00000534       __imp_?disconnectNotify@QObject@@MAEXABVQMetaMethod@@@Z 004b5534     Qt5Cored:Qt5Cored.dll
 0004:00000538       \177Qt5Cored_NULL_THUNK_DATA 004b5538     Qt5Cored:Qt5Cored.dll
 0004:000005d0       __imp_?setMaximumBlockCount@QTextDocument@@QAEXH@Z 004b55d0     Qt5Guid:Qt5Guid.dll
 0004:000005d4       __imp_??1QPixmap@@UAE@XZ   004b55d4     Qt5Guid:Qt5Guid.dll
 0004:000005d8       __imp_??0QKeySequence@@QAE@ABVQString@@W4SequenceFormat@0@@Z 004b55d8     Qt5Guid:Qt5Guid.dll
 0004:000005dc       __imp_??1QKeySequence@@QAE@XZ 004b55dc     Qt5Guid:Qt5Guid.dll
 0004:000005e0       __imp_??0QIcon@@QAE@ABVQPixmap@@@Z 004b55e0     Qt5Guid:Qt5Guid.dll
 0004:000005e4       __imp_??1QIcon@@QAE@XZ     004b55e4     Qt5Guid:Qt5Guid.dll
 0004:000005e8       __imp_?clone@QTextDocument@@QBEPAV1@PAVQObject@@@Z 004b55e8     Qt5Guid:Qt5Guid.dll
 0004:000005ec       __imp_?begin@QTextDocument@@QBE?AVQTextBlock@@XZ 004b55ec     Qt5Guid:Qt5Guid.dll
 0004:000005f0       __imp_?end@QTextDocument@@QBE?AVQTextBlock@@XZ 004b55f0     Qt5Guid:Qt5Guid.dll
 0004:000005f4       __imp_??4QTextBlock@@QAEAAV0@ABV0@@Z 004b55f4     Qt5Guid:Qt5Guid.dll
 0004:000005f8       __imp_??9QTextBlock@@QBE_NABV0@@Z 004b55f8     Qt5Guid:Qt5Guid.dll
 0004:000005fc       __imp_?text@QTextBlock@@QBE?AVQString@@XZ 004b55fc     Qt5Guid:Qt5Guid.dll
 0004:00000600       __imp_?next@QTextBlock@@QBE?AV1@XZ 004b5600     Qt5Guid:Qt5Guid.dll
 0004:00000604       __imp_??0QPixmap@@QAE@QBQBD@Z 004b5604     Qt5Guid:Qt5Guid.dll
 0004:00000608       \177Qt5Guid_NULL_THUNK_DATA 004b5608     Qt5Guid:Qt5Guid.dll
 0004:0000063c       __imp_??1QHostAddress@@QAE@XZ 004b563c     Qt5Networkd:Qt5Networkd.dll
 0004:00000640       __imp_?isInSubnet@QHostAddress@@QBE_NABU?$QPair@VQHostAddress@@H@@@Z 004b5640     Qt5Networkd:Qt5Networkd.dll
 0004:00000644       __imp_?parseSubnet@QHostAddress@@SA?AU?$QPair@VQHostAddress@@H@@ABVQString@@@Z 004b5644     Qt5Networkd:Qt5Networkd.dll
 0004:00000648       __imp_??0QTcpServer@@QAE@PAVQObject@@@Z 004b5648     Qt5Networkd:Qt5Networkd.dll
 0004:0000064c       __imp_??1QTcpServer@@UAE@XZ 004b564c     Qt5Networkd:Qt5Networkd.dll
 0004:00000650       __imp_?listen@QTcpServer@@QAE_NABVQHostAddress@@G@Z 004b5650     Qt5Networkd:Qt5Networkd.dll
 0004:00000654       __imp_?errorString@QTcpServer@@QBE?AVQString@@XZ 004b5654     Qt5Networkd:Qt5Networkd.dll
 0004:00000658       __imp_?setProxy@QTcpServer@@QAEXABVQNetworkProxy@@@Z 004b5658     Qt5Networkd:Qt5Networkd.dll
 0004:0000065c       __imp_??0QNetworkProxy@@QAE@W4ProxyType@0@ABVQString@@G11@Z 004b565c     Qt5Networkd:Qt5Networkd.dll
 0004:00000660       __imp_??1QNetworkProxy@@QAE@XZ 004b5660     Qt5Networkd:Qt5Networkd.dll
 0004:00000664       __imp_?hasPendingConnections@QTcpServer@@UBE_NXZ 004b5664     Qt5Networkd:Qt5Networkd.dll
 0004:00000668       __imp_?nextPendingConnection@QTcpServer@@UAEPAVQTcpSocket@@XZ 004b5668     Qt5Networkd:Qt5Networkd.dll
 0004:0000066c       __imp_?localPort@QAbstractSocket@@QBEGXZ 004b566c     Qt5Networkd:Qt5Networkd.dll
 0004:00000670       __imp_?peerPort@QAbstractSocket@@QBEGXZ 004b5670     Qt5Networkd:Qt5Networkd.dll
 0004:00000674       __imp_?peerAddress@QAbstractSocket@@QBE?AVQHostAddress@@XZ 004b5674     Qt5Networkd:Qt5Networkd.dll
 0004:00000678       __imp_??0QSslCertificate@@QAE@PAVQIODevice@@W4EncodingFormat@QSsl@@@Z 004b5678     Qt5Networkd:Qt5Networkd.dll
 0004:0000067c       __imp_??1QSslCertificate@@QAE@XZ 004b567c     Qt5Networkd:Qt5Networkd.dll
 0004:00000680       __imp_?isNull@QSslCertificate@@QBE_NXZ 004b5680     Qt5Networkd:Qt5Networkd.dll
 0004:00000684       __imp_?issuerInfo@QSslCertificate@@QBE?AVQStringList@@W4SubjectInfo@1@@Z 004b5684     Qt5Networkd:Qt5Networkd.dll
 0004:00000688       __imp_??0QSslError@@QAE@ABV0@@Z 004b5688     Qt5Networkd:Qt5Networkd.dll
 0004:0000068c       __imp_??1QSslError@@QAE@XZ 004b568c     Qt5Networkd:Qt5Networkd.dll
 0004:00000690       __imp_?errorString@QSslError@@QBE?AVQString@@XZ 004b5690     Qt5Networkd:Qt5Networkd.dll
 0004:00000694       __imp_??0QSslSocket@@QAE@PAVQObject@@@Z 004b5694     Qt5Networkd:Qt5Networkd.dll
 0004:00000698       __imp_??1QSslSocket@@UAE@XZ 004b5698     Qt5Networkd:Qt5Networkd.dll
 0004:0000069c       __imp_?protocol@QSslSocket@@QBE?AW4SslProtocol@QSsl@@XZ 004b569c     Qt5Networkd:Qt5Networkd.dll
 0004:000006a0       __imp_?setSslConfiguration@QSslSocket@@QAEXABVQSslConfiguration@@@Z 004b56a0     Qt5Networkd:Qt5Networkd.dll
 0004:000006a4       __imp_?localCertificate@QSslSocket@@QBE?AVQSslCertificate@@XZ 004b56a4     Qt5Networkd:Qt5Networkd.dll
 0004:000006a8       __imp_?sessionCipher@QSslSocket@@QBE?AVQSslCipher@@XZ 004b56a8     Qt5Networkd:Qt5Networkd.dll
 0004:000006ac       __imp_?privateKey@QSslSocket@@QBE?AVQSslKey@@XZ 004b56ac     Qt5Networkd:Qt5Networkd.dll
 0004:000006b0       __imp_?startServerEncryption@QSslSocket@@QAEXXZ 004b56b0     Qt5Networkd:Qt5Networkd.dll
 0004:000006b4       __imp_??0QHostAddress@@QAE@XZ 004b56b4     Qt5Networkd:Qt5Networkd.dll
 0004:000006b8       __imp_??4QHostAddress@@QAEAAV0@$$QAV0@@Z 004b56b8     Qt5Networkd:Qt5Networkd.dll
 0004:000006bc       __imp_??0QSslKey@@QAE@PAVQIODevice@@W4KeyAlgorithm@QSsl@@W4EncodingFormat@3@W4KeyType@3@ABVQByteArray@@@Z 004b56bc     Qt5Networkd:Qt5Networkd.dll
 0004:000006c0       __imp_??1QSslKey@@QAE@XZ   004b56c0     Qt5Networkd:Qt5Networkd.dll
 0004:000006c4       __imp_?isNull@QSslKey@@QBE_NXZ 004b56c4     Qt5Networkd:Qt5Networkd.dll
 0004:000006c8       __imp_??0QSslConfiguration@@QAE@XZ 004b56c8     Qt5Networkd:Qt5Networkd.dll
 0004:000006cc       __imp_??1QSslConfiguration@@QAE@XZ 004b56cc     Qt5Networkd:Qt5Networkd.dll
 0004:000006d0       __imp_?setProtocol@QSslConfiguration@@QAEXW4SslProtocol@QSsl@@@Z 004b56d0     Qt5Networkd:Qt5Networkd.dll
 0004:000006d4       __imp_?setPeerVerifyMode@QSslConfiguration@@QAEXW4PeerVerifyMode@QSslSocket@@@Z 004b56d4     Qt5Networkd:Qt5Networkd.dll
 0004:000006d8       __imp_?setLocalCertificate@QSslConfiguration@@QAEXABVQSslCertificate@@@Z 004b56d8     Qt5Networkd:Qt5Networkd.dll
 0004:000006dc       __imp_?setPrivateKey@QSslConfiguration@@QAEXABVQSslKey@@@Z 004b56dc     Qt5Networkd:Qt5Networkd.dll
 0004:000006e0       __imp_??1QSslCipher@@QAE@XZ 004b56e0     Qt5Networkd:Qt5Networkd.dll
 0004:000006e4       __imp_?name@QSslCipher@@QBE?AVQString@@XZ 004b56e4     Qt5Networkd:Qt5Networkd.dll
 0004:000006e8       __imp_?atEnd@QSslSocket@@UBE_NXZ 004b56e8     Qt5Networkd:Qt5Networkd.dll
 0004:000006ec       __imp_?bytesAvailable@QSslSocket@@UBE_JXZ 004b56ec     Qt5Networkd:Qt5Networkd.dll
 0004:000006f0       __imp_?bytesToWrite@QSslSocket@@UBE_JXZ 004b56f0     Qt5Networkd:Qt5Networkd.dll
 0004:000006f4       __imp_?canReadLine@QSslSocket@@UBE_NXZ 004b56f4     Qt5Networkd:Qt5Networkd.dll
 0004:000006f8       __imp_?close@QSslSocket@@UAEXXZ 004b56f8     Qt5Networkd:Qt5Networkd.dll
 0004:000006fc       __imp_?connectToHost@QAbstractSocket@@UAEXABVQHostAddress@@GV?$QFlags@W4OpenModeFlag@QIODevice@@@@@Z 004b56fc     Qt5Networkd:Qt5Networkd.dll
 0004:00000700       __imp_?connectToHost@QSslSocket@@UAEXABVQString@@GV?$QFlags@W4OpenModeFlag@QIODevice@@@@W4NetworkLayerProtocol@QAbstractSocket@@@Z 004b5700     Qt5Networkd:Qt5Networkd.dll
 0004:00000704       __imp_?disconnectFromHost@QSslSocket@@UAEXXZ 004b5704     Qt5Networkd:Qt5Networkd.dll
 0004:00000708       __imp_?isSequential@QAbstractSocket@@UBE_NXZ 004b5708     Qt5Networkd:Qt5Networkd.dll
 0004:0000070c       __imp_?metaObject@QSslSocket@@UBEPBUQMetaObject@@XZ 004b570c     Qt5Networkd:Qt5Networkd.dll
 0004:00000710       __imp_?qt_metacall@QSslSocket@@UAEHW4Call@QMetaObject@@HPAPAX@Z 004b5710     Qt5Networkd:Qt5Networkd.dll
 0004:00000714       __imp_?qt_metacast@QSslSocket@@UAEPAXPBD@Z 004b5714     Qt5Networkd:Qt5Networkd.dll
 0004:00000718       __imp_?readData@QSslSocket@@MAE_JPAD_J@Z 004b5718     Qt5Networkd:Qt5Networkd.dll
 0004:0000071c       __imp_?readLineData@QAbstractSocket@@MAE_JPAD_J@Z 004b571c     Qt5Networkd:Qt5Networkd.dll
 0004:00000720       __imp_?resume@QSslSocket@@UAEXXZ 004b5720     Qt5Networkd:Qt5Networkd.dll
 0004:00000724       __imp_?setReadBufferSize@QSslSocket@@UAEX_J@Z 004b5724     Qt5Networkd:Qt5Networkd.dll
 0004:00000728       __imp_?setSocketDescriptor@QSslSocket@@UAE_NHW4SocketState@QAbstractSocket@@V?$QFlags@W4OpenModeFlag@QIODevice@@@@@Z 004b5728     Qt5Networkd:Qt5Networkd.dll
 0004:0000072c       __imp_?setSocketOption@QSslSocket@@UAEXW4SocketOption@QAbstractSocket@@ABVQVariant@@@Z 004b572c     Qt5Networkd:Qt5Networkd.dll
 0004:00000730       __imp_?socketDescriptor@QAbstractSocket@@UBEHXZ 004b5730     Qt5Networkd:Qt5Networkd.dll
 0004:00000734       __imp_?socketOption@QSslSocket@@UAE?AVQVariant@@W4SocketOption@QAbstractSocket@@@Z 004b5734     Qt5Networkd:Qt5Networkd.dll
 0004:00000738       __imp_?waitForBytesWritten@QSslSocket@@UAE_NH@Z 004b5738     Qt5Networkd:Qt5Networkd.dll
 0004:0000073c       __imp_?waitForConnected@QSslSocket@@UAE_NH@Z 004b573c     Qt5Networkd:Qt5Networkd.dll
 0004:00000740       __imp_?waitForDisconnected@QSslSocket@@UAE_NH@Z 004b5740     Qt5Networkd:Qt5Networkd.dll
 0004:00000744       __imp_?waitForReadyRead@QSslSocket@@UAE_NH@Z 004b5744     Qt5Networkd:Qt5Networkd.dll
 0004:00000748       __imp_?writeData@QSslSocket@@MAE_JPBD_J@Z 004b5748     Qt5Networkd:Qt5Networkd.dll
 0004:0000074c       __imp_?qt_metacast@QTcpServer@@UAEPAXPBD@Z 004b574c     Qt5Networkd:Qt5Networkd.dll
 0004:00000750       __imp_?qt_metacall@QTcpServer@@UAEHW4Call@QMetaObject@@HPAPAX@Z 004b5750     Qt5Networkd:Qt5Networkd.dll
 0004:00000754       __imp_?staticMetaObject@QTcpServer@@2UQMetaObject@@B 004b5754     Qt5Networkd:Qt5Networkd.dll
 0004:00000758       __imp_?staticMetaObject@QAbstractSocket@@2UQMetaObject@@B 004b5758     Qt5Networkd:Qt5Networkd.dll
 0004:0000075c       __imp_??0QHostAddress@@QAE@ABVQString@@@Z 004b575c     Qt5Networkd:Qt5Networkd.dll
 0004:00000760       __imp_?serverPort@QTcpServer@@QBEGXZ 004b5760     Qt5Networkd:Qt5Networkd.dll
 0004:00000764       __imp_?setDefaultCiphers@QSslSocket@@SAXABV?$QList@VQSslCipher@@@@@Z 004b5764     Qt5Networkd:Qt5Networkd.dll
 0004:00000768       __imp_??0QSslCipher@@QAE@ABVQString@@@Z 004b5768     Qt5Networkd:Qt5Networkd.dll
 0004:0000076c       __imp_??0QSslCipher@@QAE@ABV0@@Z 004b576c     Qt5Networkd:Qt5Networkd.dll
 0004:00000770       __imp_?isNull@QSslCipher@@QBE_NXZ 004b5770     Qt5Networkd:Qt5Networkd.dll
 0004:00000774       __imp_?isNull@QHostAddress@@QBE_NXZ 004b5774     Qt5Networkd:Qt5Networkd.dll
 0004:00000778       __imp_?toString@QHostAddress@@QBE?AVQString@@XZ 004b5778     Qt5Networkd:Qt5Networkd.dll
 0004:0000077c       \177Qt5Networkd_NULL_THUNK_DATA 004b577c     Qt5Networkd:Qt5Networkd.dll
 0004:000007e8       __imp_?clone@QListWidgetItem@@UBEPAV1@XZ 004b57e8     Qt5Widgetsd:Qt5Widgetsd.dll
 0004:000007ec       __imp_?closeEditor@QAbstractItemView@@MAEXPAVQWidget@@W4EndEditHint@QAbstractItemDelegate@@@Z 004b57ec     Qt5Widgetsd:Qt5Widgetsd.dll
 0004:000007f0       __imp_?closeEvent@QWidget@@MAEXPAVQCloseEvent@@@Z 004b57f0     Qt5Widgetsd:Qt5Widgetsd.dll
 0004:000007f4       __imp_?commitData@QAbstractItemView@@MAEXPAVQWidget@@@Z 004b57f4     Qt5Widgetsd:Qt5Widgetsd.dll
 0004:000007f8       __imp_?contextMenuEvent@QAbstractScrollArea@@MAEXPAVQContextMenuEvent@@@Z 004b57f8     Qt5Widgetsd:Qt5Widgetsd.dll
 0004:000007fc       __imp_?contextMenuEvent@QMainWindow@@MAEXPAVQContextMenuEvent@@@Z 004b57fc     Qt5Widgetsd:Qt5Widgetsd.dll
 0004:00000800       __imp_?contextMenuEvent@QTextEdit@@MAEXPAVQContextMenuEvent@@@Z 004b5800     Qt5Widgetsd:Qt5Widgetsd.dll
 0004:00000804       __imp_?contextMenuEvent@QWidget@@MAEXPAVQContextMenuEvent@@@Z 004b5804     Qt5Widgetsd:Qt5Widgetsd.dll
 0004:00000808       __imp_?controlTypes@QLayout@@UBE?AV?$QFlags@W4ControlType@QSizePolicy@@@@XZ 004b5808     Qt5Widgetsd:Qt5Widgetsd.dll
 0004:0000080c       __imp_?controlTypes@QLayoutItem@@UBE?AV?$QFlags@W4ControlType@QSizePolicy@@@@XZ 004b580c     Qt5Widgetsd:Qt5Widgetsd.dll
 0004:00000810       __imp_?count@QBoxLayout@@UBEHXZ 004b5810     Qt5Widgetsd:Qt5Widgetsd.dll
 0004:00000814       __imp_?createHandle@QSplitter@@MAEPAVQSplitterHandle@@XZ 004b5814     Qt5Widgetsd:Qt5Widgetsd.dll
 0004:00000818       __imp_?createMimeDataFromSelection@QTextEdit@@MBEPAVQMimeData@@XZ 004b5818     Qt5Widgetsd:Qt5Widgetsd.dll
 0004:0000081c       __imp_?createPopupMenu@QMainWindow@@UAEPAVQMenu@@XZ 004b581c     Qt5Widgetsd:Qt5Widgetsd.dll
 0004:00000820       __imp_?currentChanged@QListView@@MAEXABVQModelIndex@@0@Z 004b5820     Qt5Widgetsd:Qt5Widgetsd.dll
 0004:00000824       __imp_?currentChanged@QTreeView@@MAEXABVQModelIndex@@0@Z 004b5824     Qt5Widgetsd:Qt5Widgetsd.dll
 0004:00000828       __imp_?data@QListWidgetItem@@UBE?AVQVariant@@H@Z 004b5828     Qt5Widgetsd:Qt5Widgetsd.dll
 0004:0000082c       __imp_?dataChanged@QListView@@MAEXABVQModelIndex@@0ABV?$QVector@H@@@Z 004b582c     Qt5Widgetsd:Qt5Widgetsd.dll
 0004:00000830       __imp_?dataChanged@QTreeView@@UAEXABVQModelIndex@@0ABV?$QVector@H@@@Z 004b5830     Qt5Widgetsd:Qt5Widgetsd.dll
 0004:00000834       __imp_?devType@QWidget@@UBEHXZ 004b5834     Qt5Widgetsd:Qt5Widgetsd.dll
 0004:00000838       __imp_?doItemsLayout@QListView@@UAEXXZ 004b5838     Qt5Widgetsd:Qt5Widgetsd.dll
 0004:0000083c       __imp_?doItemsLayout@QTreeView@@UAEXXZ 004b583c     Qt5Widgetsd:Qt5Widgetsd.dll
 0004:00000840       __imp_?doSetTextCursor@QTextEdit@@MAEXABVQTextCursor@@@Z 004b5840     Qt5Widgetsd:Qt5Widgetsd.dll
 0004:00000844       __imp_?dragEnterEvent@QAbstractItemView@@MAEXPAVQDragEnterEvent@@@Z 004b5844     Qt5Widgetsd:Qt5Widgetsd.dll
 0004:00000848       __imp_?dragEnterEvent@QTextEdit@@MAEXPAVQDragEnterEvent@@@Z 004b5848     Qt5Widgetsd:Qt5Widgetsd.dll
 0004:0000084c       __imp_?dragEnterEvent@QWidget@@MAEXPAVQDragEnterEvent@@@Z 004b584c     Qt5Widgetsd:Qt5Widgetsd.dll
 0004:00000850       __imp_?dragLeaveEvent@QAbstractItemView@@MAEXPAVQDragLeaveEvent@@@Z 004b5850     Qt5Widgetsd:Qt5Widgetsd.dll
 0004:00000854       __imp_?dragLeaveEvent@QListView@@MAEXPAVQDragLeaveEvent@@@Z 004b5854     Qt5Widgetsd:Qt5Widgetsd.dll
 0004:00000858       __imp_?dragLeaveEvent@QTextEdit@@MAEXPAVQDragLeaveEvent@@@Z 004b5858     Qt5Widgetsd:Qt5Widgetsd.dll
 0004:0000085c       __imp_?dragLeaveEvent@QWidget@@MAEXPAVQDragLeaveEvent@@@Z 004b585c     Qt5Widgetsd:Qt5Widgetsd.dll
 0004:00000860       __imp_?dragMoveEvent@QListView@@MAEXPAVQDragMoveEvent@@@Z 004b5860     Qt5Widgetsd:Qt5Widgetsd.dll
 0004:00000864       __imp_?dragMoveEvent@QTextEdit@@MAEXPAVQDragMoveEvent@@@Z 004b5864     Qt5Widgetsd:Qt5Widgetsd.dll
 0004:00000868       __imp_?dragMoveEvent@QTreeView@@MAEXPAVQDragMoveEvent@@@Z 004b5868     Qt5Widgetsd:Qt5Widgetsd.dll
 0004:0000086c       __imp_?dragMoveEvent@QWidget@@MAEXPAVQDragMoveEvent@@@Z 004b586c     Qt5Widgetsd:Qt5Widgetsd.dll
 0004:00000870       __imp_?drawBranches@QTreeView@@MBEXPAVQPainter@@ABVQRect@@ABVQModelIndex@@@Z 004b5870     Qt5Widgetsd:Qt5Widgetsd.dll
 0004:00000874       __imp_?drawRow@QTreeView@@MBEXPAVQPainter@@ABVQStyleOptionViewItem@@ABVQModelIndex@@@Z 004b5874     Qt5Widgetsd:Qt5Widgetsd.dll
 0004:00000878       __imp_?dropEvent@QListWidget@@UAEXPAVQDropEvent@@@Z 004b5878     Qt5Widgetsd:Qt5Widgetsd.dll
 0004:0000087c       __imp_?dropEvent@QTextEdit@@MAEXPAVQDropEvent@@@Z 004b587c     Qt5Widgetsd:Qt5Widgetsd.dll
 0004:00000880       __imp_?dropEvent@QTreeWidget@@MAEXPAVQDropEvent@@@Z 004b5880     Qt5Widgetsd:Qt5Widgetsd.dll
 0004:00000884       __imp_?dropEvent@QWidget@@MAEXPAVQDropEvent@@@Z 004b5884     Qt5Widgetsd:Qt5Widgetsd.dll
 0004:00000888       __imp_?dropMimeData@QListWidget@@MAE_NHPBVQMimeData@@W4DropAction@Qt@@@Z 004b5888     Qt5Widgetsd:Qt5Widgetsd.dll
 0004:0000088c       __imp_?dropMimeData@QTreeWidget@@MAE_NPAVQTreeWidgetItem@@HPBVQMimeData@@W4DropAction@Qt@@@Z 004b588c     Qt5Widgetsd:Qt5Widgetsd.dll
 0004:00000890       __imp_?edit@QAbstractItemView@@MAE_NABVQModelIndex@@W4EditTrigger@1@PAVQEvent@@@Z 004b5890     Qt5Widgetsd:Qt5Widgetsd.dll
 0004:00000894       __imp_?editorDestroyed@QAbstractItemView@@MAEXPAVQObject@@@Z 004b5894     Qt5Widgetsd:Qt5Widgetsd.dll
 0004:00000898       __imp_?enterEvent@QMenu@@MAEXPAVQEvent@@@Z 004b5898     Qt5Widgetsd:Qt5Widgetsd.dll
 0004:0000089c       __imp_?enterEvent@QWidget@@MAEXPAVQEvent@@@Z 004b589c     Qt5Widgetsd:Qt5Widgetsd.dll
 0004:000008a0       __imp_?event@QAction@@MAE_NPAVQEvent@@@Z 004b58a0     Qt5Widgetsd:Qt5Widgetsd.dll
 0004:000008a4       __imp_?event@QGroupBox@@MAE_NPAVQEvent@@@Z 004b58a4     Qt5Widgetsd:Qt5Widgetsd.dll
 0004:000008a8       __imp_?event@QListWidget@@MAE_NPAVQEvent@@@Z 004b58a8     Qt5Widgetsd:Qt5Widgetsd.dll
 0004:000008ac       __imp_?event@QMainWindow@@MAE_NPAVQEvent@@@Z 004b58ac     Qt5Widgetsd:Qt5Widgetsd.dll
 0004:000008b0       __imp_?event@QMenu@@MAE_NPAVQEvent@@@Z 004b58b0     Qt5Widgetsd:Qt5Widgetsd.dll
 0004:000008b4       __imp_?event@QMenuBar@@MAE_NPAVQEvent@@@Z 004b58b4     Qt5Widgetsd:Qt5Widgetsd.dll
 0004:000008b8       __imp_?event@QPushButton@@MAE_NPAVQEvent@@@Z 004b58b8     Qt5Widgetsd:Qt5Widgetsd.dll
 0004:000008bc       __imp_?event@QSplitter@@MAE_NPAVQEvent@@@Z 004b58bc     Qt5Widgetsd:Qt5Widgetsd.dll
 0004:000008c0       __imp_?event@QStatusBar@@MAE_NPAVQEvent@@@Z 004b58c0     Qt5Widgetsd:Qt5Widgetsd.dll
 0004:000008c4       __imp_?event@QTextEdit@@MAE_NPAVQEvent@@@Z 004b58c4     Qt5Widgetsd:Qt5Widgetsd.dll
 0004:000008c8       __imp_?event@QToolBar@@MAE_NPAVQEvent@@@Z 004b58c8     Qt5Widgetsd:Qt5Widgetsd.dll
 0004:000008cc       __imp_?event@QTreeWidget@@MAE_NPAVQEvent@@@Z 004b58cc     Qt5Widgetsd:Qt5Widgetsd.dll
 0004:000008d0       __imp_?event@QWidget@@MAE_NPAVQEvent@@@Z 004b58d0     Qt5Widgetsd:Qt5Widgetsd.dll
 0004:000008d4       __imp_?eventFilter@QAbstractScrollArea@@MAE_NPAVQObject@@PAVQEvent@@@Z 004b58d4     Qt5Widgetsd:Qt5Widgetsd.dll
 0004:000008d8       __imp_?eventFilter@QMenuBar@@MAE_NPAVQObject@@PAVQEvent@@@Z 004b58d8     Qt5Widgetsd:Qt5Widgetsd.dll
 0004:000008dc       __imp_?expandingDirections@QBoxLayout@@UBE?AV?$QFlags@W4Orientation@Qt@@@@XZ 004b58dc     Qt5Widgetsd:Qt5Widgetsd.dll
 0004:000008e0       __imp_?expandingDirections@QSpacerItem@@UBE?AV?$QFlags@W4Orientation@Qt@@@@XZ 004b58e0     Qt5Widgetsd:Qt5Widgetsd.dll
 0004:000008e4       __imp_?focusInEvent@QAbstractItemView@@MAEXPAVQFocusEvent@@@Z 004b58e4     Qt5Widgetsd:Qt5Widgetsd.dll
 0004:000008e8       __imp_?focusInEvent@QGroupBox@@MAEXPAVQFocusEvent@@@Z 004b58e8     Qt5Widgetsd:Qt5Widgetsd.dll
 0004:000008ec       __imp_?focusInEvent@QMenuBar@@MAEXPAVQFocusEvent@@@Z 004b58ec     Qt5Widgetsd:Qt5Widgetsd.dll
 0004:000008f0       __imp_?focusInEvent@QPushButton@@MAEXPAVQFocusEvent@@@Z 004b58f0     Qt5Widgetsd:Qt5Widgetsd.dll
 0004:000008f4       __imp_?focusInEvent@QTextEdit@@MAEXPAVQFocusEvent@@@Z 004b58f4     Qt5Widgetsd:Qt5Widgetsd.dll
 0004:000008f8       __imp_?focusInEvent@QWidget@@MAEXPAVQFocusEvent@@@Z 004b58f8     Qt5Widgetsd:Qt5Widgetsd.dll
 0004:000008fc       __imp_?focusNextPrevChild@QAbstractItemView@@MAE_N_N@Z 004b58fc     Qt5Widgetsd:Qt5Widgetsd.dll
 0004:00000900       __imp_?focusNextPrevChild@QMenu@@MAE_N_N@Z 004b5900     Qt5Widgetsd:Qt5Widgetsd.dll
 0004:00000904       __imp_?focusNextPrevChild@QTextEdit@@MAE_N_N@Z 004b5904     Qt5Widgetsd:Qt5Widgetsd.dll
 0004:00000908       __imp_?focusNextPrevChild@QWidget@@MAE_N_N@Z 004b5908     Qt5Widgetsd:Qt5Widgetsd.dll
 0004:0000090c       __imp_?focusOutEvent@QAbstractItemView@@MAEXPAVQFocusEvent@@@Z 004b590c     Qt5Widgetsd:Qt5Widgetsd.dll
 0004:00000910       __imp_?focusOutEvent@QMenuBar@@MAEXPAVQFocusEvent@@@Z 004b5910     Qt5Widgetsd:Qt5Widgetsd.dll
 0004:00000914       __imp_?focusOutEvent@QPushButton@@MAEXPAVQFocusEvent@@@Z 004b5914     Qt5Widgetsd:Qt5Widgetsd.dll
 0004:00000918       __imp_?focusOutEvent@QTextEdit@@MAEXPAVQFocusEvent@@@Z 004b5918     Qt5Widgetsd:Qt5Widgetsd.dll
 0004:0000091c       __imp_?focusOutEvent@QWidget@@MAEXPAVQFocusEvent@@@Z 004b591c     Qt5Widgetsd:Qt5Widgetsd.dll
 0004:00000920       __imp_?geometry@QLayout@@UBE?AVQRect@@XZ 004b5920     Qt5Widgetsd:Qt5Widgetsd.dll
 0004:00000924       __imp_?geometry@QSpacerItem@@UBE?AVQRect@@XZ 004b5924     Qt5Widgetsd:Qt5Widgetsd.dll
 0004:00000928       __imp_?hasHeightForWidth@QBoxLayout@@UBE_NXZ 004b5928     Qt5Widgetsd:Qt5Widgetsd.dll
 0004:0000092c       __imp_?hasHeightForWidth@QLayoutItem@@UBE_NXZ 004b592c     Qt5Widgetsd:Qt5Widgetsd.dll
 0004:00000930       __imp_?hasHeightForWidth@QWidget@@UBE_NXZ 004b5930     Qt5Widgetsd:Qt5Widgetsd.dll
 0004:00000934       __imp_?heightForWidth@QBoxLayout@@UBEHH@Z 004b5934     Qt5Widgetsd:Qt5Widgetsd.dll
 0004:00000938       __imp_?heightForWidth@QLayoutItem@@UBEHH@Z 004b5938     Qt5Widgetsd:Qt5Widgetsd.dll
 0004:0000093c       __imp_??0QWidget@@QAE@PAV0@V?$QFlags@W4WindowType@Qt@@@@@Z 004b593c     Qt5Widgetsd:Qt5Widgetsd.dll
 0004:00000940       __imp_?heightForWidth@QWidget@@UBEHH@Z 004b5940     Qt5Widgetsd:Qt5Widgetsd.dll
 0004:00000944       __imp_?hideEvent@QMenu@@MAEXPAVQHideEvent@@@Z 004b5944     Qt5Widgetsd:Qt5Widgetsd.dll
 0004:00000948       __imp_?hideEvent@QWidget@@MAEXPAVQHideEvent@@@Z 004b5948     Qt5Widgetsd:Qt5Widgetsd.dll
 0004:0000094c       __imp_?hitButton@QAbstractButton@@MBE_NABVQPoint@@@Z 004b594c     Qt5Widgetsd:Qt5Widgetsd.dll
 0004:00000950       __imp_?horizontalOffset@QListView@@MBEHXZ 004b5950     Qt5Widgetsd:Qt5Widgetsd.dll
 0004:00000954       __imp_?horizontalOffset@QTreeView@@MBEHXZ 004b5954     Qt5Widgetsd:Qt5Widgetsd.dll
 0004:00000958       __imp_?horizontalScrollbarAction@QAbstractItemView@@MAEXH@Z 004b5958     Qt5Widgetsd:Qt5Widgetsd.dll
 0004:0000095c       __imp_?horizontalScrollbarAction@QTreeView@@MAEXH@Z 004b595c     Qt5Widgetsd:Qt5Widgetsd.dll
 0004:00000960       __imp_?horizontalScrollbarValueChanged@QAbstractItemView@@MAEXH@Z 004b5960     Qt5Widgetsd:Qt5Widgetsd.dll
 0004:00000964       __imp_?indexAt@QListView@@UBE?AVQModelIndex@@ABVQPoint@@@Z 004b5964     Qt5Widgetsd:Qt5Widgetsd.dll
 0004:00000968       __imp_?setVerticalStretch@QSizePolicy@@QAEXH@Z 004b5968     Qt5Widgetsd:Qt5Widgetsd.dll
 0004:0000096c       __imp_?indexOf@QLayout@@UBEHPAVQWidget@@@Z 004b596c     Qt5Widgetsd:Qt5Widgetsd.dll
 0004:00000970       __imp_?initPainter@QWidget@@MBEXPAVQPainter@@@Z 004b5970     Qt5Widgetsd:Qt5Widgetsd.dll
 0004:00000974       __imp_?inputMethodEvent@QAbstractItemView@@MAEXPAVQInputMethodEvent@@@Z 004b5974     Qt5Widgetsd:Qt5Widgetsd.dll
 0004:00000978       __imp_?inputMethodEvent@QTextEdit@@MAEXPAVQInputMethodEvent@@@Z 004b5978     Qt5Widgetsd:Qt5Widgetsd.dll
 0004:0000097c       __imp_?inputMethodEvent@QWidget@@MAEXPAVQInputMethodEvent@@@Z 004b597c     Qt5Widgetsd:Qt5Widgetsd.dll
 0004:00000980       __imp_?inputMethodQuery@QAbstractItemView@@UBE?AVQVariant@@W4InputMethodQuery@Qt@@@Z 004b5980     Qt5Widgetsd:Qt5Widgetsd.dll
 0004:00000984       __imp_?inputMethodQuery@QTextEdit@@UBE?AVQVariant@@W4InputMethodQuery@Qt@@@Z 004b5984     Qt5Widgetsd:Qt5Widgetsd.dll
 0004:00000988       __imp_?inputMethodQuery@QWidget@@UBE?AVQVariant@@W4InputMethodQuery@Qt@@@Z 004b5988     Qt5Widgetsd:Qt5Widgetsd.dll
 0004:0000098c       __imp_?insertFromMimeData@QTextEdit@@MAEXPBVQMimeData@@@Z 004b598c     Qt5Widgetsd:Qt5Widgetsd.dll
 0004:00000990       __imp_?invalidate@QBoxLayout@@UAEXXZ 004b5990     Qt5Widgetsd:Qt5Widgetsd.dll
 0004:00000994       __imp_?invalidate@QLayoutItem@@UAEXXZ 004b5994     Qt5Widgetsd:Qt5Widgetsd.dll
 0004:00000998       __imp_?isEmpty@QLayout@@UBE_NXZ 004b5998     Qt5Widgetsd:Qt5Widgetsd.dll
 0004:0000099c       __imp_?isEmpty@QSpacerItem@@UBE_NXZ 004b599c     Qt5Widgetsd:Qt5Widgetsd.dll
 0004:000009a0       __imp_?setHorizontalStretch@QSizePolicy@@QAEXH@Z 004b59a0     Qt5Widgetsd:Qt5Widgetsd.dll
 0004:000009a4       __imp_?isIndexHidden@QTreeView@@MBE_NABVQModelIndex@@@Z 004b59a4     Qt5Widgetsd:Qt5Widgetsd.dll
 0004:000009a8       __imp_?itemAt@QBoxLayout@@UBEPAVQLayoutItem@@H@Z 004b59a8     Qt5Widgetsd:Qt5Widgetsd.dll
 0004:000009ac       __imp_?keyPressEvent@QAbstractItemView@@MAEXPAVQKeyEvent@@@Z 004b59ac     Qt5Widgetsd:Qt5Widgetsd.dll
 0004:000009b0       __imp_?keyPressEvent@QMenu@@MAEXPAVQKeyEvent@@@Z 004b59b0     Qt5Widgetsd:Qt5Widgetsd.dll
 0004:000009b4       __imp_?keyPressEvent@QMenuBar@@MAEXPAVQKeyEvent@@@Z 004b59b4     Qt5Widgetsd:Qt5Widgetsd.dll
 0004:000009b8       __imp_?keyPressEvent@QPushButton@@MAEXPAVQKeyEvent@@@Z 004b59b8     Qt5Widgetsd:Qt5Widgetsd.dll
 0004:000009bc       __imp_?keyPressEvent@QTextEdit@@MAEXPAVQKeyEvent@@@Z 004b59bc     Qt5Widgetsd:Qt5Widgetsd.dll
 0004:000009c0       __imp_?keyPressEvent@QTreeView@@MAEXPAVQKeyEvent@@@Z 004b59c0     Qt5Widgetsd:Qt5Widgetsd.dll
 0004:000009c4       __imp_?keyPressEvent@QWidget@@MAEXPAVQKeyEvent@@@Z 004b59c4     Qt5Widgetsd:Qt5Widgetsd.dll
 0004:000009c8       __imp_?keyReleaseEvent@QAbstractButton@@MAEXPAVQKeyEvent@@@Z 004b59c8     Qt5Widgetsd:Qt5Widgetsd.dll
 0004:000009cc       __imp_?keyReleaseEvent@QTextEdit@@MAEXPAVQKeyEvent@@@Z 004b59cc     Qt5Widgetsd:Qt5Widgetsd.dll
 0004:000009d0       __imp_?keyReleaseEvent@QWidget@@MAEXPAVQKeyEvent@@@Z 004b59d0     Qt5Widgetsd:Qt5Widgetsd.dll
 0004:000009d4       __imp_?keyboardSearch@QAbstractItemView@@UAEXABVQString@@@Z 004b59d4     Qt5Widgetsd:Qt5Widgetsd.dll
 0004:000009d8       __imp_?keyboardSearch@QTreeView@@UAEXABVQString@@@Z 004b59d8     Qt5Widgetsd:Qt5Widgetsd.dll
 0004:000009dc       __imp_?layout@QLayout@@UAEPAV1@XZ 004b59dc     Qt5Widgetsd:Qt5Widgetsd.dll
 0004:000009e0       __imp_?layout@QLayoutItem@@UAEPAVQLayout@@XZ 004b59e0     Qt5Widgetsd:Qt5Widgetsd.dll
 0004:000009e4       __imp_?leaveEvent@QMenu@@MAEXPAVQEvent@@@Z 004b59e4     Qt5Widgetsd:Qt5Widgetsd.dll
 0004:000009e8       __imp_?leaveEvent@QMenuBar@@MAEXPAVQEvent@@@Z 004b59e8     Qt5Widgetsd:Qt5Widgetsd.dll
 0004:000009ec       __imp_?leaveEvent@QWidget@@MAEXPAVQEvent@@@Z 004b59ec     Qt5Widgetsd:Qt5Widgetsd.dll
 0004:000009f0       __imp_?loadResource@QTextEdit@@UAE?AVQVariant@@HABVQUrl@@@Z 004b59f0     Qt5Widgetsd:Qt5Widgetsd.dll
 0004:000009f4       __imp_?maximumSize@QBoxLayout@@UBE?AVQSize@@XZ 004b59f4     Qt5Widgetsd:Qt5Widgetsd.dll
 0004:000009f8       __imp_?maximumSize@QSpacerItem@@UBE?AVQSize@@XZ 004b59f8     Qt5Widgetsd:Qt5Widgetsd.dll
 0004:000009fc       __imp_?metaObject@QAction@@UBEPBUQMetaObject@@XZ 004b59fc     Qt5Widgetsd:Qt5Widgetsd.dll
 0004:00000a00       __imp_?metaObject@QGroupBox@@UBEPBUQMetaObject@@XZ 004b5a00     Qt5Widgetsd:Qt5Widgetsd.dll
 0004:00000a04       __imp_?metaObject@QHBoxLayout@@UBEPBUQMetaObject@@XZ 004b5a04     Qt5Widgetsd:Qt5Widgetsd.dll
 0004:00000a08       __imp_?metaObject@QListWidget@@UBEPBUQMetaObject@@XZ 004b5a08     Qt5Widgetsd:Qt5Widgetsd.dll
 0004:00000a0c       __imp_?metaObject@QMenu@@UBEPBUQMetaObject@@XZ 004b5a0c     Qt5Widgetsd:Qt5Widgetsd.dll
 0004:00000a10       __imp_?metaObject@QMenuBar@@UBEPBUQMetaObject@@XZ 004b5a10     Qt5Widgetsd:Qt5Widgetsd.dll
 0004:00000a14       __imp_?metaObject@QPushButton@@UBEPBUQMetaObject@@XZ 004b5a14     Qt5Widgetsd:Qt5Widgetsd.dll
 0004:00000a18       __imp_?metaObject@QSplitter@@UBEPBUQMetaObject@@XZ 004b5a18     Qt5Widgetsd:Qt5Widgetsd.dll
 0004:00000a1c       __imp_?metaObject@QStatusBar@@UBEPBUQMetaObject@@XZ 004b5a1c     Qt5Widgetsd:Qt5Widgetsd.dll
 0004:00000a20       __imp_?metaObject@QTextEdit@@UBEPBUQMetaObject@@XZ 004b5a20     Qt5Widgetsd:Qt5Widgetsd.dll
 0004:00000a24       __imp_?metaObject@QToolBar@@UBEPBUQMetaObject@@XZ 004b5a24     Qt5Widgetsd:Qt5Widgetsd.dll
 0004:00000a28       __imp_?metaObject@QTreeWidget@@UBEPBUQMetaObject@@XZ 004b5a28     Qt5Widgetsd:Qt5Widgetsd.dll
 0004:00000a2c       __imp_?metaObject@QVBoxLayout@@UBEPBUQMetaObject@@XZ 004b5a2c     Qt5Widgetsd:Qt5Widgetsd.dll
 0004:00000a30       __imp_?metaObject@QWidget@@UBEPBUQMetaObject@@XZ 004b5a30     Qt5Widgetsd:Qt5Widgetsd.dll
 0004:00000a34       __imp_?metric@QWidget@@MBEHW4PaintDeviceMetric@QPaintDevice@@@Z 004b5a34     Qt5Widgetsd:Qt5Widgetsd.dll
 0004:00000a38       __imp_?mimeData@QListWidget@@MBEPAVQMimeData@@V?$QList@PAVQListWidgetItem@@@@@Z 004b5a38     Qt5Widgetsd:Qt5Widgetsd.dll
 0004:00000a3c       __imp_?mimeData@QTreeWidget@@MBEPAVQMimeData@@V?$QList@PAVQTreeWidgetItem@@@@@Z 004b5a3c     Qt5Widgetsd:Qt5Widgetsd.dll
 0004:00000a40       __imp_?mimeTypes@QListWidget@@MBE?AVQStringList@@XZ 004b5a40     Qt5Widgetsd:Qt5Widgetsd.dll
 0004:00000a44       __imp_?mimeTypes@QTreeWidget@@MBE?AVQStringList@@XZ 004b5a44     Qt5Widgetsd:Qt5Widgetsd.dll
 0004:00000a48       __imp_?minimumHeightForWidth@QBoxLayout@@UBEHH@Z 004b5a48     Qt5Widgetsd:Qt5Widgetsd.dll
 0004:00000a4c       __imp_?minimumHeightForWidth@QLayoutItem@@UBEHH@Z 004b5a4c     Qt5Widgetsd:Qt5Widgetsd.dll
 0004:00000a50       __imp_?minimumSize@QBoxLayout@@UBE?AVQSize@@XZ 004b5a50     Qt5Widgetsd:Qt5Widgetsd.dll
 0004:00000a54       __imp_?minimumSize@QSpacerItem@@UBE?AVQSize@@XZ 004b5a54     Qt5Widgetsd:Qt5Widgetsd.dll
 0004:00000a58       __imp_?minimumSizeHint@QAbstractScrollArea@@UBE?AVQSize@@XZ 004b5a58     Qt5Widgetsd:Qt5Widgetsd.dll
 0004:00000a5c       __imp_?minimumSizeHint@QGroupBox@@UBE?AVQSize@@XZ 004b5a5c     Qt5Widgetsd:Qt5Widgetsd.dll
 0004:00000a60       __imp_?minimumSizeHint@QMenuBar@@UBE?AVQSize@@XZ 004b5a60     Qt5Widgetsd:Qt5Widgetsd.dll
 0004:00000a64       __imp_?minimumSizeHint@QPushButton@@UBE?AVQSize@@XZ 004b5a64     Qt5Widgetsd:Qt5Widgetsd.dll
 0004:00000a68       __imp_?minimumSizeHint@QSplitter@@UBE?AVQSize@@XZ 004b5a68     Qt5Widgetsd:Qt5Widgetsd.dll
 0004:00000a6c       __imp_?minimumSizeHint@QWidget@@UBE?AVQSize@@XZ 004b5a6c     Qt5Widgetsd:Qt5Widgetsd.dll
 0004:00000a70       __imp_?mouseDoubleClickEvent@QAbstractItemView@@MAEXPAVQMouseEvent@@@Z 004b5a70     Qt5Widgetsd:Qt5Widgetsd.dll
 0004:00000a74       __imp_?mouseDoubleClickEvent@QTextEdit@@MAEXPAVQMouseEvent@@@Z 004b5a74     Qt5Widgetsd:Qt5Widgetsd.dll
 0004:00000a78       __imp_?mouseDoubleClickEvent@QTreeView@@MAEXPAVQMouseEvent@@@Z 004b5a78     Qt5Widgetsd:Qt5Widgetsd.dll
 0004:00000a7c       __imp_?mouseDoubleClickEvent@QWidget@@MAEXPAVQMouseEvent@@@Z 004b5a7c     Qt5Widgetsd:Qt5Widgetsd.dll
 0004:00000a80       __imp_?mouseMoveEvent@QAbstractButton@@MAEXPAVQMouseEvent@@@Z 004b5a80     Qt5Widgetsd:Qt5Widgetsd.dll
 0004:00000a84       __imp_?mouseMoveEvent@QGroupBox@@MAEXPAVQMouseEvent@@@Z 004b5a84     Qt5Widgetsd:Qt5Widgetsd.dll
 0004:00000a88       __imp_?mouseMoveEvent@QListView@@MAEXPAVQMouseEvent@@@Z 004b5a88     Qt5Widgetsd:Qt5Widgetsd.dll
 0004:00000a8c       __imp_?mouseMoveEvent@QMenu@@MAEXPAVQMouseEvent@@@Z 004b5a8c     Qt5Widgetsd:Qt5Widgetsd.dll
 0004:00000a90       __imp_?mouseMoveEvent@QMenuBar@@MAEXPAVQMouseEvent@@@Z 004b5a90     Qt5Widgetsd:Qt5Widgetsd.dll
 0004:00000a94       __imp_?mouseMoveEvent@QTextEdit@@MAEXPAVQMouseEvent@@@Z 004b5a94     Qt5Widgetsd:Qt5Widgetsd.dll
 0004:00000a98       __imp_?mouseMoveEvent@QTreeView@@MAEXPAVQMouseEvent@@@Z 004b5a98     Qt5Widgetsd:Qt5Widgetsd.dll
 0004:00000a9c       __imp_?mouseMoveEvent@QWidget@@MAEXPAVQMouseEvent@@@Z 004b5a9c     Qt5Widgetsd:Qt5Widgetsd.dll
 0004:00000aa0       __imp_?mousePressEvent@QAbstractButton@@MAEXPAVQMouseEvent@@@Z 004b5aa0     Qt5Widgetsd:Qt5Widgetsd.dll
 0004:00000aa4       __imp_?mousePressEvent@QAbstractItemView@@MAEXPAVQMouseEvent@@@Z 004b5aa4     Qt5Widgetsd:Qt5Widgetsd.dll
 0004:00000aa8       __imp_?mousePressEvent@QGroupBox@@MAEXPAVQMouseEvent@@@Z 004b5aa8     Qt5Widgetsd:Qt5Widgetsd.dll
 0004:00000aac       __imp_?mousePressEvent@QMenu@@MAEXPAVQMouseEvent@@@Z 004b5aac     Qt5Widgetsd:Qt5Widgetsd.dll
 0004:00000ab0       __imp_?mousePressEvent@QMenuBar@@MAEXPAVQMouseEvent@@@Z 004b5ab0     Qt5Widgetsd:Qt5Widgetsd.dll
 0004:00000ab4       __imp_?mousePressEvent@QTextEdit@@MAEXPAVQMouseEvent@@@Z 004b5ab4     Qt5Widgetsd:Qt5Widgetsd.dll
 0004:00000ab8       __imp_?mousePressEvent@QTreeView@@MAEXPAVQMouseEvent@@@Z 004b5ab8     Qt5Widgetsd:Qt5Widgetsd.dll
 0004:00000abc       __imp_?mousePressEvent@QWidget@@MAEXPAVQMouseEvent@@@Z 004b5abc     Qt5Widgetsd:Qt5Widgetsd.dll
 0004:00000ac0       __imp_?mouseReleaseEvent@QAbstractButton@@MAEXPAVQMouseEvent@@@Z 004b5ac0     Qt5Widgetsd:Qt5Widgetsd.dll
 0004:00000ac4       __imp_?mouseReleaseEvent@QGroupBox@@MAEXPAVQMouseEvent@@@Z 004b5ac4     Qt5Widgetsd:Qt5Widgetsd.dll
 0004:00000ac8       __imp_?mouseReleaseEvent@QListView@@MAEXPAVQMouseEvent@@@Z 004b5ac8     Qt5Widgetsd:Qt5Widgetsd.dll
 0004:00000acc       __imp_?mouseReleaseEvent@QMenu@@MAEXPAVQMouseEvent@@@Z 004b5acc     Qt5Widgetsd:Qt5Widgetsd.dll
 0004:00000ad0       __imp_?mouseReleaseEvent@QMenuBar@@MAEXPAVQMouseEvent@@@Z 004b5ad0     Qt5Widgetsd:Qt5Widgetsd.dll
 0004:00000ad4       __imp_?mouseReleaseEvent@QTextEdit@@MAEXPAVQMouseEvent@@@Z 004b5ad4     Qt5Widgetsd:Qt5Widgetsd.dll
 0004:00000ad8       __imp_?mouseReleaseEvent@QTreeView@@MAEXPAVQMouseEvent@@@Z 004b5ad8     Qt5Widgetsd:Qt5Widgetsd.dll
 0004:00000adc       __imp_?mouseReleaseEvent@QWidget@@MAEXPAVQMouseEvent@@@Z 004b5adc     Qt5Widgetsd:Qt5Widgetsd.dll
 0004:00000ae0       __imp_?moveCursor@QListView@@MAE?AVQModelIndex@@W4CursorAction@QAbstractItemView@@V?$QFlags@W4KeyboardModifier@Qt@@@@@Z 004b5ae0     Qt5Widgetsd:Qt5Widgetsd.dll
 0004:00000ae4       __imp_?moveCursor@QTreeView@@MAE?AVQModelIndex@@W4CursorAction@QAbstractItemView@@V?$QFlags@W4KeyboardModifier@Qt@@@@@Z 004b5ae4     Qt5Widgetsd:Qt5Widgetsd.dll
 0004:00000ae8       __imp_?moveEvent@QWidget@@MAEXPAVQMoveEvent@@@Z 004b5ae8     Qt5Widgetsd:Qt5Widgetsd.dll
 0004:00000aec       __imp_?nativeEvent@QWidget@@MAE_NABVQByteArray@@PAXPAJ@Z 004b5aec     Qt5Widgetsd:Qt5Widgetsd.dll
 0004:00000af0       __imp_?nextCheckState@QAbstractButton@@MAEXXZ 004b5af0     Qt5Widgetsd:Qt5Widgetsd.dll
 0004:00000af4       __imp_?paintEngine@QWidget@@UBEPAVQPaintEngine@@XZ 004b5af4     Qt5Widgetsd:Qt5Widgetsd.dll
 0004:00000af8       __imp_?paintEvent@QFrame@@MAEXPAVQPaintEvent@@@Z 004b5af8     Qt5Widgetsd:Qt5Widgetsd.dll
 0004:00000afc       __imp_?paintEvent@QGroupBox@@MAEXPAVQPaintEvent@@@Z 004b5afc     Qt5Widgetsd:Qt5Widgetsd.dll
 0004:00000b00       __imp_?paintEvent@QListView@@MAEXPAVQPaintEvent@@@Z 004b5b00     Qt5Widgetsd:Qt5Widgetsd.dll
 0004:00000b04       __imp_?paintEvent@QMenu@@MAEXPAVQPaintEvent@@@Z 004b5b04     Qt5Widgetsd:Qt5Widgetsd.dll
 0004:00000b08       __imp_?paintEvent@QMenuBar@@MAEXPAVQPaintEvent@@@Z 004b5b08     Qt5Widgetsd:Qt5Widgetsd.dll
 0004:00000b0c       __imp_?paintEvent@QPushButton@@MAEXPAVQPaintEvent@@@Z 004b5b0c     Qt5Widgetsd:Qt5Widgetsd.dll
 0004:00000b10       __imp_?paintEvent@QStatusBar@@MAEXPAVQPaintEvent@@@Z 004b5b10     Qt5Widgetsd:Qt5Widgetsd.dll
 0004:00000b14       __imp_?paintEvent@QTextEdit@@MAEXPAVQPaintEvent@@@Z 004b5b14     Qt5Widgetsd:Qt5Widgetsd.dll
 0004:00000b18       __imp_?paintEvent@QToolBar@@MAEXPAVQPaintEvent@@@Z 004b5b18     Qt5Widgetsd:Qt5Widgetsd.dll
 0004:00000b1c       __imp_?paintEvent@QTreeView@@MAEXPAVQPaintEvent@@@Z 004b5b1c     Qt5Widgetsd:Qt5Widgetsd.dll
 0004:00000b20       __imp_?paintEvent@QWidget@@MAEXPAVQPaintEvent@@@Z 004b5b20     Qt5Widgetsd:Qt5Widgetsd.dll
 0004:00000b24       __imp_?qt_metacall@QAction@@UAEHW4Call@QMetaObject@@HPAPAX@Z 004b5b24     Qt5Widgetsd:Qt5Widgetsd.dll
 0004:00000b28       __imp_?qt_metacall@QGroupBox@@UAEHW4Call@QMetaObject@@HPAPAX@Z 004b5b28     Qt5Widgetsd:Qt5Widgetsd.dll
 0004:00000b2c       __imp_?qt_metacall@QHBoxLayout@@UAEHW4Call@QMetaObject@@HPAPAX@Z 004b5b2c     Qt5Widgetsd:Qt5Widgetsd.dll
 0004:00000b30       __imp_?qt_metacall@QListWidget@@UAEHW4Call@QMetaObject@@HPAPAX@Z 004b5b30     Qt5Widgetsd:Qt5Widgetsd.dll
 0004:00000b34       __imp_?qt_metacall@QMenu@@UAEHW4Call@QMetaObject@@HPAPAX@Z 004b5b34     Qt5Widgetsd:Qt5Widgetsd.dll
 0004:00000b38       __imp_?qt_metacall@QMenuBar@@UAEHW4Call@QMetaObject@@HPAPAX@Z 004b5b38     Qt5Widgetsd:Qt5Widgetsd.dll
 0004:00000b3c       __imp_?qt_metacall@QPushButton@@UAEHW4Call@QMetaObject@@HPAPAX@Z 004b5b3c     Qt5Widgetsd:Qt5Widgetsd.dll
 0004:00000b40       __imp_?qt_metacall@QSplitter@@UAEHW4Call@QMetaObject@@HPAPAX@Z 004b5b40     Qt5Widgetsd:Qt5Widgetsd.dll
 0004:00000b44       __imp_?childEvent@QSplitter@@MAEXPAVQChildEvent@@@Z 004b5b44     Qt5Widgetsd:Qt5Widgetsd.dll
 0004:00000b48       __imp_?qt_metacall@QTextEdit@@UAEHW4Call@QMetaObject@@HPAPAX@Z 004b5b48     Qt5Widgetsd:Qt5Widgetsd.dll
 0004:00000b4c       __imp_?qt_metacall@QToolBar@@UAEHW4Call@QMetaObject@@HPAPAX@Z 004b5b4c     Qt5Widgetsd:Qt5Widgetsd.dll
 0004:00000b50       __imp_?qt_metacall@QTreeWidget@@UAEHW4Call@QMetaObject@@HPAPAX@Z 004b5b50     Qt5Widgetsd:Qt5Widgetsd.dll
 0004:00000b54       __imp_?qt_metacall@QVBoxLayout@@UAEHW4Call@QMetaObject@@HPAPAX@Z 004b5b54     Qt5Widgetsd:Qt5Widgetsd.dll
 0004:00000b58       __imp_?qt_metacall@QWidget@@UAEHW4Call@QMetaObject@@HPAPAX@Z 004b5b58     Qt5Widgetsd:Qt5Widgetsd.dll
 0004:00000b5c       __imp_?qt_metacast@QAction@@UAEPAXPBD@Z 004b5b5c     Qt5Widgetsd:Qt5Widgetsd.dll
 0004:00000b60       __imp_?qt_metacast@QGroupBox@@UAEPAXPBD@Z 004b5b60     Qt5Widgetsd:Qt5Widgetsd.dll
 0004:00000b64       __imp_?qt_metacast@QHBoxLayout@@UAEPAXPBD@Z 004b5b64     Qt5Widgetsd:Qt5Widgetsd.dll
 0004:00000b68       __imp_?qt_metacast@QListWidget@@UAEPAXPBD@Z 004b5b68     Qt5Widgetsd:Qt5Widgetsd.dll
 0004:00000b6c       __imp_?qt_metacast@QMenu@@UAEPAXPBD@Z 004b5b6c     Qt5Widgetsd:Qt5Widgetsd.dll
 0004:00000b70       __imp_?qt_metacast@QMenuBar@@UAEPAXPBD@Z 004b5b70     Qt5Widgetsd:Qt5Widgetsd.dll
 0004:00000b74       __imp_?qt_metacast@QPushButton@@UAEPAXPBD@Z 004b5b74     Qt5Widgetsd:Qt5Widgetsd.dll
 0004:00000b78       __imp_?qt_metacast@QSplitter@@UAEPAXPBD@Z 004b5b78     Qt5Widgetsd:Qt5Widgetsd.dll
 0004:00000b7c       __imp_?qt_metacast@QStatusBar@@UAEPAXPBD@Z 004b5b7c     Qt5Widgetsd:Qt5Widgetsd.dll
 0004:00000b80       __imp_?qt_metacast@QTextEdit@@UAEPAXPBD@Z 004b5b80     Qt5Widgetsd:Qt5Widgetsd.dll
 0004:00000b84       __imp_?qt_metacast@QToolBar@@UAEPAXPBD@Z 004b5b84     Qt5Widgetsd:Qt5Widgetsd.dll
 0004:00000b88       __imp_?qt_metacast@QTreeWidget@@UAEPAXPBD@Z 004b5b88     Qt5Widgetsd:Qt5Widgetsd.dll
 0004:00000b8c       __imp_?qt_metacast@QVBoxLayout@@UAEPAXPBD@Z 004b5b8c     Qt5Widgetsd:Qt5Widgetsd.dll
 0004:00000b90       __imp_?qt_metacast@QWidget@@UAEPAXPBD@Z 004b5b90     Qt5Widgetsd:Qt5Widgetsd.dll
 0004:00000b94       __imp_?read@QListWidgetItem@@UAEXAAVQDataStream@@@Z 004b5b94     Qt5Widgetsd:Qt5Widgetsd.dll
 0004:00000b98       __imp_?redirected@QWidget@@MBEPAVQPaintDevice@@PAVQPoint@@@Z 004b5b98     Qt5Widgetsd:Qt5Widgetsd.dll
 0004:00000b9c       __imp_?reset@QListView@@UAEXXZ 004b5b9c     Qt5Widgetsd:Qt5Widgetsd.dll
 0004:00000ba0       __imp_?reset@QTreeView@@UAEXXZ 004b5ba0     Qt5Widgetsd:Qt5Widgetsd.dll
 0004:00000ba4       __imp_?resizeEvent@QAbstractItemView@@MAEXPAVQResizeEvent@@@Z 004b5ba4     Qt5Widgetsd:Qt5Widgetsd.dll
 0004:00000ba8       __imp_?resizeEvent@QGroupBox@@MAEXPAVQResizeEvent@@@Z 004b5ba8     Qt5Widgetsd:Qt5Widgetsd.dll
 0004:00000bac       __imp_?resizeEvent@QListView@@MAEXPAVQResizeEvent@@@Z 004b5bac     Qt5Widgetsd:Qt5Widgetsd.dll
 0004:00000bb0       __imp_?resizeEvent@QMenuBar@@MAEXPAVQResizeEvent@@@Z 004b5bb0     Qt5Widgetsd:Qt5Widgetsd.dll
 0004:00000bb4       __imp_?resizeEvent@QSplitter@@MAEXPAVQResizeEvent@@@Z 004b5bb4     Qt5Widgetsd:Qt5Widgetsd.dll
 0004:00000bb8       __imp_?resizeEvent@QStatusBar@@MAEXPAVQResizeEvent@@@Z 004b5bb8     Qt5Widgetsd:Qt5Widgetsd.dll
 0004:00000bbc       __imp_?resizeEvent@QTextEdit@@MAEXPAVQResizeEvent@@@Z 004b5bbc     Qt5Widgetsd:Qt5Widgetsd.dll
 0004:00000bc0       __imp_?resizeEvent@QWidget@@MAEXPAVQResizeEvent@@@Z 004b5bc0     Qt5Widgetsd:Qt5Widgetsd.dll
 0004:00000bc4       __imp_?rowsAboutToBeRemoved@QListView@@MAEXABVQModelIndex@@HH@Z 004b5bc4     Qt5Widgetsd:Qt5Widgetsd.dll
 0004:00000bc8       __imp_?rowsAboutToBeRemoved@QTreeView@@MAEXABVQModelIndex@@HH@Z 004b5bc8     Qt5Widgetsd:Qt5Widgetsd.dll
 0004:00000bcc       __imp_?rowsInserted@QListView@@MAEXABVQModelIndex@@HH@Z 004b5bcc     Qt5Widgetsd:Qt5Widgetsd.dll
 0004:00000bd0       __imp_?rowsInserted@QTreeView@@MAEXABVQModelIndex@@HH@Z 004b5bd0     Qt5Widgetsd:Qt5Widgetsd.dll
 0004:00000bd4       __imp_?scrollContentsBy@QListView@@MAEXHH@Z 004b5bd4     Qt5Widgetsd:Qt5Widgetsd.dll
 0004:00000bd8       __imp_?scrollContentsBy@QTextEdit@@MAEXHH@Z 004b5bd8     Qt5Widgetsd:Qt5Widgetsd.dll
 0004:00000bdc       __imp_?scrollContentsBy@QTreeView@@MAEXHH@Z 004b5bdc     Qt5Widgetsd:Qt5Widgetsd.dll
 0004:00000be0       __imp_?scrollTo@QListView@@UAEXABVQModelIndex@@W4ScrollHint@QAbstractItemView@@@Z 004b5be0     Qt5Widgetsd:Qt5Widgetsd.dll
 0004:00000be4       __imp_?scrollTo@QTreeView@@UAEXABVQModelIndex@@W4ScrollHint@QAbstractItemView@@@Z 004b5be4     Qt5Widgetsd:Qt5Widgetsd.dll
 0004:00000be8       __imp_?selectAll@QAbstractItemView@@UAEXXZ 004b5be8     Qt5Widgetsd:Qt5Widgetsd.dll
 0004:00000bec       __imp_?selectAll@QTreeView@@UAEXXZ 004b5bec     Qt5Widgetsd:Qt5Widgetsd.dll
 0004:00000bf0       __imp_?selectedIndexes@QListView@@MBE?AV?$QList@VQModelIndex@@@@XZ 004b5bf0     Qt5Widgetsd:Qt5Widgetsd.dll
 0004:00000bf4       __imp_?selectedIndexes@QTreeView@@MBE?AV?$QList@VQModelIndex@@@@XZ 004b5bf4     Qt5Widgetsd:Qt5Widgetsd.dll
 0004:00000bf8       __imp_?selectionChanged@QListView@@MAEXABVQItemSelection@@0@Z 004b5bf8     Qt5Widgetsd:Qt5Widgetsd.dll
 0004:00000bfc       __imp_?selectionChanged@QTreeView@@MAEXABVQItemSelection@@0@Z 004b5bfc     Qt5Widgetsd:Qt5Widgetsd.dll
 0004:00000c00       __imp_?selectionCommand@QAbstractItemView@@MBE?AV?$QFlags@W4SelectionFlag@QItemSelectionModel@@@@ABVQModelIndex@@PBVQEvent@@@Z 004b5c00     Qt5Widgetsd:Qt5Widgetsd.dll
 0004:00000c04       __imp_?setBackgroundColor@QListWidgetItem@@UAEXABVQColor@@@Z 004b5c04     Qt5Widgetsd:Qt5Widgetsd.dll
 0004:00000c08       __imp_?setData@QListWidgetItem@@UAEXHABVQVariant@@@Z 004b5c08     Qt5Widgetsd:Qt5Widgetsd.dll
 0004:00000c0c       __imp_?setGeometry@QBoxLayout@@UAEXABVQRect@@@Z 004b5c0c     Qt5Widgetsd:Qt5Widgetsd.dll
 0004:00000c10       __imp_?setGeometry@QSpacerItem@@UAEXABVQRect@@@Z 004b5c10     Qt5Widgetsd:Qt5Widgetsd.dll
 0004:00000c14       __imp_?setModel@QListWidget@@EAEXPAVQAbstractItemModel@@@Z 004b5c14     Qt5Widgetsd:Qt5Widgetsd.dll
 0004:00000c18       __imp_?setModel@QTreeWidget@@EAEXPAVQAbstractItemModel@@@Z 004b5c18     Qt5Widgetsd:Qt5Widgetsd.dll
 0004:00000c1c       __imp_?setRootIndex@QListView@@UAEXABVQModelIndex@@@Z 004b5c1c     Qt5Widgetsd:Qt5Widgetsd.dll
 0004:00000c20       __imp_?setRootIndex@QTreeView@@UAEXABVQModelIndex@@@Z 004b5c20     Qt5Widgetsd:Qt5Widgetsd.dll
 0004:00000c24       __imp_?setSelection@QListView@@MAEXABVQRect@@V?$QFlags@W4SelectionFlag@QItemSelectionModel@@@@@Z 004b5c24     Qt5Widgetsd:Qt5Widgetsd.dll
 0004:00000c28       __imp_?setSelection@QTreeView@@MAEXABVQRect@@V?$QFlags@W4SelectionFlag@QItemSelectionModel@@@@@Z 004b5c28     Qt5Widgetsd:Qt5Widgetsd.dll
 0004:00000c2c       __imp_?setSelectionModel@QListWidget@@UAEXPAVQItemSelectionModel@@@Z 004b5c2c     Qt5Widgetsd:Qt5Widgetsd.dll
 0004:00000c30       __imp_?setSelectionModel@QTreeWidget@@UAEXPAVQItemSelectionModel@@@Z 004b5c30     Qt5Widgetsd:Qt5Widgetsd.dll
 0004:00000c34       __imp_?setVisible@QMenuBar@@UAEX_N@Z 004b5c34     Qt5Widgetsd:Qt5Widgetsd.dll
 0004:00000c38       __imp_?setVisible@QWidget@@UAEX_N@Z 004b5c38     Qt5Widgetsd:Qt5Widgetsd.dll
 0004:00000c3c       __imp_?setupViewport@QAbstractScrollArea@@UAEXPAVQWidget@@@Z 004b5c3c     Qt5Widgetsd:Qt5Widgetsd.dll
 0004:00000c40       __imp_?sharedPainter@QWidget@@MBEPAVQPainter@@XZ 004b5c40     Qt5Widgetsd:Qt5Widgetsd.dll
 0004:00000c44       __imp_?showEvent@QStatusBar@@MAEXPAVQShowEvent@@@Z 004b5c44     Qt5Widgetsd:Qt5Widgetsd.dll
 0004:00000c48       __imp_?showEvent@QTextEdit@@MAEXPAVQShowEvent@@@Z 004b5c48     Qt5Widgetsd:Qt5Widgetsd.dll
 0004:00000c4c       __imp_?showEvent@QWidget@@MAEXPAVQShowEvent@@@Z 004b5c4c     Qt5Widgetsd:Qt5Widgetsd.dll
 0004:00000c50       __imp_?sizeHint@QAbstractScrollArea@@UBE?AVQSize@@XZ 004b5c50     Qt5Widgetsd:Qt5Widgetsd.dll
 0004:00000c54       __imp_?sizeHint@QBoxLayout@@UBE?AVQSize@@XZ 004b5c54     Qt5Widgetsd:Qt5Widgetsd.dll
 0004:00000c58       __imp_?sizeHint@QMenu@@UBE?AVQSize@@XZ 004b5c58     Qt5Widgetsd:Qt5Widgetsd.dll
 0004:00000c5c       __imp_?sizeHint@QMenuBar@@UBE?AVQSize@@XZ 004b5c5c     Qt5Widgetsd:Qt5Widgetsd.dll
 0004:00000c60       __imp_?sizeHint@QPushButton@@UBE?AVQSize@@XZ 004b5c60     Qt5Widgetsd:Qt5Widgetsd.dll
 0004:00000c64       __imp_?sizeHint@QSpacerItem@@UBE?AVQSize@@XZ 004b5c64     Qt5Widgetsd:Qt5Widgetsd.dll
 0004:00000c68       __imp_?sizeHint@QSplitter@@UBE?AVQSize@@XZ 004b5c68     Qt5Widgetsd:Qt5Widgetsd.dll
 0004:00000c6c       __imp_?sizeHint@QWidget@@UBE?AVQSize@@XZ 004b5c6c     Qt5Widgetsd:Qt5Widgetsd.dll
 0004:00000c70       __imp_?sizeHintForColumn@QAbstractItemView@@UBEHH@Z 004b5c70     Qt5Widgetsd:Qt5Widgetsd.dll
 0004:00000c74       __imp_?sizeHintForColumn@QTreeView@@MBEHH@Z 004b5c74     Qt5Widgetsd:Qt5Widgetsd.dll
 0004:00000c78       __imp_?sizeHintForRow@QAbstractItemView@@UBEHH@Z 004b5c78     Qt5Widgetsd:Qt5Widgetsd.dll
 0004:00000c7c       __imp_?spacerItem@QLayoutItem@@UAEPAVQSpacerItem@@XZ 004b5c7c     Qt5Widgetsd:Qt5Widgetsd.dll
 0004:00000c80       __imp_?spacerItem@QSpacerItem@@UAEPAV1@XZ 004b5c80     Qt5Widgetsd:Qt5Widgetsd.dll
 0004:00000c84       __imp_?startDrag@QAbstractItemView@@MAEXV?$QFlags@W4DropAction@Qt@@@@@Z 004b5c84     Qt5Widgetsd:Qt5Widgetsd.dll
 0004:00000c88       __imp_?startDrag@QListView@@MAEXV?$QFlags@W4DropAction@Qt@@@@@Z 004b5c88     Qt5Widgetsd:Qt5Widgetsd.dll
 0004:00000c8c       __imp_?supportedDropActions@QListWidget@@MBE?AV?$QFlags@W4DropAction@Qt@@@@XZ 004b5c8c     Qt5Widgetsd:Qt5Widgetsd.dll
 0004:00000c90       __imp_?supportedDropActions@QTreeWidget@@MBE?AV?$QFlags@W4DropAction@Qt@@@@XZ 004b5c90     Qt5Widgetsd:Qt5Widgetsd.dll
 0004:00000c94       __imp_?tabletEvent@QWidget@@MAEXPAVQTabletEvent@@@Z 004b5c94     Qt5Widgetsd:Qt5Widgetsd.dll
 0004:00000c98       __imp_?takeAt@QBoxLayout@@UAEPAVQLayoutItem@@H@Z 004b5c98     Qt5Widgetsd:Qt5Widgetsd.dll
 0004:00000c9c       __imp_?timerEvent@QAbstractButton@@MAEXPAVQTimerEvent@@@Z 004b5c9c     Qt5Widgetsd:Qt5Widgetsd.dll
 0004:00000ca0       __imp_?timerEvent@QListView@@MAEXPAVQTimerEvent@@@Z 004b5ca0     Qt5Widgetsd:Qt5Widgetsd.dll
 0004:00000ca4       __imp_?timerEvent@QMenu@@MAEXPAVQTimerEvent@@@Z 004b5ca4     Qt5Widgetsd:Qt5Widgetsd.dll
 0004:00000ca8       __imp_?timerEvent@QMenuBar@@MAEXPAVQTimerEvent@@@Z 004b5ca8     Qt5Widgetsd:Qt5Widgetsd.dll
 0004:00000cac       __imp_?timerEvent@QTextEdit@@MAEXPAVQTimerEvent@@@Z 004b5cac     Qt5Widgetsd:Qt5Widgetsd.dll
 0004:00000cb0       __imp_?timerEvent@QTreeView@@MAEXPAVQTimerEvent@@@Z 004b5cb0     Qt5Widgetsd:Qt5Widgetsd.dll
 0004:00000cb4       __imp_?updateEditorData@QAbstractItemView@@MAEXXZ 004b5cb4     Qt5Widgetsd:Qt5Widgetsd.dll
 0004:00000cb8       __imp_?updateEditorGeometries@QAbstractItemView@@MAEXXZ 004b5cb8     Qt5Widgetsd:Qt5Widgetsd.dll
 0004:00000cbc       __imp_?updateGeometries@QListView@@MAEXXZ 004b5cbc     Qt5Widgetsd:Qt5Widgetsd.dll
 0004:00000cc0       __imp_?updateGeometries@QTreeView@@MAEXXZ 004b5cc0     Qt5Widgetsd:Qt5Widgetsd.dll
 0004:00000cc4       __imp_?verticalOffset@QListView@@MBEHXZ 004b5cc4     Qt5Widgetsd:Qt5Widgetsd.dll
 0004:00000cc8       __imp_?verticalOffset@QTreeView@@MBEHXZ 004b5cc8     Qt5Widgetsd:Qt5Widgetsd.dll
 0004:00000ccc       __imp_?verticalScrollbarAction@QAbstractItemView@@MAEXH@Z 004b5ccc     Qt5Widgetsd:Qt5Widgetsd.dll
 0004:00000cd0       __imp_?verticalScrollbarValueChanged@QAbstractItemView@@MAEXH@Z 004b5cd0     Qt5Widgetsd:Qt5Widgetsd.dll
 0004:00000cd4       __imp_?viewOptions@QAbstractItemView@@MBE?AVQStyleOptionViewItem@@XZ 004b5cd4     Qt5Widgetsd:Qt5Widgetsd.dll
 0004:00000cd8       __imp_?viewOptions@QListView@@MBE?AVQStyleOptionViewItem@@XZ 004b5cd8     Qt5Widgetsd:Qt5Widgetsd.dll
 0004:00000cdc       __imp_?viewportEvent@QAbstractItemView@@MAE_NPAVQEvent@@@Z 004b5cdc     Qt5Widgetsd:Qt5Widgetsd.dll
 0004:00000ce0       __imp_?viewportEvent@QAbstractScrollArea@@MAE_NPAVQEvent@@@Z 004b5ce0     Qt5Widgetsd:Qt5Widgetsd.dll
 0004:00000ce4       __imp_?viewportEvent@QTreeView@@MAE_NPAVQEvent@@@Z 004b5ce4     Qt5Widgetsd:Qt5Widgetsd.dll
 0004:00000ce8       __imp_?viewportSizeHint@QAbstractScrollArea@@MBE?AVQSize@@XZ 004b5ce8     Qt5Widgetsd:Qt5Widgetsd.dll
 0004:00000cec       __imp_?viewportSizeHint@QListView@@MBE?AVQSize@@XZ 004b5cec     Qt5Widgetsd:Qt5Widgetsd.dll
 0004:00000cf0       __imp_?viewportSizeHint@QTreeView@@MBE?AVQSize@@XZ 004b5cf0     Qt5Widgetsd:Qt5Widgetsd.dll
 0004:00000cf4       __imp_?visualRect@QListView@@UBE?AVQRect@@ABVQModelIndex@@@Z 004b5cf4     Qt5Widgetsd:Qt5Widgetsd.dll
 0004:00000cf8       __imp_?visualRect@QTreeView@@UBE?AVQRect@@ABVQModelIndex@@@Z 004b5cf8     Qt5Widgetsd:Qt5Widgetsd.dll
 0004:00000cfc       __imp_?visualRegionForSelection@QListView@@MBE?AVQRegion@@ABVQItemSelection@@@Z 004b5cfc     Qt5Widgetsd:Qt5Widgetsd.dll
 0004:00000d00       __imp_?visualRegionForSelection@QTreeView@@MBE?AVQRegion@@ABVQItemSelection@@@Z 004b5d00     Qt5Widgetsd:Qt5Widgetsd.dll
 0004:00000d04       __imp_?wheelEvent@QAbstractScrollArea@@MAEXPAVQWheelEvent@@@Z 004b5d04     Qt5Widgetsd:Qt5Widgetsd.dll
 0004:00000d08       __imp_?wheelEvent@QListView@@MAEXPAVQWheelEvent@@@Z 004b5d08     Qt5Widgetsd:Qt5Widgetsd.dll
 0004:00000d0c       __imp_?wheelEvent@QMenu@@MAEXPAVQWheelEvent@@@Z 004b5d0c     Qt5Widgetsd:Qt5Widgetsd.dll
 0004:00000d10       __imp_?wheelEvent@QTextEdit@@MAEXPAVQWheelEvent@@@Z 004b5d10     Qt5Widgetsd:Qt5Widgetsd.dll
 0004:00000d14       __imp_?wheelEvent@QWidget@@MAEXPAVQWheelEvent@@@Z 004b5d14     Qt5Widgetsd:Qt5Widgetsd.dll
 0004:00000d18       __imp_?widget@QLayoutItem@@UAEPAVQWidget@@XZ 004b5d18     Qt5Widgetsd:Qt5Widgetsd.dll
 0004:00000d1c       __imp_?write@QListWidgetItem@@UBEXAAVQDataStream@@@Z 004b5d1c     Qt5Widgetsd:Qt5Widgetsd.dll
 0004:00000d20       __imp_??0QDialog@@QAE@PAVQWidget@@V?$QFlags@W4WindowType@Qt@@@@@Z 004b5d20     Qt5Widgetsd:Qt5Widgetsd.dll
 0004:00000d24       __imp_??1QDialog@@UAE@XZ   004b5d24     Qt5Widgetsd:Qt5Widgetsd.dll
 0004:00000d28       __imp_??0QLabel@@QAE@PAVQWidget@@V?$QFlags@W4WindowType@Qt@@@@@Z 004b5d28     Qt5Widgetsd:Qt5Widgetsd.dll
 0004:00000d2c       __imp_??1QLabel@@UAE@XZ    004b5d2c     Qt5Widgetsd:Qt5Widgetsd.dll
 0004:00000d30       __imp_?setText@QLabel@@QAEXABVQString@@@Z 004b5d30     Qt5Widgetsd:Qt5Widgetsd.dll
 0004:00000d34       __imp_??0QTreeWidgetItem@@QAE@PAVQTreeWidget@@H@Z 004b5d34     Qt5Widgetsd:Qt5Widgetsd.dll
 0004:00000d38       __imp_?text@QTreeWidgetItem@@QBE?AVQString@@H@Z 004b5d38     Qt5Widgetsd:Qt5Widgetsd.dll
 0004:00000d3c       __imp_?currentItem@QTreeWidget@@QBEPAVQTreeWidgetItem@@XZ 004b5d3c     Qt5Widgetsd:Qt5Widgetsd.dll
 0004:00000d40       __imp_?getText@QInputDialog@@SA?AVQString@@PAVQWidget@@ABV2@1W4EchoMode@QLineEdit@@1PA_NV?$QFlags@W4WindowType@Qt@@@@V?$QFlags@W4InputMethodHint@Qt@@@@@Z 004b5d40     Qt5Widgetsd:Qt5Widgetsd.dll
 0004:00000d44       __imp_?accept@QDialog@@UAEXXZ 004b5d44     Qt5Widgetsd:Qt5Widgetsd.dll
 0004:00000d48       __imp_?changeEvent@QLabel@@MAEXPAVQEvent@@@Z 004b5d48     Qt5Widgetsd:Qt5Widgetsd.dll
 0004:00000d4c       __imp_?closeEvent@QDialog@@MAEXPAVQCloseEvent@@@Z 004b5d4c     Qt5Widgetsd:Qt5Widgetsd.dll
 0004:00000d50       __imp_?contextMenuEvent@QDialog@@MAEXPAVQContextMenuEvent@@@Z 004b5d50     Qt5Widgetsd:Qt5Widgetsd.dll
 0004:00000d54       __imp_?contextMenuEvent@QLabel@@MAEXPAVQContextMenuEvent@@@Z 004b5d54     Qt5Widgetsd:Qt5Widgetsd.dll
 0004:00000d58       __imp_?done@QDialog@@UAEXH@Z 004b5d58     Qt5Widgetsd:Qt5Widgetsd.dll
 0004:00000d5c       __imp_?event@QLabel@@MAE_NPAVQEvent@@@Z 004b5d5c     Qt5Widgetsd:Qt5Widgetsd.dll
 0004:00000d60       __imp_?eventFilter@QDialog@@MAE_NPAVQObject@@PAVQEvent@@@Z 004b5d60     Qt5Widgetsd:Qt5Widgetsd.dll
 0004:00000d64       __imp_?focusInEvent@QLabel@@MAEXPAVQFocusEvent@@@Z 004b5d64     Qt5Widgetsd:Qt5Widgetsd.dll
 0004:00000d68       __imp_?focusNextPrevChild@QLabel@@MAE_N_N@Z 004b5d68     Qt5Widgetsd:Qt5Widgetsd.dll
 0004:00000d6c       __imp_?focusOutEvent@QLabel@@MAEXPAVQFocusEvent@@@Z 004b5d6c     Qt5Widgetsd:Qt5Widgetsd.dll
 0004:00000d70       __imp_?heightForWidth@QLabel@@UBEHH@Z 004b5d70     Qt5Widgetsd:Qt5Widgetsd.dll
 0004:00000d74       __imp_?keyPressEvent@QDialog@@MAEXPAVQKeyEvent@@@Z 004b5d74     Qt5Widgetsd:Qt5Widgetsd.dll
 0004:00000d78       __imp_?keyPressEvent@QLabel@@MAEXPAVQKeyEvent@@@Z 004b5d78     Qt5Widgetsd:Qt5Widgetsd.dll
 0004:00000d7c       __imp_?metaObject@QLabel@@UBEPBUQMetaObject@@XZ 004b5d7c     Qt5Widgetsd:Qt5Widgetsd.dll
 0004:00000d80       __imp_?minimumSizeHint@QDialog@@UBE?AVQSize@@XZ 004b5d80     Qt5Widgetsd:Qt5Widgetsd.dll
 0004:00000d84       __imp_?minimumSizeHint@QLabel@@UBE?AVQSize@@XZ 004b5d84     Qt5Widgetsd:Qt5Widgetsd.dll
 0004:00000d88       __imp_?mouseMoveEvent@QLabel@@MAEXPAVQMouseEvent@@@Z 004b5d88     Qt5Widgetsd:Qt5Widgetsd.dll
 0004:00000d8c       __imp_?mousePressEvent@QLabel@@MAEXPAVQMouseEvent@@@Z 004b5d8c     Qt5Widgetsd:Qt5Widgetsd.dll
 0004:00000d90       __imp_?mouseReleaseEvent@QLabel@@MAEXPAVQMouseEvent@@@Z 004b5d90     Qt5Widgetsd:Qt5Widgetsd.dll
 0004:00000d94       __imp_?open@QDialog@@UAEXXZ 004b5d94     Qt5Widgetsd:Qt5Widgetsd.dll
 0004:00000d98       __imp_?paintEvent@QLabel@@MAEXPAVQPaintEvent@@@Z 004b5d98     Qt5Widgetsd:Qt5Widgetsd.dll
 0004:00000d9c       __imp_?qt_metacall@QLabel@@UAEHW4Call@QMetaObject@@HPAPAX@Z 004b5d9c     Qt5Widgetsd:Qt5Widgetsd.dll
 0004:00000da0       __imp_?qt_metacast@QLabel@@UAEPAXPBD@Z 004b5da0     Qt5Widgetsd:Qt5Widgetsd.dll
 0004:00000da4       __imp_?reject@QDialog@@UAEXXZ 004b5da4     Qt5Widgetsd:Qt5Widgetsd.dll
 0004:00000da8       __imp_?resizeEvent@QDialog@@MAEXPAVQResizeEvent@@@Z 004b5da8     Qt5Widgetsd:Qt5Widgetsd.dll
 0004:00000dac       __imp_?setVisible@QDialog@@UAEX_N@Z 004b5dac     Qt5Widgetsd:Qt5Widgetsd.dll
 0004:00000db0       __imp_?showEvent@QDialog@@MAEXPAVQShowEvent@@@Z 004b5db0     Qt5Widgetsd:Qt5Widgetsd.dll
 0004:00000db4       __imp_?sizeHint@QDialog@@UBE?AVQSize@@XZ 004b5db4     Qt5Widgetsd:Qt5Widgetsd.dll
 0004:00000db8       __imp_?sizeHint@QLabel@@UBE?AVQSize@@XZ 004b5db8     Qt5Widgetsd:Qt5Widgetsd.dll
 0004:00000dbc       __imp_??0QDialogButtonBox@@QAE@PAVQWidget@@@Z 004b5dbc     Qt5Widgetsd:Qt5Widgetsd.dll
 0004:00000dc0       __imp_??1QDialogButtonBox@@UAE@XZ 004b5dc0     Qt5Widgetsd:Qt5Widgetsd.dll
 0004:00000dc4       __imp_?setStandardButtons@QDialogButtonBox@@QAEXV?$QFlags@W4StandardButton@QDialogButtonBox@@@@@Z 004b5dc4     Qt5Widgetsd:Qt5Widgetsd.dll
 0004:00000dc8       __imp_??0QVBoxLayout@@QAE@XZ 004b5dc8     Qt5Widgetsd:Qt5Widgetsd.dll
 0004:00000dcc       __imp_?setDocument@QTextEdit@@QAEXPAVQTextDocument@@@Z 004b5dcc     Qt5Widgetsd:Qt5Widgetsd.dll
 0004:00000dd0       __imp_??0QToolButton@@QAE@PAVQWidget@@@Z 004b5dd0     Qt5Widgetsd:Qt5Widgetsd.dll
 0004:00000dd4       __imp_??1QToolButton@@UAE@XZ 004b5dd4     Qt5Widgetsd:Qt5Widgetsd.dll
 0004:00000dd8       __imp_?actionEvent@QToolButton@@MAEXPAVQActionEvent@@@Z 004b5dd8     Qt5Widgetsd:Qt5Widgetsd.dll
 0004:00000ddc       __imp_?changeEvent@QDialogButtonBox@@MAEXPAVQEvent@@@Z 004b5ddc     Qt5Widgetsd:Qt5Widgetsd.dll
 0004:00000de0       __imp_?changeEvent@QToolButton@@MAEXPAVQEvent@@@Z 004b5de0     Qt5Widgetsd:Qt5Widgetsd.dll
 0004:00000de4       __imp_?enterEvent@QToolButton@@MAEXPAVQEvent@@@Z 004b5de4     Qt5Widgetsd:Qt5Widgetsd.dll
 0004:00000de8       __imp_?event@QDialogButtonBox@@MAE_NPAVQEvent@@@Z 004b5de8     Qt5Widgetsd:Qt5Widgetsd.dll
 0004:00000dec       __imp_?event@QToolButton@@MAE_NPAVQEvent@@@Z 004b5dec     Qt5Widgetsd:Qt5Widgetsd.dll
 0004:00000df0       __imp_?focusInEvent@QAbstractButton@@MAEXPAVQFocusEvent@@@Z 004b5df0     Qt5Widgetsd:Qt5Widgetsd.dll
 0004:00000df4       __imp_?focusOutEvent@QAbstractButton@@MAEXPAVQFocusEvent@@@Z 004b5df4     Qt5Widgetsd:Qt5Widgetsd.dll
 0004:00000df8       __imp_?hitButton@QToolButton@@MBE_NABVQPoint@@@Z 004b5df8     Qt5Widgetsd:Qt5Widgetsd.dll
 0004:00000dfc       __imp_?keyPressEvent@QAbstractButton@@MAEXPAVQKeyEvent@@@Z 004b5dfc     Qt5Widgetsd:Qt5Widgetsd.dll
 0004:00000e00       __imp_?leaveEvent@QToolButton@@MAEXPAVQEvent@@@Z 004b5e00     Qt5Widgetsd:Qt5Widgetsd.dll
 0004:00000e04       __imp_?metaObject@QDialogButtonBox@@UBEPBUQMetaObject@@XZ 004b5e04     Qt5Widgetsd:Qt5Widgetsd.dll
 0004:00000e08       __imp_?metaObject@QToolButton@@UBEPBUQMetaObject@@XZ 004b5e08     Qt5Widgetsd:Qt5Widgetsd.dll
 0004:00000e0c       __imp_?minimumSizeHint@QToolButton@@UBE?AVQSize@@XZ 004b5e0c     Qt5Widgetsd:Qt5Widgetsd.dll
 0004:00000e10       __imp_?mousePressEvent@QToolButton@@MAEXPAVQMouseEvent@@@Z 004b5e10     Qt5Widgetsd:Qt5Widgetsd.dll
 0004:00000e14       __imp_?mouseReleaseEvent@QToolButton@@MAEXPAVQMouseEvent@@@Z 004b5e14     Qt5Widgetsd:Qt5Widgetsd.dll
 0004:00000e18       __imp_?nextCheckState@QToolButton@@MAEXXZ 004b5e18     Qt5Widgetsd:Qt5Widgetsd.dll
 0004:00000e1c       __imp_?paintEvent@QToolButton@@MAEXPAVQPaintEvent@@@Z 004b5e1c     Qt5Widgetsd:Qt5Widgetsd.dll
 0004:00000e20       __imp_?qt_metacall@QDialogButtonBox@@UAEHW4Call@QMetaObject@@HPAPAX@Z 004b5e20     Qt5Widgetsd:Qt5Widgetsd.dll
 0004:00000e24       __imp_?qt_metacall@QToolButton@@UAEHW4Call@QMetaObject@@HPAPAX@Z 004b5e24     Qt5Widgetsd:Qt5Widgetsd.dll
 0004:00000e28       __imp_?qt_metacast@QDialogButtonBox@@UAEPAXPBD@Z 004b5e28     Qt5Widgetsd:Qt5Widgetsd.dll
 0004:00000e2c       __imp_?qt_metacast@QToolButton@@UAEPAXPBD@Z 004b5e2c     Qt5Widgetsd:Qt5Widgetsd.dll
 0004:00000e30       __imp_?sizeHint@QToolButton@@UBE?AVQSize@@XZ 004b5e30     Qt5Widgetsd:Qt5Widgetsd.dll
 0004:00000e34       __imp_?timerEvent@QToolButton@@MAEXPAVQTimerEvent@@@Z 004b5e34     Qt5Widgetsd:Qt5Widgetsd.dll
 0004:00000e38       __imp_?setWordWrap@QLabel@@QAEX_N@Z 004b5e38     Qt5Widgetsd:Qt5Widgetsd.dll
 0004:00000e3c       __imp_?metaObject@QDialog@@UBEPBUQMetaObject@@XZ 004b5e3c     Qt5Widgetsd:Qt5Widgetsd.dll
 0004:00000e40       __imp_?hasHeightForWidth@QSizePolicy@@QBE_NXZ 004b5e40     Qt5Widgetsd:Qt5Widgetsd.dll
 0004:00000e44       __imp_?setHeightForWidth@QSizePolicy@@QAEX_N@Z 004b5e44     Qt5Widgetsd:Qt5Widgetsd.dll
 0004:00000e48       __imp_??0QSizePolicy@@QAE@W4Policy@0@0W4ControlType@0@@Z 004b5e48     Qt5Widgetsd:Qt5Widgetsd.dll
 0004:00000e4c       __imp_?exec@QApplication@@SAHXZ 004b5e4c     Qt5Widgetsd:Qt5Widgetsd.dll
 0004:00000e50       __imp_??1QApplication@@UAE@XZ 004b5e50     Qt5Widgetsd:Qt5Widgetsd.dll
 0004:00000e54       __imp_??0QApplication@@QAE@AAHPAPADH@Z 004b5e54     Qt5Widgetsd:Qt5Widgetsd.dll
 0004:00000e58       __imp_?show@QWidget@@QAEXXZ 004b5e58     Qt5Widgetsd:Qt5Widgetsd.dll
 0004:00000e5c       __imp_?staticMetaObject@QDialog@@2UQMetaObject@@B 004b5e5c     Qt5Widgetsd:Qt5Widgetsd.dll
 0004:00000e60       __imp_?qt_metacall@QDialog@@UAEHW4Call@QMetaObject@@HPAPAX@Z 004b5e60     Qt5Widgetsd:Qt5Widgetsd.dll
 0004:00000e64       __imp_?qt_metacast@QDialog@@UAEPAXPBD@Z 004b5e64     Qt5Widgetsd:Qt5Widgetsd.dll
 0004:00000e68       __imp_?staticMetaObject@QMainWindow@@2UQMetaObject@@B 004b5e68     Qt5Widgetsd:Qt5Widgetsd.dll
 0004:00000e6c       __imp_?qt_metacall@QMainWindow@@UAEHW4Call@QMetaObject@@HPAPAX@Z 004b5e6c     Qt5Widgetsd:Qt5Widgetsd.dll
 0004:00000e70       __imp_?qt_metacast@QMainWindow@@UAEPAXPBD@Z 004b5e70     Qt5Widgetsd:Qt5Widgetsd.dll
 0004:00000e74       __imp_?write@QTreeWidgetItem@@UBEXAAVQDataStream@@@Z 004b5e74     Qt5Widgetsd:Qt5Widgetsd.dll
 0004:00000e78       __imp_?setData@QTreeWidgetItem@@UAEXHHABVQVariant@@@Z 004b5e78     Qt5Widgetsd:Qt5Widgetsd.dll
 0004:00000e7c       __imp_?read@QTreeWidgetItem@@UAEXAAVQDataStream@@@Z 004b5e7c     Qt5Widgetsd:Qt5Widgetsd.dll
 0004:00000e80       __imp_?data@QTreeWidgetItem@@UBE?AVQVariant@@HH@Z 004b5e80     Qt5Widgetsd:Qt5Widgetsd.dll
 0004:00000e84       __imp_?clone@QTreeWidgetItem@@UBEPAV1@XZ 004b5e84     Qt5Widgetsd:Qt5Widgetsd.dll
 0004:00000e88       __imp_??MQTreeWidgetItem@@UBE_NABV0@@Z 004b5e88     Qt5Widgetsd:Qt5Widgetsd.dll
 0004:00000e8c       __imp_?setText@QTreeWidgetItem@@QAEXHABVQString@@@Z 004b5e8c     Qt5Widgetsd:Qt5Widgetsd.dll
 0004:00000e90       __imp_??1QTreeWidgetItem@@UAE@XZ 004b5e90     Qt5Widgetsd:Qt5Widgetsd.dll
 0004:00000e94       __imp_??0QTreeWidgetItem@@QAE@H@Z 004b5e94     Qt5Widgetsd:Qt5Widgetsd.dll
 0004:00000e98       __imp_?append@QTextEdit@@QAEXABVQString@@@Z 004b5e98     Qt5Widgetsd:Qt5Widgetsd.dll
 0004:00000e9c       __imp_?document@QTextEdit@@QBEPAVQTextDocument@@XZ 004b5e9c     Qt5Widgetsd:Qt5Widgetsd.dll
 0004:00000ea0       __imp_?childEvent@QLayout@@MAEXPAVQChildEvent@@@Z 004b5ea0     Qt5Widgetsd:Qt5Widgetsd.dll
 0004:00000ea4       __imp_?childEvent@QGroupBox@@MAEXPAVQChildEvent@@@Z 004b5ea4     Qt5Widgetsd:Qt5Widgetsd.dll
 0004:00000ea8       __imp_?checkStateSet@QAbstractButton@@MAEXXZ 004b5ea8     Qt5Widgetsd:Qt5Widgetsd.dll
 0004:00000eac       __imp_?changeEvent@QWidget@@MAEXPAVQEvent@@@Z 004b5eac     Qt5Widgetsd:Qt5Widgetsd.dll
 0004:00000eb0       __imp_?changeEvent@QToolBar@@MAEXPAVQEvent@@@Z 004b5eb0     Qt5Widgetsd:Qt5Widgetsd.dll
 0004:00000eb4       __imp_?changeEvent@QTextEdit@@MAEXPAVQEvent@@@Z 004b5eb4     Qt5Widgetsd:Qt5Widgetsd.dll
 0004:00000eb8       __imp_?changeEvent@QSplitter@@MAEXPAVQEvent@@@Z 004b5eb8     Qt5Widgetsd:Qt5Widgetsd.dll
 0004:00000ebc       __imp_?changeEvent@QMenuBar@@MAEXPAVQEvent@@@Z 004b5ebc     Qt5Widgetsd:Qt5Widgetsd.dll
 0004:00000ec0       __imp_?changeEvent@QMenu@@MAEXPAVQEvent@@@Z 004b5ec0     Qt5Widgetsd:Qt5Widgetsd.dll
 0004:00000ec4       __imp_?changeEvent@QGroupBox@@MAEXPAVQEvent@@@Z 004b5ec4     Qt5Widgetsd:Qt5Widgetsd.dll
 0004:00000ec8       __imp_?changeEvent@QFrame@@MAEXPAVQEvent@@@Z 004b5ec8     Qt5Widgetsd:Qt5Widgetsd.dll
 0004:00000ecc       __imp_?changeEvent@QAbstractButton@@MAEXPAVQEvent@@@Z 004b5ecc     Qt5Widgetsd:Qt5Widgetsd.dll
 0004:00000ed0       __imp_?canInsertFromMimeData@QTextEdit@@MBE_NPBVQMimeData@@@Z 004b5ed0     Qt5Widgetsd:Qt5Widgetsd.dll
 0004:00000ed4       __imp_?addItem@QBoxLayout@@UAEXPAVQLayoutItem@@@Z 004b5ed4     Qt5Widgetsd:Qt5Widgetsd.dll
 0004:00000ed8       __imp_?actionEvent@QWidget@@MAEXPAVQActionEvent@@@Z 004b5ed8     Qt5Widgetsd:Qt5Widgetsd.dll
 0004:00000edc       __imp_?actionEvent@QToolBar@@MAEXPAVQActionEvent@@@Z 004b5edc     Qt5Widgetsd:Qt5Widgetsd.dll
 0004:00000ee0       __imp_?actionEvent@QMenuBar@@MAEXPAVQActionEvent@@@Z 004b5ee0     Qt5Widgetsd:Qt5Widgetsd.dll
 0004:00000ee4       __imp_?actionEvent@QMenu@@MAEXPAVQActionEvent@@@Z 004b5ee4     Qt5Widgetsd:Qt5Widgetsd.dll
 0004:00000ee8       __imp_??MQListWidgetItem@@UBE_NABV0@@Z 004b5ee8     Qt5Widgetsd:Qt5Widgetsd.dll
 0004:00000eec       __imp_?critical@QMessageBox@@SA?AW4StandardButton@1@PAVQWidget@@ABVQString@@1V?$QFlags@W4StandardButton@QMessageBox@@@@W421@@Z 004b5eec     Qt5Widgetsd:Qt5Widgetsd.dll
 0004:00000ef0       __imp_?information@QMessageBox@@SA?AW4StandardButton@1@PAVQWidget@@ABVQString@@1V?$QFlags@W4StandardButton@QMessageBox@@@@W421@@Z 004b5ef0     Qt5Widgetsd:Qt5Widgetsd.dll
 0004:00000ef4       __imp_?exec@QDialog@@UAEHXZ 004b5ef4     Qt5Widgetsd:Qt5Widgetsd.dll
 0004:00000ef8       __imp_?itemAt@QTreeWidget@@QBEPAVQTreeWidgetItem@@ABVQPoint@@@Z 004b5ef8     Qt5Widgetsd:Qt5Widgetsd.dll
 0004:00000efc       __imp_?headerItem@QTreeWidget@@QBEPAVQTreeWidgetItem@@XZ 004b5efc     Qt5Widgetsd:Qt5Widgetsd.dll
 0004:00000f00       __imp_?addTopLevelItem@QTreeWidget@@QAEXPAVQTreeWidgetItem@@@Z 004b5f00     Qt5Widgetsd:Qt5Widgetsd.dll
 0004:00000f04       __imp_??1QTreeWidget@@UAE@XZ 004b5f04     Qt5Widgetsd:Qt5Widgetsd.dll
 0004:00000f08       __imp_??0QTreeWidget@@QAE@PAVQWidget@@@Z 004b5f08     Qt5Widgetsd:Qt5Widgetsd.dll
 0004:00000f0c       __imp_?header@QTreeView@@QBEPAVQHeaderView@@XZ 004b5f0c     Qt5Widgetsd:Qt5Widgetsd.dll
 0004:00000f10       __imp_??1QToolBar@@UAE@XZ  004b5f10     Qt5Widgetsd:Qt5Widgetsd.dll
 0004:00000f14       __imp_??0QToolBar@@QAE@PAVQWidget@@@Z 004b5f14     Qt5Widgetsd:Qt5Widgetsd.dll
 0004:00000f18       __imp_?setReadOnly@QTextEdit@@QAEX_N@Z 004b5f18     Qt5Widgetsd:Qt5Widgetsd.dll
 0004:00000f1c       __imp_??1QTextEdit@@UAE@XZ 004b5f1c     Qt5Widgetsd:Qt5Widgetsd.dll
 0004:00000f20       __imp_??0QTextEdit@@QAE@PAVQWidget@@@Z 004b5f20     Qt5Widgetsd:Qt5Widgetsd.dll
 0004:00000f24       __imp_??1QStatusBar@@UAE@XZ 004b5f24     Qt5Widgetsd:Qt5Widgetsd.dll
 0004:00000f28       __imp_??0QStatusBar@@QAE@PAVQWidget@@@Z 004b5f28     Qt5Widgetsd:Qt5Widgetsd.dll
 0004:00000f2c       __imp_?setOrientation@QSplitter@@QAEXW4Orientation@Qt@@@Z 004b5f2c     Qt5Widgetsd:Qt5Widgetsd.dll
 0004:00000f30       __imp_?addWidget@QSplitter@@QAEXPAVQWidget@@@Z 004b5f30     Qt5Widgetsd:Qt5Widgetsd.dll
 0004:00000f34       __imp_??1QSplitter@@UAE@XZ 004b5f34     Qt5Widgetsd:Qt5Widgetsd.dll
 0004:00000f38       __imp_??0QSplitter@@QAE@PAVQWidget@@@Z 004b5f38     Qt5Widgetsd:Qt5Widgetsd.dll
 0004:00000f3c       __imp_??1QPushButton@@UAE@XZ 004b5f3c     Qt5Widgetsd:Qt5Widgetsd.dll
 0004:00000f40       __imp_??0QPushButton@@QAE@PAVQWidget@@@Z 004b5f40     Qt5Widgetsd:Qt5Widgetsd.dll
 0004:00000f44       __imp_?setText@QAbstractButton@@QAEXABVQString@@@Z 004b5f44     Qt5Widgetsd:Qt5Widgetsd.dll
 0004:00000f48       __imp_??1QMenuBar@@UAE@XZ  004b5f48     Qt5Widgetsd:Qt5Widgetsd.dll
 0004:00000f4c       __imp_??0QMenuBar@@QAE@PAVQWidget@@@Z 004b5f4c     Qt5Widgetsd:Qt5Widgetsd.dll
 0004:00000f50       __imp_?setTitle@QMenu@@QAEXABVQString@@@Z 004b5f50     Qt5Widgetsd:Qt5Widgetsd.dll
 0004:00000f54       __imp_?menuAction@QMenu@@QBEPAVQAction@@XZ 004b5f54     Qt5Widgetsd:Qt5Widgetsd.dll
 0004:00000f58       __imp_?exec@QMenu@@QAEPAVQAction@@ABVQPoint@@PAV2@@Z 004b5f58     Qt5Widgetsd:Qt5Widgetsd.dll
 0004:00000f5c       __imp_?addAction@QMenu@@QAEPAVQAction@@ABVQString@@@Z 004b5f5c     Qt5Widgetsd:Qt5Widgetsd.dll
 0004:00000f60       __imp_??1QMenu@@UAE@XZ     004b5f60     Qt5Widgetsd:Qt5Widgetsd.dll
 0004:00000f64       __imp_??0QMenu@@QAE@PAVQWidget@@@Z 004b5f64     Qt5Widgetsd:Qt5Widgetsd.dll
 0004:00000f68       __imp_?addItem@QListWidget@@QAEXPAVQListWidgetItem@@@Z 004b5f68     Qt5Widgetsd:Qt5Widgetsd.dll
 0004:00000f6c       __imp_??1QListWidget@@UAE@XZ 004b5f6c     Qt5Widgetsd:Qt5Widgetsd.dll
 0004:00000f70       __imp_??0QListWidget@@QAE@PAVQWidget@@@Z 004b5f70     Qt5Widgetsd:Qt5Widgetsd.dll
 0004:00000f74       __imp_??1QListWidgetItem@@UAE@XZ 004b5f74     Qt5Widgetsd:Qt5Widgetsd.dll
 0004:00000f78       __imp_??0QListWidgetItem@@QAE@ABVQString@@PAVQListWidget@@H@Z 004b5f78     Qt5Widgetsd:Qt5Widgetsd.dll
 0004:00000f7c       __imp_?setSectionResizeMode@QHeaderView@@QAEXW4ResizeMode@1@@Z 004b5f7c     Qt5Widgetsd:Qt5Widgetsd.dll
 0004:00000f80       __imp_??1QVBoxLayout@@UAE@XZ 004b5f80     Qt5Widgetsd:Qt5Widgetsd.dll
 0004:00000f84       __imp_??0QVBoxLayout@@QAE@PAVQWidget@@@Z 004b5f84     Qt5Widgetsd:Qt5Widgetsd.dll
 0004:00000f88       __imp_??1QHBoxLayout@@UAE@XZ 004b5f88     Qt5Widgetsd:Qt5Widgetsd.dll
 0004:00000f8c       __imp_??0QHBoxLayout@@QAE@XZ 004b5f8c     Qt5Widgetsd:Qt5Widgetsd.dll
 0004:00000f90       __imp_?setSpacing@QBoxLayout@@QAEXH@Z 004b5f90     Qt5Widgetsd:Qt5Widgetsd.dll
 0004:00000f94       __imp_?addLayout@QBoxLayout@@QAEXPAVQLayout@@H@Z 004b5f94     Qt5Widgetsd:Qt5Widgetsd.dll
 0004:00000f98       __imp_?addWidget@QBoxLayout@@QAEXPAVQWidget@@HV?$QFlags@W4AlignmentFlag@Qt@@@@@Z 004b5f98     Qt5Widgetsd:Qt5Widgetsd.dll
 0004:00000f9c       __imp_?setSizeConstraint@QLayout@@QAEXW4SizeConstraint@1@@Z 004b5f9c     Qt5Widgetsd:Qt5Widgetsd.dll
 0004:00000fa0       __imp_?setContentsMargins@QLayout@@QAEXHHHH@Z 004b5fa0     Qt5Widgetsd:Qt5Widgetsd.dll
 0004:00000fa4       __imp_??1QSpacerItem@@UAE@XZ 004b5fa4     Qt5Widgetsd:Qt5Widgetsd.dll
 0004:00000fa8       __imp_??0QSpacerItem@@QAE@HHW4Policy@QSizePolicy@@0@Z 004b5fa8     Qt5Widgetsd:Qt5Widgetsd.dll
 0004:00000fac       __imp_?setTitle@QGroupBox@@QAEXABVQString@@@Z 004b5fac     Qt5Widgetsd:Qt5Widgetsd.dll
 0004:00000fb0       __imp_??1QGroupBox@@UAE@XZ 004b5fb0     Qt5Widgetsd:Qt5Widgetsd.dll
 0004:00000fb4       __imp_??0QGroupBox@@QAE@PAVQWidget@@@Z 004b5fb4     Qt5Widgetsd:Qt5Widgetsd.dll
 0004:00000fb8       __imp_?setChecked@QAction@@QAEX_N@Z 004b5fb8     Qt5Widgetsd:Qt5Widgetsd.dll
 0004:00000fbc       __imp_?setCheckable@QAction@@QAEX_N@Z 004b5fbc     Qt5Widgetsd:Qt5Widgetsd.dll
 0004:00000fc0       __imp_?setShortcut@QAction@@QAEXABVQKeySequence@@@Z 004b5fc0     Qt5Widgetsd:Qt5Widgetsd.dll
 0004:00000fc4       __imp_?setText@QAction@@QAEXABVQString@@@Z 004b5fc4     Qt5Widgetsd:Qt5Widgetsd.dll
 0004:00000fc8       __imp_??1QAction@@UAE@XZ   004b5fc8     Qt5Widgetsd:Qt5Widgetsd.dll
 0004:00000fcc       __imp_??0QAction@@QAE@PAVQObject@@@Z 004b5fcc     Qt5Widgetsd:Qt5Widgetsd.dll
 0004:00000fd0       __imp_?addToolBar@QMainWindow@@QAEXW4ToolBarArea@Qt@@PAVQToolBar@@@Z 004b5fd0     Qt5Widgetsd:Qt5Widgetsd.dll
 0004:00000fd4       __imp_?setCentralWidget@QMainWindow@@QAEXPAVQWidget@@@Z 004b5fd4     Qt5Widgetsd:Qt5Widgetsd.dll
 0004:00000fd8       __imp_?setStatusBar@QMainWindow@@QAEXPAVQStatusBar@@@Z 004b5fd8     Qt5Widgetsd:Qt5Widgetsd.dll
 0004:00000fdc       __imp_??1QMainWindow@@UAE@XZ 004b5fdc     Qt5Widgetsd:Qt5Widgetsd.dll
 0004:00000fe0       __imp_?setMenuBar@QMainWindow@@QAEXPAVQMenuBar@@@Z 004b5fe0     Qt5Widgetsd:Qt5Widgetsd.dll
 0004:00000fe4       __imp_??0QMainWindow@@QAE@PAVQWidget@@V?$QFlags@W4WindowType@Qt@@@@@Z 004b5fe4     Qt5Widgetsd:Qt5Widgetsd.dll
 0004:00000fe8       __imp_?addAction@QWidget@@QAEXPAVQAction@@@Z 004b5fe8     Qt5Widgetsd:Qt5Widgetsd.dll
 0004:00000fec       __imp_?setSizePolicy@QWidget@@QAEXVQSizePolicy@@@Z 004b5fec     Qt5Widgetsd:Qt5Widgetsd.dll
 0004:00000ff0       __imp_?sizePolicy@QWidget@@QBE?AVQSizePolicy@@XZ 004b5ff0     Qt5Widgetsd:Qt5Widgetsd.dll
 0004:00000ff4       __imp_?setGeometry@QWidget@@QAEXABVQRect@@@Z 004b5ff4     Qt5Widgetsd:Qt5Widgetsd.dll
 0004:00000ff8       __imp_?resize@QWidget@@QAEXHH@Z 004b5ff8     Qt5Widgetsd:Qt5Widgetsd.dll
 0004:00000ffc       __imp_?close@QWidget@@QAE_NXZ 004b5ffc     Qt5Widgetsd:Qt5Widgetsd.dll
 0004:00001000       __imp_?setContextMenuPolicy@QWidget@@QAEXW4ContextMenuPolicy@Qt@@@Z 004b6000     Qt5Widgetsd:Qt5Widgetsd.dll
 0004:00001004       __imp_?setWindowIcon@QWidget@@QAEXABVQIcon@@@Z 004b6004     Qt5Widgetsd:Qt5Widgetsd.dll
 0004:00001008       __imp_?setWindowTitle@QWidget@@QAEXABVQString@@@Z 004b6008     Qt5Widgetsd:Qt5Widgetsd.dll
 0004:0000100c       __imp_?mapToGlobal@QWidget@@QBE?AVQPoint@@ABV2@@Z 004b600c     Qt5Widgetsd:Qt5Widgetsd.dll
 0004:00001010       __imp_?setMaximumSize@QWidget@@QAEXABVQSize@@@Z 004b6010     Qt5Widgetsd:Qt5Widgetsd.dll
 0004:00001014       __imp_?winId@QWidget@@QBEIXZ 004b6014     Qt5Widgetsd:Qt5Widgetsd.dll
 0004:00001018       __imp_?qt_metacall@QStatusBar@@UAEHW4Call@QMetaObject@@HPAPAX@Z 004b6018     Qt5Widgetsd:Qt5Widgetsd.dll
 0004:0000101c       __imp_??1QWidget@@UAE@XZ   004b601c     Qt5Widgetsd:Qt5Widgetsd.dll
 0004:00001020       __imp_?isIndexHidden@QListView@@MBE_NABVQModelIndex@@@Z 004b6020     Qt5Widgetsd:Qt5Widgetsd.dll
 0004:00001024       __imp_?heightForWidth@QMenuBar@@UBEHH@Z 004b6024     Qt5Widgetsd:Qt5Widgetsd.dll
 0004:00001028       __imp_?indexAt@QTreeView@@UBE?AVQModelIndex@@ABVQPoint@@@Z 004b6028     Qt5Widgetsd:Qt5Widgetsd.dll
 0004:0000102c       \177Qt5Widgetsd_NULL_THUNK_DATA 004b602c     Qt5Widgetsd:Qt5Widgetsd.dll
 0004:000011fc       __imp__CommandLineToArgvW@8 004b61fc     shell32:SHELL32.dll
 0004:00001200       __imp__ShellExecuteA@24    004b6200     shell32:SHELL32.dll
 0004:00001204       \177SHELL32_NULL_THUNK_DATA 004b6204     shell32:SHELL32.dll
 0004:00001230       __imp__GetClassNameA@12    004b6230     user32:USER32.dll
 0004:00001234       __imp__SetWindowLongA@12   004b6234     user32:USER32.dll
 0004:00001238       __imp__GetWindowLongA@8    004b6238     user32:USER32.dll
 0004:0000123c       __imp__MessageBoxA@16      004b623c     user32:USER32.dll
 0004:00001240       __imp__DestroyWindow@4     004b6240     user32:USER32.dll
 0004:00001244       __imp__IsWindow@4          004b6244     user32:USER32.dll
 0004:00001248       __imp__CreateWindowExA@48  004b6248     user32:USER32.dll
 0004:0000124c       __imp__UnregisterClassA@8  004b624c     user32:USER32.dll
 0004:00001250       __imp__RegisterClassA@4    004b6250     user32:USER32.dll
 0004:00001254       __imp__DefWindowProcA@16   004b6254     user32:USER32.dll
 0004:00001258       __imp__PostMessageA@16     004b6258     user32:USER32.dll
 0004:0000125c       __imp__SendMessageA@16     004b625c     user32:USER32.dll
 0004:00001260       __imp__wsprintfA           004b6260     user32:USER32.dll
 0004:00001264       \177USER32_NULL_THUNK_DATA 004b6264     user32:USER32.dll
 0004:00001298       __imp__VerQueryValueA@16   004b6298     version:VERSION.dll
 0004:0000129c       __imp__GetFileVersionInfoA@16 004b629c     version:VERSION.dll
 0004:000012a0       __imp__GetFileVersionInfoSizeA@8 004b62a0     version:VERSION.dll
 0004:000012a4       \177VERSION_NULL_THUNK_DATA 004b62a4     version:VERSION.dll
 0004:000012d0       __IMPORT_DESCRIPTOR_VERSION 004b62d0     version:VERSION.dll
 0004:000012e4       __IMPORT_DESCRIPTOR_Qt5Cored 004b62e4     Qt5Cored:Qt5Cored.dll
 0004:000012f8       __IMPORT_DESCRIPTOR_Qt5Guid 004b62f8     Qt5Guid:Qt5Guid.dll
 0004:0000130c       __IMPORT_DESCRIPTOR_Qt5Networkd 004b630c     Qt5Networkd:Qt5Networkd.dll
 0004:00001320       __IMPORT_DESCRIPTOR_Qt5Widgetsd 004b6320     Qt5Widgetsd:Qt5Widgetsd.dll
 0004:00001334       __IMPORT_DESCRIPTOR_BNCSIF32 004b6334     bncsif32:BNCSIF32.dll
 0004:00001348       __IMPORT_DESCRIPTOR_KERNEL32 004b6348     kernel32:KERNEL32.dll
 0004:0000135c       __IMPORT_DESCRIPTOR_USER32 004b635c     user32:USER32.dll
 0004:00001370       __IMPORT_DESCRIPTOR_ADVAPI32 004b6370     advapi32:ADVAPI32.dll
 0004:00001384       __IMPORT_DESCRIPTOR_SHELL32 004b6384     shell32:SHELL32.dll
 0004:00001398       __IMPORT_DESCRIPTOR_MSVCR120D 004b6398     MSVCRTD:MSVCR120D.dll
 0004:000013ac       __IMPORT_DESCRIPTOR_MSVCP120D 004b63ac     msvcprtd:MSVCP120D.dll
 0004:000013c0       __NULL_IMPORT_DESCRIPTOR   004b63c0     version:VERSION.dll
