 slinkServer

 Timestamp is 5e9dbcb9 (Mon Apr 20 16:16:09 2020)

 Preferred load address is 00400000

 Start         Length     Name                   Class
 0001:00000000 000000f8H .text                   CODE
 0001:00000100 0000011bH .text$di                CODE
 0001:00000220 00024134H .text$mn                CODE
 0001:00024360 0000487fH .text$x                 CODE
 0001:00028be0 00000152H .text$yd                CODE
 0002:00000000 00000d9cH .idata$5                DATA
 0002:00000d9c 00000004H .CRT$XCA                DATA
 0002:00000da0 00000004H .CRT$XCAA               DATA
 0002:00000da4 00000034H .CRT$XCU                DATA
 0002:00000dd8 00000004H .CRT$XCZ                DATA
 0002:00000ddc 00000004H .CRT$XIA                DATA
 0002:00000de0 00000004H .CRT$XIAA               DATA
 0002:00000de4 00000004H .CRT$XIC                DATA
 0002:00000de8 00000004H .CRT$XIY                DATA
 0002:00000dec 00000004H .CRT$XIZ                DATA
 0002:00000df0 00006c88H .rdata                  DATA
 0002:00007a78 00001498H .rdata$r                DATA
 0002:00008f10 00000004H .rtc$IAA                DATA
 0002:00008f14 00000004H .rtc$IZZ                DATA
 0002:00008f18 00000004H .rtc$TAA                DATA
 0002:00008f1c 00000004H .rtc$TZZ                DATA
 0002:00008f20 000042d4H .xdata$x                DATA
 0002:0000d1f4 00000000H .edata                  DATA
 0002:0000d1f4 000000f0H .idata$2                DATA
 0002:0000d2e4 00000014H .idata$3                DATA
 0002:0000d2f8 00000d9cH .idata$4                DATA
 0002:0000e094 00009016H .idata$6                DATA
 0003:00000000 0000052cH .data                   DATA
 0003:0000052c 000006d4H .data$r                 DATA
 0003:00000c00 00000640H .bss                    DATA
 0004:00000000 000001c0H .rsrc$01                DATA
 0004:000001c0 00008f58H .rsrc$02                DATA

  Address         Publics by Value              Rva+Base       Lib:Object

 0000:00000000       ___guard_fids_table        00000000     <absolute>
 0000:00000000       ___safe_se_handler_table   00000000     <absolute>
 0000:00000000       ___guard_fids_count        00000000     <absolute>
 0000:00000000       __except_list              00000000     <absolute>
 0000:00000000       ___safe_se_handler_count   00000000     <absolute>
 0000:00000000       ___guard_flags             00000000     <absolute>
 0000:00009876       __ldused                   00009876     <absolute>
 0000:00009876       __fltused                  00009876     <absolute>
 0000:00000000       ___ImageBase               00400000     <linker-defined>
 0001:00000000       _HtmlHelpA@16              00401000 f   htmlhelp:init.obj
 0001:00000220       ??0cBncsVersion@@QAE@PBD@Z 00401220 f   cBncsVersion.obj
 0001:00000840       ??1cBncsVersion@@UAE@XZ    00401840 f   cBncsVersion.obj
 0001:00000920       ??_GcBncsVersion@@UAEPAXI@Z 00401920 f i cBncsVersion.obj
 0001:00000920       ??_EcBncsVersion@@UAEPAXI@Z 00401920 f i cBncsVersion.obj
 0001:00000950       ??0bncs_disklog@@QAE@PBDW4filetype@0@@Z 00401950 f   bncs_disklog.obj
 0001:00000980       ??_Gbncs_disklog@@UAEPAXI@Z 00401980 f i bncs_disklog.obj
 0001:00000980       ??_Ebncs_disklog@@UAEPAXI@Z 00401980 f i bncs_disklog.obj
 0001:000009c0       ?createDirectory@bncs_disklog@@AAEXPBD@Z 004019c0 f   bncs_disklog.obj
 0001:00000ac0       ?openLogFile@bncs_disklog@@AAEXPBDW4filetype@1@@Z 00401ac0 f   bncs_disklog.obj
 0001:00000d00       ?write@bncs_disklog@@QAEXPBD00000@Z 00401d00 f   bncs_disklog.obj
 0001:00000f40       ??$?HDU?$char_traits@D@std@@V?$allocator@D@1@@std@@YA?AV?$basic_string@DU?$char_traits@D@std@@V?$allocator@D@2@@0@$$QAV10@ABV10@@Z 00401f40 f i ccCheck.obj
 0001:00000fc0       ??$?HDU?$char_traits@D@std@@V?$allocator@D@1@@std@@YA?AV?$basic_string@DU?$char_traits@D@std@@V?$allocator@D@2@@0@$$QAV10@PBD@Z 00401fc0 f i ccCheck.obj
 0001:00001060       ??$?HDU?$char_traits@D@std@@V?$allocator@D@1@@std@@YA?AV?$basic_string@DU?$char_traits@D@std@@V?$allocator@D@2@@0@ABV10@PBD@Z 00402060 f i ccCheck.obj
 0001:00001150       ??$?HDU?$char_traits@D@std@@V?$allocator@D@1@@std@@YA?AV?$basic_string@DU?$char_traits@D@std@@V?$allocator@D@2@@0@PBDABV10@@Z 00402150 f i ccCheck.obj
 0001:00001240       ??0?$basic_string@DU?$char_traits@D@std@@V?$allocator@D@2@@std@@QAE@$$QAV01@@Z 00402240 f i ccCheck.obj
 0001:000012b0       ??0?$basic_string@DU?$char_traits@D@std@@V?$allocator@D@2@@std@@QAE@PBD@Z 004022b0 f i ccCheck.obj
 0001:00001310       ??0ccCheck@@QAE@ABV?$basic_string@DU?$char_traits@D@std@@V?$allocator@D@2@@std@@@Z 00402310 f   ccCheck.obj
 0001:00001370       ??1?$basic_string@DU?$char_traits@D@std@@V?$allocator@D@2@@std@@QAE@XZ 00402370 f i ccCheck.obj
 0001:000013a0       ??1ccCheck@@UAE@XZ         004023a0 f   ccCheck.obj
 0001:000013d0       ??_E_Iostream_error_category@std@@UAEPAXI@Z 004023d0 f i ccCheck.obj
 0001:000013d0       ??_G_System_error_category@std@@UAEPAXI@Z 004023d0 f i ccCheck.obj
 0001:000013d0       ??_Eerror_category@std@@UAEPAXI@Z 004023d0 f i ccCheck.obj
 0001:000013d0       ??_G_Iostream_error_category@std@@UAEPAXI@Z 004023d0 f i ccCheck.obj
 0001:000013d0       ??_E_Generic_error_category@std@@UAEPAXI@Z 004023d0 f i ccCheck.obj
 0001:000013d0       ??_E_System_error_category@std@@UAEPAXI@Z 004023d0 f i ccCheck.obj
 0001:000013d0       ??_G_Generic_error_category@std@@UAEPAXI@Z 004023d0 f i ccCheck.obj
 0001:000013d0       ??_Gerror_category@std@@UAEPAXI@Z 004023d0 f i ccCheck.obj
 0001:00001400       ??_GccCheck@@UAEPAXI@Z     00402400 f i ccCheck.obj
 0001:00001400       ??_EccCheck@@UAEPAXI@Z     00402400 f i ccCheck.obj
 0001:00001450       ?_Assign_rv@?$basic_string@DU?$char_traits@D@std@@V?$allocator@D@2@@std@@QAEX$$QAV12@@Z 00402450 f i ccCheck.obj
 0001:000014b0       ?_Copy@?$basic_string@DU?$char_traits@D@std@@V?$allocator@D@2@@std@@QAEXII@Z 004024b0 f i ccCheck.obj
 0001:00001600       ?_Grow@?$basic_string@DU?$char_traits@D@std@@V?$allocator@D@2@@std@@QAE_NI_N@Z 00402600 f i ccCheck.obj
 0001:000016b0       ?allocate@?$_Wrap_alloc@V?$allocator@D@std@@@std@@QAEPADI@Z 004026b0 f i ccCheck.obj
 0001:000016e0       ?append@?$basic_string@DU?$char_traits@D@std@@V?$allocator@D@2@@std@@QAEAAV12@ABV12@II@Z 004026e0 f i ccCheck.obj
 0001:000017a0       ?append@?$basic_string@DU?$char_traits@D@std@@V?$allocator@D@2@@std@@QAEAAV12@PBDI@Z 004027a0 f i ccCheck.obj
 0001:00001890       ?assign@?$basic_string@DU?$char_traits@D@std@@V?$allocator@D@2@@std@@QAEAAV12@ABV12@II@Z 00402890 f i ccCheck.obj
 0001:000019b0       ?assign@?$basic_string@DU?$char_traits@D@std@@V?$allocator@D@2@@std@@QAEAAV12@PBDI@Z 004029b0 f i ccCheck.obj
 0001:00001ab0       ?c_str@?$basic_string@DU?$char_traits@D@std@@V?$allocator@D@2@@std@@QBEPBDXZ 00402ab0 f i ccCheck.obj
 0001:00001ac0       ?checkDatabase@ccCheck@@QAE_NI@Z 00402ac0 f   ccCheck.obj
 0001:00001b60       ?checkDatabase@ccCheck@@QAE_NII@Z 00402b60 f   ccCheck.obj
 0001:00001c00       ?checkDevice@ccCheck@@QAE_NI@Z 00402c00 f   ccCheck.obj
 0001:00001ce0       ?checkIndex@ccCheck@@QAE_NI@Z 00402ce0 f   ccCheck.obj
 0001:00001dc0       ?checkIndexRange@ccCheck@@QAE_NII@Z 00402dc0 f   ccCheck.obj
 0001:00001e70       ?checkSource@ccCheck@@QAE_NH@Z 00402e70 f   ccCheck.obj
 0001:00001f50       ?checkString@ccCheck@@QAE_NABV?$basic_string@DU?$char_traits@D@std@@V?$allocator@D@2@@std@@@Z 00402f50 f   ccCheck.obj
 0001:00001fe0       ?checkWorkstation@ccCheck@@QAE_NI@Z 00402fe0 f   ccCheck.obj
 0001:00002100       ?default_error_condition@_System_error_category@std@@UBE?AVerror_condition@2@H@Z 00403100 f i ccCheck.obj
 0001:00002140       ?default_error_condition@error_category@std@@UBE?AVerror_condition@2@H@Z 00403140 f i ccCheck.obj
 0001:00002160       ?equivalent@error_category@std@@UBE_NABVerror_code@2@H@Z 00403160 f i ccCheck.obj
 0001:00002180       ?equivalent@error_category@std@@UBE_NHABVerror_condition@2@@Z 00403180 f i ccCheck.obj
 0001:000021c0       ?erase@?$basic_string@DU?$char_traits@D@std@@V?$allocator@D@2@@std@@QAEAAV12@II@Z 004031c0 f i ccCheck.obj
 0001:00002260       ?log@ccCheck@@QAEXABV?$basic_string@DU?$char_traits@D@std@@V?$allocator@D@2@@std@@@Z 00403260 f   ccCheck.obj
 0001:00002350       ?message@_Generic_error_category@std@@UBE?AV?$basic_string@DU?$char_traits@D@std@@V?$allocator@D@2@@2@H@Z 00403350 f i ccCheck.obj
 0001:000023d0       ?message@_Iostream_error_category@std@@UBE?AV?$basic_string@DU?$char_traits@D@std@@V?$allocator@D@2@@2@H@Z 004033d0 f i ccCheck.obj
 0001:00002420       ?message@_System_error_category@std@@UBE?AV?$basic_string@DU?$char_traits@D@std@@V?$allocator@D@2@@2@H@Z 00403420 f i ccCheck.obj
 0001:000024a0       ?name@_Generic_error_category@std@@UBEPBDXZ 004034a0 f i ccCheck.obj
 0001:000024b0       ?name@_Iostream_error_category@std@@UBEPBDXZ 004034b0 f i ccCheck.obj
 0001:000024c0       ?name@_System_error_category@std@@UBEPBDXZ 004034c0 f i ccCheck.obj
 0001:000024d0       ?setMaxDatabase@ccCheck@@QAEXI@Z 004034d0 f   ccCheck.obj
 0001:000024e0       ?setMaxDevice@ccCheck@@QAEXI@Z 004034e0 f   ccCheck.obj
 0001:000024f0       ?setMaxIndex@ccCheck@@QAEXI@Z 004034f0 f   ccCheck.obj
 0001:00002500       ?setMaxSource@ccCheck@@QAEXH@Z 00403500 f   ccCheck.obj
 0001:00002510       ?setMaxString@ccCheck@@QAEXI@Z 00403510 f   ccCheck.obj
 0001:00002530       ??0ccClient@@QAE@PAVIccClientCallback@@ABV?$basic_string@DU?$char_traits@D@std@@V?$allocator@D@2@@std@@@Z 00403530 f   ccClient.obj
 0001:00002720       ??1?$queue@V?$basic_string@DU?$char_traits@D@std@@V?$allocator@D@2@@std@@V?$deque@V?$basic_string@DU?$char_traits@D@std@@V?$allocator@D@2@@std@@V?$allocator@V?$basic_string@DU?$char_traits@D@std@@V?$allocator@D@2@@std@@@2@@2@@std@@QAE@XZ 00403720 f i ccClient.obj
 0001:00002740       ??1ccClient@@UAE@XZ        00403740 f   ccClient.obj
 0001:000027f0       ??4?$basic_string@DU?$char_traits@D@std@@V?$allocator@D@2@@std@@QAEAAV01@PBD@Z 004037f0 f i ccClient.obj
 0001:00002830       ??_GccClient@@UAEPAXI@Z    00403830 f i ccClient.obj
 0001:00002830       ??_EccClient@@UAEPAXI@Z    00403830 f i ccClient.obj
 0001:00002860       ?BNCSSendMessage@ccClient@@AAEJIIJHHH@Z 00403860 f   ccClient.obj
 0001:000028c0       ?WndProc@ccClient@@CGJPAUHWND__@@IIJ@Z 004038c0 f   ccClient.obj
 0001:00003270       ?_Growmap@?$deque@V?$basic_string@DU?$char_traits@D@std@@V?$allocator@D@2@@std@@V?$allocator@V?$basic_string@DU?$char_traits@D@std@@V?$allocator@D@2@@std@@@2@@std@@IAEXI@Z 00404270 f i ccClient.obj
 0001:000033f0       ?_Tidy@?$deque@V?$basic_string@DU?$char_traits@D@std@@V?$allocator@D@2@@std@@V?$allocator@V?$basic_string@DU?$char_traits@D@std@@V?$allocator@D@2@@std@@@2@@std@@IAEXXZ 004043f0 f i ccClient.obj
 0001:00003490       ?begin@?$deque@VpollCommand@@V?$allocator@VpollCommand@@@std@@@std@@QAE?AV?$_Deque_iterator@V?$_Deque_val@U?$_Deque_simple_types@VpollCommand@@@std@@@std@@@2@XZ 00404490 f i slink.obj
 0001:00003490       ?begin@?$deque@V?$basic_string@DU?$char_traits@D@std@@V?$allocator@D@2@@std@@V?$allocator@V?$basic_string@DU?$char_traits@D@std@@V?$allocator@D@2@@std@@@2@@std@@QAE?AV?$_Deque_iterator@V?$_Deque_val@U?$_Deque_simple_types@V?$basic_string@DU?$char_traits@D@std@@V?$allocator@D@2@@std@@@std@@@std@@@2@XZ 00404490 f i ccClient.obj
 0001:000034b0       ?cacheTest@ccClient@@QAE_NHHH@Z 004044b0 f   ccClient.obj
 0001:00003520       ?cacheValue@ccClient@@QAE_NHHAAV?$basic_string@DU?$char_traits@D@std@@V?$allocator@D@2@@std@@PAH@Z 00404520 f   ccClient.obj
 0001:000036a0       ?connect@ccClient@@QAE_NW4ipcType@cc@@J@Z 004046a0 f   ccClient.obj
 0001:00003930       ?databaseModify@ccClient@@QAE_NHHHABV?$basic_string@DU?$char_traits@D@std@@V?$allocator@D@2@@std@@_N1H@Z 00404930 f   ccClient.obj
 0001:00003a80       ?databaseName@ccClient@@QAE_NHHHAAV?$basic_string@DU?$char_traits@D@std@@V?$allocator@D@2@@std@@@Z 00404a80 f   ccClient.obj
 0001:00003be0       ?deviceLock@ccClient@@AAEXDHHH_N0H@Z 00404be0 f   ccClient.obj
 0001:00003d50       ?devicePoll@ccClient@@AAEXDHHH_N@Z 00404d50 f   ccClient.obj
 0001:00003e90       ?deviceProfile@ccClient@@QAEXHAAH00AAV?$basic_string@DU?$char_traits@D@std@@V?$allocator@D@2@@std@@@Z 00404e90 f   ccClient.obj
 0001:00004030       ?disconnect@ccClient@@QAE_NXZ 00405030 f   ccClient.obj
 0001:00004090       ?gpiLock@ccClient@@QAEXHHH_N0H@Z 00405090 f   ccClient.obj
 0001:000040b0       ?gpiPoll@ccClient@@QAEXHHH_N@Z 004050b0 f   ccClient.obj
 0001:000040d0       ?gpiSwitch@ccClient@@QAEXHH_N0H@Z 004050d0 f   ccClient.obj
 0001:000041b0       ?infoLock@ccClient@@QAEXHHH_N0H@Z 004051b0 f   ccClient.obj
 0001:000041d0       ?infoPoll@ccClient@@QAEXHHH_N@Z 004051d0 f   ccClient.obj
 0001:000041f0       ?infoWrite@ccClient@@QAEXHHABV?$basic_string@DU?$char_traits@D@std@@V?$allocator@D@2@@std@@_NH@Z 004051f0 f   ccClient.obj
 0001:000042e0       ?maxIndexes@ccClient@@QAEIXZ 004052e0 f   ccClient.obj
 0001:00004300       ?push_back@?$deque@V?$basic_string@DU?$char_traits@D@std@@V?$allocator@D@2@@std@@V?$allocator@V?$basic_string@DU?$char_traits@D@std@@V?$allocator@D@2@@std@@@2@@std@@QAEX$$QAV?$basic_string@DU?$char_traits@D@std@@V?$allocator@D@2@@2@@Z 00405300 f i ccClient.obj
 0001:00004370       ?push_back@?$deque@V?$basic_string@DU?$char_traits@D@std@@V?$allocator@D@2@@std@@V?$allocator@V?$basic_string@DU?$char_traits@D@std@@V?$allocator@D@2@@std@@@2@@std@@QAEXABV?$basic_string@DU?$char_traits@D@std@@V?$allocator@D@2@@2@@Z 00405370 f i ccClient.obj
 0001:00004430       ?revertiveDeregister@ccClient@@QAEXHHH@Z 00405430 f   ccClient.obj
 0001:000044b0       ?revertiveRegister@ccClient@@QAEXHHH_NH@Z 004054b0 f   ccClient.obj
 0001:00004550       ?routerCrosspoint@ccClient@@QAEXHHHABV?$basic_string@DU?$char_traits@D@std@@V?$allocator@D@2@@std@@_NH@Z 00405550 f   ccClient.obj
 0001:00004640       ?routerLock@ccClient@@QAEXHHH_N0H@Z 00405640 f   ccClient.obj
 0001:00004660       ?routerPoll@ccClient@@QAEXHHH_N@Z 00405660 f   ccClient.obj
 0001:00004680       ??$?0V?$basic_string@DU?$char_traits@D@std@@V?$allocator@D@2@@std@@V01@X@?$pair@$$CBV?$basic_string@DU?$char_traits@D@std@@V?$allocator@D@2@@std@@V12@@std@@QAE@$$QAU?$pair@V?$basic_string@DU?$char_traits@D@std@@V?$allocator@D@2@@std@@V12@@1@@Z 00405680 f i ccConfig.obj
 0001:00004750       ??$_Buynode@U?$pair@V?$basic_string@DU?$char_traits@D@std@@V?$allocator@D@2@@std@@V12@@std@@@?$_Tree_buy@U?$pair@$$CBV?$basic_string@DU?$char_traits@D@std@@V?$allocator@D@2@@std@@V12@@std@@V?$allocator@U?$pair@$$CBV?$basic_string@DU?$char_traits@D@std@@V?$allocator@D@2@@std@@V12@@std@@@2@@std@@QAEPAU?$_Tree_node@U?$pair@$$CBV?$basic_string@DU?$char_traits@D@std@@V?$allocator@D@2@@std@@V12@@std@@PAX@1@$$QAU?$pair@V?$basic_string@DU?$char_traits@D@std@@V?$allocator@D@2@@std@@V12@@1@@Z 00405750 f i ccConfig.obj
 0001:00004780       ??$_Buynode@V?$basic_string@DU?$char_traits@D@std@@V?$allocator@D@2@@std@@@?$_List_buy@V?$basic_string@DU?$char_traits@D@std@@V?$allocator@D@2@@std@@V?$allocator@V?$basic_string@DU?$char_traits@D@std@@V?$allocator@D@2@@std@@@2@@std@@QAEPAU?$_List_node@V?$basic_string@DU?$char_traits@D@std@@V?$allocator@D@2@@std@@PAX@1@PAU21@0$$QAV?$basic_string@DU?$char_traits@D@std@@V?$allocator@D@2@@1@@Z 00405780 f i ccConfig.obj
 0001:000047b0       ??$_Insert_at@AAU?$pair@$$CBV?$basic_string@DU?$char_traits@D@std@@V?$allocator@D@2@@std@@V12@@std@@PAU?$_Tree_node@U?$pair@$$CBV?$basic_string@DU?$char_traits@D@std@@V?$allocator@D@2@@std@@V12@@std@@PAX@2@@?$_Tree@V?$_Tmap_traits@V?$basic_string@DU?$char_traits@D@std@@V?$allocator@D@2@@std@@V12@U?$less@V?$basic_string@DU?$char_traits@D@std@@V?$allocator@D@2@@std@@@2@V?$allocator@U?$pair@$$CBV?$basic_string@DU?$char_traits@D@std@@V?$allocator@D@2@@std@@V12@@std@@@2@$0A@@std@@@std@@IAE?AV?$_Tree_iterator@V?$_Tree_val@U?$_Tree_simple_types@U?$pair@$$CBV?$basic_string@DU?$char_traits@D@std@@V?$allocator@D@2@@std@@V12@@std@@@std@@@std@@@1@_NPAU?$_Tree_node@U?$pair@$$CBV?$basic_string@DU?$char_traits@D@std@@V?$allocator@D@2@@std@@V12@@std@@PAX@1@AAU?$pair@$$CBV?$basic_string@DU?$char_traits@D@std@@V?$allocator@D@2@@std@@V12@@1@1@Z 004057b0 f i ccConfig.obj
 0001:000049c0       ??$_Insert_nohint@AAU?$pair@$$CBV?$basic_string@DU?$char_traits@D@std@@V?$allocator@D@2@@std@@V12@@std@@PAU?$_Tree_node@U?$pair@$$CBV?$basic_string@DU?$char_traits@D@std@@V?$allocator@D@2@@std@@V12@@std@@PAX@2@@?$_Tree@V?$_Tmap_traits@V?$basic_string@DU?$char_traits@D@std@@V?$allocator@D@2@@std@@V12@U?$less@V?$basic_string@DU?$char_traits@D@std@@V?$allocator@D@2@@std@@@2@V?$allocator@U?$pair@$$CBV?$basic_string@DU?$char_traits@D@std@@V?$allocator@D@2@@std@@V12@@std@@@2@$0A@@std@@@std@@IAE?AU?$pair@V?$_Tree_iterator@V?$_Tree_val@U?$_Tree_simple_types@U?$pair@$$CBV?$basic_string@DU?$char_traits@D@std@@V?$allocator@D@2@@std@@V12@@std@@@std@@@std@@@std@@_N@1@_NAAU?$pair@$$CBV?$basic_string@DU?$char_traits@D@std@@V?$allocator@D@2@@std@@V12@@1@PAU?$_Tree_node@U?$pair@$$CBV?$basic_string@DU?$char_traits@D@std@@V?$allocator@D@2@@std@@V12@@std@@PAX@1@@Z 004059c0 f i ccConfig.obj
 0001:00004c30       ??0ccConfig@@QAE@ABV?$basic_string@DU?$char_traits@D@std@@V?$allocator@D@2@@std@@0@Z 00405c30 f   ccConfig.obj
 0001:00004d50       ??1?$map@V?$basic_string@DU?$char_traits@D@std@@V?$allocator@D@2@@std@@V12@U?$less@V?$basic_string@DU?$char_traits@D@std@@V?$allocator@D@2@@std@@@2@V?$allocator@U?$pair@$$CBV?$basic_string@DU?$char_traits@D@std@@V?$allocator@D@2@@std@@V12@@std@@@2@@std@@QAE@XZ 00405d50 f i ccConfig.obj
 0001:00004d80       ??1?$pair@V?$basic_string@DU?$char_traits@D@std@@V?$allocator@D@2@@std@@V12@@std@@QAE@XZ 00405d80 f i ccConfig.obj
 0001:00004dd0       ??1ccConfig@@UAE@XZ        00405dd0 f   ccConfig.obj
 0001:00004e50       ??E?$_Tree_unchecked_const_iterator@V?$_Tree_val@U?$_Tree_simple_types@U?$pair@$$CBIPAVsingleReg@@@std@@@std@@@std@@U_Iterator_base0@2@@std@@QAEAAV01@XZ 00405e50 f i clientsRegistration.obj
 0001:00004e50       ??E?$_Tree_unchecked_const_iterator@V?$_Tree_val@U?$_Tree_simple_types@U?$pair@$$CBIPAVfabianServer@@@std@@@std@@@std@@U_Iterator_base0@2@@std@@QAEAAV01@XZ 00405e50 f i slink.obj
 0001:00004e50       ??E?$_Tree_unchecked_const_iterator@V?$_Tree_val@U?$_Tree_simple_types@U?$pair@$$CBV?$basic_string@DU?$char_traits@D@std@@V?$allocator@D@2@@std@@V12@@std@@@std@@@std@@U_Iterator_base0@2@@std@@QAEAAV01@XZ 00405e50 f i ccConfig.obj
 0001:00004e50       ??E?$_Tree_unchecked_const_iterator@V?$_Tree_val@U?$_Tree_simple_types@VQString@@@std@@@std@@U_Iterator_base0@2@@std@@QAEAAV01@XZ 00405e50 f i fabianServer.obj
 0001:00004e50       ??E?$_Tree_unchecked_const_iterator@V?$_Tree_val@U?$_Tree_simple_types@U?$pair@$$CBIPAVdatabaseSync@@@std@@@std@@@std@@U_Iterator_base0@2@@std@@QAEAAV01@XZ 00405e50 f i databaseSync.obj
 0001:00004e50       ??E?$_Tree_unchecked_const_iterator@V?$_Tree_val@U?$_Tree_simple_types@VdbEntry@@@std@@@std@@U_Iterator_base0@2@@std@@QAEAAV01@XZ 00405e50 f i slink.obj
 0001:00004e50       ??E?$_Tree_unchecked_const_iterator@V?$_Tree_val@U?$_Tree_simple_types@U?$pair@$$CBVQString@@PAVuser@@@std@@@std@@@std@@U_Iterator_base0@2@@std@@QAEAAV01@XZ 00405e50 f i users.obj
 0001:00004e50       ??E?$_Tree_unchecked_const_iterator@V?$_Tree_val@U?$_Tree_simple_types@VpollCommand@@@std@@@std@@U_Iterator_base0@2@@std@@QAEAAV01@XZ 00405e50 f i slink.obj
 0001:00004ea0       ??_EccConfig@@UAEPAXI@Z    00405ea0 f i ccConfig.obj
 0001:00004ea0       ??_GccConfig@@UAEPAXI@Z    00405ea0 f i ccConfig.obj
 0001:00004ed0       ?_Buyheadnode@?$_Tree_alloc@$0A@U?$_Tree_base_types@U?$pair@$$CBV?$basic_string@DU?$char_traits@D@std@@V?$allocator@D@2@@std@@V12@@std@@V?$allocator@U?$pair@$$CBV?$basic_string@DU?$char_traits@D@std@@V?$allocator@D@2@@std@@V12@@std@@@2@@std@@@std@@QAEPAU?$_Tree_node@U?$pair@$$CBV?$basic_string@DU?$char_traits@D@std@@V?$allocator@D@2@@std@@V12@@std@@PAX@2@XZ 00405ed0 f i ccConfig.obj
 0001:00004f00       ?_Buynode0@?$_List_alloc@$0A@U?$_List_base_types@V?$basic_string@DU?$char_traits@D@std@@V?$allocator@D@2@@std@@V?$allocator@V?$basic_string@DU?$char_traits@D@std@@V?$allocator@D@2@@std@@@2@@std@@@std@@QAEPAU?$_List_node@V?$basic_string@DU?$char_traits@D@std@@V?$allocator@D@2@@std@@PAX@2@PAU32@0@Z 00405f00 f i ccConfig.obj
 0001:00004f40       ?_Buynode0@?$_Tree_buy@U?$pair@$$CBV?$basic_string@DU?$char_traits@D@std@@V?$allocator@D@2@@std@@V12@@std@@V?$allocator@U?$pair@$$CBV?$basic_string@DU?$char_traits@D@std@@V?$allocator@D@2@@std@@V12@@std@@@2@@std@@QAEPAU?$_Tree_node@U?$pair@$$CBV?$basic_string@DU?$char_traits@D@std@@V?$allocator@D@2@@std@@V12@@std@@PAX@2@XZ 00405f40 f i ccConfig.obj
 0001:00004f80       ?_Destroy_if_not_nil@?$_Tree@V?$_Tmap_traits@V?$basic_string@DU?$char_traits@D@std@@V?$allocator@D@2@@std@@V12@U?$less@V?$basic_string@DU?$char_traits@D@std@@V?$allocator@D@2@@std@@@2@V?$allocator@U?$pair@$$CBV?$basic_string@DU?$char_traits@D@std@@V?$allocator@D@2@@std@@V12@@std@@@2@$0A@@std@@@std@@IAEXPAU?$_Tree_node@U?$pair@$$CBV?$basic_string@DU?$char_traits@D@std@@V?$allocator@D@2@@std@@V12@@std@@PAX@2@@Z 00405f80 f i ccConfig.obj
 0001:00004fe0       ?_Erase@?$_Tree@V?$_Tmap_traits@V?$basic_string@DU?$char_traits@D@std@@V?$allocator@D@2@@std@@V12@U?$less@V?$basic_string@DU?$char_traits@D@std@@V?$allocator@D@2@@std@@@2@V?$allocator@U?$pair@$$CBV?$basic_string@DU?$char_traits@D@std@@V?$allocator@D@2@@std@@V12@@std@@@2@$0A@@std@@@std@@IAEXPAU?$_Tree_node@U?$pair@$$CBV?$basic_string@DU?$char_traits@D@std@@V?$allocator@D@2@@std@@V12@@std@@PAX@2@@Z 00405fe0 f i ccConfig.obj
 0001:00005060       ?buftolower@ccConfig@@CAPADPAD@Z 00406060 f   ccConfig.obj
 0001:000050b0       ?compare@?$basic_string@DU?$char_traits@D@std@@V?$allocator@D@2@@std@@QBEHIIPBDI@Z 004060b0 f i ccConfig.obj
 0001:00005120       ?compare@?$char_traits@D@std@@SAHPBD0I@Z 00406120 f i ccConfig.obj
 0001:00005190       ?deleteKeysFromSectionRoot@ccConfig@@SAXABV?$basic_string@DU?$char_traits@D@std@@V?$allocator@D@2@@std@@00@Z 00406190 f   ccConfig.obj
 0001:00005310       ?deleteSectionRoot@ccConfig@@SAXABV?$basic_string@DU?$char_traits@D@std@@V?$allocator@D@2@@std@@0@Z 00406310 f   ccConfig.obj
 0001:00005400       ?erase@?$_Tree@V?$_Tmap_traits@V?$basic_string@DU?$char_traits@D@std@@V?$allocator@D@2@@std@@V12@U?$less@V?$basic_string@DU?$char_traits@D@std@@V?$allocator@D@2@@std@@@2@V?$allocator@U?$pair@$$CBV?$basic_string@DU?$char_traits@D@std@@V?$allocator@D@2@@std@@V12@@std@@@2@$0A@@std@@@std@@QAE?AV?$_Tree_iterator@V?$_Tree_val@U?$_Tree_simple_types@U?$pair@$$CBV?$basic_string@DU?$char_traits@D@std@@V?$allocator@D@2@@std@@V12@@std@@@std@@@std@@@2@V?$_Tree_const_iterator@V?$_Tree_val@U?$_Tree_simple_types@U?$pair@$$CBV?$basic_string@DU?$char_traits@D@std@@V?$allocator@D@2@@std@@V12@@std@@@std@@@std@@@2@0@Z 00406400 f i ccConfig.obj
 0001:000054c0       ?erase@?$_Tree@V?$_Tmap_traits@V?$basic_string@DU?$char_traits@D@std@@V?$allocator@D@2@@std@@V12@U?$less@V?$basic_string@DU?$char_traits@D@std@@V?$allocator@D@2@@std@@@2@V?$allocator@U?$pair@$$CBV?$basic_string@DU?$char_traits@D@std@@V?$allocator@D@2@@std@@V12@@std@@@2@$0A@@std@@@std@@QAE?AV?$_Tree_iterator@V?$_Tree_val@U?$_Tree_simple_types@U?$pair@$$CBV?$basic_string@DU?$char_traits@D@std@@V?$allocator@D@2@@std@@V12@@std@@@std@@@std@@@2@V?$_Tree_const_iterator@V?$_Tree_val@U?$_Tree_simple_types@U?$pair@$$CBV?$basic_string@DU?$char_traits@D@std@@V?$allocator@D@2@@std@@V12@@std@@@std@@@std@@@2@@Z 004064c0 f i ccConfig.obj
 0001:00005790       ?find@?$basic_string@DU?$char_traits@D@std@@V?$allocator@D@2@@std@@QBEIPBDII@Z 00406790 f i ccConfig.obj
 0001:00005830       ?find@ccConfig@@AAE?AV?$_Tree_iterator@V?$_Tree_val@U?$_Tree_simple_types@U?$pair@$$CBV?$basic_string@DU?$char_traits@D@std@@V?$allocator@D@2@@std@@V12@@std@@@std@@@std@@@std@@ABV?$basic_string@DU?$char_traits@D@std@@V?$allocator@D@2@@3@@Z 00406830 f   ccConfig.obj
 0001:000059f0       ?getDevPath@ccConfig@@SA?AV?$basic_string@DU?$char_traits@D@std@@V?$allocator@D@2@@std@@ABV23@@Z 004069f0 f   ccConfig.obj
 0001:00005ab0       ?getDevPath@ccConfig@@SA?AV?$basic_string@DU?$char_traits@D@std@@V?$allocator@D@2@@std@@XZ 00406ab0 f   ccConfig.obj
 0001:00005cc0       ?getInt@ccConfig@@QAEHABV?$basic_string@DU?$char_traits@D@std@@V?$allocator@D@2@@std@@H_N@Z 00406cc0 f   ccConfig.obj
 0001:00005d80       ?getInt@ccConfig@@SAHABV?$basic_string@DU?$char_traits@D@std@@V?$allocator@D@2@@std@@00H_N@Z 00406d80 f   ccConfig.obj
 0001:00005ed0       ?getString@ccConfig@@QAE?AV?$basic_string@DU?$char_traits@D@std@@V?$allocator@D@2@@std@@ABV23@0_N@Z 00406ed0 f   ccConfig.obj
 0001:00005f70       ?isV3Based@ccConfig@@SA_NXZ 00406f70 f   ccConfig.obj
 0001:00006020       ?readConfigSectionAbs@ccConfig@@CAXABV?$basic_string@DU?$char_traits@D@std@@V?$allocator@D@2@@std@@0AAV?$map@V?$basic_string@DU?$char_traits@D@std@@V?$allocator@D@2@@std@@V12@U?$less@V?$basic_string@DU?$char_traits@D@std@@V?$allocator@D@2@@std@@@2@V?$allocator@U?$pair@$$CBV?$basic_string@DU?$char_traits@D@std@@V?$allocator@D@2@@std@@V12@@std@@@2@@3@@Z 00407020 f   ccConfig.obj
 0001:00006440       ?readConfigSectionRoot@ccConfig@@SAXABV?$basic_string@DU?$char_traits@D@std@@V?$allocator@D@2@@std@@0AAV?$map@V?$basic_string@DU?$char_traits@D@std@@V?$allocator@D@2@@std@@V12@U?$less@V?$basic_string@DU?$char_traits@D@std@@V?$allocator@D@2@@std@@@2@V?$allocator@U?$pair@$$CBV?$basic_string@DU?$char_traits@D@std@@V?$allocator@D@2@@std@@V12@@std@@@2@@3@@Z 00407440 f   ccConfig.obj
 0001:00006530       ?sectionsAbs@ccConfig@@SAXABV?$basic_string@DU?$char_traits@D@std@@V?$allocator@D@2@@std@@AAV?$list@V?$basic_string@DU?$char_traits@D@std@@V?$allocator@D@2@@std@@V?$allocator@V?$basic_string@DU?$char_traits@D@std@@V?$allocator@D@2@@std@@@2@@3@@Z 00407530 f   ccConfig.obj
 0001:00006720       ?sectionsRoot@ccConfig@@SAXABV?$basic_string@DU?$char_traits@D@std@@V?$allocator@D@2@@std@@AAV?$list@V?$basic_string@DU?$char_traits@D@std@@V?$allocator@D@2@@std@@V?$allocator@V?$basic_string@DU?$char_traits@D@std@@V?$allocator@D@2@@std@@@2@@3@@Z 00407720 f   ccConfig.obj
 0001:00006800       ?setString@ccConfig@@QAEXABV?$basic_string@DU?$char_traits@D@std@@V?$allocator@D@2@@std@@0@Z 00407800 f   ccConfig.obj
 0001:00006870       ?strtolower@ccConfig@@CA?AV?$basic_string@DU?$char_traits@D@std@@V?$allocator@D@2@@std@@ABV23@@Z 00407870 f   ccConfig.obj
 0001:00006960       ?workstation@ccConfig@@SAHXZ 00407960 f   ccConfig.obj
 0001:00006cc0       ?writeConfigSectionAbs@ccConfig@@CAXABV?$basic_string@DU?$char_traits@D@std@@V?$allocator@D@2@@std@@0ABV?$map@V?$basic_string@DU?$char_traits@D@std@@V?$allocator@D@2@@std@@V12@U?$less@V?$basic_string@DU?$char_traits@D@std@@V?$allocator@D@2@@std@@@2@V?$allocator@U?$pair@$$CBV?$basic_string@DU?$char_traits@D@std@@V?$allocator@D@2@@std@@V12@@std@@@2@@3@@Z 00407cc0 f   ccConfig.obj
 0001:00007130       ?writeConfigSectionRoot@ccConfig@@SAXABV?$basic_string@DU?$char_traits@D@std@@V?$allocator@D@2@@std@@0ABV?$map@V?$basic_string@DU?$char_traits@D@std@@V?$allocator@D@2@@std@@V12@U?$less@V?$basic_string@DU?$char_traits@D@std@@V?$allocator@D@2@@std@@@2@V?$allocator@U?$pair@$$CBV?$basic_string@DU?$char_traits@D@std@@V?$allocator@D@2@@std@@V12@@std@@@2@@3@@Z 00408130 f   ccConfig.obj
 0001:00007220       ??H@YA?BVQString@@ABV0@0@Z 00408220 f i appGlobal.obj
 0001:00007290       ??H@YA?BVQString@@ABV0@PBD@Z 00408290 f i appGlobal.obj
 0001:00007320       ??H@YA?BVQString@@PBDABV0@@Z 00408320 f i appGlobal.obj
 0001:00007390       ?configFilename@appGlobal@@SA?AVQString@@XZ 00408390 f   appGlobal.obj
 0001:00007460       ?dataPath@appGlobal@@SA?AVQString@@ABV2@@Z 00408460 f   appGlobal.obj
 0001:00007760       ?log@appGlobal@@SAXABVQString@@@Z 00408760 f   appGlobal.obj
 0001:000078a0       ?logError@appGlobal@@SAXABVQString@@@Z 004088a0 f   appGlobal.obj
 0001:00007a00       ?profile@appGlobal@@SA?AVQString@@XZ 00408a00 f   appGlobal.obj
 0001:00007a50       ?setLog@appGlobal@@SAXPAVQTextEdit@@H@Z 00408a50 f   appGlobal.obj
 0001:00007bb0       ?setLogging@appGlobal@@SAX_N@Z 00408bb0 f   appGlobal.obj
 0001:00007bc0       ?setProfile@appGlobal@@SAXABVQString@@@Z 00408bc0 f   appGlobal.obj
 0001:00007be0       ??$_Buynode@U?$pair@IPAVsingleReg@@@std@@@?$_Tree_buy@U?$pair@$$CBIPAVsingleReg@@@std@@V?$allocator@U?$pair@$$CBIPAVsingleReg@@@std@@@2@@std@@QAEPAU?$_Tree_node@U?$pair@$$CBIPAVsingleReg@@@std@@PAX@1@$$QAU?$pair@IPAVsingleReg@@@1@@Z 00408be0 f i user.obj
 0001:00007be0       ??$_Buynode@U?$pair@IPAVfabianServer@@@std@@@?$_Tree_buy@U?$pair@$$CBIPAVfabianServer@@@std@@V?$allocator@U?$pair@$$CBIPAVfabianServer@@@std@@@2@@std@@QAEPAU?$_Tree_node@U?$pair@$$CBIPAVfabianServer@@@std@@PAX@1@$$QAU?$pair@IPAVfabianServer@@@1@@Z 00408be0 f i slink.obj
 0001:00007be0       ??$_Buynode@U?$pair@IPAVdatabaseSync@@@std@@@?$_Tree_buy@U?$pair@$$CBIPAVdatabaseSync@@@std@@V?$allocator@U?$pair@$$CBIPAVdatabaseSync@@@std@@@2@@std@@QAEPAU?$_Tree_node@U?$pair@$$CBIPAVdatabaseSync@@@std@@PAX@1@$$QAU?$pair@IPAVdatabaseSync@@@1@@Z 00408be0 f i databaseSync.obj
 0001:00007be0       ??$_Buynode@U?$pair@HPAVsingleReg@@@std@@@?$_Tree_buy@U?$pair@$$CBIPAVsingleReg@@@std@@V?$allocator@U?$pair@$$CBIPAVsingleReg@@@std@@@2@@std@@QAEPAU?$_Tree_node@U?$pair@$$CBIPAVsingleReg@@@std@@PAX@1@$$QAU?$pair@HPAVsingleReg@@@1@@Z 00408be0 f i clientsRegistration.obj
 0001:00007be0       ??$_Buynode@VdbEntry@@@?$_Tree_buy@VdbEntry@@V?$allocator@VdbEntry@@@std@@@std@@QAEPAU?$_Tree_node@VdbEntry@@PAX@1@$$QAVdbEntry@@@Z 00408be0 f i databaseSync.obj
 0001:00007c10       ??$_Insert_at@AAU?$pair@$$CBIPAVdatabaseSync@@@std@@PAU?$_Tree_node@U?$pair@$$CBIPAVdatabaseSync@@@std@@PAX@2@@?$_Tree@V?$_Tmap_traits@IPAVdatabaseSync@@U?$less@I@std@@V?$allocator@U?$pair@$$CBIPAVdatabaseSync@@@std@@@3@$0A@@std@@@std@@IAE?AV?$_Tree_iterator@V?$_Tree_val@U?$_Tree_simple_types@U?$pair@$$CBIPAVdatabaseSync@@@std@@@std@@@std@@@1@_NPAU?$_Tree_node@U?$pair@$$CBIPAVdatabaseSync@@@std@@PAX@1@AAU?$pair@$$CBIPAVdatabaseSync@@@1@1@Z 00408c10 f i databaseSync.obj
 0001:00007c10       ??$_Insert_at@AAU?$pair@$$CBIPAVfabianServer@@@std@@PAU?$_Tree_node@U?$pair@$$CBIPAVfabianServer@@@std@@PAX@2@@?$_Tree@V?$_Tmap_traits@IPAVfabianServer@@U?$less@I@std@@V?$allocator@U?$pair@$$CBIPAVfabianServer@@@std@@@3@$0A@@std@@@std@@IAE?AV?$_Tree_iterator@V?$_Tree_val@U?$_Tree_simple_types@U?$pair@$$CBIPAVfabianServer@@@std@@@std@@@std@@@1@_NPAU?$_Tree_node@U?$pair@$$CBIPAVfabianServer@@@std@@PAX@1@AAU?$pair@$$CBIPAVfabianServer@@@1@1@Z 00408c10 f i slink.obj
 0001:00007c10       ??$_Insert_at@AAU?$pair@$$CBIPAVsingleReg@@@std@@PAU?$_Tree_node@U?$pair@$$CBIPAVsingleReg@@@std@@PAX@2@@?$_Tree@V?$_Tmap_traits@IPAVsingleReg@@U?$less@I@std@@V?$allocator@U?$pair@$$CBIPAVsingleReg@@@std@@@3@$00@std@@@std@@IAE?AV?$_Tree_iterator@V?$_Tree_val@U?$_Tree_simple_types@U?$pair@$$CBIPAVsingleReg@@@std@@@std@@@std@@@1@_NPAU?$_Tree_node@U?$pair@$$CBIPAVsingleReg@@@std@@PAX@1@AAU?$pair@$$CBIPAVsingleReg@@@1@1@Z 00408c10 f i clientsRegistration.obj
 0001:00007c10       ??$_Insert_at@AAU?$pair@$$CBIPAVsingleReg@@@std@@PAU?$_Tree_node@U?$pair@$$CBIPAVsingleReg@@@std@@PAX@2@@?$_Tree@V?$_Tmap_traits@IPAVsingleReg@@U?$less@I@std@@V?$allocator@U?$pair@$$CBIPAVsingleReg@@@std@@@3@$0A@@std@@@std@@IAE?AV?$_Tree_iterator@V?$_Tree_val@U?$_Tree_simple_types@U?$pair@$$CBIPAVsingleReg@@@std@@@std@@@std@@@1@_NPAU?$_Tree_node@U?$pair@$$CBIPAVsingleReg@@@std@@PAX@1@AAU?$pair@$$CBIPAVsingleReg@@@1@1@Z 00408c10 f i user.obj
 0001:00007e20       ??$_Insert_nohint@AAU?$pair@$$CBIPAVsingleReg@@@std@@PAU?$_Tree_node@U?$pair@$$CBIPAVsingleReg@@@std@@PAX@2@@?$_Tree@V?$_Tmap_traits@IPAVsingleReg@@U?$less@I@std@@V?$allocator@U?$pair@$$CBIPAVsingleReg@@@std@@@3@$00@std@@@std@@IAE?AU?$pair@V?$_Tree_iterator@V?$_Tree_val@U?$_Tree_simple_types@U?$pair@$$CBIPAVsingleReg@@@std@@@std@@@std@@@std@@_N@1@_NAAU?$pair@$$CBIPAVsingleReg@@@1@PAU?$_Tree_node@U?$pair@$$CBIPAVsingleReg@@@std@@PAX@1@@Z 00408e20 f i clientsRegistration.obj
 0001:00007ee0       ??0clientsRegistration@@QAE@XZ 00408ee0 f   clientsRegistration.obj
 0001:00007f10       ??1clientsRegistration@@UAE@XZ 00408f10 f   clientsRegistration.obj
 0001:00008020       ??F?$_Tree_unchecked_const_iterator@V?$_Tree_val@U?$_Tree_simple_types@U?$pair@$$CBIPAVsingleReg@@@std@@@std@@@std@@U_Iterator_base0@2@@std@@QAEAAV01@XZ 00409020 f i clientsRegistration.obj
 0001:00008020       ??F?$_Tree_unchecked_const_iterator@V?$_Tree_val@U?$_Tree_simple_types@VQString@@@std@@@std@@U_Iterator_base0@2@@std@@QAEAAV01@XZ 00409020 f i slink.obj
 0001:00008020       ??F?$_Tree_unchecked_const_iterator@V?$_Tree_val@U?$_Tree_simple_types@U?$pair@$$CBV?$basic_string@DU?$char_traits@D@std@@V?$allocator@D@2@@std@@V12@@std@@@std@@@std@@U_Iterator_base0@2@@std@@QAEAAV01@XZ 00409020 f i ccConfig.obj
 0001:00008020       ??F?$_Tree_unchecked_const_iterator@V?$_Tree_val@U?$_Tree_simple_types@U?$pair@$$CBIPAVdatabaseSync@@@std@@@std@@@std@@U_Iterator_base0@2@@std@@QAEAAV01@XZ 00409020 f i databaseSync.obj
 0001:00008020       ??F?$_Tree_unchecked_const_iterator@V?$_Tree_val@U?$_Tree_simple_types@U?$pair@$$CBVQString@@PAVuser@@@std@@@std@@@std@@U_Iterator_base0@2@@std@@QAEAAV01@XZ 00409020 f i users.obj
 0001:00008020       ??F?$_Tree_unchecked_const_iterator@V?$_Tree_val@U?$_Tree_simple_types@VpollCommand@@@std@@@std@@U_Iterator_base0@2@@std@@QAEAAV01@XZ 00409020 f i slink.obj
 0001:00008020       ??F?$_Tree_unchecked_const_iterator@V?$_Tree_val@U?$_Tree_simple_types@U?$pair@$$CBIPAVfabianServer@@@std@@@std@@@std@@U_Iterator_base0@2@@std@@QAEAAV01@XZ 00409020 f i slink.obj
 0001:00008020       ??F?$_Tree_unchecked_const_iterator@V?$_Tree_val@U?$_Tree_simple_types@VdbEntry@@@std@@@std@@U_Iterator_base0@2@@std@@QAEAAV01@XZ 00409020 f i databaseSync.obj
 0001:00008080       ??_EclientsRegistration@@UAEPAXI@Z 00409080 f i clientsRegistration.obj
 0001:00008080       ??_GclientsRegistration@@UAEPAXI@Z 00409080 f i clientsRegistration.obj
 0001:000080b0       ?addRegistration@clientsRegistration@@QAEXVclientIPC@@III_N@Z 004090b0 f   clientsRegistration.obj
 0001:000080f0       ?deleteAllRegistrations@clientsRegistration@@QAEXVclientIPC@@I@Z 004090f0 f   clientsRegistration.obj
 0001:000081b0       ?getClientList@clientsRegistration@@QAEXIAAV?$list@VclientIPC@@V?$allocator@VclientIPC@@@std@@@std@@@Z 004091b0 f   clientsRegistration.obj
 0001:000082c0       ?getClientList@clientsRegistration@@QAEXIIAAV?$list@VclientIPC@@V?$allocator@VclientIPC@@@std@@@std@@@Z 004092c0 f   clientsRegistration.obj
 0001:000083e0       ?getRationalisedReg@clientsRegistration@@QAEXIAAI0@Z 004093e0 f   clientsRegistration.obj
 0001:000084f0       ?getRegObject@clientsRegistration@@AAEPAVsingleReg@@VclientIPC@@I_N@Z 004094f0 f   clientsRegistration.obj
 0001:00008670       ?hasRegistration@clientsRegistration@@QAE_NI@Z 00409670 f   clientsRegistration.obj
 0001:000086c0       ?isRegistered@clientsRegistration@@QAE_NVclientIPC@@II@Z 004096c0 f   clientsRegistration.obj
 0001:000087a0       ?isRegistered@clientsRegistration@@QAE_NVclientIPC@@III@Z 004097a0 f   clientsRegistration.obj
 0001:00008880       ??$_Insert_at@VdbEntry@@U_Nil@std@@@?$_Tree@V?$_Tset_traits@VdbEntry@@U?$less@VdbEntry@@@std@@V?$allocator@VdbEntry@@@3@$0A@@std@@@std@@IAE?AV?$_Tree_const_iterator@V?$_Tree_val@U?$_Tree_simple_types@VdbEntry@@@std@@@std@@@1@_NPAU?$_Tree_node@VdbEntry@@PAX@1@$$QAVdbEntry@@U_Nil@1@@Z 00409880 f i databaseSync.obj
 0001:00008a80       ??$_Insert_nohint@VdbEntry@@U_Nil@std@@@?$_Tree@V?$_Tset_traits@VdbEntry@@U?$less@VdbEntry@@@std@@V?$allocator@VdbEntry@@@3@$0A@@std@@@std@@IAE?AU?$pair@V?$_Tree_const_iterator@V?$_Tree_val@U?$_Tree_simple_types@VdbEntry@@@std@@@std@@@std@@_N@1@_N$$QAVdbEntry@@U_Nil@1@@Z 00409a80 f i databaseSync.obj
 0001:00008bb0       ??0databaseSync@@QAE@I@Z   00409bb0 f   databaseSync.obj
 0001:00008d80       ??1?$QList@VQString@@@@QAE@XZ 00409d80 f i databaseSync.obj
 0001:00008de0       ??1QStringList@@QAE@XZ     00409de0 f i databaseSync.obj
 0001:00008df0       ??A?$QList@VQString@@@@QAEAAVQString@@H@Z 00409df0 f i databaseSync.obj
 0001:00008e20       ??_GdatabaseSync@@UAEPAXI@Z 00409e20 f i databaseSync.obj
 0001:00008e20       ??_EdatabaseSync@@UAEPAXI@Z 00409e20 f i databaseSync.obj
 0001:00008e50       ?_Lrotate@?$_Tree@V?$_Tmap_traits@V?$basic_string@DU?$char_traits@D@std@@V?$allocator@D@2@@std@@V12@U?$less@V?$basic_string@DU?$char_traits@D@std@@V?$allocator@D@2@@std@@@2@V?$allocator@U?$pair@$$CBV?$basic_string@DU?$char_traits@D@std@@V?$allocator@D@2@@std@@V12@@std@@@2@$0A@@std@@@std@@IAEXPAU?$_Tree_node@U?$pair@$$CBV?$basic_string@DU?$char_traits@D@std@@V?$allocator@D@2@@std@@V12@@std@@PAX@2@@Z 00409e50 f i ccConfig.obj
 0001:00008e50       ?_Lrotate@?$_Tree@V?$_Tmap_traits@IPAVdatabaseSync@@U?$less@I@std@@V?$allocator@U?$pair@$$CBIPAVdatabaseSync@@@std@@@3@$0A@@std@@@std@@IAEXPAU?$_Tree_node@U?$pair@$$CBIPAVdatabaseSync@@@std@@PAX@2@@Z 00409e50 f i databaseSync.obj
 0001:00008e50       ?_Lrotate@?$_Tree@V?$_Tset_traits@VdbEntry@@U?$less@VdbEntry@@@std@@V?$allocator@VdbEntry@@@3@$0A@@std@@@std@@IAEXPAU?$_Tree_node@VdbEntry@@PAX@2@@Z 00409e50 f i databaseSync.obj
 0001:00008e50       ?_Lrotate@?$_Tree@V?$_Tmap_traits@IPAVfabianServer@@U?$less@I@std@@V?$allocator@U?$pair@$$CBIPAVfabianServer@@@std@@@3@$0A@@std@@@std@@IAEXPAU?$_Tree_node@U?$pair@$$CBIPAVfabianServer@@@std@@PAX@2@@Z 00409e50 f i slink.obj
 0001:00008e50       ?_Lrotate@?$_Tree@V?$_Tmap_traits@VQString@@PAVuser@@U?$less@VQString@@@std@@V?$allocator@U?$pair@$$CBVQString@@PAVuser@@@std@@@4@$0A@@std@@@std@@IAEXPAU?$_Tree_node@U?$pair@$$CBVQString@@PAVuser@@@std@@PAX@2@@Z 00409e50 f i users.obj
 0001:00008e50       ?_Lrotate@?$_Tree@V?$_Tset_traits@VQString@@U?$less@VQString@@@std@@V?$allocator@VQString@@@3@$0A@@std@@@std@@IAEXPAU?$_Tree_node@VQString@@PAX@2@@Z 00409e50 f i slink.obj
 0001:00008e50       ?_Lrotate@?$_Tree@V?$_Tmap_traits@IPAVsingleReg@@U?$less@I@std@@V?$allocator@U?$pair@$$CBIPAVsingleReg@@@std@@@3@$0A@@std@@@std@@IAEXPAU?$_Tree_node@U?$pair@$$CBIPAVsingleReg@@@std@@PAX@2@@Z 00409e50 f i user.obj
 0001:00008e50       ?_Lrotate@?$_Tree@V?$_Tmap_traits@IPAVsingleReg@@U?$less@I@std@@V?$allocator@U?$pair@$$CBIPAVsingleReg@@@std@@@3@$00@std@@@std@@IAEXPAU?$_Tree_node@U?$pair@$$CBIPAVsingleReg@@@std@@PAX@2@@Z 00409e50 f i clientsRegistration.obj
 0001:00008e50       ?_Lrotate@?$_Tree@V?$_Tset_traits@VpollCommand@@U?$less@VpollCommand@@@std@@V?$allocator@VpollCommand@@@3@$0A@@std@@@std@@IAEXPAU?$_Tree_node@VpollCommand@@PAX@2@@Z 00409e50 f i slink.obj
 0001:00008eb0       ?_Rrotate@?$_Tree@V?$_Tset_traits@VpollCommand@@U?$less@VpollCommand@@@std@@V?$allocator@VpollCommand@@@3@$0A@@std@@@std@@IAEXPAU?$_Tree_node@VpollCommand@@PAX@2@@Z 00409eb0 f i slink.obj
 0001:00008eb0       ?_Rrotate@?$_Tree@V?$_Tmap_traits@IPAVfabianServer@@U?$less@I@std@@V?$allocator@U?$pair@$$CBIPAVfabianServer@@@std@@@3@$0A@@std@@@std@@IAEXPAU?$_Tree_node@U?$pair@$$CBIPAVfabianServer@@@std@@PAX@2@@Z 00409eb0 f i slink.obj
 0001:00008eb0       ?_Rrotate@?$_Tree@V?$_Tmap_traits@V?$basic_string@DU?$char_traits@D@std@@V?$allocator@D@2@@std@@V12@U?$less@V?$basic_string@DU?$char_traits@D@std@@V?$allocator@D@2@@std@@@2@V?$allocator@U?$pair@$$CBV?$basic_string@DU?$char_traits@D@std@@V?$allocator@D@2@@std@@V12@@std@@@2@$0A@@std@@@std@@IAEXPAU?$_Tree_node@U?$pair@$$CBV?$basic_string@DU?$char_traits@D@std@@V?$allocator@D@2@@std@@V12@@std@@PAX@2@@Z 00409eb0 f i ccConfig.obj
 0001:00008eb0       ?_Rrotate@?$_Tree@V?$_Tmap_traits@IPAVsingleReg@@U?$less@I@std@@V?$allocator@U?$pair@$$CBIPAVsingleReg@@@std@@@3@$00@std@@@std@@IAEXPAU?$_Tree_node@U?$pair@$$CBIPAVsingleReg@@@std@@PAX@2@@Z 00409eb0 f i clientsRegistration.obj
 0001:00008eb0       ?_Rrotate@?$_Tree@V?$_Tmap_traits@VQString@@PAVuser@@U?$less@VQString@@@std@@V?$allocator@U?$pair@$$CBVQString@@PAVuser@@@std@@@4@$0A@@std@@@std@@IAEXPAU?$_Tree_node@U?$pair@$$CBVQString@@PAVuser@@@std@@PAX@2@@Z 00409eb0 f i users.obj
 0001:00008eb0       ?_Rrotate@?$_Tree@V?$_Tset_traits@VdbEntry@@U?$less@VdbEntry@@@std@@V?$allocator@VdbEntry@@@3@$0A@@std@@@std@@IAEXPAU?$_Tree_node@VdbEntry@@PAX@2@@Z 00409eb0 f i databaseSync.obj
 0001:00008eb0       ?_Rrotate@?$_Tree@V?$_Tmap_traits@IPAVsingleReg@@U?$less@I@std@@V?$allocator@U?$pair@$$CBIPAVsingleReg@@@std@@@3@$0A@@std@@@std@@IAEXPAU?$_Tree_node@U?$pair@$$CBIPAVsingleReg@@@std@@PAX@2@@Z 00409eb0 f i user.obj
 0001:00008eb0       ?_Rrotate@?$_Tree@V?$_Tset_traits@VQString@@U?$less@VQString@@@std@@V?$allocator@VQString@@@3@$0A@@std@@@std@@IAEXPAU?$_Tree_node@VQString@@PAX@2@@Z 00409eb0 f i slink.obj
 0001:00008eb0       ?_Rrotate@?$_Tree@V?$_Tmap_traits@IPAVdatabaseSync@@U?$less@I@std@@V?$allocator@U?$pair@$$CBIPAVdatabaseSync@@@std@@@3@$0A@@std@@@std@@IAEXPAU?$_Tree_node@U?$pair@$$CBIPAVdatabaseSync@@@std@@PAX@2@@Z 00409eb0 f i databaseSync.obj
 0001:00008f10       ?detach_helper@?$QList@VQString@@@@AAEXH@Z 00409f10 f i databaseSync.obj
 0001:00009000       ?erase@?$_Tree@V?$_Tmap_traits@IPAVfabianServer@@U?$less@I@std@@V?$allocator@U?$pair@$$CBIPAVfabianServer@@@std@@@3@$0A@@std@@@std@@QAE?AV?$_Tree_iterator@V?$_Tree_val@U?$_Tree_simple_types@U?$pair@$$CBIPAVfabianServer@@@std@@@std@@@std@@@2@V?$_Tree_const_iterator@V?$_Tree_val@U?$_Tree_simple_types@U?$pair@$$CBIPAVfabianServer@@@std@@@std@@@std@@@2@@Z 0040a000 f i slink.obj
 0001:00009000       ?erase@?$_Tree@V?$_Tmap_traits@IPAVsingleReg@@U?$less@I@std@@V?$allocator@U?$pair@$$CBIPAVsingleReg@@@std@@@3@$00@std@@@std@@QAE?AV?$_Tree_iterator@V?$_Tree_val@U?$_Tree_simple_types@U?$pair@$$CBIPAVsingleReg@@@std@@@std@@@std@@@2@V?$_Tree_const_iterator@V?$_Tree_val@U?$_Tree_simple_types@U?$pair@$$CBIPAVsingleReg@@@std@@@std@@@std@@@2@@Z 0040a000 f i clientsRegistration.obj
 0001:00009000       ?erase@?$_Tree@V?$_Tmap_traits@IPAVsingleReg@@U?$less@I@std@@V?$allocator@U?$pair@$$CBIPAVsingleReg@@@std@@@3@$0A@@std@@@std@@QAE?AV?$_Tree_iterator@V?$_Tree_val@U?$_Tree_simple_types@U?$pair@$$CBIPAVsingleReg@@@std@@@std@@@std@@@2@V?$_Tree_const_iterator@V?$_Tree_val@U?$_Tree_simple_types@U?$pair@$$CBIPAVsingleReg@@@std@@@std@@@std@@@2@@Z 0040a000 f i user.obj
 0001:00009000       ?erase@?$_Tree@V?$_Tset_traits@VpollCommand@@U?$less@VpollCommand@@@std@@V?$allocator@VpollCommand@@@3@$0A@@std@@@std@@QAE?AV?$_Tree_const_iterator@V?$_Tree_val@U?$_Tree_simple_types@VpollCommand@@@std@@@std@@@2@V32@@Z 0040a000 f i slink.obj
 0001:00009000       ?erase@?$_Tree@V?$_Tset_traits@VdbEntry@@U?$less@VdbEntry@@@std@@V?$allocator@VdbEntry@@@3@$0A@@std@@@std@@QAE?AV?$_Tree_const_iterator@V?$_Tree_val@U?$_Tree_simple_types@VdbEntry@@@std@@@std@@@2@V32@@Z 0040a000 f i slink.obj
 0001:00009000       ?erase@?$_Tree@V?$_Tmap_traits@IPAVdatabaseSync@@U?$less@I@std@@V?$allocator@U?$pair@$$CBIPAVdatabaseSync@@@std@@@3@$0A@@std@@@std@@QAE?AV?$_Tree_iterator@V?$_Tree_val@U?$_Tree_simple_types@U?$pair@$$CBIPAVdatabaseSync@@@std@@@std@@@std@@@2@V?$_Tree_const_iterator@V?$_Tree_val@U?$_Tree_simple_types@U?$pair@$$CBIPAVdatabaseSync@@@std@@@std@@@std@@@2@@Z 0040a000 f i databaseSync.obj
 0001:00009270       ?getDatabaseSync@databaseSync@@SAPAV1@I@Z 0040a270 f   databaseSync.obj
 0001:00009360       ?getList@databaseSync@@QAE_NIIIAAV?$set@VdbEntry@@U?$less@VdbEntry@@@std@@V?$allocator@VdbEntry@@@3@@std@@@Z 0040a360 f   databaseSync.obj
 0001:000097b0       ?node_copy@?$QList@VQString@@@@AAEXPAUNode@1@00@Z 0040a7b0 f i databaseSync.obj
 0001:000097f0       ?node_destruct@?$QList@VQString@@@@AAEXPAUNode@1@0@Z 0040a7f0 f i databaseSync.obj
 0001:00009820       ?save@databaseSync@@QAEIIII@Z 0040a820 f   databaseSync.obj
 0001:00009e00       ?setTransId@databaseSync@@QAEXABVQString@@I@Z 0040ae00 f   databaseSync.obj
 0001:0000a140       ?transId@databaseSync@@QAEIABVQString@@@Z 0040b140 f   databaseSync.obj
 0001:0000a430       ?transId@databaseSync@@QAEIXZ 0040b430 f   databaseSync.obj
 0001:0000a510       ??0decodeBNCSString@@QAE@PBDD@Z 0040b510 f   decodeBNCSString.obj
 0001:0000a750       ??1decodeBNCSString@@UAE@XZ 0040b750 f   decodeBNCSString.obj
 0001:0000a770       ??_EdecodeBNCSString@@UAEPAXI@Z 0040b770 f i decodeBNCSString.obj
 0001:0000a770       ??_GdecodeBNCSString@@UAEPAXI@Z 0040b770 f i decodeBNCSString.obj
 0001:0000a7b0       ??$_Buynode@VclientIPC@@@?$_List_buy@VclientIPC@@V?$allocator@VclientIPC@@@std@@@std@@QAEPAU?$_List_node@VclientIPC@@PAX@1@PAU21@0$$QAVclientIPC@@@Z 0040b7b0 f i clientsRegistration.obj
 0001:0000a7b0       ??$_Buynode@ABQAVfabian_client@@@?$_List_buy@PAVfabian_client@@V?$allocator@PAVfabian_client@@@std@@@std@@QAEPAU?$_List_node@PAVfabian_client@@PAX@1@PAU21@0ABQAVfabian_client@@@Z 0040b7b0 f i fabianServer.obj
 0001:0000a7b0       ??$_Buynode@ABQAVuser@@@?$_List_buy@PAVuser@@V?$allocator@PAVuser@@@std@@@std@@QAEPAU?$_List_node@PAVuser@@PAX@1@PAU21@0ABQAVuser@@@Z 0040b7b0 f i users.obj
 0001:0000a7d0       ??0fabianServer@@QAE@PAVQObject@@ABVQHostAddress@@H_N2PAVIfabian_clientCallback@@PAV?$set@VQString@@U?$less@VQString@@@std@@V?$allocator@VQString@@@3@@std@@4@Z 0040b7d0 f   fabianServer.obj
 0001:0000aa50       ??1?$QPair@VQHostAddress@@H@@QAE@XZ 0040ba50 f i fabianServer.obj
 0001:0000aa60       ??1fabianServer@@UAE@XZ    0040ba60 f   fabianServer.obj
 0001:0000ab40       ??_GfabianServer@@UAEPAXI@Z 0040bb40 f i fabianServer.obj
 0001:0000ab40       ??_EfabianServer@@UAEPAXI@Z 0040bb40 f i fabianServer.obj
 0001:0000ab70       ?_Buynode0@?$_List_alloc@$0A@U?$_List_base_types@PAVuser@@V?$allocator@PAVuser@@@std@@@std@@@std@@QAEPAU?$_List_node@PAVuser@@PAX@2@PAU32@0@Z 0040bb70 f i slink.obj
 0001:0000ab70       ?_Buynode0@?$_List_alloc@$0A@U?$_List_base_types@VclientIPC@@V?$allocator@VclientIPC@@@std@@@std@@@std@@QAEPAU?$_List_node@VclientIPC@@PAX@2@PAU32@0@Z 0040bb70 f i clientsRegistration.obj
 0001:0000ab70       ?_Buynode0@?$_List_alloc@$0A@U?$_List_base_types@PAVfabian_client@@V?$allocator@PAVfabian_client@@@std@@@std@@@std@@QAEPAU?$_List_node@PAVfabian_client@@PAX@2@PAU32@0@Z 0040bb70 f i fabianServer.obj
 0001:0000abb0       ?deleteClientsByName@fabianServer@@QAEHABVQString@@@Z 0040bbb0 f   fabianServer.obj
 0001:0000ac40       ?incomingConnection@fabianServer@@MAEXH@Z 0040bc40 f   fabianServer.obj
 0001:0000af90       ?ok@fabianServer@@QAE_NXZ  0040bf90 f   fabianServer.obj
 0001:0000afa0       ?remove@?$list@PAVfabian_client@@V?$allocator@PAVfabian_client@@@std@@@std@@QAEXABQAVfabian_client@@@Z 0040bfa0 f i fabianServer.obj
 0001:0000b020       ?socketDisconnected@fabianServer@@AAEXXZ 0040c020 f   fabianServer.obj
 0001:0000b080       ??0?$QList@VQSslError@@@@QAE@ABV0@@Z 0040c080 f i fabian_client.obj
 0001:0000b140       ??0fabian_client@@QAE@H_N0PAVIfabian_clientCallback@@PAVQObject@@@Z 0040c140 f   fabian_client.obj
 0001:0000c600       ??1?$QForeachContainer@$$CBV?$QList@VQSslError@@@@@@QAE@XZ 0040d600 f i fabian_client.obj
 0001:0000c610       ??1?$QList@VQSslError@@@@QAE@XZ 0040d610 f i fabian_client.obj
 0001:0000c680       ??1fabian_client@@UAE@XZ   0040d680 f   fabian_client.obj
 0001:0000c776       ??_Efabian_client@@W7AEPAXI@Z 0040d776 f i fabian_client.obj
 0001:0000c780       ??_GQSslSocket@@UAEPAXI@Z  0040d780 f i fabian_client.obj
 0001:0000c780       ??_EQSslSocket@@UAEPAXI@Z  0040d780 f i fabian_client.obj
 0001:0000c7b0       ??_Gfabian_client@@UAEPAXI@Z 0040d7b0 f i fabian_client.obj
 0001:0000c7b0       ??_Efabian_client@@UAEPAXI@Z 0040d7b0 f i fabian_client.obj
 0001:0000c7e0       ?append@?$QList@VQString@@@@QAEXABVQString@@@Z 0040d7e0 f i fabian_client.obj
 0001:0000c890       ?bufParse@fabian_client@@AAEHPADH@Z 0040d890 f   fabian_client.obj
 0001:0000ca70       ?currentUser@fabian_client@@QAEPAVuser@@XZ 0040da70 f   fabian_client.obj
 0001:0000ca80       ?detach_helper_grow@?$QList@VQString@@@@AAEPAUNode@1@HH@Z 0040da80 f i fabian_client.obj
 0001:0000cc00       ?join@?$QListSpecialMethods@VQString@@@@QBE?AVQString@@ABV2@@Z 0040dc00 f i fabian_client.obj
 0001:0000cc40       ?lineParse@fabian_client@@AAEXABVQStringList@@@Z 0040dc40 f   fabian_client.obj
 0001:0000fb00       ?node_copy@?$QList@VQSslError@@@@AAEXPAUNode@1@00@Z 00410b00 f i fabian_client.obj
 0001:0000fba0       ?peerAddress@fabian_client@@QAE?AVQHostAddress@@XZ 00410ba0 f   fabian_client.obj
 0001:0000fbe0       ?preSharedKeyAuthenticationRequired@fabian_client@@QAEXPAVQSslPreSharedKeyAuthenticator@@@Z 00410be0 f   fabian_client.obj
 0001:0000fc10       ?sendData@fabian_client@@QAEXABVQString@@@Z 00410c10 f   fabian_client.obj
 0001:0000fc90       ?sendGreeting@fabian_client@@AAEXXZ 00410c90 f   fabian_client.obj
 0001:0000fe70       ?socketDisconnected@fabian_client@@QAEXXZ 00410e70 f   fabian_client.obj
 0001:0000ff30       ?socketEncrypted@fabian_client@@QAEXXZ 00410f30 f   fabian_client.obj
 0001:00010050       ?socketError@fabian_client@@QAEXW4SocketError@QAbstractSocket@@@Z 00411050 f   fabian_client.obj
 0001:000103c0       ?socketReadyRead@fabian_client@@QAEXXZ 004113c0 f   fabian_client.obj
 0001:00010540       ?socketSslErrors@fabian_client@@QAEXABV?$QList@VQSslError@@@@@Z 00411540 f   fabian_client.obj
 0001:00010780       ?sslMode@fabian_client@@QAEXW4SslMode@QSslSocket@@@Z 00411780 f   fabian_client.obj
 0001:000107b0       ?timerEvent@fabian_client@@MAEXPAVQTimerEvent@@@Z 004117b0 f   fabian_client.obj
 0001:00010930       ?userId@fabian_client@@QAE?AVQString@@XZ 00411930 f   fabian_client.obj
 0001:00010a10       ?workstationOverride@fabian_client@@QBEIXZ 00411a10 f   fabian_client.obj
 0001:00010a20       ??0?$_Wrap_alloc@V?$allocator@U?$_Tree_node@U?$pair@$$CBVQString@@PAVuser@@@std@@PAX@std@@@std@@@std@@QAE@XZ 00411a20 f i users.obj
 0001:00010a20       ??0?$_Wrap_alloc@V?$allocator@U?$_Tree_node@U?$pair@$$CBIPAVdatabaseSync@@@std@@PAX@std@@@std@@@std@@QAE@XZ 00411a20 f i databaseSync.obj
 0001:00010a20       ??0initializer@?A0x3ad23e3c@@QAE@XZ 00411a20 f i qrc_slink.obj
 0001:00010a30       ?metaObject@fabianServer@@UBEPBUQMetaObject@@XZ 00411a30 f   moc_fabianServer.obj
 0001:00010a50       ?qt_metacall@fabianServer@@UAEHW4Call@QMetaObject@@HPAPAX@Z 00411a50 f   moc_fabianServer.obj
 0001:00010ab0       ?qt_metacast@fabianServer@@UAEPAXPBD@Z 00411ab0 f   moc_fabianServer.obj
 0001:00010b10       ?qt_static_metacall@fabianServer@@CAXPAVQObject@@W4Call@QMetaObject@@HPAPAX@Z 00411b10 f   moc_fabianServer.obj
 0001:00010b30       ?Construct@?$QMetaTypeFunctionHelper@V?$QList@VQSslError@@@@$00@QtMetaTypePrivate@@SAPAXPAXPBX@Z 00411b30 f i moc_fabian_client.obj
 0001:00010bc0       ?Construct@?$QMetaTypeFunctionHelper@W4SocketError@QAbstractSocket@@$00@QtMetaTypePrivate@@SAPAXPAXPBX@Z 00411bc0 f i moc_fabian_client.obj
 0001:00010bf0       ?Destruct@?$QMetaTypeFunctionHelper@V?$QList@VQSslError@@@@$00@QtMetaTypePrivate@@SAXPAX@Z 00411bf0 f i moc_fabian_client.obj
 0001:00010c00       ?cccConnected@IccClientCallback@@MAEXXZ 00411c00 f i slink.obj
 0001:00010c00       ?cccDisconnected@IccClientCallback@@MAEXXZ 00411c00 f i slink.obj
 0001:00010c00       ?Destruct@?$QMetaTypeFunctionHelper@W4SocketError@QAbstractSocket@@$00@QtMetaTypePrivate@@SAXPAX@Z 00411c00 f i moc_fabian_client.obj
 0001:00010c00       ??1initializer@?A0x3ad23e3c@@QAE@XZ 00411c00 f i qrc_slink.obj
 0001:00010c00       ??3@YAXPAX0@Z              00411c00 f i ccCheck.obj
 0001:00010c10       ?disconnected@fabian_client@@QAEXXZ 00411c10 f   moc_fabian_client.obj
 0001:00010c30       ?metaObject@fabian_client@@UBEPBUQMetaObject@@XZ 00411c30 f   moc_fabian_client.obj
 0001:00010c50       ?qt_metacall@fabian_client@@UAEHW4Call@QMetaObject@@HPAPAX@Z 00411c50 f   moc_fabian_client.obj
 0001:00010cb0       ?qt_metacast@fabian_client@@UAEPAXPBD@Z 00411cb0 f   moc_fabian_client.obj
 0001:00010d50       ?qt_metatype_id@?$QMetaTypeId@V?$QList@VQSslError@@@@@@SAHXZ 00411d50 f i moc_fabian_client.obj
 0001:00010df0       ?qt_metatype_id@?$QMetaTypeId@W4SocketError@QAbstractSocket@@@@SAHXZ 00411df0 f i moc_fabian_client.obj
 0001:00010e90       ?qt_static_metacall@fabian_client@@CAXPAVQObject@@W4Call@QMetaObject@@HPAPAX@Z 00411e90 f   moc_fabian_client.obj
 0001:00010fc0       ?metaObject@slink@@UBEPBUQMetaObject@@XZ 00411fc0 f   moc_slink.obj
 0001:00010fe0       ?qt_metacall@slink@@UAEHW4Call@QMetaObject@@HPAPAX@Z 00411fe0 f   moc_slink.obj
 0001:00011050       ?qt_metacast@slink@@UAEPAXPBD@Z 00412050 f   moc_slink.obj
 0001:000110b0       ?qt_static_metacall@slink@@CAXPAVQObject@@W4Call@QMetaObject@@HPAPAX@Z 004120b0 f   moc_slink.obj
 0001:00011180       ?metaObject@userEditDialog@@UBEPBUQMetaObject@@XZ 00412180 f   moc_userEditDialog.obj
 0001:000111a0       ?qt_metacall@userEditDialog@@UAEHW4Call@QMetaObject@@HPAPAX@Z 004121a0 f   moc_userEditDialog.obj
 0001:00011210       ?qt_metacast@userEditDialog@@UAEPAXPBD@Z 00412210 f   moc_userEditDialog.obj
 0001:00011270       ?qt_static_metacall@userEditDialog@@CAXPAVQObject@@W4Call@QMetaObject@@HPAPAX@Z 00412270 f   moc_userEditDialog.obj
 0001:00011330       ?userAdded@userEditDialog@@QAEXPAVuser@@@Z 00412330 f   moc_userEditDialog.obj
 0001:00011360       ?userDeleted@userEditDialog@@QAEXABVQString@@@Z 00412360 f   moc_userEditDialog.obj
 0001:00011390       ?metaObject@userEditPermissionsDialog@@UBEPBUQMetaObject@@XZ 00412390 f   moc_userEditPermissionsDialog.obj
 0001:000113b0       ?qt_metacall@userEditPermissionsDialog@@UAEHW4Call@QMetaObject@@HPAPAX@Z 004123b0 f   moc_userEditPermissionsDialog.obj
 0001:00011430       ?qt_metacast@userEditPermissionsDialog@@UAEPAXPBD@Z 00412430 f   moc_userEditPermissionsDialog.obj
 0001:00011490       ?qt_static_metacall@userEditPermissionsDialog@@CAXPAVQObject@@W4Call@QMetaObject@@HPAPAX@Z 00412490 f   moc_userEditPermissionsDialog.obj
 0001:000114c0       _main                      004124c0 f   main.obj
 0001:000117e0       ??$_Buynode@ABVreg@@@?$_List_buy@Vreg@@V?$allocator@Vreg@@@std@@@std@@QAEPAU?$_List_node@Vreg@@PAX@1@PAU21@0ABVreg@@@Z 004127e0 f i singleReg.obj
 0001:000117e0       ??$_Buynode@Vreg@@@?$_List_buy@Vreg@@V?$allocator@Vreg@@@std@@@std@@QAEPAU?$_List_node@Vreg@@PAX@1@PAU21@0$$QAVreg@@@Z 004127e0 f i singleReg.obj
 0001:00011810       ??$_Insert_range@V?$_List_const_iterator@V?$_List_val@U?$_List_simple_types@Vreg@@@std@@@std@@@std@@@?$list@Vreg@@V?$allocator@Vreg@@@std@@@std@@QAEXV?$_List_unchecked_const_iterator@V?$_List_val@U?$_List_simple_types@Vreg@@@std@@@std@@U_Iterator_base0@2@@1@V?$_List_const_iterator@V?$_List_val@U?$_List_simple_types@Vreg@@@std@@@std@@@1@1Uforward_iterator_tag@1@@Z 00412810 f i singleReg.obj
 0001:000118e0       ??0?$list@Vreg@@V?$allocator@Vreg@@@std@@@std@@QAE@ABV01@@Z 004128e0 f i singleReg.obj
 0001:00011980       ??0singleReg@@QAE@VclientIPC@@I@Z 00412980 f   singleReg.obj
 0001:000119d0       ??1?$_List_buy@Vreg@@V?$allocator@Vreg@@@std@@@std@@QAE@XZ 004129d0 f i singleReg.obj
 0001:000119e0       ??_EsingleReg@@UAEPAXI@Z   004129e0 f i singleReg.obj
 0001:000119e0       ??_GsingleReg@@UAEPAXI@Z   004129e0 f i singleReg.obj
 0001:00011a40       ?_Buynode0@?$_List_alloc@$0A@U?$_List_base_types@Vreg@@V?$allocator@Vreg@@@std@@@std@@@std@@QAEPAU?$_List_node@Vreg@@PAX@2@PAU32@0@Z 00412a40 f i singleReg.obj
 0001:00011a80       ?_Tidy@?$list@Vreg@@V?$allocator@Vreg@@@std@@@std@@QAEXXZ 00412a80 f i singleReg.obj
 0001:00011ac0       ?_Unchecked_erase@?$list@Vreg@@V?$allocator@Vreg@@@std@@@std@@QAEXV?$_List_unchecked_const_iterator@V?$_List_val@U?$_List_simple_types@Vreg@@@std@@@std@@U_Iterator_base0@2@@2@@Z 00412ac0 f i singleReg.obj
 0001:00011af0       ?addRegistration@singleReg@@QAEXII@Z 00412af0 f   singleReg.obj
 0001:00011b50       ?cleanDuplicateRegistrations@singleReg@@AAEXXZ 00412b50 f   singleReg.obj
 0001:00011c10       ?client@singleReg@@QBE?AVclientIPC@@XZ 00412c10 f   singleReg.obj
 0001:00011c20       ?device@singleReg@@QBEIXZ  00412c20 f   singleReg.obj
 0001:00011c30       ?extendExistingRegistration@singleReg@@AAE_NII@Z 00412c30 f   singleReg.obj
 0001:00011cb0       ?isRegistered@singleReg@@QBE_NI@Z 00412cb0 f   singleReg.obj
 0001:00011ce0       ?isRegisteredRange@singleReg@@QBE_NII@Z 00412ce0 f   singleReg.obj
 0001:00011d40       ?maxIndex@singleReg@@QBEIXZ 00412d40 f   singleReg.obj
 0001:00011d60       ?minIndex@singleReg@@QBEIXZ 00412d60 f   singleReg.obj
 0001:00011d80       ?push_back@?$list@Vreg@@V?$allocator@Vreg@@@std@@@std@@QAEX$$QAVreg@@@Z 00412d80 f i singleReg.obj
 0001:00011dd0       ?registrations@singleReg@@QAEPAV?$list@Vreg@@V?$allocator@Vreg@@@std@@@std@@XZ 00412dd0 f   singleReg.obj
 0001:00011de0       ?removeAllRegistration@singleReg@@QAEXXZ 00412de0 f   singleReg.obj
 0001:00011e20       ??$_Buynode@ABVpollCommand@@@?$_Tree_buy@VpollCommand@@V?$allocator@VpollCommand@@@std@@@std@@QAEPAU?$_Tree_node@VpollCommand@@PAX@1@ABVpollCommand@@@Z 00412e20 f i slink.obj
 0001:00011e50       ??$_Buynode@VQString@@@?$_Tree_buy@VQString@@V?$allocator@VQString@@@std@@@std@@QAEPAU?$_Tree_node@VQString@@PAX@1@$$QAVQString@@@Z 00412e50 f i slink.obj
 0001:00011e80       ??$_Distance2@V?$_Tree_const_iterator@V?$_Tree_val@U?$_Tree_simple_types@VpollCommand@@@std@@@std@@@std@@I@std@@YAXV?$_Tree_const_iterator@V?$_Tree_val@U?$_Tree_simple_types@VpollCommand@@@std@@@std@@@0@0AAIUbidirectional_iterator_tag@0@@Z 00412e80 f i slink.obj
 0001:00011ef0       ??$_Insert_at@ABVpollCommand@@U_Nil@std@@@?$_Tree@V?$_Tset_traits@VpollCommand@@U?$less@VpollCommand@@@std@@V?$allocator@VpollCommand@@@3@$0A@@std@@@std@@IAE?AV?$_Tree_const_iterator@V?$_Tree_val@U?$_Tree_simple_types@VpollCommand@@@std@@@std@@@1@_NPAU?$_Tree_node@VpollCommand@@PAX@1@ABVpollCommand@@U_Nil@1@@Z 00412ef0 f i slink.obj
 0001:000120f0       ??$_Insert_at@VQString@@U_Nil@std@@@?$_Tree@V?$_Tset_traits@VQString@@U?$less@VQString@@@std@@V?$allocator@VQString@@@3@$0A@@std@@@std@@IAE?AV?$_Tree_const_iterator@V?$_Tree_val@U?$_Tree_simple_types@VQString@@@std@@@std@@@1@_NPAU?$_Tree_node@VQString@@PAX@1@$$QAVQString@@U_Nil@1@@Z 004130f0 f i slink.obj
 0001:000122f0       ??$_Insert_nohint@ABVpollCommand@@U_Nil@std@@@?$_Tree@V?$_Tset_traits@VpollCommand@@U?$less@VpollCommand@@@std@@V?$allocator@VpollCommand@@@3@$0A@@std@@@std@@IAE?AU?$pair@V?$_Tree_const_iterator@V?$_Tree_val@U?$_Tree_simple_types@VpollCommand@@@std@@@std@@@std@@_N@1@_NABVpollCommand@@U_Nil@1@@Z 004132f0 f i slink.obj
 0001:000124a0       ??$_Insert_nohint@VQString@@U_Nil@std@@@?$_Tree@V?$_Tset_traits@VQString@@U?$less@VQString@@@std@@V?$allocator@VQString@@@3@$0A@@std@@@std@@IAE?AU?$pair@V?$_Tree_const_iterator@V?$_Tree_val@U?$_Tree_simple_types@VQString@@@std@@@std@@@std@@_N@1@_N$$QAVQString@@U_Nil@1@@Z 004134a0 f i slink.obj
 0001:000125c0       ??0?$set@VdbEntry@@U?$less@VdbEntry@@@std@@V?$allocator@VdbEntry@@@3@@std@@QAE@XZ 004135c0 f i slink.obj
 0001:000125e0       ??0slink@@QAE@PAVQWidget@@@Z 004135e0 f   slink.obj
 0001:00013b50       ??1?$QList@VQSslCipher@@@@QAE@XZ 00414b50 f i slink.obj
 0001:00013bc0       ??1?$list@VclientIPC@@V?$allocator@VclientIPC@@@std@@@std@@QAE@XZ 00414bc0 f i slink.obj
 0001:00013bc0       ??1?$list@PAVfabian_client@@V?$allocator@PAVfabian_client@@@std@@@std@@QAE@XZ 00414bc0 f i fabianServer.obj
 0001:00013bc0       ??1?$list@PAVuser@@V?$allocator@PAVuser@@@std@@@std@@QAE@XZ 00414bc0 f i slink.obj
 0001:00013c00       ??1?$queue@VpollCommand@@V?$deque@VpollCommand@@V?$allocator@VpollCommand@@@std@@@std@@@std@@QAE@XZ 00414c00 f i slink.obj
 0001:00013c20       ??1?$set@VQString@@U?$less@VQString@@@std@@V?$allocator@VQString@@@3@@std@@QAE@XZ 00414c20 f i slink.obj
 0001:00013c50       ??1?$map@IPAVfabianServer@@U?$less@I@std@@V?$allocator@U?$pair@$$CBIPAVfabianServer@@@std@@@3@@std@@QAE@XZ 00414c50 f i slink.obj
 0001:00013c50       ??1?$multimap@IPAVsingleReg@@U?$less@I@std@@V?$allocator@U?$pair@$$CBIPAVsingleReg@@@std@@@3@@std@@QAE@XZ 00414c50 f i clientsRegistration.obj
 0001:00013c50       ??1?$map@IPAVsingleReg@@U?$less@I@std@@V?$allocator@U?$pair@$$CBIPAVsingleReg@@@std@@@3@@std@@QAE@XZ 00414c50 f i user.obj
 0001:00013c50       ??1?$set@VpollCommand@@U?$less@VpollCommand@@@std@@V?$allocator@VpollCommand@@@3@@std@@QAE@XZ 00414c50 f i slink.obj
 0001:00013c50       ??1?$set@VdbEntry@@U?$less@VdbEntry@@@std@@V?$allocator@VdbEntry@@@3@@std@@QAE@XZ 00414c50 f i slink.obj
 0001:00013c80       ??1slink@@UAE@XZ           00414c80 f   slink.obj
 0001:0001425a       ??_EQGroupBox@@W7AEPAXI@Z  0041525a f i slink.obj
 0001:00014262       ??_EQHBoxLayout@@W7AEPAXI@Z 00415262 f i slink.obj
 0001:0001426a       ??_EQListWidget@@W7AEPAXI@Z 0041526a f i slink.obj
 0001:00014272       ??_EQMenu@@W7AEPAXI@Z      00415272 f i slink.obj
 0001:0001427a       ??_EQMenuBar@@W7AEPAXI@Z   0041527a f i slink.obj
 0001:00014282       ??_EQPushButton@@W7AEPAXI@Z 00415282 f i slink.obj
 0001:0001428a       ??_EQSplitter@@W7AEPAXI@Z  0041528a f i slink.obj
 0001:00014292       ??_EQStatusBar@@W7AEPAXI@Z 00415292 f i slink.obj
 0001:0001429a       ??_EQTextEdit@@W7AEPAXI@Z  0041529a f i slink.obj
 0001:000142a2       ??_EQToolBar@@W7AEPAXI@Z   004152a2 f i slink.obj
 0001:000142aa       ??_EQTreeWidget@@W7AEPAXI@Z 004152aa f i slink.obj
 0001:000142b2       ??_EQVBoxLayout@@W7AEPAXI@Z 004152b2 f i slink.obj
 0001:000142ba       ??_EQWidget@@W7AEPAXI@Z    004152ba f i slink.obj
 0001:000142c2       ??_Eslink@@W7AEPAXI@Z      004152c2 f i slink.obj
 0001:000142ca       ??_Eslink@@WCA@AEPAXI@Z    004152ca f i slink.obj
 0001:000142e0       ??_GQAction@@UAEPAXI@Z     004152e0 f i slink.obj
 0001:000142e0       ??_EQAction@@UAEPAXI@Z     004152e0 f i slink.obj
 0001:00014310       ??_GQGroupBox@@UAEPAXI@Z   00415310 f i slink.obj
 0001:00014310       ??_EQGroupBox@@UAEPAXI@Z   00415310 f i slink.obj
 0001:00014340       ??_EQHBoxLayout@@UAEPAXI@Z 00415340 f i slink.obj
 0001:00014340       ??_GQHBoxLayout@@UAEPAXI@Z 00415340 f i slink.obj
 0001:00014370       ??_EQListWidget@@UAEPAXI@Z 00415370 f i slink.obj
 0001:00014370       ??_GQListWidget@@UAEPAXI@Z 00415370 f i slink.obj
 0001:000143a0       ??_EQListWidgetItem@@UAEPAXI@Z 004153a0 f i slink.obj
 0001:000143a0       ??_GQListWidgetItem@@UAEPAXI@Z 004153a0 f i slink.obj
 0001:000143d0       ??_EQMenu@@UAEPAXI@Z       004153d0 f i slink.obj
 0001:000143d0       ??_GQMenu@@UAEPAXI@Z       004153d0 f i slink.obj
 0001:00014400       ??_EQMenuBar@@UAEPAXI@Z    00415400 f i slink.obj
 0001:00014400       ??_GQMenuBar@@UAEPAXI@Z    00415400 f i slink.obj
 0001:00014430       ??_EQPushButton@@UAEPAXI@Z 00415430 f i slink.obj
 0001:00014430       ??_GQPushButton@@UAEPAXI@Z 00415430 f i slink.obj
 0001:00014460       ??_EQSpacerItem@@UAEPAXI@Z 00415460 f i slink.obj
 0001:00014460       ??_GQSpacerItem@@UAEPAXI@Z 00415460 f i slink.obj
 0001:00014490       ??_EQSplitter@@UAEPAXI@Z   00415490 f i slink.obj
 0001:00014490       ??_GQSplitter@@UAEPAXI@Z   00415490 f i slink.obj
 0001:000144c0       ??_EQStatusBar@@UAEPAXI@Z  004154c0 f i slink.obj
 0001:000144c0       ??_GQStatusBar@@UAEPAXI@Z  004154c0 f i slink.obj
 0001:000144f0       ??_GQTextEdit@@UAEPAXI@Z   004154f0 f i slink.obj
 0001:000144f0       ??_EQTextEdit@@UAEPAXI@Z   004154f0 f i slink.obj
 0001:00014520       ??_EQToolBar@@UAEPAXI@Z    00415520 f i slink.obj
 0001:00014520       ??_GQToolBar@@UAEPAXI@Z    00415520 f i slink.obj
 0001:00014550       ??_EQTreeWidget@@UAEPAXI@Z 00415550 f i slink.obj
 0001:00014550       ??_GQTreeWidget@@UAEPAXI@Z 00415550 f i slink.obj
 0001:00014580       ??_GQVBoxLayout@@UAEPAXI@Z 00415580 f i slink.obj
 0001:00014580       ??_EQVBoxLayout@@UAEPAXI@Z 00415580 f i slink.obj
 0001:000145b0       ??_EQWidget@@UAEPAXI@Z     004155b0 f i slink.obj
 0001:000145b0       ??_GQWidget@@UAEPAXI@Z     004155b0 f i slink.obj
 0001:000145e0       ??_Eslink@@UAEPAXI@Z       004155e0 f i slink.obj
 0001:000145e0       ??_Gslink@@UAEPAXI@Z       004155e0 f i slink.obj
 0001:00014610       ?_Buyheadnode@?$_Tree_alloc@$0A@U?$_Tree_base_types@VdbEntry@@V?$allocator@VdbEntry@@@std@@@std@@@std@@QAEPAU?$_Tree_node@VdbEntry@@PAX@2@XZ 00415610 f i slink.obj
 0001:00014610       ?_Buyheadnode@?$_Tree_alloc@$0A@U?$_Tree_base_types@U?$pair@$$CBIPAVsingleReg@@@std@@V?$allocator@U?$pair@$$CBIPAVsingleReg@@@std@@@2@@std@@@std@@QAEPAU?$_Tree_node@U?$pair@$$CBIPAVsingleReg@@@std@@PAX@2@XZ 00415610 f i clientsRegistration.obj
 0001:00014610       ?_Buyheadnode@?$_Tree_alloc@$0A@U?$_Tree_base_types@U?$pair@$$CBVQString@@PAVuser@@@std@@V?$allocator@U?$pair@$$CBVQString@@PAVuser@@@std@@@2@@std@@@std@@QAEPAU?$_Tree_node@U?$pair@$$CBVQString@@PAVuser@@@std@@PAX@2@XZ 00415610 f i users.obj
 0001:00014610       ?_Buyheadnode@?$_Tree_alloc@$0A@U?$_Tree_base_types@U?$pair@$$CBIPAVdatabaseSync@@@std@@V?$allocator@U?$pair@$$CBIPAVdatabaseSync@@@std@@@2@@std@@@std@@QAEPAU?$_Tree_node@U?$pair@$$CBIPAVdatabaseSync@@@std@@PAX@2@XZ 00415610 f i databaseSync.obj
 0001:00014610       ?_Buyheadnode@?$_Tree_alloc@$0A@U?$_Tree_base_types@U?$pair@$$CBIPAVfabianServer@@@std@@V?$allocator@U?$pair@$$CBIPAVfabianServer@@@std@@@2@@std@@@std@@QAEPAU?$_Tree_node@U?$pair@$$CBIPAVfabianServer@@@std@@PAX@2@XZ 00415610 f i slink.obj
 0001:00014640       ?_Buyheadnode@?$_Tree_alloc@$0A@U?$_Tree_base_types@VQString@@V?$allocator@VQString@@@std@@@std@@@std@@QAEPAU?$_Tree_node@VQString@@PAX@2@XZ 00415640 f i slink.obj
 0001:00014670       ?_Buyheadnode@?$_Tree_alloc@$0A@U?$_Tree_base_types@VpollCommand@@V?$allocator@VpollCommand@@@std@@@std@@@std@@QAEPAU?$_Tree_node@VpollCommand@@PAX@2@XZ 00415670 f i slink.obj
 0001:000146a0       ?_Buynode0@?$_Tree_buy@VQString@@V?$allocator@VQString@@@std@@@std@@QAEPAU?$_Tree_node@VQString@@PAX@2@XZ 004156a0 f i slink.obj
 0001:000146e0       ?_Buynode0@?$_Tree_buy@VpollCommand@@V?$allocator@VpollCommand@@@std@@@std@@QAEPAU?$_Tree_node@VpollCommand@@PAX@2@XZ 004156e0 f i slink.obj
 0001:00014720       ?_Eqrange@?$_Tree@V?$_Tset_traits@VpollCommand@@U?$less@VpollCommand@@@std@@V?$allocator@VpollCommand@@@3@$0A@@std@@@std@@IAE?AU?$pair@V?$_Tree_const_iterator@V?$_Tree_val@U?$_Tree_simple_types@VpollCommand@@@std@@@std@@@std@@V12@@2@ABVpollCommand@@@Z 00415720 f i slink.obj
 0001:000147f0       ?_Erase@?$_Tree@V?$_Tset_traits@VQString@@U?$less@VQString@@@std@@V?$allocator@VQString@@@3@$0A@@std@@@std@@IAEXPAU?$_Tree_node@VQString@@PAX@2@@Z 004157f0 f i slink.obj
 0001:000147f0       ?_Erase@?$_Tree@V?$_Tmap_traits@VQString@@PAVuser@@U?$less@VQString@@@std@@V?$allocator@U?$pair@$$CBVQString@@PAVuser@@@std@@@4@$0A@@std@@@std@@IAEXPAU?$_Tree_node@U?$pair@$$CBVQString@@PAVuser@@@std@@PAX@2@@Z 004157f0 f i users.obj
 0001:00014830       ?_Erase@?$_Tree@V?$_Tmap_traits@IPAVsingleReg@@U?$less@I@std@@V?$allocator@U?$pair@$$CBIPAVsingleReg@@@std@@@3@$00@std@@@std@@IAEXPAU?$_Tree_node@U?$pair@$$CBIPAVsingleReg@@@std@@PAX@2@@Z 00415830 f i clientsRegistration.obj
 0001:00014830       ?_Erase@?$_Tree@V?$_Tmap_traits@IPAVdatabaseSync@@U?$less@I@std@@V?$allocator@U?$pair@$$CBIPAVdatabaseSync@@@std@@@3@$0A@@std@@@std@@IAEXPAU?$_Tree_node@U?$pair@$$CBIPAVdatabaseSync@@@std@@PAX@2@@Z 00415830 f i databaseSync.obj
 0001:00014830       ?_Erase@?$_Tree@V?$_Tmap_traits@IPAVfabianServer@@U?$less@I@std@@V?$allocator@U?$pair@$$CBIPAVfabianServer@@@std@@@3@$0A@@std@@@std@@IAEXPAU?$_Tree_node@U?$pair@$$CBIPAVfabianServer@@@std@@PAX@2@@Z 00415830 f i slink.obj
 0001:00014830       ?_Erase@?$_Tree@V?$_Tset_traits@VpollCommand@@U?$less@VpollCommand@@@std@@V?$allocator@VpollCommand@@@3@$0A@@std@@@std@@IAEXPAU?$_Tree_node@VpollCommand@@PAX@2@@Z 00415830 f i slink.obj
 0001:00014830       ?_Erase@?$_Tree@V?$_Tmap_traits@IPAVsingleReg@@U?$less@I@std@@V?$allocator@U?$pair@$$CBIPAVsingleReg@@@std@@@3@$0A@@std@@@std@@IAEXPAU?$_Tree_node@U?$pair@$$CBIPAVsingleReg@@@std@@PAX@2@@Z 00415830 f i user.obj
 0001:00014830       ?_Erase@?$_Tree@V?$_Tset_traits@VdbEntry@@U?$less@VdbEntry@@@std@@V?$allocator@VdbEntry@@@3@$0A@@std@@@std@@IAEXPAU?$_Tree_node@VdbEntry@@PAX@2@@Z 00415830 f i slink.obj
 0001:00014870       ?_Growmap@?$deque@VpollCommand@@V?$allocator@VpollCommand@@@std@@@std@@IAEXI@Z 00415870 f i slink.obj
 0001:000149f0       ?_Lbound@?$_Tree@V?$_Tset_traits@VpollCommand@@U?$less@VpollCommand@@@std@@V?$allocator@VpollCommand@@@3@$0A@@std@@@std@@IAEPAU?$_Tree_node@VpollCommand@@PAX@2@ABVpollCommand@@@Z 004159f0 f i slink.obj
 0001:00014a40       ?_Tidy@?$deque@VpollCommand@@V?$allocator@VpollCommand@@@std@@@std@@IAEXXZ 00415a40 f i slink.obj
 0001:00014aa0       ?about@slink@@AAEXXZ       00415aa0 f   slink.obj
 0001:00014d90       ?addServer@slink@@AAE_NABVQHostAddress@@I_N@Z 00415d90 f   slink.obj
 0001:00015030       ?append@?$QList@VQSslCipher@@@@QAEXABVQSslCipher@@@Z 00416030 f i slink.obj
 0001:00015120       ??$destroy@PAU?$_Tree_node@U?$pair@$$CBVQString@@PAVuser@@@std@@PAX@std@@@?$_Wrap_alloc@V?$allocator@U?$_Tree_node@U?$pair@$$CBVQString@@PAVuser@@@std@@PAX@std@@@std@@@std@@QAEXPAPAU?$_Tree_node@U?$pair@$$CBVQString@@PAVuser@@@std@@PAX@1@@Z 00416120 f i users.obj
 0001:00015120       ??$destroy@PAU?$_Tree_node@U?$pair@$$CBIPAVdatabaseSync@@@std@@PAX@std@@@?$_Wrap_alloc@V?$allocator@U?$_Tree_node@U?$pair@$$CBIPAVdatabaseSync@@@std@@PAX@std@@@std@@@std@@QAEXPAPAU?$_Tree_node@U?$pair@$$CBIPAVdatabaseSync@@@std@@PAX@1@@Z 00416120 f i databaseSync.obj
 0001:00015120       ?cccConfigChangeMessage@IccClientCallback@@MAEXABV?$basic_string@DU?$char_traits@D@std@@V?$allocator@D@2@@std@@@Z 00416120 f i slink.obj
 0001:00015130       ?cccDatabaseChange@slink@@EAEXHHH@Z 00416130 f   slink.obj
 0001:00015220       ?cccDeviceMessage@IccClientCallback@@MAEXHHABV?$basic_string@DU?$char_traits@D@std@@V?$allocator@D@2@@std@@H@Z 00416220 f i slink.obj
 0001:00015230       ?cccDatabaseChange@IccClientCallback@@MAEXHHH@Z 00416230 f i slink.obj
 0001:00015230       ?cccRtrRevertive@IccClientCallback@@MAEXHHH@Z 00416230 f i slink.obj
 0001:00015230       ?cccGpiRevertive@IccClientCallback@@MAEXHH_N@Z 00416230 f i slink.obj
 0001:00015230       ?cccDeviceMode@IccClientCallback@@MAEXHHW4redundancyState@cc@@@Z 00416230 f i slink.obj
 0001:00015230       ?cccInfoRevertive@IccClientCallback@@MAEXHHABV?$basic_string@DU?$char_traits@D@std@@V?$allocator@D@2@@std@@@Z 00416230 f i slink.obj
 0001:00015240       ?cccDisconnected@slink@@EAEXXZ 00416240 f   slink.obj
 0001:00015250       ?cccGpiRevertive@slink@@EAEXHH_N@Z 00416250 f   slink.obj
 0001:000153b0       ?cccInfoRevertive@slink@@EAEXHHABV?$basic_string@DU?$char_traits@D@std@@V?$allocator@D@2@@std@@@Z 004163b0 f   slink.obj
 0001:00015540       ?cccSerialNumberError@IccClientCallback@@MAEXHH@Z 00416540 f i slink.obj
 0001:00015540       ?encrypted@slink@@EAEXPAVfabian_client@@_N@Z 00416540 f i slink.obj
 0001:00015540       ?cccPollError@IccClientCallback@@MAEXHH@Z 00416540 f i slink.obj
 0001:00015550       ?cccRtrRevertive@slink@@EAEXHHH@Z 00416550 f   slink.obj
 0001:000156a0       ?checksumDatabase@slink@@EAEXPAVfabian_client@@IIII@Z 004166a0 f   slink.obj
 0001:00015a80       ?clear@?$_Tree@V?$_Tset_traits@VpollCommand@@U?$less@VpollCommand@@@std@@V?$allocator@VpollCommand@@@3@$0A@@std@@@std@@QAEXXZ 00416a80 f i slink.obj
 0001:00015a80       ?clear@?$_Tree@V?$_Tset_traits@VdbEntry@@U?$less@VdbEntry@@@std@@V?$allocator@VdbEntry@@@3@$0A@@std@@@std@@QAEXXZ 00416a80 f i slink.obj
 0001:00015a80       ?clear@?$_Tree@V?$_Tmap_traits@IPAVdatabaseSync@@U?$less@I@std@@V?$allocator@U?$pair@$$CBIPAVdatabaseSync@@@std@@@3@$0A@@std@@@std@@QAEXXZ 00416a80 f i databaseSync.obj
 0001:00015a80       ?clear@?$_Tree@V?$_Tmap_traits@IPAVsingleReg@@U?$less@I@std@@V?$allocator@U?$pair@$$CBIPAVsingleReg@@@std@@@3@$0A@@std@@@std@@QAEXXZ 00416a80 f i user.obj
 0001:00015a80       ?clear@?$_Tree@V?$_Tmap_traits@IPAVfabianServer@@U?$less@I@std@@V?$allocator@U?$pair@$$CBIPAVfabianServer@@@std@@@3@$0A@@std@@@std@@QAEXXZ 00416a80 f i slink.obj
 0001:00015a80       ?clear@?$_Tree@V?$_Tmap_traits@IPAVsingleReg@@U?$less@I@std@@V?$allocator@U?$pair@$$CBIPAVsingleReg@@@std@@@3@$00@std@@@std@@QAEXXZ 00416a80 f i clientsRegistration.obj
 0001:00015ad0       ?clearPollQueue@slink@@AAEXXZ 00416ad0 f   slink.obj
 0001:00015bb0       ?connected@slink@@EAEXPAVfabian_client@@ABVQHostAddress@@G@Z 00416bb0 f   slink.obj
 0001:00015c50       ?connectedUser@slink@@EAEXPAVfabian_client@@ABVQString@@11I@Z 00416c50 f   slink.obj
 0001:00015d50       ?data@slink@@EAEXPAVfabian_client@@ABVQString@@@Z 00416d50 f   slink.obj
 0001:00015dd0       ?databaseModify@slink@@EAEXPAVfabian_client@@IIIABVQString@@@Z 00416dd0 f   slink.obj
 0001:00015ea0       ?deleteServer@slink@@AAE_NI@Z 00416ea0 f   slink.obj
 0001:00015f30       ?detach_helper@?$QList@VQSslCipher@@@@AAEXH@Z 00416f30 f i slink.obj
 0001:00016020       ?detach_helper_grow@?$QList@VQSslCipher@@@@AAEPAUNode@1@HH@Z 00417020 f i slink.obj
 0001:000161a0       ?disconnected@slink@@EAEXPAVfabian_client@@@Z 004171a0 f   slink.obj
 0001:00016230       ?distributeDatabaseModify@slink@@AAEXPAVfabian_client@@IIIABVQString@@@Z 00417230 f   slink.obj
 0001:00016460       ?distributeRevertive@slink@@AAEXHHABVQString@@@Z 00417460 f   slink.obj
 0001:00016550       ?doHelp@slink@@AAEXXZ      00417550 f   slink.obj
 0001:00016720       ?doLogging@slink@@AAEX_N@Z 00417720 f   slink.obj
 0001:00016760       ?doPoll@slink@@AAEXPAVfabian_client@@DIII@Z 00417760 f   slink.obj
 0001:00017570       ?doServerConfig@slink@@AAEXXZ 00418570 f   slink.obj
 0001:00017730       ?doUserEdit@slink@@AAEXXZ  00418730 f   slink.obj
 0001:000177e0       ?doWhiteBlackListEdit@slink@@AAEXXZ 004187e0 f   slink.obj
 0001:00017860       ?dumpServerList@slink@@AAEXXZ 00418860 f   slink.obj
 0001:000179b0       ?erase@?$_Tree@V?$_Tmap_traits@VQString@@PAVuser@@U?$less@VQString@@@std@@V?$allocator@U?$pair@$$CBVQString@@PAVuser@@@std@@@4@$0A@@std@@@std@@QAE?AV?$_Tree_iterator@V?$_Tree_val@U?$_Tree_simple_types@U?$pair@$$CBVQString@@PAVuser@@@std@@@std@@@std@@@2@V?$_Tree_const_iterator@V?$_Tree_val@U?$_Tree_simple_types@U?$pair@$$CBVQString@@PAVuser@@@std@@@std@@@std@@@2@0@Z 004189b0 f i users.obj
 0001:000179b0       ?erase@?$_Tree@V?$_Tset_traits@VQString@@U?$less@VQString@@@std@@V?$allocator@VQString@@@3@$0A@@std@@@std@@QAE?AV?$_Tree_const_iterator@V?$_Tree_val@U?$_Tree_simple_types@VQString@@@std@@@std@@@2@V32@0@Z 004189b0 f i slink.obj
 0001:00017a70       ?erase@?$_Tree@V?$_Tmap_traits@IPAVsingleReg@@U?$less@I@std@@V?$allocator@U?$pair@$$CBIPAVsingleReg@@@std@@@3@$0A@@std@@@std@@QAE?AV?$_Tree_iterator@V?$_Tree_val@U?$_Tree_simple_types@U?$pair@$$CBIPAVsingleReg@@@std@@@std@@@std@@@2@V?$_Tree_const_iterator@V?$_Tree_val@U?$_Tree_simple_types@U?$pair@$$CBIPAVsingleReg@@@std@@@std@@@std@@@2@0@Z 00418a70 f i user.obj
 0001:00017a70       ?erase@?$_Tree@V?$_Tset_traits@VdbEntry@@U?$less@VdbEntry@@@std@@V?$allocator@VdbEntry@@@3@$0A@@std@@@std@@QAE?AV?$_Tree_const_iterator@V?$_Tree_val@U?$_Tree_simple_types@VdbEntry@@@std@@@std@@@2@V32@0@Z 00418a70 f i slink.obj
 0001:00017a70       ?erase@?$_Tree@V?$_Tset_traits@VpollCommand@@U?$less@VpollCommand@@@std@@V?$allocator@VpollCommand@@@3@$0A@@std@@@std@@QAE?AV?$_Tree_const_iterator@V?$_Tree_val@U?$_Tree_simple_types@VpollCommand@@@std@@@std@@@2@V32@0@Z 00418a70 f i slink.obj
 0001:00017a70       ?erase@?$_Tree@V?$_Tmap_traits@IPAVsingleReg@@U?$less@I@std@@V?$allocator@U?$pair@$$CBIPAVsingleReg@@@std@@@3@$00@std@@@std@@QAE?AV?$_Tree_iterator@V?$_Tree_val@U?$_Tree_simple_types@U?$pair@$$CBIPAVsingleReg@@@std@@@std@@@std@@@2@V?$_Tree_const_iterator@V?$_Tree_val@U?$_Tree_simple_types@U?$pair@$$CBIPAVsingleReg@@@std@@@std@@@std@@@2@0@Z 00418a70 f i clientsRegistration.obj
 0001:00017a70       ?erase@?$_Tree@V?$_Tmap_traits@IPAVdatabaseSync@@U?$less@I@std@@V?$allocator@U?$pair@$$CBIPAVdatabaseSync@@@std@@@3@$0A@@std@@@std@@QAE?AV?$_Tree_iterator@V?$_Tree_val@U?$_Tree_simple_types@U?$pair@$$CBIPAVdatabaseSync@@@std@@@std@@@std@@@2@V?$_Tree_const_iterator@V?$_Tree_val@U?$_Tree_simple_types@U?$pair@$$CBIPAVdatabaseSync@@@std@@@std@@@std@@@2@0@Z 00418a70 f i databaseSync.obj
 0001:00017a70       ?erase@?$_Tree@V?$_Tmap_traits@IPAVfabianServer@@U?$less@I@std@@V?$allocator@U?$pair@$$CBIPAVfabianServer@@@std@@@3@$0A@@std@@@std@@QAE?AV?$_Tree_iterator@V?$_Tree_val@U?$_Tree_simple_types@U?$pair@$$CBIPAVfabianServer@@@std@@@std@@@std@@@2@V?$_Tree_const_iterator@V?$_Tree_val@U?$_Tree_simple_types@U?$pair@$$CBIPAVfabianServer@@@std@@@std@@@std@@@2@0@Z 00418a70 f i slink.obj
 0001:00017b10       ?erase@?$_Tree@V?$_Tset_traits@VpollCommand@@U?$less@VpollCommand@@@std@@V?$allocator@VpollCommand@@@3@$0A@@std@@@std@@QAEIABVpollCommand@@@Z 00418b10 f i slink.obj
 0001:00017b60       ?find@?$_Tree@V?$_Tset_traits@VpollCommand@@U?$less@VpollCommand@@@std@@V?$allocator@VpollCommand@@@3@$0A@@std@@@std@@QAE?AV?$_Tree_const_iterator@V?$_Tree_val@U?$_Tree_simple_types@VpollCommand@@@std@@@std@@@2@ABVpollCommand@@@Z 00418b60 f i slink.obj
 0001:00017bc0       ?front@?$queue@VpollCommand@@V?$deque@VpollCommand@@V?$allocator@VpollCommand@@@std@@@std@@@std@@QAEAAVpollCommand@@XZ 00418bc0 f i slink.obj
 0001:00017c00       ?getDevProps@slink@@EAEXPAVfabian_client@@I@Z 00418c00 f   slink.obj
 0001:00017f20       ?gpiLock@slink@@EAEXPAVfabian_client@@IIII@Z 00418f20 f   slink.obj
 0001:00017f60       ?gpiPoll@slink@@EAEXPAVfabian_client@@III@Z 00418f60 f   slink.obj
 0001:00017f80       ?gpiSwitch@slink@@EAEXPAVfabian_client@@III@Z 00418f80 f   slink.obj
 0001:00017fc0       ?infoLock@slink@@EAEXPAVfabian_client@@IIII@Z 00418fc0 f   slink.obj
 0001:00018000       ?infoPoll@slink@@EAEXPAVfabian_client@@III@Z 00419000 f   slink.obj
 0001:00018020       ?infoRegister@slink@@EAEXPAVfabian_client@@III@Z 00419020 f   slink.obj
 0001:00018450       ?infoUnregister@slink@@EAEXPAVfabian_client@@I@Z 00419450 f   slink.obj
 0001:00018510       ?infoWrite@slink@@EAEXPAVfabian_client@@IIABVQString@@@Z 00419510 f   slink.obj
 0001:000185b0       ?listClientContextMenu@slink@@AAEXABVQPoint@@@Z 004195b0 f   slink.obj
 0001:00018680       ?listRouter@slink@@EAEXPAVfabian_client@@IIII@Z 00419680 f   slink.obj
 0001:000189e0       ?loadBlackList@slink@@AAEXXZ 004199e0 f   slink.obj
 0001:00018d50       ?loadWhiteList@slink@@AAEXXZ 00419d50 f   slink.obj
 0001:000190c0       ?nextPoll@slink@@AAEX_N@Z  0041a0c0 f   slink.obj
 0001:000194f0       ?node_copy@?$QList@VQSslCipher@@@@AAEXPAUNode@1@00@Z 0041a4f0 f i slink.obj
 0001:00019590       ?node_destruct@?$QList@VQSslCipher@@@@AAEXPAUNode@1@0@Z 0041a590 f i slink.obj
 0001:000195c0       ?push_back@?$deque@VpollCommand@@V?$allocator@VpollCommand@@@std@@@std@@QAEXABVpollCommand@@@Z 0041a5c0 f i slink.obj
 0001:00019640       ?retranslateUi@Ui_slinkClass@@QAEXPAVQMainWindow@@@Z 0041a640 f i slink.obj
 0001:00019ba0       ?routerCrosspoint@slink@@EAEXPAVfabian_client@@IHIABVQString@@@Z 0041aba0 f   slink.obj
 0001:00019c40       ?routerLock@slink@@EAEXPAVfabian_client@@IIII@Z 0041ac40 f   slink.obj
 0001:00019c80       ?routerName@slink@@EAEXPAVfabian_client@@III@Z 0041ac80 f   slink.obj
 0001:00019f70       ?routerPoll@slink@@EAEXPAVfabian_client@@III@Z 0041af70 f   slink.obj
 0001:00019f90       ?setupUi@Ui_slinkClass@@QAEXPAVQMainWindow@@@Z 0041af90 f i slink.obj
 0001:0001ac40       ?timerEvent@slink@@MAEXPAVQTimerEvent@@@Z 0041bc40 f   slink.obj
 0001:0001ace0       ?userAdded@slink@@AAEXPAVuser@@@Z 0041bce0 f   slink.obj
 0001:0001ad20       ?userDeleted@slink@@AAEXABVQString@@@Z 0041bd20 f   slink.obj
 0001:0001af10       ??$_Insert_nohint@AAU?$pair@$$CBIPAVdatabaseSync@@@std@@PAU?$_Tree_node@U?$pair@$$CBIPAVdatabaseSync@@@std@@PAX@2@@?$_Tree@V?$_Tmap_traits@IPAVdatabaseSync@@U?$less@I@std@@V?$allocator@U?$pair@$$CBIPAVdatabaseSync@@@std@@@3@$0A@@std@@@std@@IAE?AU?$pair@V?$_Tree_iterator@V?$_Tree_val@U?$_Tree_simple_types@U?$pair@$$CBIPAVdatabaseSync@@@std@@@std@@@std@@@std@@_N@1@_NAAU?$pair@$$CBIPAVdatabaseSync@@@1@PAU?$_Tree_node@U?$pair@$$CBIPAVdatabaseSync@@@std@@PAX@1@@Z 0041bf10 f i databaseSync.obj
 0001:0001af10       ??$_Insert_nohint@AAU?$pair@$$CBIPAVfabianServer@@@std@@PAU?$_Tree_node@U?$pair@$$CBIPAVfabianServer@@@std@@PAX@2@@?$_Tree@V?$_Tmap_traits@IPAVfabianServer@@U?$less@I@std@@V?$allocator@U?$pair@$$CBIPAVfabianServer@@@std@@@3@$0A@@std@@@std@@IAE?AU?$pair@V?$_Tree_iterator@V?$_Tree_val@U?$_Tree_simple_types@U?$pair@$$CBIPAVfabianServer@@@std@@@std@@@std@@@std@@_N@1@_NAAU?$pair@$$CBIPAVfabianServer@@@1@PAU?$_Tree_node@U?$pair@$$CBIPAVfabianServer@@@std@@PAX@1@@Z 0041bf10 f i slink.obj
 0001:0001af10       ??$_Insert_nohint@AAU?$pair@$$CBIPAVsingleReg@@@std@@PAU?$_Tree_node@U?$pair@$$CBIPAVsingleReg@@@std@@PAX@2@@?$_Tree@V?$_Tmap_traits@IPAVsingleReg@@U?$less@I@std@@V?$allocator@U?$pair@$$CBIPAVsingleReg@@@std@@@3@$0A@@std@@@std@@IAE?AU?$pair@V?$_Tree_iterator@V?$_Tree_val@U?$_Tree_simple_types@U?$pair@$$CBIPAVsingleReg@@@std@@@std@@@std@@@std@@_N@1@_NAAU?$pair@$$CBIPAVsingleReg@@@1@PAU?$_Tree_node@U?$pair@$$CBIPAVsingleReg@@@std@@PAX@1@@Z 0041bf10 f i user.obj
 0001:0001b030       ??0user@@QAE@ABVQString@@000II@Z 0041c030 f   user.obj
 0001:0001b120       ??1user@@UAE@XZ            0041c120 f   user.obj
 0001:0001b340       ??_Euser@@UAEPAXI@Z        0041c340 f i user.obj
 0001:0001b340       ??_Guser@@UAEPAXI@Z        0041c340 f i user.obj
 0001:0001b370       ?addReadAccess@user@@QAEXIII@Z 0041c370 f   user.obj
 0001:0001b460       ?addWriteAccess@user@@QAEXIII@Z 0041c460 f   user.obj
 0001:0001b550       ?configKey@user@@QBE?AVQString@@XZ 0041c550 f   user.obj
 0001:0001b580       ?controlPassword@user@@QBE?AVQString@@XZ 0041c580 f   user.obj
 0001:0001b5b0       ?isReadEnabled@user@@QBE_NI@Z 0041c5b0 f   user.obj
 0001:0001b600       ?isReadEnabled@user@@QBE_NII@Z 0041c600 f   user.obj
 0001:0001b660       ?isReadEnabled@user@@QBE_NIII@Z 0041c660 f   user.obj
 0001:0001b6c0       ?isWriteEnabled@user@@QBE_NI@Z 0041c6c0 f   user.obj
 0001:0001b710       ?isWriteEnabled@user@@QBE_NII@Z 0041c710 f   user.obj
 0001:0001b770       ?isWriteEnabled@user@@QBE_NIII@Z 0041c770 f   user.obj
 0001:0001b7d0       ?password@user@@QBE?AVQString@@XZ 0041c7d0 f   user.obj
 0001:0001b800       ?readPermissions@user@@QAEPAV?$map@IPAVsingleReg@@U?$less@I@std@@V?$allocator@U?$pair@$$CBIPAVsingleReg@@@std@@@3@@std@@XZ 0041c800 f   user.obj
 0001:0001b810       ?serverPort@user@@QBEIXZ   0041c810 f   user.obj
 0001:0001b820       ?userName@user@@QBE?AVQString@@XZ 0041c820 f   user.obj
 0001:0001b850       ?workstationOverride@user@@QBEIXZ 0041c850 f   user.obj
 0001:0001b860       ?writePermissions@user@@QAEPAV?$map@IPAVsingleReg@@U?$less@I@std@@V?$allocator@U?$pair@$$CBIPAVsingleReg@@@std@@@3@@std@@XZ 0041c860 f   user.obj
 0001:0001b870       ??0userEditDialog@@QAE@XZ  0041c870 f   userEditDialog.obj
 0001:0001bc50       ??1userEditDialog@@UAE@XZ  0041cc50 f   userEditDialog.obj
 0001:0001bdaa       ??_EQLabel@@W7AEPAXI@Z     0041cdaa f i userEditDialog.obj
 0001:0001bdb2       ??_EuserEditDialog@@W7AEPAXI@Z 0041cdb2 f i userEditDialog.obj
 0001:0001bdc0       ??_EQLabel@@UAEPAXI@Z      0041cdc0 f i userEditDialog.obj
 0001:0001bdc0       ??_GQLabel@@UAEPAXI@Z      0041cdc0 f i userEditDialog.obj
 0001:0001bdf0       ??_EQTreeWidgetItem@@UAEPAXI@Z 0041cdf0 f i userEditDialog.obj
 0001:0001bdf0       ??_GQTreeWidgetItem@@UAEPAXI@Z 0041cdf0 f i userEditDialog.obj
 0001:0001be20       ??_GuserEditDialog@@UAEPAXI@Z 0041ce20 f i userEditDialog.obj
 0001:0001be20       ??_EuserEditDialog@@UAEPAXI@Z 0041ce20 f i userEditDialog.obj
 0001:0001be50       ?retranslateUi@Ui_userEditDialog@@QAEXPAVQDialog@@@Z 0041ce50 f i userEditDialog.obj
 0001:0001c120       ?setupUi@Ui_userEditDialog@@QAEXPAVQDialog@@@Z 0041d120 f i userEditDialog.obj
 0001:0001c690       ?slotAddUser@userEditDialog@@AAEXXZ 0041d690 f   userEditDialog.obj
 0001:0001cb70       ?slotDeleteUser@userEditDialog@@AAEXXZ 0041db70 f   userEditDialog.obj
 0001:0001cca0       ?slotItemDoubleClicked@userEditDialog@@AAEXPAVQTreeWidgetItem@@H@Z 0041dca0 f   userEditDialog.obj
 0001:0001cd20       ??0userEditPermissionsDialog@@QAE@ABVQString@@@Z 0041dd20 f   userEditPermissionsDialog.obj
 0001:0001d4a0       ??1userEditPermissionsDialog@@UAE@XZ 0041e4a0 f   userEditPermissionsDialog.obj
 0001:0001d67a       ??_EQDialogButtonBox@@W7AEPAXI@Z 0041e67a f i userEditPermissionsDialog.obj
 0001:0001d682       ??_EQToolButton@@W7AEPAXI@Z 0041e682 f i userEditPermissionsDialog.obj
 0001:0001d68a       ??_EuserEditPermissionsDialog@@W7AEPAXI@Z 0041e68a f i userEditPermissionsDialog.obj
 0001:0001d6a0       ??_EQDialogButtonBox@@UAEPAXI@Z 0041e6a0 f i userEditPermissionsDialog.obj
 0001:0001d6a0       ??_GQDialogButtonBox@@UAEPAXI@Z 0041e6a0 f i userEditPermissionsDialog.obj
 0001:0001d6d0       ??_GQToolButton@@UAEPAXI@Z 0041e6d0 f i userEditPermissionsDialog.obj
 0001:0001d6d0       ??_EQToolButton@@UAEPAXI@Z 0041e6d0 f i userEditPermissionsDialog.obj
 0001:0001d700       ??_GuserEditPermissionsDialog@@UAEPAXI@Z 0041e700 f i userEditPermissionsDialog.obj
 0001:0001d700       ??_EuserEditPermissionsDialog@@UAEPAXI@Z 0041e700 f i userEditPermissionsDialog.obj
 0001:0001d730       ?accept@userEditPermissionsDialog@@UAEXXZ 0041e730 f   userEditPermissionsDialog.obj
 0001:0001e240       ?doCopyLeft@userEditPermissionsDialog@@AAEXXZ 0041f240 f   userEditPermissionsDialog.obj
 0001:0001e270       ?doCopyRight@userEditPermissionsDialog@@AAEXXZ 0041f270 f   userEditPermissionsDialog.obj
 0001:0001e2a0       ?retranslateUi@Ui_userEditPermissionsDialog@@QAEXPAVQDialog@@@Z 0041f2a0 f i userEditPermissionsDialog.obj
 0001:0001e440       ?setupUi@Ui_userEditPermissionsDialog@@QAEXPAVQDialog@@@Z 0041f440 f i userEditPermissionsDialog.obj
 0001:0001eba0       ?validDevAndRange@@YA_NABVQString@@@Z 0041fba0 f   userEditPermissionsDialog.obj
 0001:0001ed80       ??$?0PBDAAPAVuser@@X@?$pair@VQString@@PAVuser@@@std@@QAE@$$QAPBDAAPAVuser@@@Z 0041fd80 f i users.obj
 0001:0001edc0       ??$_Buynode@U?$pair@VQString@@PAVuser@@@std@@@?$_Tree_buy@U?$pair@$$CBVQString@@PAVuser@@@std@@V?$allocator@U?$pair@$$CBVQString@@PAVuser@@@std@@@2@@std@@QAEPAU?$_Tree_node@U?$pair@$$CBVQString@@PAVuser@@@std@@PAX@1@$$QAU?$pair@VQString@@PAVuser@@@1@@Z 0041fdc0 f i users.obj
 0001:0001ee00       ??$_Insert_at@AAU?$pair@$$CBVQString@@PAVuser@@@std@@PAU?$_Tree_node@U?$pair@$$CBVQString@@PAVuser@@@std@@PAX@2@@?$_Tree@V?$_Tmap_traits@VQString@@PAVuser@@U?$less@VQString@@@std@@V?$allocator@U?$pair@$$CBVQString@@PAVuser@@@std@@@4@$0A@@std@@@std@@IAE?AV?$_Tree_iterator@V?$_Tree_val@U?$_Tree_simple_types@U?$pair@$$CBVQString@@PAVuser@@@std@@@std@@@std@@@1@_NPAU?$_Tree_node@U?$pair@$$CBVQString@@PAVuser@@@std@@PAX@1@AAU?$pair@$$CBVQString@@PAVuser@@@1@1@Z 0041fe00 f i users.obj
 0001:0001f010       ??$_Insert_nohint@AAU?$pair@$$CBVQString@@PAVuser@@@std@@PAU?$_Tree_node@U?$pair@$$CBVQString@@PAVuser@@@std@@PAX@2@@?$_Tree@V?$_Tmap_traits@VQString@@PAVuser@@U?$less@VQString@@@std@@V?$allocator@U?$pair@$$CBVQString@@PAVuser@@@std@@@4@$0A@@std@@@std@@IAE?AU?$pair@V?$_Tree_iterator@V?$_Tree_val@U?$_Tree_simple_types@U?$pair@$$CBVQString@@PAVuser@@@std@@@std@@@std@@@std@@_N@1@_NAAU?$pair@$$CBVQString@@PAVuser@@@1@PAU?$_Tree_node@U?$pair@$$CBVQString@@PAVuser@@@std@@PAX@1@@Z 00420010 f i users.obj
 0001:0001f150       ??1?$list@V?$basic_string@DU?$char_traits@D@std@@V?$allocator@D@2@@std@@V?$allocator@V?$basic_string@DU?$char_traits@D@std@@V?$allocator@D@2@@std@@@2@@std@@QAE@XZ 00420150 f i users.obj
 0001:0001f170       ??1?$pair@VQString@@PAVuser@@@std@@QAE@XZ 00420170 f i users.obj
 0001:0001f180       ?_Buynode0@?$_Tree_buy@U?$pair@$$CBIPAVfabianServer@@@std@@V?$allocator@U?$pair@$$CBIPAVfabianServer@@@std@@@2@@std@@QAEPAU?$_Tree_node@U?$pair@$$CBIPAVfabianServer@@@std@@PAX@2@XZ 00420180 f i slink.obj
 0001:0001f180       ?_Buynode0@?$_Tree_buy@U?$pair@$$CBIPAVdatabaseSync@@@std@@V?$allocator@U?$pair@$$CBIPAVdatabaseSync@@@std@@@2@@std@@QAEPAU?$_Tree_node@U?$pair@$$CBIPAVdatabaseSync@@@std@@PAX@2@XZ 00420180 f i databaseSync.obj
 0001:0001f180       ?_Buynode0@?$_Tree_buy@U?$pair@$$CBVQString@@PAVuser@@@std@@V?$allocator@U?$pair@$$CBVQString@@PAVuser@@@std@@@2@@std@@QAEPAU?$_Tree_node@U?$pair@$$CBVQString@@PAVuser@@@std@@PAX@2@XZ 00420180 f i users.obj
 0001:0001f180       ?_Buynode0@?$_Tree_buy@U?$pair@$$CBIPAVsingleReg@@@std@@V?$allocator@U?$pair@$$CBIPAVsingleReg@@@std@@@2@@std@@QAEPAU?$_Tree_node@U?$pair@$$CBIPAVsingleReg@@@std@@PAX@2@XZ 00420180 f i clientsRegistration.obj
 0001:0001f180       ?_Buynode0@?$_Tree_buy@VdbEntry@@V?$allocator@VdbEntry@@@std@@@std@@QAEPAU?$_Tree_node@VdbEntry@@PAX@2@XZ 00420180 f i databaseSync.obj
 0001:0001f1c0       ?_Destroy_if_not_nil@?$_Tree@V?$_Tmap_traits@VQString@@PAVuser@@U?$less@VQString@@@std@@V?$allocator@U?$pair@$$CBVQString@@PAVuser@@@std@@@4@$0A@@std@@@std@@IAEXPAU?$_Tree_node@U?$pair@$$CBVQString@@PAVuser@@@std@@PAX@2@@Z 004201c0 f i users.obj
 0001:0001f1e0       ?_Lbound@?$_Tree@V?$_Tmap_traits@VQString@@PAVuser@@U?$less@VQString@@@std@@V?$allocator@U?$pair@$$CBVQString@@PAVuser@@@std@@@4@$0A@@std@@@std@@IAEPAU?$_Tree_node@U?$pair@$$CBVQString@@PAVuser@@@std@@PAX@2@ABVQString@@@Z 004201e0 f i users.obj
 0001:0001f220       ?clear@?$list@V?$basic_string@DU?$char_traits@D@std@@V?$allocator@D@2@@std@@V?$allocator@V?$basic_string@DU?$char_traits@D@std@@V?$allocator@D@2@@std@@@2@@std@@QAEXXZ 00420220 f i users.obj
 0001:0001f280       ?createUser@users@@SAPAVuser@@ABVQString@@00II@Z 00420280 f   users.obj
 0001:0001f900       ?deleteUser@users@@SAXABVQString@@@Z 00420900 f   users.obj
 0001:0001fb40       ?erase@?$_Tree@V?$_Tset_traits@VQString@@U?$less@VQString@@@std@@V?$allocator@VQString@@@3@$0A@@std@@@std@@QAE?AV?$_Tree_const_iterator@V?$_Tree_val@U?$_Tree_simple_types@VQString@@@std@@@std@@@2@V32@@Z 00420b40 f i slink.obj
 0001:0001fb40       ?erase@?$_Tree@V?$_Tmap_traits@VQString@@PAVuser@@U?$less@VQString@@@std@@V?$allocator@U?$pair@$$CBVQString@@PAVuser@@@std@@@4@$0A@@std@@@std@@QAE?AV?$_Tree_iterator@V?$_Tree_val@U?$_Tree_simple_types@U?$pair@$$CBVQString@@PAVuser@@@std@@@std@@@std@@@2@V?$_Tree_const_iterator@V?$_Tree_val@U?$_Tree_simple_types@U?$pair@$$CBVQString@@PAVuser@@@std@@@std@@@std@@@2@@Z 00420b40 f i users.obj
 0001:0001fdc0       ?find@?$_Tree@V?$_Tmap_traits@VQString@@PAVuser@@U?$less@VQString@@@std@@V?$allocator@U?$pair@$$CBVQString@@PAVuser@@@std@@@4@$0A@@std@@@std@@QAE?AV?$_Tree_iterator@V?$_Tree_val@U?$_Tree_simple_types@U?$pair@$$CBVQString@@PAVuser@@@std@@@std@@@std@@@2@ABVQString@@@Z 00420dc0 f i users.obj
 0001:0001fe20       ?getUser@users@@SAPBVuser@@ABVQString@@@Z 00420e20 f   users.obj
 0001:0001fec0       ?getUserByConfigKey@users@@SAPBVuser@@ABVQString@@@Z 00420ec0 f   users.obj
 0001:0001ff70       ?loadAccess@users@@SAXAAVccConfig@@PAVuser@@ABVQString@@@Z 00420f70 f   users.obj
 0001:000208b0       ?loadUserInfo@users@@SAXABVQString@@@Z 004218b0 f   users.obj
 0001:00021170       ?loadUsers@users@@SAXXZ    00422170 f   users.obj
 0001:00021340       ?userList@users@@SAXAAV?$list@PAVuser@@V?$allocator@PAVuser@@@std@@@std@@@Z 00422340 f   users.obj
 0001:000213f0       ??0whiteBlackListEditDialog@@QAE@PAV?$set@VQString@@U?$less@VQString@@@std@@V?$allocator@VQString@@@3@@std@@0@Z 004223f0 f   whiteBlackListEditDialog.obj
 0001:00021530       ??1whiteBlackListEditDialog@@UAE@XZ 00422530 f   whiteBlackListEditDialog.obj
 0001:0002174a       ??_EwhiteBlackListEditDialog@@W7AEPAXI@Z 0042274a f i whiteBlackListEditDialog.obj
 0001:00021760       ??_GwhiteBlackListEditDialog@@UAEPAXI@Z 00422760 f i whiteBlackListEditDialog.obj
 0001:00021760       ??_EwhiteBlackListEditDialog@@UAEPAXI@Z 00422760 f i whiteBlackListEditDialog.obj
 0001:00021790       ?accept@whiteBlackListEditDialog@@UAEXXZ 00422790 f   whiteBlackListEditDialog.obj
 0001:00022000       ?retranslateUi@Ui_whiteBlackListEdit@@QAEXPAVQDialog@@@Z 00423000 f i whiteBlackListEditDialog.obj
 0001:000221f0       ?setupUi@Ui_whiteBlackListEdit@@QAEXPAVQDialog@@@Z 004231f0 f i whiteBlackListEditDialog.obj
 0001:000229b0       ?validateIpEntries@whiteBlackListEditDialog@@AAE?AVQString@@PAVQTextEdit@@@Z 004239b0 f   whiteBlackListEditDialog.obj
 0001:00022b2c       _GetFileVersionInfoSizeA@8 00423b2c f   version:VERSION.dll
 0001:00022b32       _GetFileVersionInfoA@16    00423b32 f   version:VERSION.dll
 0001:00022b38       _VerQueryValueA@16         00423b38 f   version:VERSION.dll
 0001:00022b3e       ?childEvent@QObject@@MAEXPAVQChildEvent@@@Z 00423b3e f   Qt5Core:Qt5Core.dll
 0001:00022b44       ?connectNotify@QObject@@MAEXABVQMetaMethod@@@Z 00423b44 f   Qt5Core:Qt5Core.dll
 0001:00022b4a       ?customEvent@QObject@@MAEXPAVQEvent@@@Z 00423b4a f   Qt5Core:Qt5Core.dll
 0001:00022b50       ?disconnectNotify@QObject@@MAEXABVQMetaMethod@@@Z 00423b50 f   Qt5Core:Qt5Core.dll
 0001:00022b56       ?event@QObject@@UAE_NPAVQEvent@@@Z 00423b56 f   Qt5Core:Qt5Core.dll
 0001:00022b5c       ?eventFilter@QObject@@UAE_NPAV1@PAVQEvent@@@Z 00423b5c f   Qt5Core:Qt5Core.dll
 0001:00022b62       ?timerEvent@QObject@@MAEXPAVQTimerEvent@@@Z 00423b62 f   Qt5Core:Qt5Core.dll
 0001:00022b68       ?open@QIODevice@@UAE_NV?$QFlags@W4OpenModeFlag@QIODevice@@@@@Z 00423b68 f   Qt5Core:Qt5Core.dll
 0001:00022b6e       ?pos@QIODevice@@UBE_JXZ    00423b6e f   Qt5Core:Qt5Core.dll
 0001:00022b74       ?reset@QIODevice@@UAE_NXZ  00423b74 f   Qt5Core:Qt5Core.dll
 0001:00022b7a       ?seek@QIODevice@@UAE_N_J@Z 00423b7a f   Qt5Core:Qt5Core.dll
 0001:00022b80       ?size@QIODevice@@UBE_JXZ   00423b80 f   Qt5Core:Qt5Core.dll
 0001:00022b86       ?hasPendingConnections@QTcpServer@@UBE_NXZ 00423b86 f   Qt5Network:Qt5Network.dll
 0001:00022b8c       ?nextPendingConnection@QTcpServer@@UAEPAVQTcpSocket@@XZ 00423b8c f   Qt5Network:Qt5Network.dll
 0001:00022b92       ?atEnd@QSslSocket@@UBE_NXZ 00423b92 f   Qt5Network:Qt5Network.dll
 0001:00022b98       ?bytesAvailable@QSslSocket@@UBE_JXZ 00423b98 f   Qt5Network:Qt5Network.dll
 0001:00022b9e       ?bytesToWrite@QSslSocket@@UBE_JXZ 00423b9e f   Qt5Network:Qt5Network.dll
 0001:00022ba4       ?canReadLine@QSslSocket@@UBE_NXZ 00423ba4 f   Qt5Network:Qt5Network.dll
 0001:00022baa       ?close@QSslSocket@@UAEXXZ  00423baa f   Qt5Network:Qt5Network.dll
 0001:00022bb0       ?connectToHost@QAbstractSocket@@UAEXABVQHostAddress@@GV?$QFlags@W4OpenModeFlag@QIODevice@@@@@Z 00423bb0 f   Qt5Network:Qt5Network.dll
 0001:00022bb6       ?connectToHost@QSslSocket@@UAEXABVQString@@GV?$QFlags@W4OpenModeFlag@QIODevice@@@@W4NetworkLayerProtocol@QAbstractSocket@@@Z 00423bb6 f   Qt5Network:Qt5Network.dll
 0001:00022bbc       ?disconnectFromHost@QSslSocket@@UAEXXZ 00423bbc f   Qt5Network:Qt5Network.dll
 0001:00022bc2       ?isSequential@QAbstractSocket@@UBE_NXZ 00423bc2 f   Qt5Network:Qt5Network.dll
 0001:00022bc8       ?metaObject@QSslSocket@@UBEPBUQMetaObject@@XZ 00423bc8 f   Qt5Network:Qt5Network.dll
 0001:00022bce       ?qt_metacall@QSslSocket@@UAEHW4Call@QMetaObject@@HPAPAX@Z 00423bce f   Qt5Network:Qt5Network.dll
 0001:00022bd4       ?qt_metacast@QSslSocket@@UAEPAXPBD@Z 00423bd4 f   Qt5Network:Qt5Network.dll
 0001:00022bda       ?readData@QSslSocket@@MAE_JPAD_J@Z 00423bda f   Qt5Network:Qt5Network.dll
 0001:00022be0       ?readLineData@QAbstractSocket@@MAE_JPAD_J@Z 00423be0 f   Qt5Network:Qt5Network.dll
 0001:00022be6       ?resume@QSslSocket@@UAEXXZ 00423be6 f   Qt5Network:Qt5Network.dll
 0001:00022bec       ?setReadBufferSize@QSslSocket@@UAEX_J@Z 00423bec f   Qt5Network:Qt5Network.dll
 0001:00022bf2       ?setSocketDescriptor@QSslSocket@@UAE_NHW4SocketState@QAbstractSocket@@V?$QFlags@W4OpenModeFlag@QIODevice@@@@@Z 00423bf2 f   Qt5Network:Qt5Network.dll
 0001:00022bf8       ?setSocketOption@QSslSocket@@UAEXW4SocketOption@QAbstractSocket@@ABVQVariant@@@Z 00423bf8 f   Qt5Network:Qt5Network.dll
 0001:00022bfe       ?socketDescriptor@QAbstractSocket@@UBEHXZ 00423bfe f   Qt5Network:Qt5Network.dll
 0001:00022c04       ?socketOption@QSslSocket@@UAE?AVQVariant@@W4SocketOption@QAbstractSocket@@@Z 00423c04 f   Qt5Network:Qt5Network.dll
 0001:00022c0a       ?waitForBytesWritten@QSslSocket@@UAE_NH@Z 00423c0a f   Qt5Network:Qt5Network.dll
 0001:00022c10       ?waitForConnected@QSslSocket@@UAE_NH@Z 00423c10 f   Qt5Network:Qt5Network.dll
 0001:00022c16       ?waitForDisconnected@QSslSocket@@UAE_NH@Z 00423c16 f   Qt5Network:Qt5Network.dll
 0001:00022c1c       ?waitForReadyRead@QSslSocket@@UAE_NH@Z 00423c1c f   Qt5Network:Qt5Network.dll
 0001:00022c22       ?writeData@QSslSocket@@MAE_JPBD_J@Z 00423c22 f   Qt5Network:Qt5Network.dll
 0001:00022c28       ??MQTreeWidgetItem@@UBE_NABV0@@Z 00423c28 f   Qt5Widgets:Qt5Widgets.dll
 0001:00022c2e       ?clone@QTreeWidgetItem@@UBEPAV1@XZ 00423c2e f   Qt5Widgets:Qt5Widgets.dll
 0001:00022c34       ?data@QTreeWidgetItem@@UBE?AVQVariant@@HH@Z 00423c34 f   Qt5Widgets:Qt5Widgets.dll
 0001:00022c3a       ?read@QTreeWidgetItem@@UAEXAAVQDataStream@@@Z 00423c3a f   Qt5Widgets:Qt5Widgets.dll
 0001:00022c40       ?setData@QTreeWidgetItem@@UAEXHHABVQVariant@@@Z 00423c40 f   Qt5Widgets:Qt5Widgets.dll
 0001:00022c46       ?write@QTreeWidgetItem@@UBEXAAVQDataStream@@@Z 00423c46 f   Qt5Widgets:Qt5Widgets.dll
 0001:00022c4c       ?qt_metacast@QDialog@@UAEPAXPBD@Z 00423c4c f   Qt5Widgets:Qt5Widgets.dll
 0001:00022c52       ?qt_metacall@QDialog@@UAEHW4Call@QMetaObject@@HPAPAX@Z 00423c52 f   Qt5Widgets:Qt5Widgets.dll
 0001:00022c58       ?exec@QDialog@@UAEHXZ      00423c58 f   Qt5Widgets:Qt5Widgets.dll
 0001:00022c5e       ??MQListWidgetItem@@UBE_NABV0@@Z 00423c5e f   Qt5Widgets:Qt5Widgets.dll
 0001:00022c64       ?actionEvent@QMenu@@MAEXPAVQActionEvent@@@Z 00423c64 f   Qt5Widgets:Qt5Widgets.dll
 0001:00022c6a       ?actionEvent@QMenuBar@@MAEXPAVQActionEvent@@@Z 00423c6a f   Qt5Widgets:Qt5Widgets.dll
 0001:00022c70       ?actionEvent@QToolBar@@MAEXPAVQActionEvent@@@Z 00423c70 f   Qt5Widgets:Qt5Widgets.dll
 0001:00022c76       ?actionEvent@QWidget@@MAEXPAVQActionEvent@@@Z 00423c76 f   Qt5Widgets:Qt5Widgets.dll
 0001:00022c7c       ?addItem@QBoxLayout@@UAEXPAVQLayoutItem@@@Z 00423c7c f   Qt5Widgets:Qt5Widgets.dll
 0001:00022c82       ?canInsertFromMimeData@QTextEdit@@MBE_NPBVQMimeData@@@Z 00423c82 f   Qt5Widgets:Qt5Widgets.dll
 0001:00022c88       ?changeEvent@QAbstractButton@@MAEXPAVQEvent@@@Z 00423c88 f   Qt5Widgets:Qt5Widgets.dll
 0001:00022c8e       ?changeEvent@QFrame@@MAEXPAVQEvent@@@Z 00423c8e f   Qt5Widgets:Qt5Widgets.dll
 0001:00022c94       ?changeEvent@QGroupBox@@MAEXPAVQEvent@@@Z 00423c94 f   Qt5Widgets:Qt5Widgets.dll
 0001:00022c9a       ?changeEvent@QMenu@@MAEXPAVQEvent@@@Z 00423c9a f   Qt5Widgets:Qt5Widgets.dll
 0001:00022ca0       ?changeEvent@QMenuBar@@MAEXPAVQEvent@@@Z 00423ca0 f   Qt5Widgets:Qt5Widgets.dll
 0001:00022ca6       ?changeEvent@QSplitter@@MAEXPAVQEvent@@@Z 00423ca6 f   Qt5Widgets:Qt5Widgets.dll
 0001:00022cac       ?changeEvent@QTextEdit@@MAEXPAVQEvent@@@Z 00423cac f   Qt5Widgets:Qt5Widgets.dll
 0001:00022cb2       ?changeEvent@QToolBar@@MAEXPAVQEvent@@@Z 00423cb2 f   Qt5Widgets:Qt5Widgets.dll
 0001:00022cb8       ?changeEvent@QWidget@@MAEXPAVQEvent@@@Z 00423cb8 f   Qt5Widgets:Qt5Widgets.dll
 0001:00022cbe       ?checkStateSet@QAbstractButton@@MAEXXZ 00423cbe f   Qt5Widgets:Qt5Widgets.dll
 0001:00022cc4       ?childEvent@QGroupBox@@MAEXPAVQChildEvent@@@Z 00423cc4 f   Qt5Widgets:Qt5Widgets.dll
 0001:00022cca       ?childEvent@QLayout@@MAEXPAVQChildEvent@@@Z 00423cca f   Qt5Widgets:Qt5Widgets.dll
 0001:00022cd0       ?childEvent@QSplitter@@MAEXPAVQChildEvent@@@Z 00423cd0 f   Qt5Widgets:Qt5Widgets.dll
 0001:00022cd6       ?clone@QListWidgetItem@@UBEPAV1@XZ 00423cd6 f   Qt5Widgets:Qt5Widgets.dll
 0001:00022cdc       ?closeEditor@QAbstractItemView@@MAEXPAVQWidget@@W4EndEditHint@QAbstractItemDelegate@@@Z 00423cdc f   Qt5Widgets:Qt5Widgets.dll
 0001:00022ce2       ?closeEvent@QWidget@@MAEXPAVQCloseEvent@@@Z 00423ce2 f   Qt5Widgets:Qt5Widgets.dll
 0001:00022ce8       ?commitData@QAbstractItemView@@MAEXPAVQWidget@@@Z 00423ce8 f   Qt5Widgets:Qt5Widgets.dll
 0001:00022cee       ?contextMenuEvent@QAbstractScrollArea@@MAEXPAVQContextMenuEvent@@@Z 00423cee f   Qt5Widgets:Qt5Widgets.dll
 0001:00022cf4       ?contextMenuEvent@QMainWindow@@MAEXPAVQContextMenuEvent@@@Z 00423cf4 f   Qt5Widgets:Qt5Widgets.dll
 0001:00022cfa       ?contextMenuEvent@QTextEdit@@MAEXPAVQContextMenuEvent@@@Z 00423cfa f   Qt5Widgets:Qt5Widgets.dll
 0001:00022d00       ?contextMenuEvent@QWidget@@MAEXPAVQContextMenuEvent@@@Z 00423d00 f   Qt5Widgets:Qt5Widgets.dll
 0001:00022d06       ?controlTypes@QLayout@@UBE?AV?$QFlags@W4ControlType@QSizePolicy@@@@XZ 00423d06 f   Qt5Widgets:Qt5Widgets.dll
 0001:00022d0c       ?controlTypes@QLayoutItem@@UBE?AV?$QFlags@W4ControlType@QSizePolicy@@@@XZ 00423d0c f   Qt5Widgets:Qt5Widgets.dll
 0001:00022d12       ?count@QBoxLayout@@UBEHXZ  00423d12 f   Qt5Widgets:Qt5Widgets.dll
 0001:00022d18       ?createHandle@QSplitter@@MAEPAVQSplitterHandle@@XZ 00423d18 f   Qt5Widgets:Qt5Widgets.dll
 0001:00022d1e       ?createMimeDataFromSelection@QTextEdit@@MBEPAVQMimeData@@XZ 00423d1e f   Qt5Widgets:Qt5Widgets.dll
 0001:00022d24       ?createPopupMenu@QMainWindow@@UAEPAVQMenu@@XZ 00423d24 f   Qt5Widgets:Qt5Widgets.dll
 0001:00022d2a       ?currentChanged@QListView@@MAEXABVQModelIndex@@0@Z 00423d2a f   Qt5Widgets:Qt5Widgets.dll
 0001:00022d30       ?currentChanged@QTreeView@@MAEXABVQModelIndex@@0@Z 00423d30 f   Qt5Widgets:Qt5Widgets.dll
 0001:00022d36       ?data@QListWidgetItem@@UBE?AVQVariant@@H@Z 00423d36 f   Qt5Widgets:Qt5Widgets.dll
 0001:00022d3c       ?dataChanged@QListView@@MAEXABVQModelIndex@@0ABV?$QVector@H@@@Z 00423d3c f   Qt5Widgets:Qt5Widgets.dll
 0001:00022d42       ?dataChanged@QTreeView@@UAEXABVQModelIndex@@0ABV?$QVector@H@@@Z 00423d42 f   Qt5Widgets:Qt5Widgets.dll
 0001:00022d48       ?devType@QWidget@@UBEHXZ   00423d48 f   Qt5Widgets:Qt5Widgets.dll
 0001:00022d4e       ?doItemsLayout@QListView@@UAEXXZ 00423d4e f   Qt5Widgets:Qt5Widgets.dll
 0001:00022d54       ?doItemsLayout@QTreeView@@UAEXXZ 00423d54 f   Qt5Widgets:Qt5Widgets.dll
 0001:00022d5a       ?doSetTextCursor@QTextEdit@@MAEXABVQTextCursor@@@Z 00423d5a f   Qt5Widgets:Qt5Widgets.dll
 0001:00022d60       ?dragEnterEvent@QAbstractItemView@@MAEXPAVQDragEnterEvent@@@Z 00423d60 f   Qt5Widgets:Qt5Widgets.dll
 0001:00022d66       ?dragEnterEvent@QTextEdit@@MAEXPAVQDragEnterEvent@@@Z 00423d66 f   Qt5Widgets:Qt5Widgets.dll
 0001:00022d6c       ?dragEnterEvent@QWidget@@MAEXPAVQDragEnterEvent@@@Z 00423d6c f   Qt5Widgets:Qt5Widgets.dll
 0001:00022d72       ?dragLeaveEvent@QAbstractItemView@@MAEXPAVQDragLeaveEvent@@@Z 00423d72 f   Qt5Widgets:Qt5Widgets.dll
 0001:00022d78       ?dragLeaveEvent@QListView@@MAEXPAVQDragLeaveEvent@@@Z 00423d78 f   Qt5Widgets:Qt5Widgets.dll
 0001:00022d7e       ?dragLeaveEvent@QTextEdit@@MAEXPAVQDragLeaveEvent@@@Z 00423d7e f   Qt5Widgets:Qt5Widgets.dll
 0001:00022d84       ?dragLeaveEvent@QWidget@@MAEXPAVQDragLeaveEvent@@@Z 00423d84 f   Qt5Widgets:Qt5Widgets.dll
 0001:00022d8a       ?dragMoveEvent@QListView@@MAEXPAVQDragMoveEvent@@@Z 00423d8a f   Qt5Widgets:Qt5Widgets.dll
 0001:00022d90       ?dragMoveEvent@QTextEdit@@MAEXPAVQDragMoveEvent@@@Z 00423d90 f   Qt5Widgets:Qt5Widgets.dll
 0001:00022d96       ?dragMoveEvent@QTreeView@@MAEXPAVQDragMoveEvent@@@Z 00423d96 f   Qt5Widgets:Qt5Widgets.dll
 0001:00022d9c       ?dragMoveEvent@QWidget@@MAEXPAVQDragMoveEvent@@@Z 00423d9c f   Qt5Widgets:Qt5Widgets.dll
 0001:00022da2       ?drawBranches@QTreeView@@MBEXPAVQPainter@@ABVQRect@@ABVQModelIndex@@@Z 00423da2 f   Qt5Widgets:Qt5Widgets.dll
 0001:00022da8       ?drawRow@QTreeView@@MBEXPAVQPainter@@ABVQStyleOptionViewItem@@ABVQModelIndex@@@Z 00423da8 f   Qt5Widgets:Qt5Widgets.dll
 0001:00022dae       ?dropEvent@QListWidget@@UAEXPAVQDropEvent@@@Z 00423dae f   Qt5Widgets:Qt5Widgets.dll
 0001:00022db4       ?dropEvent@QTextEdit@@MAEXPAVQDropEvent@@@Z 00423db4 f   Qt5Widgets:Qt5Widgets.dll
 0001:00022dba       ?dropEvent@QTreeWidget@@MAEXPAVQDropEvent@@@Z 00423dba f   Qt5Widgets:Qt5Widgets.dll
 0001:00022dc0       ?dropEvent@QWidget@@MAEXPAVQDropEvent@@@Z 00423dc0 f   Qt5Widgets:Qt5Widgets.dll
 0001:00022dc6       ?dropMimeData@QListWidget@@MAE_NHPBVQMimeData@@W4DropAction@Qt@@@Z 00423dc6 f   Qt5Widgets:Qt5Widgets.dll
 0001:00022dcc       ?dropMimeData@QTreeWidget@@MAE_NPAVQTreeWidgetItem@@HPBVQMimeData@@W4DropAction@Qt@@@Z 00423dcc f   Qt5Widgets:Qt5Widgets.dll
 0001:00022dd2       ?edit@QAbstractItemView@@MAE_NABVQModelIndex@@W4EditTrigger@1@PAVQEvent@@@Z 00423dd2 f   Qt5Widgets:Qt5Widgets.dll
 0001:00022dd8       ?editorDestroyed@QAbstractItemView@@MAEXPAVQObject@@@Z 00423dd8 f   Qt5Widgets:Qt5Widgets.dll
 0001:00022dde       ?enterEvent@QMenu@@MAEXPAVQEvent@@@Z 00423dde f   Qt5Widgets:Qt5Widgets.dll
 0001:00022de4       ?enterEvent@QWidget@@MAEXPAVQEvent@@@Z 00423de4 f   Qt5Widgets:Qt5Widgets.dll
 0001:00022dea       ?event@QAction@@MAE_NPAVQEvent@@@Z 00423dea f   Qt5Widgets:Qt5Widgets.dll
 0001:00022df0       ?event@QGroupBox@@MAE_NPAVQEvent@@@Z 00423df0 f   Qt5Widgets:Qt5Widgets.dll
 0001:00022df6       ?event@QListWidget@@MAE_NPAVQEvent@@@Z 00423df6 f   Qt5Widgets:Qt5Widgets.dll
 0001:00022dfc       ?event@QMainWindow@@MAE_NPAVQEvent@@@Z 00423dfc f   Qt5Widgets:Qt5Widgets.dll
 0001:00022e02       ?event@QMenu@@MAE_NPAVQEvent@@@Z 00423e02 f   Qt5Widgets:Qt5Widgets.dll
 0001:00022e08       ?event@QMenuBar@@MAE_NPAVQEvent@@@Z 00423e08 f   Qt5Widgets:Qt5Widgets.dll
 0001:00022e0e       ?event@QPushButton@@MAE_NPAVQEvent@@@Z 00423e0e f   Qt5Widgets:Qt5Widgets.dll
 0001:00022e14       ?event@QSplitter@@MAE_NPAVQEvent@@@Z 00423e14 f   Qt5Widgets:Qt5Widgets.dll
 0001:00022e1a       ?event@QStatusBar@@MAE_NPAVQEvent@@@Z 00423e1a f   Qt5Widgets:Qt5Widgets.dll
 0001:00022e20       ?event@QTextEdit@@MAE_NPAVQEvent@@@Z 00423e20 f   Qt5Widgets:Qt5Widgets.dll
 0001:00022e26       ?event@QToolBar@@MAE_NPAVQEvent@@@Z 00423e26 f   Qt5Widgets:Qt5Widgets.dll
 0001:00022e2c       ?event@QTreeWidget@@MAE_NPAVQEvent@@@Z 00423e2c f   Qt5Widgets:Qt5Widgets.dll
 0001:00022e32       ?event@QWidget@@MAE_NPAVQEvent@@@Z 00423e32 f   Qt5Widgets:Qt5Widgets.dll
 0001:00022e38       ?eventFilter@QAbstractScrollArea@@MAE_NPAVQObject@@PAVQEvent@@@Z 00423e38 f   Qt5Widgets:Qt5Widgets.dll
 0001:00022e3e       ?eventFilter@QMenuBar@@MAE_NPAVQObject@@PAVQEvent@@@Z 00423e3e f   Qt5Widgets:Qt5Widgets.dll
 0001:00022e44       ?expandingDirections@QBoxLayout@@UBE?AV?$QFlags@W4Orientation@Qt@@@@XZ 00423e44 f   Qt5Widgets:Qt5Widgets.dll
 0001:00022e4a       ?expandingDirections@QSpacerItem@@UBE?AV?$QFlags@W4Orientation@Qt@@@@XZ 00423e4a f   Qt5Widgets:Qt5Widgets.dll
 0001:00022e50       ?focusInEvent@QAbstractItemView@@MAEXPAVQFocusEvent@@@Z 00423e50 f   Qt5Widgets:Qt5Widgets.dll
 0001:00022e56       ?focusInEvent@QGroupBox@@MAEXPAVQFocusEvent@@@Z 00423e56 f   Qt5Widgets:Qt5Widgets.dll
 0001:00022e5c       ?focusInEvent@QMenuBar@@MAEXPAVQFocusEvent@@@Z 00423e5c f   Qt5Widgets:Qt5Widgets.dll
 0001:00022e62       ?focusInEvent@QPushButton@@MAEXPAVQFocusEvent@@@Z 00423e62 f   Qt5Widgets:Qt5Widgets.dll
 0001:00022e68       ?focusInEvent@QTextEdit@@MAEXPAVQFocusEvent@@@Z 00423e68 f   Qt5Widgets:Qt5Widgets.dll
 0001:00022e6e       ?focusInEvent@QWidget@@MAEXPAVQFocusEvent@@@Z 00423e6e f   Qt5Widgets:Qt5Widgets.dll
 0001:00022e74       ?focusNextPrevChild@QAbstractItemView@@MAE_N_N@Z 00423e74 f   Qt5Widgets:Qt5Widgets.dll
 0001:00022e7a       ?focusNextPrevChild@QMenu@@MAE_N_N@Z 00423e7a f   Qt5Widgets:Qt5Widgets.dll
 0001:00022e80       ?focusNextPrevChild@QTextEdit@@MAE_N_N@Z 00423e80 f   Qt5Widgets:Qt5Widgets.dll
 0001:00022e86       ?focusNextPrevChild@QWidget@@MAE_N_N@Z 00423e86 f   Qt5Widgets:Qt5Widgets.dll
 0001:00022e8c       ?focusOutEvent@QAbstractItemView@@MAEXPAVQFocusEvent@@@Z 00423e8c f   Qt5Widgets:Qt5Widgets.dll
 0001:00022e92       ?focusOutEvent@QMenuBar@@MAEXPAVQFocusEvent@@@Z 00423e92 f   Qt5Widgets:Qt5Widgets.dll
 0001:00022e98       ?focusOutEvent@QPushButton@@MAEXPAVQFocusEvent@@@Z 00423e98 f   Qt5Widgets:Qt5Widgets.dll
 0001:00022e9e       ?focusOutEvent@QTextEdit@@MAEXPAVQFocusEvent@@@Z 00423e9e f   Qt5Widgets:Qt5Widgets.dll
 0001:00022ea4       ?focusOutEvent@QWidget@@MAEXPAVQFocusEvent@@@Z 00423ea4 f   Qt5Widgets:Qt5Widgets.dll
 0001:00022eaa       ?geometry@QLayout@@UBE?AVQRect@@XZ 00423eaa f   Qt5Widgets:Qt5Widgets.dll
 0001:00022eb0       ?geometry@QSpacerItem@@UBE?AVQRect@@XZ 00423eb0 f   Qt5Widgets:Qt5Widgets.dll
 0001:00022eb6       ?hasHeightForWidth@QBoxLayout@@UBE_NXZ 00423eb6 f   Qt5Widgets:Qt5Widgets.dll
 0001:00022ebc       ?hasHeightForWidth@QLayoutItem@@UBE_NXZ 00423ebc f   Qt5Widgets:Qt5Widgets.dll
 0001:00022ec2       ?hasHeightForWidth@QWidget@@UBE_NXZ 00423ec2 f   Qt5Widgets:Qt5Widgets.dll
 0001:00022ec8       ?heightForWidth@QBoxLayout@@UBEHH@Z 00423ec8 f   Qt5Widgets:Qt5Widgets.dll
 0001:00022ece       ?heightForWidth@QLayoutItem@@UBEHH@Z 00423ece f   Qt5Widgets:Qt5Widgets.dll
 0001:00022ed4       ?heightForWidth@QMenuBar@@UBEHH@Z 00423ed4 f   Qt5Widgets:Qt5Widgets.dll
 0001:00022eda       ?heightForWidth@QWidget@@UBEHH@Z 00423eda f   Qt5Widgets:Qt5Widgets.dll
 0001:00022ee0       ?hideEvent@QMenu@@MAEXPAVQHideEvent@@@Z 00423ee0 f   Qt5Widgets:Qt5Widgets.dll
 0001:00022ee6       ?hideEvent@QWidget@@MAEXPAVQHideEvent@@@Z 00423ee6 f   Qt5Widgets:Qt5Widgets.dll
 0001:00022eec       ?hitButton@QAbstractButton@@MBE_NABVQPoint@@@Z 00423eec f   Qt5Widgets:Qt5Widgets.dll
 0001:00022ef2       ?horizontalOffset@QListView@@MBEHXZ 00423ef2 f   Qt5Widgets:Qt5Widgets.dll
 0001:00022ef8       ?horizontalOffset@QTreeView@@MBEHXZ 00423ef8 f   Qt5Widgets:Qt5Widgets.dll
 0001:00022efe       ?horizontalScrollbarAction@QAbstractItemView@@MAEXH@Z 00423efe f   Qt5Widgets:Qt5Widgets.dll
 0001:00022f04       ?horizontalScrollbarAction@QTreeView@@MAEXH@Z 00423f04 f   Qt5Widgets:Qt5Widgets.dll
 0001:00022f0a       ?horizontalScrollbarValueChanged@QAbstractItemView@@MAEXH@Z 00423f0a f   Qt5Widgets:Qt5Widgets.dll
 0001:00022f10       ?indexAt@QListView@@UBE?AVQModelIndex@@ABVQPoint@@@Z 00423f10 f   Qt5Widgets:Qt5Widgets.dll
 0001:00022f16       ?indexAt@QTreeView@@UBE?AVQModelIndex@@ABVQPoint@@@Z 00423f16 f   Qt5Widgets:Qt5Widgets.dll
 0001:00022f1c       ?indexOf@QLayout@@UBEHPAVQWidget@@@Z 00423f1c f   Qt5Widgets:Qt5Widgets.dll
 0001:00022f22       ?initPainter@QWidget@@MBEXPAVQPainter@@@Z 00423f22 f   Qt5Widgets:Qt5Widgets.dll
 0001:00022f28       ?inputMethodEvent@QAbstractItemView@@MAEXPAVQInputMethodEvent@@@Z 00423f28 f   Qt5Widgets:Qt5Widgets.dll
 0001:00022f2e       ?inputMethodEvent@QTextEdit@@MAEXPAVQInputMethodEvent@@@Z 00423f2e f   Qt5Widgets:Qt5Widgets.dll
 0001:00022f34       ?inputMethodEvent@QWidget@@MAEXPAVQInputMethodEvent@@@Z 00423f34 f   Qt5Widgets:Qt5Widgets.dll
 0001:00022f3a       ?inputMethodQuery@QAbstractItemView@@UBE?AVQVariant@@W4InputMethodQuery@Qt@@@Z 00423f3a f   Qt5Widgets:Qt5Widgets.dll
 0001:00022f40       ?inputMethodQuery@QTextEdit@@UBE?AVQVariant@@W4InputMethodQuery@Qt@@@Z 00423f40 f   Qt5Widgets:Qt5Widgets.dll
 0001:00022f46       ?inputMethodQuery@QWidget@@UBE?AVQVariant@@W4InputMethodQuery@Qt@@@Z 00423f46 f   Qt5Widgets:Qt5Widgets.dll
 0001:00022f4c       ?insertFromMimeData@QTextEdit@@MAEXPBVQMimeData@@@Z 00423f4c f   Qt5Widgets:Qt5Widgets.dll
 0001:00022f52       ?invalidate@QBoxLayout@@UAEXXZ 00423f52 f   Qt5Widgets:Qt5Widgets.dll
 0001:00022f58       ?invalidate@QLayoutItem@@UAEXXZ 00423f58 f   Qt5Widgets:Qt5Widgets.dll
 0001:00022f5e       ?isEmpty@QLayout@@UBE_NXZ  00423f5e f   Qt5Widgets:Qt5Widgets.dll
 0001:00022f64       ?isEmpty@QSpacerItem@@UBE_NXZ 00423f64 f   Qt5Widgets:Qt5Widgets.dll
 0001:00022f6a       ?isIndexHidden@QListView@@MBE_NABVQModelIndex@@@Z 00423f6a f   Qt5Widgets:Qt5Widgets.dll
 0001:00022f70       ?isIndexHidden@QTreeView@@MBE_NABVQModelIndex@@@Z 00423f70 f   Qt5Widgets:Qt5Widgets.dll
 0001:00022f76       ?itemAt@QBoxLayout@@UBEPAVQLayoutItem@@H@Z 00423f76 f   Qt5Widgets:Qt5Widgets.dll
 0001:00022f7c       ?keyPressEvent@QAbstractItemView@@MAEXPAVQKeyEvent@@@Z 00423f7c f   Qt5Widgets:Qt5Widgets.dll
 0001:00022f82       ?keyPressEvent@QMenu@@MAEXPAVQKeyEvent@@@Z 00423f82 f   Qt5Widgets:Qt5Widgets.dll
 0001:00022f88       ?keyPressEvent@QMenuBar@@MAEXPAVQKeyEvent@@@Z 00423f88 f   Qt5Widgets:Qt5Widgets.dll
 0001:00022f8e       ?keyPressEvent@QPushButton@@MAEXPAVQKeyEvent@@@Z 00423f8e f   Qt5Widgets:Qt5Widgets.dll
 0001:00022f94       ?keyPressEvent@QTextEdit@@MAEXPAVQKeyEvent@@@Z 00423f94 f   Qt5Widgets:Qt5Widgets.dll
 0001:00022f9a       ?keyPressEvent@QTreeView@@MAEXPAVQKeyEvent@@@Z 00423f9a f   Qt5Widgets:Qt5Widgets.dll
 0001:00022fa0       ?keyPressEvent@QWidget@@MAEXPAVQKeyEvent@@@Z 00423fa0 f   Qt5Widgets:Qt5Widgets.dll
 0001:00022fa6       ?keyReleaseEvent@QAbstractButton@@MAEXPAVQKeyEvent@@@Z 00423fa6 f   Qt5Widgets:Qt5Widgets.dll
 0001:00022fac       ?keyReleaseEvent@QTextEdit@@MAEXPAVQKeyEvent@@@Z 00423fac f   Qt5Widgets:Qt5Widgets.dll
 0001:00022fb2       ?keyReleaseEvent@QWidget@@MAEXPAVQKeyEvent@@@Z 00423fb2 f   Qt5Widgets:Qt5Widgets.dll
 0001:00022fb8       ?keyboardSearch@QAbstractItemView@@UAEXABVQString@@@Z 00423fb8 f   Qt5Widgets:Qt5Widgets.dll
 0001:00022fbe       ?keyboardSearch@QTreeView@@UAEXABVQString@@@Z 00423fbe f   Qt5Widgets:Qt5Widgets.dll
 0001:00022fc4       ?layout@QLayout@@UAEPAV1@XZ 00423fc4 f   Qt5Widgets:Qt5Widgets.dll
 0001:00022fca       ?layout@QLayoutItem@@UAEPAVQLayout@@XZ 00423fca f   Qt5Widgets:Qt5Widgets.dll
 0001:00022fd0       ?leaveEvent@QMenu@@MAEXPAVQEvent@@@Z 00423fd0 f   Qt5Widgets:Qt5Widgets.dll
 0001:00022fd6       ?leaveEvent@QMenuBar@@MAEXPAVQEvent@@@Z 00423fd6 f   Qt5Widgets:Qt5Widgets.dll
 0001:00022fdc       ?leaveEvent@QWidget@@MAEXPAVQEvent@@@Z 00423fdc f   Qt5Widgets:Qt5Widgets.dll
 0001:00022fe2       ?loadResource@QTextEdit@@UAE?AVQVariant@@HABVQUrl@@@Z 00423fe2 f   Qt5Widgets:Qt5Widgets.dll
 0001:00022fe8       ?maximumSize@QBoxLayout@@UBE?AVQSize@@XZ 00423fe8 f   Qt5Widgets:Qt5Widgets.dll
 0001:00022fee       ?maximumSize@QSpacerItem@@UBE?AVQSize@@XZ 00423fee f   Qt5Widgets:Qt5Widgets.dll
 0001:00022ff4       ?metaObject@QAction@@UBEPBUQMetaObject@@XZ 00423ff4 f   Qt5Widgets:Qt5Widgets.dll
 0001:00022ffa       ?metaObject@QGroupBox@@UBEPBUQMetaObject@@XZ 00423ffa f   Qt5Widgets:Qt5Widgets.dll
 0001:00023000       ?metaObject@QHBoxLayout@@UBEPBUQMetaObject@@XZ 00424000 f   Qt5Widgets:Qt5Widgets.dll
 0001:00023006       ?metaObject@QListWidget@@UBEPBUQMetaObject@@XZ 00424006 f   Qt5Widgets:Qt5Widgets.dll
 0001:0002300c       ?metaObject@QMenu@@UBEPBUQMetaObject@@XZ 0042400c f   Qt5Widgets:Qt5Widgets.dll
 0001:00023012       ?metaObject@QMenuBar@@UBEPBUQMetaObject@@XZ 00424012 f   Qt5Widgets:Qt5Widgets.dll
 0001:00023018       ?metaObject@QPushButton@@UBEPBUQMetaObject@@XZ 00424018 f   Qt5Widgets:Qt5Widgets.dll
 0001:0002301e       ?metaObject@QSplitter@@UBEPBUQMetaObject@@XZ 0042401e f   Qt5Widgets:Qt5Widgets.dll
 0001:00023024       ?metaObject@QStatusBar@@UBEPBUQMetaObject@@XZ 00424024 f   Qt5Widgets:Qt5Widgets.dll
 0001:0002302a       ?metaObject@QTextEdit@@UBEPBUQMetaObject@@XZ 0042402a f   Qt5Widgets:Qt5Widgets.dll
 0001:00023030       ?metaObject@QToolBar@@UBEPBUQMetaObject@@XZ 00424030 f   Qt5Widgets:Qt5Widgets.dll
 0001:00023036       ?metaObject@QTreeWidget@@UBEPBUQMetaObject@@XZ 00424036 f   Qt5Widgets:Qt5Widgets.dll
 0001:0002303c       ?metaObject@QVBoxLayout@@UBEPBUQMetaObject@@XZ 0042403c f   Qt5Widgets:Qt5Widgets.dll
 0001:00023042       ?metaObject@QWidget@@UBEPBUQMetaObject@@XZ 00424042 f   Qt5Widgets:Qt5Widgets.dll
 0001:00023048       ?metric@QWidget@@MBEHW4PaintDeviceMetric@QPaintDevice@@@Z 00424048 f   Qt5Widgets:Qt5Widgets.dll
 0001:0002304e       ?mimeData@QListWidget@@MBEPAVQMimeData@@V?$QList@PAVQListWidgetItem@@@@@Z 0042404e f   Qt5Widgets:Qt5Widgets.dll
 0001:00023054       ?mimeData@QTreeWidget@@MBEPAVQMimeData@@V?$QList@PAVQTreeWidgetItem@@@@@Z 00424054 f   Qt5Widgets:Qt5Widgets.dll
 0001:0002305a       ?mimeTypes@QListWidget@@MBE?AVQStringList@@XZ 0042405a f   Qt5Widgets:Qt5Widgets.dll
 0001:00023060       ?mimeTypes@QTreeWidget@@MBE?AVQStringList@@XZ 00424060 f   Qt5Widgets:Qt5Widgets.dll
 0001:00023066       ?minimumHeightForWidth@QBoxLayout@@UBEHH@Z 00424066 f   Qt5Widgets:Qt5Widgets.dll
 0001:0002306c       ?minimumHeightForWidth@QLayoutItem@@UBEHH@Z 0042406c f   Qt5Widgets:Qt5Widgets.dll
 0001:00023072       ?minimumSize@QBoxLayout@@UBE?AVQSize@@XZ 00424072 f   Qt5Widgets:Qt5Widgets.dll
 0001:00023078       ?minimumSize@QSpacerItem@@UBE?AVQSize@@XZ 00424078 f   Qt5Widgets:Qt5Widgets.dll
 0001:0002307e       ?minimumSizeHint@QAbstractScrollArea@@UBE?AVQSize@@XZ 0042407e f   Qt5Widgets:Qt5Widgets.dll
 0001:00023084       ?minimumSizeHint@QGroupBox@@UBE?AVQSize@@XZ 00424084 f   Qt5Widgets:Qt5Widgets.dll
 0001:0002308a       ?minimumSizeHint@QMenuBar@@UBE?AVQSize@@XZ 0042408a f   Qt5Widgets:Qt5Widgets.dll
 0001:00023090       ?minimumSizeHint@QPushButton@@UBE?AVQSize@@XZ 00424090 f   Qt5Widgets:Qt5Widgets.dll
 0001:00023096       ?minimumSizeHint@QSplitter@@UBE?AVQSize@@XZ 00424096 f   Qt5Widgets:Qt5Widgets.dll
 0001:0002309c       ?minimumSizeHint@QWidget@@UBE?AVQSize@@XZ 0042409c f   Qt5Widgets:Qt5Widgets.dll
 0001:000230a2       ?mouseDoubleClickEvent@QAbstractItemView@@MAEXPAVQMouseEvent@@@Z 004240a2 f   Qt5Widgets:Qt5Widgets.dll
 0001:000230a8       ?mouseDoubleClickEvent@QTextEdit@@MAEXPAVQMouseEvent@@@Z 004240a8 f   Qt5Widgets:Qt5Widgets.dll
 0001:000230ae       ?mouseDoubleClickEvent@QTreeView@@MAEXPAVQMouseEvent@@@Z 004240ae f   Qt5Widgets:Qt5Widgets.dll
 0001:000230b4       ?mouseDoubleClickEvent@QWidget@@MAEXPAVQMouseEvent@@@Z 004240b4 f   Qt5Widgets:Qt5Widgets.dll
 0001:000230ba       ?mouseMoveEvent@QAbstractButton@@MAEXPAVQMouseEvent@@@Z 004240ba f   Qt5Widgets:Qt5Widgets.dll
 0001:000230c0       ?mouseMoveEvent@QGroupBox@@MAEXPAVQMouseEvent@@@Z 004240c0 f   Qt5Widgets:Qt5Widgets.dll
 0001:000230c6       ?mouseMoveEvent@QListView@@MAEXPAVQMouseEvent@@@Z 004240c6 f   Qt5Widgets:Qt5Widgets.dll
 0001:000230cc       ?mouseMoveEvent@QMenu@@MAEXPAVQMouseEvent@@@Z 004240cc f   Qt5Widgets:Qt5Widgets.dll
 0001:000230d2       ?mouseMoveEvent@QMenuBar@@MAEXPAVQMouseEvent@@@Z 004240d2 f   Qt5Widgets:Qt5Widgets.dll
 0001:000230d8       ?mouseMoveEvent@QTextEdit@@MAEXPAVQMouseEvent@@@Z 004240d8 f   Qt5Widgets:Qt5Widgets.dll
 0001:000230de       ?mouseMoveEvent@QTreeView@@MAEXPAVQMouseEvent@@@Z 004240de f   Qt5Widgets:Qt5Widgets.dll
 0001:000230e4       ?mouseMoveEvent@QWidget@@MAEXPAVQMouseEvent@@@Z 004240e4 f   Qt5Widgets:Qt5Widgets.dll
 0001:000230ea       ?mousePressEvent@QAbstractButton@@MAEXPAVQMouseEvent@@@Z 004240ea f   Qt5Widgets:Qt5Widgets.dll
 0001:000230f0       ?mousePressEvent@QAbstractItemView@@MAEXPAVQMouseEvent@@@Z 004240f0 f   Qt5Widgets:Qt5Widgets.dll
 0001:000230f6       ?mousePressEvent@QGroupBox@@MAEXPAVQMouseEvent@@@Z 004240f6 f   Qt5Widgets:Qt5Widgets.dll
 0001:000230fc       ?mousePressEvent@QMenu@@MAEXPAVQMouseEvent@@@Z 004240fc f   Qt5Widgets:Qt5Widgets.dll
 0001:00023102       ?mousePressEvent@QMenuBar@@MAEXPAVQMouseEvent@@@Z 00424102 f   Qt5Widgets:Qt5Widgets.dll
 0001:00023108       ?mousePressEvent@QTextEdit@@MAEXPAVQMouseEvent@@@Z 00424108 f   Qt5Widgets:Qt5Widgets.dll
 0001:0002310e       ?mousePressEvent@QTreeView@@MAEXPAVQMouseEvent@@@Z 0042410e f   Qt5Widgets:Qt5Widgets.dll
 0001:00023114       ?mousePressEvent@QWidget@@MAEXPAVQMouseEvent@@@Z 00424114 f   Qt5Widgets:Qt5Widgets.dll
 0001:0002311a       ?mouseReleaseEvent@QAbstractButton@@MAEXPAVQMouseEvent@@@Z 0042411a f   Qt5Widgets:Qt5Widgets.dll
 0001:00023120       ?mouseReleaseEvent@QGroupBox@@MAEXPAVQMouseEvent@@@Z 00424120 f   Qt5Widgets:Qt5Widgets.dll
 0001:00023126       ?mouseReleaseEvent@QListView@@MAEXPAVQMouseEvent@@@Z 00424126 f   Qt5Widgets:Qt5Widgets.dll
 0001:0002312c       ?mouseReleaseEvent@QMenu@@MAEXPAVQMouseEvent@@@Z 0042412c f   Qt5Widgets:Qt5Widgets.dll
 0001:00023132       ?mouseReleaseEvent@QMenuBar@@MAEXPAVQMouseEvent@@@Z 00424132 f   Qt5Widgets:Qt5Widgets.dll
 0001:00023138       ?mouseReleaseEvent@QTextEdit@@MAEXPAVQMouseEvent@@@Z 00424138 f   Qt5Widgets:Qt5Widgets.dll
 0001:0002313e       ?mouseReleaseEvent@QTreeView@@MAEXPAVQMouseEvent@@@Z 0042413e f   Qt5Widgets:Qt5Widgets.dll
 0001:00023144       ?mouseReleaseEvent@QWidget@@MAEXPAVQMouseEvent@@@Z 00424144 f   Qt5Widgets:Qt5Widgets.dll
 0001:0002314a       ?moveCursor@QListView@@MAE?AVQModelIndex@@W4CursorAction@QAbstractItemView@@V?$QFlags@W4KeyboardModifier@Qt@@@@@Z 0042414a f   Qt5Widgets:Qt5Widgets.dll
 0001:00023150       ?moveCursor@QTreeView@@MAE?AVQModelIndex@@W4CursorAction@QAbstractItemView@@V?$QFlags@W4KeyboardModifier@Qt@@@@@Z 00424150 f   Qt5Widgets:Qt5Widgets.dll
 0001:00023156       ?moveEvent@QWidget@@MAEXPAVQMoveEvent@@@Z 00424156 f   Qt5Widgets:Qt5Widgets.dll
 0001:0002315c       ?nativeEvent@QWidget@@MAE_NABVQByteArray@@PAXPAJ@Z 0042415c f   Qt5Widgets:Qt5Widgets.dll
 0001:00023162       ?nextCheckState@QAbstractButton@@MAEXXZ 00424162 f   Qt5Widgets:Qt5Widgets.dll
 0001:00023168       ?paintEngine@QWidget@@UBEPAVQPaintEngine@@XZ 00424168 f   Qt5Widgets:Qt5Widgets.dll
 0001:0002316e       ?paintEvent@QFrame@@MAEXPAVQPaintEvent@@@Z 0042416e f   Qt5Widgets:Qt5Widgets.dll
 0001:00023174       ?paintEvent@QGroupBox@@MAEXPAVQPaintEvent@@@Z 00424174 f   Qt5Widgets:Qt5Widgets.dll
 0001:0002317a       ?paintEvent@QListView@@MAEXPAVQPaintEvent@@@Z 0042417a f   Qt5Widgets:Qt5Widgets.dll
 0001:00023180       ?paintEvent@QMenu@@MAEXPAVQPaintEvent@@@Z 00424180 f   Qt5Widgets:Qt5Widgets.dll
 0001:00023186       ?paintEvent@QMenuBar@@MAEXPAVQPaintEvent@@@Z 00424186 f   Qt5Widgets:Qt5Widgets.dll
 0001:0002318c       ?paintEvent@QPushButton@@MAEXPAVQPaintEvent@@@Z 0042418c f   Qt5Widgets:Qt5Widgets.dll
 0001:00023192       ?paintEvent@QStatusBar@@MAEXPAVQPaintEvent@@@Z 00424192 f   Qt5Widgets:Qt5Widgets.dll
 0001:00023198       ?paintEvent@QTextEdit@@MAEXPAVQPaintEvent@@@Z 00424198 f   Qt5Widgets:Qt5Widgets.dll
 0001:0002319e       ?paintEvent@QToolBar@@MAEXPAVQPaintEvent@@@Z 0042419e f   Qt5Widgets:Qt5Widgets.dll
 0001:000231a4       ?paintEvent@QTreeView@@MAEXPAVQPaintEvent@@@Z 004241a4 f   Qt5Widgets:Qt5Widgets.dll
 0001:000231aa       ?paintEvent@QWidget@@MAEXPAVQPaintEvent@@@Z 004241aa f   Qt5Widgets:Qt5Widgets.dll
 0001:000231b0       ?qt_metacall@QAction@@UAEHW4Call@QMetaObject@@HPAPAX@Z 004241b0 f   Qt5Widgets:Qt5Widgets.dll
 0001:000231b6       ?qt_metacall@QGroupBox@@UAEHW4Call@QMetaObject@@HPAPAX@Z 004241b6 f   Qt5Widgets:Qt5Widgets.dll
 0001:000231bc       ?qt_metacall@QHBoxLayout@@UAEHW4Call@QMetaObject@@HPAPAX@Z 004241bc f   Qt5Widgets:Qt5Widgets.dll
 0001:000231c2       ?qt_metacall@QListWidget@@UAEHW4Call@QMetaObject@@HPAPAX@Z 004241c2 f   Qt5Widgets:Qt5Widgets.dll
 0001:000231c8       ?qt_metacall@QMenu@@UAEHW4Call@QMetaObject@@HPAPAX@Z 004241c8 f   Qt5Widgets:Qt5Widgets.dll
 0001:000231ce       ?qt_metacall@QMenuBar@@UAEHW4Call@QMetaObject@@HPAPAX@Z 004241ce f   Qt5Widgets:Qt5Widgets.dll
 0001:000231d4       ?qt_metacall@QPushButton@@UAEHW4Call@QMetaObject@@HPAPAX@Z 004241d4 f   Qt5Widgets:Qt5Widgets.dll
 0001:000231da       ?qt_metacall@QSplitter@@UAEHW4Call@QMetaObject@@HPAPAX@Z 004241da f   Qt5Widgets:Qt5Widgets.dll
 0001:000231e0       ?qt_metacall@QStatusBar@@UAEHW4Call@QMetaObject@@HPAPAX@Z 004241e0 f   Qt5Widgets:Qt5Widgets.dll
 0001:000231e6       ?qt_metacall@QTextEdit@@UAEHW4Call@QMetaObject@@HPAPAX@Z 004241e6 f   Qt5Widgets:Qt5Widgets.dll
 0001:000231ec       ?qt_metacall@QToolBar@@UAEHW4Call@QMetaObject@@HPAPAX@Z 004241ec f   Qt5Widgets:Qt5Widgets.dll
 0001:000231f2       ?qt_metacall@QTreeWidget@@UAEHW4Call@QMetaObject@@HPAPAX@Z 004241f2 f   Qt5Widgets:Qt5Widgets.dll
 0001:000231f8       ?qt_metacall@QVBoxLayout@@UAEHW4Call@QMetaObject@@HPAPAX@Z 004241f8 f   Qt5Widgets:Qt5Widgets.dll
 0001:000231fe       ?qt_metacall@QWidget@@UAEHW4Call@QMetaObject@@HPAPAX@Z 004241fe f   Qt5Widgets:Qt5Widgets.dll
 0001:00023204       ?qt_metacast@QAction@@UAEPAXPBD@Z 00424204 f   Qt5Widgets:Qt5Widgets.dll
 0001:0002320a       ?qt_metacast@QGroupBox@@UAEPAXPBD@Z 0042420a f   Qt5Widgets:Qt5Widgets.dll
 0001:00023210       ?qt_metacast@QHBoxLayout@@UAEPAXPBD@Z 00424210 f   Qt5Widgets:Qt5Widgets.dll
 0001:00023216       ?qt_metacast@QListWidget@@UAEPAXPBD@Z 00424216 f   Qt5Widgets:Qt5Widgets.dll
 0001:0002321c       ?qt_metacast@QMenu@@UAEPAXPBD@Z 0042421c f   Qt5Widgets:Qt5Widgets.dll
 0001:00023222       ?qt_metacast@QMenuBar@@UAEPAXPBD@Z 00424222 f   Qt5Widgets:Qt5Widgets.dll
 0001:00023228       ?qt_metacast@QPushButton@@UAEPAXPBD@Z 00424228 f   Qt5Widgets:Qt5Widgets.dll
 0001:0002322e       ?qt_metacast@QSplitter@@UAEPAXPBD@Z 0042422e f   Qt5Widgets:Qt5Widgets.dll
 0001:00023234       ?qt_metacast@QStatusBar@@UAEPAXPBD@Z 00424234 f   Qt5Widgets:Qt5Widgets.dll
 0001:0002323a       ?qt_metacast@QTextEdit@@UAEPAXPBD@Z 0042423a f   Qt5Widgets:Qt5Widgets.dll
 0001:00023240       ?qt_metacast@QToolBar@@UAEPAXPBD@Z 00424240 f   Qt5Widgets:Qt5Widgets.dll
 0001:00023246       ?qt_metacast@QTreeWidget@@UAEPAXPBD@Z 00424246 f   Qt5Widgets:Qt5Widgets.dll
 0001:0002324c       ?qt_metacast@QVBoxLayout@@UAEPAXPBD@Z 0042424c f   Qt5Widgets:Qt5Widgets.dll
 0001:00023252       ?qt_metacast@QWidget@@UAEPAXPBD@Z 00424252 f   Qt5Widgets:Qt5Widgets.dll
 0001:00023258       ?read@QListWidgetItem@@UAEXAAVQDataStream@@@Z 00424258 f   Qt5Widgets:Qt5Widgets.dll
 0001:0002325e       ?redirected@QWidget@@MBEPAVQPaintDevice@@PAVQPoint@@@Z 0042425e f   Qt5Widgets:Qt5Widgets.dll
 0001:00023264       ?reset@QListView@@UAEXXZ   00424264 f   Qt5Widgets:Qt5Widgets.dll
 0001:0002326a       ?reset@QTreeView@@UAEXXZ   0042426a f   Qt5Widgets:Qt5Widgets.dll
 0001:00023270       ?resizeEvent@QAbstractItemView@@MAEXPAVQResizeEvent@@@Z 00424270 f   Qt5Widgets:Qt5Widgets.dll
 0001:00023276       ?resizeEvent@QGroupBox@@MAEXPAVQResizeEvent@@@Z 00424276 f   Qt5Widgets:Qt5Widgets.dll
 0001:0002327c       ?resizeEvent@QListView@@MAEXPAVQResizeEvent@@@Z 0042427c f   Qt5Widgets:Qt5Widgets.dll
 0001:00023282       ?resizeEvent@QMenuBar@@MAEXPAVQResizeEvent@@@Z 00424282 f   Qt5Widgets:Qt5Widgets.dll
 0001:00023288       ?resizeEvent@QSplitter@@MAEXPAVQResizeEvent@@@Z 00424288 f   Qt5Widgets:Qt5Widgets.dll
 0001:0002328e       ?resizeEvent@QStatusBar@@MAEXPAVQResizeEvent@@@Z 0042428e f   Qt5Widgets:Qt5Widgets.dll
 0001:00023294       ?resizeEvent@QTextEdit@@MAEXPAVQResizeEvent@@@Z 00424294 f   Qt5Widgets:Qt5Widgets.dll
 0001:0002329a       ?resizeEvent@QWidget@@MAEXPAVQResizeEvent@@@Z 0042429a f   Qt5Widgets:Qt5Widgets.dll
 0001:000232a0       ?rowsAboutToBeRemoved@QListView@@MAEXABVQModelIndex@@HH@Z 004242a0 f   Qt5Widgets:Qt5Widgets.dll
 0001:000232a6       ?rowsAboutToBeRemoved@QTreeView@@MAEXABVQModelIndex@@HH@Z 004242a6 f   Qt5Widgets:Qt5Widgets.dll
 0001:000232ac       ?rowsInserted@QListView@@MAEXABVQModelIndex@@HH@Z 004242ac f   Qt5Widgets:Qt5Widgets.dll
 0001:000232b2       ?rowsInserted@QTreeView@@MAEXABVQModelIndex@@HH@Z 004242b2 f   Qt5Widgets:Qt5Widgets.dll
 0001:000232b8       ?scrollContentsBy@QListView@@MAEXHH@Z 004242b8 f   Qt5Widgets:Qt5Widgets.dll
 0001:000232be       ?scrollContentsBy@QTextEdit@@MAEXHH@Z 004242be f   Qt5Widgets:Qt5Widgets.dll
 0001:000232c4       ?scrollContentsBy@QTreeView@@MAEXHH@Z 004242c4 f   Qt5Widgets:Qt5Widgets.dll
 0001:000232ca       ?scrollTo@QListView@@UAEXABVQModelIndex@@W4ScrollHint@QAbstractItemView@@@Z 004242ca f   Qt5Widgets:Qt5Widgets.dll
 0001:000232d0       ?scrollTo@QTreeView@@UAEXABVQModelIndex@@W4ScrollHint@QAbstractItemView@@@Z 004242d0 f   Qt5Widgets:Qt5Widgets.dll
 0001:000232d6       ?selectAll@QAbstractItemView@@UAEXXZ 004242d6 f   Qt5Widgets:Qt5Widgets.dll
 0001:000232dc       ?selectAll@QTreeView@@UAEXXZ 004242dc f   Qt5Widgets:Qt5Widgets.dll
 0001:000232e2       ?selectedIndexes@QListView@@MBE?AV?$QList@VQModelIndex@@@@XZ 004242e2 f   Qt5Widgets:Qt5Widgets.dll
 0001:000232e8       ?selectedIndexes@QTreeView@@MBE?AV?$QList@VQModelIndex@@@@XZ 004242e8 f   Qt5Widgets:Qt5Widgets.dll
 0001:000232ee       ?selectionChanged@QListView@@MAEXABVQItemSelection@@0@Z 004242ee f   Qt5Widgets:Qt5Widgets.dll
 0001:000232f4       ?selectionChanged@QTreeView@@MAEXABVQItemSelection@@0@Z 004242f4 f   Qt5Widgets:Qt5Widgets.dll
 0001:000232fa       ?selectionCommand@QAbstractItemView@@MBE?AV?$QFlags@W4SelectionFlag@QItemSelectionModel@@@@ABVQModelIndex@@PBVQEvent@@@Z 004242fa f   Qt5Widgets:Qt5Widgets.dll
 0001:00023300       ?setBackgroundColor@QListWidgetItem@@UAEXABVQColor@@@Z 00424300 f   Qt5Widgets:Qt5Widgets.dll
 0001:00023306       ?setData@QListWidgetItem@@UAEXHABVQVariant@@@Z 00424306 f   Qt5Widgets:Qt5Widgets.dll
 0001:0002330c       ?setGeometry@QBoxLayout@@UAEXABVQRect@@@Z 0042430c f   Qt5Widgets:Qt5Widgets.dll
 0001:00023312       ?setGeometry@QSpacerItem@@UAEXABVQRect@@@Z 00424312 f   Qt5Widgets:Qt5Widgets.dll
 0001:00023318       ?setModel@QListWidget@@EAEXPAVQAbstractItemModel@@@Z 00424318 f   Qt5Widgets:Qt5Widgets.dll
 0001:0002331e       ?setModel@QTreeWidget@@EAEXPAVQAbstractItemModel@@@Z 0042431e f   Qt5Widgets:Qt5Widgets.dll
 0001:00023324       ?setRootIndex@QListView@@UAEXABVQModelIndex@@@Z 00424324 f   Qt5Widgets:Qt5Widgets.dll
 0001:0002332a       ?setRootIndex@QTreeView@@UAEXABVQModelIndex@@@Z 0042432a f   Qt5Widgets:Qt5Widgets.dll
 0001:00023330       ?setSelection@QListView@@MAEXABVQRect@@V?$QFlags@W4SelectionFlag@QItemSelectionModel@@@@@Z 00424330 f   Qt5Widgets:Qt5Widgets.dll
 0001:00023336       ?setSelection@QTreeView@@MAEXABVQRect@@V?$QFlags@W4SelectionFlag@QItemSelectionModel@@@@@Z 00424336 f   Qt5Widgets:Qt5Widgets.dll
 0001:0002333c       ?setSelectionModel@QListWidget@@UAEXPAVQItemSelectionModel@@@Z 0042433c f   Qt5Widgets:Qt5Widgets.dll
 0001:00023342       ?setSelectionModel@QTreeWidget@@UAEXPAVQItemSelectionModel@@@Z 00424342 f   Qt5Widgets:Qt5Widgets.dll
 0001:00023348       ?setVisible@QMenuBar@@UAEX_N@Z 00424348 f   Qt5Widgets:Qt5Widgets.dll
 0001:0002334e       ?setVisible@QWidget@@UAEX_N@Z 0042434e f   Qt5Widgets:Qt5Widgets.dll
 0001:00023354       ?setupViewport@QAbstractScrollArea@@UAEXPAVQWidget@@@Z 00424354 f   Qt5Widgets:Qt5Widgets.dll
 0001:0002335a       ?sharedPainter@QWidget@@MBEPAVQPainter@@XZ 0042435a f   Qt5Widgets:Qt5Widgets.dll
 0001:00023360       ?showEvent@QStatusBar@@MAEXPAVQShowEvent@@@Z 00424360 f   Qt5Widgets:Qt5Widgets.dll
 0001:00023366       ?showEvent@QTextEdit@@MAEXPAVQShowEvent@@@Z 00424366 f   Qt5Widgets:Qt5Widgets.dll
 0001:0002336c       ?showEvent@QWidget@@MAEXPAVQShowEvent@@@Z 0042436c f   Qt5Widgets:Qt5Widgets.dll
 0001:00023372       ?sizeHint@QAbstractScrollArea@@UBE?AVQSize@@XZ 00424372 f   Qt5Widgets:Qt5Widgets.dll
 0001:00023378       ?sizeHint@QBoxLayout@@UBE?AVQSize@@XZ 00424378 f   Qt5Widgets:Qt5Widgets.dll
 0001:0002337e       ?sizeHint@QMenu@@UBE?AVQSize@@XZ 0042437e f   Qt5Widgets:Qt5Widgets.dll
 0001:00023384       ?sizeHint@QMenuBar@@UBE?AVQSize@@XZ 00424384 f   Qt5Widgets:Qt5Widgets.dll
 0001:0002338a       ?sizeHint@QPushButton@@UBE?AVQSize@@XZ 0042438a f   Qt5Widgets:Qt5Widgets.dll
 0001:00023390       ?sizeHint@QSpacerItem@@UBE?AVQSize@@XZ 00424390 f   Qt5Widgets:Qt5Widgets.dll
 0001:00023396       ?sizeHint@QSplitter@@UBE?AVQSize@@XZ 00424396 f   Qt5Widgets:Qt5Widgets.dll
 0001:0002339c       ?sizeHint@QWidget@@UBE?AVQSize@@XZ 0042439c f   Qt5Widgets:Qt5Widgets.dll
 0001:000233a2       ?sizeHintForColumn@QAbstractItemView@@UBEHH@Z 004243a2 f   Qt5Widgets:Qt5Widgets.dll
 0001:000233a8       ?sizeHintForColumn@QTreeView@@MBEHH@Z 004243a8 f   Qt5Widgets:Qt5Widgets.dll
 0001:000233ae       ?sizeHintForRow@QAbstractItemView@@UBEHH@Z 004243ae f   Qt5Widgets:Qt5Widgets.dll
 0001:000233b4       ?spacerItem@QLayoutItem@@UAEPAVQSpacerItem@@XZ 004243b4 f   Qt5Widgets:Qt5Widgets.dll
 0001:000233ba       ?spacerItem@QSpacerItem@@UAEPAV1@XZ 004243ba f   Qt5Widgets:Qt5Widgets.dll
 0001:000233c0       ?startDrag@QAbstractItemView@@MAEXV?$QFlags@W4DropAction@Qt@@@@@Z 004243c0 f   Qt5Widgets:Qt5Widgets.dll
 0001:000233c6       ?startDrag@QListView@@MAEXV?$QFlags@W4DropAction@Qt@@@@@Z 004243c6 f   Qt5Widgets:Qt5Widgets.dll
 0001:000233cc       ?supportedDropActions@QListWidget@@MBE?AV?$QFlags@W4DropAction@Qt@@@@XZ 004243cc f   Qt5Widgets:Qt5Widgets.dll
 0001:000233d2       ?supportedDropActions@QTreeWidget@@MBE?AV?$QFlags@W4DropAction@Qt@@@@XZ 004243d2 f   Qt5Widgets:Qt5Widgets.dll
 0001:000233d8       ?tabletEvent@QWidget@@MAEXPAVQTabletEvent@@@Z 004243d8 f   Qt5Widgets:Qt5Widgets.dll
 0001:000233de       ?takeAt@QBoxLayout@@UAEPAVQLayoutItem@@H@Z 004243de f   Qt5Widgets:Qt5Widgets.dll
 0001:000233e4       ?timerEvent@QAbstractButton@@MAEXPAVQTimerEvent@@@Z 004243e4 f   Qt5Widgets:Qt5Widgets.dll
 0001:000233ea       ?timerEvent@QListView@@MAEXPAVQTimerEvent@@@Z 004243ea f   Qt5Widgets:Qt5Widgets.dll
 0001:000233f0       ?timerEvent@QMenu@@MAEXPAVQTimerEvent@@@Z 004243f0 f   Qt5Widgets:Qt5Widgets.dll
 0001:000233f6       ?timerEvent@QMenuBar@@MAEXPAVQTimerEvent@@@Z 004243f6 f   Qt5Widgets:Qt5Widgets.dll
 0001:000233fc       ?timerEvent@QTextEdit@@MAEXPAVQTimerEvent@@@Z 004243fc f   Qt5Widgets:Qt5Widgets.dll
 0001:00023402       ?timerEvent@QTreeView@@MAEXPAVQTimerEvent@@@Z 00424402 f   Qt5Widgets:Qt5Widgets.dll
 0001:00023408       ?updateEditorData@QAbstractItemView@@MAEXXZ 00424408 f   Qt5Widgets:Qt5Widgets.dll
 0001:0002340e       ?updateEditorGeometries@QAbstractItemView@@MAEXXZ 0042440e f   Qt5Widgets:Qt5Widgets.dll
 0001:00023414       ?updateGeometries@QListView@@MAEXXZ 00424414 f   Qt5Widgets:Qt5Widgets.dll
 0001:0002341a       ?updateGeometries@QTreeView@@MAEXXZ 0042441a f   Qt5Widgets:Qt5Widgets.dll
 0001:00023420       ?verticalOffset@QListView@@MBEHXZ 00424420 f   Qt5Widgets:Qt5Widgets.dll
 0001:00023426       ?verticalOffset@QTreeView@@MBEHXZ 00424426 f   Qt5Widgets:Qt5Widgets.dll
 0001:0002342c       ?verticalScrollbarAction@QAbstractItemView@@MAEXH@Z 0042442c f   Qt5Widgets:Qt5Widgets.dll
 0001:00023432       ?verticalScrollbarValueChanged@QAbstractItemView@@MAEXH@Z 00424432 f   Qt5Widgets:Qt5Widgets.dll
 0001:00023438       ?viewOptions@QAbstractItemView@@MBE?AVQStyleOptionViewItem@@XZ 00424438 f   Qt5Widgets:Qt5Widgets.dll
 0001:0002343e       ?viewOptions@QListView@@MBE?AVQStyleOptionViewItem@@XZ 0042443e f   Qt5Widgets:Qt5Widgets.dll
 0001:00023444       ?viewportEvent@QAbstractItemView@@MAE_NPAVQEvent@@@Z 00424444 f   Qt5Widgets:Qt5Widgets.dll
 0001:0002344a       ?viewportEvent@QAbstractScrollArea@@MAE_NPAVQEvent@@@Z 0042444a f   Qt5Widgets:Qt5Widgets.dll
 0001:00023450       ?viewportEvent@QTreeView@@MAE_NPAVQEvent@@@Z 00424450 f   Qt5Widgets:Qt5Widgets.dll
 0001:00023456       ?viewportSizeHint@QAbstractScrollArea@@MBE?AVQSize@@XZ 00424456 f   Qt5Widgets:Qt5Widgets.dll
 0001:0002345c       ?viewportSizeHint@QListView@@MBE?AVQSize@@XZ 0042445c f   Qt5Widgets:Qt5Widgets.dll
 0001:00023462       ?viewportSizeHint@QTreeView@@MBE?AVQSize@@XZ 00424462 f   Qt5Widgets:Qt5Widgets.dll
 0001:00023468       ?visualRect@QListView@@UBE?AVQRect@@ABVQModelIndex@@@Z 00424468 f   Qt5Widgets:Qt5Widgets.dll
 0001:0002346e       ?visualRect@QTreeView@@UBE?AVQRect@@ABVQModelIndex@@@Z 0042446e f   Qt5Widgets:Qt5Widgets.dll
 0001:00023474       ?visualRegionForSelection@QListView@@MBE?AVQRegion@@ABVQItemSelection@@@Z 00424474 f   Qt5Widgets:Qt5Widgets.dll
 0001:0002347a       ?visualRegionForSelection@QTreeView@@MBE?AVQRegion@@ABVQItemSelection@@@Z 0042447a f   Qt5Widgets:Qt5Widgets.dll
 0001:00023480       ?wheelEvent@QAbstractScrollArea@@MAEXPAVQWheelEvent@@@Z 00424480 f   Qt5Widgets:Qt5Widgets.dll
 0001:00023486       ?wheelEvent@QListView@@MAEXPAVQWheelEvent@@@Z 00424486 f   Qt5Widgets:Qt5Widgets.dll
 0001:0002348c       ?wheelEvent@QMenu@@MAEXPAVQWheelEvent@@@Z 0042448c f   Qt5Widgets:Qt5Widgets.dll
 0001:00023492       ?wheelEvent@QTextEdit@@MAEXPAVQWheelEvent@@@Z 00424492 f   Qt5Widgets:Qt5Widgets.dll
 0001:00023498       ?wheelEvent@QWidget@@MAEXPAVQWheelEvent@@@Z 00424498 f   Qt5Widgets:Qt5Widgets.dll
 0001:0002349e       ?widget@QLayoutItem@@UAEPAVQWidget@@XZ 0042449e f   Qt5Widgets:Qt5Widgets.dll
 0001:000234a4       ?write@QListWidgetItem@@UBEXAAVQDataStream@@@Z 004244a4 f   Qt5Widgets:Qt5Widgets.dll
 0001:000234aa       ?accept@QDialog@@UAEXXZ    004244aa f   Qt5Widgets:Qt5Widgets.dll
 0001:000234b0       ?changeEvent@QLabel@@MAEXPAVQEvent@@@Z 004244b0 f   Qt5Widgets:Qt5Widgets.dll
 0001:000234b6       ?closeEvent@QDialog@@MAEXPAVQCloseEvent@@@Z 004244b6 f   Qt5Widgets:Qt5Widgets.dll
 0001:000234bc       ?contextMenuEvent@QDialog@@MAEXPAVQContextMenuEvent@@@Z 004244bc f   Qt5Widgets:Qt5Widgets.dll
 0001:000234c2       ?contextMenuEvent@QLabel@@MAEXPAVQContextMenuEvent@@@Z 004244c2 f   Qt5Widgets:Qt5Widgets.dll
 0001:000234c8       ?done@QDialog@@UAEXH@Z     004244c8 f   Qt5Widgets:Qt5Widgets.dll
 0001:000234ce       ?event@QLabel@@MAE_NPAVQEvent@@@Z 004244ce f   Qt5Widgets:Qt5Widgets.dll
 0001:000234d4       ?eventFilter@QDialog@@MAE_NPAVQObject@@PAVQEvent@@@Z 004244d4 f   Qt5Widgets:Qt5Widgets.dll
 0001:000234da       ?focusInEvent@QLabel@@MAEXPAVQFocusEvent@@@Z 004244da f   Qt5Widgets:Qt5Widgets.dll
 0001:000234e0       ?focusNextPrevChild@QLabel@@MAE_N_N@Z 004244e0 f   Qt5Widgets:Qt5Widgets.dll
 0001:000234e6       ?focusOutEvent@QLabel@@MAEXPAVQFocusEvent@@@Z 004244e6 f   Qt5Widgets:Qt5Widgets.dll
 0001:000234ec       ?heightForWidth@QLabel@@UBEHH@Z 004244ec f   Qt5Widgets:Qt5Widgets.dll
 0001:000234f2       ?keyPressEvent@QDialog@@MAEXPAVQKeyEvent@@@Z 004244f2 f   Qt5Widgets:Qt5Widgets.dll
 0001:000234f8       ?keyPressEvent@QLabel@@MAEXPAVQKeyEvent@@@Z 004244f8 f   Qt5Widgets:Qt5Widgets.dll
 0001:000234fe       ?metaObject@QLabel@@UBEPBUQMetaObject@@XZ 004244fe f   Qt5Widgets:Qt5Widgets.dll
 0001:00023504       ?minimumSizeHint@QDialog@@UBE?AVQSize@@XZ 00424504 f   Qt5Widgets:Qt5Widgets.dll
 0001:0002350a       ?minimumSizeHint@QLabel@@UBE?AVQSize@@XZ 0042450a f   Qt5Widgets:Qt5Widgets.dll
 0001:00023510       ?mouseMoveEvent@QLabel@@MAEXPAVQMouseEvent@@@Z 00424510 f   Qt5Widgets:Qt5Widgets.dll
 0001:00023516       ?mousePressEvent@QLabel@@MAEXPAVQMouseEvent@@@Z 00424516 f   Qt5Widgets:Qt5Widgets.dll
 0001:0002351c       ?mouseReleaseEvent@QLabel@@MAEXPAVQMouseEvent@@@Z 0042451c f   Qt5Widgets:Qt5Widgets.dll
 0001:00023522       ?open@QDialog@@UAEXXZ      00424522 f   Qt5Widgets:Qt5Widgets.dll
 0001:00023528       ?paintEvent@QLabel@@MAEXPAVQPaintEvent@@@Z 00424528 f   Qt5Widgets:Qt5Widgets.dll
 0001:0002352e       ?qt_metacall@QLabel@@UAEHW4Call@QMetaObject@@HPAPAX@Z 0042452e f   Qt5Widgets:Qt5Widgets.dll
 0001:00023534       ?qt_metacast@QLabel@@UAEPAXPBD@Z 00424534 f   Qt5Widgets:Qt5Widgets.dll
 0001:0002353a       ?reject@QDialog@@UAEXXZ    0042453a f   Qt5Widgets:Qt5Widgets.dll
 0001:00023540       ?resizeEvent@QDialog@@MAEXPAVQResizeEvent@@@Z 00424540 f   Qt5Widgets:Qt5Widgets.dll
 0001:00023546       ?setVisible@QDialog@@UAEX_N@Z 00424546 f   Qt5Widgets:Qt5Widgets.dll
 0001:0002354c       ?showEvent@QDialog@@MAEXPAVQShowEvent@@@Z 0042454c f   Qt5Widgets:Qt5Widgets.dll
 0001:00023552       ?sizeHint@QDialog@@UBE?AVQSize@@XZ 00424552 f   Qt5Widgets:Qt5Widgets.dll
 0001:00023558       ?sizeHint@QLabel@@UBE?AVQSize@@XZ 00424558 f   Qt5Widgets:Qt5Widgets.dll
 0001:0002355e       ?actionEvent@QToolButton@@MAEXPAVQActionEvent@@@Z 0042455e f   Qt5Widgets:Qt5Widgets.dll
 0001:00023564       ?changeEvent@QDialogButtonBox@@MAEXPAVQEvent@@@Z 00424564 f   Qt5Widgets:Qt5Widgets.dll
 0001:0002356a       ?changeEvent@QToolButton@@MAEXPAVQEvent@@@Z 0042456a f   Qt5Widgets:Qt5Widgets.dll
 0001:00023570       ?enterEvent@QToolButton@@MAEXPAVQEvent@@@Z 00424570 f   Qt5Widgets:Qt5Widgets.dll
 0001:00023576       ?event@QDialogButtonBox@@MAE_NPAVQEvent@@@Z 00424576 f   Qt5Widgets:Qt5Widgets.dll
 0001:0002357c       ?event@QToolButton@@MAE_NPAVQEvent@@@Z 0042457c f   Qt5Widgets:Qt5Widgets.dll
 0001:00023582       ?focusInEvent@QAbstractButton@@MAEXPAVQFocusEvent@@@Z 00424582 f   Qt5Widgets:Qt5Widgets.dll
 0001:00023588       ?focusOutEvent@QAbstractButton@@MAEXPAVQFocusEvent@@@Z 00424588 f   Qt5Widgets:Qt5Widgets.dll
 0001:0002358e       ?hitButton@QToolButton@@MBE_NABVQPoint@@@Z 0042458e f   Qt5Widgets:Qt5Widgets.dll
 0001:00023594       ?keyPressEvent@QAbstractButton@@MAEXPAVQKeyEvent@@@Z 00424594 f   Qt5Widgets:Qt5Widgets.dll
 0001:0002359a       ?leaveEvent@QToolButton@@MAEXPAVQEvent@@@Z 0042459a f   Qt5Widgets:Qt5Widgets.dll
 0001:000235a0       ?metaObject@QDialogButtonBox@@UBEPBUQMetaObject@@XZ 004245a0 f   Qt5Widgets:Qt5Widgets.dll
 0001:000235a6       ?metaObject@QToolButton@@UBEPBUQMetaObject@@XZ 004245a6 f   Qt5Widgets:Qt5Widgets.dll
 0001:000235ac       ?minimumSizeHint@QToolButton@@UBE?AVQSize@@XZ 004245ac f   Qt5Widgets:Qt5Widgets.dll
 0001:000235b2       ?mousePressEvent@QToolButton@@MAEXPAVQMouseEvent@@@Z 004245b2 f   Qt5Widgets:Qt5Widgets.dll
 0001:000235b8       ?mouseReleaseEvent@QToolButton@@MAEXPAVQMouseEvent@@@Z 004245b8 f   Qt5Widgets:Qt5Widgets.dll
 0001:000235be       ?nextCheckState@QToolButton@@MAEXXZ 004245be f   Qt5Widgets:Qt5Widgets.dll
 0001:000235c4       ?paintEvent@QToolButton@@MAEXPAVQPaintEvent@@@Z 004245c4 f   Qt5Widgets:Qt5Widgets.dll
 0001:000235ca       ?qt_metacall@QDialogButtonBox@@UAEHW4Call@QMetaObject@@HPAPAX@Z 004245ca f   Qt5Widgets:Qt5Widgets.dll
 0001:000235d0       ?qt_metacall@QToolButton@@UAEHW4Call@QMetaObject@@HPAPAX@Z 004245d0 f   Qt5Widgets:Qt5Widgets.dll
 0001:000235d6       ?qt_metacast@QDialogButtonBox@@UAEPAXPBD@Z 004245d6 f   Qt5Widgets:Qt5Widgets.dll
 0001:000235dc       ?qt_metacast@QToolButton@@UAEPAXPBD@Z 004245dc f   Qt5Widgets:Qt5Widgets.dll
 0001:000235e2       ?sizeHint@QToolButton@@UBE?AVQSize@@XZ 004245e2 f   Qt5Widgets:Qt5Widgets.dll
 0001:000235e8       ?timerEvent@QToolButton@@MAEXPAVQTimerEvent@@@Z 004245e8 f   Qt5Widgets:Qt5Widgets.dll
 0001:000235ee       ?metaObject@QDialog@@UBEPBUQMetaObject@@XZ 004245ee f   Qt5Widgets:Qt5Widgets.dll
 0001:00023600       _BNCS32ReceiveMessage      00424600 f   bncswm32:BncsWM32.obj
 0001:00023750       _BNCS32SendMessage         00424750 f   bncswm32:BncsWM32.obj
 0001:00023824       ??2@YAPAXI@Z               00424824 f   MSVCRT:MSVCR120.dll
 0001:0002382a       ??3@YAXPAX@Z               0042482a f   MSVCRT:MSVCR120.dll
 0001:00023830       @__security_check_cookie@4 00424830 f   MSVCRT:secchk.obj
 0001:0002383f       ??_Etype_info@@UAEPAXI@Z   0042483f f i MSVCRT:ti_inst.obj
 0001:0002388a       __purecall                 0042488a f   MSVCRT:MSVCR120.dll
 0001:00023890       ___atonexitinit            00424890 f   MSVCRT:atonexit.obj
 0001:000238cc       __onexit                   004248cc f   MSVCRT:atonexit.obj
 0001:00023975       _atexit                    00424975 f   MSVCRT:atonexit.obj
 0001:0002398a       __CxxThrowException@8      0042498a f   MSVCRT:MSVCR120.dll
 0001:00023990       ___CxxFrameHandler3        00424990 f   MSVCRT:MSVCR120.dll
 0001:00023996       _memcpy                    00424996 f   MSVCRT:MSVCR120.dll
 0001:000239a0       ??_V@YAXPAX@Z              004249a0 f   MSVCRT:MSVCR120.dll
 0001:000239a6       ??_U@YAPAXI@Z              004249a6 f   MSVCRT:MSVCR120.dll
 0001:000239ac       _memset                    004249ac f   MSVCRT:MSVCR120.dll
 0001:000239c0       __chkstk                   004249c0 f   MSVCRT:chkstk.obj
 0001:000239c0       __alloca_probe             004249c0 f   MSVCRT:chkstk.obj
 0001:00023aef       _WinMainCRTStartup         00424aef f   MSVCRT:crtexew.obj
 0001:00023cad       ___raise_securityfailure   00424cad f   MSVCRT:gs_report.obj
 0001:00023cea       ___report_gsfailure        00424cea f   MSVCRT:gs_report.obj
 0001:00023de5       ??_M@YGXPAXIHP6EX0@Z@Z     00424de5 f   MSVCRT:ehvecdtr.obj
 0001:00023e54       ?__ArrayUnwind@@YGXPAXIHP6EX0@Z@Z 00424e54 f   MSVCRT:ehvecdtr.obj
 0001:00023eb2       ??1type_info@@UAE@XZ       00424eb2 f   MSVCRT:MSVCR120.dll
 0001:00023eb8       __lock                     00424eb8 f   MSVCRT:MSVCR120.dll
 0001:00023ebe       __unlock                   00424ebe f   MSVCRT:MSVCR120.dll
 0001:00023ec4       ___dllonexit               00424ec4 f   MSVCRT:MSVCR120.dll
 0001:00023ed0       __SEH_prolog4              00424ed0 f   MSVCRT:sehprolg4.obj
 0001:00023f15       __SEH_epilog4              00424f15 f   MSVCRT:sehprolg4.obj
 0001:00023f29       __except_handler4          00424f29 f   MSVCRT:chandler4gs.obj
 0001:00023f4c       ?__CxxUnhandledExceptionFilter@@YGJPAU_EXCEPTION_POINTERS@@@Z 00424f4c f   MSVCRT:unhandld.obj
 0001:00023f8d       ___CxxSetUnhandledExceptionFilter 00424f8d f   MSVCRT:unhandld.obj
 0001:00023f9c       __XcptFilter               00424f9c f   MSVCRT:MSVCR120.dll
 0001:00023fa2       __amsg_exit                00424fa2 f   MSVCRT:MSVCR120.dll
 0001:00023fa8       __matherr                  00424fa8 f   MSVCRT:merr.obj
 0001:00023fa8       __setargv                  00424fa8 f   MSVCRT:dllargv.obj
 0001:00023fb0       __FindPESection            00424fb0 f   MSVCRT:pesect.obj
 0001:00024000       __IsNonwritableInCurrentImage 00425000 f   MSVCRT:pesect.obj
 0001:000240c0       __ValidateImageBase        004250c0 f   MSVCRT:pesect.obj
 0001:000240f1       ___security_init_cookie    004250f1 f   MSVCRT:gs_support.obj
 0001:0002418d       __RTC_Initialize           0042518d f   MSVCRT:initsect.obj
 0001:000241ad       __RTC_Terminate            004251ad f   MSVCRT:initsect.obj
 0001:000241cd       __setdefaultprecision      004251cd f   MSVCRT:fp8.obj
 0001:000241f4       __initterm_e               004251f4 f   MSVCRT:MSVCR120.dll
 0001:000241fa       __initterm                 004251fa f   MSVCRT:MSVCR120.dll
 0001:00024200       __crt_debugger_hook        00425200 f   MSVCRT:MSVCR120.dll
 0001:00024206       ___crtUnhandledException   00425206 f   MSVCRT:MSVCR120.dll
 0001:0002420c       ___crtTerminateProcess     0042520c f   MSVCRT:MSVCR120.dll
 0001:00024212       ?terminate@@YAXXZ          00425212 f   MSVCRT:MSVCR120.dll
 0001:00024218       __except_handler4_common   00425218 f   MSVCRT:MSVCR120.dll
 0001:0002421e       ___crtSetUnhandledExceptionFilter 0042521e f   MSVCRT:MSVCR120.dll
 0001:00024224       __invoke_watson            00425224 f   MSVCRT:MSVCR120.dll
 0001:0002422a       __controlfp_s              0042522a f   MSVCRT:MSVCR120.dll
 0001:00024230       _WinMain@16                00425230 f   qtmain:qtmain_win.obj
 0001:0002434e       _IsProcessorFeaturePresent@4 0042534e f   kernel32:KERNEL32.dll
 0002:00000000       __imp__RegOpenKeyExA@20    0042a000     advapi32:ADVAPI32.dll
 0002:00000004       __imp__RegCloseKey@4       0042a004     advapi32:ADVAPI32.dll
 0002:00000008       __imp__RegQueryValueExA@24 0042a008     advapi32:ADVAPI32.dll
 0002:0000000c       \177ADVAPI32_NULL_THUNK_DATA 0042a00c     advapi32:ADVAPI32.dll
 0002:00000010       __imp__BNCS32RxMessage     0042a010     bncsif32:BNCSIF32.dll
 0002:00000014       __imp__BNCS32TxMessage     0042a014     bncsif32:BNCSIF32.dll
 0002:00000018       \177BNCSIF32_NULL_THUNK_DATA 0042a018     bncsif32:BNCSIF32.dll
 0002:0000001c       __imp__WideCharToMultiByte@32 0042a01c     kernel32:KERNEL32.dll
 0002:00000020       __imp__CreateFileA@28      0042a020     kernel32:KERNEL32.dll
 0002:00000024       __imp__SetFilePointer@16   0042a024     kernel32:KERNEL32.dll
 0002:00000028       __imp__WriteFile@20        0042a028     kernel32:KERNEL32.dll
 0002:0000002c       __imp__OutputDebugStringA@4 0042a02c     kernel32:KERNEL32.dll
 0002:00000030       __imp__CloseHandle@4       0042a030     kernel32:KERNEL32.dll
 0002:00000034       __imp__GetLastError@0      0042a034     kernel32:KERNEL32.dll
 0002:00000038       __imp__GetSystemTime@4     0042a038     kernel32:KERNEL32.dll
 0002:0000003c       __imp__GetLocalTime@4      0042a03c     kernel32:KERNEL32.dll
 0002:00000040       __imp__FreeLibrary@4       0042a040     kernel32:KERNEL32.dll
 0002:00000044       __imp__GetProcAddress@8    0042a044     kernel32:KERNEL32.dll
 0002:00000048       __imp__LoadLibraryA@4      0042a048     kernel32:KERNEL32.dll
 0002:0000004c       __imp__GetPrivateProfileIntA@16 0042a04c     kernel32:KERNEL32.dll
 0002:00000050       __imp__GetPrivateProfileStringA@24 0042a050     kernel32:KERNEL32.dll
 0002:00000054       __imp__WritePrivateProfileStringA@16 0042a054     kernel32:KERNEL32.dll
 0002:00000058       __imp__GetWindowsDirectoryA@8 0042a058     kernel32:KERNEL32.dll
 0002:0000005c       __imp__GetModuleFileNameA@12 0042a05c     kernel32:KERNEL32.dll
 0002:00000060       __imp__GetModuleHandleA@4  0042a060     kernel32:KERNEL32.dll
 0002:00000064       __imp__GetSystemTimeAsFileTime@4 0042a064     kernel32:KERNEL32.dll
 0002:00000068       __imp__GetCurrentThreadId@0 0042a068     kernel32:KERNEL32.dll
 0002:0000006c       __imp__GetCurrentProcessId@0 0042a06c     kernel32:KERNEL32.dll
 0002:00000070       __imp__QueryPerformanceCounter@4 0042a070     kernel32:KERNEL32.dll
 0002:00000074       __imp__IsProcessorFeaturePresent@4 0042a074     kernel32:KERNEL32.dll
 0002:00000078       __imp__IsDebuggerPresent@0 0042a078     kernel32:KERNEL32.dll
 0002:0000007c       __imp__DecodePointer@4     0042a07c     kernel32:KERNEL32.dll
 0002:00000080       __imp__EncodePointer@4     0042a080     kernel32:KERNEL32.dll
 0002:00000084       __imp__LocalFree@4         0042a084     kernel32:KERNEL32.dll
 0002:00000088       __imp__GetCommandLineW@0   0042a088     kernel32:KERNEL32.dll
 0002:0000008c       __imp__lstrcpynA@12        0042a08c     kernel32:KERNEL32.dll
 0002:00000090       \177KERNEL32_NULL_THUNK_DATA 0042a090     kernel32:KERNEL32.dll
 0002:00000094       __imp_?_Xbad_alloc@std@@YAXXZ 0042a094     msvcprt:MSVCP120.dll
 0002:00000098       __imp_?_Winerror_map@std@@YAPBDH@Z 0042a098     msvcprt:MSVCP120.dll
 0002:0000009c       __imp_?_Syserror_map@std@@YAPBDH@Z 0042a09c     msvcprt:MSVCP120.dll
 0002:000000a0       __imp_?_Xout_of_range@std@@YAXPBD@Z 0042a0a0     msvcprt:MSVCP120.dll
 0002:000000a4       __imp_?_Xlength_error@std@@YAXPBD@Z 0042a0a4     msvcprt:MSVCP120.dll
 0002:000000a8       \177MSVCP120_NULL_THUNK_DATA 0042a0a8     msvcprt:MSVCP120.dll
 0002:000000ac       __imp_??_U@YAPAXI@Z        0042a0ac     MSVCRT:MSVCR120.dll
 0002:000000b0       __imp_??_V@YAXPAX@Z        0042a0b0     MSVCRT:MSVCR120.dll
 0002:000000b4       __imp__atoi                0042a0b4     MSVCRT:MSVCR120.dll
 0002:000000b8       __imp__memcpy              0042a0b8     MSVCRT:MSVCR120.dll
 0002:000000bc       __imp____CxxFrameHandler3  0042a0bc     MSVCRT:MSVCR120.dll
 0002:000000c0       __imp___CxxThrowException@8 0042a0c0     MSVCRT:MSVCR120.dll
 0002:000000c4       __imp__sprintf_s           0042a0c4     MSVCRT:MSVCR120.dll
 0002:000000c8       __imp__memmove             0042a0c8     MSVCRT:MSVCR120.dll
 0002:000000cc       __imp___purecall           0042a0cc     MSVCRT:MSVCR120.dll
 0002:000000d0       __imp___crt_debugger_hook  0042a0d0     MSVCRT:MSVCR120.dll
 0002:000000d4       __imp__sprintf             0042a0d4     MSVCRT:MSVCR120.dll
 0002:000000d8       __imp__fgets               0042a0d8     MSVCRT:MSVCR120.dll
 0002:000000dc       __imp___localtime64        0042a0dc     MSVCRT:MSVCR120.dll
 0002:000000e0       __imp__memset              0042a0e0     MSVCRT:MSVCR120.dll
 0002:000000e4       __imp__strtok              0042a0e4     MSVCRT:MSVCR120.dll
 0002:000000e8       __imp__strncpy             0042a0e8     MSVCRT:MSVCR120.dll
 0002:000000ec       __imp__malloc              0042a0ec     MSVCRT:MSVCR120.dll
 0002:000000f0       __imp__free                0042a0f0     MSVCRT:MSVCR120.dll
 0002:000000f4       __imp__strpbrk             0042a0f4     MSVCRT:MSVCR120.dll
 0002:000000f8       __imp_??3@YAXPAX@Z         0042a0f8     MSVCRT:MSVCR120.dll
 0002:000000fc       __imp_??2@YAPAXI@Z         0042a0fc     MSVCRT:MSVCR120.dll
 0002:00000100       __imp___except_handler4_common 0042a100     MSVCRT:MSVCR120.dll
 0002:00000104       __imp____crtSetUnhandledExceptionFilter 0042a104     MSVCRT:MSVCR120.dll
 0002:00000108       __imp____crtUnhandledException 0042a108     MSVCRT:MSVCR120.dll
 0002:0000010c       __imp____crtTerminateProcess 0042a10c     MSVCRT:MSVCR120.dll
 0002:00000110       __imp__fopen               0042a110     MSVCRT:MSVCR120.dll
 0002:00000114       __imp__fprintf             0042a114     MSVCRT:MSVCR120.dll
 0002:00000118       __imp__fclose              0042a118     MSVCRT:MSVCR120.dll
 0002:0000011c       __imp__tolower             0042a11c     MSVCRT:MSVCR120.dll
 0002:00000120       __imp__memchr              0042a120     MSVCRT:MSVCR120.dll
 0002:00000124       __imp__strchr              0042a124     MSVCRT:MSVCR120.dll
 0002:00000128       __imp__stricmp             0042a128     MSVCRT:MSVCR120.dll
 0002:00000128       __imp___stricmp            0042a128     MSVCRT:MSVCR120.dll
 0002:0000012c       __imp__getenv              0042a12c     MSVCRT:MSVCR120.dll
 0002:00000130       __imp__fputs               0042a130     MSVCRT:MSVCR120.dll
 0002:00000134       __imp__remove              0042a134     MSVCRT:MSVCR120.dll
 0002:00000138       __imp__rename              0042a138     MSVCRT:MSVCR120.dll
 0002:0000013c       __imp__strtoul             0042a13c     MSVCRT:MSVCR120.dll
 0002:00000140       __imp__sscanf              0042a140     MSVCRT:MSVCR120.dll
 0002:00000144       __imp_??1type_info@@UAE@XZ 0042a144     MSVCRT:MSVCR120.dll
 0002:00000148       __imp___lock               0042a148     MSVCRT:MSVCR120.dll
 0002:0000014c       __imp___unlock             0042a14c     MSVCRT:MSVCR120.dll
 0002:00000150       __imp___calloc_crt         0042a150     MSVCRT:MSVCR120.dll
 0002:00000154       __imp____dllonexit         0042a154     MSVCRT:MSVCR120.dll
 0002:00000158       __imp___onexit             0042a158     MSVCRT:MSVCR120.dll
 0002:0000015c       __imp___XcptFilter         0042a15c     MSVCRT:MSVCR120.dll
 0002:00000160       __imp____crtGetShowWindowMode 0042a160     MSVCRT:MSVCR120.dll
 0002:00000164       __imp___amsg_exit          0042a164     MSVCRT:MSVCR120.dll
 0002:00000168       __imp____getmainargs       0042a168     MSVCRT:MSVCR120.dll
 0002:0000016c       __imp____set_app_type      0042a16c     MSVCRT:MSVCR120.dll
 0002:00000170       __imp__exit                0042a170     MSVCRT:MSVCR120.dll
 0002:00000174       __imp___exit               0042a174     MSVCRT:MSVCR120.dll
 0002:00000178       __imp___cexit              0042a178     MSVCRT:MSVCR120.dll
 0002:0000017c       __imp___ismbblead          0042a17c     MSVCRT:MSVCR120.dll
 0002:00000180       __imp___configthreadlocale 0042a180     MSVCRT:MSVCR120.dll
 0002:00000184       __imp____setusermatherr    0042a184     MSVCRT:MSVCR120.dll
 0002:00000188       __imp___initterm_e         0042a188     MSVCRT:MSVCR120.dll
 0002:0000018c       __imp___initterm           0042a18c     MSVCRT:MSVCR120.dll
 0002:00000190       __imp___acmdln             0042a190     MSVCRT:MSVCR120.dll
 0002:00000194       __imp___fmode              0042a194     MSVCRT:MSVCR120.dll
 0002:00000198       __imp___commode            0042a198     MSVCRT:MSVCR120.dll
 0002:0000019c       __imp___time64             0042a19c     MSVCRT:MSVCR120.dll
 0002:000001a0       __imp___mkdir              0042a1a0     MSVCRT:MSVCR120.dll
 0002:000001a4       __imp___controlfp_s        0042a1a4     MSVCRT:MSVCR120.dll
 0002:000001a8       __imp___invoke_watson      0042a1a8     MSVCRT:MSVCR120.dll
 0002:000001ac       __imp_?terminate@@YAXXZ    0042a1ac     MSVCRT:MSVCR120.dll
 0002:000001b0       \177MSVCR120_NULL_THUNK_DATA 0042a1b0     MSVCRT:MSVCR120.dll
 0002:000001b4       __imp_??6QDebug@@QAEAAV0@H@Z 0042a1b4     Qt5Core:Qt5Core.dll
 0002:000001b8       __imp_??6QDebug@@QAEAAV0@I@Z 0042a1b8     Qt5Core:Qt5Core.dll
 0002:000001bc       __imp_??0QCryptographicHash@@QAE@W4Algorithm@0@@Z 0042a1bc     Qt5Core:Qt5Core.dll
 0002:000001c0       __imp_??1QCryptographicHash@@QAE@XZ 0042a1c0     Qt5Core:Qt5Core.dll
 0002:000001c4       __imp_?addData@QCryptographicHash@@QAEXPBDH@Z 0042a1c4     Qt5Core:Qt5Core.dll
 0002:000001c8       __imp_?result@QCryptographicHash@@QBE?AVQByteArray@@XZ 0042a1c8     Qt5Core:Qt5Core.dll
 0002:000001cc       __imp_?toInt@QString@@QBEHPA_NH@Z 0042a1cc     Qt5Core:Qt5Core.dll
 0002:000001d0       __imp_?simplified@QString@@QBE?AV1@XZ 0042a1d0     Qt5Core:Qt5Core.dll
 0002:000001d4       __imp_?indexOf@QString@@QBEHABV1@HW4CaseSensitivity@Qt@@@Z 0042a1d4     Qt5Core:Qt5Core.dll
 0002:000001d8       __imp_?fromStdString@QString@@SA?AV1@ABV?$basic_string@DU?$char_traits@D@std@@V?$allocator@D@2@@std@@@Z 0042a1d8     Qt5Core:Qt5Core.dll
 0002:000001dc       __imp_??YQString@@QAEAAV0@PBD@Z 0042a1dc     Qt5Core:Qt5Core.dll
 0002:000001e0       __imp_??1QByteArray@@QAE@XZ 0042a1e0     Qt5Core:Qt5Core.dll
 0002:000001e4       __imp_??BQByteArray@@QBEPBDXZ 0042a1e4     Qt5Core:Qt5Core.dll
 0002:000001e8       __imp_??0QString@@QAE@XZ   0042a1e8     Qt5Core:Qt5Core.dll
 0002:000001ec       __imp_??0QString@@QAE@ABV0@@Z 0042a1ec     Qt5Core:Qt5Core.dll
 0002:000001f0       __imp_??1QString@@QAE@XZ   0042a1f0     Qt5Core:Qt5Core.dll
 0002:000001f4       __imp_??4QString@@QAEAAV0@ABV0@@Z 0042a1f4     Qt5Core:Qt5Core.dll
 0002:000001f8       __imp_??0QString@@QAE@$$QAV0@@Z 0042a1f8     Qt5Core:Qt5Core.dll
 0002:000001fc       __imp_??4QString@@QAEAAV0@$$QAV0@@Z 0042a1fc     Qt5Core:Qt5Core.dll
 0002:00000200       __imp_?arg@QString@@QBE?AV1@ABV1@HVQChar@@@Z 0042a200     Qt5Core:Qt5Core.dll
 0002:00000204       __imp_?append@QString@@QAEAAV1@ABV1@@Z 0042a204     Qt5Core:Qt5Core.dll
 0002:00000208       __imp_?toLatin1@QString@@QBE?AVQByteArray@@XZ 0042a208     Qt5Core:Qt5Core.dll
 0002:0000020c       __imp_?fromUtf8@QString@@SA?AV1@PBDH@Z 0042a20c     Qt5Core:Qt5Core.dll
 0002:00000210       __imp_??4QString@@QAEAAV0@PBD@Z 0042a210     Qt5Core:Qt5Core.dll
 0002:00000214       __imp_?fromAscii_helper@QString@@CAPAU?$QTypedArrayData@G@@PBDH@Z 0042a214     Qt5Core:Qt5Core.dll
 0002:00000218       __imp_??1QDateTime@@QAE@XZ 0042a218     Qt5Core:Qt5Core.dll
 0002:0000021c       __imp_?toString@QDateTime@@QBE?AVQString@@ABV2@@Z 0042a21c     Qt5Core:Qt5Core.dll
 0002:00000220       __imp_?currentDateTime@QDateTime@@SA?AV1@XZ 0042a220     Qt5Core:Qt5Core.dll
 0002:00000224       __imp_??0QDir@@QAE@ABVQString@@@Z 0042a224     Qt5Core:Qt5Core.dll
 0002:00000228       __imp_??1QDir@@QAE@XZ      0042a228     Qt5Core:Qt5Core.dll
 0002:0000022c       __imp_?mkdir@QDir@@QBE_NABVQString@@@Z 0042a22c     Qt5Core:Qt5Core.dll
 0002:00000230       __imp_?exists@QDir@@QBE_NXZ 0042a230     Qt5Core:Qt5Core.dll
 0002:00000234       __imp_??0QMessageLogger@@QAE@PBDH0@Z 0042a234     Qt5Core:Qt5Core.dll
 0002:00000238       __imp_?debug@QMessageLogger@@QBAXPBDZZ 0042a238     Qt5Core:Qt5Core.dll
 0002:0000023c       __imp_?arg@QString@@QBE?AV1@HHHVQChar@@@Z 0042a23c     Qt5Core:Qt5Core.dll
 0002:00000240       __imp_?arg@QString@@QBE?AV1@IHHVQChar@@@Z 0042a240     Qt5Core:Qt5Core.dll
 0002:00000244       __imp_?split@QString@@QBE?AVQStringList@@VQChar@@W4SplitBehavior@1@W4CaseSensitivity@Qt@@@Z 0042a244     Qt5Core:Qt5Core.dll
 0002:00000248       __imp_?toUInt@QString@@QBEIPA_NH@Z 0042a248     Qt5Core:Qt5Core.dll
 0002:0000024c       __imp_?detach@QListData@@QAEPAUData@1@H@Z 0042a24c     Qt5Core:Qt5Core.dll
 0002:00000250       __imp_?dispose@QListData@@SAXPAUData@1@@Z 0042a250     Qt5Core:Qt5Core.dll
 0002:00000254       __imp_??1Connection@QMetaObject@@QAE@XZ 0042a254     Qt5Core:Qt5Core.dll
 0002:00000258       __imp_??8@YA_NABVQString@@0@Z 0042a258     Qt5Core:Qt5Core.dll
 0002:0000025c       __imp_?connect@QObject@@SA?AVConnection@QMetaObject@@PBV1@PBD01W4ConnectionType@Qt@@@Z 0042a25c     Qt5Core:Qt5Core.dll
 0002:00000260       __imp_?deleteLater@QObject@@QAEXXZ 0042a260     Qt5Core:Qt5Core.dll
 0002:00000264       __imp_?sender@QObject@@IBEPAV1@XZ 0042a264     Qt5Core:Qt5Core.dll
 0002:00000268       __imp_?childEvent@QObject@@MAEXPAVQChildEvent@@@Z 0042a268     Qt5Core:Qt5Core.dll
 0002:0000026c       __imp_?connectNotify@QObject@@MAEXABVQMetaMethod@@@Z 0042a26c     Qt5Core:Qt5Core.dll
 0002:00000270       __imp_?customEvent@QObject@@MAEXPAVQEvent@@@Z 0042a270     Qt5Core:Qt5Core.dll
 0002:00000274       __imp_?disconnectNotify@QObject@@MAEXABVQMetaMethod@@@Z 0042a274     Qt5Core:Qt5Core.dll
 0002:00000278       __imp_?event@QObject@@UAE_NPAVQEvent@@@Z 0042a278     Qt5Core:Qt5Core.dll
 0002:0000027c       __imp_?eventFilter@QObject@@UAE_NPAV1@PAVQEvent@@@Z 0042a27c     Qt5Core:Qt5Core.dll
 0002:00000280       __imp_?timerEvent@QObject@@MAEXPAVQTimerEvent@@@Z 0042a280     Qt5Core:Qt5Core.dll
 0002:00000284       __imp_?debug@QMessageLogger@@QBE?AVQDebug@@XZ 0042a284     Qt5Core:Qt5Core.dll
 0002:00000288       __imp_??0QByteArray@@QAE@XZ 0042a288     Qt5Core:Qt5Core.dll
 0002:0000028c       __imp_?constData@QString@@QBEPBVQChar@@XZ 0042a28c     Qt5Core:Qt5Core.dll
 0002:00000290       __imp_?arg@QString@@QBE?AV1@_KHHVQChar@@@Z 0042a290     Qt5Core:Qt5Core.dll
 0002:00000294       __imp_?arg@QString@@QBE?AV1@GHHVQChar@@@Z 0042a294     Qt5Core:Qt5Core.dll
 0002:00000298       __imp_?arg@QString@@QBE?AV1@VQChar@@H0@Z 0042a298     Qt5Core:Qt5Core.dll
 0002:0000029c       __imp_?right@QString@@QBE?AV1@H@Z 0042a29c     Qt5Core:Qt5Core.dll
 0002:000002a0       __imp_?startsWith@QString@@QBE_NABV1@W4CaseSensitivity@Qt@@@Z 0042a2a0     Qt5Core:Qt5Core.dll
 0002:000002a4       __imp_?toLower@QString@@QBE?AV1@XZ 0042a2a4     Qt5Core:Qt5Core.dll
 0002:000002a8       __imp_?toLocal8Bit@QString@@QBE?AVQByteArray@@XZ 0042a2a8     Qt5Core:Qt5Core.dll
 0002:000002ac       __imp_??8QString@@QBE_NPBD@Z 0042a2ac     Qt5Core:Qt5Core.dll
 0002:000002b0       __imp_?toStdString@QString@@QBE?AV?$basic_string@DU?$char_traits@D@std@@V?$allocator@D@2@@std@@XZ 0042a2b0     Qt5Core:Qt5Core.dll
 0002:000002b4       __imp_??BQCharRef@@QBE?AVQChar@@XZ 0042a2b4     Qt5Core:Qt5Core.dll
 0002:000002b8       __imp_?toLatin1@QCharRef@@QBEDXZ 0042a2b8     Qt5Core:Qt5Core.dll
 0002:000002bc       __imp_?detach_grow@QListData@@QAEPAUData@1@PAHH@Z 0042a2bc     Qt5Core:Qt5Core.dll
 0002:000002c0       __imp_?append@QListData@@QAEPAPAXXZ 0042a2c0     Qt5Core:Qt5Core.dll
 0002:000002c4       __imp_?QStringList_join@QtPrivate@@YA?AVQString@@PBVQStringList@@PBVQChar@@H@Z 0042a2c4     Qt5Core:Qt5Core.dll
 0002:000002c8       __imp_??0QObject@@QAE@PAV0@@Z 0042a2c8     Qt5Core:Qt5Core.dll
 0002:000002cc       __imp_??1QObject@@UAE@XZ   0042a2cc     Qt5Core:Qt5Core.dll
 0002:000002d0       __imp_?startTimer@QObject@@QAEHHW4TimerType@Qt@@@Z 0042a2d0     Qt5Core:Qt5Core.dll
 0002:000002d4       __imp_?read@QIODevice@@QAE_JPAD_J@Z 0042a2d4     Qt5Core:Qt5Core.dll
 0002:000002d8       __imp_?write@QIODevice@@QAE_JPBD_J@Z 0042a2d8     Qt5Core:Qt5Core.dll
 0002:000002dc       __imp_?write@QIODevice@@QAE_JPBD@Z 0042a2dc     Qt5Core:Qt5Core.dll
 0002:000002e0       __imp_?write@QIODevice@@QAE_JABVQByteArray@@@Z 0042a2e0     Qt5Core:Qt5Core.dll
 0002:000002e4       __imp_??1QVariant@@QAE@XZ  0042a2e4     Qt5Core:Qt5Core.dll
 0002:000002e8       __imp_??0QVariant@@QAE@_N@Z 0042a2e8     Qt5Core:Qt5Core.dll
 0002:000002ec       __imp_??1QDebug@@QAE@XZ    0042a2ec     Qt5Core:Qt5Core.dll
 0002:000002f0       __imp_??6QDebug@@QAEAAV0@PBD@Z 0042a2f0     Qt5Core:Qt5Core.dll
 0002:000002f4       __imp_??6QDebug@@QAEAAV0@ABVQString@@@Z 0042a2f4     Qt5Core:Qt5Core.dll
 0002:000002f8       __imp_?close@QFileDevice@@UAEXXZ 0042a2f8     Qt5Core:Qt5Core.dll
 0002:000002fc       __imp_??0QFile@@QAE@ABVQString@@@Z 0042a2fc     Qt5Core:Qt5Core.dll
 0002:00000300       __imp_??1QFile@@UAE@XZ     0042a300     Qt5Core:Qt5Core.dll
 0002:00000304       __imp_?fileName@QFile@@UBE?AVQString@@XZ 0042a304     Qt5Core:Qt5Core.dll
 0002:00000308       __imp_?open@QFile@@UAE_NV?$QFlags@W4OpenModeFlag@QIODevice@@@@@Z 0042a308     Qt5Core:Qt5Core.dll
 0002:0000030c       __imp_?open@QIODevice@@UAE_NV?$QFlags@W4OpenModeFlag@QIODevice@@@@@Z 0042a30c     Qt5Core:Qt5Core.dll
 0002:00000310       __imp_?pos@QIODevice@@UBE_JXZ 0042a310     Qt5Core:Qt5Core.dll
 0002:00000314       __imp_?reset@QIODevice@@UAE_NXZ 0042a314     Qt5Core:Qt5Core.dll
 0002:00000318       __imp_?seek@QIODevice@@UAE_N_J@Z 0042a318     Qt5Core:Qt5Core.dll
 0002:0000031c       __imp_?size@QIODevice@@UBE_JXZ 0042a31c     Qt5Core:Qt5Core.dll
 0002:00000320       __imp_?shared_null@QListData@@2UData@1@B 0042a320     Qt5Core:Qt5Core.dll
 0002:00000324       __imp_?dynamicMetaObject@QObjectData@@QBEPAUQMetaObject@@XZ 0042a324     Qt5Core:Qt5Core.dll
 0002:00000328       __imp_?normalizedType@QMetaObject@@SA?AVQByteArray@@PBD@Z 0042a328     Qt5Core:Qt5Core.dll
 0002:0000032c       __imp_?activate@QMetaObject@@SAXPAVQObject@@PBU1@HPAPAX@Z 0042a32c     Qt5Core:Qt5Core.dll
 0002:00000330       __imp_?registerNormalizedType@QMetaType@@SAHABVQByteArray@@P6AXPAX@ZP6APAX1PBX@ZHV?$QFlags@W4TypeFlag@QMetaType@@@@PBUQMetaObject@@@Z 0042a330     Qt5Core:Qt5Core.dll
 0002:00000334       __imp_?qt_metacast@QObject@@UAEPAXPBD@Z 0042a334     Qt5Core:Qt5Core.dll
 0002:00000338       __imp_?qt_metacall@QObject@@UAEHW4Call@QMetaObject@@HPAPAX@Z 0042a338     Qt5Core:Qt5Core.dll
 0002:0000033c       __imp_?staticMetaObject@QObject@@2UQMetaObject@@B 0042a33c     Qt5Core:Qt5Core.dll
 0002:00000340       __imp_?setLibraryPaths@QCoreApplication@@SAXABVQStringList@@@Z 0042a340     Qt5Core:Qt5Core.dll
 0002:00000344       __imp_?connectSlotsByName@QMetaObject@@SAXPAVQObject@@@Z 0042a344     Qt5Core:Qt5Core.dll
 0002:00000348       __imp_?data@QByteArray@@QAEPADXZ 0042a348     Qt5Core:Qt5Core.dll
 0002:0000034c       __imp_?constData@QByteArray@@QBEPBDXZ 0042a34c     Qt5Core:Qt5Core.dll
 0002:00000350       __imp_?toHex@QByteArray@@QBE?AV1@XZ 0042a350     Qt5Core:Qt5Core.dll
 0002:00000354       __imp_?arg@QString@@QBE?AV1@DHVQChar@@@Z 0042a354     Qt5Core:Qt5Core.dll
 0002:00000358       __imp_?replace@QString@@QAEAAV1@ABV1@0W4CaseSensitivity@Qt@@@Z 0042a358     Qt5Core:Qt5Core.dll
 0002:0000035c       __imp_?split@QString@@QBE?AVQStringList@@ABV1@W4SplitBehavior@1@W4CaseSensitivity@Qt@@@Z 0042a35c     Qt5Core:Qt5Core.dll
 0002:00000360       __imp_??M@YA_NABVQString@@0@Z 0042a360     Qt5Core:Qt5Core.dll
 0002:00000364       __imp_??9QString@@QBE_NPBD@Z 0042a364     Qt5Core:Qt5Core.dll
 0002:00000368       __imp_?objectName@QObject@@QBE?AVQString@@XZ 0042a368     Qt5Core:Qt5Core.dll
 0002:0000036c       __imp_?setObjectName@QObject@@QAEXABVQString@@@Z 0042a36c     Qt5Core:Qt5Core.dll
 0002:00000370       __imp_?killTimer@QObject@@QAEXH@Z 0042a370     Qt5Core:Qt5Core.dll
 0002:00000374       __imp_?arguments@QCoreApplication@@SA?AVQStringList@@XZ 0042a374     Qt5Core:Qt5Core.dll
 0002:00000378       __imp_?translate@QCoreApplication@@SA?AVQString@@PBD00H@Z 0042a378     Qt5Core:Qt5Core.dll
 0002:0000037c       __imp_??0QChar@@QAE@UQLatin1Char@@@Z 0042a37c     Qt5Core:Qt5Core.dll
 0002:00000380       __imp_??6QTextStream@@QAEAAV0@I@Z 0042a380     Qt5Core:Qt5Core.dll
 0002:00000384       __imp_?maybeSpace@QDebug@@QAEAAV1@XZ 0042a384     Qt5Core:Qt5Core.dll
 0002:00000388       \177Qt5Core_NULL_THUNK_DATA 0042a388     Qt5Core:Qt5Core.dll
 0002:0000038c       __imp_?setMaximumBlockCount@QTextDocument@@QAEXH@Z 0042a38c     Qt5Gui:Qt5Gui.dll
 0002:00000390       __imp_??1QPixmap@@UAE@XZ   0042a390     Qt5Gui:Qt5Gui.dll
 0002:00000394       __imp_??0QKeySequence@@QAE@ABVQString@@W4SequenceFormat@0@@Z 0042a394     Qt5Gui:Qt5Gui.dll
 0002:00000398       __imp_??1QKeySequence@@QAE@XZ 0042a398     Qt5Gui:Qt5Gui.dll
 0002:0000039c       __imp_??0QIcon@@QAE@ABVQPixmap@@@Z 0042a39c     Qt5Gui:Qt5Gui.dll
 0002:000003a0       __imp_??1QIcon@@QAE@XZ     0042a3a0     Qt5Gui:Qt5Gui.dll
 0002:000003a4       __imp_?clone@QTextDocument@@QBEPAV1@PAVQObject@@@Z 0042a3a4     Qt5Gui:Qt5Gui.dll
 0002:000003a8       __imp_?begin@QTextDocument@@QBE?AVQTextBlock@@XZ 0042a3a8     Qt5Gui:Qt5Gui.dll
 0002:000003ac       __imp_?end@QTextDocument@@QBE?AVQTextBlock@@XZ 0042a3ac     Qt5Gui:Qt5Gui.dll
 0002:000003b0       __imp_?text@QTextBlock@@QBE?AVQString@@XZ 0042a3b0     Qt5Gui:Qt5Gui.dll
 0002:000003b4       __imp_?next@QTextBlock@@QBE?AV1@XZ 0042a3b4     Qt5Gui:Qt5Gui.dll
 0002:000003b8       __imp_??0QPixmap@@QAE@QBQBD@Z 0042a3b8     Qt5Gui:Qt5Gui.dll
 0002:000003bc       \177Qt5Gui_NULL_THUNK_DATA 0042a3bc     Qt5Gui:Qt5Gui.dll
 0002:000003c0       __imp_??1QHostAddress@@QAE@XZ 0042a3c0     Qt5Network:Qt5Network.dll
 0002:000003c4       __imp_?isInSubnet@QHostAddress@@QBE_NABU?$QPair@VQHostAddress@@H@@@Z 0042a3c4     Qt5Network:Qt5Network.dll
 0002:000003c8       __imp_?parseSubnet@QHostAddress@@SA?AU?$QPair@VQHostAddress@@H@@ABVQString@@@Z 0042a3c8     Qt5Network:Qt5Network.dll
 0002:000003cc       __imp_??0QTcpServer@@QAE@PAVQObject@@@Z 0042a3cc     Qt5Network:Qt5Network.dll
 0002:000003d0       __imp_??1QTcpServer@@UAE@XZ 0042a3d0     Qt5Network:Qt5Network.dll
 0002:000003d4       __imp_?listen@QTcpServer@@QAE_NABVQHostAddress@@G@Z 0042a3d4     Qt5Network:Qt5Network.dll
 0002:000003d8       __imp_?errorString@QTcpServer@@QBE?AVQString@@XZ 0042a3d8     Qt5Network:Qt5Network.dll
 0002:000003dc       __imp_?setProxy@QTcpServer@@QAEXABVQNetworkProxy@@@Z 0042a3dc     Qt5Network:Qt5Network.dll
 0002:000003e0       __imp_??0QNetworkProxy@@QAE@W4ProxyType@0@ABVQString@@G11@Z 0042a3e0     Qt5Network:Qt5Network.dll
 0002:000003e4       __imp_??1QNetworkProxy@@QAE@XZ 0042a3e4     Qt5Network:Qt5Network.dll
 0002:000003e8       __imp_?hasPendingConnections@QTcpServer@@UBE_NXZ 0042a3e8     Qt5Network:Qt5Network.dll
 0002:000003ec       __imp_?nextPendingConnection@QTcpServer@@UAEPAVQTcpSocket@@XZ 0042a3ec     Qt5Network:Qt5Network.dll
 0002:000003f0       __imp_?localPort@QAbstractSocket@@QBEGXZ 0042a3f0     Qt5Network:Qt5Network.dll
 0002:000003f4       __imp_?peerPort@QAbstractSocket@@QBEGXZ 0042a3f4     Qt5Network:Qt5Network.dll
 0002:000003f8       __imp_?peerAddress@QAbstractSocket@@QBE?AVQHostAddress@@XZ 0042a3f8     Qt5Network:Qt5Network.dll
 0002:000003fc       __imp_??0QSslCertificate@@QAE@PAVQIODevice@@W4EncodingFormat@QSsl@@@Z 0042a3fc     Qt5Network:Qt5Network.dll
 0002:00000400       __imp_??1QSslCertificate@@QAE@XZ 0042a400     Qt5Network:Qt5Network.dll
 0002:00000404       __imp_?isNull@QSslCertificate@@QBE_NXZ 0042a404     Qt5Network:Qt5Network.dll
 0002:00000408       __imp_?issuerInfo@QSslCertificate@@QBE?AVQStringList@@W4SubjectInfo@1@@Z 0042a408     Qt5Network:Qt5Network.dll
 0002:0000040c       __imp_??0QSslError@@QAE@ABV0@@Z 0042a40c     Qt5Network:Qt5Network.dll
 0002:00000410       __imp_??1QSslError@@QAE@XZ 0042a410     Qt5Network:Qt5Network.dll
 0002:00000414       __imp_?errorString@QSslError@@QBE?AVQString@@XZ 0042a414     Qt5Network:Qt5Network.dll
 0002:00000418       __imp_??0QSslSocket@@QAE@PAVQObject@@@Z 0042a418     Qt5Network:Qt5Network.dll
 0002:0000041c       __imp_??1QSslSocket@@UAE@XZ 0042a41c     Qt5Network:Qt5Network.dll
 0002:00000420       __imp_?protocol@QSslSocket@@QBE?AW4SslProtocol@QSsl@@XZ 0042a420     Qt5Network:Qt5Network.dll
 0002:00000424       __imp_?setSslConfiguration@QSslSocket@@QAEXABVQSslConfiguration@@@Z 0042a424     Qt5Network:Qt5Network.dll
 0002:00000428       __imp_?localCertificate@QSslSocket@@QBE?AVQSslCertificate@@XZ 0042a428     Qt5Network:Qt5Network.dll
 0002:0000042c       __imp_?sessionCipher@QSslSocket@@QBE?AVQSslCipher@@XZ 0042a42c     Qt5Network:Qt5Network.dll
 0002:00000430       __imp_?privateKey@QSslSocket@@QBE?AVQSslKey@@XZ 0042a430     Qt5Network:Qt5Network.dll
 0002:00000434       __imp_?startServerEncryption@QSslSocket@@QAEXXZ 0042a434     Qt5Network:Qt5Network.dll
 0002:00000438       __imp_??0QHostAddress@@QAE@XZ 0042a438     Qt5Network:Qt5Network.dll
 0002:0000043c       __imp_??4QHostAddress@@QAEAAV0@$$QAV0@@Z 0042a43c     Qt5Network:Qt5Network.dll
 0002:00000440       __imp_??0QSslKey@@QAE@PAVQIODevice@@W4KeyAlgorithm@QSsl@@W4EncodingFormat@3@W4KeyType@3@ABVQByteArray@@@Z 0042a440     Qt5Network:Qt5Network.dll
 0002:00000444       __imp_??1QSslKey@@QAE@XZ   0042a444     Qt5Network:Qt5Network.dll
 0002:00000448       __imp_?isNull@QSslKey@@QBE_NXZ 0042a448     Qt5Network:Qt5Network.dll
 0002:0000044c       __imp_??0QSslConfiguration@@QAE@XZ 0042a44c     Qt5Network:Qt5Network.dll
 0002:00000450       __imp_??1QSslConfiguration@@QAE@XZ 0042a450     Qt5Network:Qt5Network.dll
 0002:00000454       __imp_?setProtocol@QSslConfiguration@@QAEXW4SslProtocol@QSsl@@@Z 0042a454     Qt5Network:Qt5Network.dll
 0002:00000458       __imp_?setPeerVerifyMode@QSslConfiguration@@QAEXW4PeerVerifyMode@QSslSocket@@@Z 0042a458     Qt5Network:Qt5Network.dll
 0002:0000045c       __imp_?setLocalCertificate@QSslConfiguration@@QAEXABVQSslCertificate@@@Z 0042a45c     Qt5Network:Qt5Network.dll
 0002:00000460       __imp_?setPrivateKey@QSslConfiguration@@QAEXABVQSslKey@@@Z 0042a460     Qt5Network:Qt5Network.dll
 0002:00000464       __imp_??1QSslCipher@@QAE@XZ 0042a464     Qt5Network:Qt5Network.dll
 0002:00000468       __imp_?name@QSslCipher@@QBE?AVQString@@XZ 0042a468     Qt5Network:Qt5Network.dll
 0002:0000046c       __imp_?atEnd@QSslSocket@@UBE_NXZ 0042a46c     Qt5Network:Qt5Network.dll
 0002:00000470       __imp_?bytesAvailable@QSslSocket@@UBE_JXZ 0042a470     Qt5Network:Qt5Network.dll
 0002:00000474       __imp_?bytesToWrite@QSslSocket@@UBE_JXZ 0042a474     Qt5Network:Qt5Network.dll
 0002:00000478       __imp_?canReadLine@QSslSocket@@UBE_NXZ 0042a478     Qt5Network:Qt5Network.dll
 0002:0000047c       __imp_?close@QSslSocket@@UAEXXZ 0042a47c     Qt5Network:Qt5Network.dll
 0002:00000480       __imp_?connectToHost@QAbstractSocket@@UAEXABVQHostAddress@@GV?$QFlags@W4OpenModeFlag@QIODevice@@@@@Z 0042a480     Qt5Network:Qt5Network.dll
 0002:00000484       __imp_?connectToHost@QSslSocket@@UAEXABVQString@@GV?$QFlags@W4OpenModeFlag@QIODevice@@@@W4NetworkLayerProtocol@QAbstractSocket@@@Z 0042a484     Qt5Network:Qt5Network.dll
 0002:00000488       __imp_?disconnectFromHost@QSslSocket@@UAEXXZ 0042a488     Qt5Network:Qt5Network.dll
 0002:0000048c       __imp_?isSequential@QAbstractSocket@@UBE_NXZ 0042a48c     Qt5Network:Qt5Network.dll
 0002:00000490       __imp_?metaObject@QSslSocket@@UBEPBUQMetaObject@@XZ 0042a490     Qt5Network:Qt5Network.dll
 0002:00000494       __imp_?qt_metacall@QSslSocket@@UAEHW4Call@QMetaObject@@HPAPAX@Z 0042a494     Qt5Network:Qt5Network.dll
 0002:00000498       __imp_?qt_metacast@QSslSocket@@UAEPAXPBD@Z 0042a498     Qt5Network:Qt5Network.dll
 0002:0000049c       __imp_?readData@QSslSocket@@MAE_JPAD_J@Z 0042a49c     Qt5Network:Qt5Network.dll
 0002:000004a0       __imp_?readLineData@QAbstractSocket@@MAE_JPAD_J@Z 0042a4a0     Qt5Network:Qt5Network.dll
 0002:000004a4       __imp_?resume@QSslSocket@@UAEXXZ 0042a4a4     Qt5Network:Qt5Network.dll
 0002:000004a8       __imp_?setReadBufferSize@QSslSocket@@UAEX_J@Z 0042a4a8     Qt5Network:Qt5Network.dll
 0002:000004ac       __imp_?setSocketDescriptor@QSslSocket@@UAE_NHW4SocketState@QAbstractSocket@@V?$QFlags@W4OpenModeFlag@QIODevice@@@@@Z 0042a4ac     Qt5Network:Qt5Network.dll
 0002:000004b0       __imp_?setSocketOption@QSslSocket@@UAEXW4SocketOption@QAbstractSocket@@ABVQVariant@@@Z 0042a4b0     Qt5Network:Qt5Network.dll
 0002:000004b4       __imp_?socketDescriptor@QAbstractSocket@@UBEHXZ 0042a4b4     Qt5Network:Qt5Network.dll
 0002:000004b8       __imp_?socketOption@QSslSocket@@UAE?AVQVariant@@W4SocketOption@QAbstractSocket@@@Z 0042a4b8     Qt5Network:Qt5Network.dll
 0002:000004bc       __imp_?waitForBytesWritten@QSslSocket@@UAE_NH@Z 0042a4bc     Qt5Network:Qt5Network.dll
 0002:000004c0       __imp_?waitForConnected@QSslSocket@@UAE_NH@Z 0042a4c0     Qt5Network:Qt5Network.dll
 0002:000004c4       __imp_?waitForDisconnected@QSslSocket@@UAE_NH@Z 0042a4c4     Qt5Network:Qt5Network.dll
 0002:000004c8       __imp_?waitForReadyRead@QSslSocket@@UAE_NH@Z 0042a4c8     Qt5Network:Qt5Network.dll
 0002:000004cc       __imp_?writeData@QSslSocket@@MAE_JPBD_J@Z 0042a4cc     Qt5Network:Qt5Network.dll
 0002:000004d0       __imp_?qt_metacast@QTcpServer@@UAEPAXPBD@Z 0042a4d0     Qt5Network:Qt5Network.dll
 0002:000004d4       __imp_?qt_metacall@QTcpServer@@UAEHW4Call@QMetaObject@@HPAPAX@Z 0042a4d4     Qt5Network:Qt5Network.dll
 0002:000004d8       __imp_?staticMetaObject@QTcpServer@@2UQMetaObject@@B 0042a4d8     Qt5Network:Qt5Network.dll
 0002:000004dc       __imp_?staticMetaObject@QAbstractSocket@@2UQMetaObject@@B 0042a4dc     Qt5Network:Qt5Network.dll
 0002:000004e0       __imp_??0QHostAddress@@QAE@ABVQString@@@Z 0042a4e0     Qt5Network:Qt5Network.dll
 0002:000004e4       __imp_?serverPort@QTcpServer@@QBEGXZ 0042a4e4     Qt5Network:Qt5Network.dll
 0002:000004e8       __imp_?setDefaultCiphers@QSslSocket@@SAXABV?$QList@VQSslCipher@@@@@Z 0042a4e8     Qt5Network:Qt5Network.dll
 0002:000004ec       __imp_??0QSslCipher@@QAE@ABVQString@@@Z 0042a4ec     Qt5Network:Qt5Network.dll
 0002:000004f0       __imp_??0QSslCipher@@QAE@ABV0@@Z 0042a4f0     Qt5Network:Qt5Network.dll
 0002:000004f4       __imp_?isNull@QSslCipher@@QBE_NXZ 0042a4f4     Qt5Network:Qt5Network.dll
 0002:000004f8       __imp_?isNull@QHostAddress@@QBE_NXZ 0042a4f8     Qt5Network:Qt5Network.dll
 0002:000004fc       __imp_?toString@QHostAddress@@QBE?AVQString@@XZ 0042a4fc     Qt5Network:Qt5Network.dll
 0002:00000500       \177Qt5Network_NULL_THUNK_DATA 0042a500     Qt5Network:Qt5Network.dll
 0002:00000504       __imp_?addItem@QBoxLayout@@UAEXPAVQLayoutItem@@@Z 0042a504     Qt5Widgets:Qt5Widgets.dll
 0002:00000508       __imp_?canInsertFromMimeData@QTextEdit@@MBE_NPBVQMimeData@@@Z 0042a508     Qt5Widgets:Qt5Widgets.dll
 0002:0000050c       __imp_?changeEvent@QAbstractButton@@MAEXPAVQEvent@@@Z 0042a50c     Qt5Widgets:Qt5Widgets.dll
 0002:00000510       __imp_?changeEvent@QFrame@@MAEXPAVQEvent@@@Z 0042a510     Qt5Widgets:Qt5Widgets.dll
 0002:00000514       __imp_?changeEvent@QGroupBox@@MAEXPAVQEvent@@@Z 0042a514     Qt5Widgets:Qt5Widgets.dll
 0002:00000518       __imp_?changeEvent@QMenu@@MAEXPAVQEvent@@@Z 0042a518     Qt5Widgets:Qt5Widgets.dll
 0002:0000051c       __imp_?changeEvent@QMenuBar@@MAEXPAVQEvent@@@Z 0042a51c     Qt5Widgets:Qt5Widgets.dll
 0002:00000520       __imp_?changeEvent@QSplitter@@MAEXPAVQEvent@@@Z 0042a520     Qt5Widgets:Qt5Widgets.dll
 0002:00000524       __imp_?changeEvent@QTextEdit@@MAEXPAVQEvent@@@Z 0042a524     Qt5Widgets:Qt5Widgets.dll
 0002:00000528       __imp_?changeEvent@QToolBar@@MAEXPAVQEvent@@@Z 0042a528     Qt5Widgets:Qt5Widgets.dll
 0002:0000052c       __imp_?changeEvent@QWidget@@MAEXPAVQEvent@@@Z 0042a52c     Qt5Widgets:Qt5Widgets.dll
 0002:00000530       __imp_?checkStateSet@QAbstractButton@@MAEXXZ 0042a530     Qt5Widgets:Qt5Widgets.dll
 0002:00000534       __imp_?childEvent@QGroupBox@@MAEXPAVQChildEvent@@@Z 0042a534     Qt5Widgets:Qt5Widgets.dll
 0002:00000538       __imp_?childEvent@QLayout@@MAEXPAVQChildEvent@@@Z 0042a538     Qt5Widgets:Qt5Widgets.dll
 0002:0000053c       __imp_?childEvent@QSplitter@@MAEXPAVQChildEvent@@@Z 0042a53c     Qt5Widgets:Qt5Widgets.dll
 0002:00000540       __imp_?clone@QListWidgetItem@@UBEPAV1@XZ 0042a540     Qt5Widgets:Qt5Widgets.dll
 0002:00000544       __imp_?closeEditor@QAbstractItemView@@MAEXPAVQWidget@@W4EndEditHint@QAbstractItemDelegate@@@Z 0042a544     Qt5Widgets:Qt5Widgets.dll
 0002:00000548       __imp_?closeEvent@QWidget@@MAEXPAVQCloseEvent@@@Z 0042a548     Qt5Widgets:Qt5Widgets.dll
 0002:0000054c       __imp_?commitData@QAbstractItemView@@MAEXPAVQWidget@@@Z 0042a54c     Qt5Widgets:Qt5Widgets.dll
 0002:00000550       __imp_?contextMenuEvent@QAbstractScrollArea@@MAEXPAVQContextMenuEvent@@@Z 0042a550     Qt5Widgets:Qt5Widgets.dll
 0002:00000554       __imp_?contextMenuEvent@QMainWindow@@MAEXPAVQContextMenuEvent@@@Z 0042a554     Qt5Widgets:Qt5Widgets.dll
 0002:00000558       __imp_?contextMenuEvent@QTextEdit@@MAEXPAVQContextMenuEvent@@@Z 0042a558     Qt5Widgets:Qt5Widgets.dll
 0002:0000055c       __imp_?contextMenuEvent@QWidget@@MAEXPAVQContextMenuEvent@@@Z 0042a55c     Qt5Widgets:Qt5Widgets.dll
 0002:00000560       __imp_?controlTypes@QLayout@@UBE?AV?$QFlags@W4ControlType@QSizePolicy@@@@XZ 0042a560     Qt5Widgets:Qt5Widgets.dll
 0002:00000564       __imp_?controlTypes@QLayoutItem@@UBE?AV?$QFlags@W4ControlType@QSizePolicy@@@@XZ 0042a564     Qt5Widgets:Qt5Widgets.dll
 0002:00000568       __imp_?count@QBoxLayout@@UBEHXZ 0042a568     Qt5Widgets:Qt5Widgets.dll
 0002:0000056c       __imp_?createHandle@QSplitter@@MAEPAVQSplitterHandle@@XZ 0042a56c     Qt5Widgets:Qt5Widgets.dll
 0002:00000570       __imp_?createMimeDataFromSelection@QTextEdit@@MBEPAVQMimeData@@XZ 0042a570     Qt5Widgets:Qt5Widgets.dll
 0002:00000574       __imp_?createPopupMenu@QMainWindow@@UAEPAVQMenu@@XZ 0042a574     Qt5Widgets:Qt5Widgets.dll
 0002:00000578       __imp_?currentChanged@QListView@@MAEXABVQModelIndex@@0@Z 0042a578     Qt5Widgets:Qt5Widgets.dll
 0002:0000057c       __imp_?currentChanged@QTreeView@@MAEXABVQModelIndex@@0@Z 0042a57c     Qt5Widgets:Qt5Widgets.dll
 0002:00000580       __imp_?data@QListWidgetItem@@UBE?AVQVariant@@H@Z 0042a580     Qt5Widgets:Qt5Widgets.dll
 0002:00000584       __imp_?dataChanged@QListView@@MAEXABVQModelIndex@@0ABV?$QVector@H@@@Z 0042a584     Qt5Widgets:Qt5Widgets.dll
 0002:00000588       __imp_?dataChanged@QTreeView@@UAEXABVQModelIndex@@0ABV?$QVector@H@@@Z 0042a588     Qt5Widgets:Qt5Widgets.dll
 0002:0000058c       __imp_?devType@QWidget@@UBEHXZ 0042a58c     Qt5Widgets:Qt5Widgets.dll
 0002:00000590       __imp_?doItemsLayout@QListView@@UAEXXZ 0042a590     Qt5Widgets:Qt5Widgets.dll
 0002:00000594       __imp_?doItemsLayout@QTreeView@@UAEXXZ 0042a594     Qt5Widgets:Qt5Widgets.dll
 0002:00000598       __imp_?doSetTextCursor@QTextEdit@@MAEXABVQTextCursor@@@Z 0042a598     Qt5Widgets:Qt5Widgets.dll
 0002:0000059c       __imp_?dragEnterEvent@QAbstractItemView@@MAEXPAVQDragEnterEvent@@@Z 0042a59c     Qt5Widgets:Qt5Widgets.dll
 0002:000005a0       __imp_?dragEnterEvent@QTextEdit@@MAEXPAVQDragEnterEvent@@@Z 0042a5a0     Qt5Widgets:Qt5Widgets.dll
 0002:000005a4       __imp_?dragEnterEvent@QWidget@@MAEXPAVQDragEnterEvent@@@Z 0042a5a4     Qt5Widgets:Qt5Widgets.dll
 0002:000005a8       __imp_?dragLeaveEvent@QAbstractItemView@@MAEXPAVQDragLeaveEvent@@@Z 0042a5a8     Qt5Widgets:Qt5Widgets.dll
 0002:000005ac       __imp_?dragLeaveEvent@QListView@@MAEXPAVQDragLeaveEvent@@@Z 0042a5ac     Qt5Widgets:Qt5Widgets.dll
 0002:000005b0       __imp_?dragLeaveEvent@QTextEdit@@MAEXPAVQDragLeaveEvent@@@Z 0042a5b0     Qt5Widgets:Qt5Widgets.dll
 0002:000005b4       __imp_?dragLeaveEvent@QWidget@@MAEXPAVQDragLeaveEvent@@@Z 0042a5b4     Qt5Widgets:Qt5Widgets.dll
 0002:000005b8       __imp_?dragMoveEvent@QListView@@MAEXPAVQDragMoveEvent@@@Z 0042a5b8     Qt5Widgets:Qt5Widgets.dll
 0002:000005bc       __imp_?dragMoveEvent@QTextEdit@@MAEXPAVQDragMoveEvent@@@Z 0042a5bc     Qt5Widgets:Qt5Widgets.dll
 0002:000005c0       __imp_?dragMoveEvent@QTreeView@@MAEXPAVQDragMoveEvent@@@Z 0042a5c0     Qt5Widgets:Qt5Widgets.dll
 0002:000005c4       __imp_?dragMoveEvent@QWidget@@MAEXPAVQDragMoveEvent@@@Z 0042a5c4     Qt5Widgets:Qt5Widgets.dll
 0002:000005c8       __imp_?drawBranches@QTreeView@@MBEXPAVQPainter@@ABVQRect@@ABVQModelIndex@@@Z 0042a5c8     Qt5Widgets:Qt5Widgets.dll
 0002:000005cc       __imp_?drawRow@QTreeView@@MBEXPAVQPainter@@ABVQStyleOptionViewItem@@ABVQModelIndex@@@Z 0042a5cc     Qt5Widgets:Qt5Widgets.dll
 0002:000005d0       __imp_?dropEvent@QListWidget@@UAEXPAVQDropEvent@@@Z 0042a5d0     Qt5Widgets:Qt5Widgets.dll
 0002:000005d4       __imp_?dropEvent@QTextEdit@@MAEXPAVQDropEvent@@@Z 0042a5d4     Qt5Widgets:Qt5Widgets.dll
 0002:000005d8       __imp_?dropEvent@QTreeWidget@@MAEXPAVQDropEvent@@@Z 0042a5d8     Qt5Widgets:Qt5Widgets.dll
 0002:000005dc       __imp_?dropEvent@QWidget@@MAEXPAVQDropEvent@@@Z 0042a5dc     Qt5Widgets:Qt5Widgets.dll
 0002:000005e0       __imp_?dropMimeData@QListWidget@@MAE_NHPBVQMimeData@@W4DropAction@Qt@@@Z 0042a5e0     Qt5Widgets:Qt5Widgets.dll
 0002:000005e4       __imp_?dropMimeData@QTreeWidget@@MAE_NPAVQTreeWidgetItem@@HPBVQMimeData@@W4DropAction@Qt@@@Z 0042a5e4     Qt5Widgets:Qt5Widgets.dll
 0002:000005e8       __imp_?edit@QAbstractItemView@@MAE_NABVQModelIndex@@W4EditTrigger@1@PAVQEvent@@@Z 0042a5e8     Qt5Widgets:Qt5Widgets.dll
 0002:000005ec       __imp_?editorDestroyed@QAbstractItemView@@MAEXPAVQObject@@@Z 0042a5ec     Qt5Widgets:Qt5Widgets.dll
 0002:000005f0       __imp_?enterEvent@QMenu@@MAEXPAVQEvent@@@Z 0042a5f0     Qt5Widgets:Qt5Widgets.dll
 0002:000005f4       __imp_?enterEvent@QWidget@@MAEXPAVQEvent@@@Z 0042a5f4     Qt5Widgets:Qt5Widgets.dll
 0002:000005f8       __imp_?event@QAction@@MAE_NPAVQEvent@@@Z 0042a5f8     Qt5Widgets:Qt5Widgets.dll
 0002:000005fc       __imp_?event@QGroupBox@@MAE_NPAVQEvent@@@Z 0042a5fc     Qt5Widgets:Qt5Widgets.dll
 0002:00000600       __imp_?event@QListWidget@@MAE_NPAVQEvent@@@Z 0042a600     Qt5Widgets:Qt5Widgets.dll
 0002:00000604       __imp_?event@QMainWindow@@MAE_NPAVQEvent@@@Z 0042a604     Qt5Widgets:Qt5Widgets.dll
 0002:00000608       __imp_?event@QMenu@@MAE_NPAVQEvent@@@Z 0042a608     Qt5Widgets:Qt5Widgets.dll
 0002:0000060c       __imp_?event@QMenuBar@@MAE_NPAVQEvent@@@Z 0042a60c     Qt5Widgets:Qt5Widgets.dll
 0002:00000610       __imp_?event@QPushButton@@MAE_NPAVQEvent@@@Z 0042a610     Qt5Widgets:Qt5Widgets.dll
 0002:00000614       __imp_?event@QSplitter@@MAE_NPAVQEvent@@@Z 0042a614     Qt5Widgets:Qt5Widgets.dll
 0002:00000618       __imp_?event@QStatusBar@@MAE_NPAVQEvent@@@Z 0042a618     Qt5Widgets:Qt5Widgets.dll
 0002:0000061c       __imp_?event@QTextEdit@@MAE_NPAVQEvent@@@Z 0042a61c     Qt5Widgets:Qt5Widgets.dll
 0002:00000620       __imp_?event@QToolBar@@MAE_NPAVQEvent@@@Z 0042a620     Qt5Widgets:Qt5Widgets.dll
 0002:00000624       __imp_?event@QTreeWidget@@MAE_NPAVQEvent@@@Z 0042a624     Qt5Widgets:Qt5Widgets.dll
 0002:00000628       __imp_?event@QWidget@@MAE_NPAVQEvent@@@Z 0042a628     Qt5Widgets:Qt5Widgets.dll
 0002:0000062c       __imp_?eventFilter@QAbstractScrollArea@@MAE_NPAVQObject@@PAVQEvent@@@Z 0042a62c     Qt5Widgets:Qt5Widgets.dll
 0002:00000630       __imp_?eventFilter@QMenuBar@@MAE_NPAVQObject@@PAVQEvent@@@Z 0042a630     Qt5Widgets:Qt5Widgets.dll
 0002:00000634       __imp_?expandingDirections@QBoxLayout@@UBE?AV?$QFlags@W4Orientation@Qt@@@@XZ 0042a634     Qt5Widgets:Qt5Widgets.dll
 0002:00000638       __imp_?expandingDirections@QSpacerItem@@UBE?AV?$QFlags@W4Orientation@Qt@@@@XZ 0042a638     Qt5Widgets:Qt5Widgets.dll
 0002:0000063c       __imp_?focusInEvent@QAbstractItemView@@MAEXPAVQFocusEvent@@@Z 0042a63c     Qt5Widgets:Qt5Widgets.dll
 0002:00000640       __imp_?focusInEvent@QGroupBox@@MAEXPAVQFocusEvent@@@Z 0042a640     Qt5Widgets:Qt5Widgets.dll
 0002:00000644       __imp_?focusInEvent@QMenuBar@@MAEXPAVQFocusEvent@@@Z 0042a644     Qt5Widgets:Qt5Widgets.dll
 0002:00000648       __imp_?focusInEvent@QPushButton@@MAEXPAVQFocusEvent@@@Z 0042a648     Qt5Widgets:Qt5Widgets.dll
 0002:0000064c       __imp_?focusInEvent@QTextEdit@@MAEXPAVQFocusEvent@@@Z 0042a64c     Qt5Widgets:Qt5Widgets.dll
 0002:00000650       __imp_?focusInEvent@QWidget@@MAEXPAVQFocusEvent@@@Z 0042a650     Qt5Widgets:Qt5Widgets.dll
 0002:00000654       __imp_?focusNextPrevChild@QAbstractItemView@@MAE_N_N@Z 0042a654     Qt5Widgets:Qt5Widgets.dll
 0002:00000658       __imp_?focusNextPrevChild@QMenu@@MAE_N_N@Z 0042a658     Qt5Widgets:Qt5Widgets.dll
 0002:0000065c       __imp_?focusNextPrevChild@QTextEdit@@MAE_N_N@Z 0042a65c     Qt5Widgets:Qt5Widgets.dll
 0002:00000660       __imp_?focusNextPrevChild@QWidget@@MAE_N_N@Z 0042a660     Qt5Widgets:Qt5Widgets.dll
 0002:00000664       __imp_?focusOutEvent@QAbstractItemView@@MAEXPAVQFocusEvent@@@Z 0042a664     Qt5Widgets:Qt5Widgets.dll
 0002:00000668       __imp_?focusOutEvent@QMenuBar@@MAEXPAVQFocusEvent@@@Z 0042a668     Qt5Widgets:Qt5Widgets.dll
 0002:0000066c       __imp_?focusOutEvent@QPushButton@@MAEXPAVQFocusEvent@@@Z 0042a66c     Qt5Widgets:Qt5Widgets.dll
 0002:00000670       __imp_?focusOutEvent@QTextEdit@@MAEXPAVQFocusEvent@@@Z 0042a670     Qt5Widgets:Qt5Widgets.dll
 0002:00000674       __imp_?focusOutEvent@QWidget@@MAEXPAVQFocusEvent@@@Z 0042a674     Qt5Widgets:Qt5Widgets.dll
 0002:00000678       __imp_?geometry@QLayout@@UBE?AVQRect@@XZ 0042a678     Qt5Widgets:Qt5Widgets.dll
 0002:0000067c       __imp_?geometry@QSpacerItem@@UBE?AVQRect@@XZ 0042a67c     Qt5Widgets:Qt5Widgets.dll
 0002:00000680       __imp_?hasHeightForWidth@QBoxLayout@@UBE_NXZ 0042a680     Qt5Widgets:Qt5Widgets.dll
 0002:00000684       __imp_?hasHeightForWidth@QLayoutItem@@UBE_NXZ 0042a684     Qt5Widgets:Qt5Widgets.dll
 0002:00000688       __imp_?hasHeightForWidth@QWidget@@UBE_NXZ 0042a688     Qt5Widgets:Qt5Widgets.dll
 0002:0000068c       __imp_?heightForWidth@QBoxLayout@@UBEHH@Z 0042a68c     Qt5Widgets:Qt5Widgets.dll
 0002:00000690       __imp_?heightForWidth@QLayoutItem@@UBEHH@Z 0042a690     Qt5Widgets:Qt5Widgets.dll
 0002:00000694       __imp_?heightForWidth@QMenuBar@@UBEHH@Z 0042a694     Qt5Widgets:Qt5Widgets.dll
 0002:00000698       __imp_?heightForWidth@QWidget@@UBEHH@Z 0042a698     Qt5Widgets:Qt5Widgets.dll
 0002:0000069c       __imp_?qt_metacall@QMainWindow@@UAEHW4Call@QMetaObject@@HPAPAX@Z 0042a69c     Qt5Widgets:Qt5Widgets.dll
 0002:000006a0       __imp_?hideEvent@QWidget@@MAEXPAVQHideEvent@@@Z 0042a6a0     Qt5Widgets:Qt5Widgets.dll
 0002:000006a4       __imp_?hitButton@QAbstractButton@@MBE_NABVQPoint@@@Z 0042a6a4     Qt5Widgets:Qt5Widgets.dll
 0002:000006a8       __imp_?horizontalOffset@QListView@@MBEHXZ 0042a6a8     Qt5Widgets:Qt5Widgets.dll
 0002:000006ac       __imp_?horizontalOffset@QTreeView@@MBEHXZ 0042a6ac     Qt5Widgets:Qt5Widgets.dll
 0002:000006b0       __imp_?horizontalScrollbarAction@QAbstractItemView@@MAEXH@Z 0042a6b0     Qt5Widgets:Qt5Widgets.dll
 0002:000006b4       __imp_?horizontalScrollbarAction@QTreeView@@MAEXH@Z 0042a6b4     Qt5Widgets:Qt5Widgets.dll
 0002:000006b8       __imp_?horizontalScrollbarValueChanged@QAbstractItemView@@MAEXH@Z 0042a6b8     Qt5Widgets:Qt5Widgets.dll
 0002:000006bc       __imp_?indexAt@QListView@@UBE?AVQModelIndex@@ABVQPoint@@@Z 0042a6bc     Qt5Widgets:Qt5Widgets.dll
 0002:000006c0       __imp_?indexAt@QTreeView@@UBE?AVQModelIndex@@ABVQPoint@@@Z 0042a6c0     Qt5Widgets:Qt5Widgets.dll
 0002:000006c4       __imp_?indexOf@QLayout@@UBEHPAVQWidget@@@Z 0042a6c4     Qt5Widgets:Qt5Widgets.dll
 0002:000006c8       __imp_?qt_metacast@QMainWindow@@UAEPAXPBD@Z 0042a6c8     Qt5Widgets:Qt5Widgets.dll
 0002:000006cc       __imp_?inputMethodEvent@QAbstractItemView@@MAEXPAVQInputMethodEvent@@@Z 0042a6cc     Qt5Widgets:Qt5Widgets.dll
 0002:000006d0       __imp_?inputMethodEvent@QTextEdit@@MAEXPAVQInputMethodEvent@@@Z 0042a6d0     Qt5Widgets:Qt5Widgets.dll
 0002:000006d4       __imp_?inputMethodEvent@QWidget@@MAEXPAVQInputMethodEvent@@@Z 0042a6d4     Qt5Widgets:Qt5Widgets.dll
 0002:000006d8       __imp_?inputMethodQuery@QAbstractItemView@@UBE?AVQVariant@@W4InputMethodQuery@Qt@@@Z 0042a6d8     Qt5Widgets:Qt5Widgets.dll
 0002:000006dc       __imp_?inputMethodQuery@QTextEdit@@UBE?AVQVariant@@W4InputMethodQuery@Qt@@@Z 0042a6dc     Qt5Widgets:Qt5Widgets.dll
 0002:000006e0       __imp_?inputMethodQuery@QWidget@@UBE?AVQVariant@@W4InputMethodQuery@Qt@@@Z 0042a6e0     Qt5Widgets:Qt5Widgets.dll
 0002:000006e4       __imp_?insertFromMimeData@QTextEdit@@MAEXPBVQMimeData@@@Z 0042a6e4     Qt5Widgets:Qt5Widgets.dll
 0002:000006e8       __imp_?invalidate@QBoxLayout@@UAEXXZ 0042a6e8     Qt5Widgets:Qt5Widgets.dll
 0002:000006ec       __imp_?invalidate@QLayoutItem@@UAEXXZ 0042a6ec     Qt5Widgets:Qt5Widgets.dll
 0002:000006f0       __imp_?isEmpty@QLayout@@UBE_NXZ 0042a6f0     Qt5Widgets:Qt5Widgets.dll
 0002:000006f4       __imp_?isEmpty@QSpacerItem@@UBE_NXZ 0042a6f4     Qt5Widgets:Qt5Widgets.dll
 0002:000006f8       __imp_?isIndexHidden@QListView@@MBE_NABVQModelIndex@@@Z 0042a6f8     Qt5Widgets:Qt5Widgets.dll
 0002:000006fc       __imp_?isIndexHidden@QTreeView@@MBE_NABVQModelIndex@@@Z 0042a6fc     Qt5Widgets:Qt5Widgets.dll
 0002:00000700       __imp_?itemAt@QBoxLayout@@UBEPAVQLayoutItem@@H@Z 0042a700     Qt5Widgets:Qt5Widgets.dll
 0002:00000704       __imp_?keyPressEvent@QAbstractItemView@@MAEXPAVQKeyEvent@@@Z 0042a704     Qt5Widgets:Qt5Widgets.dll
 0002:00000708       __imp_?keyPressEvent@QMenu@@MAEXPAVQKeyEvent@@@Z 0042a708     Qt5Widgets:Qt5Widgets.dll
 0002:0000070c       __imp_?keyPressEvent@QMenuBar@@MAEXPAVQKeyEvent@@@Z 0042a70c     Qt5Widgets:Qt5Widgets.dll
 0002:00000710       __imp_?keyPressEvent@QPushButton@@MAEXPAVQKeyEvent@@@Z 0042a710     Qt5Widgets:Qt5Widgets.dll
 0002:00000714       __imp_?keyPressEvent@QTextEdit@@MAEXPAVQKeyEvent@@@Z 0042a714     Qt5Widgets:Qt5Widgets.dll
 0002:00000718       __imp_?keyPressEvent@QTreeView@@MAEXPAVQKeyEvent@@@Z 0042a718     Qt5Widgets:Qt5Widgets.dll
 0002:0000071c       __imp_?keyPressEvent@QWidget@@MAEXPAVQKeyEvent@@@Z 0042a71c     Qt5Widgets:Qt5Widgets.dll
 0002:00000720       __imp_?keyReleaseEvent@QAbstractButton@@MAEXPAVQKeyEvent@@@Z 0042a720     Qt5Widgets:Qt5Widgets.dll
 0002:00000724       __imp_?keyReleaseEvent@QTextEdit@@MAEXPAVQKeyEvent@@@Z 0042a724     Qt5Widgets:Qt5Widgets.dll
 0002:00000728       __imp_?keyReleaseEvent@QWidget@@MAEXPAVQKeyEvent@@@Z 0042a728     Qt5Widgets:Qt5Widgets.dll
 0002:0000072c       __imp_?keyboardSearch@QAbstractItemView@@UAEXABVQString@@@Z 0042a72c     Qt5Widgets:Qt5Widgets.dll
 0002:00000730       __imp_?keyboardSearch@QTreeView@@UAEXABVQString@@@Z 0042a730     Qt5Widgets:Qt5Widgets.dll
 0002:00000734       __imp_?layout@QLayout@@UAEPAV1@XZ 0042a734     Qt5Widgets:Qt5Widgets.dll
 0002:00000738       __imp_?layout@QLayoutItem@@UAEPAVQLayout@@XZ 0042a738     Qt5Widgets:Qt5Widgets.dll
 0002:0000073c       __imp_?leaveEvent@QMenu@@MAEXPAVQEvent@@@Z 0042a73c     Qt5Widgets:Qt5Widgets.dll
 0002:00000740       __imp_?leaveEvent@QMenuBar@@MAEXPAVQEvent@@@Z 0042a740     Qt5Widgets:Qt5Widgets.dll
 0002:00000744       __imp_?leaveEvent@QWidget@@MAEXPAVQEvent@@@Z 0042a744     Qt5Widgets:Qt5Widgets.dll
 0002:00000748       __imp_?loadResource@QTextEdit@@UAE?AVQVariant@@HABVQUrl@@@Z 0042a748     Qt5Widgets:Qt5Widgets.dll
 0002:0000074c       __imp_?maximumSize@QBoxLayout@@UBE?AVQSize@@XZ 0042a74c     Qt5Widgets:Qt5Widgets.dll
 0002:00000750       __imp_?maximumSize@QSpacerItem@@UBE?AVQSize@@XZ 0042a750     Qt5Widgets:Qt5Widgets.dll
 0002:00000754       __imp_?metaObject@QAction@@UBEPBUQMetaObject@@XZ 0042a754     Qt5Widgets:Qt5Widgets.dll
 0002:00000758       __imp_?metaObject@QGroupBox@@UBEPBUQMetaObject@@XZ 0042a758     Qt5Widgets:Qt5Widgets.dll
 0002:0000075c       __imp_?metaObject@QHBoxLayout@@UBEPBUQMetaObject@@XZ 0042a75c     Qt5Widgets:Qt5Widgets.dll
 0002:00000760       __imp_?metaObject@QListWidget@@UBEPBUQMetaObject@@XZ 0042a760     Qt5Widgets:Qt5Widgets.dll
 0002:00000764       __imp_?metaObject@QMenu@@UBEPBUQMetaObject@@XZ 0042a764     Qt5Widgets:Qt5Widgets.dll
 0002:00000768       __imp_?metaObject@QMenuBar@@UBEPBUQMetaObject@@XZ 0042a768     Qt5Widgets:Qt5Widgets.dll
 0002:0000076c       __imp_?metaObject@QPushButton@@UBEPBUQMetaObject@@XZ 0042a76c     Qt5Widgets:Qt5Widgets.dll
 0002:00000770       __imp_?metaObject@QSplitter@@UBEPBUQMetaObject@@XZ 0042a770     Qt5Widgets:Qt5Widgets.dll
 0002:00000774       __imp_?metaObject@QStatusBar@@UBEPBUQMetaObject@@XZ 0042a774     Qt5Widgets:Qt5Widgets.dll
 0002:00000778       __imp_?write@QTreeWidgetItem@@UBEXAAVQDataStream@@@Z 0042a778     Qt5Widgets:Qt5Widgets.dll
 0002:0000077c       __imp_?metaObject@QToolBar@@UBEPBUQMetaObject@@XZ 0042a77c     Qt5Widgets:Qt5Widgets.dll
 0002:00000780       __imp_?metaObject@QTreeWidget@@UBEPBUQMetaObject@@XZ 0042a780     Qt5Widgets:Qt5Widgets.dll
 0002:00000784       __imp_?metaObject@QVBoxLayout@@UBEPBUQMetaObject@@XZ 0042a784     Qt5Widgets:Qt5Widgets.dll
 0002:00000788       __imp_?metaObject@QWidget@@UBEPBUQMetaObject@@XZ 0042a788     Qt5Widgets:Qt5Widgets.dll
 0002:0000078c       __imp_?metric@QWidget@@MBEHW4PaintDeviceMetric@QPaintDevice@@@Z 0042a78c     Qt5Widgets:Qt5Widgets.dll
 0002:00000790       __imp_?mimeData@QListWidget@@MBEPAVQMimeData@@V?$QList@PAVQListWidgetItem@@@@@Z 0042a790     Qt5Widgets:Qt5Widgets.dll
 0002:00000794       __imp_?mimeData@QTreeWidget@@MBEPAVQMimeData@@V?$QList@PAVQTreeWidgetItem@@@@@Z 0042a794     Qt5Widgets:Qt5Widgets.dll
 0002:00000798       __imp_?mimeTypes@QListWidget@@MBE?AVQStringList@@XZ 0042a798     Qt5Widgets:Qt5Widgets.dll
 0002:0000079c       __imp_?mimeTypes@QTreeWidget@@MBE?AVQStringList@@XZ 0042a79c     Qt5Widgets:Qt5Widgets.dll
 0002:000007a0       __imp_?minimumHeightForWidth@QBoxLayout@@UBEHH@Z 0042a7a0     Qt5Widgets:Qt5Widgets.dll
 0002:000007a4       __imp_?minimumHeightForWidth@QLayoutItem@@UBEHH@Z 0042a7a4     Qt5Widgets:Qt5Widgets.dll
 0002:000007a8       __imp_?minimumSize@QBoxLayout@@UBE?AVQSize@@XZ 0042a7a8     Qt5Widgets:Qt5Widgets.dll
 0002:000007ac       __imp_?minimumSize@QSpacerItem@@UBE?AVQSize@@XZ 0042a7ac     Qt5Widgets:Qt5Widgets.dll
 0002:000007b0       __imp_?minimumSizeHint@QAbstractScrollArea@@UBE?AVQSize@@XZ 0042a7b0     Qt5Widgets:Qt5Widgets.dll
 0002:000007b4       __imp_?minimumSizeHint@QGroupBox@@UBE?AVQSize@@XZ 0042a7b4     Qt5Widgets:Qt5Widgets.dll
 0002:000007b8       __imp_?minimumSizeHint@QMenuBar@@UBE?AVQSize@@XZ 0042a7b8     Qt5Widgets:Qt5Widgets.dll
 0002:000007bc       __imp_?minimumSizeHint@QPushButton@@UBE?AVQSize@@XZ 0042a7bc     Qt5Widgets:Qt5Widgets.dll
 0002:000007c0       __imp_?minimumSizeHint@QSplitter@@UBE?AVQSize@@XZ 0042a7c0     Qt5Widgets:Qt5Widgets.dll
 0002:000007c4       __imp_?minimumSizeHint@QWidget@@UBE?AVQSize@@XZ 0042a7c4     Qt5Widgets:Qt5Widgets.dll
 0002:000007c8       __imp_?mouseDoubleClickEvent@QAbstractItemView@@MAEXPAVQMouseEvent@@@Z 0042a7c8     Qt5Widgets:Qt5Widgets.dll
 0002:000007cc       __imp_?mouseDoubleClickEvent@QTextEdit@@MAEXPAVQMouseEvent@@@Z 0042a7cc     Qt5Widgets:Qt5Widgets.dll
 0002:000007d0       __imp_?mouseDoubleClickEvent@QTreeView@@MAEXPAVQMouseEvent@@@Z 0042a7d0     Qt5Widgets:Qt5Widgets.dll
 0002:000007d4       __imp_?mouseDoubleClickEvent@QWidget@@MAEXPAVQMouseEvent@@@Z 0042a7d4     Qt5Widgets:Qt5Widgets.dll
 0002:000007d8       __imp_?mouseMoveEvent@QAbstractButton@@MAEXPAVQMouseEvent@@@Z 0042a7d8     Qt5Widgets:Qt5Widgets.dll
 0002:000007dc       __imp_?mouseMoveEvent@QGroupBox@@MAEXPAVQMouseEvent@@@Z 0042a7dc     Qt5Widgets:Qt5Widgets.dll
 0002:000007e0       __imp_?mouseMoveEvent@QListView@@MAEXPAVQMouseEvent@@@Z 0042a7e0     Qt5Widgets:Qt5Widgets.dll
 0002:000007e4       __imp_?mouseMoveEvent@QMenu@@MAEXPAVQMouseEvent@@@Z 0042a7e4     Qt5Widgets:Qt5Widgets.dll
 0002:000007e8       __imp_?mouseMoveEvent@QMenuBar@@MAEXPAVQMouseEvent@@@Z 0042a7e8     Qt5Widgets:Qt5Widgets.dll
 0002:000007ec       __imp_?mouseMoveEvent@QTextEdit@@MAEXPAVQMouseEvent@@@Z 0042a7ec     Qt5Widgets:Qt5Widgets.dll
 0002:000007f0       __imp_?mouseMoveEvent@QTreeView@@MAEXPAVQMouseEvent@@@Z 0042a7f0     Qt5Widgets:Qt5Widgets.dll
 0002:000007f4       __imp_?mouseMoveEvent@QWidget@@MAEXPAVQMouseEvent@@@Z 0042a7f4     Qt5Widgets:Qt5Widgets.dll
 0002:000007f8       __imp_?mousePressEvent@QAbstractButton@@MAEXPAVQMouseEvent@@@Z 0042a7f8     Qt5Widgets:Qt5Widgets.dll
 0002:000007fc       __imp_?mousePressEvent@QAbstractItemView@@MAEXPAVQMouseEvent@@@Z 0042a7fc     Qt5Widgets:Qt5Widgets.dll
 0002:00000800       __imp_?mousePressEvent@QGroupBox@@MAEXPAVQMouseEvent@@@Z 0042a800     Qt5Widgets:Qt5Widgets.dll
 0002:00000804       __imp_?mousePressEvent@QMenu@@MAEXPAVQMouseEvent@@@Z 0042a804     Qt5Widgets:Qt5Widgets.dll
 0002:00000808       __imp_?mousePressEvent@QMenuBar@@MAEXPAVQMouseEvent@@@Z 0042a808     Qt5Widgets:Qt5Widgets.dll
 0002:0000080c       __imp_?mousePressEvent@QTextEdit@@MAEXPAVQMouseEvent@@@Z 0042a80c     Qt5Widgets:Qt5Widgets.dll
 0002:00000810       __imp_?mousePressEvent@QTreeView@@MAEXPAVQMouseEvent@@@Z 0042a810     Qt5Widgets:Qt5Widgets.dll
 0002:00000814       __imp_?mousePressEvent@QWidget@@MAEXPAVQMouseEvent@@@Z 0042a814     Qt5Widgets:Qt5Widgets.dll
 0002:00000818       __imp_?mouseReleaseEvent@QAbstractButton@@MAEXPAVQMouseEvent@@@Z 0042a818     Qt5Widgets:Qt5Widgets.dll
 0002:0000081c       __imp_?mouseReleaseEvent@QGroupBox@@MAEXPAVQMouseEvent@@@Z 0042a81c     Qt5Widgets:Qt5Widgets.dll
 0002:00000820       __imp_?mouseReleaseEvent@QListView@@MAEXPAVQMouseEvent@@@Z 0042a820     Qt5Widgets:Qt5Widgets.dll
 0002:00000824       __imp_?mouseReleaseEvent@QMenu@@MAEXPAVQMouseEvent@@@Z 0042a824     Qt5Widgets:Qt5Widgets.dll
 0002:00000828       __imp_?mouseReleaseEvent@QMenuBar@@MAEXPAVQMouseEvent@@@Z 0042a828     Qt5Widgets:Qt5Widgets.dll
 0002:0000082c       __imp_?mouseReleaseEvent@QTextEdit@@MAEXPAVQMouseEvent@@@Z 0042a82c     Qt5Widgets:Qt5Widgets.dll
 0002:00000830       __imp_?mouseReleaseEvent@QTreeView@@MAEXPAVQMouseEvent@@@Z 0042a830     Qt5Widgets:Qt5Widgets.dll
 0002:00000834       __imp_?mouseReleaseEvent@QWidget@@MAEXPAVQMouseEvent@@@Z 0042a834     Qt5Widgets:Qt5Widgets.dll
 0002:00000838       __imp_?moveCursor@QListView@@MAE?AVQModelIndex@@W4CursorAction@QAbstractItemView@@V?$QFlags@W4KeyboardModifier@Qt@@@@@Z 0042a838     Qt5Widgets:Qt5Widgets.dll
 0002:0000083c       __imp_?moveCursor@QTreeView@@MAE?AVQModelIndex@@W4CursorAction@QAbstractItemView@@V?$QFlags@W4KeyboardModifier@Qt@@@@@Z 0042a83c     Qt5Widgets:Qt5Widgets.dll
 0002:00000840       __imp_?moveEvent@QWidget@@MAEXPAVQMoveEvent@@@Z 0042a840     Qt5Widgets:Qt5Widgets.dll
 0002:00000844       __imp_?nativeEvent@QWidget@@MAE_NABVQByteArray@@PAXPAJ@Z 0042a844     Qt5Widgets:Qt5Widgets.dll
 0002:00000848       __imp_?nextCheckState@QAbstractButton@@MAEXXZ 0042a848     Qt5Widgets:Qt5Widgets.dll
 0002:0000084c       __imp_?paintEngine@QWidget@@UBEPAVQPaintEngine@@XZ 0042a84c     Qt5Widgets:Qt5Widgets.dll
 0002:00000850       __imp_?paintEvent@QFrame@@MAEXPAVQPaintEvent@@@Z 0042a850     Qt5Widgets:Qt5Widgets.dll
 0002:00000854       __imp_?paintEvent@QGroupBox@@MAEXPAVQPaintEvent@@@Z 0042a854     Qt5Widgets:Qt5Widgets.dll
 0002:00000858       __imp_?paintEvent@QListView@@MAEXPAVQPaintEvent@@@Z 0042a858     Qt5Widgets:Qt5Widgets.dll
 0002:0000085c       __imp_?paintEvent@QMenu@@MAEXPAVQPaintEvent@@@Z 0042a85c     Qt5Widgets:Qt5Widgets.dll
 0002:00000860       __imp_?actionEvent@QWidget@@MAEXPAVQActionEvent@@@Z 0042a860     Qt5Widgets:Qt5Widgets.dll
 0002:00000864       __imp_?paintEvent@QPushButton@@MAEXPAVQPaintEvent@@@Z 0042a864     Qt5Widgets:Qt5Widgets.dll
 0002:00000868       __imp_?paintEvent@QStatusBar@@MAEXPAVQPaintEvent@@@Z 0042a868     Qt5Widgets:Qt5Widgets.dll
 0002:0000086c       __imp_?paintEvent@QTextEdit@@MAEXPAVQPaintEvent@@@Z 0042a86c     Qt5Widgets:Qt5Widgets.dll
 0002:00000870       __imp_?paintEvent@QToolBar@@MAEXPAVQPaintEvent@@@Z 0042a870     Qt5Widgets:Qt5Widgets.dll
 0002:00000874       __imp_?paintEvent@QTreeView@@MAEXPAVQPaintEvent@@@Z 0042a874     Qt5Widgets:Qt5Widgets.dll
 0002:00000878       __imp_?paintEvent@QWidget@@MAEXPAVQPaintEvent@@@Z 0042a878     Qt5Widgets:Qt5Widgets.dll
 0002:0000087c       __imp_?qt_metacall@QAction@@UAEHW4Call@QMetaObject@@HPAPAX@Z 0042a87c     Qt5Widgets:Qt5Widgets.dll
 0002:00000880       __imp_?qt_metacall@QGroupBox@@UAEHW4Call@QMetaObject@@HPAPAX@Z 0042a880     Qt5Widgets:Qt5Widgets.dll
 0002:00000884       __imp_?qt_metacall@QHBoxLayout@@UAEHW4Call@QMetaObject@@HPAPAX@Z 0042a884     Qt5Widgets:Qt5Widgets.dll
 0002:00000888       __imp_?qt_metacall@QListWidget@@UAEHW4Call@QMetaObject@@HPAPAX@Z 0042a888     Qt5Widgets:Qt5Widgets.dll
 0002:0000088c       __imp_?qt_metacall@QMenu@@UAEHW4Call@QMetaObject@@HPAPAX@Z 0042a88c     Qt5Widgets:Qt5Widgets.dll
 0002:00000890       __imp_?qt_metacall@QMenuBar@@UAEHW4Call@QMetaObject@@HPAPAX@Z 0042a890     Qt5Widgets:Qt5Widgets.dll
 0002:00000894       __imp_?qt_metacall@QPushButton@@UAEHW4Call@QMetaObject@@HPAPAX@Z 0042a894     Qt5Widgets:Qt5Widgets.dll
 0002:00000898       __imp_?qt_metacall@QSplitter@@UAEHW4Call@QMetaObject@@HPAPAX@Z 0042a898     Qt5Widgets:Qt5Widgets.dll
 0002:0000089c       __imp_?qt_metacall@QStatusBar@@UAEHW4Call@QMetaObject@@HPAPAX@Z 0042a89c     Qt5Widgets:Qt5Widgets.dll
 0002:000008a0       __imp_?qt_metacall@QTextEdit@@UAEHW4Call@QMetaObject@@HPAPAX@Z 0042a8a0     Qt5Widgets:Qt5Widgets.dll
 0002:000008a4       __imp_?qt_metacall@QToolBar@@UAEHW4Call@QMetaObject@@HPAPAX@Z 0042a8a4     Qt5Widgets:Qt5Widgets.dll
 0002:000008a8       __imp_?qt_metacall@QTreeWidget@@UAEHW4Call@QMetaObject@@HPAPAX@Z 0042a8a8     Qt5Widgets:Qt5Widgets.dll
 0002:000008ac       __imp_?qt_metacall@QVBoxLayout@@UAEHW4Call@QMetaObject@@HPAPAX@Z 0042a8ac     Qt5Widgets:Qt5Widgets.dll
 0002:000008b0       __imp_?qt_metacall@QWidget@@UAEHW4Call@QMetaObject@@HPAPAX@Z 0042a8b0     Qt5Widgets:Qt5Widgets.dll
 0002:000008b4       __imp_?qt_metacast@QAction@@UAEPAXPBD@Z 0042a8b4     Qt5Widgets:Qt5Widgets.dll
 0002:000008b8       __imp_?qt_metacast@QGroupBox@@UAEPAXPBD@Z 0042a8b8     Qt5Widgets:Qt5Widgets.dll
 0002:000008bc       __imp_?qt_metacast@QHBoxLayout@@UAEPAXPBD@Z 0042a8bc     Qt5Widgets:Qt5Widgets.dll
 0002:000008c0       __imp_?qt_metacast@QListWidget@@UAEPAXPBD@Z 0042a8c0     Qt5Widgets:Qt5Widgets.dll
 0002:000008c4       __imp_?qt_metacast@QMenu@@UAEPAXPBD@Z 0042a8c4     Qt5Widgets:Qt5Widgets.dll
 0002:000008c8       __imp_?qt_metacast@QMenuBar@@UAEPAXPBD@Z 0042a8c8     Qt5Widgets:Qt5Widgets.dll
 0002:000008cc       __imp_?qt_metacast@QPushButton@@UAEPAXPBD@Z 0042a8cc     Qt5Widgets:Qt5Widgets.dll
 0002:000008d0       __imp_?qt_metacast@QSplitter@@UAEPAXPBD@Z 0042a8d0     Qt5Widgets:Qt5Widgets.dll
 0002:000008d4       __imp_?qt_metacast@QStatusBar@@UAEPAXPBD@Z 0042a8d4     Qt5Widgets:Qt5Widgets.dll
 0002:000008d8       __imp_?qt_metacast@QTextEdit@@UAEPAXPBD@Z 0042a8d8     Qt5Widgets:Qt5Widgets.dll
 0002:000008dc       __imp_?qt_metacast@QToolBar@@UAEPAXPBD@Z 0042a8dc     Qt5Widgets:Qt5Widgets.dll
 0002:000008e0       __imp_?qt_metacast@QTreeWidget@@UAEPAXPBD@Z 0042a8e0     Qt5Widgets:Qt5Widgets.dll
 0002:000008e4       __imp_?qt_metacast@QVBoxLayout@@UAEPAXPBD@Z 0042a8e4     Qt5Widgets:Qt5Widgets.dll
 0002:000008e8       __imp_?qt_metacast@QWidget@@UAEPAXPBD@Z 0042a8e8     Qt5Widgets:Qt5Widgets.dll
 0002:000008ec       __imp_?read@QListWidgetItem@@UAEXAAVQDataStream@@@Z 0042a8ec     Qt5Widgets:Qt5Widgets.dll
 0002:000008f0       __imp_?redirected@QWidget@@MBEPAVQPaintDevice@@PAVQPoint@@@Z 0042a8f0     Qt5Widgets:Qt5Widgets.dll
 0002:000008f4       __imp_?reset@QListView@@UAEXXZ 0042a8f4     Qt5Widgets:Qt5Widgets.dll
 0002:000008f8       __imp_?reset@QTreeView@@UAEXXZ 0042a8f8     Qt5Widgets:Qt5Widgets.dll
 0002:000008fc       __imp_?resizeEvent@QAbstractItemView@@MAEXPAVQResizeEvent@@@Z 0042a8fc     Qt5Widgets:Qt5Widgets.dll
 0002:00000900       __imp_?resizeEvent@QGroupBox@@MAEXPAVQResizeEvent@@@Z 0042a900     Qt5Widgets:Qt5Widgets.dll
 0002:00000904       __imp_?resizeEvent@QListView@@MAEXPAVQResizeEvent@@@Z 0042a904     Qt5Widgets:Qt5Widgets.dll
 0002:00000908       __imp_?resizeEvent@QMenuBar@@MAEXPAVQResizeEvent@@@Z 0042a908     Qt5Widgets:Qt5Widgets.dll
 0002:0000090c       __imp_?resizeEvent@QSplitter@@MAEXPAVQResizeEvent@@@Z 0042a90c     Qt5Widgets:Qt5Widgets.dll
 0002:00000910       __imp_?resizeEvent@QStatusBar@@MAEXPAVQResizeEvent@@@Z 0042a910     Qt5Widgets:Qt5Widgets.dll
 0002:00000914       __imp_?resizeEvent@QTextEdit@@MAEXPAVQResizeEvent@@@Z 0042a914     Qt5Widgets:Qt5Widgets.dll
 0002:00000918       __imp_?resizeEvent@QWidget@@MAEXPAVQResizeEvent@@@Z 0042a918     Qt5Widgets:Qt5Widgets.dll
 0002:0000091c       __imp_?rowsAboutToBeRemoved@QListView@@MAEXABVQModelIndex@@HH@Z 0042a91c     Qt5Widgets:Qt5Widgets.dll
 0002:00000920       __imp_?rowsAboutToBeRemoved@QTreeView@@MAEXABVQModelIndex@@HH@Z 0042a920     Qt5Widgets:Qt5Widgets.dll
 0002:00000924       __imp_?rowsInserted@QListView@@MAEXABVQModelIndex@@HH@Z 0042a924     Qt5Widgets:Qt5Widgets.dll
 0002:00000928       __imp_?rowsInserted@QTreeView@@MAEXABVQModelIndex@@HH@Z 0042a928     Qt5Widgets:Qt5Widgets.dll
 0002:0000092c       __imp_?scrollContentsBy@QListView@@MAEXHH@Z 0042a92c     Qt5Widgets:Qt5Widgets.dll
 0002:00000930       __imp_?scrollContentsBy@QTextEdit@@MAEXHH@Z 0042a930     Qt5Widgets:Qt5Widgets.dll
 0002:00000934       __imp_?scrollContentsBy@QTreeView@@MAEXHH@Z 0042a934     Qt5Widgets:Qt5Widgets.dll
 0002:00000938       __imp_?scrollTo@QListView@@UAEXABVQModelIndex@@W4ScrollHint@QAbstractItemView@@@Z 0042a938     Qt5Widgets:Qt5Widgets.dll
 0002:0000093c       __imp_?scrollTo@QTreeView@@UAEXABVQModelIndex@@W4ScrollHint@QAbstractItemView@@@Z 0042a93c     Qt5Widgets:Qt5Widgets.dll
 0002:00000940       __imp_?selectAll@QAbstractItemView@@UAEXXZ 0042a940     Qt5Widgets:Qt5Widgets.dll
 0002:00000944       __imp_?selectAll@QTreeView@@UAEXXZ 0042a944     Qt5Widgets:Qt5Widgets.dll
 0002:00000948       __imp_?selectedIndexes@QListView@@MBE?AV?$QList@VQModelIndex@@@@XZ 0042a948     Qt5Widgets:Qt5Widgets.dll
 0002:0000094c       __imp_?selectedIndexes@QTreeView@@MBE?AV?$QList@VQModelIndex@@@@XZ 0042a94c     Qt5Widgets:Qt5Widgets.dll
 0002:00000950       __imp_?selectionChanged@QListView@@MAEXABVQItemSelection@@0@Z 0042a950     Qt5Widgets:Qt5Widgets.dll
 0002:00000954       __imp_?selectionChanged@QTreeView@@MAEXABVQItemSelection@@0@Z 0042a954     Qt5Widgets:Qt5Widgets.dll
 0002:00000958       __imp_?selectionCommand@QAbstractItemView@@MBE?AV?$QFlags@W4SelectionFlag@QItemSelectionModel@@@@ABVQModelIndex@@PBVQEvent@@@Z 0042a958     Qt5Widgets:Qt5Widgets.dll
 0002:0000095c       __imp_?setBackgroundColor@QListWidgetItem@@UAEXABVQColor@@@Z 0042a95c     Qt5Widgets:Qt5Widgets.dll
 0002:00000960       __imp_?setData@QListWidgetItem@@UAEXHABVQVariant@@@Z 0042a960     Qt5Widgets:Qt5Widgets.dll
 0002:00000964       __imp_?setGeometry@QBoxLayout@@UAEXABVQRect@@@Z 0042a964     Qt5Widgets:Qt5Widgets.dll
 0002:00000968       __imp_?setGeometry@QSpacerItem@@UAEXABVQRect@@@Z 0042a968     Qt5Widgets:Qt5Widgets.dll
 0002:0000096c       __imp_?setModel@QListWidget@@EAEXPAVQAbstractItemModel@@@Z 0042a96c     Qt5Widgets:Qt5Widgets.dll
 0002:00000970       __imp_?setModel@QTreeWidget@@EAEXPAVQAbstractItemModel@@@Z 0042a970     Qt5Widgets:Qt5Widgets.dll
 0002:00000974       __imp_?setRootIndex@QListView@@UAEXABVQModelIndex@@@Z 0042a974     Qt5Widgets:Qt5Widgets.dll
 0002:00000978       __imp_?setRootIndex@QTreeView@@UAEXABVQModelIndex@@@Z 0042a978     Qt5Widgets:Qt5Widgets.dll
 0002:0000097c       __imp_?setSelection@QListView@@MAEXABVQRect@@V?$QFlags@W4SelectionFlag@QItemSelectionModel@@@@@Z 0042a97c     Qt5Widgets:Qt5Widgets.dll
 0002:00000980       __imp_?setSelection@QTreeView@@MAEXABVQRect@@V?$QFlags@W4SelectionFlag@QItemSelectionModel@@@@@Z 0042a980     Qt5Widgets:Qt5Widgets.dll
 0002:00000984       __imp_?setSelectionModel@QListWidget@@UAEXPAVQItemSelectionModel@@@Z 0042a984     Qt5Widgets:Qt5Widgets.dll
 0002:00000988       __imp_?setSelectionModel@QTreeWidget@@UAEXPAVQItemSelectionModel@@@Z 0042a988     Qt5Widgets:Qt5Widgets.dll
 0002:0000098c       __imp_?setVisible@QMenuBar@@UAEX_N@Z 0042a98c     Qt5Widgets:Qt5Widgets.dll
 0002:00000990       __imp_?setVisible@QWidget@@UAEX_N@Z 0042a990     Qt5Widgets:Qt5Widgets.dll
 0002:00000994       __imp_?setupViewport@QAbstractScrollArea@@UAEXPAVQWidget@@@Z 0042a994     Qt5Widgets:Qt5Widgets.dll
 0002:00000998       __imp_?sharedPainter@QWidget@@MBEPAVQPainter@@XZ 0042a998     Qt5Widgets:Qt5Widgets.dll
 0002:0000099c       __imp_?showEvent@QStatusBar@@MAEXPAVQShowEvent@@@Z 0042a99c     Qt5Widgets:Qt5Widgets.dll
 0002:000009a0       __imp_?showEvent@QTextEdit@@MAEXPAVQShowEvent@@@Z 0042a9a0     Qt5Widgets:Qt5Widgets.dll
 0002:000009a4       __imp_?showEvent@QWidget@@MAEXPAVQShowEvent@@@Z 0042a9a4     Qt5Widgets:Qt5Widgets.dll
 0002:000009a8       __imp_?sizeHint@QAbstractScrollArea@@UBE?AVQSize@@XZ 0042a9a8     Qt5Widgets:Qt5Widgets.dll
 0002:000009ac       __imp_?sizeHint@QBoxLayout@@UBE?AVQSize@@XZ 0042a9ac     Qt5Widgets:Qt5Widgets.dll
 0002:000009b0       __imp_?sizeHint@QMenu@@UBE?AVQSize@@XZ 0042a9b0     Qt5Widgets:Qt5Widgets.dll
 0002:000009b4       __imp_?sizeHint@QMenuBar@@UBE?AVQSize@@XZ 0042a9b4     Qt5Widgets:Qt5Widgets.dll
 0002:000009b8       __imp_?sizeHint@QPushButton@@UBE?AVQSize@@XZ 0042a9b8     Qt5Widgets:Qt5Widgets.dll
 0002:000009bc       __imp_?sizeHint@QSpacerItem@@UBE?AVQSize@@XZ 0042a9bc     Qt5Widgets:Qt5Widgets.dll
 0002:000009c0       __imp_?sizeHint@QSplitter@@UBE?AVQSize@@XZ 0042a9c0     Qt5Widgets:Qt5Widgets.dll
 0002:000009c4       __imp_?sizeHint@QWidget@@UBE?AVQSize@@XZ 0042a9c4     Qt5Widgets:Qt5Widgets.dll
 0002:000009c8       __imp_?sizeHintForColumn@QAbstractItemView@@UBEHH@Z 0042a9c8     Qt5Widgets:Qt5Widgets.dll
 0002:000009cc       __imp_?sizeHintForColumn@QTreeView@@MBEHH@Z 0042a9cc     Qt5Widgets:Qt5Widgets.dll
 0002:000009d0       __imp_?sizeHintForRow@QAbstractItemView@@UBEHH@Z 0042a9d0     Qt5Widgets:Qt5Widgets.dll
 0002:000009d4       __imp_?spacerItem@QLayoutItem@@UAEPAVQSpacerItem@@XZ 0042a9d4     Qt5Widgets:Qt5Widgets.dll
 0002:000009d8       __imp_?spacerItem@QSpacerItem@@UAEPAV1@XZ 0042a9d8     Qt5Widgets:Qt5Widgets.dll
 0002:000009dc       __imp_?startDrag@QAbstractItemView@@MAEXV?$QFlags@W4DropAction@Qt@@@@@Z 0042a9dc     Qt5Widgets:Qt5Widgets.dll
 0002:000009e0       __imp_?startDrag@QListView@@MAEXV?$QFlags@W4DropAction@Qt@@@@@Z 0042a9e0     Qt5Widgets:Qt5Widgets.dll
 0002:000009e4       __imp_?supportedDropActions@QListWidget@@MBE?AV?$QFlags@W4DropAction@Qt@@@@XZ 0042a9e4     Qt5Widgets:Qt5Widgets.dll
 0002:000009e8       __imp_?supportedDropActions@QTreeWidget@@MBE?AV?$QFlags@W4DropAction@Qt@@@@XZ 0042a9e8     Qt5Widgets:Qt5Widgets.dll
 0002:000009ec       __imp_?tabletEvent@QWidget@@MAEXPAVQTabletEvent@@@Z 0042a9ec     Qt5Widgets:Qt5Widgets.dll
 0002:000009f0       __imp_?takeAt@QBoxLayout@@UAEPAVQLayoutItem@@H@Z 0042a9f0     Qt5Widgets:Qt5Widgets.dll
 0002:000009f4       __imp_?timerEvent@QAbstractButton@@MAEXPAVQTimerEvent@@@Z 0042a9f4     Qt5Widgets:Qt5Widgets.dll
 0002:000009f8       __imp_?timerEvent@QListView@@MAEXPAVQTimerEvent@@@Z 0042a9f8     Qt5Widgets:Qt5Widgets.dll
 0002:000009fc       __imp_?timerEvent@QMenu@@MAEXPAVQTimerEvent@@@Z 0042a9fc     Qt5Widgets:Qt5Widgets.dll
 0002:00000a00       __imp_?timerEvent@QMenuBar@@MAEXPAVQTimerEvent@@@Z 0042aa00     Qt5Widgets:Qt5Widgets.dll
 0002:00000a04       __imp_?timerEvent@QTextEdit@@MAEXPAVQTimerEvent@@@Z 0042aa04     Qt5Widgets:Qt5Widgets.dll
 0002:00000a08       __imp_?timerEvent@QTreeView@@MAEXPAVQTimerEvent@@@Z 0042aa08     Qt5Widgets:Qt5Widgets.dll
 0002:00000a0c       __imp_?updateEditorData@QAbstractItemView@@MAEXXZ 0042aa0c     Qt5Widgets:Qt5Widgets.dll
 0002:00000a10       __imp_?updateEditorGeometries@QAbstractItemView@@MAEXXZ 0042aa10     Qt5Widgets:Qt5Widgets.dll
 0002:00000a14       __imp_?updateGeometries@QListView@@MAEXXZ 0042aa14     Qt5Widgets:Qt5Widgets.dll
 0002:00000a18       __imp_?updateGeometries@QTreeView@@MAEXXZ 0042aa18     Qt5Widgets:Qt5Widgets.dll
 0002:00000a1c       __imp_?verticalOffset@QListView@@MBEHXZ 0042aa1c     Qt5Widgets:Qt5Widgets.dll
 0002:00000a20       __imp_?verticalOffset@QTreeView@@MBEHXZ 0042aa20     Qt5Widgets:Qt5Widgets.dll
 0002:00000a24       __imp_?verticalScrollbarAction@QAbstractItemView@@MAEXH@Z 0042aa24     Qt5Widgets:Qt5Widgets.dll
 0002:00000a28       __imp_?verticalScrollbarValueChanged@QAbstractItemView@@MAEXH@Z 0042aa28     Qt5Widgets:Qt5Widgets.dll
 0002:00000a2c       __imp_?viewOptions@QAbstractItemView@@MBE?AVQStyleOptionViewItem@@XZ 0042aa2c     Qt5Widgets:Qt5Widgets.dll
 0002:00000a30       __imp_?viewOptions@QListView@@MBE?AVQStyleOptionViewItem@@XZ 0042aa30     Qt5Widgets:Qt5Widgets.dll
 0002:00000a34       __imp_?viewportEvent@QAbstractItemView@@MAE_NPAVQEvent@@@Z 0042aa34     Qt5Widgets:Qt5Widgets.dll
 0002:00000a38       __imp_?viewportEvent@QAbstractScrollArea@@MAE_NPAVQEvent@@@Z 0042aa38     Qt5Widgets:Qt5Widgets.dll
 0002:00000a3c       __imp_?viewportEvent@QTreeView@@MAE_NPAVQEvent@@@Z 0042aa3c     Qt5Widgets:Qt5Widgets.dll
 0002:00000a40       __imp_?viewportSizeHint@QAbstractScrollArea@@MBE?AVQSize@@XZ 0042aa40     Qt5Widgets:Qt5Widgets.dll
 0002:00000a44       __imp_?viewportSizeHint@QListView@@MBE?AVQSize@@XZ 0042aa44     Qt5Widgets:Qt5Widgets.dll
 0002:00000a48       __imp_?viewportSizeHint@QTreeView@@MBE?AVQSize@@XZ 0042aa48     Qt5Widgets:Qt5Widgets.dll
 0002:00000a4c       __imp_?visualRect@QListView@@UBE?AVQRect@@ABVQModelIndex@@@Z 0042aa4c     Qt5Widgets:Qt5Widgets.dll
 0002:00000a50       __imp_?visualRect@QTreeView@@UBE?AVQRect@@ABVQModelIndex@@@Z 0042aa50     Qt5Widgets:Qt5Widgets.dll
 0002:00000a54       __imp_?visualRegionForSelection@QListView@@MBE?AVQRegion@@ABVQItemSelection@@@Z 0042aa54     Qt5Widgets:Qt5Widgets.dll
 0002:00000a58       __imp_?visualRegionForSelection@QTreeView@@MBE?AVQRegion@@ABVQItemSelection@@@Z 0042aa58     Qt5Widgets:Qt5Widgets.dll
 0002:00000a5c       __imp_?wheelEvent@QAbstractScrollArea@@MAEXPAVQWheelEvent@@@Z 0042aa5c     Qt5Widgets:Qt5Widgets.dll
 0002:00000a60       __imp_?wheelEvent@QListView@@MAEXPAVQWheelEvent@@@Z 0042aa60     Qt5Widgets:Qt5Widgets.dll
 0002:00000a64       __imp_?wheelEvent@QMenu@@MAEXPAVQWheelEvent@@@Z 0042aa64     Qt5Widgets:Qt5Widgets.dll
 0002:00000a68       __imp_?wheelEvent@QTextEdit@@MAEXPAVQWheelEvent@@@Z 0042aa68     Qt5Widgets:Qt5Widgets.dll
 0002:00000a6c       __imp_?wheelEvent@QWidget@@MAEXPAVQWheelEvent@@@Z 0042aa6c     Qt5Widgets:Qt5Widgets.dll
 0002:00000a70       __imp_?widget@QLayoutItem@@UAEPAVQWidget@@XZ 0042aa70     Qt5Widgets:Qt5Widgets.dll
 0002:00000a74       __imp_?write@QListWidgetItem@@UBEXAAVQDataStream@@@Z 0042aa74     Qt5Widgets:Qt5Widgets.dll
 0002:00000a78       __imp_??0QDialog@@QAE@PAVQWidget@@V?$QFlags@W4WindowType@Qt@@@@@Z 0042aa78     Qt5Widgets:Qt5Widgets.dll
 0002:00000a7c       __imp_??1QDialog@@UAE@XZ   0042aa7c     Qt5Widgets:Qt5Widgets.dll
 0002:00000a80       __imp_??0QLabel@@QAE@PAVQWidget@@V?$QFlags@W4WindowType@Qt@@@@@Z 0042aa80     Qt5Widgets:Qt5Widgets.dll
 0002:00000a84       __imp_??1QLabel@@UAE@XZ    0042aa84     Qt5Widgets:Qt5Widgets.dll
 0002:00000a88       __imp_?setText@QLabel@@QAEXABVQString@@@Z 0042aa88     Qt5Widgets:Qt5Widgets.dll
 0002:00000a8c       __imp_??0QTreeWidgetItem@@QAE@PAVQTreeWidget@@H@Z 0042aa8c     Qt5Widgets:Qt5Widgets.dll
 0002:00000a90       __imp_?text@QTreeWidgetItem@@QBE?AVQString@@H@Z 0042aa90     Qt5Widgets:Qt5Widgets.dll
 0002:00000a94       __imp_?currentItem@QTreeWidget@@QBEPAVQTreeWidgetItem@@XZ 0042aa94     Qt5Widgets:Qt5Widgets.dll
 0002:00000a98       __imp_?getText@QInputDialog@@SA?AVQString@@PAVQWidget@@ABV2@1W4EchoMode@QLineEdit@@1PA_NV?$QFlags@W4WindowType@Qt@@@@V?$QFlags@W4InputMethodHint@Qt@@@@@Z 0042aa98     Qt5Widgets:Qt5Widgets.dll
 0002:00000a9c       __imp_?accept@QDialog@@UAEXXZ 0042aa9c     Qt5Widgets:Qt5Widgets.dll
 0002:00000aa0       __imp_?changeEvent@QLabel@@MAEXPAVQEvent@@@Z 0042aaa0     Qt5Widgets:Qt5Widgets.dll
 0002:00000aa4       __imp_?closeEvent@QDialog@@MAEXPAVQCloseEvent@@@Z 0042aaa4     Qt5Widgets:Qt5Widgets.dll
 0002:00000aa8       __imp_?contextMenuEvent@QDialog@@MAEXPAVQContextMenuEvent@@@Z 0042aaa8     Qt5Widgets:Qt5Widgets.dll
 0002:00000aac       __imp_?contextMenuEvent@QLabel@@MAEXPAVQContextMenuEvent@@@Z 0042aaac     Qt5Widgets:Qt5Widgets.dll
 0002:00000ab0       __imp_?done@QDialog@@UAEXH@Z 0042aab0     Qt5Widgets:Qt5Widgets.dll
 0002:00000ab4       __imp_?event@QLabel@@MAE_NPAVQEvent@@@Z 0042aab4     Qt5Widgets:Qt5Widgets.dll
 0002:00000ab8       __imp_?eventFilter@QDialog@@MAE_NPAVQObject@@PAVQEvent@@@Z 0042aab8     Qt5Widgets:Qt5Widgets.dll
 0002:00000abc       __imp_?focusInEvent@QLabel@@MAEXPAVQFocusEvent@@@Z 0042aabc     Qt5Widgets:Qt5Widgets.dll
 0002:00000ac0       __imp_?focusNextPrevChild@QLabel@@MAE_N_N@Z 0042aac0     Qt5Widgets:Qt5Widgets.dll
 0002:00000ac4       __imp_?focusOutEvent@QLabel@@MAEXPAVQFocusEvent@@@Z 0042aac4     Qt5Widgets:Qt5Widgets.dll
 0002:00000ac8       __imp_?heightForWidth@QLabel@@UBEHH@Z 0042aac8     Qt5Widgets:Qt5Widgets.dll
 0002:00000acc       __imp_?keyPressEvent@QDialog@@MAEXPAVQKeyEvent@@@Z 0042aacc     Qt5Widgets:Qt5Widgets.dll
 0002:00000ad0       __imp_?keyPressEvent@QLabel@@MAEXPAVQKeyEvent@@@Z 0042aad0     Qt5Widgets:Qt5Widgets.dll
 0002:00000ad4       __imp_?metaObject@QLabel@@UBEPBUQMetaObject@@XZ 0042aad4     Qt5Widgets:Qt5Widgets.dll
 0002:00000ad8       __imp_?minimumSizeHint@QDialog@@UBE?AVQSize@@XZ 0042aad8     Qt5Widgets:Qt5Widgets.dll
 0002:00000adc       __imp_?minimumSizeHint@QLabel@@UBE?AVQSize@@XZ 0042aadc     Qt5Widgets:Qt5Widgets.dll
 0002:00000ae0       __imp_?mouseMoveEvent@QLabel@@MAEXPAVQMouseEvent@@@Z 0042aae0     Qt5Widgets:Qt5Widgets.dll
 0002:00000ae4       __imp_?mousePressEvent@QLabel@@MAEXPAVQMouseEvent@@@Z 0042aae4     Qt5Widgets:Qt5Widgets.dll
 0002:00000ae8       __imp_?mouseReleaseEvent@QLabel@@MAEXPAVQMouseEvent@@@Z 0042aae8     Qt5Widgets:Qt5Widgets.dll
 0002:00000aec       __imp_?open@QDialog@@UAEXXZ 0042aaec     Qt5Widgets:Qt5Widgets.dll
 0002:00000af0       __imp_?paintEvent@QLabel@@MAEXPAVQPaintEvent@@@Z 0042aaf0     Qt5Widgets:Qt5Widgets.dll
 0002:00000af4       __imp_?qt_metacall@QLabel@@UAEHW4Call@QMetaObject@@HPAPAX@Z 0042aaf4     Qt5Widgets:Qt5Widgets.dll
 0002:00000af8       __imp_?qt_metacast@QLabel@@UAEPAXPBD@Z 0042aaf8     Qt5Widgets:Qt5Widgets.dll
 0002:00000afc       __imp_?reject@QDialog@@UAEXXZ 0042aafc     Qt5Widgets:Qt5Widgets.dll
 0002:00000b00       __imp_?resizeEvent@QDialog@@MAEXPAVQResizeEvent@@@Z 0042ab00     Qt5Widgets:Qt5Widgets.dll
 0002:00000b04       __imp_?setVisible@QDialog@@UAEX_N@Z 0042ab04     Qt5Widgets:Qt5Widgets.dll
 0002:00000b08       __imp_?showEvent@QDialog@@MAEXPAVQShowEvent@@@Z 0042ab08     Qt5Widgets:Qt5Widgets.dll
 0002:00000b0c       __imp_?sizeHint@QDialog@@UBE?AVQSize@@XZ 0042ab0c     Qt5Widgets:Qt5Widgets.dll
 0002:00000b10       __imp_?sizeHint@QLabel@@UBE?AVQSize@@XZ 0042ab10     Qt5Widgets:Qt5Widgets.dll
 0002:00000b14       __imp_??0QDialogButtonBox@@QAE@PAVQWidget@@@Z 0042ab14     Qt5Widgets:Qt5Widgets.dll
 0002:00000b18       __imp_??1QDialogButtonBox@@UAE@XZ 0042ab18     Qt5Widgets:Qt5Widgets.dll
 0002:00000b1c       __imp_?setStandardButtons@QDialogButtonBox@@QAEXV?$QFlags@W4StandardButton@QDialogButtonBox@@@@@Z 0042ab1c     Qt5Widgets:Qt5Widgets.dll
 0002:00000b20       __imp_??0QVBoxLayout@@QAE@XZ 0042ab20     Qt5Widgets:Qt5Widgets.dll
 0002:00000b24       __imp_?setDocument@QTextEdit@@QAEXPAVQTextDocument@@@Z 0042ab24     Qt5Widgets:Qt5Widgets.dll
 0002:00000b28       __imp_??0QToolButton@@QAE@PAVQWidget@@@Z 0042ab28     Qt5Widgets:Qt5Widgets.dll
 0002:00000b2c       __imp_??1QToolButton@@UAE@XZ 0042ab2c     Qt5Widgets:Qt5Widgets.dll
 0002:00000b30       __imp_?actionEvent@QToolButton@@MAEXPAVQActionEvent@@@Z 0042ab30     Qt5Widgets:Qt5Widgets.dll
 0002:00000b34       __imp_?changeEvent@QDialogButtonBox@@MAEXPAVQEvent@@@Z 0042ab34     Qt5Widgets:Qt5Widgets.dll
 0002:00000b38       __imp_?changeEvent@QToolButton@@MAEXPAVQEvent@@@Z 0042ab38     Qt5Widgets:Qt5Widgets.dll
 0002:00000b3c       __imp_?enterEvent@QToolButton@@MAEXPAVQEvent@@@Z 0042ab3c     Qt5Widgets:Qt5Widgets.dll
 0002:00000b40       __imp_?event@QDialogButtonBox@@MAE_NPAVQEvent@@@Z 0042ab40     Qt5Widgets:Qt5Widgets.dll
 0002:00000b44       __imp_?event@QToolButton@@MAE_NPAVQEvent@@@Z 0042ab44     Qt5Widgets:Qt5Widgets.dll
 0002:00000b48       __imp_?focusInEvent@QAbstractButton@@MAEXPAVQFocusEvent@@@Z 0042ab48     Qt5Widgets:Qt5Widgets.dll
 0002:00000b4c       __imp_?focusOutEvent@QAbstractButton@@MAEXPAVQFocusEvent@@@Z 0042ab4c     Qt5Widgets:Qt5Widgets.dll
 0002:00000b50       __imp_?hitButton@QToolButton@@MBE_NABVQPoint@@@Z 0042ab50     Qt5Widgets:Qt5Widgets.dll
 0002:00000b54       __imp_?keyPressEvent@QAbstractButton@@MAEXPAVQKeyEvent@@@Z 0042ab54     Qt5Widgets:Qt5Widgets.dll
 0002:00000b58       __imp_?leaveEvent@QToolButton@@MAEXPAVQEvent@@@Z 0042ab58     Qt5Widgets:Qt5Widgets.dll
 0002:00000b5c       __imp_?metaObject@QDialogButtonBox@@UBEPBUQMetaObject@@XZ 0042ab5c     Qt5Widgets:Qt5Widgets.dll
 0002:00000b60       __imp_?metaObject@QToolButton@@UBEPBUQMetaObject@@XZ 0042ab60     Qt5Widgets:Qt5Widgets.dll
 0002:00000b64       __imp_?minimumSizeHint@QToolButton@@UBE?AVQSize@@XZ 0042ab64     Qt5Widgets:Qt5Widgets.dll
 0002:00000b68       __imp_?mousePressEvent@QToolButton@@MAEXPAVQMouseEvent@@@Z 0042ab68     Qt5Widgets:Qt5Widgets.dll
 0002:00000b6c       __imp_?mouseReleaseEvent@QToolButton@@MAEXPAVQMouseEvent@@@Z 0042ab6c     Qt5Widgets:Qt5Widgets.dll
 0002:00000b70       __imp_?nextCheckState@QToolButton@@MAEXXZ 0042ab70     Qt5Widgets:Qt5Widgets.dll
 0002:00000b74       __imp_?paintEvent@QToolButton@@MAEXPAVQPaintEvent@@@Z 0042ab74     Qt5Widgets:Qt5Widgets.dll
 0002:00000b78       __imp_?qt_metacall@QDialogButtonBox@@UAEHW4Call@QMetaObject@@HPAPAX@Z 0042ab78     Qt5Widgets:Qt5Widgets.dll
 0002:00000b7c       __imp_?qt_metacall@QToolButton@@UAEHW4Call@QMetaObject@@HPAPAX@Z 0042ab7c     Qt5Widgets:Qt5Widgets.dll
 0002:00000b80       __imp_?qt_metacast@QDialogButtonBox@@UAEPAXPBD@Z 0042ab80     Qt5Widgets:Qt5Widgets.dll
 0002:00000b84       __imp_?qt_metacast@QToolButton@@UAEPAXPBD@Z 0042ab84     Qt5Widgets:Qt5Widgets.dll
 0002:00000b88       __imp_?sizeHint@QToolButton@@UBE?AVQSize@@XZ 0042ab88     Qt5Widgets:Qt5Widgets.dll
 0002:00000b8c       __imp_?timerEvent@QToolButton@@MAEXPAVQTimerEvent@@@Z 0042ab8c     Qt5Widgets:Qt5Widgets.dll
 0002:00000b90       __imp_?setWordWrap@QLabel@@QAEX_N@Z 0042ab90     Qt5Widgets:Qt5Widgets.dll
 0002:00000b94       __imp_?metaObject@QDialog@@UBEPBUQMetaObject@@XZ 0042ab94     Qt5Widgets:Qt5Widgets.dll
 0002:00000b98       __imp_?setData@QTreeWidgetItem@@UAEXHHABVQVariant@@@Z 0042ab98     Qt5Widgets:Qt5Widgets.dll
 0002:00000b9c       __imp_?read@QTreeWidgetItem@@UAEXAAVQDataStream@@@Z 0042ab9c     Qt5Widgets:Qt5Widgets.dll
 0002:00000ba0       __imp_?data@QTreeWidgetItem@@UBE?AVQVariant@@HH@Z 0042aba0     Qt5Widgets:Qt5Widgets.dll
 0002:00000ba4       __imp_?clone@QTreeWidgetItem@@UBEPAV1@XZ 0042aba4     Qt5Widgets:Qt5Widgets.dll
 0002:00000ba8       __imp_??MQTreeWidgetItem@@UBE_NABV0@@Z 0042aba8     Qt5Widgets:Qt5Widgets.dll
 0002:00000bac       __imp_?setText@QTreeWidgetItem@@QAEXHABVQString@@@Z 0042abac     Qt5Widgets:Qt5Widgets.dll
 0002:00000bb0       __imp_??1QTreeWidgetItem@@UAE@XZ 0042abb0     Qt5Widgets:Qt5Widgets.dll
 0002:00000bb4       __imp_??0QTreeWidgetItem@@QAE@H@Z 0042abb4     Qt5Widgets:Qt5Widgets.dll
 0002:00000bb8       __imp_?append@QTextEdit@@QAEXABVQString@@@Z 0042abb8     Qt5Widgets:Qt5Widgets.dll
 0002:00000bbc       __imp_?document@QTextEdit@@QBEPAVQTextDocument@@XZ 0042abbc     Qt5Widgets:Qt5Widgets.dll
 0002:00000bc0       __imp_?actionEvent@QToolBar@@MAEXPAVQActionEvent@@@Z 0042abc0     Qt5Widgets:Qt5Widgets.dll
 0002:00000bc4       __imp_?actionEvent@QMenuBar@@MAEXPAVQActionEvent@@@Z 0042abc4     Qt5Widgets:Qt5Widgets.dll
 0002:00000bc8       __imp_?actionEvent@QMenu@@MAEXPAVQActionEvent@@@Z 0042abc8     Qt5Widgets:Qt5Widgets.dll
 0002:00000bcc       __imp_??MQListWidgetItem@@UBE_NABV0@@Z 0042abcc     Qt5Widgets:Qt5Widgets.dll
 0002:00000bd0       __imp_?critical@QMessageBox@@SA?AW4StandardButton@1@PAVQWidget@@ABVQString@@1V?$QFlags@W4StandardButton@QMessageBox@@@@W421@@Z 0042abd0     Qt5Widgets:Qt5Widgets.dll
 0002:00000bd4       __imp_?information@QMessageBox@@SA?AW4StandardButton@1@PAVQWidget@@ABVQString@@1V?$QFlags@W4StandardButton@QMessageBox@@@@W421@@Z 0042abd4     Qt5Widgets:Qt5Widgets.dll
 0002:00000bd8       __imp_?exec@QDialog@@UAEHXZ 0042abd8     Qt5Widgets:Qt5Widgets.dll
 0002:00000bdc       __imp_?itemAt@QTreeWidget@@QBEPAVQTreeWidgetItem@@ABVQPoint@@@Z 0042abdc     Qt5Widgets:Qt5Widgets.dll
 0002:00000be0       __imp_?headerItem@QTreeWidget@@QBEPAVQTreeWidgetItem@@XZ 0042abe0     Qt5Widgets:Qt5Widgets.dll
 0002:00000be4       __imp_?addTopLevelItem@QTreeWidget@@QAEXPAVQTreeWidgetItem@@@Z 0042abe4     Qt5Widgets:Qt5Widgets.dll
 0002:00000be8       __imp_??1QTreeWidget@@UAE@XZ 0042abe8     Qt5Widgets:Qt5Widgets.dll
 0002:00000bec       __imp_??0QTreeWidget@@QAE@PAVQWidget@@@Z 0042abec     Qt5Widgets:Qt5Widgets.dll
 0002:00000bf0       __imp_?header@QTreeView@@QBEPAVQHeaderView@@XZ 0042abf0     Qt5Widgets:Qt5Widgets.dll
 0002:00000bf4       __imp_??1QToolBar@@UAE@XZ  0042abf4     Qt5Widgets:Qt5Widgets.dll
 0002:00000bf8       __imp_??0QToolBar@@QAE@PAVQWidget@@@Z 0042abf8     Qt5Widgets:Qt5Widgets.dll
 0002:00000bfc       __imp_?setReadOnly@QTextEdit@@QAEX_N@Z 0042abfc     Qt5Widgets:Qt5Widgets.dll
 0002:00000c00       __imp_??1QTextEdit@@UAE@XZ 0042ac00     Qt5Widgets:Qt5Widgets.dll
 0002:00000c04       __imp_??0QTextEdit@@QAE@PAVQWidget@@@Z 0042ac04     Qt5Widgets:Qt5Widgets.dll
 0002:00000c08       __imp_??1QStatusBar@@UAE@XZ 0042ac08     Qt5Widgets:Qt5Widgets.dll
 0002:00000c0c       __imp_??0QStatusBar@@QAE@PAVQWidget@@@Z 0042ac0c     Qt5Widgets:Qt5Widgets.dll
 0002:00000c10       __imp_?setOrientation@QSplitter@@QAEXW4Orientation@Qt@@@Z 0042ac10     Qt5Widgets:Qt5Widgets.dll
 0002:00000c14       __imp_?addWidget@QSplitter@@QAEXPAVQWidget@@@Z 0042ac14     Qt5Widgets:Qt5Widgets.dll
 0002:00000c18       __imp_??1QSplitter@@UAE@XZ 0042ac18     Qt5Widgets:Qt5Widgets.dll
 0002:00000c1c       __imp_??0QSplitter@@QAE@PAVQWidget@@@Z 0042ac1c     Qt5Widgets:Qt5Widgets.dll
 0002:00000c20       __imp_??1QPushButton@@UAE@XZ 0042ac20     Qt5Widgets:Qt5Widgets.dll
 0002:00000c24       __imp_??0QPushButton@@QAE@PAVQWidget@@@Z 0042ac24     Qt5Widgets:Qt5Widgets.dll
 0002:00000c28       __imp_?setText@QAbstractButton@@QAEXABVQString@@@Z 0042ac28     Qt5Widgets:Qt5Widgets.dll
 0002:00000c2c       __imp_??1QMenuBar@@UAE@XZ  0042ac2c     Qt5Widgets:Qt5Widgets.dll
 0002:00000c30       __imp_??0QMenuBar@@QAE@PAVQWidget@@@Z 0042ac30     Qt5Widgets:Qt5Widgets.dll
 0002:00000c34       __imp_?setTitle@QMenu@@QAEXABVQString@@@Z 0042ac34     Qt5Widgets:Qt5Widgets.dll
 0002:00000c38       __imp_?menuAction@QMenu@@QBEPAVQAction@@XZ 0042ac38     Qt5Widgets:Qt5Widgets.dll
 0002:00000c3c       __imp_?exec@QMenu@@QAEPAVQAction@@ABVQPoint@@PAV2@@Z 0042ac3c     Qt5Widgets:Qt5Widgets.dll
 0002:00000c40       __imp_?addAction@QMenu@@QAEPAVQAction@@ABVQString@@@Z 0042ac40     Qt5Widgets:Qt5Widgets.dll
 0002:00000c44       __imp_??1QMenu@@UAE@XZ     0042ac44     Qt5Widgets:Qt5Widgets.dll
 0002:00000c48       __imp_??0QMenu@@QAE@PAVQWidget@@@Z 0042ac48     Qt5Widgets:Qt5Widgets.dll
 0002:00000c4c       __imp_?count@QListWidget@@QBEHXZ 0042ac4c     Qt5Widgets:Qt5Widgets.dll
 0002:00000c50       __imp_?insertItem@QListWidget@@QAEXHPAVQListWidgetItem@@@Z 0042ac50     Qt5Widgets:Qt5Widgets.dll
 0002:00000c54       __imp_??1QListWidget@@UAE@XZ 0042ac54     Qt5Widgets:Qt5Widgets.dll
 0002:00000c58       __imp_??0QListWidget@@QAE@PAVQWidget@@@Z 0042ac58     Qt5Widgets:Qt5Widgets.dll
 0002:00000c5c       __imp_??1QListWidgetItem@@UAE@XZ 0042ac5c     Qt5Widgets:Qt5Widgets.dll
 0002:00000c60       __imp_??0QListWidgetItem@@QAE@ABVQString@@PAVQListWidget@@H@Z 0042ac60     Qt5Widgets:Qt5Widgets.dll
 0002:00000c64       __imp_?setSectionResizeMode@QHeaderView@@QAEXW4ResizeMode@1@@Z 0042ac64     Qt5Widgets:Qt5Widgets.dll
 0002:00000c68       __imp_??1QVBoxLayout@@UAE@XZ 0042ac68     Qt5Widgets:Qt5Widgets.dll
 0002:00000c6c       __imp_??0QVBoxLayout@@QAE@PAVQWidget@@@Z 0042ac6c     Qt5Widgets:Qt5Widgets.dll
 0002:00000c70       __imp_??1QHBoxLayout@@UAE@XZ 0042ac70     Qt5Widgets:Qt5Widgets.dll
 0002:00000c74       __imp_??0QHBoxLayout@@QAE@XZ 0042ac74     Qt5Widgets:Qt5Widgets.dll
 0002:00000c78       __imp_?setSpacing@QBoxLayout@@QAEXH@Z 0042ac78     Qt5Widgets:Qt5Widgets.dll
 0002:00000c7c       __imp_?addLayout@QBoxLayout@@QAEXPAVQLayout@@H@Z 0042ac7c     Qt5Widgets:Qt5Widgets.dll
 0002:00000c80       __imp_?addWidget@QBoxLayout@@QAEXPAVQWidget@@HV?$QFlags@W4AlignmentFlag@Qt@@@@@Z 0042ac80     Qt5Widgets:Qt5Widgets.dll
 0002:00000c84       __imp_?setSizeConstraint@QLayout@@QAEXW4SizeConstraint@1@@Z 0042ac84     Qt5Widgets:Qt5Widgets.dll
 0002:00000c88       __imp_?setContentsMargins@QLayout@@QAEXHHHH@Z 0042ac88     Qt5Widgets:Qt5Widgets.dll
 0002:00000c8c       __imp_??1QSpacerItem@@UAE@XZ 0042ac8c     Qt5Widgets:Qt5Widgets.dll
 0002:00000c90       __imp_??0QSpacerItem@@QAE@HHW4Policy@QSizePolicy@@0@Z 0042ac90     Qt5Widgets:Qt5Widgets.dll
 0002:00000c94       __imp_?setTitle@QGroupBox@@QAEXABVQString@@@Z 0042ac94     Qt5Widgets:Qt5Widgets.dll
 0002:00000c98       __imp_??1QGroupBox@@UAE@XZ 0042ac98     Qt5Widgets:Qt5Widgets.dll
 0002:00000c9c       __imp_??0QGroupBox@@QAE@PAVQWidget@@@Z 0042ac9c     Qt5Widgets:Qt5Widgets.dll
 0002:00000ca0       __imp_?setChecked@QAction@@QAEX_N@Z 0042aca0     Qt5Widgets:Qt5Widgets.dll
 0002:00000ca4       __imp_?setCheckable@QAction@@QAEX_N@Z 0042aca4     Qt5Widgets:Qt5Widgets.dll
 0002:00000ca8       __imp_?setShortcut@QAction@@QAEXABVQKeySequence@@@Z 0042aca8     Qt5Widgets:Qt5Widgets.dll
 0002:00000cac       __imp_?setText@QAction@@QAEXABVQString@@@Z 0042acac     Qt5Widgets:Qt5Widgets.dll
 0002:00000cb0       __imp_??1QAction@@UAE@XZ   0042acb0     Qt5Widgets:Qt5Widgets.dll
 0002:00000cb4       __imp_??0QAction@@QAE@PAVQObject@@@Z 0042acb4     Qt5Widgets:Qt5Widgets.dll
 0002:00000cb8       __imp_?addToolBar@QMainWindow@@QAEXW4ToolBarArea@Qt@@PAVQToolBar@@@Z 0042acb8     Qt5Widgets:Qt5Widgets.dll
 0002:00000cbc       __imp_?setCentralWidget@QMainWindow@@QAEXPAVQWidget@@@Z 0042acbc     Qt5Widgets:Qt5Widgets.dll
 0002:00000cc0       __imp_?setStatusBar@QMainWindow@@QAEXPAVQStatusBar@@@Z 0042acc0     Qt5Widgets:Qt5Widgets.dll
 0002:00000cc4       __imp_?setMenuBar@QMainWindow@@QAEXPAVQMenuBar@@@Z 0042acc4     Qt5Widgets:Qt5Widgets.dll
 0002:00000cc8       __imp_??1QMainWindow@@UAE@XZ 0042acc8     Qt5Widgets:Qt5Widgets.dll
 0002:00000ccc       __imp_??0QMainWindow@@QAE@PAVQWidget@@V?$QFlags@W4WindowType@Qt@@@@@Z 0042accc     Qt5Widgets:Qt5Widgets.dll
 0002:00000cd0       __imp_?addAction@QWidget@@QAEXPAVQAction@@@Z 0042acd0     Qt5Widgets:Qt5Widgets.dll
 0002:00000cd4       __imp_?setSizePolicy@QWidget@@QAEXVQSizePolicy@@@Z 0042acd4     Qt5Widgets:Qt5Widgets.dll
 0002:00000cd8       __imp_?sizePolicy@QWidget@@QBE?AVQSizePolicy@@XZ 0042acd8     Qt5Widgets:Qt5Widgets.dll
 0002:00000cdc       __imp_?setGeometry@QWidget@@QAEXABVQRect@@@Z 0042acdc     Qt5Widgets:Qt5Widgets.dll
 0002:00000ce0       __imp_?resize@QWidget@@QAEXABVQSize@@@Z 0042ace0     Qt5Widgets:Qt5Widgets.dll
 0002:00000ce4       __imp_?close@QWidget@@QAE_NXZ 0042ace4     Qt5Widgets:Qt5Widgets.dll
 0002:00000ce8       __imp_?setContextMenuPolicy@QWidget@@QAEXW4ContextMenuPolicy@Qt@@@Z 0042ace8     Qt5Widgets:Qt5Widgets.dll
 0002:00000cec       __imp_?setWindowIcon@QWidget@@QAEXABVQIcon@@@Z 0042acec     Qt5Widgets:Qt5Widgets.dll
 0002:00000cf0       __imp_?setWindowTitle@QWidget@@QAEXABVQString@@@Z 0042acf0     Qt5Widgets:Qt5Widgets.dll
 0002:00000cf4       __imp_?mapToGlobal@QWidget@@QBE?AVQPoint@@ABV2@@Z 0042acf4     Qt5Widgets:Qt5Widgets.dll
 0002:00000cf8       __imp_?setMaximumSize@QWidget@@QAEXHH@Z 0042acf8     Qt5Widgets:Qt5Widgets.dll
 0002:00000cfc       __imp_??1QWidget@@UAE@XZ   0042acfc     Qt5Widgets:Qt5Widgets.dll
 0002:00000d00       __imp_?winId@QWidget@@QBEIXZ 0042ad00     Qt5Widgets:Qt5Widgets.dll
 0002:00000d04       __imp_??0QWidget@@QAE@PAV0@V?$QFlags@W4WindowType@Qt@@@@@Z 0042ad04     Qt5Widgets:Qt5Widgets.dll
 0002:00000d08       __imp_?setVerticalStretch@QSizePolicy@@QAEXH@Z 0042ad08     Qt5Widgets:Qt5Widgets.dll
 0002:00000d0c       __imp_?setHorizontalStretch@QSizePolicy@@QAEXH@Z 0042ad0c     Qt5Widgets:Qt5Widgets.dll
 0002:00000d10       __imp_??0QSizePolicy@@QAE@W4Policy@0@0W4ControlType@0@@Z 0042ad10     Qt5Widgets:Qt5Widgets.dll
 0002:00000d14       __imp_?exec@QApplication@@SAHXZ 0042ad14     Qt5Widgets:Qt5Widgets.dll
 0002:00000d18       __imp_??1QApplication@@UAE@XZ 0042ad18     Qt5Widgets:Qt5Widgets.dll
 0002:00000d1c       __imp_??0QApplication@@QAE@AAHPAPADH@Z 0042ad1c     Qt5Widgets:Qt5Widgets.dll
 0002:00000d20       __imp_?show@QWidget@@QAEXXZ 0042ad20     Qt5Widgets:Qt5Widgets.dll
 0002:00000d24       __imp_?staticMetaObject@QDialog@@2UQMetaObject@@B 0042ad24     Qt5Widgets:Qt5Widgets.dll
 0002:00000d28       __imp_?qt_metacall@QDialog@@UAEHW4Call@QMetaObject@@HPAPAX@Z 0042ad28     Qt5Widgets:Qt5Widgets.dll
 0002:00000d2c       __imp_?qt_metacast@QDialog@@UAEPAXPBD@Z 0042ad2c     Qt5Widgets:Qt5Widgets.dll
 0002:00000d30       __imp_?paintEvent@QMenuBar@@MAEXPAVQPaintEvent@@@Z 0042ad30     Qt5Widgets:Qt5Widgets.dll
 0002:00000d34       __imp_?staticMetaObject@QMainWindow@@2UQMetaObject@@B 0042ad34     Qt5Widgets:Qt5Widgets.dll
 0002:00000d38       __imp_?metaObject@QTextEdit@@UBEPBUQMetaObject@@XZ 0042ad38     Qt5Widgets:Qt5Widgets.dll
 0002:00000d3c       __imp_?hideEvent@QMenu@@MAEXPAVQHideEvent@@@Z 0042ad3c     Qt5Widgets:Qt5Widgets.dll
 0002:00000d40       __imp_?initPainter@QWidget@@MBEXPAVQPainter@@@Z 0042ad40     Qt5Widgets:Qt5Widgets.dll
 0002:00000d44       \177Qt5Widgets_NULL_THUNK_DATA 0042ad44     Qt5Widgets:Qt5Widgets.dll
 0002:00000d48       __imp__CommandLineToArgvW@8 0042ad48     shell32:SHELL32.dll
 0002:00000d4c       __imp__ShellExecuteA@24    0042ad4c     shell32:SHELL32.dll
 0002:00000d50       \177SHELL32_NULL_THUNK_DATA 0042ad50     shell32:SHELL32.dll
 0002:00000d54       __imp__GetClassNameA@12    0042ad54     user32:USER32.dll
 0002:00000d58       __imp__SetWindowLongA@12   0042ad58     user32:USER32.dll
 0002:00000d5c       __imp__GetWindowLongA@8    0042ad5c     user32:USER32.dll
 0002:00000d60       __imp__MessageBoxA@16      0042ad60     user32:USER32.dll
 0002:00000d64       __imp__DestroyWindow@4     0042ad64     user32:USER32.dll
 0002:00000d68       __imp__IsWindow@4          0042ad68     user32:USER32.dll
 0002:00000d6c       __imp__CreateWindowExA@48  0042ad6c     user32:USER32.dll
 0002:00000d70       __imp__UnregisterClassA@8  0042ad70     user32:USER32.dll
 0002:00000d74       __imp__RegisterClassA@4    0042ad74     user32:USER32.dll
 0002:00000d78       __imp__DefWindowProcA@16   0042ad78     user32:USER32.dll
 0002:00000d7c       __imp__PostMessageA@16     0042ad7c     user32:USER32.dll
 0002:00000d80       __imp__SendMessageA@16     0042ad80     user32:USER32.dll
 0002:00000d84       __imp__wsprintfA           0042ad84     user32:USER32.dll
 0002:00000d88       \177USER32_NULL_THUNK_DATA 0042ad88     user32:USER32.dll
 0002:00000d8c       __imp__VerQueryValueA@16   0042ad8c     version:VERSION.dll
 0002:00000d90       __imp__GetFileVersionInfoA@16 0042ad90     version:VERSION.dll
 0002:00000d94       __imp__GetFileVersionInfoSizeA@8 0042ad94     version:VERSION.dll
 0002:00000d98       \177VERSION_NULL_THUNK_DATA 0042ad98     version:VERSION.dll
 0002:00000d9c       ___xc_a                    0042ad9c     MSVCRT:cinitexe.obj
 0002:00000dd8       ___xc_z                    0042add8     MSVCRT:cinitexe.obj
 0002:00000ddc       ___xi_a                    0042addc     MSVCRT:cinitexe.obj
 0002:00000dec       ___xi_z                    0042adec     MSVCRT:cinitexe.obj
 0002:00000df4       ??_7cBncsVersion@@6B@      0042adf4     cBncsVersion.obj
 0002:00000df8       ??_C@_0BJ@KPNNKBCP@?2VarFileInfo?2Translation?$AA@ 0042adf8     cBncsVersion.obj
 0002:00000e14       ??_C@_08EAKGLGNO@?$CF04X?$CF04X?$AA@ 0042ae14     cBncsVersion.obj
 0002:00000e20       ??_C@_0BP@OKGDDKKJ@?2StringFileInfo?2?$CFs?2FileVersion?$AA@ 0042ae20     cBncsVersion.obj
 0002:00000e40       ??_C@_01IHBHIGKO@?0?$AA@   0042ae40     cBncsVersion.obj
 0002:00000e44       ??_C@_0CD@DNOFBAPJ@?2StringFileInfo?2?$CFs?2FileDescripti@ 0042ae44     cBncsVersion.obj
 0002:00000e68       ??_C@_0BM@HLKDAPDC@?2StringFileInfo?2?$CFs?2Comments?$AA@ 0042ae68     cBncsVersion.obj
 0002:00000e84       ??_C@_0CA@EHAODNDK@?2StringFileInfo?2?$CFs?2InternalName?$AA@ 0042ae84     cBncsVersion.obj
 0002:00000ea4       ??_C@_0BP@MGNIHEJF@?2StringFileInfo?2?$CFs?2ProductName?$AA@ 0042aea4     cBncsVersion.obj
 0002:00000ec4       ??_C@_0BP@IFNEMNK@?2StringFileInfo?2?$CFs?2CompanyName?$AA@ 0042aec4     cBncsVersion.obj
 0002:00000ee4       ??_C@_0CC@BENIJKPI@?2StringFileInfo?2?$CFs?2LegalCopyrigh@ 0042aee4     cBncsVersion.obj
 0002:00000f08       ??_C@_0CC@IAGJDCJF@?2StringFileInfo?2?$CFs?2ProductVersio@ 0042af08     cBncsVersion.obj
 0002:00000f2c       ??_C@_0CD@CHCCGCCP@?2StringFileInfo?2?$CFs?2LegalTradeMar@ 0042af2c     cBncsVersion.obj
 0002:00000f50       ??_C@_0CA@GODGGLFO@?2StringFileInfo?2?$CFs?2PrivateBuild?$AA@ 0042af50     cBncsVersion.obj
 0002:00000f70       ??_C@_0CE@NLHFPOLE@?2StringFileInfo?2?$CFs?2OriginalFileN@ 0042af70     cBncsVersion.obj
 0002:00000f94       ??_C@_0CA@OOEBJJOA@?2StringFileInfo?2?$CFs?2SpecialBuild?$AA@ 0042af94     cBncsVersion.obj
 0002:00000fb8       ??_7bncs_disklog@@6B@      0042afb8     bncs_disklog.obj
 0002:00000fbc       ??_C@_07JBEBLGDD@CC_ROOT?$AA@ 0042afbc     bncs_disklog.obj
 0002:00000fc4       ??_C@_09DDAHAMBK@CC_SYSTEM?$AA@ 0042afc4     bncs_disklog.obj
 0002:00000fd0       ??_C@_0L@ILPMAFPO@?$CFs?2?$CFs?2logs?$AA@ 0042afd0     bncs_disklog.obj
 0002:00000fdc       ??_C@_0M@EEBKEKAD@c?3?2bncslogs?$AA@ 0042afdc     bncs_disklog.obj
 0002:00000fe8       ??_C@_0BG@DPKAAFIM@localtime?5has?5failed?6?$AA@ 0042afe8     bncs_disklog.obj
 0002:00001000       ??_C@_0N@GLHMENIG@?$CFs?2?$CFs?2?$CFs?4log?$AA@ 0042b000     bncs_disklog.obj
 0002:00001010       ??_C@_0BH@EBDFGIGN@?$CFs?2?$CFs?2?$CF04d?$CF02d?$CF02d?4log?$AA@ 0042b010     bncs_disklog.obj
 0002:00001028       ??_C@_0BM@MFEMPJOF@?$CFs?2?$CFs?2?$CF04d?$CF02d?$CF02d?9?$CF02d?4log?$AA@ 0042b028     bncs_disklog.obj
 0002:00001044       ??_C@_0CE@NIPIAOPO@bncs_disklog?3?5Can?8t?5open?5log?5fil@ 0042b044     bncs_disklog.obj
 0002:00001068       ??_C@_01EEMJAFIK@?6?$AA@   0042b068     bncs_disklog.obj
 0002:0000106c       ??_C@_0CE@NLINMDII@?$CF02d?1?$CF02d?1?$CF04d?5?$CF02d?3?$CF02d?3?$CF02d?4?$CF0@ 0042b06c     bncs_disklog.obj
 0002:00001090       ??_C@_02KEGNLNML@?0?5?$AA@ 0042b090     bncs_disklog.obj
 0002:00001094       ??_C@_02PCIJFNDE@?$AN?6?$AA@ 0042b094     bncs_disklog.obj
 0002:00001098       ??_C@_01KICIPPFI@?2?$AA@   0042b098     bncs_disklog.obj
 0002:000010a0       ??_7error_category@std@@6B@ 0042b0a0     ccCheck.obj
 0002:000010b8       ??_C@_02LMMGGCAJ@?3?5?$AA@ 0042b0b8     ccCheck.obj
 0002:000010c0       ??_7_Generic_error_category@std@@6B@ 0042b0c0     ccCheck.obj
 0002:000010d8       ??_C@_07DCLBNMLN@generic?$AA@ 0042b0d8     ccCheck.obj
 0002:000010e0       ??_C@_0O@BFJCFAAK@unknown?5error?$AA@ 0042b0e0     ccCheck.obj
 0002:000010f4       ??_7_Iostream_error_category@std@@6B@ 0042b0f4     ccCheck.obj
 0002:0000110c       ??_C@_08LLGCOLLL@iostream?$AA@ 0042b10c     ccCheck.obj
 0002:00001118       ??_C@_0BG@PADBLCHM@iostream?5stream?5error?$AA@ 0042b118     ccCheck.obj
 0002:00001134       ??_7_System_error_category@std@@6B@ 0042b134     ccCheck.obj
 0002:0000114c       ??_C@_06FHFOAHML@system?$AA@ 0042b14c     ccCheck.obj
 0002:00001158       ??_7ccCheck@@6B@           0042b158     ccCheck.obj
 0002:0000115c       ??_C@_0CJ@PMKCGGCL@Device?5Number?5of?5out?5range?5?$CIless@ 0042b15c     ccCheck.obj
 0002:00001188       ??_C@_0CL@LCKFFHKG@Device?5Number?5of?5out?5range?5?$CI?$DO?5MA@ 0042b188     ccCheck.obj
 0002:000011b4       ??_C@_0CI@IGLAJDJI@Index?5Number?5of?5out?5range?5?$CIless?5@ 0042b1b4     ccCheck.obj
 0002:000011dc       ??_C@_0CI@PMCCDFOB@Index?5Number?5of?5out?5range?5?$CI?$DO?5MAX@ 0042b1dc     ccCheck.obj
 0002:00001204       ??_C@_0DC@OGFBPEGN@Source?5Number?5of?5out?5range?5?$CIless@ 0042b204     ccCheck.obj
 0002:00001238       ??_C@_0CJ@EKBPLHLJ@Source?5Number?5of?5out?5range?5?$CI?$DO?5MA@ 0042b238     ccCheck.obj
 0002:00001264       ??_C@_0BK@BPKEILLL@Invalid?5range?5?$CIstart?$DOend?$CJ?$AA@ 0042b264     ccCheck.obj
 0002:00001280       ??_C@_0BK@LPOMIHEL@Invalid?5database?5?$CI?$CFd?$DO?$DN?$CFd?$CJ?$AA@ 0042b280     ccCheck.obj
 0002:0000129c       ??_C@_0BM@OBNIHFBG@Note?3?5string?5?$DO?5characters?3?5?$AA@ 0042b29c     ccCheck.obj
 0002:000012b8       ??_C@_0CF@IABOACOB@Workstation?5number?5invalid?5?$CI?$DM?51?$CJ@ 0042b2b8     ccCheck.obj
 0002:000012e0       ??_C@_0DE@NBJHIANK@Workstation?5number?5invalid?5?$CI?$DO?5MA@ 0042b2e0     ccCheck.obj
 0002:00001314       ??_C@_0BA@JFNIOLAK@string?5too?5long?$AA@ 0042b314     ccCheck.obj
 0002:00001324       ??_C@_0BI@CFPLBAOH@invalid?5string?5position?$AA@ 0042b324     ccCheck.obj
 0002:0000133c       ??_C@_00CNPNBAHC@?$AA@     0042b33c     ccClient.obj
 0002:00001340       ??_C@_02GMHACPFF@?$CFu?$AA@ 0042b340     ccClient.obj
 0002:00001348       ??_7ccClient@@6B@          0042b348     ccClient.obj
 0002:0000134c       ??_C@_0BJ@JOJMAJDN@ccClientMessageWindow_?$CFp?$AA@ 0042b34c     ccClient.obj
 0002:00001368       ??_C@_0CI@HDLJCNHG@Cannot?5create?5ccClientMessageWin@ 0042b368     ccClient.obj
 0002:00001390       ??_C@_0BE@FKAJGBAE@Very?5Serious?5Error?$CB?$AA@ 0042b390     ccClient.obj
 0002:000013a4       ??_C@_0BL@HLDPIAEG@ccclient?5message?5window?5?$CFd?$AA@ 0042b3a4     ccClient.obj
 0002:000013c0       ??_C@_0BA@OPCDEPBM@handleShare?4dll?$AA@ 0042b3c0     ccClient.obj
 0002:000013d0       ??_C@_07OLHBNAMO@csiHwnd?$AA@ 0042b3d0     ccClient.obj
 0002:000013d8       ??_C@_0CK@BMPKJFHD@ccClient?3?5CSI?5handle?5from?5handle@ 0042b3d8     ccClient.obj
 0002:00001404       ??_C@_0DP@KMLDKLPC@ccClient?3?5REQUESTING?5CSI?5handle?5@ 0042b404     ccClient.obj
 0002:00001444       ??_C@_0DE@GHIGEGJI@ccClient?3?5CSI?5handle?5from?5Broadc@ 0042b444     ccClient.obj
 0002:00001478       ??_C@_0BN@DDDBHADP@?$CL?$CL?5number?5of?5databases?5is?5?$CFd?$AA@ 0042b478     ccClient.obj
 0002:00001498       ??_C@_05HOPBAMFM@?9?5?9?5?9?$AA@ 0042b498     ccClient.obj
 0002:000014a0       ??_C@_08NCJLILKM@DG?5?$CFd?5?$CFd?$AA@ 0042b4a0     ccClient.obj
 0002:000014ac       ??_C@_02JDNIPIGD@NA?$AA@   0042b4ac     ccClient.obj
 0002:000014b0       ??_C@_02FLABHCGL@NI?$AA@   0042b4b0     ccClient.obj
 0002:000014b4       ??_C@_02LIPFKLKA@NB?$AA@   0042b4b4     ccClient.obj
 0002:000014b8       ??_C@_02PHHIKPHE@IR?$AA@   0042b4b8     ccClient.obj
 0002:000014bc       ??_C@_02OHALODOF@RR?$AA@   0042b4bc     ccClient.obj
 0002:000014c0       ??_C@_02PNOGICHO@GR?$AA@   0042b4c0     ccClient.obj
 0002:000014c4       ??_C@_02OLCMIILA@NS?$AA@   0042b4c4     ccClient.obj
 0002:000014c8       ??_C@_02KMHJBPDH@DC?$AA@   0042b4c8     ccClient.obj
 0002:000014cc       ??_C@_0DG@EAEPBJGP@shim?3?5database?5modify?5index?5?$DM1?5o@ 0042b4cc     ccClient.obj
 0002:00001504       ??_C@_0M@EADEFJIO@DC?5?$CFd?5?$CFd?5?$CFd?$AA@ 0042b504     ccClient.obj
 0002:00001510       ??_C@_0BE@NOLEOGLE@RC?5?$CFd?5?$CFd?5?$CFd?5?8?$CFs?8?5?$CFd?$AA@ 0042b510     ccClient.obj
 0002:00001524       ??_C@_0BG@HODKLCHC@Bum?5device?5query?5type?$AA@ 0042b524     ccClient.obj
 0002:0000153c       ??_C@_0BA@GBFKGHBO@?$CFcP?5?$CFd?5?$CFd?5?$CFd?5?$CFd?$AA@ 0042b53c     ccClient.obj
 0002:0000154c       ??_C@_0BB@HPDMKDPM@IW?5?$CFd?5?8?$CFs?8?5?$CFd?5?$CFd?$AA@ 0042b54c     ccClient.obj
 0002:00001560       ??_C@_0BD@KKNGLPCL@?$CFcL?5?$CFd?5?$CFd?5?$CFd?5?$CFd?5?$CFd?$AA@ 0042b560     ccClient.obj
 0002:00001574       ??_C@_0P@EJIMPHOB@GS?5?$CFd?5?$CFd?5?$CFd?5?$CFd?$AA@ 0042b574     ccClient.obj
 0002:00001584       ??_C@_0DA@ICCPEBHB@database?5modify?5index?5?$DM0?5or?5?$DO?5ma@ 0042b584     ccClient.obj
 0002:000015b4       ??_C@_0BK@BPFDKEPI@RM?5?$CFd?5?$CFd?5?$CFd?5?8?$CFs?8?5?$CFd?5?$CFd?5?$CFd?$AA@ 0042b5b4     ccClient.obj
 0002:000015d0       ??_C@_0BC@KBDMBKEH@deque?$DMT?$DO?5too?5long?$AA@ 0042b5d0     ccClient.obj
 0002:000015e4       ??_C@_02DPKJAMEF@?$CFd?$AA@ 0042b5e4     ccConfig.obj
 0002:000015ec       ??_7ccConfig@@6B@          0042b5ec     ccConfig.obj
 0002:000015f0       ??_C@_07IOFNEBNE@?2config?$AA@ 0042b5f0     ccConfig.obj
 0002:000015f8       ??_C@_0BD@FFAKGAPP@c?3?2bncs_config?4ini?$AA@ 0042b5f8     ccConfig.obj
 0002:0000160c       ??_C@_0L@DHJBNFFA@ConfigPath?$AA@ 0042b60c     ccConfig.obj
 0002:00001618       ??_C@_06LLCHJONG@Config?$AA@ 0042b618     ccConfig.obj
 0002:00001620       ??_C@_06KIMFAMMH@WINDIR?$AA@ 0042b620     ccConfig.obj
 0002:00001628       ??_C@_0P@PKHJHOPF@CC_WORKSTATION?$AA@ 0042b628     ccConfig.obj
 0002:00001638       ??_C@_0M@CILGCIDH@Workstation?$AA@ 0042b638     ccConfig.obj
 0002:00001644       ??_C@_07BGDMAJAE@Network?$AA@ 0042b644     ccConfig.obj
 0002:0000164c       ??_C@_0BO@GPPILLIC@config?2system?2bncs_system?4ini?$AA@ 0042b64c     ccConfig.obj
 0002:0000166c       ??_C@_07PIGLAMMC@csi?4ini?$AA@ 0042b66c     ccConfig.obj
 0002:00001674       ??_C@_06JIODDOFH@System?$AA@ 0042b674     ccConfig.obj
 0002:0000167c       ??_C@_0N@LDBPMCOK@applcore?4ini?$AA@ 0042b67c     ccConfig.obj
 0002:0000168c       ??_C@_01KDCPPGHE@r?$AA@    0042b68c     ccConfig.obj
 0002:00001690       ??_C@_01LBDDMOBJ@?$FN?$AA@ 0042b690     ccConfig.obj
 0002:00001694       ??_C@_01OHGJGJJP@?$FL?$AA@ 0042b694     ccConfig.obj
 0002:00001698       ??_C@_02CHHAKFFB@w?$CL?$AA@ 0042b698     ccConfig.obj
 0002:0000169c       ??_C@_04MMEBIPMJ@?4tmp?$AA@ 0042b69c     ccConfig.obj
 0002:000016a4       ??_C@_05MGFEFMAH@?$FL?$CFs?$FN?6?$AA@ 0042b6a4     ccConfig.obj
 0002:000016ac       ??_C@_06BAKFFEGN@?$CFs?$DN?$CFs?6?$AA@ 0042b6ac     ccConfig.obj
 0002:000016b4       ??_C@_06EOIKHNJE@?6?$FL?$CFs?$FN?6?$AA@ 0042b6b4     ccConfig.obj
 0002:000016bc       ??_C@_0BB@MOGOBHAF@list?$DMT?$DO?5too?5long?$AA@ 0042b6bc     ccConfig.obj
 0002:000016d0       ??_C@_0BE@JONHPENG@map?1set?$DMT?$DO?5too?5long?$AA@ 0042b6d0     ccConfig.obj
 0002:000016e4       ??_C@_07DLHCIBDH@default?$AA@ 0042b6e4     appGlobal.obj
 0002:000016ec       ??_C@_0L@EFPEPNKG@?$CF1?2?$CF2?2data?$AA@ 0042b6ec     appGlobal.obj
 0002:000016f8       ??_C@_0BL@HMELHBKN@dd?1MM?1yyyy?5hh?3mm?3ss?3zzz?5?9?5?$AA@ 0042b6f8     appGlobal.obj
 0002:00001714       ??_C@_07HNEBHIML@?$DM?1font?$DO?$AA@ 0042b714     appGlobal.obj
 0002:0000171c       ??_C@_0BG@PJOGPAOB@?5?9?5?$DMfont?5color?$DN?$CCred?$CC?$DO?$AA@ 0042b71c     appGlobal.obj
 0002:00001734       ??_C@_0BI@JBDIFFME@dd?1MM?1yyyy?5hh?3mm?3ss?3zzz?$AA@ 0042b734     appGlobal.obj
 0002:0000174c       ??_C@_0O@LCDBFPIE@slink_server_?$AA@ 0042b74c     appGlobal.obj
 0002:0000175c       ??_C@_04PHHEBHMK@?4ini?$AA@ 0042b75c     appGlobal.obj
 0002:00001764       ??_C@_0N@LEJNNPOP@slinkServer_?$AA@ 0042b764     appGlobal.obj
 0002:00001774       ??_C@_0BI@BIDLJLNG@slinkServer_default?4ini?$AA@ 0042b774     appGlobal.obj
 0002:00001790       ??_7clientsRegistration@@6B@ 0042b790     clientsRegistration.obj
 0002:00001798       ??_7databaseSync@@6B@      0042b798     databaseSync.obj
 0002:0000179c       ??_C@_0BA@MFELPCMP@?$CF1?2slink_?$CF2?4txt?$AA@ 0042b79c     databaseSync.obj
 0002:000017ac       ??_C@_0M@GNLFJEJJ@slinkServer?$AA@ 0042b7ac     databaseSync.obj
 0002:000017b8       ??_C@_01GBGANLPD@0?$AA@    0042b7b8     databaseSync.obj
 0002:000017bc       ??_C@_07CLMKHMLD@transId?$AA@ 0042b7bc     databaseSync.obj
 0002:000017c4       ??_C@_05JNKNAC@State?$AA@  0042b7c4     databaseSync.obj
 0002:000017cc       ??_C@_0P@KJEEBGGO@save?3?5?$CF1?5?$CF2?5?$CF3?$AA@ 0042b7cc     databaseSync.obj
 0002:000017dc       ??_C@_02PIGFKFFE@?$CF1?$AA@ 0042b7dc     databaseSync.obj
 0002:000017e0       ??_C@_0BD@FKPPCGIG@?$CF1?2slink_?$CF2_?$CF3?4txt?$AA@ 0042b7e0     databaseSync.obj
 0002:000017f4       ??_C@_05LMAPJLBD@?$CF1?0?$CF2?$AA@ 0042b7f4     databaseSync.obj
 0002:000017fc       ??_C@_0BF@MFFDHMNJ@setTransId?3?5?$CF1?5?$CF2?5?$CF3?$AA@ 0042b7fc     databaseSync.obj
 0002:00001814       ??_C@_0N@PJNIGIDN@?$CF1?2slink?4txt?$AA@ 0042b814     databaseSync.obj
 0002:00001824       ??_C@_09BCJLHPMN@device_?$CF1?$AA@ 0042b824     databaseSync.obj
 0002:00001830       ??_C@_0BA@HMDOEHPN@transId?5for?5?3?$CF1?$AA@ 0042b830     databaseSync.obj
 0002:00001840       ??_C@_0M@HMPNDKGE@transId?3?5?$CF1?$AA@ 0042b840     databaseSync.obj
 0002:00001850       ??_7decodeBNCSString@@6B@  0042b850     decodeBNCSString.obj
 0002:00001858       ??_7fabianServer@@6B@      0042b858     fabianServer.obj
 0002:00001890       ??_C@_0DL@JOMFGFFE@slinkServer?3?5Can?8t?5listen?5on?5ser@ 0042b890     fabianServer.obj
 0002:000018cc       ??_C@_0BG@LIDBACJE@1socketDisconnected?$CI?$CJ?$AA@ 0042b8cc     fabianServer.obj
 0002:000018e4       ??_C@_0BA@GKAMIBNA@2disconnected?$CI?$CJ?$AA@ 0042b8e4     fabianServer.obj
 0002:000018f4       ??_C@_0BK@CPCDNPMP@Client?5not?5on?5whitelist?3?5?$AA@ 0042b8f4     fabianServer.obj
 0002:00001910       ??_C@_0BG@KDMAPJLA@Client?5on?5blacklist?3?5?$AA@ 0042b910     fabianServer.obj
 0002:00001928       ??_C@_0CM@MNGGKGHH@void?5fabianServer?3?3socketDisconn@ 0042b928     fabianServer.obj
 0002:0000195c       ??_SQSslSocket@@6B@        0042b95c     fabian_client.obj
 0002:000019f8       ??_7fabian_client@@6BQObject@@@ 0042b9f8     fabian_client.obj
 0002:00001a28       ??_7fabian_client@@6BQTreeWidgetItem@@@ 0042ba28     fabian_client.obj
 0002:00001a44       ??_C@_05BNCHFHLA@slink?$AA@ 0042ba44     fabian_client.obj
 0002:00001a4c       ??_C@_04CEPMGKMG@Echo?$AA@ 0042ba4c     fabian_client.obj
 0002:00001a54       ??_C@_0BD@FMCBOAMA@1socketReadyRead?$CI?$CJ?$AA@ 0042ba54     fabian_client.obj
 0002:00001a68       ??_C@_0N@HMJECBDI@2readyRead?$CI?$CJ?$AA@ 0042ba68     fabian_client.obj
 0002:00001a78       ??_C@_0CL@EEBDEMLD@1socketError?$CIQAbstractSocket?3?3So@ 0042ba78     fabian_client.obj
 0002:00001aa4       ??_C@_0CF@FLCPHEEE@2error?$CIQAbstractSocket?3?3SocketEr@ 0042baa4     fabian_client.obj
 0002:00001acc       ??_C@_0BD@LJIHNHHK@1socketEncrypted?$CI?$CJ?$AA@ 0042bacc     fabian_client.obj
 0002:00001ae0       ??_C@_0N@JJDCBGIC@2encrypted?$CI?$CJ?$AA@ 0042bae0     fabian_client.obj
 0002:00001af0       ??_C@_0CK@MMMEHMDC@1socketSslErrors?$CIconst?5QList?$DMQSs@ 0042baf0     fabian_client.obj
 0002:00001b1c       ??_C@_0CE@CKHPOFOB@2sslErrors?$CIconst?5QList?$DMQSslError@ 0042bb1c     fabian_client.obj
 0002:00001b40       ??_C@_0BO@HBEOKKHD@1sslMode?$CIQSslSocket?3?3SslMode?$CJ?$AA@ 0042bb40     fabian_client.obj
 0002:00001b60       ??_C@_0CC@FDHEOIAF@2modeChanged?$CIQSslSocket?3?3SslMode@ 0042bb60     fabian_client.obj
 0002:00001b84       ??_C@_0BA@IHADBFA@?$CF1?2certs?2?$CF2?4crt?$AA@ 0042bb84     fabian_client.obj
 0002:00001b94       ??_C@_0N@NGGCJKBK@team?4bncs?4tv?$AA@ 0042bb94     fabian_client.obj
 0002:00001ba4       ??_C@_0L@DEDJMLEF@domainname?$AA@ 0042bba4     fabian_client.obj
 0002:00001bb0       ??_C@_0BA@GBADNCAH@?$CF1?2certs?2?$CF2?4key?$AA@ 0042bbb0     fabian_client.obj
 0002:00001bc0       ??_C@_0BO@PEKNJJLD@Can?8t?5open?5certificate?5file?3?5?$AA@ 0042bbc0     fabian_client.obj
 0002:00001be0       ??_C@_0BD@EPBLJIKC@Certificate?5file?3?5?$AA@ 0042bbe0     fabian_client.obj
 0002:00001bf4       ??_C@_0BG@HBAJPHLJ@Can?8t?5open?5key?5file?3?5?$AA@ 0042bbf4     fabian_client.obj
 0002:00001c0c       ??_C@_0L@NIHGPGIA@Key?5file?3?5?$AA@ 0042bc0c     fabian_client.obj
 0002:00001c18       ??_C@_07PPEFBMAH@TlsV1_2?$AA@ 0042bc18     fabian_client.obj
 0002:00001c20       ??_C@_0M@KKIMNFOH@SslProtocol?$AA@ 0042bc20     fabian_client.obj
 0002:00001c2c       ??_C@_05KIBOICEF@sslv3?$AA@ 0042bc2c     fabian_client.obj
 0002:00001c34       ??_C@_05LBAFLDAE@sslv2?$AA@ 0042bc34     fabian_client.obj
 0002:00001c3c       ??_C@_07PFMEDDNH@tlsv1_0?$AA@ 0042bc3c     fabian_client.obj
 0002:00001c44       ??_C@_07OMNPACJG@tlsv1_1?$AA@ 0042bc44     fabian_client.obj
 0002:00001c4c       ??_C@_07MHPCFBFF@tlsv1_2?$AA@ 0042bc4c     fabian_client.obj
 0002:00001c54       ??_C@_0M@HEIKDMLP@anyprotocol?$AA@ 0042bc54     fabian_client.obj
 0002:00001c60       ??_C@_0L@FKHOJOGE@tlsv1sslv3?$AA@ 0042bc60     fabian_client.obj
 0002:00001c6c       ??_C@_0BA@BCJMGPIP@secureprotocols?$AA@ 0042bc6c     fabian_client.obj
 0002:00001c7c       ??_C@_0P@FPLHCHPL@tlsv1_0orlater?$AA@ 0042bc7c     fabian_client.obj
 0002:00001c8c       ??_C@_0P@EIMMDDLI@tlsv1_1orlater?$AA@ 0042bc8c     fabian_client.obj
 0002:00001c9c       ??_C@_0P@HBEBAPHN@tlsv1_2orlater?$AA@ 0042bc9c     fabian_client.obj
 0002:00001cac       ??_C@_0BI@CDJENDEK@SSL?5certificate?5is?5null?$AA@ 0042bcac     fabian_client.obj
 0002:00001cc4       ??_C@_0BM@MOOJNGDP@SSL?5certificate?5issued?5by?3?5?$AA@ 0042bcc4     fabian_client.obj
 0002:00001ce0       ??_C@_0BA@KCADEOKO@SSL?5key?5is?5null?$AA@ 0042bce0     fabian_client.obj
 0002:00001cf0       ??_C@_0BH@NCPAKOFC@SSL?5Protocol?5is?3?5SslV3?$AA@ 0042bcf0     fabian_client.obj
 0002:00001d08       ??_C@_0BH@MLOLJPBD@SSL?5Protocol?5is?3?5SslV2?$AA@ 0042bd08     fabian_client.obj
 0002:00001d20       ??_C@_0BJ@MCJPKBEM@SSL?5Protocol?5is?3?5TlsV1_0?$AA@ 0042bd20     fabian_client.obj
 0002:00001d3c       ??_C@_0BJ@NLIEJAAN@SSL?5Protocol?5is?3?5TlsV1_1?$AA@ 0042bd3c     fabian_client.obj
 0002:00001d58       ??_C@_0BJ@PAKJMDMO@SSL?5Protocol?5is?3?5TlsV1_2?$AA@ 0042bd58     fabian_client.obj
 0002:00001d74       ??_C@_0BN@BKOBHBE@SSL?5Protocol?5is?3?5AnyProtocol?$AA@ 0042bd74     fabian_client.obj
 0002:00001d94       ??_C@_0BM@CLBHOKHA@SSL?5Protocol?5is?3?5TlsV1SslV3?$AA@ 0042bd94     fabian_client.obj
 0002:00001db0       ??_C@_0CB@JBEKHELK@SSL?5Protocol?5is?3?5SecureProtocols@ 0042bdb0     fabian_client.obj
 0002:00001dd4       ??_C@_0CA@DODDOLNH@SSL?5Protocol?5is?3?5TlsV1_0OrLater?$AA@ 0042bdd4     fabian_client.obj
 0002:00001df4       ??_C@_0CA@CJEIPPJE@SSL?5Protocol?5is?3?5TlsV1_1OrLater?$AA@ 0042bdf4     fabian_client.obj
 0002:00001e14       ??_C@_0CA@BAMFMDFB@SSL?5Protocol?5is?3?5TlsV1_2OrLater?$AA@ 0042be14     fabian_client.obj
 0002:00001e34       ??_C@_0CB@GJOEMJLB@SSL?5Protocol?5is?3?5UnknownProtocol@ 0042be34     fabian_client.obj
 0002:00001e58       ??_C@_06POCGAIMF@?$CF1?3?$CF2?5?$AA@ 0042be58     fabian_client.obj
 0002:00001e60       ??_C@_0P@ENNEIMJB@new?5connection?$AA@ 0042be60     fabian_client.obj
 0002:00001e70       ??_C@_0CA@LOACIGCO@fabian_client?3?3?$HOfabian_client?$CI?$CJ?$AA@ 0042be70     fabian_client.obj
 0002:00001e90       ??_C@_09KLPLELGE@Encrypted?$AA@ 0042be90     fabian_client.obj
 0002:00001e9c       ??_C@_0BJ@HBCOIBJI@fabian_client?3?3encrypted?$AA@ 0042be9c     fabian_client.obj
 0002:00001eb8       ??_C@_0BA@HNBFDEIG@SSL?5Cipher?5is?3?5?$AA@ 0042beb8     fabian_client.obj
 0002:00001ec8       ??_C@_0BD@CMNMOKKK@Connection?5closed?4?$AA@ 0042bec8     fabian_client.obj
 0002:00001edc       ??_C@_0CC@PHPMDFKP@fabian_client?3?3disconnected?5?$CFp?5?$CF@ 0042bedc     fabian_client.obj
 0002:00001f00       ??_C@_0CN@NFLOEGIJ@fabian_client?3?3sslErrors?5there?5a@ 0042bf00     fabian_client.obj
 0002:00001f30       ??_C@_0CA@KIJJJFPB@SSL?5Socket?5Errors?$CI?$CF?51?5follow?$CJ?5?3?$AA@ 0042bf30     fabian_client.obj
 0002:00001f50       ??_C@_0BD@MBFJIHAG@SSL?5socket?5error?3?5?$AA@ 0042bf50     fabian_client.obj
 0002:00001f64       ??_C@_07CPNAAJHE@server?3?$AA@ 0042bf64     fabian_client.obj
 0002:00001f6c       ??_C@_03MONEAAOB@SUQ?$AA@  0042bf6c     fabian_client.obj
 0002:00001f70       ??_C@_04FFDNMGAB@SUN?5?$AA@ 0042bf70     fabian_client.obj
 0002:00001f78       ??_C@_04EDIFEIHL@SUP?5?$AA@ 0042bf78     fabian_client.obj
 0002:00001f80       ??_C@_0L@BEKABNGL@Ready?4?4?4?$AN?6?$AA@ 0042bf80     fabian_client.obj
 0002:00001f8c       ??_C@_04FNOFFFFC@SUC?5?$AA@ 0042bf8c     fabian_client.obj
 0002:00001f94       ??_C@_0BJ@HHJADOFN@Control?5access?5granted?$AN?6?$AA@ 0042bf94     fabian_client.obj
 0002:00001fb0       ??_C@_03CCLAEDDF@Yes?$AA@  0042bfb0     fabian_client.obj
 0002:00001fb4       ??_C@_0O@IMMLCCCK@Authenticated?$AA@ 0042bfb4     fabian_client.obj
 0002:00001fc4       ??_C@_0BM@NCCGDOCF@Login?5credentials?5declined?5?$AA@ 0042bfc4     fabian_client.obj
 0002:00001fe0       ??_C@_08MHLNLMLI@Declined?$AA@ 0042bfe0     fabian_client.obj
 0002:00001fec       ??_C@_0CI@KKCIEKK@ERR?5555?5?$CISUC?$CJ?5?9?5Control?5access?5d@ 0042bfec     fabian_client.obj
 0002:00002014       ??_C@_04FJGICJOA@SUE?5?$AA@ 0042c014     fabian_client.obj
 0002:0000201c       ??_C@_04HHDAEAOC@ALR?5?$AA@ 0042c01c     fabian_client.obj
 0002:00002028       ??_C@_0FH@MNJJKODH@List?5Router?5requested?5where?5ther@ 0042c028     fabian_client.obj
 0002:00002080       ??_C@_0FC@LNCBCGEG@ERR?5570?5?$CIALR?$CJ?5Denied?5?9?5you?5do?5no@ 0042c080     fabian_client.obj
 0002:000020d4       ??_C@_04NCMKDKFK@ARN?5?$AA@ 0042c0d4     fabian_client.obj
 0002:000020e0       ??_C@_0FH@KKFHJDBO@Router?5Name?5requested?5where?5ther@ 0042c0e0     fabian_client.obj
 0002:00002138       ??_C@_0FC@IGHBNDI@ERR?5570?5?$CIARN?$CJ?5Denied?5?9?5you?5do?5no@ 0042c138     fabian_client.obj
 0002:0000218c       ??_C@_03BJFAIKGJ@AGS?$AA@  0042c18c     fabian_client.obj
 0002:00002190       ??_C@_0DA@PIJBEIJ@ERR?5561?5?$CIAGS?$CJ?5?9?5denied?5?$CIDevice?3?$CF@ 0042c190     fabian_client.obj
 0002:000021c0       ??_C@_0P@KNEGCFEH@Access?5denied?5?$AA@ 0042c1c0     fabian_client.obj
 0002:000021d0       ??_C@_03HHKCGCGH@AIW?$AA@  0042c1d0     fabian_client.obj
 0002:000021d4       ??_C@_0DA@ENGLLIGO@ERR?5561?5?$CIAIW?$CJ?5?9?5denied?5?$CIDevice?3?$CF@ 0042c1d4     fabian_client.obj
 0002:00002204       ??_C@_03EJHPPJKD@ARC?$AA@  0042c204     fabian_client.obj
 0002:00002208       ??_C@_0DA@ODPLLPA@ERR?5561?5?$CIARC?$CJ?5?9?5denied?5?$CIDevice?3?$CF@ 0042c208     fabian_client.obj
 0002:00002238       ??_C@_03KNFJGCC@AIR?$AA@   0042c238     fabian_client.obj
 0002:0000223c       ??_C@_03BKKGNKLD@ARR?$AA@  0042c23c     fabian_client.obj
 0002:00002240       ??_C@_03ELLLCI@AGR?$AA@    0042c240     fabian_client.obj
 0002:00002248       ??_C@_0GC@NOFBCPJB@Revertive?5Registration?5requested@ 0042c248     fabian_client.obj
 0002:000022b0       ??_C@_0FD@IBDBMFJG@ERR?5570?5?$CIA?$CF1R?$CJ?5Denied?5?9?5you?5do?5n@ 0042c2b0     fabian_client.obj
 0002:00002304       ??_C@_03EFJEAAOF@AIU?$AA@  0042c304     fabian_client.obj
 0002:00002308       ??_C@_03FFOHEMHE@ARU?$AA@  0042c308     fabian_client.obj
 0002:0000230c       ??_C@_03EPAKCNOP@AGU?$AA@  0042c30c     fabian_client.obj
 0002:00002310       ??_C@_03NEAKIEPH@AGL?$AA@  0042c310     fabian_client.obj
 0002:00002314       ??_C@_03MOOHOFGM@ARL?$AA@  0042c314     fabian_client.obj
 0002:00002318       ??_C@_03NOJEKJPN@AIL?$AA@  0042c318     fabian_client.obj
 0002:0000231c       ??_C@_0DE@MAAELMHG@ERR?5561?5?$CIA?$CF1L?$CJ?5?9?5denied?5?$CIDevice?3@ 0042c31c     fabian_client.obj
 0002:00002350       ??_C@_03DCHNNJKK@AGP?$AA@  0042c350     fabian_client.obj
 0002:00002354       ??_C@_03CLGGOIOL@AGQ?$AA@  0042c354     fabian_client.obj
 0002:00002358       ??_C@_0ED@CDGKPFIP@Poll?5command?5with?5no?5read?5permis@ 0042c358     fabian_client.obj
 0002:000023a0       ??_C@_0FC@ILECOAEN@ERR?5570?5?$CIAGP?$CJ?5Denied?5?9?5you?5do?5no@ 0042c3a0     fabian_client.obj
 0002:000023f4       ??_C@_0CD@BJJKLGFE@Poll?5command?5outside?5permissions@ 0042c3f4     fabian_client.obj
 0002:00002418       ??_C@_03CIJALIDB@ARP?$AA@  0042c418     fabian_client.obj
 0002:0000241c       ??_C@_03DBILIJHA@ARQ?$AA@  0042c41c     fabian_client.obj
 0002:00002420       ??_C@_0FC@BAOMOJIE@ERR?5570?5?$CIARP?$CJ?5Denied?5?9?5you?5do?5no@ 0042c420     fabian_client.obj
 0002:00002474       ??_C@_03DIODPEKA@AIP?$AA@  0042c474     fabian_client.obj
 0002:00002478       ??_C@_03CBPIMFOB@AIQ?$AA@  0042c478     fabian_client.obj
 0002:00002480       ??_C@_0FC@KJJGIKNA@ERR?5570?5?$CIAIP?$CJ?5Denied?5?9?5you?5do?5no@ 0042c480     fabian_client.obj
 0002:000024d4       ??_C@_03NHPMNECN@ARM?$AA@  0042c4d4     fabian_client.obj
 0002:000024d8       ??_C@_03FBNECGGB@ADC?$AA@  0042c4d8     fabian_client.obj
 0002:000024dc       ??_C@_0BO@CFOBFBHP@ERR?5561?5?$CIARM?$CJ?5?9?5denied?5?$CI?$CF1?$CJ?$AN?6?$AA@ 0042c4dc     fabian_client.obj
 0002:000024fc       ??_C@_03BLNKKGCD@ACD?$AA@  0042c4fc     fabian_client.obj
 0002:00002500       ??_C@_0FN@KJACAPAC@Database?5Checksum?5requested?5wher@ 0042c500     fabian_client.obj
 0002:00002560       ??_C@_0FC@EOAOADPG@ERR?5570?5?$CIACD?$CJ?5Denied?5?9?5you?5do?5no@ 0042c560     fabian_client.obj
 0002:000025b4       ??_C@_03DADLGHPD@ADP?$AA@  0042c5b4     fabian_client.obj
 0002:000025b8       ??_C@_0FK@OGHLDNAL@Device?5Profile?5requested?5where?5t@ 0042c5b8     fabian_client.obj
 0002:00002618       ??_C@_0FC@KCCOBCLA@ERR?5570?5?$CIADP?$CJ?5Denied?5?9?5you?5do?5no@ 0042c618     fabian_client.obj
 0002:0000266c       ??_C@_03NIHILCAF@GSN?$AA@  0042c66c     fabian_client.obj
 0002:00002670       ??_C@_09FDAMKMKA@Anonymous?$AA@ 0042c670     fabian_client.obj
 0002:0000267c       ??_C@_0L@FFDIDHBB@ServerName?$AA@ 0042c67c     fabian_client.obj
 0002:00002688       ??_C@_08NILFDOMB@GSN?5?$CF1?$AN?6?$AA@ 0042c688     fabian_client.obj
 0002:00002694       ??_C@_03LBPJDMB@RUT?$AA@   0042c694     fabian_client.obj
 0002:00002698       ??_C@_05GMLLALOL@RUR?$AN?6?$AA@ 0042c698     fabian_client.obj
 0002:000026a0       ??_C@_03FNEFDEEH@RUR?$AA@  0042c6a0     fabian_client.obj
 0002:000026a4       ??_C@_03OAHKNHLE@SUE?$AA@  0042c6a4     fabian_client.obj
 0002:000026a8       ??_C@_03GIFFEINO@GST?$AA@  0042c6a8     fabian_client.obj
 0002:000026ac       ??_C@_0DG@PKGGKGBO@GST?5?9?5System?5Time?5?9?5?$CF02d?1?$CF02d?1?$CF0@ 0042c6ac     fabian_client.obj
 0002:000026e4       ??_C@_0CG@MHCFCCDB@ERR?5501?5?$CI?$DP?$DP?$DP?$CJ?5Unknown?5command?3?5?$CC@ 0042c6e4     fabian_client.obj
 0002:0000270c       ??_C@_0CM@BPIJBPCP@notFABIAN?5Version?3?5?$CF1?5Profile?3?5?$CF@ 0042c70c     fabian_client.obj
 0002:00002738       ??_C@_05EJNAFEDH@RUT?$AN?6?$AA@ 0042c738     fabian_client.obj
 0002:00002740       ??_C@_0EN@CKAMBGJN@void?5fabian_client?3?3socketError?$CI@ 0042c740     fabian_client.obj
 0002:00002790       ??_C@_0BH@NFNMCF@ConnectionRefusedError?$AA@ 0042c790     fabian_client.obj
 0002:000027a8       ??_C@_0BG@PHFALMOJ@RemoteHostClosedError?$AA@ 0042c7a8     fabian_client.obj
 0002:000027c0       ??_C@_0BC@CDLCCCAK@HostNotFoundError?$AA@ 0042c7c0     fabian_client.obj
 0002:000027d4       ??_C@_0BC@FPODHDLI@SocketAccessError?$AA@ 0042c7d4     fabian_client.obj
 0002:000027e8       ??_C@_0BE@OJBJHGBN@SocketResourceError?$AA@ 0042c7e8     fabian_client.obj
 0002:000027fc       ??_C@_0BD@OEPIILGH@SocketTimeoutError?$AA@ 0042c7fc     fabian_client.obj
 0002:00002810       ??_C@_0BG@KOKMKCFM@DatagramTooLargeError?$AA@ 0042c810     fabian_client.obj
 0002:00002828       ??_C@_0N@PKFCJHGH@NetworkError?$AA@ 0042c828     fabian_client.obj
 0002:00002838       ??_C@_0BC@DAGELLGK@AddressInUseError?$AA@ 0042c838     fabian_client.obj
 0002:0000284c       ??_C@_0BP@LCCBMNJB@SocketAddressNotAvailableError?$AA@ 0042c84c     fabian_client.obj
 0002:0000286c       ??_C@_0CA@KIEFJGFJ@UnsupportedSocketOperationError?$AA@ 0042c86c     fabian_client.obj
 0002:0000288c       ??_C@_0BP@HCKJJEBP@UnfinishedSocketOperationError?$AA@ 0042c88c     fabian_client.obj
 0002:000028ac       ??_C@_0CB@NHOILHAD@ProxyAuthenticationRequiredError@ 0042c8ac     fabian_client.obj
 0002:000028d0       ??_C@_0BI@CJBOHIPK@SslHandshakeFailedError?$AA@ 0042c8d0     fabian_client.obj
 0002:000028e8       ??_C@_0BM@FELALLOP@ProxyConnectionRefusedError?$AA@ 0042c8e8     fabian_client.obj
 0002:00002904       ??_C@_0BL@JLNIMGJC@ProxyConnectionClosedError?$AA@ 0042c904     fabian_client.obj
 0002:00002920       ??_C@_0BM@KEEBDDJP@ProxyConnectionTimeoutError?$AA@ 0042c920     fabian_client.obj
 0002:0000293c       ??_C@_0BD@HFOILBM@ProxyNotFoundError?$AA@ 0042c93c     fabian_client.obj
 0002:00002950       ??_C@_0BD@HEEPOKHJ@ProxyProtocolError?$AA@ 0042c950     fabian_client.obj
 0002:00002964       ??_C@_0P@IINEIINP@OperationError?$AA@ 0042c964     fabian_client.obj
 0002:00002974       ??_C@_0BB@LGLEECCE@SslInternalError?$AA@ 0042c974     fabian_client.obj
 0002:00002988       ??_C@_0BI@PNKPPLEL@SslInvalidUserDataError?$AA@ 0042c988     fabian_client.obj
 0002:000029a0       ??_C@_0P@OHBMNBHO@TemporaryError?$AA@ 0042c9a0     fabian_client.obj
 0002:000029b0       ??_C@_0BD@KGEMAABN@UnknownSocketError?$AA@ 0042c9b0     fabian_client.obj
 0002:000029c4       ??_C@_0BH@IKBIHIJJ@?$CF1Socket?5Error?5?$CF2?5?$CI?$CF3?$CJ?$AA@ 0042c9c4     fabian_client.obj
 0002:000029e0       ??_C@_0GG@FBJGIHGE@void?5fabian_client?3?3preSharedKey@ 0042c9e0     fabian_client.obj
 0002:00002a48       ??_C@_0CA@OILGJGFO@sslMode?$CIQSslSocket?3?3SslMode?$CJ?5?$CFd?$AA@ 0042ca48     fabian_client.obj
 0002:00002a68       ??_C@_01JOAMLHOP@?9?$AA@   0042ca68     fabian_client.obj
 0002:00002e14       ??_C@_0BN@GNBMPDOC@QAbstractSocket?3?3SocketError?$AA@ 0042ce14     moc_fabian_client.obj
 0002:00002e34       ??_C@_0BB@LIJGMFNJ@QList?$DMQSslError?$DO?$AA@ 0042ce34     moc_fabian_client.obj
 0002:00002e48       ??_C@_0BA@BIKGMKOD@QTreeWidgetItem?$AA@ 0042ce48     moc_fabian_client.obj
 0002:0000344c       ??_C@_0BC@BGDLIIAA@?$CF1?2?$CF2?2windows?2lib?$AA@ 0042d44c     main.obj
 0002:00003460       ??_C@_0L@LGPNDKFG@SystemPath?$AA@ 0042d460     main.obj
 0002:00003470       ??_7singleReg@@6B@         0042d470     singleReg.obj
 0002:00003474       ??_C@_0N@LIBCGII@32?532?5132?52?5?$AA@ 0042d474     slink.obj
 0002:00003484       ??_C@_0N@PKNIIFCM@?5?5?5c?5?$CD6C0000?$AA@ 0042d484     slink.obj
 0002:00003494       ??_C@_0N@EKCGHFAH@?4?5?5c?5?$CD7A0101?$AA@ 0042d494     slink.obj
 0002:000034a4       ??_C@_0N@IPKGENCC@X?5?5c?5?$CD7E0A0A?$AA@ 0042d4a4     slink.obj
 0002:000034b4       ??_C@_0N@LJKEOBG@o?5?5c?5?$CD7F1111?$AA@ 0042d4b4     slink.obj
 0002:000034c4       ??_C@_0N@IIEGPMNL@O?5?5c?5?$CD830000?$AA@ 0042d4c4     slink.obj
 0002:000034d4       ??_C@_0N@CHNFMEFD@?$CL?5?5c?5?$CD8B0101?$AA@ 0042d4d4     slink.obj
 0002:000034e4       ??_C@_0N@ENPAADNM@?$EA?5?5c?5?$CD810D0D?$AA@ 0042d4e4     slink.obj
 0002:000034f4       ??_C@_0N@JKCKBFDM@?$CD?5?5c?5?$CD920404?$AA@ 0042d4f4     slink.obj
 0002:00003504       ??_C@_0N@GDBNBEJ@$?5?5c?5?$CD940B0B?$AA@ 0042d504     slink.obj
 0002:00003514       ??_C@_0N@PDHJGMOE@?$CF?5?5c?5?$CD9A0D0D?$AA@ 0042d514     slink.obj
 0002:00003524       ??_C@_0N@EBKJDMH@?$CG?5?5c?5?$CD831313?$AA@ 0042d524     slink.obj
 0002:00003534       ??_C@_0N@KNFOEGGP@?$CK?5?5c?5?$CD851B1B?$AA@ 0042d534     slink.obj
 0002:00003544       ??_C@_0N@GANJNOMM@?$DN?5?5c?5?$CD891D1D?$AA@ 0042d544     slink.obj
 0002:00003554       ??_C@_0N@OPCBHMDF@?9?5?5c?5?$CD9C1212?$AA@ 0042d554     slink.obj
 0002:00003564       ??_C@_0N@PMPJMJGG@?$DL?5?5c?5?$CDBA0000?$AA@ 0042d564     slink.obj
 0002:00003574       ??_C@_0N@BJPOBNGJ@?3?5?5c?5?$CDA31616?$AA@ 0042d574     slink.obj
 0002:00003584       ??_C@_0N@GLEMMMHO@?$DO?5?5c?5?$CDA41B1B?$AA@ 0042d584     slink.obj
 0002:00003594       ??_C@_0N@JHMJLLMH@?0?5?5c?5?$CDAA1D1D?$AA@ 0042d594     slink.obj
 0002:000035a4       ??_C@_0N@PFJCIDIA@?$DM?5?5c?5?$CD872222?$AA@ 0042d5a4     slink.obj
 0002:000035b4       ??_C@_0N@PLIFHKNE@1?5?5c?5?$CD892424?$AA@ 0042d5b4     slink.obj
 0002:000035c4       ??_C@_0N@BAJLMKCI@2?5?5c?5?$CD8B2B2B?$AA@ 0042d5c4     slink.obj
 0002:000035d4       ??_C@_0N@EAAKJECO@3?5?5c?5?$CD932F2F?$AA@ 0042d5d4     slink.obj
 0002:000035e4       ??_C@_0N@FDENMNAO@4?5?5c?5?$CD8F3232?$AA@ 0042d5e4     slink.obj
 0002:000035f4       ??_C@_0N@GKIJPOJG@5?5?5c?5?$CD923535?$AA@ 0042d5f4     slink.obj
 0002:00003604       ??_C@_0N@FMNANFPE@6?5?5c?5?$CD953B3B?$AA@ 0042d604     slink.obj
 0002:00003614       ??_C@_0N@GCMELLPM@7?5?5c?5?$CD9A3D3D?$AA@ 0042d614     slink.obj
 0002:00003624       ??_C@_0N@GAMKFFKF@8?5?5c?5?$CDAD2323?$AA@ 0042d624     slink.obj
 0002:00003634       ??_C@_0N@GCDBBEDC@9?5?5c?5?$CDB42B2B?$AA@ 0042d634     slink.obj
 0002:00003644       ??_C@_0N@PIJNFLCA@0?5?5c?5?$CDB92C2C?$AA@ 0042d644     slink.obj
 0002:00003654       ??_C@_0N@IBMBHEOB@q?5?5c?5?$CDBB3333?$AA@ 0042d654     slink.obj
 0002:00003664       ??_C@_0N@HICBECOO@w?5?5c?5?$CDBE3C3C?$AA@ 0042d664     slink.obj
 0002:00003674       ??_C@_0N@DJFBLGME@e?5?5c?5?$CDC50000?$AA@ 0042d674     slink.obj
 0002:00003684       ??_C@_0N@PLAHBLIH@r?5?5c?5?$CDCE0000?$AA@ 0042d684     slink.obj
 0002:00003694       ??_C@_0N@FNELIMC@t?5?5c?5?$CDDA0000?$AA@ 0042d694     slink.obj
 0002:000036a4       ??_C@_0N@FLIDFNIL@y?5?5c?5?$CDEB0303?$AA@ 0042d6a4     slink.obj
 0002:000036b4       ??_C@_0N@IFDJDNBK@u?5?5c?5?$CDEB0C0C?$AA@ 0042d6b4     slink.obj
 0002:000036c4       ??_C@_0N@IGCNJFKB@i?5?5c?5?$CDF30101?$AA@ 0042d6c4     slink.obj
 0002:000036d4       ??_C@_0N@GIMENHEP@p?5?5c?5?$CDFE0101?$AA@ 0042d6d4     slink.obj
 0002:000036e4       ??_C@_0N@DLPNNLA@a?5?5c?5?$CDF70A0A?$AA@ 0042d6e4     slink.obj
 0002:000036f4       ??_C@_0N@JFMBCPII@s?5?5c?5?$CDFC0F0F?$AA@ 0042d6f4     slink.obj
 0002:00003704       ??_C@_0N@FHNKOOND@d?5?5c?5?$CDE71111?$AA@ 0042d704     slink.obj
 0002:00003714       ??_C@_0N@DPAKLOEG@f?5?5c?5?$CDEC1313?$AA@ 0042d714     slink.obj
 0002:00003724       ??_C@_0N@GEPEBGAD@g?5?5c?5?$CDF41212?$AA@ 0042d724     slink.obj
 0002:00003734       ??_C@_0N@PEAEKIGL@h?5?5c?5?$CDFC1313?$AA@ 0042d734     slink.obj
 0002:00003744       ??_C@_0N@NAFIMEEK@j?5?5c?5?$CDFC1C1C?$AA@ 0042d744     slink.obj
 0002:00003754       ??_C@_0N@ECOAONPK@k?5?5c?5?$CDCB3737?$AA@ 0042d754     slink.obj
 0002:00003764       ??_C@_0N@NFNJCEEO@l?5?5c?5?$CDC43A3A?$AA@ 0042d764     slink.obj
 0002:00003774       ??_C@_0N@EPCDMKDJ@z?5?5c?5?$CDCC3C3C?$AA@ 0042d774     slink.obj
 0002:00003784       ??_C@_0N@FJJHGHMC@x?5?5c?5?$CDD23E3E?$AA@ 0042d784     slink.obj
 0002:00003794       ??_C@_0N@GCNOINIL@c?5?5c?5?$CDFC2828?$AA@ 0042d794     slink.obj
 0002:000037a4       ??_C@_0N@HLMMKOPA@v?5?5c?5?$CDFB3535?$AA@ 0042d7a4     slink.obj
 0002:000037b4       ??_C@_0N@OJDHILGI@b?5?5c?5?$CD884848?$AA@ 0042d7b4     slink.obj
 0002:000037c4       ??_C@_0N@CJMBCJBF@n?5?5c?5?$CD974040?$AA@ 0042d7c4     slink.obj
 0002:000037d4       ??_C@_0N@CEOKILPK@m?5?5c?5?$CD9B4444?$AA@ 0042d7d4     slink.obj
 0002:000037e4       ??_C@_0N@BMAHIHKD@M?5?5c?5?$CD9E4C4C?$AA@ 0042d7e4     slink.obj
 0002:000037f4       ??_C@_0N@GGNCAHOP@N?5?5c?5?$CD8D5454?$AA@ 0042d7f4     slink.obj
 0002:00003804       ??_C@_0N@PCNHPBKD@B?5?5c?5?$CDA24C4C?$AA@ 0042d804     slink.obj
 0002:00003814       ??_C@_0N@JAEOAAJG@V?5?5c?5?$CDAE4C4C?$AA@ 0042d814     slink.obj
 0002:00003824       ??_C@_0N@MLFODJLJ@C?5?5c?5?$CDB04A4A?$AA@ 0042d824     slink.obj
 0002:00003834       ??_C@_0N@GALOFDJK@Z?5?5c?5?$CDA45454?$AA@ 0042d834     slink.obj
 0002:00003844       ??_C@_0N@ICNFBJHN@A?5?5c?5?$CDA75B5B?$AA@ 0042d844     slink.obj
 0002:00003854       ??_C@_0N@FJGDEKEO@S?5?5c?5?$CDAA5E5E?$AA@ 0042d854     slink.obj
 0002:00003864       ??_C@_0N@COFKIEHA@D?5?5c?5?$CD8D6B6B?$AA@ 0042d864     slink.obj
 0002:00003874       ??_C@_0N@JJEOCJG@F?5?5c?5?$CD987C7C?$AA@ 0042d874     slink.obj
 0002:00003884       ??_C@_0N@BCMCMCLA@G?5?5c?5?$CDAC6363?$AA@ 0042d884     slink.obj
 0002:00003894       ??_C@_0N@PACNIONI@H?5?5c?5?$CDAF6969?$AA@ 0042d894     slink.obj
 0002:000038a4       ??_C@_0N@OAHILPFN@J?5?5c?5?$CDB26C6C?$AA@ 0042d8a4     slink.obj
 0002:000038b4       ??_C@_0N@MAHGGGIE@K?5?5c?5?$CDB57171?$AA@ 0042d8b4     slink.obj
 0002:000038c4       ??_C@_0N@NDANNNHM@L?5?5c?5?$CDB87676?$AA@ 0042d8c4     slink.obj
 0002:000038d4       ??_C@_0N@DDFLLEGG@P?5?5c?5?$CDBC7B7B?$AA@ 0042d8d4     slink.obj
 0002:000038e4       ??_C@_0N@CCGCJELC@I?5?5c?5?$CDCD4040?$AA@ 0042d8e4     slink.obj
 0002:000038f4       ??_C@_0N@DEFBNKDH@U?5?5c?5?$CDD34444?$AA@ 0042d8f4     slink.obj
 0002:00003904       ??_C@_0N@HADOGFAP@Y?5?5c?5?$CDDA4646?$AA@ 0042d904     slink.obj
 0002:00003914       ??_C@_0N@POMODEJB@T?5?5c?5?$CDD64949?$AA@ 0042d914     slink.obj
 0002:00003924       ??_C@_0N@NEJGKGLK@R?5?5c?5?$CDDC4C4C?$AA@ 0042d924     slink.obj
 0002:00003934       ??_C@_0N@CLCGNFMB@E?5?5c?5?$CDDE5151?$AA@ 0042d934     slink.obj
 0002:00003944       ??_C@_0N@NMIBDICD@W?5?5c?5?$CDE24E4E?$AA@ 0042d944     slink.obj
 0002:00003954       ??_C@_0N@HDDIMICK@Q?5?5c?5?$CDE45454?$AA@ 0042d954     slink.obj
 0002:00003964       ??_C@_0N@NEPFPBFE@?$CB?5?5c?5?$CDE95555?$AA@ 0042d964     slink.obj
 0002:00003974       ??_C@_0N@MKAJHFPL@?$HO?5?5c?5?$CDE55858?$AA@ 0042d974     slink.obj
 0002:00003984       ??_C@_0N@HFFOABFG@?$FO?5?5c?5?$CDEC5B5B?$AA@ 0042d984     slink.obj
 0002:00003994       ??_C@_0N@BGAPOKFK@?1?5?5c?5?$CDF15D5D?$AA@ 0042d994     slink.obj
 0002:000039a4       ??_C@_0N@BBGKBHOH@?$CI?5?5c?5?$CDD36565?$AA@ 0042d9a4     slink.obj
 0002:000039b4       ??_C@_0N@GGHJJFIH@?$CJ?5?5c?5?$CDDC6464?$AA@ 0042d9b4     slink.obj
 0002:000039c4       ??_C@_0N@CMBEFPIB@_?5?5c?5?$CDED6060?$AA@ 0042d9c4     slink.obj
 0002:000039d4       ??_C@_0N@NNNJCCJE@?$GA?5?5c?5?$CDF46464?$AA@ 0042d9d4     slink.obj
 0002:000039e4       ??_C@_0N@HGKJONCF@?8?5?5c?5?$CD8A8787?$AA@ 0042d9e4     slink.obj
 0002:000039f4       ??_C@_0M@OFBNPEMJ@?$FN?5?5c?5gray59?$AA@ 0042d9f4     slink.obj
 0002:00003a00       ??_C@_0N@JCFGCMMH@?$FL?5?5c?5?$CD9D9B9B?$AA@ 0042da00     slink.obj
 0002:00003a10       ??_C@_0N@IJBMCAFP@?$HL?5?5c?5?$CDBF8484?$AA@ 0042da10     slink.obj
 0002:00003a20       ??_C@_0N@GFBPFEND@?$HN?5?5c?5?$CDB68989?$AA@ 0042da20     slink.obj
 0002:00003a30       ??_C@_0N@ODGGBBCE@?$HM?5?5c?5?$CDBC8989?$AA@ 0042da30     slink.obj
 0002:00003a40       ??_C@_0N@GAFKJGGK@?5?4?5c?5?$CDBF9393?$AA@ 0042da40     slink.obj
 0002:00003a50       ??_C@_0N@HOPOLOGL@?4?4?5c?5?$CDA4A3A3?$AA@ 0042da50     slink.obj
 0002:00003a60       ??_C@_0N@DDHPFMLP@X?4?5c?5?$CDA9A7A7?$AA@ 0042da60     slink.obj
 0002:00003a70       ??_C@_0N@CGDJJHNH@o?4?5c?5?$CDABABAB?$AA@ 0042da70     slink.obj
 0002:00003a80       ??_C@_0N@GBPIEIFL@O?4?5c?5?$CDB5B5B5?$AA@ 0042da80     slink.obj
 0002:00003a90       ??_C@_0N@CPADLCPO@?$CL?4?5c?5?$CDBBBBBB?$AA@ 0042da90     slink.obj
 0002:00003aa0       ??_C@_0N@BHPOLDIK@?$EA?4?5c?5?$CDC28585?$AA@ 0042daa0     slink.obj
 0002:00003ab0       ??_C@_0N@CPFEECLG@?$CD?4?5c?5?$CDC58B8B?$AA@ 0042dab0     slink.obj
 0002:00003ac0       ??_C@_0N@KMBBKMKN@$?4?5c?5?$CDC69292?$AA@ 0042dac0     slink.obj
 0002:00003ad0       ??_C@_0N@JCAFMCKF@?$CF?4?5c?5?$CDCB9494?$AA@ 0042dad0     slink.obj
 0002:00003ae0       ??_C@_0N@JCEDMCKN@?$CG?4?5c?5?$CDC79898?$AA@ 0042dae0     slink.obj
 0002:00003af0       ??_C@_0N@JLIOELHL@?$CK?4?5c?5?$CDCC9E9E?$AA@ 0042daf0     slink.obj
 0002:00003b00       ??_C@_0N@IFLFKFGN@?$DN?4?5c?5?$CDD29B9B?$AA@ 0042db00     slink.obj
 0002:00003b10       ??_C@_0N@PJLMKMPJ@?9?4?5c?5?$CDF18383?$AA@ 0042db10     slink.obj
 0002:00003b20       ??_C@_0N@CBJADCML@?$DL?4?5c?5?$CDCEA2A2?$AA@ 0042db20     slink.obj
 0002:00003b30       ??_C@_0N@JHOLMDEG@?3?4?5c?5?$CDD3A4A4?$AA@ 0042db30     slink.obj
 0002:00003b40       ??_C@_0N@FHGONMJC@?$DO?4?5c?5?$CDD9A5A5?$AA@ 0042db40     slink.obj
 0002:00003b50       ??_C@_0N@IJKPNON@?0?4?5c?5?$CDD4ACAC?$AA@ 0042db50     slink.obj
 0002:00003b60       ??_C@_0N@DLOPDEHK@?$DM?4?5c?5?$CDD7B3B3?$AA@ 0042db60     slink.obj
 0002:00003b70       ??_C@_0N@GGJLLEIC@1?4?5c?5?$CDD8B7B7?$AA@ 0042db70     slink.obj
 0002:00003b80       ??_C@_0N@MAENKFHF@2?4?5c?5?$CDDABABA?$AA@ 0042db80     slink.obj
 0002:00003b90       ??_C@_0N@LBJIEAJG@3?4?5c?5?$CDC4C4C4?$AA@ 0042db90     slink.obj
 0002:00003ba0       ??_C@_0N@ONPNFKIH@4?4?5c?5?$CDCCCBCB?$AA@ 0042dba0     slink.obj
 0002:00003bb0       ??_C@_0N@OBABPFFF@5?4?5c?5?$CDDFC2C2?$AA@ 0042dbb0     slink.obj
 0002:00003bc0       ??_C@_0N@NOHPAHJO@6?4?5c?5?$CDD4D4D4?$AA@ 0042dbc0     slink.obj
 0002:00003bd0       ??_C@_0N@OJKDBBPH@7?4?5c?5?$CDDBDBDB?$AA@ 0042dbd0     slink.obj
 0002:00003be0       ??_C@_0N@PNHDPBLF@8?4?5c?5?$CDE1C6C6?$AA@ 0042dbe0     slink.obj
 0002:00003bf0       ??_C@_0N@PLLLPOCP@9?4?5c?5?$CDE3CACA?$AA@ 0042dbf0     slink.obj
 0002:00003c00       ??_C@_0N@HOCLCAKP@0?4?5c?5?$CDE6D0D0?$AA@ 0042dc00     slink.obj
 0002:00003c10       ??_C@_0N@HLCGKNKC@q?4?5c?5?$CDEAD6D6?$AA@ 0042dc10     slink.obj
 0002:00003c20       ??_C@_0N@IFKHDONB@w?4?5c?5?$CDEDDCDC?$AA@ 0042dc20     slink.obj
 0002:00003c30       ??_C@_0N@PAOKBEBC@e?4?5c?5?$CDE4E4E4?$AA@ 0042dc30     slink.obj
 0002:00003c40       ??_C@_0N@DFNNBMCN@r?4?5c?5?$CDEFE1E1?$AA@ 0042dc40     slink.obj
 0002:00003c50       ??_C@_0N@BJMKCBCA@t?4?5c?5?$CDECECEC?$AA@ 0042dc50     slink.obj
 0002:00003c60       ??_C@_0N@LPHCIABN@y?4?5c?5?$CDF1E4E4?$AA@ 0042dc60     slink.obj
 0002:00003c70       ??_C@_0N@CIMPAMOE@u?4?5c?5?$CDF5ECEC?$AA@ 0042dc70     slink.obj
 0002:00003c80       ??_C@_0M@COMGDHBP@i?4?5c?5gray96?$AA@ 0042dc80     slink.obj
 0002:00003c8c       ??_C@_0N@EDMEGCGP@p?4?5c?5?$CDF9F3F3?$AA@ 0042dc8c     slink.obj
 0002:00003c9c       ??_C@_0N@NOIIHPDJ@a?4?5c?5?$CDFFFFFF?$AA@ 0042dc9c     slink.obj
 0002:00003cac       ??_C@_09NBPJLJIO@s?4?5c?5None?$AA@ 0042dcac     slink.obj
 0002:00003cb8       ??_C@_0EB@NLAHLCEI@s?4s?4s?4s?4s?4s?4?9?4?$GA?5?$GA?5?1?5?$GA?5?1?5?$GA?5?1?5?$GA?5?1?5@ 0042dcb8     slink.obj
 0002:00003d00       ??_C@_0EB@HLJDIBID@s?4s?4s?4s?4s?4?9?4v?5s?5f?5u?5u?5y?5y?5g?5u?5y?5@ 0042dd00     slink.obj
 0002:00003d48       ??_C@_0EB@EICKJFHH@s?4s?4s?4s?4?9?4c?5h?5?9?5?$EA?5?$CG?5?$CG?5X?5?$EA?5?$CK?5?$CG?5?$EA?5@ 0042dd48     slink.obj
 0002:00003d90       ??_C@_0EB@IKMGIJAO@s?4s?4s?4?9?4j?5a?5?9?5X?5?4?5?$EA?5?$CG?5?4?5?$CG?5?$CG?5?$CG?5?$EA?5@ 0042dd90     slink.obj
 0002:00003dd8       ??_C@_0EB@OOILENFL@s?4s?4?9?4h?5i?5?9?5?$CG?5?$CG?5?$EA?5?$CG?5?$EA?5O?5?$CG?5?$EA?5?$CG?5?$CG?5@ 0042ddd8     slink.obj
 0002:00003e20       ??_C@_0EB@KHPMMBMB@s?4?9?4h?5i?5?$CD?5?$CG?5?$CG?5X?5?$EA?5?$CG?5?$EA?5?$EA?5?$CG?5X?5X?5?$CG?5@ 0042de20     slink.obj
 0002:00003e68       ??_C@_0EB@FMIOJCEJ@?9?4h?5y?5?$CD?5X?5?$CG?5?$EA?5?4?5?4?5?$CK?5?$CG?5?$EA?5?$CG?5X?5?4?5?$CG?5@ 0042de68     slink.obj
 0002:00003eb0       ??_C@_0EB@GBNJEEIF@?$GA?5p?5?$CL?5?4?5?$EA?5?$CG?5?$EA?5X?5?$EA?51?5?$CK?5?$CG?5?$CG?5?4?5?4?5?$CG?5@ 0042deb0     slink.obj
 0002:00003ef8       ??_C@_0EB@BMDJJMOA@?$GA?5i?5?4?5?4?5?$EA?5?$CG?5B?5?$DM?4p?4a?4a?4a?4r?4L?5?4?5X?5@ 0042def8     slink.obj
 0002:00003f40       ??_C@_0EB@PDMEEAIC@?$GA?5a?5?4?5?4?5?4?5Z?5p?4a?4a?4a?4a?4a?4a?4?0?4?4?5?4?5@ 0042df40     slink.obj
 0002:00003f88       ??_C@_0EB@GKEHHBJI@?$GA?5i?5?4?5?4?5?$EA?5u?4a?4a?4$?4B?56?5B?5L?5L?5?4?5?4?5@ 0042df88     slink.obj
 0002:00003fd0       ??_C@_0EB@KGDAODL@?$GA?5y?5?4?5?4?56?5a?4a?42?4?4?5?4?5?4?5?4?5?4?5?4?5?4?5?4?5@ 0042dfd0     slink.obj
 0002:00004018       ??_C@_0EB@BONFBKDG@?$GA?5i?5?4?5?4?56?5a?4a?4w?4?$CK?5?4?5?4?5?4?5?4?5?4?5?4?5?4?5@ 0042e018     slink.obj
 0002:00004060       ??_C@_0EB@KIMIKIHB@?$GA?5i?5?4?5?4?5X?5p?4a?4a?4u?4?$EA?4?$DN?5?4?5?4?5?4?5?4?5?4?5@ 0042e060     slink.obj
 0002:000040a8       ??_C@_0EB@MJAPDFHG@?$GA?5i?5?4?5?4?5?4?5S?5a?4a?4a?4a?4a?4?$DM?47?5?4?5?4?5?4?5@ 0042e0a8     slink.obj
 0002:000040f0       ??_C@_0EB@HMKGJMND@?$GA?5a?5?4?5?4?5?4?5?4?5m?59?4a?4a?4a?4a?4a?4?$HL?5?4?5?4?5@ 0042e0f0     slink.obj
 0002:00004138       ??_C@_0EB@IJIJEGNN@?$GA?5i?5?4?5?4?5?4?5?4?5?4?5?4?55?5?$DL?4p?4a?4a?4a?4m?5?4?5@ 0042e138     slink.obj
 0002:00004180       ??_C@_0EB@HGABLMOH@?$FO?5i?5?4?5?4?5?4?5?4?5?4?5?4?5?4?5?4?5?$CK?58?4a?4a?4?$DL?4?4?5@ 0042e180     slink.obj
 0002:000041c8       ??_C@_0EB@IEIIBAIC@?$FO?5i?5?4?5?4?5?4?5?4?5?4?5?4?5?4?5?4?5?4?5B?5a?4a?4?0?4?4?5@ 0042e1c8     slink.obj
 0002:00004210       ??_C@_0EB@LJAIGDAD@?$FO?5i?5?4?5?4?53?55?5?4?5?4?5?4?5?4?5X?5?$DL?4a?4a?4P?5?4?5@ 0042e210     slink.obj
 0002:00004258       ??_C@_0EB@EMACEPNL@?$HO?5y?5?4?5?4?5J?5a?4p?45?4?0?4?$DM?4y?4a?4a?4p?4?$DM?5X?5@ 0042e258     slink.obj
 0002:000042a0       ??_C@_0EB@CANFKICB@E?5a?5?4?5?4?5J?5a?4a?4a?4a?4a?4a?4a?4t?4M?5?$EA?5?$CG?5@ 0042e2a0     slink.obj
 0002:000042e8       ??_C@_0EB@HHFBGNCD@E?5i?5?4?5?4?5?$CK?5S?5?$CK?4?0?42?4?$DM?4?$CF?4H?5o?5o?5o?5?$DM?5@ 0042e2e8     slink.obj
 0002:00004330       ??_C@_0EB@FPLLDLIL@R?5i?5?4?5?4?5?4?5?4?5?4?5X?5o?5o?5o?5?$CK?5?$DM?51?52?52?5@ 0042e330     slink.obj
 0002:00004378       ??_C@_0EB@KCFAIBLB@R?5i?5?4?5?4?5X?5X?5o?5o?5o?5?$CK?51?51?52?54?55?5n?5@ 0042e378     slink.obj
 0002:000043c0       ??_C@_0EB@ELANGDO@T?5i?5X?5X?5X?5o?5?$CK?5?$CK?5?$DM?52?54?5b?5?$FL?5?4?4D?5M?5@ 0042e3c0     slink.obj
 0002:00004408       ??_C@_0EB@JCKOGGEL@U?5i?5o?5o?5?$CK?5?$DM?51?52?52?55?56?5N?53?46?4F?5G?5@ 0042e408     slink.obj
 0002:00004450       ??_C@_0EB@ELLEDPKD@I?5d?5?8?5?$FL?5?$FL?5?$FL?5?$FL?5?$FL?5?4?4?4?4X?4o?46?46?4O?4O?4@ 0042e450     slink.obj
 0002:00004498       ??_C@_0EB@HANEAHMA@I?5d?5X?43?43?44?44?44?44?46?46?47?47?47?47?4e?4@ 0042e498     slink.obj
 0002:000044e0       ??_C@_0EB@MOAAKEBL@z?5d?5?$FN?5o?4o?4O?4O?4O?4O?4?$CL?4?$CL?4?$CL?43?43?44?44?4@ 0042e4e0     slink.obj
 0002:00004528       ??_C@_0EB@DDOAHOFG@l?5p?5d?5f?5d?5d?5d?5d?5g?5f?5f?5f?5f?5f?5f?5f?5@ 0042e528     slink.obj
 0002:00004570       ??_C@_0EB@DNCCDKBA@V?5q?5q?5q?59?59?59?58?58?51?58?5?9?5?9?5?9?5?9?5?9?5@ 0042e570     slink.obj
 0002:000045bc       ??_SQWidget@@6BQObject@@@  0042e5bc     slink.obj
 0002:00004674       ??_SQWidget@@6BQPaintDevice@@@ 0042e674     slink.obj
 0002:00004694       ??_SQAction@@6B@           0042e694     slink.obj
 0002:000046c4       ??_SQGroupBox@@6BQObject@@@ 0042e6c4     slink.obj
 0002:0000477c       ??_SQGroupBox@@6BQPaintDevice@@@ 0042e77c     slink.obj
 0002:0000479c       ??_SQSpacerItem@@6B@       0042e79c     slink.obj
 0002:000047e4       ??_SQHBoxLayout@@6BQObject@@@ 0042e7e4     slink.obj
 0002:0000482c       ??_SQHBoxLayout@@6BQLayoutItem@@@ 0042e82c     slink.obj
 0002:00004874       ??_SQVBoxLayout@@6BQObject@@@ 0042e874     slink.obj
 0002:000048bc       ??_SQVBoxLayout@@6BQLayoutItem@@@ 0042e8bc     slink.obj
 0002:00004900       ??_SQListWidgetItem@@6B@   0042e900     slink.obj
 0002:00004924       ??_SQListWidget@@6BQObject@@@ 0042e924     slink.obj
 0002:00004a94       ??_SQListWidget@@6BQPaintDevice@@@ 0042ea94     slink.obj
 0002:00004ab4       ??_SQMenu@@6BQObject@@@    0042eab4     slink.obj
 0002:00004b6c       ??_SQMenu@@6BQPaintDevice@@@ 0042eb6c     slink.obj
 0002:00004b8c       ??_SQMenuBar@@6BQObject@@@ 0042eb8c     slink.obj
 0002:00004c44       ??_SQMenuBar@@6BQPaintDevice@@@ 0042ec44     slink.obj
 0002:00004c64       ??_SQPushButton@@6BQObject@@@ 0042ec64     slink.obj
 0002:00004d28       ??_SQPushButton@@6BQPaintDevice@@@ 0042ed28     slink.obj
 0002:00004d4c       ??_SQSplitter@@6BQObject@@@ 0042ed4c     slink.obj
 0002:00004e08       ??_SQSplitter@@6BQPaintDevice@@@ 0042ee08     slink.obj
 0002:00004e2c       ??_SQStatusBar@@6BQObject@@@ 0042ee2c     slink.obj
 0002:00004ee4       ??_SQStatusBar@@6BQPaintDevice@@@ 0042eee4     slink.obj
 0002:00004f04       ??_SQTextEdit@@6BQObject@@@ 0042ef04     slink.obj
 0002:00004fe0       ??_SQTextEdit@@6BQPaintDevice@@@ 0042efe0     slink.obj
 0002:00005004       ??_SQToolBar@@6BQObject@@@ 0042f004     slink.obj
 0002:000050bc       ??_SQToolBar@@6BQPaintDevice@@@ 0042f0bc     slink.obj
 0002:000050dc       ??_SQTreeWidget@@6BQObject@@@ 0042f0dc     slink.obj
 0002:00005254       ??_SQTreeWidget@@6BQPaintDevice@@@ 0042f254     slink.obj
 0002:00005270       ??_C@_08LPOBGBL@1close?$CI?$CJ?$AA@ 0042f270     slink.obj
 0002:0000527c       ??_C@_0N@NBJIAFIH@2triggered?$CI?$CJ?$AA@ 0042f27c     slink.obj
 0002:0000528c       ??_C@_0L@IAECINKC@slinkClass?$AA@ 0042f28c     slink.obj
 0002:00005298       ??_C@_05PNPHNLAJ@E?$CGxit?$AA@ 0042f298     slink.obj
 0002:000052a0       ??_C@_06JDCECANP@?$CGAbout?$AA@ 0042f2a0     slink.obj
 0002:000052a8       ??_C@_09CGBJIDBA@?$CGContents?$AA@ 0042f2a8     slink.obj
 0002:000052b4       ??_C@_06HDFALOEG@?$CGUsers?$AA@ 0042f2b4     slink.obj
 0002:000052bc       ??_C@_0CE@HFMHFAKE@?$CGServer?5?$CIchanges?5require?5a?5resta@ 0042f2bc     slink.obj
 0002:000052e0       ??_C@_0BJ@IIJAFOIC@?$CGBlack?9list?5?1?5White?9list?$AA@ 0042f2e0     slink.obj
 0002:000052fc       ??_C@_06EDBEHDPL@?$CGClear?$AA@ 0042f2fc     slink.obj
 0002:00005304       ??_C@_02MPIDCEGI@F4?$AA@   0042f304     slink.obj
 0002:00005308       ??_C@_08PLOJMMKK@?$CGLogging?$AA@ 0042f308     slink.obj
 0002:00005314       ??_C@_02IIGACPMN@Rx?$AA@   0042f314     slink.obj
 0002:00005318       ??_C@_02IMONFDHP@Tx?$AA@   0042f318     slink.obj
 0002:0000531c       ??_C@_0P@NDOKOLCG@Control?5Access?$AA@ 0042f31c     slink.obj
 0002:0000532c       ??_C@_04ODLBFFJE@User?$AA@ 0042f32c     slink.obj
 0002:00005334       ??_C@_0M@DMGJCGFF@Server?5Port?$AA@ 0042f334     slink.obj
 0002:00005340       ??_C@_0L@BNKDIMHH@Local?5Port?$AA@ 0042f340     slink.obj
 0002:0000534c       ??_C@_07EODJIPPN@Address?$AA@ 0042f34c     slink.obj
 0002:00005354       ??_C@_0L@IOCMLEJH@Poll?5Queue?$AA@ 0042f354     slink.obj
 0002:00005360       ??_C@_05MDNHABIA@Clear?$AA@ 0042f360     slink.obj
 0002:00005368       ??_C@_05FHBCAALB@?$CGFile?$AA@ 0042f368     slink.obj
 0002:00005370       ??_C@_05JFEBOHHM@?$CGHelp?$AA@ 0042f370     slink.obj
 0002:00005378       ??_C@_07HMHAPFBA@?$CGConfig?$AA@ 0042f378     slink.obj
 0002:00005380       ??_C@_07NNPOAILI@?$CGWindow?$AA@ 0042f380     slink.obj
 0002:000057f4       ??_7Ifabian_clientCallback@@6B@ 0042f7f4     slink.obj
 0002:0000584c       ??_7IccClientCallback@@6B@ 0042f84c     slink.obj
 0002:0000587c       ??_7slink@@6BQObject@@@    0042f87c     slink.obj
 0002:00005938       ??_7slink@@6BQPaintDevice@@@ 0042f938     slink.obj
 0002:00005958       ??_7slink@@6BIccClientCallback@@@ 0042f958     slink.obj
 0002:00005988       ??_7slink@@6BIfabian_clientCallback@@@ 0042f988     slink.obj
 0002:000059e0       ??_7slink@@6BccCheck@@@    0042f9e0     slink.obj
 0002:000059e4       ??_C@_0L@OELOHDKG@2clicked?$CI?$CJ?$AA@ 0042f9e4     slink.obj
 0002:000059f0       ??_C@_08HOABKPGB@1about?$CI?$CJ?$AA@ 0042f9f0     slink.obj
 0002:000059fc       ??_C@_09PJDIALKE@1doHelp?$CI?$CJ?$AA@ 0042f9fc     slink.obj
 0002:00005a08       ??_C@_0BC@ENFEBBBD@1doServerConfig?$CI?$CJ?$AA@ 0042fa08     slink.obj
 0002:00005a1c       ??_C@_0O@OHDGMAGG@1doUserEdit?$CI?$CJ?$AA@ 0042fa1c     slink.obj
 0002:00005a2c       ??_C@_0BI@JDHMJKGO@1doWhiteBlackListEdit?$CI?$CJ?$AA@ 0042fa2c     slink.obj
 0002:00005a44       ??_C@_0CH@OPIFGMHD@1listClientContextMenu?$CIconst?5QPo@ 0042fa44     slink.obj
 0002:00005a6c       ??_C@_0CM@HPIFELGC@2customContextMenuRequested?$CIcons@ 0042fa6c     slink.obj
 0002:00005a98       ??_C@_0BC@LOGALAPK@1clearPollQueue?$CI?$CJ?$AA@ 0042fa98     slink.obj
 0002:00005aac       ??_C@_08HNILJOLJ@1clear?$CI?$CJ?$AA@ 0042faac     slink.obj
 0002:00005ab8       ??_C@_0BB@LDNHOJJB@1doLogging?$CIbool?$CJ?$AA@ 0042fab8     slink.obj
 0002:00005acc       ??_C@_0P@POCECEMJ@2toggled?$CIbool?$CJ?$AA@ 0042facc     slink.obj
 0002:00005adc       ??_C@_01KMDKNFGN@?1?$AA@   0042fadc     slink.obj
 0002:00005ae0       ??_C@_0EI@KPCLIDAH@More?5than?5one?5profile?5name?5suppl@ 0042fae0     slink.obj
 0002:00005b28       ??_C@_0BC@IMFOIGGF@?1nopollmanagement?$AA@ 0042fb28     slink.obj
 0002:00005b3c       ??_C@_08PIIOLGME@?1nodelay?$AA@ 0042fb3c     slink.obj
 0002:00005b48       ??_C@_0CB@FIGNEEFB@slinkServer?3?5Application?5Startup@ 0042fb48     slink.obj
 0002:00005b6c       ??_C@_0BD@HPPIENCH@No?5poll?5management?$AA@ 0042fb6c     slink.obj
 0002:00005b80       ??_C@_0BM@CODPPNCP@?$CF1?5?9?5slinkServer?5Version?5?$CF2?$AA@ 0042fb80     slink.obj
 0002:00005b9c       ??_C@_08LJGJBJHI@ccClient?$AA@ 0042fb9c     slink.obj
 0002:00005ba8       ??_C@_0BF@CNMPGPPM@Can?8t?5connect?5to?5CSI?$AA@ 0042fba8     slink.obj
 0002:00005bc0       ??_C@_0BI@NMDJGF@slinkServer?5fatal?5error?$AA@ 0042fbc0     slink.obj
 0002:00005bd8       ??_C@_07OHKHACFK@0?40?40?40?$AA@ 0042fbd8     slink.obj
 0002:00005be0       ??_C@_0M@GJKOPDEC@BindAddress?$AA@ 0042fbe0     slink.obj
 0002:00005bec       ??_C@_04HOKNCALA@Port?$AA@ 0042fbec     slink.obj
 0002:00005bf4       ??_C@_03DFDFBAEP@SSL?$AA@  0042fbf4     slink.obj
 0002:00005bf8       ??_C@_07NOBOEMNJ@Ciphers?$AA@ 0042fbf8     slink.obj
 0002:00005c00       ??_C@_01JLIPDDHJ@?3?$AA@   0042fc00     slink.obj
 0002:00005c04       ??_C@_0CK@BEALFHL@?$CC?5specified?5in?5configuration?5is?5@ 0042fc04     slink.obj
 0002:00005c30       ??_C@_0BE@MHHOLEOG@SSL?5Error?3?5cipher?5?$CC?$AA@ 0042fc30     slink.obj
 0002:00005c44       ??_C@_09JDOIOJBH@Ciphers?3?5?$AA@ 0042fc44     slink.obj
 0002:00005c50       ??_C@_03MCPBMLDJ@?5?3?5?$AA@ 0042fc50     slink.obj
 0002:00005c54       ??_C@_0CC@DPOEMENM@slinkServer?5application?5closedow@ 0042fc54     slink.obj
 0002:00005c78       ??_C@_0BB@HHCCIHPJ@AIR?5?$CF1?5?$CF2?5?8?$CF3?8?$AN?6?$AA@ 0042fc78     slink.obj
 0002:00005c8c       ??_C@_0P@IOOLBDNC@ARR?5?$CF1?5?$CF2?5?$CF3?$AN?6?$AA@ 0042fc8c     slink.obj
 0002:00005c9c       ??_C@_0P@GMPKEBND@AGR?5?$CF1?5?$CF2?5?$CF3?$AN?6?$AA@ 0042fc9c     slink.obj
 0002:00005cac       ??_C@_0BE@POEKMNGK@ADC?5?$CF1?5?$CF2?5?$CF3?5?8?$CF4?8?$AN?6?$AA@ 0042fcac     slink.obj
 0002:00005cc0       ??_C@_0M@KDBOAOHO@server?5data?$AA@ 0042fcc0     slink.obj
 0002:00005ccc       ??_C@_0BG@FFGCLDFH@?9?9Client?5disconnected?$AA@ 0042fccc     slink.obj
 0002:00005ce4       ??_C@_0BD@OJGEOAMF@?9?9Client?5connected?$AA@ 0042fce4     slink.obj
 0002:00005cf8       ??_C@_0BP@ODNPILFK@AAA?3?5?$CFs?5?$CFs?5?$CFs?5on?5serverPort?5?$CFd?$AA@ 0042fcf8     slink.obj
 0002:00005d18       ??_C@_0EB@OPKPPGLK@ERR?5569?5?$CIARN?$CJ?5range?5error?5?$CIDevic@ 0042fd18     slink.obj
 0002:00005d5c       ??_C@_0BE@IDHPDCJI@ARN?5?$CF1?5?$CF2?5?$CF3?5?8?$CF4?8?$AN?6?$AA@ 0042fd5c     slink.obj
 0002:00005d70       ??_C@_0ED@EAHLOOCE@ERR?5569?5?$CIALR?$CJ?5range?5error?5?$CIDevic@ 0042fd70     slink.obj
 0002:00005db4       ??_C@_0DG@POCPBAMD@ERR?5569?5?$CIAxR?$CJ?5range?5error?5?$CIDevic@ 0042fdb4     slink.obj
 0002:00005df0       ??_C@_0FL@OFGNIGIH@ERR?5513?5?$CIA?$CF1P?$CJ?5Can?8t?5poll?5a?5rang@ 0042fdf0     slink.obj
 0002:00005e4c       ??_C@_0DI@HICIJOCL@ERR?5569?5?$CIA?$CF1P?$CJ?5Range?5error?5?$CIDevi@ 0042fe4c     slink.obj
 0002:00005e88       ??_C@_0HB@HIOOOLBA@This?5device?5?$CF1?5has?5no?5DatabaseSi@ 0042fe88     slink.obj
 0002:00005f00       ??_C@_0HK@JPONNBJO@Poll?5range?5for?5device?5?$CF1?5exceeds@ 0042ff00     slink.obj
 0002:00005f7c       ??_C@_0DH@GLIFDBMA@ERR?5569?5?$CIA?$CF1P?$CJ?5Range?5error?5?$CIDevi@ 0042ff7c     slink.obj
 0002:00005fb4       ??_C@_0BA@BNPEIECM@nextPoll?3?5push?5?$AA@ 0042ffb4     slink.obj
 0002:00005fc4       ??_C@_01CLKCMJKC@?5?$AA@   0042ffc4     slink.obj
 0002:00005fc8       ??_C@_0N@LCPIMBGF@?$CF1P?5?$CF2?5?$CF3?5?$CF4?$AA@ 0042ffc8     slink.obj
 0002:00005fd8       ??_C@_0EA@CJNACBDK@slinkServer?3?5not?5inserting?5?$CFc?5po@ 0042ffd8     slink.obj
 0002:00006018       ??_C@_0BM@IAPLHGPN@Poll?5Queue?3?5?$CFd?4?5Poll?5Set?5?$CFd?$AA@ 00430018     slink.obj
 0002:00006034       ??_C@_0CN@COGHNCLI@Secure?5Link?5Server?5?$CIslink?$CJ?6?6By?5D@ 00430034     slink.obj
 0002:00006064       ??_C@_0BF@DIPJNEMK@About?5slinkServer?4?4?4?$AA@ 00430064     slink.obj
 0002:0000607c       ??_C@_04PICIEOBI@?4chm?$AA@ 0043007c     slink.obj
 0002:00006084       ??_C@_04JLMDILM@?4exe?$AA@ 00430084     slink.obj
 0002:00006090       ??_C@_0HJ@FFCNJPCP@Can?8t?5open?5help?5file?6?6This?5needs@ 00430090     slink.obj
 0002:0000610c       ??_C@_05JIPHKDEJ@Ooops?$AA@ 0043010c     slink.obj
 0002:00006114       ??_C@_0BC@HNFBBLGH@1userAdded?$CIuser?$CK?$CJ?$AA@ 00430114     slink.obj
 0002:00006128       ??_C@_0BC@JHNHMGAF@2userAdded?$CIuser?$CK?$CJ?$AA@ 00430128     slink.obj
 0002:0000613c       ??_C@_0BO@NEFIFHHL@1userDeleted?$CIconst?5QString?5?$CG?$CJ?$AA@ 0043013c     slink.obj
 0002:0000615c       ??_C@_0BN@IHMIAKBO@2userDeleted?$CIconst?5QString?$CG?$CJ?$AA@ 0043015c     slink.obj
 0002:0000617c       ??_C@_0BD@KPGGFFHD@deleting?5server?5?$CFd?$AA@ 0043017c     slink.obj
 0002:00006190       ??_C@_0BH@EOKDKABO@NOT?5deleting?5server?5?$CFd?$AA@ 00430190     slink.obj
 0002:000061a8       ??_C@_0CB@BJNJDOLN@ERR?5569?5?$CIADP?$CJ?5Range?5error?5?$CI?$CF1?$CJ?$AN?6@ 004301a8     slink.obj
 0002:000061d0       ??_C@_0IL@CKIBHPAJ@Device?5?$CF1?5has?5no?5DatabaseSize_1?5@ 004301d0     slink.obj
 0002:0000625c       ??_C@_0BN@JGDEFCEK@ADP?5?$CF1?52?50?5?$CF2?5?$CF3?5DEV_?$CF4?5?$CF5?$AN?6?$AA@ 0043025c     slink.obj
 0002:00006280       ??_C@_0EE@MOKLPMCD@ERR?5569?5?$CIACD?$CJ?5Range?5error?5?$CIDevic@ 00430280     slink.obj
 0002:000062c4       ??_C@_0BF@KNNHECPI@ACD?5?$CF1?5?$CF2?5?$CF3?5?$CF4?5?$CF5?$AN?6?$AA@ 004302c4     slink.obj
 0002:000062dc       ??_C@_0BB@DAIHKBFH@Close?5connection?$AA@ 004302dc     slink.obj
 0002:000062f0       ??_C@_04PMOCAHAA@open?$AA@ 004302f0     slink.obj
 0002:000062f8       ??_C@_0BA@FKNGFNEK@Can?8t?5open?5file?$AA@ 004302f8     slink.obj
 0002:00006308       ??_C@_0BI@IIENOLGJ@nextPoll?3?5timer?5running?$AA@ 00430308     slink.obj
 0002:00006320       ??_C@_0BB@DFEFFNLC@nextPoll?3?5popped?$AA@ 00430320     slink.obj
 0002:00006334       ??_C@_0BC@NFDDDMLF@nextPoll?3?5shuffle?$AA@ 00430334     slink.obj
 0002:00006348       ??_C@_0BA@DINHOEBK@nextPoll?3?5poll?5?$AA@ 00430348     slink.obj
 0002:00006358       ??_C@_03NLJIHOMM@?5?9?5?$AA@ 00430358     slink.obj
 0002:0000635c       ??_C@_0DI@BINAJBKH@slinkServer?3?5can?8t?5add?5listener?5@ 0043035c     slink.obj
 0002:00006398       ??_C@_0EN@BDACOMFB@slinkServer?3?5Request?5to?5register@ 00430398     slink.obj
 0002:000063e8       ??_C@_0GM@KPBGAOCE@Couldn?8t?5create?5server?5socket?6?$CIi@ 004303e8     slink.obj
 0002:00006454       ??_C@_09GHOJLDKL@whitelist?$AA@ 00430454     slink.obj
 0002:00006460       ??_C@_07PHAKGAOP@Host_?$CF1?$AA@ 00430460     slink.obj
 0002:00006468       ??_C@_09LABEHAIO@blacklist?$AA@ 00430468     slink.obj
 0002:00006474       ??_C@_0BM@EJLFGLPD@Server?5listening?5on?5ports?3?5?$AA@ 00430474     slink.obj
 0002:00006490       ??_C@_03FFMPJLOG@?$CF1?0?$AA@ 00430490     slink.obj
 0002:00006494       ??_C@_0CM@EDCFMHFL@registrations?5left?5for?5?$CFd?5?9?5so?5r@ 00430494     slink.obj
 0002:000064c0       ??_C@_0DG@JLKNAHH@no?5registrations?5left?5for?5?$CFd?5?9?5s@ 004304c0     slink.obj
 0002:00006500       __xmm@00000014000002da0000000000000000 00430500     slink.obj
 0002:00006514       ??_7user@@6B@              00430514     user.obj
 0002:0000651c       ??_SQLabel@@6BQObject@@@   0043051c     userEditDialog.obj
 0002:000065d4       ??_SQLabel@@6BQPaintDevice@@@ 004305d4     userEditDialog.obj
 0002:000065f4       ??_SQTreeWidgetItem@@6B@   004305f4     userEditDialog.obj
 0002:00006610       ??_C@_0BB@OGCFNDOP@Slink?5Edit?5Users?$AA@ 00430610     userEditDialog.obj
 0002:00006624       ??_C@_0P@NELHKJHG@userEditDialog?$AA@ 00430624     userEditDialog.obj
 0002:00006634       ??_C@_0BN@FHPDMDEP@Double?9click?5for?5permissions?$AA@ 00430634     userEditDialog.obj
 0002:00006654       ??_C@_0BF@OBNMEGJI@Workstation?5Override?$AA@ 00430654     userEditDialog.obj
 0002:0000666c       ??_C@_0BB@GGCBLED@Control?5Password?$AA@ 0043066c     userEditDialog.obj
 0002:00006680       ??_C@_08FJIAHGMM@Password?$AA@ 00430680     userEditDialog.obj
 0002:0000668c       ??_C@_09FCOKPOKB@User?5Name?$AA@ 0043068c     userEditDialog.obj
 0002:00006698       ??_C@_03LDFMNCOE@Add?$AA@  00430698     userEditDialog.obj
 0002:0000669c       ??_C@_06JBKGCNBB@Delete?$AA@ 0043069c     userEditDialog.obj
 0002:000066a4       ??_C@_0DO@IAOHBLGP@Changes?5are?5dynamic?5and?5do?5not?5r@ 004306a4     userEditDialog.obj
 0002:000066e4       ??_C@_05LGELBCGM@Close?$AA@ 004306e4     userEditDialog.obj
 0002:000068a8       ??_7userEditDialog@@6BQObject@@@ 004308a8     userEditDialog.obj
 0002:00006974       ??_7userEditDialog@@6BQPaintDevice@@@ 00430974     userEditDialog.obj
 0002:00006990       ??_C@_0CP@BEAFLHIP@1slotItemDoubleClicked?$CIQTreeWidg@ 00430990     userEditDialog.obj
 0002:000069c0       ??_C@_0CL@JBHHPKLA@2itemDoubleClicked?$CIQTreeWidgetIt@ 004309c0     userEditDialog.obj
 0002:000069ec       ??_C@_0P@HBPLBCID@1slotAddUser?$CI?$CJ?$AA@ 004309ec     userEditDialog.obj
 0002:000069fc       ??_C@_0BC@MDENKFON@1slotDeleteUser?$CI?$CJ?$AA@ 004309fc     userEditDialog.obj
 0002:00006a10       ??_C@_0BEI@IEAMDAJL@Enter?5user?5name?0?5password?5and?5co@ 00430a10     userEditDialog.obj
 0002:00006b58       ??_C@_08CGIHGCOC@Add?5User?$AA@ 00430b58     userEditDialog.obj
 0002:00006b64       ??_C@_0DE@BEJKOALA@Port?5must?5be?50?5?$CIuse?5default?$CJ?5or?5@ 00430b64     userEditDialog.obj
 0002:00006b98       ??_C@_0BG@EICPHMKP@Can?8t?5set?5server?5port?$AA@ 00430b98     userEditDialog.obj
 0002:00006bb0       ??_C@_0CK@JBAKNAOK@Can?8t?5add?5user?5?9?5that?5name?5alrea@ 00430bb0     userEditDialog.obj
 0002:00006bdc       ??_C@_0P@HCDGBGP@Can?8t?5add?5user?$AA@ 00430bdc     userEditDialog.obj
 0002:00006bf0       ??_C@_0EO@CMBMDNDF@Really?5delete?5user?5?$CC?$CF1?$CC?$DP?6?6This?5w@ 00430bf0     userEditDialog.obj
 0002:00006c40       ??_C@_0P@HLEHKMIA@Really?5delete?$DP?$AA@ 00430c40     userEditDialog.obj
 0002:00006c50       ??_C@_01NBENCBCI@?$CK?$AA@ 00430c50     userEditPermissionsDialog.obj
 0002:00006c5c       ??_SQDialogButtonBox@@6BQObject@@@ 00430c5c     userEditPermissionsDialog.obj
 0002:00006d14       ??_SQDialogButtonBox@@6BQPaintDevice@@@ 00430d14     userEditPermissionsDialog.obj
 0002:00006d34       ??_SQToolButton@@6BQObject@@@ 00430d34     userEditPermissionsDialog.obj
 0002:00006df8       ??_SQToolButton@@6BQPaintDevice@@@ 00430df8     userEditPermissionsDialog.obj
 0002:00006e14       ??_C@_09DMINLBG@1accept?$CI?$CJ?$AA@ 00430e14     userEditPermissionsDialog.obj
 0002:00006e20       ??_C@_0M@MBACPLBI@2accepted?$CI?$CJ?$AA@ 00430e20     userEditPermissionsDialog.obj
 0002:00006e2c       ??_C@_09OCDCAEKE@1reject?$CI?$CJ?$AA@ 00430e2c     userEditPermissionsDialog.obj
 0002:00006e38       ??_C@_0M@BJNBJJN@2rejected?$CI?$CJ?$AA@ 00430e38     userEditPermissionsDialog.obj
 0002:00006e44       ??_C@_0BB@NLAHLNMG@User?5Permissions?$AA@ 00430e44     userEditPermissionsDialog.obj
 0002:00006e58       ??_C@_0BK@GKAGFJOK@userEditPermissionsDialog?$AA@ 00430e58     userEditPermissionsDialog.obj
 0002:00006e74       ??_C@_0M@JAFLNGPM@Read?5access?$AA@ 00430e74     userEditPermissionsDialog.obj
 0002:00006e80       ??_C@_02GPIOPFAK@?$DO?$DO?$AA@ 00430e80     userEditPermissionsDialog.obj
 0002:00006e84       ??_C@_02FODMEDOG@?$DM?$DM?$AA@ 00430e84     userEditPermissionsDialog.obj
 0002:00006e88       ??_C@_0N@JLGJEJHE@Write?5Access?$AA@ 00430e88     userEditPermissionsDialog.obj
 0002:00006e98       ??_C@_0CP@HMPLGKJE@Entries?5are?3?5device?3start?9end?5e?4@ 00430e98     userEditPermissionsDialog.obj
 0002:00007130       ??_7userEditPermissionsDialog@@6BQObject@@@ 00431130     userEditPermissionsDialog.obj
 0002:000071fc       ??_7userEditPermissionsDialog@@6BQPaintDevice@@@ 004311fc     userEditPermissionsDialog.obj
 0002:00007218       ??_C@_0P@OMMBDPAL@1doCopyRight?$CI?$CJ?$AA@ 00431218     userEditPermissionsDialog.obj
 0002:00007228       ??_C@_0O@PLEOLFEH@1doCopyLeft?$CI?$CJ?$AA@ 00431228     userEditPermissionsDialog.obj
 0002:00007238       ??_C@_04DOPMJLDM@?$CF1?3?$CK?$AA@ 00431238     userEditPermissionsDialog.obj
 0002:00007240       ??_C@_08IANBGMPJ@?$CF1?3?$CF2?9?$CF3?$AA@ 00431240     userEditPermissionsDialog.obj
 0002:0000724c       ??_C@_05MJHNJDFA@?$CF1?3?$CF2?$AA@ 0043124c     userEditPermissionsDialog.obj
 0002:00007258       ??_C@_0FM@BFCGPIGL@?6Format?5is?3?6?7?$DMdevice?$DO?3?$DMindex?$DO?6or@ 00431258     userEditPermissionsDialog.obj
 0002:000072b4       ??_C@_02NMOLBIHC@?6?7?$AA@ 004312b4     userEditPermissionsDialog.obj
 0002:000072b8       ??_C@_0BP@JPDIDOHO@These?5are?5not?5valid?5entries?3?6?7?$AA@ 004312b8     userEditPermissionsDialog.obj
 0002:000072d8       ??_C@_07OBMDJLLM@Oh?5dear?$AA@ 004312d8     userEditPermissionsDialog.obj
 0002:000072e0       ??_C@_0O@EKIMNGFF@DevReadAccess?$AA@ 004312e0     userEditPermissionsDialog.obj
 0002:000072f0       ??_C@_0P@GAAMBOLP@DevWriteAccess?$AA@ 004312f0     userEditPermissionsDialog.obj
 0002:00007300       ??_C@_0BB@DCKONNMO@DevReadAccess_?$CF1?$AA@ 00431300     userEditPermissionsDialog.obj
 0002:00007314       ??_C@_0BC@HIEAFGPE@DevWriteAccess_?$CF1?$AA@ 00431314     userEditPermissionsDialog.obj
 0002:00007328       ??_C@_0O@OENHCAGP@loading?5users?$AA@ 00431328     users.obj
 0002:00007338       ??_C@_05MNAOKCKF@user_?$AA@ 00431338     users.obj
 0002:00007340       ??_C@_04DPHCJMMM@Read?$AA@ 00431340     users.obj
 0002:00007348       ??_C@_05MFIFJEGB@?$CF1_?$CF2?$AA@ 00431348     users.obj
 0002:00007350       ??_C@_08KAFEAHEM@UserName?$AA@ 00431350     users.obj
 0002:0000735c       ??_C@_08HFKEBFAC@UserPass?$AA@ 0043135c     users.obj
 0002:00007368       ??_C@_0M@GHALFOCF@ControlPass?$AA@ 00431368     users.obj
 0002:00007374       ??_C@_0P@GCHNKGJG@UserServerPort?$AA@ 00431374     users.obj
 0002:00007384       ??_C@_0BE@CIGANFED@WorkstationOverride?$AA@ 00431384     users.obj
 0002:00007398       ??_C@_0CD@KKHFKENA@Username?5for?5section?5?$CF1?5is?5not?5s@ 00431398     users.obj
 0002:000073bc       ??_C@_0CD@OCKIPEDI@Password?5for?5section?5?$CF1?5is?5not?5s@ 004313bc     users.obj
 0002:000073e0       ??_C@_0CK@MGIOFPPB@ControlPassword?5for?5section?5?$CF1?5i@ 004313e0     users.obj
 0002:0000740c       ??_C@_0P@FNCGIODI@deleting?5?$CFs?5?$CFs?$AA@ 0043140c     users.obj
 0002:0000741c       ??_C@_07OKAFKGIJ@User_?$CF1?$AA@ 0043141c     users.obj
 0002:00007424       ??_C@_0BH@LPJCACA@creating?5user?5?$CFs?5?$CFs?5?$CFs?$AA@ 00431424     users.obj
 0002:0000743c       ??_C@_0CA@JPBLPPDP@IP?5Blacklist?5?1?5Whitelist?5Editor?$AA@ 0043143c     whiteBlackListEditDialog.obj
 0002:0000745c       ??_C@_0BD@HKELOHGG@whiteBlackListEdit?$AA@ 0043145c     whiteBlackListEditDialog.obj
 0002:00007470       ??_C@_09CILELAHL@Whitelist?$AA@ 00431470     whiteBlackListEditDialog.obj
 0002:00007480       ??_C@_0LE@PJDPLBLG@Any?5entry?5here?5means?5the?5host?5mu@ 00431480     whiteBlackListEditDialog.obj
 0002:00007534       ??_C@_09PPEJHDFO@Blacklist?$AA@ 00431534     whiteBlackListEditDialog.obj
 0002:00007540       ??_C@_0FF@DPGHHDNK@Any?5entry?5here?5means?5host?5is?5exp@ 00431540     whiteBlackListEditDialog.obj
 0002:00007598       ??_C@_0FB@IHLMIFKI@Entries?5can?5be?5specific?5IP?5addre@ 00431598     whiteBlackListEditDialog.obj
 0002:000075ec       ??_C@_0CI@NBLDMPPA@e?4g?4?5192?4168?40?40?124?5?5?5or?5?5192?416@ 004315ec     whiteBlackListEditDialog.obj
 0002:000078ac       ??_7whiteBlackListEditDialog@@6BQObject@@@ 004318ac     whiteBlackListEditDialog.obj
 0002:00007978       ??_7whiteBlackListEditDialog@@6BQPaintDevice@@@ 00431978     whiteBlackListEditDialog.obj
 0002:00007994       ??_C@_0BN@NHFNOAJC@Not?5valid?5IP?1subnet?5values?3?6?$AA@ 00431994     whiteBlackListEditDialog.obj
 0002:000079b4       ??_C@_0N@NCDBAOKH@Config?5Error?$AA@ 004319b4     whiteBlackListEditDialog.obj
 0002:00007a14       ??_C@_00A@?$AA@            00431a14     htmlhelp:init.obj
 0002:00007a18       ??_C@_05CLMJGDKL@?$CF08lx?$AA@ 00431a18     bncswm32:BncsWM32.obj
 0002:00007a24       ??_7type_info@@6B@         00431a24     MSVCRT:ti_inst.obj
 0002:00007a30       __load_config_used         00431a30     MSVCRT:loadcfg.obj
 0002:00007a78       ??_R4cBncsVersion@@6B@     00431a78     cBncsVersion.obj
 0002:00007a8c       ??_R3cBncsVersion@@8       00431a8c     cBncsVersion.obj
 0002:00007a9c       ??_R2cBncsVersion@@8       00431a9c     cBncsVersion.obj
 0002:00007aa4       ??_R1A@?0A@EA@cBncsVersion@@8 00431aa4     cBncsVersion.obj
 0002:00007ac0       ??_R4bncs_disklog@@6B@     00431ac0     bncs_disklog.obj
 0002:00007ad4       ??_R3bncs_disklog@@8       00431ad4     bncs_disklog.obj
 0002:00007ae4       ??_R2bncs_disklog@@8       00431ae4     bncs_disklog.obj
 0002:00007aec       ??_R1A@?0A@EA@bncs_disklog@@8 00431aec     bncs_disklog.obj
 0002:00007b08       ??_R4error_category@std@@6B@ 00431b08     ccCheck.obj
 0002:00007b1c       ??_R3error_category@std@@8 00431b1c     ccCheck.obj
 0002:00007b2c       ??_R2error_category@std@@8 00431b2c     ccCheck.obj
 0002:00007b34       ??_R1A@?0A@EA@error_category@std@@8 00431b34     ccCheck.obj
 0002:00007b50       ??_R4_Generic_error_category@std@@6B@ 00431b50     ccCheck.obj
 0002:00007b64       ??_R3_Generic_error_category@std@@8 00431b64     ccCheck.obj
 0002:00007b74       ??_R2_Generic_error_category@std@@8 00431b74     ccCheck.obj
 0002:00007b80       ??_R1A@?0A@EA@_Generic_error_category@std@@8 00431b80     ccCheck.obj
 0002:00007b9c       ??_R4_Iostream_error_category@std@@6B@ 00431b9c     ccCheck.obj
 0002:00007bb0       ??_R3_Iostream_error_category@std@@8 00431bb0     ccCheck.obj
 0002:00007bc0       ??_R2_Iostream_error_category@std@@8 00431bc0     ccCheck.obj
 0002:00007bd0       ??_R1A@?0A@EA@_Iostream_error_category@std@@8 00431bd0     ccCheck.obj
 0002:00007bec       ??_R4_System_error_category@std@@6B@ 00431bec     ccCheck.obj
 0002:00007c00       ??_R3_System_error_category@std@@8 00431c00     ccCheck.obj
 0002:00007c10       ??_R2_System_error_category@std@@8 00431c10     ccCheck.obj
 0002:00007c20       ??_R1A@?0A@EA@_System_error_category@std@@8 00431c20     ccCheck.obj
 0002:00007c3c       ??_R4ccCheck@@6B@          00431c3c     ccCheck.obj
 0002:00007c50       ??_R3ccCheck@@8            00431c50     ccCheck.obj
 0002:00007c60       ??_R2ccCheck@@8            00431c60     ccCheck.obj
 0002:00007c68       ??_R1A@?0A@EA@ccCheck@@8   00431c68     ccCheck.obj
 0002:00007c84       ??_R4ccClient@@6B@         00431c84     ccClient.obj
 0002:00007c98       ??_R3ccClient@@8           00431c98     ccClient.obj
 0002:00007ca8       ??_R2ccClient@@8           00431ca8     ccClient.obj
 0002:00007cb4       ??_R1A@?0A@EA@ccClient@@8  00431cb4     ccClient.obj
 0002:00007cd0       ??_R4ccConfig@@6B@         00431cd0     ccConfig.obj
 0002:00007ce4       ??_R3ccConfig@@8           00431ce4     ccConfig.obj
 0002:00007cf4       ??_R2ccConfig@@8           00431cf4     ccConfig.obj
 0002:00007cfc       ??_R1A@?0A@EA@ccConfig@@8  00431cfc     ccConfig.obj
 0002:00007d18       ??_R4clientsRegistration@@6B@ 00431d18     clientsRegistration.obj
 0002:00007d2c       ??_R3clientsRegistration@@8 00431d2c     clientsRegistration.obj
 0002:00007d3c       ??_R2clientsRegistration@@8 00431d3c     clientsRegistration.obj
 0002:00007d44       ??_R1A@?0A@EA@clientsRegistration@@8 00431d44     clientsRegistration.obj
 0002:00007d60       ??_R4databaseSync@@6B@     00431d60     databaseSync.obj
 0002:00007d74       ??_R3databaseSync@@8       00431d74     databaseSync.obj
 0002:00007d84       ??_R2databaseSync@@8       00431d84     databaseSync.obj
 0002:00007d8c       ??_R1A@?0A@EA@databaseSync@@8 00431d8c     databaseSync.obj
 0002:00007da8       ??_R4decodeBNCSString@@6B@ 00431da8     decodeBNCSString.obj
 0002:00007dbc       ??_R3decodeBNCSString@@8   00431dbc     decodeBNCSString.obj
 0002:00007dcc       ??_R2decodeBNCSString@@8   00431dcc     decodeBNCSString.obj
 0002:00007dd4       ??_R1A@?0A@EA@decodeBNCSString@@8 00431dd4     decodeBNCSString.obj
 0002:00007df0       ??_R4fabianServer@@6B@     00431df0     fabianServer.obj
 0002:00007e04       ??_R3fabianServer@@8       00431e04     fabianServer.obj
 0002:00007e14       ??_R2fabianServer@@8       00431e14     fabianServer.obj
 0002:00007e24       ??_R1A@?0A@EA@fabianServer@@8 00431e24     fabianServer.obj
 0002:00007e40       ??_R1A@?0A@EA@QTcpServer@@8 00431e40     fabianServer.obj
 0002:00007e5c       ??_R3QTcpServer@@8         00431e5c     fabianServer.obj
 0002:00007e6c       ??_R2QTcpServer@@8         00431e6c     fabianServer.obj
 0002:00007e78       ??_R1A@?0A@EA@QObject@@8   00431e78     fabianServer.obj
 0002:00007e94       ??_R3QObject@@8            00431e94     fabianServer.obj
 0002:00007ea4       ??_R2QObject@@8            00431ea4     fabianServer.obj
 0002:00007eac       ??_R4QSslSocket@@6B@       00431eac     fabian_client.obj
 0002:00007ec0       ??_R3QSslSocket@@8         00431ec0     fabian_client.obj
 0002:00007ed0       ??_R2QSslSocket@@8         00431ed0     fabian_client.obj
 0002:00007ee8       ??_R1A@?0A@EA@QSslSocket@@8 00431ee8     fabian_client.obj
 0002:00007f04       ??_R1A@?0A@EA@QTcpSocket@@8 00431f04     fabian_client.obj
 0002:00007f20       ??_R3QTcpSocket@@8         00431f20     fabian_client.obj
 0002:00007f30       ??_R2QTcpSocket@@8         00431f30     fabian_client.obj
 0002:00007f44       ??_R1A@?0A@EA@QAbstractSocket@@8 00431f44     fabian_client.obj
 0002:00007f60       ??_R3QAbstractSocket@@8    00431f60     fabian_client.obj
 0002:00007f70       ??_R2QAbstractSocket@@8    00431f70     fabian_client.obj
 0002:00007f80       ??_R1A@?0A@EA@QIODevice@@8 00431f80     fabian_client.obj
 0002:00007f9c       ??_R3QIODevice@@8          00431f9c     fabian_client.obj
 0002:00007fac       ??_R2QIODevice@@8          00431fac     fabian_client.obj
 0002:00007fb8       ??_R4fabian_client@@6BQObject@@@ 00431fb8     fabian_client.obj
 0002:00007fcc       ??_R3fabian_client@@8      00431fcc     fabian_client.obj
 0002:00007fdc       ??_R2fabian_client@@8      00431fdc     fabian_client.obj
 0002:00007fec       ??_R1A@?0A@EA@fabian_client@@8 00431fec     fabian_client.obj
 0002:00008008       ??_R17?0A@EA@QTreeWidgetItem@@8 00432008     fabian_client.obj
 0002:00008024       ??_R3QTreeWidgetItem@@8    00432024     fabian_client.obj
 0002:00008034       ??_R2QTreeWidgetItem@@8    00432034     fabian_client.obj
 0002:0000803c       ??_R1A@?0A@EA@QTreeWidgetItem@@8 0043203c     fabian_client.obj
 0002:00008058       ??_R4fabian_client@@6BQTreeWidgetItem@@@ 00432058     fabian_client.obj
 0002:0000806c       ??_R4singleReg@@6B@        0043206c     singleReg.obj
 0002:00008080       ??_R3singleReg@@8          00432080     singleReg.obj
 0002:00008090       ??_R2singleReg@@8          00432090     singleReg.obj
 0002:00008098       ??_R1A@?0A@EA@singleReg@@8 00432098     singleReg.obj
 0002:000080b4       ??_R4QWidget@@6BQObject@@@ 004320b4     slink.obj
 0002:000080c8       ??_R3QWidget@@8            004320c8     slink.obj
 0002:000080d8       ??_R2QWidget@@8            004320d8     slink.obj
 0002:000080e8       ??_R1A@?0A@EA@QWidget@@8   004320e8     slink.obj
 0002:00008104       ??_R17?0A@EA@QPaintDevice@@8 00432104     slink.obj
 0002:00008120       ??_R3QPaintDevice@@8       00432120     slink.obj
 0002:00008130       ??_R2QPaintDevice@@8       00432130     slink.obj
 0002:00008138       ??_R1A@?0A@EA@QPaintDevice@@8 00432138     slink.obj
 0002:00008154       ??_R4QWidget@@6BQPaintDevice@@@ 00432154     slink.obj
 0002:00008168       ??_R4QAction@@6B@          00432168     slink.obj
 0002:0000817c       ??_R3QAction@@8            0043217c     slink.obj
 0002:0000818c       ??_R2QAction@@8            0043218c     slink.obj
 0002:00008198       ??_R1A@?0A@EA@QAction@@8   00432198     slink.obj
 0002:000081b4       ??_R4QMenuBar@@6BQObject@@@ 004321b4     slink.obj
 0002:000081c8       ??_R3QMenuBar@@8           004321c8     slink.obj
 0002:000081d8       ??_R2QMenuBar@@8           004321d8     slink.obj
 0002:000081ec       ??_R1A@?0A@EA@QMenuBar@@8  004321ec     slink.obj
 0002:00008208       ??_R4QMenuBar@@6BQPaintDevice@@@ 00432208     slink.obj
 0002:0000821c       ??_R4QStatusBar@@6BQObject@@@ 0043221c     slink.obj
 0002:00008230       ??_R3QStatusBar@@8         00432230     slink.obj
 0002:00008240       ??_R2QStatusBar@@8         00432240     slink.obj
 0002:00008254       ??_R1A@?0A@EA@QStatusBar@@8 00432254     slink.obj
 0002:00008270       ??_R4QStatusBar@@6BQPaintDevice@@@ 00432270     slink.obj
 0002:00008284       ??_R4QToolBar@@6BQObject@@@ 00432284     slink.obj
 0002:00008298       ??_R3QToolBar@@8           00432298     slink.obj
 0002:000082a8       ??_R2QToolBar@@8           004322a8     slink.obj
 0002:000082bc       ??_R1A@?0A@EA@QToolBar@@8  004322bc     slink.obj
 0002:000082d8       ??_R4QToolBar@@6BQPaintDevice@@@ 004322d8     slink.obj
 0002:000082ec       ??_R4QMenu@@6BQObject@@@   004322ec     slink.obj
 0002:00008300       ??_R3QMenu@@8              00432300     slink.obj
 0002:00008310       ??_R2QMenu@@8              00432310     slink.obj
 0002:00008324       ??_R1A@?0A@EA@QMenu@@8     00432324     slink.obj
 0002:00008340       ??_R4QMenu@@6BQPaintDevice@@@ 00432340     slink.obj
 0002:00008354       ??_R4QGroupBox@@6BQObject@@@ 00432354     slink.obj
 0002:00008368       ??_R3QGroupBox@@8          00432368     slink.obj
 0002:00008378       ??_R2QGroupBox@@8          00432378     slink.obj
 0002:0000838c       ??_R1A@?0A@EA@QGroupBox@@8 0043238c     slink.obj
 0002:000083a8       ??_R4QGroupBox@@6BQPaintDevice@@@ 004323a8     slink.obj
 0002:000083bc       ??_R4QSpacerItem@@6B@      004323bc     slink.obj
 0002:000083d0       ??_R3QSpacerItem@@8        004323d0     slink.obj
 0002:000083e0       ??_R2QSpacerItem@@8        004323e0     slink.obj
 0002:000083ec       ??_R1A@?0A@EA@QSpacerItem@@8 004323ec     slink.obj
 0002:00008408       ??_R1A@?0A@EA@QLayoutItem@@8 00432408     slink.obj
 0002:00008424       ??_R3QLayoutItem@@8        00432424     slink.obj
 0002:00008434       ??_R2QLayoutItem@@8        00432434     slink.obj
 0002:0000843c       ??_R4QHBoxLayout@@6BQObject@@@ 0043243c     slink.obj
 0002:00008450       ??_R3QHBoxLayout@@8        00432450     slink.obj
 0002:00008460       ??_R2QHBoxLayout@@8        00432460     slink.obj
 0002:00008478       ??_R1A@?0A@EA@QHBoxLayout@@8 00432478     slink.obj
 0002:00008494       ??_R1A@?0A@EA@QBoxLayout@@8 00432494     slink.obj
 0002:000084b0       ??_R3QBoxLayout@@8         004324b0     slink.obj
 0002:000084c0       ??_R2QBoxLayout@@8         004324c0     slink.obj
 0002:000084d4       ??_R1A@?0A@EA@QLayout@@8   004324d4     slink.obj
 0002:000084f0       ??_R3QLayout@@8            004324f0     slink.obj
 0002:00008500       ??_R2QLayout@@8            00432500     slink.obj
 0002:00008510       ??_R17?0A@EA@QLayoutItem@@8 00432510     slink.obj
 0002:0000852c       ??_R4QHBoxLayout@@6BQLayoutItem@@@ 0043252c     slink.obj
 0002:00008540       ??_R4QVBoxLayout@@6BQObject@@@ 00432540     slink.obj
 0002:00008554       ??_R3QVBoxLayout@@8        00432554     slink.obj
 0002:00008564       ??_R2QVBoxLayout@@8        00432564     slink.obj
 0002:0000857c       ??_R1A@?0A@EA@QVBoxLayout@@8 0043257c     slink.obj
 0002:00008598       ??_R4QVBoxLayout@@6BQLayoutItem@@@ 00432598     slink.obj
 0002:000085ac       ??_R4QListWidget@@6BQObject@@@ 004325ac     slink.obj
 0002:000085c0       ??_R3QListWidget@@8        004325c0     slink.obj
 0002:000085d0       ??_R2QListWidget@@8        004325d0     slink.obj
 0002:000085f4       ??_R1A@?0A@EA@QListWidget@@8 004325f4     slink.obj
 0002:00008610       ??_R1A@?0A@EA@QListView@@8 00432610     slink.obj
 0002:0000862c       ??_R3QListView@@8          0043262c     slink.obj
 0002:0000863c       ??_R2QListView@@8          0043263c     slink.obj
 0002:0000865c       ??_R1A@?0A@EA@QAbstractItemView@@8 0043265c     slink.obj
 0002:00008678       ??_R3QAbstractItemView@@8  00432678     slink.obj
 0002:00008688       ??_R2QAbstractItemView@@8  00432688     slink.obj
 0002:000086a4       ??_R1A@?0A@EA@QAbstractScrollArea@@8 004326a4     slink.obj
 0002:000086c0       ??_R3QAbstractScrollArea@@8 004326c0     slink.obj
 0002:000086d0       ??_R2QAbstractScrollArea@@8 004326d0     slink.obj
 0002:000086e8       ??_R1A@?0A@EA@QFrame@@8    004326e8     slink.obj
 0002:00008704       ??_R3QFrame@@8             00432704     slink.obj
 0002:00008714       ??_R2QFrame@@8             00432714     slink.obj
 0002:00008728       ??_R4QListWidget@@6BQPaintDevice@@@ 00432728     slink.obj
 0002:0000873c       ??_R4QListWidgetItem@@6B@  0043273c     slink.obj
 0002:00008750       ??_R3QListWidgetItem@@8    00432750     slink.obj
 0002:00008760       ??_R2QListWidgetItem@@8    00432760     slink.obj
 0002:00008768       ??_R1A@?0A@EA@QListWidgetItem@@8 00432768     slink.obj
 0002:00008784       ??_R4QPushButton@@6BQObject@@@ 00432784     slink.obj
 0002:00008798       ??_R3QPushButton@@8        00432798     slink.obj
 0002:000087a8       ??_R2QPushButton@@8        004327a8     slink.obj
 0002:000087c0       ??_R1A@?0A@EA@QPushButton@@8 004327c0     slink.obj
 0002:000087dc       ??_R1A@?0A@EA@QAbstractButton@@8 004327dc     slink.obj
 0002:000087f8       ??_R3QAbstractButton@@8    004327f8     slink.obj
 0002:00008808       ??_R2QAbstractButton@@8    00432808     slink.obj
 0002:0000881c       ??_R4QPushButton@@6BQPaintDevice@@@ 0043281c     slink.obj
 0002:00008830       ??_R4QSplitter@@6BQObject@@@ 00432830     slink.obj
 0002:00008844       ??_R3QSplitter@@8          00432844     slink.obj
 0002:00008854       ??_R2QSplitter@@8          00432854     slink.obj
 0002:0000886c       ??_R1A@?0A@EA@QSplitter@@8 0043286c     slink.obj
 0002:00008888       ??_R4QSplitter@@6BQPaintDevice@@@ 00432888     slink.obj
 0002:0000889c       ??_R4QTextEdit@@6BQObject@@@ 0043289c     slink.obj
 0002:000088b0       ??_R3QTextEdit@@8          004328b0     slink.obj
 0002:000088c0       ??_R2QTextEdit@@8          004328c0     slink.obj
 0002:000088dc       ??_R1A@?0A@EA@QTextEdit@@8 004328dc     slink.obj
 0002:000088f8       ??_R4QTextEdit@@6BQPaintDevice@@@ 004328f8     slink.obj
 0002:0000890c       ??_R4QTreeWidget@@6BQObject@@@ 0043290c     slink.obj
 0002:00008920       ??_R3QTreeWidget@@8        00432920     slink.obj
 0002:00008930       ??_R2QTreeWidget@@8        00432930     slink.obj
 0002:00008954       ??_R1A@?0A@EA@QTreeWidget@@8 00432954     slink.obj
 0002:00008970       ??_R1A@?0A@EA@QTreeView@@8 00432970     slink.obj
 0002:0000898c       ??_R3QTreeView@@8          0043298c     slink.obj
 0002:0000899c       ??_R2QTreeView@@8          0043299c     slink.obj
 0002:000089bc       ??_R4QTreeWidget@@6BQPaintDevice@@@ 004329bc     slink.obj
 0002:000089d0       ??_R4Ifabian_clientCallback@@6B@ 004329d0     slink.obj
 0002:000089e4       ??_R3Ifabian_clientCallback@@8 004329e4     slink.obj
 0002:000089f4       ??_R2Ifabian_clientCallback@@8 004329f4     slink.obj
 0002:000089fc       ??_R1A@?0A@EA@Ifabian_clientCallback@@8 004329fc     slink.obj
 0002:00008a18       ??_R4IccClientCallback@@6B@ 00432a18     slink.obj
 0002:00008a2c       ??_R3IccClientCallback@@8  00432a2c     slink.obj
 0002:00008a3c       ??_R2IccClientCallback@@8  00432a3c     slink.obj
 0002:00008a44       ??_R1A@?0A@EA@IccClientCallback@@8 00432a44     slink.obj
 0002:00008a60       ??_R4slink@@6BQObject@@@   00432a60     slink.obj
 0002:00008a74       ??_R3slink@@8              00432a74     slink.obj
 0002:00008a84       ??_R2slink@@8              00432a84     slink.obj
 0002:00008aa8       ??_R1A@?0A@EA@slink@@8     00432aa8     slink.obj
 0002:00008ac4       ??_R1A@?0A@EA@QMainWindow@@8 00432ac4     slink.obj
 0002:00008ae0       ??_R3QMainWindow@@8        00432ae0     slink.obj
 0002:00008af0       ??_R2QMainWindow@@8        00432af0     slink.obj
 0002:00008b04       ??_R1BI@?0A@EN@IccClientCallback@@8 00432b04     slink.obj
 0002:00008b20       ??_R1BM@?0A@EN@Ifabian_clientCallback@@8 00432b20     slink.obj
 0002:00008b3c       ??_R1CA@?0A@EN@ccCheck@@8  00432b3c     slink.obj
 0002:00008b58       ??_R4slink@@6BQPaintDevice@@@ 00432b58     slink.obj
 0002:00008b6c       ??_R4slink@@6BIccClientCallback@@@ 00432b6c     slink.obj
 0002:00008b80       ??_R4slink@@6BIfabian_clientCallback@@@ 00432b80     slink.obj
 0002:00008b94       ??_R4slink@@6BccCheck@@@   00432b94     slink.obj
 0002:00008ba8       ??_R4user@@6B@             00432ba8     user.obj
 0002:00008bbc       ??_R3user@@8               00432bbc     user.obj
 0002:00008bcc       ??_R2user@@8               00432bcc     user.obj
 0002:00008bd4       ??_R1A@?0A@EA@user@@8      00432bd4     user.obj
 0002:00008bf0       ??_R4QLabel@@6BQObject@@@  00432bf0     userEditDialog.obj
 0002:00008c04       ??_R3QLabel@@8             00432c04     userEditDialog.obj
 0002:00008c14       ??_R2QLabel@@8             00432c14     userEditDialog.obj
 0002:00008c2c       ??_R1A@?0A@EA@QLabel@@8    00432c2c     userEditDialog.obj
 0002:00008c48       ??_R4QLabel@@6BQPaintDevice@@@ 00432c48     userEditDialog.obj
 0002:00008c5c       ??_R4QTreeWidgetItem@@6B@  00432c5c     userEditDialog.obj
 0002:00008c70       ??_R4userEditDialog@@6BQObject@@@ 00432c70     userEditDialog.obj
 0002:00008c84       ??_R3userEditDialog@@8     00432c84     userEditDialog.obj
 0002:00008c94       ??_R2userEditDialog@@8     00432c94     userEditDialog.obj
 0002:00008cac       ??_R1A@?0A@EA@userEditDialog@@8 00432cac     userEditDialog.obj
 0002:00008cc8       ??_R1A@?0A@EA@QDialog@@8   00432cc8     userEditDialog.obj
 0002:00008ce4       ??_R3QDialog@@8            00432ce4     userEditDialog.obj
 0002:00008cf4       ??_R2QDialog@@8            00432cf4     userEditDialog.obj
 0002:00008d08       ??_R4userEditDialog@@6BQPaintDevice@@@ 00432d08     userEditDialog.obj
 0002:00008d1c       ??_R4QToolButton@@6BQObject@@@ 00432d1c     userEditPermissionsDialog.obj
 0002:00008d30       ??_R3QToolButton@@8        00432d30     userEditPermissionsDialog.obj
 0002:00008d40       ??_R2QToolButton@@8        00432d40     userEditPermissionsDialog.obj
 0002:00008d58       ??_R1A@?0A@EA@QToolButton@@8 00432d58     userEditPermissionsDialog.obj
 0002:00008d74       ??_R4QToolButton@@6BQPaintDevice@@@ 00432d74     userEditPermissionsDialog.obj
 0002:00008d88       ??_R4QDialogButtonBox@@6BQObject@@@ 00432d88     userEditPermissionsDialog.obj
 0002:00008d9c       ??_R3QDialogButtonBox@@8   00432d9c     userEditPermissionsDialog.obj
 0002:00008dac       ??_R2QDialogButtonBox@@8   00432dac     userEditPermissionsDialog.obj
 0002:00008dc0       ??_R1A@?0A@EA@QDialogButtonBox@@8 00432dc0     userEditPermissionsDialog.obj
 0002:00008ddc       ??_R4QDialogButtonBox@@6BQPaintDevice@@@ 00432ddc     userEditPermissionsDialog.obj
 0002:00008df0       ??_R4userEditPermissionsDialog@@6BQObject@@@ 00432df0     userEditPermissionsDialog.obj
 0002:00008e04       ??_R3userEditPermissionsDialog@@8 00432e04     userEditPermissionsDialog.obj
 0002:00008e14       ??_R2userEditPermissionsDialog@@8 00432e14     userEditPermissionsDialog.obj
 0002:00008e2c       ??_R1A@?0A@EA@userEditPermissionsDialog@@8 00432e2c     userEditPermissionsDialog.obj
 0002:00008e48       ??_R4userEditPermissionsDialog@@6BQPaintDevice@@@ 00432e48     userEditPermissionsDialog.obj
 0002:00008e5c       ??_R4whiteBlackListEditDialog@@6BQObject@@@ 00432e5c     whiteBlackListEditDialog.obj
 0002:00008e70       ??_R3whiteBlackListEditDialog@@8 00432e70     whiteBlackListEditDialog.obj
 0002:00008e80       ??_R2whiteBlackListEditDialog@@8 00432e80     whiteBlackListEditDialog.obj
 0002:00008e98       ??_R1A@?0A@EA@whiteBlackListEditDialog@@8 00432e98     whiteBlackListEditDialog.obj
 0002:00008eb4       ??_R4whiteBlackListEditDialog@@6BQPaintDevice@@@ 00432eb4     whiteBlackListEditDialog.obj
 0002:00008ec8       ??_R4type_info@@6B@        00432ec8     MSVCRT:ti_inst.obj
 0002:00008edc       ??_R3type_info@@8          00432edc     MSVCRT:ti_inst.obj
 0002:00008eec       ??_R2type_info@@8          00432eec     MSVCRT:ti_inst.obj
 0002:00008ef4       ??_R1A@?0A@EA@type_info@@8 00432ef4     MSVCRT:ti_inst.obj
 0002:00008f10       ___rtc_iaa                 00432f10     MSVCRT:initsect.obj
 0002:00008f14       ___rtc_izz                 00432f14     MSVCRT:initsect.obj
 0002:00008f18       ___rtc_taa                 00432f18     MSVCRT:initsect.obj
 0002:00008f1c       ___rtc_tzz                 00432f1c     MSVCRT:initsect.obj
 0002:0000d1f4       __IMPORT_DESCRIPTOR_VERSION 004371f4     version:VERSION.dll
 0002:0000d208       __IMPORT_DESCRIPTOR_Qt5Core 00437208     Qt5Core:Qt5Core.dll
 0002:0000d21c       __IMPORT_DESCRIPTOR_Qt5Gui 0043721c     Qt5Gui:Qt5Gui.dll
 0002:0000d230       __IMPORT_DESCRIPTOR_Qt5Network 00437230     Qt5Network:Qt5Network.dll
 0002:0000d244       __IMPORT_DESCRIPTOR_Qt5Widgets 00437244     Qt5Widgets:Qt5Widgets.dll
 0002:0000d258       __IMPORT_DESCRIPTOR_BNCSIF32 00437258     bncsif32:BNCSIF32.dll
 0002:0000d26c       __IMPORT_DESCRIPTOR_KERNEL32 0043726c     kernel32:KERNEL32.dll
 0002:0000d280       __IMPORT_DESCRIPTOR_USER32 00437280     user32:USER32.dll
 0002:0000d294       __IMPORT_DESCRIPTOR_ADVAPI32 00437294     advapi32:ADVAPI32.dll
 0002:0000d2a8       __IMPORT_DESCRIPTOR_SHELL32 004372a8     shell32:SHELL32.dll
 0002:0000d2bc       __IMPORT_DESCRIPTOR_MSVCR120 004372bc     MSVCRT:MSVCR120.dll
 0002:0000d2d0       __IMPORT_DESCRIPTOR_MSVCP120 004372d0     msvcprt:MSVCP120.dll
 0002:0000d2e4       __NULL_IMPORT_DESCRIPTOR   004372e4     version:VERSION.dll
 0003:000000d4       ?_Generic_object@?$_Error_objects@H@std@@2V_Generic_error_category@2@A 004420d4     ccCheck.obj
 0003:000000d8       ?_Iostream_object@?$_Error_objects@H@std@@2V_Iostream_error_category@2@A 004420d8     ccCheck.obj
 0003:000000dc       ?_System_object@?$_Error_objects@H@std@@2V_System_error_category@2@A 004420dc     ccCheck.obj
 0003:000001ae       ?g_doLogging@appGlobal@@0_NA 004421ae     appGlobal.obj
 0003:000001b0       ?staticMetaObject@fabianServer@@2UQMetaObject@@B 004421b0     moc_fabianServer.obj
 0003:000001c8       ?staticMetaObject@fabian_client@@2UQMetaObject@@B 004421c8     moc_fabian_client.obj
 0003:000001e0       ?staticMetaObject@slink@@2UQMetaObject@@B 004421e0     moc_slink.obj
 0003:000001f8       ?staticMetaObject@userEditDialog@@2UQMetaObject@@B 004421f8     moc_userEditDialog.obj
 0003:00000210       ?staticMetaObject@userEditPermissionsDialog@@2UQMetaObject@@B 00442210     moc_userEditPermissionsDialog.obj
 0003:00000514       ___security_cookie         00442514     MSVCRT:gs_cookie.obj
 0003:00000518       ___security_cookie_complement 00442518     MSVCRT:gs_cookie.obj
 0003:00000520       ___defaultmatherr          00442520     MSVCRT:merr.obj
 0003:00000524       ___globallocalestatus      00442524     MSVCRT:xthdloc.obj
 0003:00000528       ___native_dllmain_reason   00442528     MSVCRT:natstart.obj
 0003:0000052c       ??_R0?AVcBncsVersion@@@8   0044252c     cBncsVersion.obj
 0003:00000548       ??_R0?AVbncs_disklog@@@8   00442548     bncs_disklog.obj
 0003:00000564       ??_R0?AVerror_category@std@@@8 00442564     ccCheck.obj
 0003:00000588       ??_R0?AV_Generic_error_category@std@@@8 00442588     ccCheck.obj
 0003:000005b4       ??_R0?AV_Iostream_error_category@std@@@8 004425b4     ccCheck.obj
 0003:000005e0       ??_R0?AV_System_error_category@std@@@8 004425e0     ccCheck.obj
 0003:0000060c       ??_R0?AVccCheck@@@8        0044260c     ccCheck.obj
 0003:00000624       ??_R0?AVccClient@@@8       00442624     ccClient.obj
 0003:0000063c       ??_R0?AVccConfig@@@8       0044263c     ccConfig.obj
 0003:00000654       ??_R0?AVclientsRegistration@@@8 00442654     clientsRegistration.obj
 0003:00000678       ??_R0?AVdatabaseSync@@@8   00442678     databaseSync.obj
 0003:00000694       ??_R0?AVdecodeBNCSString@@@8 00442694     decodeBNCSString.obj
 0003:000006b4       ??_R0?AVfabianServer@@@8   004426b4     fabianServer.obj
 0003:000006d0       ??_R0?AVQTcpServer@@@8     004426d0     fabianServer.obj
 0003:000006ec       ??_R0?AVQObject@@@8        004426ec     fabianServer.obj
 0003:00000704       ??_R0?AVQSslSocket@@@8     00442704     fabian_client.obj
 0003:00000720       ??_R0?AVQTcpSocket@@@8     00442720     fabian_client.obj
 0003:0000073c       ??_R0?AVQAbstractSocket@@@8 0044273c     fabian_client.obj
 0003:0000075c       ??_R0?AVQIODevice@@@8      0044275c     fabian_client.obj
 0003:00000774       ??_R0?AVfabian_client@@@8  00442774     fabian_client.obj
 0003:00000790       ??_R0?AVQTreeWidgetItem@@@8 00442790     fabian_client.obj
 0003:000007b0       ??_R0?AVsingleReg@@@8      004427b0     singleReg.obj
 0003:000007c8       ??_R0?AVQWidget@@@8        004427c8     slink.obj
 0003:000007e0       ??_R0?AVQPaintDevice@@@8   004427e0     slink.obj
 0003:000007fc       ??_R0?AVQAction@@@8        004427fc     slink.obj
 0003:00000814       ??_R0?AVQMenuBar@@@8       00442814     slink.obj
 0003:0000082c       ??_R0?AVQStatusBar@@@8     0044282c     slink.obj
 0003:00000848       ??_R0?AVQToolBar@@@8       00442848     slink.obj
 0003:00000860       ??_R0?AVQMenu@@@8          00442860     slink.obj
 0003:00000874       ??_R0?AVQGroupBox@@@8      00442874     slink.obj
 0003:0000088c       ??_R0?AVQSpacerItem@@@8    0044288c     slink.obj
 0003:000008a8       ??_R0?AVQLayoutItem@@@8    004428a8     slink.obj
 0003:000008c4       ??_R0?AVQHBoxLayout@@@8    004428c4     slink.obj
 0003:000008e0       ??_R0?AVQBoxLayout@@@8     004428e0     slink.obj
 0003:000008fc       ??_R0?AVQLayout@@@8        004428fc     slink.obj
 0003:00000914       ??_R0?AVQVBoxLayout@@@8    00442914     slink.obj
 0003:00000930       ??_R0?AVQListWidget@@@8    00442930     slink.obj
 0003:0000094c       ??_R0?AVQListView@@@8      0044294c     slink.obj
 0003:00000964       ??_R0?AVQAbstractItemView@@@8 00442964     slink.obj
 0003:00000984       ??_R0?AVQAbstractScrollArea@@@8 00442984     slink.obj
 0003:000009a8       ??_R0?AVQFrame@@@8         004429a8     slink.obj
 0003:000009c0       ??_R0?AVQListWidgetItem@@@8 004429c0     slink.obj
 0003:000009e0       ??_R0?AVQPushButton@@@8    004429e0     slink.obj
 0003:000009fc       ??_R0?AVQAbstractButton@@@8 004429fc     slink.obj
 0003:00000a1c       ??_R0?AVQSplitter@@@8      00442a1c     slink.obj
 0003:00000a34       ??_R0?AVQTextEdit@@@8      00442a34     slink.obj
 0003:00000a4c       ??_R0?AVQTreeWidget@@@8    00442a4c     slink.obj
 0003:00000a68       ??_R0?AVQTreeView@@@8      00442a68     slink.obj
 0003:00000a80       ??_R0?AVIfabian_clientCallback@@@8 00442a80     slink.obj
 0003:00000aa8       ??_R0?AVIccClientCallback@@@8 00442aa8     slink.obj
 0003:00000ac8       ??_R0?AVslink@@@8          00442ac8     slink.obj
 0003:00000adc       ??_R0?AVQMainWindow@@@8    00442adc     slink.obj
 0003:00000af8       ??_R0?AVuser@@@8           00442af8     user.obj
 0003:00000b0c       ??_R0?AVQLabel@@@8         00442b0c     userEditDialog.obj
 0003:00000b24       ??_R0?AVuserEditDialog@@@8 00442b24     userEditDialog.obj
 0003:00000b44       ??_R0?AVQDialog@@@8        00442b44     userEditDialog.obj
 0003:00000b5c       ??_R0?AVQToolButton@@@8    00442b5c     userEditPermissionsDialog.obj
 0003:00000b78       ??_R0?AVQDialogButtonBox@@@8 00442b78     userEditPermissionsDialog.obj
 0003:00000b98       ??_R0?AVuserEditPermissionsDialog@@@8 00442b98     userEditPermissionsDialog.obj
 0003:00000bc0       ??_R0?AVwhiteBlackListEditDialog@@@8 00442bc0     whiteBlackListEditDialog.obj
 0003:00000be8       ??_R0?AVtype_info@@@8      00442be8     MSVCRT:ti_inst.obj
 0003:00000c04       ?id@?$num_put@DV?$back_insert_iterator@V?$basic_string@DU?$char_traits@D@std@@V?$allocator@D@2@@std@@@std@@@std@@2V0locale@2@A 00442c04     ccCheck.obj
 0003:00000c08       ?id@?$num_put@_WV?$back_insert_iterator@V?$basic_string@_WU?$char_traits@_W@std@@V?$allocator@_W@2@@std@@@std@@@std@@2V0locale@2@A 00442c08     ccCheck.obj
 0003:00000c14       ?m_textEdit@appGlobal@@0PAVQTextEdit@@A 00442c14     appGlobal.obj
 0003:00000c18       ?g_disklog@appGlobal@@0PAVbncs_disklog@@A 00442c18     appGlobal.obj
 0003:00000c20       ?m_dataPath@appGlobal@@0VQString@@A 00442c20     appGlobal.obj
 0003:00000c24       ?m_profile@appGlobal@@0VQString@@A 00442c24     appGlobal.obj
 0003:00000c30       ?m_obj@databaseSync@@0V?$map@IPAVdatabaseSync@@U?$less@I@std@@V?$allocator@U?$pair@$$CBIPAVdatabaseSync@@@std@@@3@@std@@A 00442c30     databaseSync.obj
 0003:00000c41       ?dummy@?A0x3ad23e3c@@3Uinitializer@1@A 00442c41     qrc_slink.obj
 0003:00000c4c       ?metatype_id@?1??qt_metatype_id@?$QMetaTypeId@W4SocketError@QAbstractSocket@@@@SAHXZ@4V?$QBasicAtomicInteger@H@@A 00442c4c     moc_fabian_client.obj
 0003:00000c50       ?metatype_id@?1??qt_metatype_id@?$QMetaTypeId@V?$QList@VQSslError@@@@@@SAHXZ@4V?$QBasicAtomicInteger@H@@A 00442c50     moc_fabian_client.obj
 0003:00000c78       ?m_users@users@@0V?$map@VQString@@PAVuser@@U?$less@VQString@@@std@@V?$allocator@U?$pair@$$CBVQString@@PAVuser@@@std@@@4@@std@@A 00442c78     users.obj
 0003:00000c98       ?pHtmlHelpW@@3P6GPAUHWND__@@PAU1@PBGIK@ZA 00442c98     htmlhelp:init.obj
 0003:00000c9c       ?pHtmlHelpA@@3P6GPAUHWND__@@PAU1@PBDIK@ZA 00442c9c     htmlhelp:init.obj
 0003:00001218       __commode                  00443218     MSVCRT:xncommod.obj
 0003:0000121c       __dowildcard               0044321c     MSVCRT:wildcard.obj
 0003:00001220       __newmode                  00443220     MSVCRT:_newmode.obj
 0003:00001224       __fmode                    00443224     MSVCRT:xtxtmode.obj
 0003:0000122c       ___native_startup_lock     0044322c     <common>
 0003:00001230       ___native_startup_state    00443230     <common>
 0003:00001234       ___dyn_tls_init_callback   00443234     <common>
 0003:00001238       ___onexitend               00443238     <common>
 0003:0000123c       ___onexitbegin             0044323c     <common>

 entry point at        0001:00023aef

 Static symbols

 0001:00000100       ??__E?_Generic_object@?$_Error_objects@H@std@@2V_Generic_error_category@2@A@@YAXXZ 00401100 f   ccCheck.obj
 0001:00000110       ??__E?_Iostream_object@?$_Error_objects@H@std@@2V_Iostream_error_category@2@A@@YAXXZ 00401110 f   ccCheck.obj
 0001:00000120       ??__E?_System_object@?$_Error_objects@H@std@@2V_System_error_category@2@A@@YAXXZ 00401120 f   ccCheck.obj
 0001:00000130       ??__E?m_dataPath@appGlobal@@0VQString@@A@@YAXXZ 00401130 f   appGlobal.obj
 0001:00000150       ??__E?m_profile@appGlobal@@0VQString@@A@@YAXXZ 00401150 f   appGlobal.obj
 0001:00000170       ??__E?m_obj@databaseSync@@0V?$map@IPAVdatabaseSync@@U?$less@I@std@@V?$allocator@U?$pair@$$CBIPAVdatabaseSync@@@std@@@3@@std@@A@@YAXXZ 00401170 f   databaseSync.obj
 0001:00000190       ??__Edummy@?A0x3ad23e3c@@YAXXZ 00401190 f   qrc_slink.obj
 0001:000001b0       ??__E?staticMetaObject@fabianServer@@2UQMetaObject@@B@@YAXXZ 004011b0 f   moc_fabianServer.obj
 0001:000001c0       ??__E?staticMetaObject@fabian_client@@2UQMetaObject@@B@@YAXXZ 004011c0 f   moc_fabian_client.obj
 0001:000001d0       ??__E?staticMetaObject@slink@@2UQMetaObject@@B@@YAXXZ 004011d0 f   moc_slink.obj
 0001:000001e0       ??__E?staticMetaObject@userEditDialog@@2UQMetaObject@@B@@YAXXZ 004011e0 f   moc_userEditDialog.obj
 0001:000001f0       ??__E?staticMetaObject@userEditPermissionsDialog@@2UQMetaObject@@B@@YAXXZ 004011f0 f   moc_userEditPermissionsDialog.obj
 0001:00000200       ??__E?m_users@users@@0V?$map@VQString@@PAVuser@@U?$less@VQString@@@std@@V?$allocator@U?$pair@$$CBVQString@@PAVuser@@@std@@@4@@std@@A@@YAXXZ 00401200 f   users.obj
 0001:00001546       __catch$?_Copy@?$basic_string@DU?$char_traits@D@std@@V?$allocator@D@2@@std@@QAEXII@Z$0 00402546 f i ccCheck.obj
 0001:00001583       __catch$?_Copy@?$basic_string@DU?$char_traits@D@std@@V?$allocator@D@2@@std@@QAEXII@Z$1 00402583 f i ccCheck.obj
 0001:00004c17       __catch$??$_Insert_nohint@AAU?$pair@$$CBV?$basic_string@DU?$char_traits@D@std@@V?$allocator@D@2@@std@@V12@@std@@PAU?$_Tree_node@U?$pair@$$CBV?$basic_string@DU?$char_traits@D@std@@V?$allocator@D@2@@std@@V12@@std@@PAX@2@@?$_Tree@V?$_Tmap_traits@V?$basic_string@DU?$char_traits@D@std@@V?$allocator@D@2@@std@@V12@U?$less@V?$basic_string@DU?$char_traits@D@std@@V?$allocator@D@2@@std@@@2@V?$allocator@U?$pair@$$CBV?$basic_string@DU?$char_traits@D@std@@V?$allocator@D@2@@std@@V12@@std@@@2@$0A@@std@@@std@@IAE?AU?$pair@V?$_Tree_iterator@V?$_Tree_val@U?$_Tree_simple_types@U?$pair@$$CBV?$basic_string@DU?$char_traits@D@std@@V?$allocator@D@2@@std@@V12@@std@@@std@@@std@@@std@@_N@1@_NAAU?$pair@$$CBV?$basic_string@DU?$char_traits@D@std@@V?$allocator@D@2@@std@@V12@@1@PAU?$_Tree_node@U?$pair@$$CBV?$basic_string@DU?$char_traits@D@std@@V?$allocator@D@2@@std@@V12@@std@@PAX@1@@Z$0 00405c17 f i ccConfig.obj
 0001:00007ecb       __catch$??$_Insert_nohint@AAU?$pair@$$CBIPAVsingleReg@@@std@@PAU?$_Tree_node@U?$pair@$$CBIPAVsingleReg@@@std@@PAX@2@@?$_Tree@V?$_Tmap_traits@IPAVsingleReg@@U?$less@I@std@@V?$allocator@U?$pair@$$CBIPAVsingleReg@@@std@@@3@$00@std@@@std@@IAE?AU?$pair@V?$_Tree_iterator@V?$_Tree_val@U?$_Tree_simple_types@U?$pair@$$CBIPAVsingleReg@@@std@@@std@@@std@@@std@@_N@1@_NAAU?$pair@$$CBIPAVsingleReg@@@1@PAU?$_Tree_node@U?$pair@$$CBIPAVsingleReg@@@std@@PAX@1@@Z$0 00408ecb f i clientsRegistration.obj
 0001:00008ba6       __catch$??$_Insert_nohint@VdbEntry@@U_Nil@std@@@?$_Tree@V?$_Tset_traits@VdbEntry@@U?$less@VdbEntry@@@std@@V?$allocator@VdbEntry@@@3@$0A@@std@@@std@@IAE?AU?$pair@V?$_Tree_const_iterator@V?$_Tree_val@U?$_Tree_simple_types@VdbEntry@@@std@@@std@@@std@@_N@1@_N$$QAVdbEntry@@U_Nil@1@@Z$0 00409ba6 f i databaseSync.obj
 0001:00008fe1       __catch$?detach_helper@?$QList@VQString@@@@AAEXH@Z$0 00409fe1 f i databaseSync.obj
 0001:0000b11e       __catch$??0?$QList@VQSslError@@@@QAE@ABV0@@Z$0 0040c11e f i fabian_client.obj
 0001:0000c5cc       $LN852                     0040d5cc     fabian_client.obj
 0001:0000c87b       __catch$?append@?$QList@VQString@@@@QAEXABVQString@@@Z$4 0040d87b f i fabian_client.obj
 0001:0000cb9e       __catch$?detach_helper_grow@?$QList@VQString@@@@AAEPAUNode@1@HH@Z$2 0040db9e f i fabian_client.obj
 0001:0000cbd9       __catch$?detach_helper_grow@?$QList@VQString@@@@AAEPAUNode@1@HH@Z$0 0040dbd9 f i fabian_client.obj
 0001:0000fb62       __catch$?node_copy@?$QList@VQSslError@@@@AAEXPAUNode@1@00@Z$2 00410b62 f i fabian_client.obj
 0001:00010360       $LN47                      00411360     fabian_client.obj
 0001:00010f9c       $LN55                      00411f9c     moc_fabian_client.obj
 0001:0001114c       $LN20                      0041214c     moc_slink.obj
 0001:0001131c       $LN27                      0041231c     moc_userEditDialog.obj
 0001:00011899       __catch$??$_Insert_range@V?$_List_const_iterator@V?$_List_val@U?$_List_simple_types@Vreg@@@std@@@std@@@std@@@?$list@Vreg@@V?$allocator@Vreg@@@std@@@std@@QAEXV?$_List_unchecked_const_iterator@V?$_List_val@U?$_List_simple_types@Vreg@@@std@@@std@@U_Iterator_base0@2@@1@V?$_List_const_iterator@V?$_List_val@U?$_List_simple_types@Vreg@@@std@@@std@@@1@1Uforward_iterator_tag@1@@Z$0 00412899 f i singleReg.obj
 0001:0001195f       __catch$??0?$list@Vreg@@V?$allocator@Vreg@@@std@@@std@@QAE@ABV01@@Z$0 0041295f f i singleReg.obj
 0001:0001248f       __catch$??$_Insert_nohint@ABVpollCommand@@U_Nil@std@@@?$_Tree@V?$_Tset_traits@VpollCommand@@U?$less@VpollCommand@@@std@@V?$allocator@VpollCommand@@@3@$0A@@std@@@std@@IAE?AU?$pair@V?$_Tree_const_iterator@V?$_Tree_val@U?$_Tree_simple_types@VpollCommand@@@std@@@std@@@std@@_N@1@_NABVpollCommand@@U_Nil@1@@Z$0 0041348f f i slink.obj
 0001:0001259a       __catch$??$_Insert_nohint@VQString@@U_Nil@std@@@?$_Tree@V?$_Tset_traits@VQString@@U?$less@VQString@@@std@@V?$allocator@VQString@@@3@$0A@@std@@@std@@IAE?AU?$pair@V?$_Tree_const_iterator@V?$_Tree_val@U?$_Tree_simple_types@VQString@@@std@@@std@@@std@@_N@1@_N$$QAVQString@@U_Nil@1@@Z$0 0041359a f i slink.obj
 0001:00013f20       ??R<lambda_12bd6063b2cac14ea4d6b7b60c069b5a>@@QBE?AVQString@@XZ 00414f20 f   slink.obj
 0001:00013f40       ??R<lambda_1419120a285fb745ad3c82fa6991db7c>@@QBE?AVQString@@XZ 00414f40 f   slink.obj
 0001:00013f60       ??R<lambda_19a29f3daf9f8dd06b19ac3c15c9b46d>@@QBE?AVQString@@XZ 00414f60 f   slink.obj
 0001:00013f80       ??R<lambda_1cece41e0b0451c3d3f27feaffe36373>@@QBE?AVQString@@XZ 00414f80 f   slink.obj
 0001:00013fa0       ??R<lambda_2d3ecdda352e2159d1d0f9c13f3565ee>@@QBE?AVQString@@XZ 00414fa0 f   slink.obj
 0001:00013fc0       ??R<lambda_2e63cfeab03f0d8c411bb4959b7cd9b3>@@QBE?AVQString@@XZ 00414fc0 f   slink.obj
 0001:00013fe0       ??R<lambda_2ff8d84fe637b0815179c5ecddfe1d11>@@QBE?AVQString@@XZ 00414fe0 f   slink.obj
 0001:00014000       ??R<lambda_3084b40240f615f069bfa251bbf80612>@@QBE?AVQString@@XZ 00415000 f   slink.obj
 0001:00014020       ??R<lambda_3ac327886aafbce702ed57e7309b2e2c>@@QBE?AVQString@@XZ 00415020 f   slink.obj
 0001:00014040       ??R<lambda_3b1dd09d7d9266826df582c2ad30c25d>@@QBE?AVQString@@XZ 00415040 f   slink.obj
 0001:00014060       ??R<lambda_3f0dec5981bfc622ff3e6472d25f9928>@@QBE?AVQString@@XZ 00415060 f   slink.obj
 0001:00014080       ??R<lambda_4bd42b2d47e5693a7b6293001403db99>@@QBE?AVQString@@XZ 00415080 f   slink.obj
 0001:000140a0       ??R<lambda_4e3a5479b3dabfa3d96651e37ffa8596>@@QBE?AVQString@@XZ 004150a0 f   slink.obj
 0001:000140c0       ??R<lambda_526bc7fd7ad06a451470b9f9d0a1e73e>@@QBE?AVQString@@XZ 004150c0 f   slink.obj
 0001:000140e0       ??R<lambda_54768df5fe2c17dfaab7aaf1bbe76201>@@QBE?AVQString@@XZ 004150e0 f   slink.obj
 0001:00014100       ??R<lambda_62bcc413a222fdc182a9d1f33b6ab5d2>@@QBE?AVQString@@XZ 00415100 f   slink.obj
 0001:00014120       ??R<lambda_634f538c7e3829eff0047d031bd86b26>@@QBE?AVQString@@XZ 00415120 f   slink.obj
 0001:00014140       ??R<lambda_689f5334d92759d518201880d321a1d7>@@QBE?AVQString@@XZ 00415140 f   slink.obj
 0001:00014160       ??R<lambda_805f221d0d015954e689f6019c03b9d5>@@QBE?AVQString@@XZ 00415160 f   slink.obj
 0001:00014180       ??R<lambda_8cbefa69015d4b87f90aef94cac3acfc>@@QBE?AVQString@@XZ 00415180 f   slink.obj
 0001:000141a0       ??R<lambda_8e06e7ea566d29e5f1e59f464da67759>@@QBE?AVQString@@XZ 004151a0 f   slink.obj
 0001:000141c0       ??R<lambda_8e9c36d0f4d853de89f321b491d5c64c>@@QBE?AVQString@@XZ 004151c0 f   slink.obj
 0001:000141e0       ??R<lambda_9b822d414473b383a6150bf0b7bff8a1>@@QBE?AVQString@@XZ 004151e0 f   slink.obj
 0001:00014200       ??R<lambda_b4a059019ac5f37dd9a9276161cf9684>@@QBE?AVQString@@XZ 00415200 f   slink.obj
 0001:00014220       ??R<lambda_dbd12d10eaad88b49ed655ffb1a88beb>@@QBE?AVQString@@XZ 00415220 f   slink.obj
 0001:00014240       ??R<lambda_f50da0cb2e1e0f7cdfdef81f8413bfd7>@@QBE?AVQString@@XZ 00415240 f   slink.obj
 0001:000150ad       __catch$?append@?$QList@VQSslCipher@@@@QAEXABVQSslCipher@@@Z$0 004160ad f i slink.obj
 0001:000150fe       __catch$?append@?$QList@VQSslCipher@@@@QAEXABVQSslCipher@@@Z$4 004160fe f i slink.obj
 0001:00016001       __catch$?detach_helper@?$QList@VQSslCipher@@@@AAEXH@Z$0 00417001 f i slink.obj
 0001:0001613e       __catch$?detach_helper_grow@?$QList@VQSslCipher@@@@AAEPAUNode@1@HH@Z$2 0041713e f i slink.obj
 0001:00016179       __catch$?detach_helper_grow@?$QList@VQSslCipher@@@@AAEPAUNode@1@HH@Z$0 00417179 f i slink.obj
 0001:00019552       __catch$?node_copy@?$QList@VQSslCipher@@@@AAEXPAUNode@1@00@Z$2 0041a552 f i slink.obj
 0001:0001afea       __catch$??$_Insert_nohint@AAU?$pair@$$CBIPAVsingleReg@@@std@@PAU?$_Tree_node@U?$pair@$$CBIPAVsingleReg@@@std@@PAX@2@@?$_Tree@V?$_Tmap_traits@IPAVsingleReg@@U?$less@I@std@@V?$allocator@U?$pair@$$CBIPAVsingleReg@@@std@@@3@$0A@@std@@@std@@IAE?AU?$pair@V?$_Tree_iterator@V?$_Tree_val@U?$_Tree_simple_types@U?$pair@$$CBIPAVsingleReg@@@std@@@std@@@std@@@std@@_N@1@_NAAU?$pair@$$CBIPAVsingleReg@@@1@PAU?$_Tree_node@U?$pair@$$CBIPAVsingleReg@@@std@@PAX@1@@Z$0 0041bfea f i user.obj
 0001:0001afea       __catch$??$_Insert_nohint@AAU?$pair@$$CBIPAVfabianServer@@@std@@PAU?$_Tree_node@U?$pair@$$CBIPAVfabianServer@@@std@@PAX@2@@?$_Tree@V?$_Tmap_traits@IPAVfabianServer@@U?$less@I@std@@V?$allocator@U?$pair@$$CBIPAVfabianServer@@@std@@@3@$0A@@std@@@std@@IAE?AU?$pair@V?$_Tree_iterator@V?$_Tree_val@U?$_Tree_simple_types@U?$pair@$$CBIPAVfabianServer@@@std@@@std@@@std@@@std@@_N@1@_NAAU?$pair@$$CBIPAVfabianServer@@@1@PAU?$_Tree_node@U?$pair@$$CBIPAVfabianServer@@@std@@PAX@1@@Z$0 0041bfea f i user.obj
 0001:0001afea       __catch$??$_Insert_nohint@AAU?$pair@$$CBIPAVdatabaseSync@@@std@@PAU?$_Tree_node@U?$pair@$$CBIPAVdatabaseSync@@@std@@PAX@2@@?$_Tree@V?$_Tmap_traits@IPAVdatabaseSync@@U?$less@I@std@@V?$allocator@U?$pair@$$CBIPAVdatabaseSync@@@std@@@3@$0A@@std@@@std@@IAE?AU?$pair@V?$_Tree_iterator@V?$_Tree_val@U?$_Tree_simple_types@U?$pair@$$CBIPAVdatabaseSync@@@std@@@std@@@std@@@std@@_N@1@_NAAU?$pair@$$CBIPAVdatabaseSync@@@1@PAU?$_Tree_node@U?$pair@$$CBIPAVdatabaseSync@@@std@@PAX@1@@Z$0 0041bfea f i user.obj
 0001:0001bc70       ??R<lambda_24c0d68fd8a91d3bbb1abed071700c55>@@QBE?AVQString@@XZ 0041cc70 f   userEditDialog.obj
 0001:0001bc90       ??R<lambda_41282ec1758dc1674ac6f752549a9784>@@QBE?AVQString@@XZ 0041cc90 f   userEditDialog.obj
 0001:0001bcb0       ??R<lambda_7be885517c8b1619fb21da61812b10db>@@QBE?AVQString@@XZ 0041ccb0 f   userEditDialog.obj
 0001:0001bcd0       ??R<lambda_8460fb5a3f68aba09483b6423cc793d7>@@QBE?AVQString@@XZ 0041ccd0 f   userEditDialog.obj
 0001:0001bcf0       ??R<lambda_ac66af494f491edfa3a656990246cb5d>@@QBE?AVQString@@XZ 0041ccf0 f   userEditDialog.obj
 0001:0001bd10       ??R<lambda_b7e67a1764c542922a56b7f1caec3320>@@QBE?AVQString@@XZ 0041cd10 f   userEditDialog.obj
 0001:0001bd30       ??R<lambda_e0fa4fd659890cd46fdb4153c6380e73>@@QBE?AVQString@@XZ 0041cd30 f   userEditDialog.obj
 0001:0001bd50       ??R<lambda_ec45fb8f4c9e96c2cd7d640b4bd1d034>@@QBE?AVQString@@XZ 0041cd50 f   userEditDialog.obj
 0001:0001bd70       ??R<lambda_f074a0e424e80917cc68f61e155d6ac3>@@QBE?AVQString@@XZ 0041cd70 f   userEditDialog.obj
 0001:0001bd90       ??R<lambda_f8c63e2af3ac8ff00bf777adc067a07f>@@QBE?AVQString@@XZ 0041cd90 f   userEditDialog.obj
 0001:0001d4c0       ??R<lambda_070d3c10243e8c4a5c2cf22e30f105ac>@@QBE?AVQString@@XZ 0041e4c0 f   userEditPermissionsDialog.obj
 0001:0001d4e0       ??R<lambda_089703036f7b835cfc0a200030582bde>@@QBE?AVQString@@XZ 0041e4e0 f   userEditPermissionsDialog.obj
 0001:0001d500       ??R<lambda_2cba48531c82670565aa65c303e4a566>@@QBE?AVQString@@XZ 0041e500 f   userEditPermissionsDialog.obj
 0001:0001d520       ??R<lambda_2fec7b23284d1ca9f7a0484a6e726df0>@@QBE?AVQString@@XZ 0041e520 f   userEditPermissionsDialog.obj
 0001:0001d540       ??R<lambda_32fd977e9f719ec096411c4347ed97e1>@@QBE?AVQString@@XZ 0041e540 f   userEditPermissionsDialog.obj
 0001:0001d560       ??R<lambda_7059e31c9bc9228695680e5adccda231>@@QBE?AVQString@@XZ 0041e560 f   userEditPermissionsDialog.obj
 0001:0001d580       ??R<lambda_7b3430d477ae326a8331eef32f154719>@@QBE?AVQString@@XZ 0041e580 f   userEditPermissionsDialog.obj
 0001:0001d5a0       ??R<lambda_803f0e3f15fdcf84d01027a839bdcfda>@@QBE?AVQString@@XZ 0041e5a0 f   userEditPermissionsDialog.obj
 0001:0001d5c0       ??R<lambda_8889c3d1135845640b5b98dddf1fe4f1>@@QBE?AVQString@@XZ 0041e5c0 f   userEditPermissionsDialog.obj
 0001:0001d5e0       ??R<lambda_9c34bf89aab613d9b8cd515132f9cb7a>@@QBE?AVQString@@XZ 0041e5e0 f   userEditPermissionsDialog.obj
 0001:0001d600       ??R<lambda_b53e12402d85dee5354b964731c70aef>@@QBE?AVQString@@XZ 0041e600 f   userEditPermissionsDialog.obj
 0001:0001d620       ??R<lambda_bf66b125463a9e15d96d0904150bf904>@@QBE?AVQString@@XZ 0041e620 f   userEditPermissionsDialog.obj
 0001:0001d640       ??R<lambda_df1733a491b0f9033cf1c76b7912c85f>@@QBE?AVQString@@XZ 0041e640 f   userEditPermissionsDialog.obj
 0001:0001d660       ??R<lambda_e7bab7aae0afb1db2a8e50a8dbd0b789>@@QBE?AVQString@@XZ 0041e660 f   userEditPermissionsDialog.obj
 0001:0001f139       __catch$??$_Insert_nohint@AAU?$pair@$$CBVQString@@PAVuser@@@std@@PAU?$_Tree_node@U?$pair@$$CBVQString@@PAVuser@@@std@@PAX@2@@?$_Tree@V?$_Tmap_traits@VQString@@PAVuser@@U?$less@VQString@@@std@@V?$allocator@U?$pair@$$CBVQString@@PAVuser@@@std@@@4@$0A@@std@@@std@@IAE?AU?$pair@V?$_Tree_iterator@V?$_Tree_val@U?$_Tree_simple_types@U?$pair@$$CBVQString@@PAVuser@@@std@@@std@@@std@@@std@@_N@1@_NAAU?$pair@$$CBVQString@@PAVuser@@@1@PAU?$_Tree_node@U?$pair@$$CBVQString@@PAVuser@@@std@@PAX@1@@Z$0 00420139 f i users.obj
 0001:00021550       ??R<lambda_1f8e4741cbd66d34bde79796b1142b75>@@QBE?AVQString@@XZ 00422550 f   whiteBlackListEditDialog.obj
 0001:00021570       ??R<lambda_263d1053d38d0ac33dc409e4f903fdd5>@@QBE?AVQString@@XZ 00422570 f   whiteBlackListEditDialog.obj
 0001:00021590       ??R<lambda_371bf21dacb435954f31afd90461914a>@@QBE?AVQString@@XZ 00422590 f   whiteBlackListEditDialog.obj
 0001:000215b0       ??R<lambda_4f7aa4dffec38aac981879dd421ca0b0>@@QBE?AVQString@@XZ 004225b0 f   whiteBlackListEditDialog.obj
 0001:000215d0       ??R<lambda_5429da2dc9f262d0b4ffcaeddd52c77d>@@QBE?AVQString@@XZ 004225d0 f   whiteBlackListEditDialog.obj
 0001:000215f0       ??R<lambda_5ac902cea18373df5d895ae5a90311f5>@@QBE?AVQString@@XZ 004225f0 f   whiteBlackListEditDialog.obj
 0001:00021610       ??R<lambda_63c9395092e1ec7ffbae42a044f27db5>@@QBE?AVQString@@XZ 00422610 f   whiteBlackListEditDialog.obj
 0001:00021630       ??R<lambda_6e4a272617d97e48924252275f6c4513>@@QBE?AVQString@@XZ 00422630 f   whiteBlackListEditDialog.obj
 0001:00021650       ??R<lambda_8e81d08f1237c90f26606507c2f9b331>@@QBE?AVQString@@XZ 00422650 f   whiteBlackListEditDialog.obj
 0001:00021670       ??R<lambda_91190e5e99d0f31d6825bae027ab4341>@@QBE?AVQString@@XZ 00422670 f   whiteBlackListEditDialog.obj
 0001:00021690       ??R<lambda_a02a670ac69c854466d6b31dd59f3241>@@QBE?AVQString@@XZ 00422690 f   whiteBlackListEditDialog.obj
 0001:000216b0       ??R<lambda_a185e30f1dbb3def7586b6a1bc2c8725>@@QBE?AVQString@@XZ 004226b0 f   whiteBlackListEditDialog.obj
 0001:000216d0       ??R<lambda_a19c24fb97d1352df1f5064d6f677e1d>@@QBE?AVQString@@XZ 004226d0 f   whiteBlackListEditDialog.obj
 0001:000216f0       ??R<lambda_a8f3d8810c5029ca0a25c9ca5c30fff1>@@QBE?AVQString@@XZ 004226f0 f   whiteBlackListEditDialog.obj
 0001:00021710       ??R<lambda_d8e199c28159475660a17ee5ec4a24a7>@@QBE?AVQString@@XZ 00422710 f   whiteBlackListEditDialog.obj
 0001:00021730       ??R<lambda_f34722e51ab50c8aab3bfc07920ef014>@@QBE?AVQString@@XZ 00422730 f   whiteBlackListEditDialog.obj
 0001:000239c0       $$000000                   004249c0     MSVCRT:chkstk.obj
 0001:000239eb       _pre_c_init                004249eb f   MSVCRT:crtexew.obj
 0001:00023aa4       _pre_cpp_init              00424aa4 f   MSVCRT:crtexew.obj
 0001:00023af9       ___tmainCRTStartup         00424af9 f   MSVCRT:crtexew.obj
 0001:00023ed0       $$000000                   00424ed0     MSVCRT:sehprolg4.obj
 0001:00024360       __unwindfunclet$??$?HDU?$char_traits@D@std@@V?$allocator@D@1@@std@@YA?AV?$basic_string@DU?$char_traits@D@std@@V?$allocator@D@2@@0@ABV10@PBD@Z$0 00425360 f   ccCheck.obj
 0001:00024360       __unwindfunclet$??$?HDU?$char_traits@D@std@@V?$allocator@D@1@@std@@YA?AV?$basic_string@DU?$char_traits@D@std@@V?$allocator@D@2@@0@PBDABV10@@Z$0 00425360 f   ccCheck.obj
 0001:00024379       __ehhandler$??$?HDU?$char_traits@D@std@@V?$allocator@D@1@@std@@YA?AV?$basic_string@DU?$char_traits@D@std@@V?$allocator@D@2@@0@PBDABV10@@Z 00425379 f   ccCheck.obj
 0001:00024379       __ehhandler$??$?HDU?$char_traits@D@std@@V?$allocator@D@1@@std@@YA?AV?$basic_string@DU?$char_traits@D@std@@V?$allocator@D@2@@0@ABV10@PBD@Z 00425379 f   ccCheck.obj
 0001:000243a0       __ehhandler$?_Copy@?$basic_string@DU?$char_traits@D@std@@V?$allocator@D@2@@std@@QAEXII@Z 004253a0 f   ccCheck.obj
 0001:000243c0       __unwindfunclet$?checkDatabase@ccCheck@@QAE_NII@Z$1 004253c0 f   ccCheck.obj
 0001:000243c0       __unwindfunclet$?checkDatabase@ccCheck@@QAE_NI@Z$1 004253c0 f   ccCheck.obj
 0001:000243c8       __ehhandler$?checkDatabase@ccCheck@@QAE_NI@Z 004253c8 f   ccCheck.obj
 0001:000243c8       __ehhandler$?checkDatabase@ccCheck@@QAE_NII@Z 004253c8 f   ccCheck.obj
 0001:000243f0       __unwindfunclet$?checkIndex@ccCheck@@QAE_NI@Z$0 004253f0 f   ccCheck.obj
 0001:000243f0       __unwindfunclet$?checkSource@ccCheck@@QAE_NH@Z$0 004253f0 f   ccCheck.obj
 0001:000243f0       __unwindfunclet$?checkDevice@ccCheck@@QAE_NI@Z$0 004253f0 f   ccCheck.obj
 0001:000243f8       __unwindfunclet$?checkDevice@ccCheck@@QAE_NI@Z$1 004253f8 f   ccCheck.obj
 0001:000243f8       __unwindfunclet$?checkSource@ccCheck@@QAE_NH@Z$1 004253f8 f   ccCheck.obj
 0001:000243f8       __unwindfunclet$?checkIndex@ccCheck@@QAE_NI@Z$1 004253f8 f   ccCheck.obj
 0001:00024400       __ehhandler$?checkIndex@ccCheck@@QAE_NI@Z 00425400 f   ccCheck.obj
 0001:00024400       __ehhandler$?checkSource@ccCheck@@QAE_NH@Z 00425400 f   ccCheck.obj
 0001:00024400       __ehhandler$?checkDevice@ccCheck@@QAE_NI@Z 00425400 f   ccCheck.obj
 0001:00024430       __unwindfunclet$?checkIndexRange@ccCheck@@QAE_NII@Z$0 00425430 f   ccCheck.obj
 0001:00024430       __unwindfunclet$?infoWrite@slink@@EAEXPAVfabian_client@@IIABVQString@@@Z$0 00425430 f   ccCheck.obj
 0001:00024430       __unwindfunclet$?routerCrosspoint@slink@@EAEXPAVfabian_client@@IHIABVQString@@@Z$0 00425430 f   ccCheck.obj
 0001:00024438       __ehhandler$?routerCrosspoint@slink@@EAEXPAVfabian_client@@IHIABVQString@@@Z 00425438 f   ccCheck.obj
 0001:00024438       __ehhandler$?infoWrite@slink@@EAEXPAVfabian_client@@IIABVQString@@@Z 00425438 f   ccCheck.obj
 0001:00024438       __ehhandler$?checkIndexRange@ccCheck@@QAE_NII@Z 00425438 f   ccCheck.obj
 0001:00024460       __unwindfunclet$?checkString@ccCheck@@QAE_NABV?$basic_string@DU?$char_traits@D@std@@V?$allocator@D@2@@std@@@Z$0 00425460 f   ccCheck.obj
 0001:00024468       __ehhandler$?checkString@ccCheck@@QAE_NABV?$basic_string@DU?$char_traits@D@std@@V?$allocator@D@2@@std@@@Z 00425468 f   ccCheck.obj
 0001:00024490       __unwindfunclet$?checkWorkstation@ccCheck@@QAE_NI@Z$0 00425490 f   ccCheck.obj
 0001:00024498       __unwindfunclet$?checkWorkstation@ccCheck@@QAE_NI@Z$1 00425498 f   ccCheck.obj
 0001:000244a0       __ehhandler$?checkWorkstation@ccCheck@@QAE_NI@Z 004254a0 f   ccCheck.obj
 0001:000244d0       __unwindfunclet$?log@ccCheck@@QAEXABV?$basic_string@DU?$char_traits@D@std@@V?$allocator@D@2@@std@@@Z$0 004254d0 f   ccCheck.obj
 0001:000244d8       __unwindfunclet$?log@ccCheck@@QAEXABV?$basic_string@DU?$char_traits@D@std@@V?$allocator@D@2@@std@@@Z$1 004254d8 f   ccCheck.obj
 0001:000244e0       __ehhandler$?log@ccCheck@@QAEXABV?$basic_string@DU?$char_traits@D@std@@V?$allocator@D@2@@std@@@Z 004254e0 f   ccCheck.obj
 0001:00024510       __unwindfunclet$??0ccClient@@QAE@PAVIccClientCallback@@ABV?$basic_string@DU?$char_traits@D@std@@V?$allocator@D@2@@std@@@Z$0 00425510 f   ccClient.obj
 0001:0002451b       __unwindfunclet$??0ccClient@@QAE@PAVIccClientCallback@@ABV?$basic_string@DU?$char_traits@D@std@@V?$allocator@D@2@@std@@@Z$1 0042551b f   ccClient.obj
 0001:00024529       __ehhandler$??0ccClient@@QAE@PAVIccClientCallback@@ABV?$basic_string@DU?$char_traits@D@std@@V?$allocator@D@2@@std@@@Z 00425529 f   ccClient.obj
 0001:00024560       __unwindfunclet$?WndProc@ccClient@@CGJPAUHWND__@@IIJ@Z$5 00425560 f   ccClient.obj
 0001:00024568       __unwindfunclet$?WndProc@ccClient@@CGJPAUHWND__@@IIJ@Z$6 00425568 f   ccClient.obj
 0001:00024573       __unwindfunclet$?WndProc@ccClient@@CGJPAUHWND__@@IIJ@Z$1 00425573 f   ccClient.obj
 0001:0002457b       __unwindfunclet$?WndProc@ccClient@@CGJPAUHWND__@@IIJ@Z$2 0042557b f   ccClient.obj
 0001:00024586       __unwindfunclet$?WndProc@ccClient@@CGJPAUHWND__@@IIJ@Z$3 00425586 f   ccClient.obj
 0001:0002458e       __unwindfunclet$?WndProc@ccClient@@CGJPAUHWND__@@IIJ@Z$4 0042558e f   ccClient.obj
 0001:00024596       __unwindfunclet$?WndProc@ccClient@@CGJPAUHWND__@@IIJ@Z$7 00425596 f   ccClient.obj
 0001:0002459e       __unwindfunclet$?WndProc@ccClient@@CGJPAUHWND__@@IIJ@Z$0 0042559e f   ccClient.obj
 0001:000245a9       __ehhandler$?WndProc@ccClient@@CGJPAUHWND__@@IIJ@Z 004255a9 f   ccClient.obj
 0001:000245e0       __unwindfunclet$?deviceLock@ccClient@@AAEXDHHH_N0H@Z$0 004255e0 f   ccClient.obj
 0001:000245e0       __unwindfunclet$?devicePoll@ccClient@@AAEXDHHH_N@Z$0 004255e0 f   ccClient.obj
 0001:000245eb       __ehhandler$?devicePoll@ccClient@@AAEXDHHH_N@Z 004255eb f   ccClient.obj
 0001:000245eb       __ehhandler$?deviceLock@ccClient@@AAEXDHHH_N0H@Z 004255eb f   ccClient.obj
 0001:00024620       __unwindfunclet$?deviceProfile@ccClient@@QAEXHAAH00AAV?$basic_string@DU?$char_traits@D@std@@V?$allocator@D@2@@std@@@Z$0 00425620 f   ccClient.obj
 0001:0002462b       __ehhandler$?deviceProfile@ccClient@@QAEXHAAH00AAV?$basic_string@DU?$char_traits@D@std@@V?$allocator@D@2@@std@@@Z 0042562b f   ccClient.obj
 0001:00024660       __unwindfunclet$?push_back@?$deque@V?$basic_string@DU?$char_traits@D@std@@V?$allocator@D@2@@std@@V?$allocator@V?$basic_string@DU?$char_traits@D@std@@V?$allocator@D@2@@std@@@2@@std@@QAEXABV?$basic_string@DU?$char_traits@D@std@@V?$allocator@D@2@@2@@Z$0 00425660 f   ccClient.obj
 0001:00024671       __ehhandler$?push_back@?$deque@V?$basic_string@DU?$char_traits@D@std@@V?$allocator@D@2@@std@@V?$allocator@V?$basic_string@DU?$char_traits@D@std@@V?$allocator@D@2@@std@@@2@@std@@QAEXABV?$basic_string@DU?$char_traits@D@std@@V?$allocator@D@2@@2@@Z 00425671 f   ccClient.obj
 0001:00024690       __ehhandler$??$_Insert_nohint@AAU?$pair@$$CBV?$basic_string@DU?$char_traits@D@std@@V?$allocator@D@2@@std@@V12@@std@@PAU?$_Tree_node@U?$pair@$$CBV?$basic_string@DU?$char_traits@D@std@@V?$allocator@D@2@@std@@V12@@std@@PAX@2@@?$_Tree@V?$_Tmap_traits@V?$basic_string@DU?$char_traits@D@std@@V?$allocator@D@2@@std@@V12@U?$less@V?$basic_string@DU?$char_traits@D@std@@V?$allocator@D@2@@std@@@2@V?$allocator@U?$pair@$$CBV?$basic_string@DU?$char_traits@D@std@@V?$allocator@D@2@@std@@V12@@std@@@2@$0A@@std@@@std@@IAE?AU?$pair@V?$_Tree_iterator@V?$_Tree_val@U?$_Tree_simple_types@U?$pair@$$CBV?$basic_string@DU?$char_traits@D@std@@V?$allocator@D@2@@std@@V12@@std@@@std@@@std@@@std@@_N@1@_NAAU?$pair@$$CBV?$basic_string@DU?$char_traits@D@std@@V?$allocator@D@2@@std@@V12@@1@PAU?$_Tree_node@U?$pair@$$CBV?$basic_string@DU?$char_traits@D@std@@V?$allocator@D@2@@std@@V12@@std@@PAX@1@@Z 00425690 f   ccConfig.obj
 0001:000246b0       __unwindfunclet$??0ccConfig@@QAE@ABV?$basic_string@DU?$char_traits@D@std@@V?$allocator@D@2@@std@@0@Z$0 004256b0 f   ccConfig.obj
 0001:000246bb       __unwindfunclet$??0ccConfig@@QAE@ABV?$basic_string@DU?$char_traits@D@std@@V?$allocator@D@2@@std@@0@Z$1 004256bb f   ccConfig.obj
 0001:000246c6       __unwindfunclet$??0ccConfig@@QAE@ABV?$basic_string@DU?$char_traits@D@std@@V?$allocator@D@2@@std@@0@Z$2 004256c6 f   ccConfig.obj
 0001:000246d1       __ehhandler$??0ccConfig@@QAE@ABV?$basic_string@DU?$char_traits@D@std@@V?$allocator@D@2@@std@@0@Z 004256d1 f   ccConfig.obj
 0001:00024700       __unwindfunclet$?deleteKeysFromSectionRoot@ccConfig@@SAXABV?$basic_string@DU?$char_traits@D@std@@V?$allocator@D@2@@std@@00@Z$0 00425700 f   ccConfig.obj
 0001:00024708       __unwindfunclet$?deleteKeysFromSectionRoot@ccConfig@@SAXABV?$basic_string@DU?$char_traits@D@std@@V?$allocator@D@2@@std@@00@Z$1 00425708 f   ccConfig.obj
 0001:00024710       __ehhandler$?deleteKeysFromSectionRoot@ccConfig@@SAXABV?$basic_string@DU?$char_traits@D@std@@V?$allocator@D@2@@std@@00@Z 00425710 f   ccConfig.obj
 0001:00024740       __unwindfunclet$?deleteSectionRoot@ccConfig@@SAXABV?$basic_string@DU?$char_traits@D@std@@V?$allocator@D@2@@std@@0@Z$0 00425740 f   ccConfig.obj
 0001:00024748       __unwindfunclet$?deleteSectionRoot@ccConfig@@SAXABV?$basic_string@DU?$char_traits@D@std@@V?$allocator@D@2@@std@@0@Z$1 00425748 f   ccConfig.obj
 0001:00024750       __ehhandler$?deleteSectionRoot@ccConfig@@SAXABV?$basic_string@DU?$char_traits@D@std@@V?$allocator@D@2@@std@@0@Z 00425750 f   ccConfig.obj
 0001:00024780       __unwindfunclet$?find@ccConfig@@AAE?AV?$_Tree_iterator@V?$_Tree_val@U?$_Tree_simple_types@U?$pair@$$CBV?$basic_string@DU?$char_traits@D@std@@V?$allocator@D@2@@std@@V12@@std@@@std@@@std@@@std@@ABV?$basic_string@DU?$char_traits@D@std@@V?$allocator@D@2@@3@@Z$0 00425780 f   ccConfig.obj
 0001:00024788       __unwindfunclet$?find@ccConfig@@AAE?AV?$_Tree_iterator@V?$_Tree_val@U?$_Tree_simple_types@U?$pair@$$CBV?$basic_string@DU?$char_traits@D@std@@V?$allocator@D@2@@std@@V12@@std@@@std@@@std@@@std@@ABV?$basic_string@DU?$char_traits@D@std@@V?$allocator@D@2@@3@@Z$1 00425788 f   ccConfig.obj
 0001:00024790       __ehhandler$?find@ccConfig@@AAE?AV?$_Tree_iterator@V?$_Tree_val@U?$_Tree_simple_types@U?$pair@$$CBV?$basic_string@DU?$char_traits@D@std@@V?$allocator@D@2@@std@@V12@@std@@@std@@@std@@@std@@ABV?$basic_string@DU?$char_traits@D@std@@V?$allocator@D@2@@3@@Z 00425790 f   ccConfig.obj
 0001:000247c0       __unwindfunclet$?getDevPath@ccConfig@@SA?AV?$basic_string@DU?$char_traits@D@std@@V?$allocator@D@2@@std@@ABV23@@Z$0 004257c0 f   ccConfig.obj
 0001:000247c8       __unwindfunclet$?getDevPath@ccConfig@@SA?AV?$basic_string@DU?$char_traits@D@std@@V?$allocator@D@2@@std@@ABV23@@Z$1 004257c8 f   ccConfig.obj
 0001:000247d0       __ehhandler$?getDevPath@ccConfig@@SA?AV?$basic_string@DU?$char_traits@D@std@@V?$allocator@D@2@@std@@ABV23@@Z 004257d0 f   ccConfig.obj
 0001:00024800       __unwindfunclet$?getDevPath@ccConfig@@SA?AV?$basic_string@DU?$char_traits@D@std@@V?$allocator@D@2@@std@@XZ$0 00425800 f   ccConfig.obj
 0001:0002480b       __unwindfunclet$?getDevPath@ccConfig@@SA?AV?$basic_string@DU?$char_traits@D@std@@V?$allocator@D@2@@std@@XZ$1 0042580b f   ccConfig.obj
 0001:00024816       __unwindfunclet$?getDevPath@ccConfig@@SA?AV?$basic_string@DU?$char_traits@D@std@@V?$allocator@D@2@@std@@XZ$2 00425816 f   ccConfig.obj
 0001:00024821       __ehhandler$?getDevPath@ccConfig@@SA?AV?$basic_string@DU?$char_traits@D@std@@V?$allocator@D@2@@std@@XZ 00425821 f   ccConfig.obj
 0001:00024850       __unwindfunclet$?getInt@ccConfig@@SAHABV?$basic_string@DU?$char_traits@D@std@@V?$allocator@D@2@@std@@00H_N@Z$0 00425850 f   ccConfig.obj
 0001:00024858       __unwindfunclet$?getInt@ccConfig@@SAHABV?$basic_string@DU?$char_traits@D@std@@V?$allocator@D@2@@std@@00H_N@Z$1 00425858 f   ccConfig.obj
 0001:00024863       __ehhandler$?getInt@ccConfig@@SAHABV?$basic_string@DU?$char_traits@D@std@@V?$allocator@D@2@@std@@00H_N@Z 00425863 f   ccConfig.obj
 0001:00024890       __unwindfunclet$?readConfigSectionAbs@ccConfig@@CAXABV?$basic_string@DU?$char_traits@D@std@@V?$allocator@D@2@@std@@0AAV?$map@V?$basic_string@DU?$char_traits@D@std@@V?$allocator@D@2@@std@@V12@U?$less@V?$basic_string@DU?$char_traits@D@std@@V?$allocator@D@2@@std@@@2@V?$allocator@U?$pair@$$CBV?$basic_string@DU?$char_traits@D@std@@V?$allocator@D@2@@std@@V12@@std@@@2@@3@@Z$0 00425890 f   ccConfig.obj
 0001:0002489b       __unwindfunclet$?readConfigSectionAbs@ccConfig@@CAXABV?$basic_string@DU?$char_traits@D@std@@V?$allocator@D@2@@std@@0AAV?$map@V?$basic_string@DU?$char_traits@D@std@@V?$allocator@D@2@@std@@V12@U?$less@V?$basic_string@DU?$char_traits@D@std@@V?$allocator@D@2@@std@@@2@V?$allocator@U?$pair@$$CBV?$basic_string@DU?$char_traits@D@std@@V?$allocator@D@2@@std@@V12@@std@@@2@@3@@Z$2 0042589b f   ccConfig.obj
 0001:000248a6       __unwindfunclet$?readConfigSectionAbs@ccConfig@@CAXABV?$basic_string@DU?$char_traits@D@std@@V?$allocator@D@2@@std@@0AAV?$map@V?$basic_string@DU?$char_traits@D@std@@V?$allocator@D@2@@std@@V12@U?$less@V?$basic_string@DU?$char_traits@D@std@@V?$allocator@D@2@@std@@@2@V?$allocator@U?$pair@$$CBV?$basic_string@DU?$char_traits@D@std@@V?$allocator@D@2@@std@@V12@@std@@@2@@3@@Z$3 004258a6 f   ccConfig.obj
 0001:000248b1       __unwindfunclet$?readConfigSectionAbs@ccConfig@@CAXABV?$basic_string@DU?$char_traits@D@std@@V?$allocator@D@2@@std@@0AAV?$map@V?$basic_string@DU?$char_traits@D@std@@V?$allocator@D@2@@std@@V12@U?$less@V?$basic_string@DU?$char_traits@D@std@@V?$allocator@D@2@@std@@@2@V?$allocator@U?$pair@$$CBV?$basic_string@DU?$char_traits@D@std@@V?$allocator@D@2@@std@@V12@@std@@@2@@3@@Z$5 004258b1 f   ccConfig.obj
 0001:000248bc       __unwindfunclet$?readConfigSectionAbs@ccConfig@@CAXABV?$basic_string@DU?$char_traits@D@std@@V?$allocator@D@2@@std@@0AAV?$map@V?$basic_string@DU?$char_traits@D@std@@V?$allocator@D@2@@std@@V12@U?$less@V?$basic_string@DU?$char_traits@D@std@@V?$allocator@D@2@@std@@@2@V?$allocator@U?$pair@$$CBV?$basic_string@DU?$char_traits@D@std@@V?$allocator@D@2@@std@@V12@@std@@@2@@3@@Z$4 004258bc f   ccConfig.obj
 0001:000248c7       __ehhandler$?readConfigSectionAbs@ccConfig@@CAXABV?$basic_string@DU?$char_traits@D@std@@V?$allocator@D@2@@std@@0AAV?$map@V?$basic_string@DU?$char_traits@D@std@@V?$allocator@D@2@@std@@V12@U?$less@V?$basic_string@DU?$char_traits@D@std@@V?$allocator@D@2@@std@@@2@V?$allocator@U?$pair@$$CBV?$basic_string@DU?$char_traits@D@std@@V?$allocator@D@2@@std@@V12@@std@@@2@@3@@Z 004258c7 f   ccConfig.obj
 0001:000248f0       __unwindfunclet$?sectionsAbs@ccConfig@@SAXABV?$basic_string@DU?$char_traits@D@std@@V?$allocator@D@2@@std@@AAV?$list@V?$basic_string@DU?$char_traits@D@std@@V?$allocator@D@2@@std@@V?$allocator@V?$basic_string@DU?$char_traits@D@std@@V?$allocator@D@2@@std@@@2@@3@@Z$0 004258f0 f   ccConfig.obj
 0001:000248fb       __ehhandler$?sectionsAbs@ccConfig@@SAXABV?$basic_string@DU?$char_traits@D@std@@V?$allocator@D@2@@std@@AAV?$list@V?$basic_string@DU?$char_traits@D@std@@V?$allocator@D@2@@std@@V?$allocator@V?$basic_string@DU?$char_traits@D@std@@V?$allocator@D@2@@std@@@2@@3@@Z 004258fb f   ccConfig.obj
 0001:00024930       __unwindfunclet$?sectionsRoot@ccConfig@@SAXABV?$basic_string@DU?$char_traits@D@std@@V?$allocator@D@2@@std@@AAV?$list@V?$basic_string@DU?$char_traits@D@std@@V?$allocator@D@2@@std@@V?$allocator@V?$basic_string@DU?$char_traits@D@std@@V?$allocator@D@2@@std@@@2@@3@@Z$0 00425930 f   ccConfig.obj
 0001:00024938       __unwindfunclet$?sectionsRoot@ccConfig@@SAXABV?$basic_string@DU?$char_traits@D@std@@V?$allocator@D@2@@std@@AAV?$list@V?$basic_string@DU?$char_traits@D@std@@V?$allocator@D@2@@std@@V?$allocator@V?$basic_string@DU?$char_traits@D@std@@V?$allocator@D@2@@std@@@2@@3@@Z$1 00425938 f   ccConfig.obj
 0001:00024940       __unwindfunclet$?sectionsRoot@ccConfig@@SAXABV?$basic_string@DU?$char_traits@D@std@@V?$allocator@D@2@@std@@AAV?$list@V?$basic_string@DU?$char_traits@D@std@@V?$allocator@D@2@@std@@V?$allocator@V?$basic_string@DU?$char_traits@D@std@@V?$allocator@D@2@@std@@@2@@3@@Z$2 00425940 f   ccConfig.obj
 0001:00024948       __ehhandler$?sectionsRoot@ccConfig@@SAXABV?$basic_string@DU?$char_traits@D@std@@V?$allocator@D@2@@std@@AAV?$list@V?$basic_string@DU?$char_traits@D@std@@V?$allocator@D@2@@std@@V?$allocator@V?$basic_string@DU?$char_traits@D@std@@V?$allocator@D@2@@std@@@2@@3@@Z 00425948 f   ccConfig.obj
 0001:00024970       __unwindfunclet$?workstation@ccConfig@@SAHXZ$0 00425970 f   ccConfig.obj
 0001:00024978       __unwindfunclet$?workstation@ccConfig@@SAHXZ$1 00425978 f   ccConfig.obj
 0001:00024980       __unwindfunclet$?workstation@ccConfig@@SAHXZ$2 00425980 f   ccConfig.obj
 0001:00024988       __unwindfunclet$?workstation@ccConfig@@SAHXZ$3 00425988 f   ccConfig.obj
 0001:00024990       __unwindfunclet$?workstation@ccConfig@@SAHXZ$4 00425990 f   ccConfig.obj
 0001:00024998       __unwindfunclet$?workstation@ccConfig@@SAHXZ$5 00425998 f   ccConfig.obj
 0001:000249a0       __unwindfunclet$?workstation@ccConfig@@SAHXZ$6 004259a0 f   ccConfig.obj
 0001:000249ab       __unwindfunclet$?workstation@ccConfig@@SAHXZ$7 004259ab f   ccConfig.obj
 0001:000249b6       __unwindfunclet$?workstation@ccConfig@@SAHXZ$8 004259b6 f   ccConfig.obj
 0001:000249be       __ehhandler$?workstation@ccConfig@@SAHXZ 004259be f   ccConfig.obj
 0001:000249f0       __unwindfunclet$?writeConfigSectionAbs@ccConfig@@CAXABV?$basic_string@DU?$char_traits@D@std@@V?$allocator@D@2@@std@@0ABV?$map@V?$basic_string@DU?$char_traits@D@std@@V?$allocator@D@2@@std@@V12@U?$less@V?$basic_string@DU?$char_traits@D@std@@V?$allocator@D@2@@std@@@2@V?$allocator@U?$pair@$$CBV?$basic_string@DU?$char_traits@D@std@@V?$allocator@D@2@@std@@V12@@std@@@2@@3@@Z$1 004259f0 f   ccConfig.obj
 0001:000249fb       __ehhandler$?writeConfigSectionAbs@ccConfig@@CAXABV?$basic_string@DU?$char_traits@D@std@@V?$allocator@D@2@@std@@0ABV?$map@V?$basic_string@DU?$char_traits@D@std@@V?$allocator@D@2@@std@@V12@U?$less@V?$basic_string@DU?$char_traits@D@std@@V?$allocator@D@2@@std@@@2@V?$allocator@U?$pair@$$CBV?$basic_string@DU?$char_traits@D@std@@V?$allocator@D@2@@std@@V12@@std@@@2@@3@@Z 004259fb f   ccConfig.obj
 0001:00024a30       __unwindfunclet$?writeConfigSectionRoot@ccConfig@@SAXABV?$basic_string@DU?$char_traits@D@std@@V?$allocator@D@2@@std@@0ABV?$map@V?$basic_string@DU?$char_traits@D@std@@V?$allocator@D@2@@std@@V12@U?$less@V?$basic_string@DU?$char_traits@D@std@@V?$allocator@D@2@@std@@@2@V?$allocator@U?$pair@$$CBV?$basic_string@DU?$char_traits@D@std@@V?$allocator@D@2@@std@@V12@@std@@@2@@3@@Z$0 00425a30 f   ccConfig.obj
 0001:00024a30       __unwindfunclet$?readConfigSectionRoot@ccConfig@@SAXABV?$basic_string@DU?$char_traits@D@std@@V?$allocator@D@2@@std@@0AAV?$map@V?$basic_string@DU?$char_traits@D@std@@V?$allocator@D@2@@std@@V12@U?$less@V?$basic_string@DU?$char_traits@D@std@@V?$allocator@D@2@@std@@@2@V?$allocator@U?$pair@$$CBV?$basic_string@DU?$char_traits@D@std@@V?$allocator@D@2@@std@@V12@@std@@@2@@3@@Z$0 00425a30 f   ccConfig.obj
 0001:00024a38       __unwindfunclet$?writeConfigSectionRoot@ccConfig@@SAXABV?$basic_string@DU?$char_traits@D@std@@V?$allocator@D@2@@std@@0ABV?$map@V?$basic_string@DU?$char_traits@D@std@@V?$allocator@D@2@@std@@V12@U?$less@V?$basic_string@DU?$char_traits@D@std@@V?$allocator@D@2@@std@@@2@V?$allocator@U?$pair@$$CBV?$basic_string@DU?$char_traits@D@std@@V?$allocator@D@2@@std@@V12@@std@@@2@@3@@Z$1 00425a38 f   ccConfig.obj
 0001:00024a38       __unwindfunclet$?readConfigSectionRoot@ccConfig@@SAXABV?$basic_string@DU?$char_traits@D@std@@V?$allocator@D@2@@std@@0AAV?$map@V?$basic_string@DU?$char_traits@D@std@@V?$allocator@D@2@@std@@V12@U?$less@V?$basic_string@DU?$char_traits@D@std@@V?$allocator@D@2@@std@@@2@V?$allocator@U?$pair@$$CBV?$basic_string@DU?$char_traits@D@std@@V?$allocator@D@2@@std@@V12@@std@@@2@@3@@Z$1 00425a38 f   ccConfig.obj
 0001:00024a40       __unwindfunclet$?writeConfigSectionRoot@ccConfig@@SAXABV?$basic_string@DU?$char_traits@D@std@@V?$allocator@D@2@@std@@0ABV?$map@V?$basic_string@DU?$char_traits@D@std@@V?$allocator@D@2@@std@@V12@U?$less@V?$basic_string@DU?$char_traits@D@std@@V?$allocator@D@2@@std@@@2@V?$allocator@U?$pair@$$CBV?$basic_string@DU?$char_traits@D@std@@V?$allocator@D@2@@std@@V12@@std@@@2@@3@@Z$2 00425a40 f   ccConfig.obj
 0001:00024a40       __unwindfunclet$?readConfigSectionRoot@ccConfig@@SAXABV?$basic_string@DU?$char_traits@D@std@@V?$allocator@D@2@@std@@0AAV?$map@V?$basic_string@DU?$char_traits@D@std@@V?$allocator@D@2@@std@@V12@U?$less@V?$basic_string@DU?$char_traits@D@std@@V?$allocator@D@2@@std@@@2@V?$allocator@U?$pair@$$CBV?$basic_string@DU?$char_traits@D@std@@V?$allocator@D@2@@std@@V12@@std@@@2@@3@@Z$2 00425a40 f   ccConfig.obj
 0001:00024a48       __ehhandler$?readConfigSectionRoot@ccConfig@@SAXABV?$basic_string@DU?$char_traits@D@std@@V?$allocator@D@2@@std@@0AAV?$map@V?$basic_string@DU?$char_traits@D@std@@V?$allocator@D@2@@std@@V12@U?$less@V?$basic_string@DU?$char_traits@D@std@@V?$allocator@D@2@@std@@@2@V?$allocator@U?$pair@$$CBV?$basic_string@DU?$char_traits@D@std@@V?$allocator@D@2@@std@@V12@@std@@@2@@3@@Z 00425a48 f   ccConfig.obj
 0001:00024a48       __ehhandler$?writeConfigSectionRoot@ccConfig@@SAXABV?$basic_string@DU?$char_traits@D@std@@V?$allocator@D@2@@std@@0ABV?$map@V?$basic_string@DU?$char_traits@D@std@@V?$allocator@D@2@@std@@V12@U?$less@V?$basic_string@DU?$char_traits@D@std@@V?$allocator@D@2@@std@@@2@V?$allocator@U?$pair@$$CBV?$basic_string@DU?$char_traits@D@std@@V?$allocator@D@2@@std@@V12@@std@@@2@@3@@Z 00425a48 f   ccConfig.obj
 0001:00024a70       __unwindfunclet$??H@YA?BVQString@@PBDABV0@@Z$0 00425a70 f   appGlobal.obj
 0001:00024a70       __unwindfunclet$??H@YA?BVQString@@ABV0@0@Z$0 00425a70 f   appGlobal.obj
 0001:00024a8a       __ehhandler$??H@YA?BVQString@@ABV0@0@Z 00425a8a f   appGlobal.obj
 0001:00024a8a       __ehhandler$??H@YA?BVQString@@PBDABV0@@Z 00425a8a f   appGlobal.obj
 0001:00024ab0       __unwindfunclet$??H@YA?BVQString@@ABV0@PBD@Z$0 00425ab0 f   appGlobal.obj
 0001:00024aca       __unwindfunclet$??H@YA?BVQString@@ABV0@PBD@Z$1 00425aca f   appGlobal.obj
 0001:00024ad3       __ehhandler$??H@YA?BVQString@@ABV0@PBD@Z 00425ad3 f   appGlobal.obj
 0001:00024af0       __unwindfunclet$?configFilename@appGlobal@@SA?AVQString@@XZ$0 00425af0 f   appGlobal.obj
 0001:00024b0a       __unwindfunclet$?configFilename@appGlobal@@SA?AVQString@@XZ$1 00425b0a f   appGlobal.obj
 0001:00024b13       __ehhandler$?configFilename@appGlobal@@SA?AVQString@@XZ 00425b13 f   appGlobal.obj
 0001:00024b30       __unwindfunclet$?dataPath@appGlobal@@SA?AVQString@@ABV2@@Z$0 00425b30 f   appGlobal.obj
 0001:00024b3c       __unwindfunclet$?dataPath@appGlobal@@SA?AVQString@@ABV2@@Z$1 00425b3c f   appGlobal.obj
 0001:00024b48       __unwindfunclet$?dataPath@appGlobal@@SA?AVQString@@ABV2@@Z$2 00425b48 f   appGlobal.obj
 0001:00024b54       __unwindfunclet$?dataPath@appGlobal@@SA?AVQString@@ABV2@@Z$3 00425b54 f   appGlobal.obj
 0001:00024b60       __unwindfunclet$?dataPath@appGlobal@@SA?AVQString@@ABV2@@Z$5 00425b60 f   appGlobal.obj
 0001:00024b6c       __unwindfunclet$?dataPath@appGlobal@@SA?AVQString@@ABV2@@Z$6 00425b6c f   appGlobal.obj
 0001:00024b78       __unwindfunclet$?dataPath@appGlobal@@SA?AVQString@@ABV2@@Z$7 00425b78 f   appGlobal.obj
 0001:00024b84       __ehhandler$?dataPath@appGlobal@@SA?AVQString@@ABV2@@Z 00425b84 f   appGlobal.obj
 0001:00024bb0       __unwindfunclet$?log@appGlobal@@SAXABVQString@@@Z$0 00425bb0 f   appGlobal.obj
 0001:00024bb9       __unwindfunclet$?log@appGlobal@@SAXABVQString@@@Z$1 00425bb9 f   appGlobal.obj
 0001:00024bc2       __unwindfunclet$?log@appGlobal@@SAXABVQString@@@Z$2 00425bc2 f   appGlobal.obj
 0001:00024bcb       __unwindfunclet$?log@appGlobal@@SAXABVQString@@@Z$3 00425bcb f   appGlobal.obj
 0001:00024bd4       __unwindfunclet$?log@appGlobal@@SAXABVQString@@@Z$4 00425bd4 f   appGlobal.obj
 0001:00024bdd       __ehhandler$?log@appGlobal@@SAXABVQString@@@Z 00425bdd f   appGlobal.obj
 0001:00024c00       __unwindfunclet$?logError@appGlobal@@SAXABVQString@@@Z$0 00425c00 f   appGlobal.obj
 0001:00024c09       __unwindfunclet$?logError@appGlobal@@SAXABVQString@@@Z$1 00425c09 f   appGlobal.obj
 0001:00024c12       __unwindfunclet$?logError@appGlobal@@SAXABVQString@@@Z$2 00425c12 f   appGlobal.obj
 0001:00024c1b       __unwindfunclet$?logError@appGlobal@@SAXABVQString@@@Z$3 00425c1b f   appGlobal.obj
 0001:00024c24       __unwindfunclet$?logError@appGlobal@@SAXABVQString@@@Z$4 00425c24 f   appGlobal.obj
 0001:00024c2d       __unwindfunclet$?logError@appGlobal@@SAXABVQString@@@Z$5 00425c2d f   appGlobal.obj
 0001:00024c36       __unwindfunclet$?logError@appGlobal@@SAXABVQString@@@Z$6 00425c36 f   appGlobal.obj
 0001:00024c3f       __ehhandler$?logError@appGlobal@@SAXABVQString@@@Z 00425c3f f   appGlobal.obj
 0001:00024c60       __unwindfunclet$?setLog@appGlobal@@SAXPAVQTextEdit@@H@Z$0 00425c60 f   appGlobal.obj
 0001:00024c6b       __unwindfunclet$?setLog@appGlobal@@SAXPAVQTextEdit@@H@Z$1 00425c6b f   appGlobal.obj
 0001:00024c85       __unwindfunclet$?setLog@appGlobal@@SAXPAVQTextEdit@@H@Z$2 00425c85 f   appGlobal.obj
 0001:00024c9f       __unwindfunclet$?setLog@appGlobal@@SAXPAVQTextEdit@@H@Z$3 00425c9f f   appGlobal.obj
 0001:00024cb9       __ehhandler$?setLog@appGlobal@@SAXPAVQTextEdit@@H@Z 00425cb9 f   appGlobal.obj
 0001:00024ce0       __ehhandler$??$_Insert_nohint@AAU?$pair@$$CBIPAVsingleReg@@@std@@PAU?$_Tree_node@U?$pair@$$CBIPAVsingleReg@@@std@@PAX@2@@?$_Tree@V?$_Tmap_traits@IPAVsingleReg@@U?$less@I@std@@V?$allocator@U?$pair@$$CBIPAVsingleReg@@@std@@@3@$00@std@@@std@@IAE?AU?$pair@V?$_Tree_iterator@V?$_Tree_val@U?$_Tree_simple_types@U?$pair@$$CBIPAVsingleReg@@@std@@@std@@@std@@@std@@_N@1@_NAAU?$pair@$$CBIPAVsingleReg@@@1@PAU?$_Tree_node@U?$pair@$$CBIPAVsingleReg@@@std@@PAX@1@@Z 00425ce0 f   clientsRegistration.obj
 0001:00024d00       __unwindfunclet$??1clientsRegistration@@UAE@XZ$0 00425d00 f   clientsRegistration.obj
 0001:00024d0b       __ehhandler$??1clientsRegistration@@UAE@XZ 00425d0b f   clientsRegistration.obj
 0001:00024d30       __unwindfunclet$?getRegObject@clientsRegistration@@AAEPAVsingleReg@@VclientIPC@@I_N@Z$0 00425d30 f   clientsRegistration.obj
 0001:00024d3b       __ehhandler$?getRegObject@clientsRegistration@@AAEPAVsingleReg@@VclientIPC@@I_N@Z 00425d3b f   clientsRegistration.obj
 0001:00024d60       __ehhandler$??$_Insert_nohint@VdbEntry@@U_Nil@std@@@?$_Tree@V?$_Tset_traits@VdbEntry@@U?$less@VdbEntry@@@std@@V?$allocator@VdbEntry@@@3@$0A@@std@@@std@@IAE?AU?$pair@V?$_Tree_const_iterator@V?$_Tree_val@U?$_Tree_simple_types@VdbEntry@@@std@@@std@@@std@@_N@1@_N$$QAVdbEntry@@U_Nil@1@@Z 00425d60 f   databaseSync.obj
 0001:00024d80       __unwindfunclet$??0databaseSync@@QAE@I@Z$0 00425d80 f   databaseSync.obj
 0001:00024d8c       __unwindfunclet$??0databaseSync@@QAE@I@Z$1 00425d8c f   databaseSync.obj
 0001:00024d98       __unwindfunclet$??0databaseSync@@QAE@I@Z$2 00425d98 f   databaseSync.obj
 0001:00024da4       __unwindfunclet$??0databaseSync@@QAE@I@Z$3 00425da4 f   databaseSync.obj
 0001:00024db0       __unwindfunclet$??0databaseSync@@QAE@I@Z$4 00425db0 f   databaseSync.obj
 0001:00024dbc       __unwindfunclet$??0databaseSync@@QAE@I@Z$5 00425dbc f   databaseSync.obj
 0001:00024dc8       __ehhandler$??0databaseSync@@QAE@I@Z 00425dc8 f   databaseSync.obj
 0001:00024df0       __ehhandler$?detach_helper@?$QList@VQString@@@@AAEXH@Z 00425df0 f   databaseSync.obj
 0001:00024e10       __unwindfunclet$?getDatabaseSync@databaseSync@@SAPAV1@I@Z$0 00425e10 f   databaseSync.obj
 0001:00024e1b       __ehhandler$?getDatabaseSync@databaseSync@@SAPAV1@I@Z 00425e1b f   databaseSync.obj
 0001:00024e40       __unwindfunclet$?getList@databaseSync@@QAE_NIIIAAV?$set@VdbEntry@@U?$less@VdbEntry@@@std@@V?$allocator@VdbEntry@@@3@@std@@@Z$0 00425e40 f   databaseSync.obj
 0001:00024e4c       __unwindfunclet$?getList@databaseSync@@QAE_NIIIAAV?$set@VdbEntry@@U?$less@VdbEntry@@@std@@V?$allocator@VdbEntry@@@3@@std@@@Z$1 00425e4c f   databaseSync.obj
 0001:00024e58       __unwindfunclet$?getList@databaseSync@@QAE_NIIIAAV?$set@VdbEntry@@U?$less@VdbEntry@@@std@@V?$allocator@VdbEntry@@@3@@std@@@Z$2 00425e58 f   databaseSync.obj
 0001:00024e64       __unwindfunclet$?getList@databaseSync@@QAE_NIIIAAV?$set@VdbEntry@@U?$less@VdbEntry@@@std@@V?$allocator@VdbEntry@@@3@@std@@@Z$3 00425e64 f   databaseSync.obj
 0001:00024e70       __unwindfunclet$?getList@databaseSync@@QAE_NIIIAAV?$set@VdbEntry@@U?$less@VdbEntry@@@std@@V?$allocator@VdbEntry@@@3@@std@@@Z$4 00425e70 f   databaseSync.obj
 0001:00024e7c       __unwindfunclet$?getList@databaseSync@@QAE_NIIIAAV?$set@VdbEntry@@U?$less@VdbEntry@@@std@@V?$allocator@VdbEntry@@@3@@std@@@Z$5 00425e7c f   databaseSync.obj
 0001:00024e88       __unwindfunclet$?getList@databaseSync@@QAE_NIIIAAV?$set@VdbEntry@@U?$less@VdbEntry@@@std@@V?$allocator@VdbEntry@@@3@@std@@@Z$6 00425e88 f   databaseSync.obj
 0001:00024e94       __unwindfunclet$?getList@databaseSync@@QAE_NIIIAAV?$set@VdbEntry@@U?$less@VdbEntry@@@std@@V?$allocator@VdbEntry@@@3@@std@@@Z$7 00425e94 f   databaseSync.obj
 0001:00024ea0       __unwindfunclet$?getList@databaseSync@@QAE_NIIIAAV?$set@VdbEntry@@U?$less@VdbEntry@@@std@@V?$allocator@VdbEntry@@@3@@std@@@Z$8 00425ea0 f   databaseSync.obj
 0001:00024eac       __unwindfunclet$?getList@databaseSync@@QAE_NIIIAAV?$set@VdbEntry@@U?$less@VdbEntry@@@std@@V?$allocator@VdbEntry@@@3@@std@@@Z$9 00425eac f   databaseSync.obj
 0001:00024eb8       __unwindfunclet$?getList@databaseSync@@QAE_NIIIAAV?$set@VdbEntry@@U?$less@VdbEntry@@@std@@V?$allocator@VdbEntry@@@3@@std@@@Z$10 00425eb8 f   databaseSync.obj
 0001:00024ec4       __unwindfunclet$?getList@databaseSync@@QAE_NIIIAAV?$set@VdbEntry@@U?$less@VdbEntry@@@std@@V?$allocator@VdbEntry@@@3@@std@@@Z$11 00425ec4 f   databaseSync.obj
 0001:00024ecf       __ehhandler$?getList@databaseSync@@QAE_NIIIAAV?$set@VdbEntry@@U?$less@VdbEntry@@@std@@V?$allocator@VdbEntry@@@3@@std@@@Z 00425ecf f   databaseSync.obj
 0001:00024f00       __unwindfunclet$?save@databaseSync@@QAEIIII@Z$0 00425f00 f   databaseSync.obj
 0001:00024f09       __unwindfunclet$?save@databaseSync@@QAEIIII@Z$1 00425f09 f   databaseSync.obj
 0001:00024f12       __unwindfunclet$?save@databaseSync@@QAEIIII@Z$2 00425f12 f   databaseSync.obj
 0001:00024f1b       __unwindfunclet$?save@databaseSync@@QAEIIII@Z$3 00425f1b f   databaseSync.obj
 0001:00024f24       __unwindfunclet$?save@databaseSync@@QAEIIII@Z$4 00425f24 f   databaseSync.obj
 0001:00024f2d       __unwindfunclet$?save@databaseSync@@QAEIIII@Z$5 00425f2d f   databaseSync.obj
 0001:00024f36       __unwindfunclet$?save@databaseSync@@QAEIIII@Z$6 00425f36 f   databaseSync.obj
 0001:00024f3f       __unwindfunclet$?save@databaseSync@@QAEIIII@Z$7 00425f3f f   databaseSync.obj
 0001:00024f48       __unwindfunclet$?save@databaseSync@@QAEIIII@Z$8 00425f48 f   databaseSync.obj
 0001:00024f51       __unwindfunclet$?save@databaseSync@@QAEIIII@Z$9 00425f51 f   databaseSync.obj
 0001:00024f5a       __unwindfunclet$?save@databaseSync@@QAEIIII@Z$10 00425f5a f   databaseSync.obj
 0001:00024f63       __unwindfunclet$?save@databaseSync@@QAEIIII@Z$11 00425f63 f   databaseSync.obj
 0001:00024f6c       __unwindfunclet$?save@databaseSync@@QAEIIII@Z$12 00425f6c f   databaseSync.obj
 0001:00024f75       __unwindfunclet$?save@databaseSync@@QAEIIII@Z$13 00425f75 f   databaseSync.obj
 0001:00024f7e       __unwindfunclet$?save@databaseSync@@QAEIIII@Z$14 00425f7e f   databaseSync.obj
 0001:00024f87       __unwindfunclet$?save@databaseSync@@QAEIIII@Z$15 00425f87 f   databaseSync.obj
 0001:00024f90       __unwindfunclet$?save@databaseSync@@QAEIIII@Z$16 00425f90 f   databaseSync.obj
 0001:00024f99       __unwindfunclet$?save@databaseSync@@QAEIIII@Z$17 00425f99 f   databaseSync.obj
 0001:00024fa2       __unwindfunclet$?save@databaseSync@@QAEIIII@Z$18 00425fa2 f   databaseSync.obj
 0001:00024fab       __unwindfunclet$?save@databaseSync@@QAEIIII@Z$19 00425fab f   databaseSync.obj
 0001:00024fb4       __unwindfunclet$?save@databaseSync@@QAEIIII@Z$20 00425fb4 f   databaseSync.obj
 0001:00024fbd       __unwindfunclet$?save@databaseSync@@QAEIIII@Z$21 00425fbd f   databaseSync.obj
 0001:00024fc6       __unwindfunclet$?save@databaseSync@@QAEIIII@Z$22 00425fc6 f   databaseSync.obj
 0001:00024fcf       __unwindfunclet$?save@databaseSync@@QAEIIII@Z$23 00425fcf f   databaseSync.obj
 0001:00024fd8       __unwindfunclet$?save@databaseSync@@QAEIIII@Z$24 00425fd8 f   databaseSync.obj
 0001:00024fe1       __unwindfunclet$?save@databaseSync@@QAEIIII@Z$25 00425fe1 f   databaseSync.obj
 0001:00024fea       __unwindfunclet$?save@databaseSync@@QAEIIII@Z$26 00425fea f   databaseSync.obj
 0001:00024ff3       __unwindfunclet$?save@databaseSync@@QAEIIII@Z$27 00425ff3 f   databaseSync.obj
 0001:00024ffc       __unwindfunclet$?save@databaseSync@@QAEIIII@Z$28 00425ffc f   databaseSync.obj
 0001:00025005       __unwindfunclet$?save@databaseSync@@QAEIIII@Z$29 00426005 f   databaseSync.obj
 0001:0002500e       __unwindfunclet$?save@databaseSync@@QAEIIII@Z$30 0042600e f   databaseSync.obj
 0001:00025017       __ehhandler$?save@databaseSync@@QAEIIII@Z 00426017 f   databaseSync.obj
 0001:00025040       __unwindfunclet$?setTransId@databaseSync@@QAEXABVQString@@I@Z$0 00426040 f   databaseSync.obj
 0001:00025049       __unwindfunclet$?setTransId@databaseSync@@QAEXABVQString@@I@Z$1 00426049 f   databaseSync.obj
 0001:00025052       __unwindfunclet$?setTransId@databaseSync@@QAEXABVQString@@I@Z$2 00426052 f   databaseSync.obj
 0001:0002505b       __unwindfunclet$?setTransId@databaseSync@@QAEXABVQString@@I@Z$3 0042605b f   databaseSync.obj
 0001:00025064       __unwindfunclet$?setTransId@databaseSync@@QAEXABVQString@@I@Z$4 00426064 f   databaseSync.obj
 0001:0002506d       __unwindfunclet$?setTransId@databaseSync@@QAEXABVQString@@I@Z$5 0042606d f   databaseSync.obj
 0001:00025076       __unwindfunclet$?setTransId@databaseSync@@QAEXABVQString@@I@Z$6 00426076 f   databaseSync.obj
 0001:0002507f       __unwindfunclet$?setTransId@databaseSync@@QAEXABVQString@@I@Z$7 0042607f f   databaseSync.obj
 0001:00025088       __unwindfunclet$?setTransId@databaseSync@@QAEXABVQString@@I@Z$8 00426088 f   databaseSync.obj
 0001:00025091       __unwindfunclet$?setTransId@databaseSync@@QAEXABVQString@@I@Z$9 00426091 f   databaseSync.obj
 0001:0002509a       __unwindfunclet$?setTransId@databaseSync@@QAEXABVQString@@I@Z$10 0042609a f   databaseSync.obj
 0001:000250a3       __unwindfunclet$?setTransId@databaseSync@@QAEXABVQString@@I@Z$11 004260a3 f   databaseSync.obj
 0001:000250ac       __unwindfunclet$?setTransId@databaseSync@@QAEXABVQString@@I@Z$12 004260ac f   databaseSync.obj
 0001:000250b5       __unwindfunclet$?setTransId@databaseSync@@QAEXABVQString@@I@Z$13 004260b5 f   databaseSync.obj
 0001:000250be       __unwindfunclet$?setTransId@databaseSync@@QAEXABVQString@@I@Z$14 004260be f   databaseSync.obj
 0001:000250c7       __unwindfunclet$?setTransId@databaseSync@@QAEXABVQString@@I@Z$15 004260c7 f   databaseSync.obj
 0001:000250d0       __unwindfunclet$?setTransId@databaseSync@@QAEXABVQString@@I@Z$16 004260d0 f   databaseSync.obj
 0001:000250d9       __ehhandler$?setTransId@databaseSync@@QAEXABVQString@@I@Z 004260d9 f   databaseSync.obj
 0001:00025100       __unwindfunclet$?transId@databaseSync@@QAEIABVQString@@@Z$0 00426100 f   databaseSync.obj
 0001:0002510c       __unwindfunclet$?transId@databaseSync@@QAEIABVQString@@@Z$1 0042610c f   databaseSync.obj
 0001:00025118       __unwindfunclet$?transId@databaseSync@@QAEIABVQString@@@Z$2 00426118 f   databaseSync.obj
 0001:00025124       __unwindfunclet$?transId@databaseSync@@QAEIABVQString@@@Z$3 00426124 f   databaseSync.obj
 0001:00025130       __unwindfunclet$?transId@databaseSync@@QAEIABVQString@@@Z$4 00426130 f   databaseSync.obj
 0001:0002513c       __unwindfunclet$?transId@databaseSync@@QAEIABVQString@@@Z$5 0042613c f   databaseSync.obj
 0001:00025148       __unwindfunclet$?transId@databaseSync@@QAEIABVQString@@@Z$6 00426148 f   databaseSync.obj
 0001:00025154       __unwindfunclet$?transId@databaseSync@@QAEIABVQString@@@Z$7 00426154 f   databaseSync.obj
 0001:00025160       __unwindfunclet$?transId@databaseSync@@QAEIABVQString@@@Z$8 00426160 f   databaseSync.obj
 0001:0002516c       __unwindfunclet$?transId@databaseSync@@QAEIABVQString@@@Z$9 0042616c f   databaseSync.obj
 0001:00025178       __unwindfunclet$?transId@databaseSync@@QAEIABVQString@@@Z$10 00426178 f   databaseSync.obj
 0001:00025184       __unwindfunclet$?transId@databaseSync@@QAEIABVQString@@@Z$11 00426184 f   databaseSync.obj
 0001:00025190       __ehhandler$?transId@databaseSync@@QAEIABVQString@@@Z 00426190 f   databaseSync.obj
 0001:000251c0       __unwindfunclet$?transId@databaseSync@@QAEIXZ$0 004261c0 f   databaseSync.obj
 0001:000251c9       __unwindfunclet$?transId@databaseSync@@QAEIXZ$1 004261c9 f   databaseSync.obj
 0001:000251d2       __unwindfunclet$?transId@databaseSync@@QAEIXZ$2 004261d2 f   databaseSync.obj
 0001:000251db       __ehhandler$?transId@databaseSync@@QAEIXZ 004261db f   databaseSync.obj
 0001:00025200       __unwindfunclet$??0fabianServer@@QAE@PAVQObject@@ABVQHostAddress@@H_N2PAVIfabian_clientCallback@@PAV?$set@VQString@@U?$less@VQString@@@std@@V?$allocator@VQString@@@3@@std@@4@Z$0 00426200 f   fabianServer.obj
 0001:00025209       __unwindfunclet$??0fabianServer@@QAE@PAVQObject@@ABVQHostAddress@@H_N2PAVIfabian_clientCallback@@PAV?$set@VQString@@U?$less@VQString@@@std@@V?$allocator@VQString@@@3@@std@@4@Z$1 00426209 f   fabianServer.obj
 0001:00025214       __unwindfunclet$??0fabianServer@@QAE@PAVQObject@@ABVQHostAddress@@H_N2PAVIfabian_clientCallback@@PAV?$set@VQString@@U?$less@VQString@@@std@@V?$allocator@VQString@@@3@@std@@4@Z$2 00426214 f   fabianServer.obj
 0001:0002521d       __unwindfunclet$??0fabianServer@@QAE@PAVQObject@@ABVQHostAddress@@H_N2PAVIfabian_clientCallback@@PAV?$set@VQString@@U?$less@VQString@@@std@@V?$allocator@VQString@@@3@@std@@4@Z$3 0042621d f   fabianServer.obj
 0001:00025226       __unwindfunclet$??0fabianServer@@QAE@PAVQObject@@ABVQHostAddress@@H_N2PAVIfabian_clientCallback@@PAV?$set@VQString@@U?$less@VQString@@@std@@V?$allocator@VQString@@@3@@std@@4@Z$4 00426226 f   fabianServer.obj
 0001:0002522f       __unwindfunclet$??0fabianServer@@QAE@PAVQObject@@ABVQHostAddress@@H_N2PAVIfabian_clientCallback@@PAV?$set@VQString@@U?$less@VQString@@@std@@V?$allocator@VQString@@@3@@std@@4@Z$5 0042622f f   fabianServer.obj
 0001:00025238       __unwindfunclet$??0fabianServer@@QAE@PAVQObject@@ABVQHostAddress@@H_N2PAVIfabian_clientCallback@@PAV?$set@VQString@@U?$less@VQString@@@std@@V?$allocator@VQString@@@3@@std@@4@Z$6 00426238 f   fabianServer.obj
 0001:00025241       __unwindfunclet$??0fabianServer@@QAE@PAVQObject@@ABVQHostAddress@@H_N2PAVIfabian_clientCallback@@PAV?$set@VQString@@U?$less@VQString@@@std@@V?$allocator@VQString@@@3@@std@@4@Z$7 00426241 f   fabianServer.obj
 0001:0002524a       __unwindfunclet$??0fabianServer@@QAE@PAVQObject@@ABVQHostAddress@@H_N2PAVIfabian_clientCallback@@PAV?$set@VQString@@U?$less@VQString@@@std@@V?$allocator@VQString@@@3@@std@@4@Z$8 0042624a f   fabianServer.obj
 0001:00025253       __unwindfunclet$??0fabianServer@@QAE@PAVQObject@@ABVQHostAddress@@H_N2PAVIfabian_clientCallback@@PAV?$set@VQString@@U?$less@VQString@@@std@@V?$allocator@VQString@@@3@@std@@4@Z$9 00426253 f   fabianServer.obj
 0001:0002525c       __unwindfunclet$??0fabianServer@@QAE@PAVQObject@@ABVQHostAddress@@H_N2PAVIfabian_clientCallback@@PAV?$set@VQString@@U?$less@VQString@@@std@@V?$allocator@VQString@@@3@@std@@4@Z$10 0042625c f   fabianServer.obj
 0001:00025265       __unwindfunclet$??0fabianServer@@QAE@PAVQObject@@ABVQHostAddress@@H_N2PAVIfabian_clientCallback@@PAV?$set@VQString@@U?$less@VQString@@@std@@V?$allocator@VQString@@@3@@std@@4@Z$11 00426265 f   fabianServer.obj
 0001:0002526e       __unwindfunclet$??0fabianServer@@QAE@PAVQObject@@ABVQHostAddress@@H_N2PAVIfabian_clientCallback@@PAV?$set@VQString@@U?$less@VQString@@@std@@V?$allocator@VQString@@@3@@std@@4@Z$12 0042626e f   fabianServer.obj
 0001:00025277       __ehhandler$??0fabianServer@@QAE@PAVQObject@@ABVQHostAddress@@H_N2PAVIfabian_clientCallback@@PAV?$set@VQString@@U?$less@VQString@@@std@@V?$allocator@VQString@@@3@@std@@4@Z 00426277 f   fabianServer.obj
 0001:000252a0       __unwindfunclet$??1fabianServer@@UAE@XZ$0 004262a0 f   fabianServer.obj
 0001:000252a9       __unwindfunclet$??1fabianServer@@UAE@XZ$1 004262a9 f   fabianServer.obj
 0001:000252b4       __ehhandler$??1fabianServer@@UAE@XZ 004262b4 f   fabianServer.obj
 0001:000252d0       __unwindfunclet$?incomingConnection@fabianServer@@MAEXH@Z$0 004262d0 f   fabianServer.obj
 0001:000252db       __unwindfunclet$?incomingConnection@fabianServer@@MAEXH@Z$2 004262db f   fabianServer.obj
 0001:000252e3       __unwindfunclet$?incomingConnection@fabianServer@@MAEXH@Z$3 004262e3 f   fabianServer.obj
 0001:000252ec       __unwindfunclet$?incomingConnection@fabianServer@@MAEXH@Z$4 004262ec f   fabianServer.obj
 0001:000252f5       __unwindfunclet$?incomingConnection@fabianServer@@MAEXH@Z$5 004262f5 f   fabianServer.obj
 0001:000252fe       __unwindfunclet$?incomingConnection@fabianServer@@MAEXH@Z$6 004262fe f   fabianServer.obj
 0001:00025307       __unwindfunclet$?incomingConnection@fabianServer@@MAEXH@Z$7 00426307 f   fabianServer.obj
 0001:0002530f       __unwindfunclet$?incomingConnection@fabianServer@@MAEXH@Z$8 0042630f f   fabianServer.obj
 0001:00025318       __unwindfunclet$?incomingConnection@fabianServer@@MAEXH@Z$9 00426318 f   fabianServer.obj
 0001:00025321       __unwindfunclet$?incomingConnection@fabianServer@@MAEXH@Z$10 00426321 f   fabianServer.obj
 0001:0002532a       __unwindfunclet$?incomingConnection@fabianServer@@MAEXH@Z$11 0042632a f   fabianServer.obj
 0001:00025333       __ehhandler$?incomingConnection@fabianServer@@MAEXH@Z 00426333 f   fabianServer.obj
 0001:00025350       __ehhandler$??0?$QList@VQSslError@@@@QAE@ABV0@@Z 00426350 f   fabian_client.obj
 0001:00025370       __unwindfunclet$??0fabian_client@@QAE@H_N0PAVIfabian_clientCallback@@PAVQObject@@@Z$0 00426370 f   fabian_client.obj
 0001:0002537c       __unwindfunclet$??0fabian_client@@QAE@H_N0PAVIfabian_clientCallback@@PAVQObject@@@Z$1 0042637c f   fabian_client.obj
 0001:0002538b       __unwindfunclet$??0fabian_client@@QAE@H_N0PAVIfabian_clientCallback@@PAVQObject@@@Z$2 0042638b f   fabian_client.obj
 0001:0002539a       __unwindfunclet$??0fabian_client@@QAE@H_N0PAVIfabian_clientCallback@@PAVQObject@@@Z$3 0042639a f   fabian_client.obj
 0001:000253a9       __unwindfunclet$??0fabian_client@@QAE@H_N0PAVIfabian_clientCallback@@PAVQObject@@@Z$4 004263a9 f   fabian_client.obj
 0001:000253b8       __unwindfunclet$??0fabian_client@@QAE@H_N0PAVIfabian_clientCallback@@PAVQObject@@@Z$5 004263b8 f   fabian_client.obj
 0001:000253c7       __unwindfunclet$??0fabian_client@@QAE@H_N0PAVIfabian_clientCallback@@PAVQObject@@@Z$6 004263c7 f   fabian_client.obj
 0001:000253d6       __unwindfunclet$??0fabian_client@@QAE@H_N0PAVIfabian_clientCallback@@PAVQObject@@@Z$7 004263d6 f   fabian_client.obj
 0001:000253e7       __unwindfunclet$??0fabian_client@@QAE@H_N0PAVIfabian_clientCallback@@PAVQObject@@@Z$8 004263e7 f   fabian_client.obj
 0001:000253ef       __unwindfunclet$??0fabian_client@@QAE@H_N0PAVIfabian_clientCallback@@PAVQObject@@@Z$9 004263ef f   fabian_client.obj
 0001:000253fb       __unwindfunclet$??0fabian_client@@QAE@H_N0PAVIfabian_clientCallback@@PAVQObject@@@Z$10 004263fb f   fabian_client.obj
 0001:00025406       __unwindfunclet$??0fabian_client@@QAE@H_N0PAVIfabian_clientCallback@@PAVQObject@@@Z$11 00426406 f   fabian_client.obj
 0001:00025411       __unwindfunclet$??0fabian_client@@QAE@H_N0PAVIfabian_clientCallback@@PAVQObject@@@Z$12 00426411 f   fabian_client.obj
 0001:00025419       __unwindfunclet$??0fabian_client@@QAE@H_N0PAVIfabian_clientCallback@@PAVQObject@@@Z$13 00426419 f   fabian_client.obj
 0001:00025427       __unwindfunclet$??0fabian_client@@QAE@H_N0PAVIfabian_clientCallback@@PAVQObject@@@Z$14 00426427 f   fabian_client.obj
 0001:00025430       __unwindfunclet$??0fabian_client@@QAE@H_N0PAVIfabian_clientCallback@@PAVQObject@@@Z$19 00426430 f   fabian_client.obj
 0001:0002543c       __unwindfunclet$??0fabian_client@@QAE@H_N0PAVIfabian_clientCallback@@PAVQObject@@@Z$20 0042643c f   fabian_client.obj
 0001:00025448       __unwindfunclet$??0fabian_client@@QAE@H_N0PAVIfabian_clientCallback@@PAVQObject@@@Z$21 00426448 f   fabian_client.obj
 0001:00025454       __unwindfunclet$??0fabian_client@@QAE@H_N0PAVIfabian_clientCallback@@PAVQObject@@@Z$22 00426454 f   fabian_client.obj
 0001:00025460       __unwindfunclet$??0fabian_client@@QAE@H_N0PAVIfabian_clientCallback@@PAVQObject@@@Z$23 00426460 f   fabian_client.obj
 0001:0002546c       __unwindfunclet$??0fabian_client@@QAE@H_N0PAVIfabian_clientCallback@@PAVQObject@@@Z$24 0042646c f   fabian_client.obj
 0001:00025478       __unwindfunclet$??0fabian_client@@QAE@H_N0PAVIfabian_clientCallback@@PAVQObject@@@Z$25 00426478 f   fabian_client.obj
 0001:00025484       __unwindfunclet$??0fabian_client@@QAE@H_N0PAVIfabian_clientCallback@@PAVQObject@@@Z$26 00426484 f   fabian_client.obj
 0001:00025490       __unwindfunclet$??0fabian_client@@QAE@H_N0PAVIfabian_clientCallback@@PAVQObject@@@Z$27 00426490 f   fabian_client.obj
 0001:0002549c       __unwindfunclet$??0fabian_client@@QAE@H_N0PAVIfabian_clientCallback@@PAVQObject@@@Z$31 0042649c f   fabian_client.obj
 0001:000254a8       __unwindfunclet$??0fabian_client@@QAE@H_N0PAVIfabian_clientCallback@@PAVQObject@@@Z$32 004264a8 f   fabian_client.obj
 0001:000254b3       __unwindfunclet$??0fabian_client@@QAE@H_N0PAVIfabian_clientCallback@@PAVQObject@@@Z$33 004264b3 f   fabian_client.obj
 0001:000254bf       __unwindfunclet$??0fabian_client@@QAE@H_N0PAVIfabian_clientCallback@@PAVQObject@@@Z$34 004264bf f   fabian_client.obj
 0001:000254ca       __unwindfunclet$??0fabian_client@@QAE@H_N0PAVIfabian_clientCallback@@PAVQObject@@@Z$35 004264ca f   fabian_client.obj
 0001:000254d5       __unwindfunclet$??0fabian_client@@QAE@H_N0PAVIfabian_clientCallback@@PAVQObject@@@Z$36 004264d5 f   fabian_client.obj
 0001:000254e0       __unwindfunclet$??0fabian_client@@QAE@H_N0PAVIfabian_clientCallback@@PAVQObject@@@Z$37 004264e0 f   fabian_client.obj
 0001:000254eb       __unwindfunclet$??0fabian_client@@QAE@H_N0PAVIfabian_clientCallback@@PAVQObject@@@Z$38 004264eb f   fabian_client.obj
 0001:000254f6       __unwindfunclet$??0fabian_client@@QAE@H_N0PAVIfabian_clientCallback@@PAVQObject@@@Z$39 004264f6 f   fabian_client.obj
 0001:00025502       __unwindfunclet$??0fabian_client@@QAE@H_N0PAVIfabian_clientCallback@@PAVQObject@@@Z$40 00426502 f   fabian_client.obj
 0001:0002550e       __unwindfunclet$??0fabian_client@@QAE@H_N0PAVIfabian_clientCallback@@PAVQObject@@@Z$41 0042650e f   fabian_client.obj
 0001:0002551a       __unwindfunclet$??0fabian_client@@QAE@H_N0PAVIfabian_clientCallback@@PAVQObject@@@Z$42 0042651a f   fabian_client.obj
 0001:00025526       __unwindfunclet$??0fabian_client@@QAE@H_N0PAVIfabian_clientCallback@@PAVQObject@@@Z$43 00426526 f   fabian_client.obj
 0001:00025532       __unwindfunclet$??0fabian_client@@QAE@H_N0PAVIfabian_clientCallback@@PAVQObject@@@Z$44 00426532 f   fabian_client.obj
 0001:0002553b       __unwindfunclet$??0fabian_client@@QAE@H_N0PAVIfabian_clientCallback@@PAVQObject@@@Z$45 0042653b f   fabian_client.obj
 0001:00025543       __unwindfunclet$??0fabian_client@@QAE@H_N0PAVIfabian_clientCallback@@PAVQObject@@@Z$46 00426543 f   fabian_client.obj
 0001:0002554e       __unwindfunclet$??0fabian_client@@QAE@H_N0PAVIfabian_clientCallback@@PAVQObject@@@Z$47 0042654e f   fabian_client.obj
 0001:00025559       __unwindfunclet$??0fabian_client@@QAE@H_N0PAVIfabian_clientCallback@@PAVQObject@@@Z$48 00426559 f   fabian_client.obj
 0001:00025565       __unwindfunclet$??0fabian_client@@QAE@H_N0PAVIfabian_clientCallback@@PAVQObject@@@Z$49 00426565 f   fabian_client.obj
 0001:00025571       __unwindfunclet$??0fabian_client@@QAE@H_N0PAVIfabian_clientCallback@@PAVQObject@@@Z$50 00426571 f   fabian_client.obj
 0001:0002557d       __unwindfunclet$??0fabian_client@@QAE@H_N0PAVIfabian_clientCallback@@PAVQObject@@@Z$51 0042657d f   fabian_client.obj
 0001:00025589       __unwindfunclet$??0fabian_client@@QAE@H_N0PAVIfabian_clientCallback@@PAVQObject@@@Z$52 00426589 f   fabian_client.obj
 0001:00025595       __unwindfunclet$??0fabian_client@@QAE@H_N0PAVIfabian_clientCallback@@PAVQObject@@@Z$53 00426595 f   fabian_client.obj
 0001:000255a1       __unwindfunclet$??0fabian_client@@QAE@H_N0PAVIfabian_clientCallback@@PAVQObject@@@Z$54 004265a1 f   fabian_client.obj
 0001:000255ad       __unwindfunclet$??0fabian_client@@QAE@H_N0PAVIfabian_clientCallback@@PAVQObject@@@Z$55 004265ad f   fabian_client.obj
 0001:000255b9       __unwindfunclet$??0fabian_client@@QAE@H_N0PAVIfabian_clientCallback@@PAVQObject@@@Z$56 004265b9 f   fabian_client.obj
 0001:000255c5       __unwindfunclet$??0fabian_client@@QAE@H_N0PAVIfabian_clientCallback@@PAVQObject@@@Z$57 004265c5 f   fabian_client.obj
 0001:000255d1       __unwindfunclet$??0fabian_client@@QAE@H_N0PAVIfabian_clientCallback@@PAVQObject@@@Z$58 004265d1 f   fabian_client.obj
 0001:000255dd       __unwindfunclet$??0fabian_client@@QAE@H_N0PAVIfabian_clientCallback@@PAVQObject@@@Z$59 004265dd f   fabian_client.obj
 0001:000255e9       __unwindfunclet$??0fabian_client@@QAE@H_N0PAVIfabian_clientCallback@@PAVQObject@@@Z$60 004265e9 f   fabian_client.obj
 0001:000255f5       __unwindfunclet$??0fabian_client@@QAE@H_N0PAVIfabian_clientCallback@@PAVQObject@@@Z$61 004265f5 f   fabian_client.obj
 0001:00025601       __unwindfunclet$??0fabian_client@@QAE@H_N0PAVIfabian_clientCallback@@PAVQObject@@@Z$62 00426601 f   fabian_client.obj
 0001:0002560d       __unwindfunclet$??0fabian_client@@QAE@H_N0PAVIfabian_clientCallback@@PAVQObject@@@Z$63 0042660d f   fabian_client.obj
 0001:00025619       __unwindfunclet$??0fabian_client@@QAE@H_N0PAVIfabian_clientCallback@@PAVQObject@@@Z$64 00426619 f   fabian_client.obj
 0001:00025625       __unwindfunclet$??0fabian_client@@QAE@H_N0PAVIfabian_clientCallback@@PAVQObject@@@Z$65 00426625 f   fabian_client.obj
 0001:0002562d       __unwindfunclet$??0fabian_client@@QAE@H_N0PAVIfabian_clientCallback@@PAVQObject@@@Z$66 0042662d f   fabian_client.obj
 0001:00025638       __unwindfunclet$??0fabian_client@@QAE@H_N0PAVIfabian_clientCallback@@PAVQObject@@@Z$67 00426638 f   fabian_client.obj
 0001:00025643       __unwindfunclet$??0fabian_client@@QAE@H_N0PAVIfabian_clientCallback@@PAVQObject@@@Z$68 00426643 f   fabian_client.obj
 0001:0002564f       __unwindfunclet$??0fabian_client@@QAE@H_N0PAVIfabian_clientCallback@@PAVQObject@@@Z$69 0042664f f   fabian_client.obj
 0001:0002565b       __unwindfunclet$??0fabian_client@@QAE@H_N0PAVIfabian_clientCallback@@PAVQObject@@@Z$70 0042665b f   fabian_client.obj
 0001:00025667       __unwindfunclet$??0fabian_client@@QAE@H_N0PAVIfabian_clientCallback@@PAVQObject@@@Z$71 00426667 f   fabian_client.obj
 0001:00025673       __unwindfunclet$??0fabian_client@@QAE@H_N0PAVIfabian_clientCallback@@PAVQObject@@@Z$72 00426673 f   fabian_client.obj
 0001:0002567f       __unwindfunclet$??0fabian_client@@QAE@H_N0PAVIfabian_clientCallback@@PAVQObject@@@Z$73 0042667f f   fabian_client.obj
 0001:0002568a       __unwindfunclet$??0fabian_client@@QAE@H_N0PAVIfabian_clientCallback@@PAVQObject@@@Z$74 0042668a f   fabian_client.obj
 0001:00025696       __unwindfunclet$??0fabian_client@@QAE@H_N0PAVIfabian_clientCallback@@PAVQObject@@@Z$75 00426696 f   fabian_client.obj
 0001:000256a2       __unwindfunclet$??0fabian_client@@QAE@H_N0PAVIfabian_clientCallback@@PAVQObject@@@Z$76 004266a2 f   fabian_client.obj
 0001:000256ae       __unwindfunclet$??0fabian_client@@QAE@H_N0PAVIfabian_clientCallback@@PAVQObject@@@Z$77 004266ae f   fabian_client.obj
 0001:000256ba       __unwindfunclet$??0fabian_client@@QAE@H_N0PAVIfabian_clientCallback@@PAVQObject@@@Z$78 004266ba f   fabian_client.obj
 0001:000256c6       __unwindfunclet$??0fabian_client@@QAE@H_N0PAVIfabian_clientCallback@@PAVQObject@@@Z$79 004266c6 f   fabian_client.obj
 0001:000256d2       __unwindfunclet$??0fabian_client@@QAE@H_N0PAVIfabian_clientCallback@@PAVQObject@@@Z$80 004266d2 f   fabian_client.obj
 0001:000256de       __unwindfunclet$??0fabian_client@@QAE@H_N0PAVIfabian_clientCallback@@PAVQObject@@@Z$81 004266de f   fabian_client.obj
 0001:000256ea       __unwindfunclet$??0fabian_client@@QAE@H_N0PAVIfabian_clientCallback@@PAVQObject@@@Z$82 004266ea f   fabian_client.obj
 0001:000256f6       __unwindfunclet$??0fabian_client@@QAE@H_N0PAVIfabian_clientCallback@@PAVQObject@@@Z$83 004266f6 f   fabian_client.obj
 0001:00025702       __unwindfunclet$??0fabian_client@@QAE@H_N0PAVIfabian_clientCallback@@PAVQObject@@@Z$84 00426702 f   fabian_client.obj
 0001:0002570e       __unwindfunclet$??0fabian_client@@QAE@H_N0PAVIfabian_clientCallback@@PAVQObject@@@Z$85 0042670e f   fabian_client.obj
 0001:0002571a       __unwindfunclet$??0fabian_client@@QAE@H_N0PAVIfabian_clientCallback@@PAVQObject@@@Z$86 0042671a f   fabian_client.obj
 0001:00025726       __unwindfunclet$??0fabian_client@@QAE@H_N0PAVIfabian_clientCallback@@PAVQObject@@@Z$87 00426726 f   fabian_client.obj
 0001:00025732       __unwindfunclet$??0fabian_client@@QAE@H_N0PAVIfabian_clientCallback@@PAVQObject@@@Z$88 00426732 f   fabian_client.obj
 0001:0002573e       __unwindfunclet$??0fabian_client@@QAE@H_N0PAVIfabian_clientCallback@@PAVQObject@@@Z$89 0042673e f   fabian_client.obj
 0001:0002574a       __unwindfunclet$??0fabian_client@@QAE@H_N0PAVIfabian_clientCallback@@PAVQObject@@@Z$91 0042674a f   fabian_client.obj
 0001:00025756       __unwindfunclet$??0fabian_client@@QAE@H_N0PAVIfabian_clientCallback@@PAVQObject@@@Z$92 00426756 f   fabian_client.obj
 0001:00025762       __unwindfunclet$??0fabian_client@@QAE@H_N0PAVIfabian_clientCallback@@PAVQObject@@@Z$93 00426762 f   fabian_client.obj
 0001:0002576e       __unwindfunclet$??0fabian_client@@QAE@H_N0PAVIfabian_clientCallback@@PAVQObject@@@Z$95 0042676e f   fabian_client.obj
 0001:0002577a       __ehhandler$??0fabian_client@@QAE@H_N0PAVIfabian_clientCallback@@PAVQObject@@@Z 0042677a f   fabian_client.obj
 0001:000257b0       __unwindfunclet$??1fabian_client@@UAE@XZ$0 004267b0 f   fabian_client.obj
 0001:000257b9       __unwindfunclet$??1fabian_client@@UAE@XZ$1 004267b9 f   fabian_client.obj
 0001:000257c5       __unwindfunclet$??1fabian_client@@UAE@XZ$2 004267c5 f   fabian_client.obj
 0001:000257d1       __unwindfunclet$??1fabian_client@@UAE@XZ$3 004267d1 f   fabian_client.obj
 0001:000257dd       __unwindfunclet$??1fabian_client@@UAE@XZ$4 004267dd f   fabian_client.obj
 0001:000257e9       __unwindfunclet$??1fabian_client@@UAE@XZ$5 004267e9 f   fabian_client.obj
 0001:000257f5       __unwindfunclet$??1fabian_client@@UAE@XZ$6 004267f5 f   fabian_client.obj
 0001:00025801       __unwindfunclet$??1fabian_client@@UAE@XZ$7 00426801 f   fabian_client.obj
 0001:0002580f       __ehhandler$??1fabian_client@@UAE@XZ 0042680f f   fabian_client.obj
 0001:00025830       __ehhandler$?append@?$QList@VQString@@@@QAEXABVQString@@@Z 00426830 f   fabian_client.obj
 0001:00025850       __unwindfunclet$?bufParse@fabian_client@@AAEHPADH@Z$0 00426850 f   fabian_client.obj
 0001:00025859       __unwindfunclet$?bufParse@fabian_client@@AAEHPADH@Z$1 00426859 f   fabian_client.obj
 0001:00025862       __unwindfunclet$?bufParse@fabian_client@@AAEHPADH@Z$2 00426862 f   fabian_client.obj
 0001:0002586a       __ehhandler$?bufParse@fabian_client@@AAEHPADH@Z 0042686a f   fabian_client.obj
 0001:00025890       __ehhandler$?detach_helper_grow@?$QList@VQString@@@@AAEPAUNode@1@HH@Z 00426890 f   fabian_client.obj
 0001:000258c0       __unwindfunclet$?lineParse@fabian_client@@AAEXABVQStringList@@@Z$0 004268c0 f   fabian_client.obj
 0001:000258cc       __unwindfunclet$?lineParse@fabian_client@@AAEXABVQStringList@@@Z$1 004268cc f   fabian_client.obj
 0001:000258d8       __unwindfunclet$?lineParse@fabian_client@@AAEXABVQStringList@@@Z$2 004268d8 f   fabian_client.obj
 0001:000258e4       __unwindfunclet$?lineParse@fabian_client@@AAEXABVQStringList@@@Z$3 004268e4 f   fabian_client.obj
 0001:000258f0       __unwindfunclet$?lineParse@fabian_client@@AAEXABVQStringList@@@Z$5 004268f0 f   fabian_client.obj
 0001:000258fc       __unwindfunclet$?lineParse@fabian_client@@AAEXABVQStringList@@@Z$7 004268fc f   fabian_client.obj
 0001:00025908       __unwindfunclet$?lineParse@fabian_client@@AAEXABVQStringList@@@Z$9 00426908 f   fabian_client.obj
 0001:0002592b       __unwindfunclet$?lineParse@fabian_client@@AAEXABVQStringList@@@Z$10 0042692b f   fabian_client.obj
 0001:0002594e       __unwindfunclet$?lineParse@fabian_client@@AAEXABVQStringList@@@Z$11 0042694e f   fabian_client.obj
 0001:00025971       __unwindfunclet$?lineParse@fabian_client@@AAEXABVQStringList@@@Z$12 00426971 f   fabian_client.obj
 0001:0002597d       __unwindfunclet$?lineParse@fabian_client@@AAEXABVQStringList@@@Z$13 0042697d f   fabian_client.obj
 0001:00025989       __unwindfunclet$?lineParse@fabian_client@@AAEXABVQStringList@@@Z$14 00426989 f   fabian_client.obj
 0001:00025995       __unwindfunclet$?lineParse@fabian_client@@AAEXABVQStringList@@@Z$15 00426995 f   fabian_client.obj
 0001:000259a1       __unwindfunclet$?lineParse@fabian_client@@AAEXABVQStringList@@@Z$16 004269a1 f   fabian_client.obj
 0001:000259ad       __unwindfunclet$?lineParse@fabian_client@@AAEXABVQStringList@@@Z$17 004269ad f   fabian_client.obj
 0001:000259b9       __unwindfunclet$?lineParse@fabian_client@@AAEXABVQStringList@@@Z$18 004269b9 f   fabian_client.obj
 0001:000259c5       __unwindfunclet$?lineParse@fabian_client@@AAEXABVQStringList@@@Z$19 004269c5 f   fabian_client.obj
 0001:000259d1       __unwindfunclet$?lineParse@fabian_client@@AAEXABVQStringList@@@Z$20 004269d1 f   fabian_client.obj
 0001:000259dd       __unwindfunclet$?lineParse@fabian_client@@AAEXABVQStringList@@@Z$21 004269dd f   fabian_client.obj
 0001:000259e8       __unwindfunclet$?lineParse@fabian_client@@AAEXABVQStringList@@@Z$22 004269e8 f   fabian_client.obj
 0001:000259f4       __unwindfunclet$?lineParse@fabian_client@@AAEXABVQStringList@@@Z$23 004269f4 f   fabian_client.obj
 0001:00025a00       __unwindfunclet$?lineParse@fabian_client@@AAEXABVQStringList@@@Z$24 00426a00 f   fabian_client.obj
 0001:00025a0c       __unwindfunclet$?lineParse@fabian_client@@AAEXABVQStringList@@@Z$25 00426a0c f   fabian_client.obj
 0001:00025a18       __unwindfunclet$?lineParse@fabian_client@@AAEXABVQStringList@@@Z$26 00426a18 f   fabian_client.obj
 0001:00025a24       __unwindfunclet$?lineParse@fabian_client@@AAEXABVQStringList@@@Z$27 00426a24 f   fabian_client.obj
 0001:00025a30       __unwindfunclet$?lineParse@fabian_client@@AAEXABVQStringList@@@Z$28 00426a30 f   fabian_client.obj
 0001:00025a3c       __unwindfunclet$?lineParse@fabian_client@@AAEXABVQStringList@@@Z$29 00426a3c f   fabian_client.obj
 0001:00025a48       __unwindfunclet$?lineParse@fabian_client@@AAEXABVQStringList@@@Z$30 00426a48 f   fabian_client.obj
 0001:00025a54       __unwindfunclet$?lineParse@fabian_client@@AAEXABVQStringList@@@Z$31 00426a54 f   fabian_client.obj
 0001:00025a60       __unwindfunclet$?lineParse@fabian_client@@AAEXABVQStringList@@@Z$32 00426a60 f   fabian_client.obj
 0001:00025a6c       __unwindfunclet$?lineParse@fabian_client@@AAEXABVQStringList@@@Z$33 00426a6c f   fabian_client.obj
 0001:00025a78       __unwindfunclet$?lineParse@fabian_client@@AAEXABVQStringList@@@Z$34 00426a78 f   fabian_client.obj
 0001:00025a84       __unwindfunclet$?lineParse@fabian_client@@AAEXABVQStringList@@@Z$35 00426a84 f   fabian_client.obj
 0001:00025a90       __unwindfunclet$?lineParse@fabian_client@@AAEXABVQStringList@@@Z$36 00426a90 f   fabian_client.obj
 0001:00025a9c       __unwindfunclet$?lineParse@fabian_client@@AAEXABVQStringList@@@Z$37 00426a9c f   fabian_client.obj
 0001:00025aa8       __unwindfunclet$?lineParse@fabian_client@@AAEXABVQStringList@@@Z$38 00426aa8 f   fabian_client.obj
 0001:00025ab4       __unwindfunclet$?lineParse@fabian_client@@AAEXABVQStringList@@@Z$39 00426ab4 f   fabian_client.obj
 0001:00025ac0       __unwindfunclet$?lineParse@fabian_client@@AAEXABVQStringList@@@Z$40 00426ac0 f   fabian_client.obj
 0001:00025acc       __unwindfunclet$?lineParse@fabian_client@@AAEXABVQStringList@@@Z$41 00426acc f   fabian_client.obj
 0001:00025ad8       __unwindfunclet$?lineParse@fabian_client@@AAEXABVQStringList@@@Z$42 00426ad8 f   fabian_client.obj
 0001:00025ae4       __unwindfunclet$?lineParse@fabian_client@@AAEXABVQStringList@@@Z$43 00426ae4 f   fabian_client.obj
 0001:00025af0       __unwindfunclet$?lineParse@fabian_client@@AAEXABVQStringList@@@Z$44 00426af0 f   fabian_client.obj
 0001:00025afc       __unwindfunclet$?lineParse@fabian_client@@AAEXABVQStringList@@@Z$45 00426afc f   fabian_client.obj
 0001:00025b08       __unwindfunclet$?lineParse@fabian_client@@AAEXABVQStringList@@@Z$46 00426b08 f   fabian_client.obj
 0001:00025b14       __unwindfunclet$?lineParse@fabian_client@@AAEXABVQStringList@@@Z$47 00426b14 f   fabian_client.obj
 0001:00025b20       __unwindfunclet$?lineParse@fabian_client@@AAEXABVQStringList@@@Z$48 00426b20 f   fabian_client.obj
 0001:00025b2c       __unwindfunclet$?lineParse@fabian_client@@AAEXABVQStringList@@@Z$49 00426b2c f   fabian_client.obj
 0001:00025b38       __unwindfunclet$?lineParse@fabian_client@@AAEXABVQStringList@@@Z$50 00426b38 f   fabian_client.obj
 0001:00025b44       __unwindfunclet$?lineParse@fabian_client@@AAEXABVQStringList@@@Z$51 00426b44 f   fabian_client.obj
 0001:00025b50       __unwindfunclet$?lineParse@fabian_client@@AAEXABVQStringList@@@Z$52 00426b50 f   fabian_client.obj
 0001:00025b5c       __unwindfunclet$?lineParse@fabian_client@@AAEXABVQStringList@@@Z$53 00426b5c f   fabian_client.obj
 0001:00025b68       __unwindfunclet$?lineParse@fabian_client@@AAEXABVQStringList@@@Z$54 00426b68 f   fabian_client.obj
 0001:00025b74       __unwindfunclet$?lineParse@fabian_client@@AAEXABVQStringList@@@Z$55 00426b74 f   fabian_client.obj
 0001:00025b80       __unwindfunclet$?lineParse@fabian_client@@AAEXABVQStringList@@@Z$56 00426b80 f   fabian_client.obj
 0001:00025b8c       __unwindfunclet$?lineParse@fabian_client@@AAEXABVQStringList@@@Z$57 00426b8c f   fabian_client.obj
 0001:00025b98       __unwindfunclet$?lineParse@fabian_client@@AAEXABVQStringList@@@Z$58 00426b98 f   fabian_client.obj
 0001:00025ba4       __unwindfunclet$?lineParse@fabian_client@@AAEXABVQStringList@@@Z$59 00426ba4 f   fabian_client.obj
 0001:00025bb0       __unwindfunclet$?lineParse@fabian_client@@AAEXABVQStringList@@@Z$60 00426bb0 f   fabian_client.obj
 0001:00025bbc       __unwindfunclet$?lineParse@fabian_client@@AAEXABVQStringList@@@Z$61 00426bbc f   fabian_client.obj
 0001:00025bdf       __unwindfunclet$?lineParse@fabian_client@@AAEXABVQStringList@@@Z$62 00426bdf f   fabian_client.obj
 0001:00025c02       __unwindfunclet$?lineParse@fabian_client@@AAEXABVQStringList@@@Z$63 00426c02 f   fabian_client.obj
 0001:00025c25       __unwindfunclet$?lineParse@fabian_client@@AAEXABVQStringList@@@Z$64 00426c25 f   fabian_client.obj
 0001:00025c31       __unwindfunclet$?lineParse@fabian_client@@AAEXABVQStringList@@@Z$65 00426c31 f   fabian_client.obj
 0001:00025c3d       __unwindfunclet$?lineParse@fabian_client@@AAEXABVQStringList@@@Z$66 00426c3d f   fabian_client.obj
 0001:00025c49       __unwindfunclet$?lineParse@fabian_client@@AAEXABVQStringList@@@Z$67 00426c49 f   fabian_client.obj
 0001:00025c55       __unwindfunclet$?lineParse@fabian_client@@AAEXABVQStringList@@@Z$68 00426c55 f   fabian_client.obj
 0001:00025c61       __unwindfunclet$?lineParse@fabian_client@@AAEXABVQStringList@@@Z$69 00426c61 f   fabian_client.obj
 0001:00025c6d       __unwindfunclet$?lineParse@fabian_client@@AAEXABVQStringList@@@Z$70 00426c6d f   fabian_client.obj
 0001:00025c79       __unwindfunclet$?lineParse@fabian_client@@AAEXABVQStringList@@@Z$71 00426c79 f   fabian_client.obj
 0001:00025c9c       __unwindfunclet$?lineParse@fabian_client@@AAEXABVQStringList@@@Z$72 00426c9c f   fabian_client.obj
 0001:00025cc4       __unwindfunclet$?lineParse@fabian_client@@AAEXABVQStringList@@@Z$73 00426cc4 f   fabian_client.obj
 0001:00025cec       __unwindfunclet$?lineParse@fabian_client@@AAEXABVQStringList@@@Z$74 00426cec f   fabian_client.obj
 0001:00025cf8       __unwindfunclet$?lineParse@fabian_client@@AAEXABVQStringList@@@Z$75 00426cf8 f   fabian_client.obj
 0001:00025d20       __unwindfunclet$?lineParse@fabian_client@@AAEXABVQStringList@@@Z$76 00426d20 f   fabian_client.obj
 0001:00025d48       __unwindfunclet$?lineParse@fabian_client@@AAEXABVQStringList@@@Z$77 00426d48 f   fabian_client.obj
 0001:00025d70       __unwindfunclet$?lineParse@fabian_client@@AAEXABVQStringList@@@Z$78 00426d70 f   fabian_client.obj
 0001:00025d7c       __unwindfunclet$?lineParse@fabian_client@@AAEXABVQStringList@@@Z$79 00426d7c f   fabian_client.obj
 0001:00025d88       __unwindfunclet$?lineParse@fabian_client@@AAEXABVQStringList@@@Z$80 00426d88 f   fabian_client.obj
 0001:00025d94       __unwindfunclet$?lineParse@fabian_client@@AAEXABVQStringList@@@Z$81 00426d94 f   fabian_client.obj
 0001:00025da0       __unwindfunclet$?lineParse@fabian_client@@AAEXABVQStringList@@@Z$82 00426da0 f   fabian_client.obj
 0001:00025dac       __unwindfunclet$?lineParse@fabian_client@@AAEXABVQStringList@@@Z$83 00426dac f   fabian_client.obj
 0001:00025db8       __unwindfunclet$?lineParse@fabian_client@@AAEXABVQStringList@@@Z$84 00426db8 f   fabian_client.obj
 0001:00025dc4       __unwindfunclet$?lineParse@fabian_client@@AAEXABVQStringList@@@Z$85 00426dc4 f   fabian_client.obj
 0001:00025dd0       __unwindfunclet$?lineParse@fabian_client@@AAEXABVQStringList@@@Z$86 00426dd0 f   fabian_client.obj
 0001:00025ddc       __unwindfunclet$?lineParse@fabian_client@@AAEXABVQStringList@@@Z$87 00426ddc f   fabian_client.obj
 0001:00025e04       __unwindfunclet$?lineParse@fabian_client@@AAEXABVQStringList@@@Z$88 00426e04 f   fabian_client.obj
 0001:00025e2c       __unwindfunclet$?lineParse@fabian_client@@AAEXABVQStringList@@@Z$89 00426e2c f   fabian_client.obj
 0001:00025e38       __unwindfunclet$?lineParse@fabian_client@@AAEXABVQStringList@@@Z$90 00426e38 f   fabian_client.obj
 0001:00025e44       __unwindfunclet$?lineParse@fabian_client@@AAEXABVQStringList@@@Z$91 00426e44 f   fabian_client.obj
 0001:00025e50       __unwindfunclet$?lineParse@fabian_client@@AAEXABVQStringList@@@Z$92 00426e50 f   fabian_client.obj
 0001:00025e5c       __unwindfunclet$?lineParse@fabian_client@@AAEXABVQStringList@@@Z$93 00426e5c f   fabian_client.obj
 0001:00025e68       __unwindfunclet$?lineParse@fabian_client@@AAEXABVQStringList@@@Z$94 00426e68 f   fabian_client.obj
 0001:00025e74       __unwindfunclet$?lineParse@fabian_client@@AAEXABVQStringList@@@Z$95 00426e74 f   fabian_client.obj
 0001:00025e80       __unwindfunclet$?lineParse@fabian_client@@AAEXABVQStringList@@@Z$96 00426e80 f   fabian_client.obj
 0001:00025e8c       __unwindfunclet$?lineParse@fabian_client@@AAEXABVQStringList@@@Z$97 00426e8c f   fabian_client.obj
 0001:00025eb4       __unwindfunclet$?lineParse@fabian_client@@AAEXABVQStringList@@@Z$98 00426eb4 f   fabian_client.obj
 0001:00025edc       __unwindfunclet$?lineParse@fabian_client@@AAEXABVQStringList@@@Z$99 00426edc f   fabian_client.obj
 0001:00025ee8       __unwindfunclet$?lineParse@fabian_client@@AAEXABVQStringList@@@Z$100 00426ee8 f   fabian_client.obj
 0001:00025ef4       __unwindfunclet$?lineParse@fabian_client@@AAEXABVQStringList@@@Z$101 00426ef4 f   fabian_client.obj
 0001:00025f00       __unwindfunclet$?lineParse@fabian_client@@AAEXABVQStringList@@@Z$102 00426f00 f   fabian_client.obj
 0001:00025f0c       __unwindfunclet$?lineParse@fabian_client@@AAEXABVQStringList@@@Z$103 00426f0c f   fabian_client.obj
 0001:00025f18       __unwindfunclet$?lineParse@fabian_client@@AAEXABVQStringList@@@Z$104 00426f18 f   fabian_client.obj
 0001:00025f24       __unwindfunclet$?lineParse@fabian_client@@AAEXABVQStringList@@@Z$105 00426f24 f   fabian_client.obj
 0001:00025f30       __unwindfunclet$?lineParse@fabian_client@@AAEXABVQStringList@@@Z$106 00426f30 f   fabian_client.obj
 0001:00025f3c       __unwindfunclet$?lineParse@fabian_client@@AAEXABVQStringList@@@Z$107 00426f3c f   fabian_client.obj
 0001:00025f64       __unwindfunclet$?lineParse@fabian_client@@AAEXABVQStringList@@@Z$108 00426f64 f   fabian_client.obj
 0001:00025f8c       __unwindfunclet$?lineParse@fabian_client@@AAEXABVQStringList@@@Z$109 00426f8c f   fabian_client.obj
 0001:00025f98       __unwindfunclet$?lineParse@fabian_client@@AAEXABVQStringList@@@Z$110 00426f98 f   fabian_client.obj
 0001:00025fa4       __unwindfunclet$?lineParse@fabian_client@@AAEXABVQStringList@@@Z$111 00426fa4 f   fabian_client.obj
 0001:00025fb0       __unwindfunclet$?lineParse@fabian_client@@AAEXABVQStringList@@@Z$112 00426fb0 f   fabian_client.obj
 0001:00025fbc       __unwindfunclet$?lineParse@fabian_client@@AAEXABVQStringList@@@Z$113 00426fbc f   fabian_client.obj
 0001:00025fc8       __unwindfunclet$?lineParse@fabian_client@@AAEXABVQStringList@@@Z$114 00426fc8 f   fabian_client.obj
 0001:00025fd4       __unwindfunclet$?lineParse@fabian_client@@AAEXABVQStringList@@@Z$115 00426fd4 f   fabian_client.obj
 0001:00025fe0       __unwindfunclet$?lineParse@fabian_client@@AAEXABVQStringList@@@Z$116 00426fe0 f   fabian_client.obj
 0001:00025fec       __unwindfunclet$?lineParse@fabian_client@@AAEXABVQStringList@@@Z$117 00426fec f   fabian_client.obj
 0001:00026014       __unwindfunclet$?lineParse@fabian_client@@AAEXABVQStringList@@@Z$118 00427014 f   fabian_client.obj
 0001:0002603c       __unwindfunclet$?lineParse@fabian_client@@AAEXABVQStringList@@@Z$119 0042703c f   fabian_client.obj
 0001:00026048       __unwindfunclet$?lineParse@fabian_client@@AAEXABVQStringList@@@Z$120 00427048 f   fabian_client.obj
 0001:00026054       __unwindfunclet$?lineParse@fabian_client@@AAEXABVQStringList@@@Z$121 00427054 f   fabian_client.obj
 0001:00026060       __unwindfunclet$?lineParse@fabian_client@@AAEXABVQStringList@@@Z$122 00427060 f   fabian_client.obj
 0001:0002606c       __unwindfunclet$?lineParse@fabian_client@@AAEXABVQStringList@@@Z$123 0042706c f   fabian_client.obj
 0001:00026078       __unwindfunclet$?lineParse@fabian_client@@AAEXABVQStringList@@@Z$124 00427078 f   fabian_client.obj
 0001:00026084       __unwindfunclet$?lineParse@fabian_client@@AAEXABVQStringList@@@Z$125 00427084 f   fabian_client.obj
 0001:00026090       __unwindfunclet$?lineParse@fabian_client@@AAEXABVQStringList@@@Z$126 00427090 f   fabian_client.obj
 0001:0002609c       __unwindfunclet$?lineParse@fabian_client@@AAEXABVQStringList@@@Z$127 0042709c f   fabian_client.obj
 0001:000260a8       __unwindfunclet$?lineParse@fabian_client@@AAEXABVQStringList@@@Z$128 004270a8 f   fabian_client.obj
 0001:000260b4       __unwindfunclet$?lineParse@fabian_client@@AAEXABVQStringList@@@Z$129 004270b4 f   fabian_client.obj
 0001:000260c0       __unwindfunclet$?lineParse@fabian_client@@AAEXABVQStringList@@@Z$130 004270c0 f   fabian_client.obj
 0001:000260cc       __unwindfunclet$?lineParse@fabian_client@@AAEXABVQStringList@@@Z$131 004270cc f   fabian_client.obj
 0001:000260d8       __unwindfunclet$?lineParse@fabian_client@@AAEXABVQStringList@@@Z$132 004270d8 f   fabian_client.obj
 0001:000260e4       __unwindfunclet$?lineParse@fabian_client@@AAEXABVQStringList@@@Z$133 004270e4 f   fabian_client.obj
 0001:000260f0       __unwindfunclet$?lineParse@fabian_client@@AAEXABVQStringList@@@Z$134 004270f0 f   fabian_client.obj
 0001:000260fc       __unwindfunclet$?lineParse@fabian_client@@AAEXABVQStringList@@@Z$135 004270fc f   fabian_client.obj
 0001:00026108       __unwindfunclet$?lineParse@fabian_client@@AAEXABVQStringList@@@Z$136 00427108 f   fabian_client.obj
 0001:00026114       __unwindfunclet$?lineParse@fabian_client@@AAEXABVQStringList@@@Z$137 00427114 f   fabian_client.obj
 0001:00026120       __unwindfunclet$?lineParse@fabian_client@@AAEXABVQStringList@@@Z$138 00427120 f   fabian_client.obj
 0001:0002612c       __unwindfunclet$?lineParse@fabian_client@@AAEXABVQStringList@@@Z$139 0042712c f   fabian_client.obj
 0001:00026138       __unwindfunclet$?lineParse@fabian_client@@AAEXABVQStringList@@@Z$140 00427138 f   fabian_client.obj
 0001:00026144       __unwindfunclet$?lineParse@fabian_client@@AAEXABVQStringList@@@Z$141 00427144 f   fabian_client.obj
 0001:0002614c       __unwindfunclet$?lineParse@fabian_client@@AAEXABVQStringList@@@Z$142 0042714c f   fabian_client.obj
 0001:00026158       __unwindfunclet$?lineParse@fabian_client@@AAEXABVQStringList@@@Z$143 00427158 f   fabian_client.obj
 0001:00026163       __unwindfunclet$?lineParse@fabian_client@@AAEXABVQStringList@@@Z$144 00427163 f   fabian_client.obj
 0001:0002616b       __unwindfunclet$?lineParse@fabian_client@@AAEXABVQStringList@@@Z$145 0042716b f   fabian_client.obj
 0001:00026176       __unwindfunclet$?lineParse@fabian_client@@AAEXABVQStringList@@@Z$146 00427176 f   fabian_client.obj
 0001:00026181       __unwindfunclet$?lineParse@fabian_client@@AAEXABVQStringList@@@Z$147 00427181 f   fabian_client.obj
 0001:0002618c       __unwindfunclet$?lineParse@fabian_client@@AAEXABVQStringList@@@Z$148 0042718c f   fabian_client.obj
 0001:00026198       __unwindfunclet$?lineParse@fabian_client@@AAEXABVQStringList@@@Z$149 00427198 f   fabian_client.obj
 0001:000261a4       __unwindfunclet$?lineParse@fabian_client@@AAEXABVQStringList@@@Z$150 004271a4 f   fabian_client.obj
 0001:000261b0       __unwindfunclet$?lineParse@fabian_client@@AAEXABVQStringList@@@Z$151 004271b0 f   fabian_client.obj
 0001:000261bc       __unwindfunclet$?lineParse@fabian_client@@AAEXABVQStringList@@@Z$152 004271bc f   fabian_client.obj
 0001:000261c8       __unwindfunclet$?lineParse@fabian_client@@AAEXABVQStringList@@@Z$153 004271c8 f   fabian_client.obj
 0001:000261d4       __unwindfunclet$?lineParse@fabian_client@@AAEXABVQStringList@@@Z$154 004271d4 f   fabian_client.obj
 0001:000261e0       __unwindfunclet$?lineParse@fabian_client@@AAEXABVQStringList@@@Z$155 004271e0 f   fabian_client.obj
 0001:000261ec       __unwindfunclet$?lineParse@fabian_client@@AAEXABVQStringList@@@Z$156 004271ec f   fabian_client.obj
 0001:000261f8       __unwindfunclet$?lineParse@fabian_client@@AAEXABVQStringList@@@Z$157 004271f8 f   fabian_client.obj
 0001:00026204       __unwindfunclet$?lineParse@fabian_client@@AAEXABVQStringList@@@Z$158 00427204 f   fabian_client.obj
 0001:00026210       __unwindfunclet$?lineParse@fabian_client@@AAEXABVQStringList@@@Z$159 00427210 f   fabian_client.obj
 0001:0002621c       __ehhandler$?lineParse@fabian_client@@AAEXABVQStringList@@@Z 0042721c f   fabian_client.obj
 0001:00026250       __unwindfunclet$?node_copy@?$QList@VQSslError@@@@AAEXPAUNode@1@00@Z$5 00427250 f   fabian_client.obj
 0001:00026261       __ehhandler$?node_copy@?$QList@VQSslError@@@@AAEXPAUNode@1@00@Z 00427261 f   fabian_client.obj
 0001:00026280       __unwindfunclet$?sendData@fabian_client@@QAEXABVQString@@@Z$0 00427280 f   fabian_client.obj
 0001:00026289       __ehhandler$?sendData@fabian_client@@QAEXABVQString@@@Z 00427289 f   fabian_client.obj
 0001:000262b0       __unwindfunclet$?sendGreeting@fabian_client@@AAEXXZ$0 004272b0 f   fabian_client.obj
 0001:000262bb       __unwindfunclet$?sendGreeting@fabian_client@@AAEXXZ$1 004272bb f   fabian_client.obj
 0001:000262c7       __unwindfunclet$?sendGreeting@fabian_client@@AAEXXZ$2 004272c7 f   fabian_client.obj
 0001:000262d3       __unwindfunclet$?sendGreeting@fabian_client@@AAEXXZ$3 004272d3 f   fabian_client.obj
 0001:000262df       __unwindfunclet$?sendGreeting@fabian_client@@AAEXXZ$4 004272df f   fabian_client.obj
 0001:000262eb       __unwindfunclet$?sendGreeting@fabian_client@@AAEXXZ$5 004272eb f   fabian_client.obj
 0001:000262f7       __unwindfunclet$?sendGreeting@fabian_client@@AAEXXZ$6 004272f7 f   fabian_client.obj
 0001:00026303       __ehhandler$?sendGreeting@fabian_client@@AAEXXZ 00427303 f   fabian_client.obj
 0001:00026330       __unwindfunclet$?socketDisconnected@fabian_client@@QAEXXZ$0 00427330 f   fabian_client.obj
 0001:00026339       __ehhandler$?socketDisconnected@fabian_client@@QAEXXZ 00427339 f   fabian_client.obj
 0001:00026360       __unwindfunclet$?socketEncrypted@fabian_client@@QAEXXZ$0 00427360 f   fabian_client.obj
 0001:00026369       __unwindfunclet$?socketEncrypted@fabian_client@@QAEXXZ$1 00427369 f   fabian_client.obj
 0001:00026372       __unwindfunclet$?socketEncrypted@fabian_client@@QAEXXZ$2 00427372 f   fabian_client.obj
 0001:0002637b       __unwindfunclet$?socketEncrypted@fabian_client@@QAEXXZ$3 0042737b f   fabian_client.obj
 0001:00026384       __unwindfunclet$?socketEncrypted@fabian_client@@QAEXXZ$4 00427384 f   fabian_client.obj
 0001:0002638d       __ehhandler$?socketEncrypted@fabian_client@@QAEXXZ 0042738d f   fabian_client.obj
 0001:000263b0       __unwindfunclet$?socketError@fabian_client@@QAEXW4SocketError@QAbstractSocket@@@Z$0 004273b0 f   fabian_client.obj
 0001:000263b9       __unwindfunclet$?socketError@fabian_client@@QAEXW4SocketError@QAbstractSocket@@@Z$1 004273b9 f   fabian_client.obj
 0001:000263c2       __unwindfunclet$?socketError@fabian_client@@QAEXW4SocketError@QAbstractSocket@@@Z$2 004273c2 f   fabian_client.obj
 0001:000263cb       __unwindfunclet$?socketError@fabian_client@@QAEXW4SocketError@QAbstractSocket@@@Z$3 004273cb f   fabian_client.obj
 0001:000263d4       __unwindfunclet$?socketError@fabian_client@@QAEXW4SocketError@QAbstractSocket@@@Z$4 004273d4 f   fabian_client.obj
 0001:000263dd       __ehhandler$?socketError@fabian_client@@QAEXW4SocketError@QAbstractSocket@@@Z 004273dd f   fabian_client.obj
 0001:00026400       __unwindfunclet$?socketSslErrors@fabian_client@@QAEXABV?$QList@VQSslError@@@@@Z$0 00427400 f   fabian_client.obj
 0001:00026409       __unwindfunclet$?socketSslErrors@fabian_client@@QAEXABV?$QList@VQSslError@@@@@Z$1 00427409 f   fabian_client.obj
 0001:00026412       __unwindfunclet$?socketSslErrors@fabian_client@@QAEXABV?$QList@VQSslError@@@@@Z$2 00427412 f   fabian_client.obj
 0001:0002641b       __unwindfunclet$?socketSslErrors@fabian_client@@QAEXABV?$QList@VQSslError@@@@@Z$3 0042741b f   fabian_client.obj
 0001:00026423       __unwindfunclet$?socketSslErrors@fabian_client@@QAEXABV?$QList@VQSslError@@@@@Z$4 00427423 f   fabian_client.obj
 0001:0002642c       __unwindfunclet$?socketSslErrors@fabian_client@@QAEXABV?$QList@VQSslError@@@@@Z$5 0042742c f   fabian_client.obj
 0001:00026435       __unwindfunclet$?socketSslErrors@fabian_client@@QAEXABV?$QList@VQSslError@@@@@Z$6 00427435 f   fabian_client.obj
 0001:0002643e       __ehhandler$?socketSslErrors@fabian_client@@QAEXABV?$QList@VQSslError@@@@@Z 0042743e f   fabian_client.obj
 0001:00026460       __unwindfunclet$?timerEvent@fabian_client@@MAEXPAVQTimerEvent@@@Z$0 00427460 f   fabian_client.obj
 0001:00026469       __unwindfunclet$?timerEvent@fabian_client@@MAEXPAVQTimerEvent@@@Z$1 00427469 f   fabian_client.obj
 0001:00026472       __unwindfunclet$?timerEvent@fabian_client@@MAEXPAVQTimerEvent@@@Z$2 00427472 f   fabian_client.obj
 0001:0002647b       __unwindfunclet$?timerEvent@fabian_client@@MAEXPAVQTimerEvent@@@Z$3 0042747b f   fabian_client.obj
 0001:00026484       __ehhandler$?timerEvent@fabian_client@@MAEXPAVQTimerEvent@@@Z 00427484 f   fabian_client.obj
 0001:000264a0       __unwindfunclet$?userId@fabian_client@@QAE?AVQString@@XZ$0 004274a0 f   fabian_client.obj
 0001:000264a9       __unwindfunclet$?userId@fabian_client@@QAE?AVQString@@XZ$1 004274a9 f   fabian_client.obj
 0001:000264b2       __unwindfunclet$?userId@fabian_client@@QAE?AVQString@@XZ$2 004274b2 f   fabian_client.obj
 0001:000264bb       __unwindfunclet$?userId@fabian_client@@QAE?AVQString@@XZ$3 004274bb f   fabian_client.obj
 0001:000264c4       __unwindfunclet$?userId@fabian_client@@QAE?AVQString@@XZ$4 004274c4 f   fabian_client.obj
 0001:000264de       __ehhandler$?userId@fabian_client@@QAE?AVQString@@XZ 004274de f   fabian_client.obj
 0001:00026500       __unwindfunclet$?Construct@?$QMetaTypeFunctionHelper@V?$QList@VQSslError@@@@$00@QtMetaTypePrivate@@SAPAXPAXPBX@Z$0 00427500 f   moc_fabian_client.obj
 0001:00026511       __ehhandler$?Construct@?$QMetaTypeFunctionHelper@V?$QList@VQSslError@@@@$00@QtMetaTypePrivate@@SAPAXPAXPBX@Z 00427511 f   moc_fabian_client.obj
 0001:00026530       __unwindfunclet$?qt_metatype_id@?$QMetaTypeId@W4SocketError@QAbstractSocket@@@@SAHXZ$0 00427530 f   moc_fabian_client.obj
 0001:00026530       __unwindfunclet$?qt_metatype_id@?$QMetaTypeId@V?$QList@VQSslError@@@@@@SAHXZ$0 00427530 f   moc_fabian_client.obj
 0001:00026539       __ehhandler$?qt_metatype_id@?$QMetaTypeId@V?$QList@VQSslError@@@@@@SAHXZ 00427539 f   moc_fabian_client.obj
 0001:00026539       __ehhandler$?qt_metatype_id@?$QMetaTypeId@W4SocketError@QAbstractSocket@@@@SAHXZ 00427539 f   moc_fabian_client.obj
 0001:00026560       __unwindfunclet$_main$0    00427560 f   main.obj
 0001:0002656c       __unwindfunclet$_main$1    0042756c f   main.obj
 0001:00026578       __unwindfunclet$_main$2    00427578 f   main.obj
 0001:00026584       __unwindfunclet$_main$3    00427584 f   main.obj
 0001:00026590       __unwindfunclet$_main$4    00427590 f   main.obj
 0001:0002659c       __unwindfunclet$_main$5    0042759c f   main.obj
 0001:000265a8       __unwindfunclet$_main$6    004275a8 f   main.obj
 0001:000265b3       __unwindfunclet$_main$7    004275b3 f   main.obj
 0001:000265bf       __unwindfunclet$_main$8    004275bf f   main.obj
 0001:000265ca       __unwindfunclet$_main$9    004275ca f   main.obj
 0001:000265d6       __unwindfunclet$_main$10   004275d6 f   main.obj
 0001:000265e1       __ehhandler$_main          004275e1 f   main.obj
 0001:00026610       __ehhandler$??$_Insert_range@V?$_List_const_iterator@V?$_List_val@U?$_List_simple_types@Vreg@@@std@@@std@@@std@@@?$list@Vreg@@V?$allocator@Vreg@@@std@@@std@@QAEXV?$_List_unchecked_const_iterator@V?$_List_val@U?$_List_simple_types@Vreg@@@std@@@std@@U_Iterator_base0@2@@1@V?$_List_const_iterator@V?$_List_val@U?$_List_simple_types@Vreg@@@std@@@std@@@1@1Uforward_iterator_tag@1@@Z 00427610 f   singleReg.obj
 0001:00026630       __unwindfunclet$??0?$list@Vreg@@V?$allocator@Vreg@@@std@@@std@@QAE@ABV01@@Z$2 00427630 f   singleReg.obj
 0001:00026638       __ehhandler$??0?$list@Vreg@@V?$allocator@Vreg@@@std@@@std@@QAE@ABV01@@Z 00427638 f   singleReg.obj
 0001:00026660       __ehhandler$??$_Insert_nohint@ABVpollCommand@@U_Nil@std@@@?$_Tree@V?$_Tset_traits@VpollCommand@@U?$less@VpollCommand@@@std@@V?$allocator@VpollCommand@@@3@$0A@@std@@@std@@IAE?AU?$pair@V?$_Tree_const_iterator@V?$_Tree_val@U?$_Tree_simple_types@VpollCommand@@@std@@@std@@@std@@_N@1@_NABVpollCommand@@U_Nil@1@@Z 00427660 f   slink.obj
 0001:00026680       __ehhandler$??$_Insert_nohint@VQString@@U_Nil@std@@@?$_Tree@V?$_Tset_traits@VQString@@U?$less@VQString@@@std@@V?$allocator@VQString@@@3@$0A@@std@@@std@@IAE?AU?$pair@V?$_Tree_const_iterator@V?$_Tree_val@U?$_Tree_simple_types@VQString@@@std@@@std@@@std@@_N@1@_N$$QAVQString@@U_Nil@1@@Z 00427680 f   slink.obj
 0001:000266a0       __unwindfunclet$??0slink@@QAE@PAVQWidget@@@Z$0 004276a0 f   slink.obj
 0001:000266ac       __unwindfunclet$??0slink@@QAE@PAVQWidget@@@Z$1 004276ac f   slink.obj
 0001:000266b7       __unwindfunclet$??0slink@@QAE@PAVQWidget@@@Z$2 004276b7 f   slink.obj
 0001:000266c5       __unwindfunclet$??0slink@@QAE@PAVQWidget@@@Z$3 004276c5 f   slink.obj
 0001:000266d6       __unwindfunclet$??0slink@@QAE@PAVQWidget@@@Z$4 004276d6 f   slink.obj
 0001:000266e8       __unwindfunclet$??0slink@@QAE@PAVQWidget@@@Z$5 004276e8 f   slink.obj
 0001:000266f9       __unwindfunclet$??0slink@@QAE@PAVQWidget@@@Z$6 004276f9 f   slink.obj
 0001:0002670a       __unwindfunclet$??0slink@@QAE@PAVQWidget@@@Z$7 0042770a f   slink.obj
 0001:0002671c       __unwindfunclet$??0slink@@QAE@PAVQWidget@@@Z$8 0042771c f   slink.obj
 0001:0002672d       __unwindfunclet$??0slink@@QAE@PAVQWidget@@@Z$9 0042772d f   slink.obj
 0001:0002673e       __unwindfunclet$??0slink@@QAE@PAVQWidget@@@Z$10 0042773e f   slink.obj
 0001:0002674f       __unwindfunclet$??0slink@@QAE@PAVQWidget@@@Z$11 0042774f f   slink.obj
 0001:0002675b       __unwindfunclet$??0slink@@QAE@PAVQWidget@@@Z$12 0042775b f   slink.obj
 0001:00026767       __unwindfunclet$??0slink@@QAE@PAVQWidget@@@Z$22 00427767 f   slink.obj
 0001:00026772       __unwindfunclet$??0slink@@QAE@PAVQWidget@@@Z$23 00427772 f   slink.obj
 0001:0002677e       __unwindfunclet$??0slink@@QAE@PAVQWidget@@@Z$24 0042777e f   slink.obj
 0001:0002678a       __unwindfunclet$??0slink@@QAE@PAVQWidget@@@Z$25 0042778a f   slink.obj
 0001:00026796       __unwindfunclet$??0slink@@QAE@PAVQWidget@@@Z$26 00427796 f   slink.obj
 0001:000267a2       __unwindfunclet$??0slink@@QAE@PAVQWidget@@@Z$27 004277a2 f   slink.obj
 0001:000267c5       __unwindfunclet$??0slink@@QAE@PAVQWidget@@@Z$28 004277c5 f   slink.obj
 0001:000267e8       __unwindfunclet$??0slink@@QAE@PAVQWidget@@@Z$29 004277e8 f   slink.obj
 0001:000267f4       __unwindfunclet$??0slink@@QAE@PAVQWidget@@@Z$30 004277f4 f   slink.obj
 0001:00026800       __unwindfunclet$??0slink@@QAE@PAVQWidget@@@Z$31 00427800 f   slink.obj
 0001:0002680c       __unwindfunclet$??0slink@@QAE@PAVQWidget@@@Z$33 0042780c f   slink.obj
 0001:00026818       __unwindfunclet$??0slink@@QAE@PAVQWidget@@@Z$34 00427818 f   slink.obj
 0001:00026824       __unwindfunclet$??0slink@@QAE@PAVQWidget@@@Z$35 00427824 f   slink.obj
 0001:00026830       __unwindfunclet$??0slink@@QAE@PAVQWidget@@@Z$36 00427830 f   slink.obj
 0001:0002683c       __unwindfunclet$??0slink@@QAE@PAVQWidget@@@Z$37 0042783c f   slink.obj
 0001:00026847       __unwindfunclet$??0slink@@QAE@PAVQWidget@@@Z$38 00427847 f   slink.obj
 0001:00026853       __unwindfunclet$??0slink@@QAE@PAVQWidget@@@Z$39 00427853 f   slink.obj
 0001:0002685f       __unwindfunclet$??0slink@@QAE@PAVQWidget@@@Z$40 0042785f f   slink.obj
 0001:0002686b       __unwindfunclet$??0slink@@QAE@PAVQWidget@@@Z$41 0042786b f   slink.obj
 0001:00026877       __unwindfunclet$??0slink@@QAE@PAVQWidget@@@Z$42 00427877 f   slink.obj
 0001:00026883       __unwindfunclet$??0slink@@QAE@PAVQWidget@@@Z$43 00427883 f   slink.obj
 0001:0002688e       __unwindfunclet$??0slink@@QAE@PAVQWidget@@@Z$44 0042788e f   slink.obj
 0001:0002689a       __unwindfunclet$??0slink@@QAE@PAVQWidget@@@Z$45 0042789a f   slink.obj
 0001:000268a5       __unwindfunclet$??0slink@@QAE@PAVQWidget@@@Z$46 004278a5 f   slink.obj
 0001:000268b0       __unwindfunclet$??0slink@@QAE@PAVQWidget@@@Z$47 004278b0 f   slink.obj
 0001:000268bb       __unwindfunclet$??0slink@@QAE@PAVQWidget@@@Z$48 004278bb f   slink.obj
 0001:000268c6       __unwindfunclet$??0slink@@QAE@PAVQWidget@@@Z$49 004278c6 f   slink.obj
 0001:000268d1       __unwindfunclet$??0slink@@QAE@PAVQWidget@@@Z$50 004278d1 f   slink.obj
 0001:000268df       __unwindfunclet$??0slink@@QAE@PAVQWidget@@@Z$51 004278df f   slink.obj
 0001:00026901       __unwindfunclet$??0slink@@QAE@PAVQWidget@@@Z$52 00427901 f   slink.obj
 0001:0002690d       __unwindfunclet$??0slink@@QAE@PAVQWidget@@@Z$53 0042790d f   slink.obj
 0001:00026919       __unwindfunclet$??0slink@@QAE@PAVQWidget@@@Z$54 00427919 f   slink.obj
 0001:00026924       __unwindfunclet$??0slink@@QAE@PAVQWidget@@@Z$55 00427924 f   slink.obj
 0001:0002692f       __unwindfunclet$??0slink@@QAE@PAVQWidget@@@Z$56 0042792f f   slink.obj
 0001:0002693a       __unwindfunclet$??0slink@@QAE@PAVQWidget@@@Z$57 0042793a f   slink.obj
 0001:00026946       __unwindfunclet$??0slink@@QAE@PAVQWidget@@@Z$59 00427946 f   slink.obj
 0001:00026951       __unwindfunclet$??0slink@@QAE@PAVQWidget@@@Z$60 00427951 f   slink.obj
 0001:0002695c       __unwindfunclet$??0slink@@QAE@PAVQWidget@@@Z$61 0042795c f   slink.obj
 0001:00026967       __unwindfunclet$??0slink@@QAE@PAVQWidget@@@Z$62 00427967 f   slink.obj
 0001:00026972       __unwindfunclet$??0slink@@QAE@PAVQWidget@@@Z$63 00427972 f   slink.obj
 0001:0002697d       __unwindfunclet$??0slink@@QAE@PAVQWidget@@@Z$64 0042797d f   slink.obj
 0001:00026988       __unwindfunclet$??0slink@@QAE@PAVQWidget@@@Z$65 00427988 f   slink.obj
 0001:00026994       __unwindfunclet$??0slink@@QAE@PAVQWidget@@@Z$66 00427994 f   slink.obj
 0001:000269a0       __unwindfunclet$??0slink@@QAE@PAVQWidget@@@Z$67 004279a0 f   slink.obj
 0001:000269ab       __unwindfunclet$??0slink@@QAE@PAVQWidget@@@Z$68 004279ab f   slink.obj
 0001:000269b6       __unwindfunclet$??0slink@@QAE@PAVQWidget@@@Z$69 004279b6 f   slink.obj
 0001:000269c2       __unwindfunclet$??0slink@@QAE@PAVQWidget@@@Z$70 004279c2 f   slink.obj
 0001:000269ce       __unwindfunclet$??0slink@@QAE@PAVQWidget@@@Z$71 004279ce f   slink.obj
 0001:000269da       __unwindfunclet$??0slink@@QAE@PAVQWidget@@@Z$72 004279da f   slink.obj
 0001:000269e6       __unwindfunclet$??0slink@@QAE@PAVQWidget@@@Z$73 004279e6 f   slink.obj
 0001:000269f2       __unwindfunclet$??0slink@@QAE@PAVQWidget@@@Z$74 004279f2 f   slink.obj
 0001:000269fe       __ehhandler$??0slink@@QAE@PAVQWidget@@@Z 004279fe f   slink.obj
 0001:00026a30       __unwindfunclet$??1slink@@UAE@XZ$0 00427a30 f   slink.obj
 0001:00026a39       __unwindfunclet$??1slink@@UAE@XZ$1 00427a39 f   slink.obj
 0001:00026a44       __unwindfunclet$??1slink@@UAE@XZ$2 00427a44 f   slink.obj
 0001:00026a52       __unwindfunclet$??1slink@@UAE@XZ$3 00427a52 f   slink.obj
 0001:00026a61       __unwindfunclet$??1slink@@UAE@XZ$4 00427a61 f   slink.obj
 0001:00026a6f       __unwindfunclet$??1slink@@UAE@XZ$5 00427a6f f   slink.obj
 0001:00026a7d       __unwindfunclet$??1slink@@UAE@XZ$6 00427a7d f   slink.obj
 0001:00026a8c       __unwindfunclet$??1slink@@UAE@XZ$7 00427a8c f   slink.obj
 0001:00026a9a       __unwindfunclet$??1slink@@UAE@XZ$8 00427a9a f   slink.obj
 0001:00026aa8       __unwindfunclet$??1slink@@UAE@XZ$9 00427aa8 f   slink.obj
 0001:00026ab6       __unwindfunclet$??1slink@@UAE@XZ$10 00427ab6 f   slink.obj
 0001:00026abf       __ehhandler$??1slink@@UAE@XZ 00427abf f   slink.obj
 0001:00026ae0       __unwindfunclet$?about@slink@@AAEXXZ$0 00427ae0 f   slink.obj
 0001:00026aec       __unwindfunclet$?about@slink@@AAEXXZ$1 00427aec f   slink.obj
 0001:00026af7       __unwindfunclet$?about@slink@@AAEXXZ$2 00427af7 f   slink.obj
 0001:00026b03       __unwindfunclet$?about@slink@@AAEXXZ$3 00427b03 f   slink.obj
 0001:00026b0f       __unwindfunclet$?about@slink@@AAEXXZ$4 00427b0f f   slink.obj
 0001:00026b1b       __unwindfunclet$?about@slink@@AAEXXZ$5 00427b1b f   slink.obj
 0001:00026b27       __unwindfunclet$?about@slink@@AAEXXZ$6 00427b27 f   slink.obj
 0001:00026b33       __unwindfunclet$?about@slink@@AAEXXZ$7 00427b33 f   slink.obj
 0001:00026b3f       __unwindfunclet$?about@slink@@AAEXXZ$8 00427b3f f   slink.obj
 0001:00026b4b       __unwindfunclet$?about@slink@@AAEXXZ$9 00427b4b f   slink.obj
 0001:00026b57       __unwindfunclet$?about@slink@@AAEXXZ$10 00427b57 f   slink.obj
 0001:00026b63       __ehhandler$?about@slink@@AAEXXZ 00427b63 f   slink.obj
 0001:00026b90       __unwindfunclet$?addServer@slink@@AAE_NABVQHostAddress@@I_N@Z$0 00427b90 f   slink.obj
 0001:00026b9b       __unwindfunclet$?addServer@slink@@AAE_NABVQHostAddress@@I_N@Z$1 00427b9b f   slink.obj
 0001:00026ba4       __unwindfunclet$?addServer@slink@@AAE_NABVQHostAddress@@I_N@Z$2 00427ba4 f   slink.obj
 0001:00026bad       __unwindfunclet$?addServer@slink@@AAE_NABVQHostAddress@@I_N@Z$3 00427bad f   slink.obj
 0001:00026bb6       __unwindfunclet$?addServer@slink@@AAE_NABVQHostAddress@@I_N@Z$4 00427bb6 f   slink.obj
 0001:00026bbf       __unwindfunclet$?addServer@slink@@AAE_NABVQHostAddress@@I_N@Z$5 00427bbf f   slink.obj
 0001:00026bc8       __ehhandler$?addServer@slink@@AAE_NABVQHostAddress@@I_N@Z 00427bc8 f   slink.obj
 0001:00026bf0       __unwindfunclet$?append@?$QList@VQSslCipher@@@@QAEXABVQSslCipher@@@Z$7 00427bf0 f   slink.obj
 0001:00026c01       __unwindfunclet$?append@?$QList@VQSslCipher@@@@QAEXABVQSslCipher@@@Z$11 00427c01 f   slink.obj
 0001:00026c12       __ehhandler$?append@?$QList@VQSslCipher@@@@QAEXABVQSslCipher@@@Z 00427c12 f   slink.obj
 0001:00026c30       __unwindfunclet$?cccDatabaseChange@slink@@EAEXHHH@Z$0 00427c30 f   slink.obj
 0001:00026c38       __unwindfunclet$?cccDatabaseChange@slink@@EAEXHHH@Z$1 00427c38 f   slink.obj
 0001:00026c41       __ehhandler$?cccDatabaseChange@slink@@EAEXHHH@Z 00427c41 f   slink.obj
 0001:00026c70       __unwindfunclet$?cccInfoRevertive@slink@@EAEXHHABV?$basic_string@DU?$char_traits@D@std@@V?$allocator@D@2@@std@@@Z$0 00427c70 f   slink.obj
 0001:00026c79       __unwindfunclet$?cccInfoRevertive@slink@@EAEXHHABV?$basic_string@DU?$char_traits@D@std@@V?$allocator@D@2@@std@@@Z$1 00427c79 f   slink.obj
 0001:00026c82       __unwindfunclet$?cccInfoRevertive@slink@@EAEXHHABV?$basic_string@DU?$char_traits@D@std@@V?$allocator@D@2@@std@@@Z$2 00427c82 f   slink.obj
 0001:00026c8b       __unwindfunclet$?cccInfoRevertive@slink@@EAEXHHABV?$basic_string@DU?$char_traits@D@std@@V?$allocator@D@2@@std@@@Z$3 00427c8b f   slink.obj
 0001:00026c94       __unwindfunclet$?cccInfoRevertive@slink@@EAEXHHABV?$basic_string@DU?$char_traits@D@std@@V?$allocator@D@2@@std@@@Z$4 00427c94 f   slink.obj
 0001:00026c9d       __ehhandler$?cccInfoRevertive@slink@@EAEXHHABV?$basic_string@DU?$char_traits@D@std@@V?$allocator@D@2@@std@@@Z 00427c9d f   slink.obj
 0001:00026cc0       __unwindfunclet$?cccRtrRevertive@slink@@EAEXHHH@Z$0 00427cc0 f   slink.obj
 0001:00026cc0       __unwindfunclet$?cccGpiRevertive@slink@@EAEXHH_N@Z$0 00427cc0 f   slink.obj
 0001:00026cc9       __unwindfunclet$?cccGpiRevertive@slink@@EAEXHH_N@Z$1 00427cc9 f   slink.obj
 0001:00026cc9       __unwindfunclet$?cccRtrRevertive@slink@@EAEXHHH@Z$1 00427cc9 f   slink.obj
 0001:00026cd2       __unwindfunclet$?cccRtrRevertive@slink@@EAEXHHH@Z$2 00427cd2 f   slink.obj
 0001:00026cd2       __unwindfunclet$?cccGpiRevertive@slink@@EAEXHH_N@Z$2 00427cd2 f   slink.obj
 0001:00026cdb       __unwindfunclet$?cccRtrRevertive@slink@@EAEXHHH@Z$3 00427cdb f   slink.obj
 0001:00026cdb       __unwindfunclet$?cccGpiRevertive@slink@@EAEXHH_N@Z$3 00427cdb f   slink.obj
 0001:00026ce4       __ehhandler$?cccGpiRevertive@slink@@EAEXHH_N@Z 00427ce4 f   slink.obj
 0001:00026ce4       __ehhandler$?cccRtrRevertive@slink@@EAEXHHH@Z 00427ce4 f   slink.obj
 0001:00026d00       __unwindfunclet$?checksumDatabase@slink@@EAEXPAVfabian_client@@IIII@Z$5 00427d00 f   slink.obj
 0001:00026d09       __unwindfunclet$?checksumDatabase@slink@@EAEXPAVfabian_client@@IIII@Z$6 00427d09 f   slink.obj
 0001:00026d11       __unwindfunclet$?checksumDatabase@slink@@EAEXPAVfabian_client@@IIII@Z$7 00427d11 f   slink.obj
 0001:00026d1a       __unwindfunclet$?checksumDatabase@slink@@EAEXPAVfabian_client@@IIII@Z$8 00427d1a f   slink.obj
 0001:00026d23       __unwindfunclet$?checksumDatabase@slink@@EAEXPAVfabian_client@@IIII@Z$9 00427d23 f   slink.obj
 0001:00026d2c       __unwindfunclet$?checksumDatabase@slink@@EAEXPAVfabian_client@@IIII@Z$10 00427d2c f   slink.obj
 0001:00026d35       __unwindfunclet$?checksumDatabase@slink@@EAEXPAVfabian_client@@IIII@Z$11 00427d35 f   slink.obj
 0001:00026d3e       __unwindfunclet$?checksumDatabase@slink@@EAEXPAVfabian_client@@IIII@Z$12 00427d3e f   slink.obj
 0001:00026d47       __unwindfunclet$?checksumDatabase@slink@@EAEXPAVfabian_client@@IIII@Z$13 00427d47 f   slink.obj
 0001:00026d50       __unwindfunclet$?checksumDatabase@slink@@EAEXPAVfabian_client@@IIII@Z$14 00427d50 f   slink.obj
 0001:00026d59       __unwindfunclet$?checksumDatabase@slink@@EAEXPAVfabian_client@@IIII@Z$15 00427d59 f   slink.obj
 0001:00026d62       __unwindfunclet$?checksumDatabase@slink@@EAEXPAVfabian_client@@IIII@Z$0 00427d62 f   slink.obj
 0001:00026d6b       __unwindfunclet$?checksumDatabase@slink@@EAEXPAVfabian_client@@IIII@Z$1 00427d6b f   slink.obj
 0001:00026d74       __unwindfunclet$?checksumDatabase@slink@@EAEXPAVfabian_client@@IIII@Z$2 00427d74 f   slink.obj
 0001:00026d7d       __unwindfunclet$?checksumDatabase@slink@@EAEXPAVfabian_client@@IIII@Z$3 00427d7d f   slink.obj
 0001:00026d86       __unwindfunclet$?checksumDatabase@slink@@EAEXPAVfabian_client@@IIII@Z$4 00427d86 f   slink.obj
 0001:00026d8f       __ehhandler$?checksumDatabase@slink@@EAEXPAVfabian_client@@IIII@Z 00427d8f f   slink.obj
 0001:00026dc0       __unwindfunclet$?connectedUser@slink@@EAEXPAVfabian_client@@ABVQString@@11I@Z$0 00427dc0 f   slink.obj
 0001:00026dc9       __unwindfunclet$?connectedUser@slink@@EAEXPAVfabian_client@@ABVQString@@11I@Z$1 00427dc9 f   slink.obj
 0001:00026dd2       __unwindfunclet$?connectedUser@slink@@EAEXPAVfabian_client@@ABVQString@@11I@Z$2 00427dd2 f   slink.obj
 0001:00026ddb       __ehhandler$?connectedUser@slink@@EAEXPAVfabian_client@@ABVQString@@11I@Z 00427ddb f   slink.obj
 0001:00026e00       __unwindfunclet$?data@slink@@EAEXPAVfabian_client@@ABVQString@@@Z$0 00427e00 f   slink.obj
 0001:00026e09       __ehhandler$?data@slink@@EAEXPAVfabian_client@@ABVQString@@@Z 00427e09 f   slink.obj
 0001:00026e30       __unwindfunclet$?databaseModify@slink@@EAEXPAVfabian_client@@IIIABVQString@@@Z$0 00427e30 f   slink.obj
 0001:00026e38       __ehhandler$?databaseModify@slink@@EAEXPAVfabian_client@@IIIABVQString@@@Z 00427e38 f   slink.obj
 0001:00026e60       __ehhandler$?detach_helper@?$QList@VQSslCipher@@@@AAEXH@Z 00427e60 f   slink.obj
 0001:00026e80       __ehhandler$?detach_helper_grow@?$QList@VQSslCipher@@@@AAEPAUNode@1@HH@Z 00427e80 f   slink.obj
 0001:00026ea0       __unwindfunclet$?disconnected@slink@@EAEXPAVfabian_client@@@Z$0 00427ea0 f   slink.obj
 0001:00026ea0       __unwindfunclet$?connected@slink@@EAEXPAVfabian_client@@ABVQHostAddress@@G@Z$0 00427ea0 f   slink.obj
 0001:00026ea9       __ehhandler$?connected@slink@@EAEXPAVfabian_client@@ABVQHostAddress@@G@Z 00427ea9 f   slink.obj
 0001:00026ea9       __ehhandler$?disconnected@slink@@EAEXPAVfabian_client@@@Z 00427ea9 f   slink.obj
 0001:00026ed0       __unwindfunclet$?distributeDatabaseModify@slink@@AAEXPAVfabian_client@@IIIABVQString@@@Z$0 00427ed0 f   slink.obj
 0001:00026ed9       __unwindfunclet$?distributeDatabaseModify@slink@@AAEXPAVfabian_client@@IIIABVQString@@@Z$1 00427ed9 f   slink.obj
 0001:00026ee2       __unwindfunclet$?distributeDatabaseModify@slink@@AAEXPAVfabian_client@@IIIABVQString@@@Z$2 00427ee2 f   slink.obj
 0001:00026eeb       __unwindfunclet$?distributeDatabaseModify@slink@@AAEXPAVfabian_client@@IIIABVQString@@@Z$3 00427eeb f   slink.obj
 0001:00026ef4       __unwindfunclet$?distributeDatabaseModify@slink@@AAEXPAVfabian_client@@IIIABVQString@@@Z$4 00427ef4 f   slink.obj
 0001:00026efd       __unwindfunclet$?distributeDatabaseModify@slink@@AAEXPAVfabian_client@@IIIABVQString@@@Z$5 00427efd f   slink.obj
 0001:00026f05       __unwindfunclet$?distributeDatabaseModify@slink@@AAEXPAVfabian_client@@IIIABVQString@@@Z$6 00427f05 f   slink.obj
 0001:00026f0e       __ehhandler$?distributeDatabaseModify@slink@@AAEXPAVfabian_client@@IIIABVQString@@@Z 00427f0e f   slink.obj
 0001:00026f30       __unwindfunclet$?distributeRevertive@slink@@AAEXHHABVQString@@@Z$0 00427f30 f   slink.obj
 0001:00026f38       __ehhandler$?distributeRevertive@slink@@AAEXHHABVQString@@@Z 00427f38 f   slink.obj
 0001:00026f60       __unwindfunclet$?doHelp@slink@@AAEXXZ$0 00427f60 f   slink.obj
 0001:00026f6c       __unwindfunclet$?doHelp@slink@@AAEXXZ$1 00427f6c f   slink.obj
 0001:00026f78       __unwindfunclet$?doHelp@slink@@AAEXXZ$2 00427f78 f   slink.obj
 0001:00026f84       __unwindfunclet$?doHelp@slink@@AAEXXZ$3 00427f84 f   slink.obj
 0001:00026f90       __unwindfunclet$?doHelp@slink@@AAEXXZ$4 00427f90 f   slink.obj
 0001:00026f9c       __unwindfunclet$?doHelp@slink@@AAEXXZ$5 00427f9c f   slink.obj
 0001:00026fa8       __ehhandler$?doHelp@slink@@AAEXXZ 00427fa8 f   slink.obj
 0001:00026fd0       __unwindfunclet$?doPoll@slink@@AAEXPAVfabian_client@@DIII@Z$0 00427fd0 f   slink.obj
 0001:00026fd9       __unwindfunclet$?doPoll@slink@@AAEXPAVfabian_client@@DIII@Z$1 00427fd9 f   slink.obj
 0001:00026fe2       __unwindfunclet$?doPoll@slink@@AAEXPAVfabian_client@@DIII@Z$2 00427fe2 f   slink.obj
 0001:00026feb       __unwindfunclet$?doPoll@slink@@AAEXPAVfabian_client@@DIII@Z$3 00427feb f   slink.obj
 0001:00026ff4       __unwindfunclet$?doPoll@slink@@AAEXPAVfabian_client@@DIII@Z$4 00427ff4 f   slink.obj
 0001:00026ffd       __unwindfunclet$?doPoll@slink@@AAEXPAVfabian_client@@DIII@Z$10 00427ffd f   slink.obj
 0001:00027005       __unwindfunclet$?doPoll@slink@@AAEXPAVfabian_client@@DIII@Z$11 00428005 f   slink.obj
 0001:0002700e       __unwindfunclet$?doPoll@slink@@AAEXPAVfabian_client@@DIII@Z$12 0042800e f   slink.obj
 0001:00027017       __unwindfunclet$?doPoll@slink@@AAEXPAVfabian_client@@DIII@Z$13 00428017 f   slink.obj
 0001:00027020       __unwindfunclet$?doPoll@slink@@AAEXPAVfabian_client@@DIII@Z$14 00428020 f   slink.obj
 0001:00027029       __unwindfunclet$?doPoll@slink@@AAEXPAVfabian_client@@DIII@Z$15 00428029 f   slink.obj
 0001:00027035       __unwindfunclet$?doPoll@slink@@AAEXPAVfabian_client@@DIII@Z$16 00428035 f   slink.obj
 0001:0002703e       __unwindfunclet$?doPoll@slink@@AAEXPAVfabian_client@@DIII@Z$17 0042803e f   slink.obj
 0001:00027047       __unwindfunclet$?doPoll@slink@@AAEXPAVfabian_client@@DIII@Z$23 00428047 f   slink.obj
 0001:0002704f       __unwindfunclet$?doPoll@slink@@AAEXPAVfabian_client@@DIII@Z$24 0042804f f   slink.obj
 0001:00027058       __unwindfunclet$?doPoll@slink@@AAEXPAVfabian_client@@DIII@Z$25 00428058 f   slink.obj
 0001:00027061       __unwindfunclet$?doPoll@slink@@AAEXPAVfabian_client@@DIII@Z$26 00428061 f   slink.obj
 0001:0002706d       __unwindfunclet$?doPoll@slink@@AAEXPAVfabian_client@@DIII@Z$27 0042806d f   slink.obj
 0001:00027079       __unwindfunclet$?doPoll@slink@@AAEXPAVfabian_client@@DIII@Z$33 00428079 f   slink.obj
 0001:00027082       __unwindfunclet$?doPoll@slink@@AAEXPAVfabian_client@@DIII@Z$34 00428082 f   slink.obj
 0001:0002708b       __unwindfunclet$?doPoll@slink@@AAEXPAVfabian_client@@DIII@Z$35 0042808b f   slink.obj
 0001:00027097       __unwindfunclet$?doPoll@slink@@AAEXPAVfabian_client@@DIII@Z$36 00428097 f   slink.obj
 0001:000270a3       __unwindfunclet$?doPoll@slink@@AAEXPAVfabian_client@@DIII@Z$29 004280a3 f   slink.obj
 0001:000270ac       __unwindfunclet$?doPoll@slink@@AAEXPAVfabian_client@@DIII@Z$30 004280ac f   slink.obj
 0001:000270b8       __unwindfunclet$?doPoll@slink@@AAEXPAVfabian_client@@DIII@Z$31 004280b8 f   slink.obj
 0001:000270c4       __unwindfunclet$?doPoll@slink@@AAEXPAVfabian_client@@DIII@Z$38 004280c4 f   slink.obj
 0001:000270cd       __unwindfunclet$?doPoll@slink@@AAEXPAVfabian_client@@DIII@Z$39 004280cd f   slink.obj
 0001:000270db       __unwindfunclet$?doPoll@slink@@AAEXPAVfabian_client@@DIII@Z$40 004280db f   slink.obj
 0001:000270f5       __unwindfunclet$?doPoll@slink@@AAEXPAVfabian_client@@DIII@Z$41 004280f5 f   slink.obj
 0001:00027112       __unwindfunclet$?doPoll@slink@@AAEXPAVfabian_client@@DIII@Z$42 00428112 f   slink.obj
 0001:0002712f       __unwindfunclet$?doPoll@slink@@AAEXPAVfabian_client@@DIII@Z$43 0042812f f   slink.obj
 0001:0002714c       __unwindfunclet$?doPoll@slink@@AAEXPAVfabian_client@@DIII@Z$44 0042814c f   slink.obj
 0001:00027169       __unwindfunclet$?doPoll@slink@@AAEXPAVfabian_client@@DIII@Z$18 00428169 f   slink.obj
 0001:00027172       __unwindfunclet$?doPoll@slink@@AAEXPAVfabian_client@@DIII@Z$19 00428172 f   slink.obj
 0001:0002717e       __unwindfunclet$?doPoll@slink@@AAEXPAVfabian_client@@DIII@Z$20 0042817e f   slink.obj
 0001:0002718a       __unwindfunclet$?doPoll@slink@@AAEXPAVfabian_client@@DIII@Z$21 0042818a f   slink.obj
 0001:00027196       __unwindfunclet$?doPoll@slink@@AAEXPAVfabian_client@@DIII@Z$22 00428196 f   slink.obj
 0001:0002719f       __unwindfunclet$?doPoll@slink@@AAEXPAVfabian_client@@DIII@Z$5 0042819f f   slink.obj
 0001:000271a8       __unwindfunclet$?doPoll@slink@@AAEXPAVfabian_client@@DIII@Z$6 004281a8 f   slink.obj
 0001:000271b4       __unwindfunclet$?doPoll@slink@@AAEXPAVfabian_client@@DIII@Z$7 004281b4 f   slink.obj
 0001:000271c0       __unwindfunclet$?doPoll@slink@@AAEXPAVfabian_client@@DIII@Z$8 004281c0 f   slink.obj
 0001:000271cc       __unwindfunclet$?doPoll@slink@@AAEXPAVfabian_client@@DIII@Z$9 004281cc f   slink.obj
 0001:000271d5       __ehhandler$?doPoll@slink@@AAEXPAVfabian_client@@DIII@Z 004281d5 f   slink.obj
 0001:00027200       __unwindfunclet$?doServerConfig@slink@@AAEXXZ$0 00428200 f   slink.obj
 0001:00027209       __unwindfunclet$?doServerConfig@slink@@AAEXXZ$1 00428209 f   slink.obj
 0001:00027212       __unwindfunclet$?doServerConfig@slink@@AAEXXZ$2 00428212 f   slink.obj
 0001:0002721a       __unwindfunclet$?doServerConfig@slink@@AAEXXZ$3 0042821a f   slink.obj
 0001:00027222       __unwindfunclet$?doServerConfig@slink@@AAEXXZ$4 00428222 f   slink.obj
 0001:0002722b       __unwindfunclet$?doServerConfig@slink@@AAEXXZ$5 0042822b f   slink.obj
 0001:00027234       __ehhandler$?doServerConfig@slink@@AAEXXZ 00428234 f   slink.obj
 0001:00027260       __unwindfunclet$?doUserEdit@slink@@AAEXXZ$0 00428260 f   slink.obj
 0001:00027268       __ehhandler$?doUserEdit@slink@@AAEXXZ 00428268 f   slink.obj
 0001:00027290       __unwindfunclet$?doWhiteBlackListEdit@slink@@AAEXXZ$0 00428290 f   slink.obj
 0001:00027298       __ehhandler$?doWhiteBlackListEdit@slink@@AAEXXZ 00428298 f   slink.obj
 0001:000272c0       __unwindfunclet$?dumpServerList@slink@@AAEXXZ$0 004282c0 f   slink.obj
 0001:000272c9       __unwindfunclet$?dumpServerList@slink@@AAEXXZ$1 004282c9 f   slink.obj
 0001:000272d2       __unwindfunclet$?dumpServerList@slink@@AAEXXZ$2 004282d2 f   slink.obj
 0001:000272db       __ehhandler$?dumpServerList@slink@@AAEXXZ 004282db f   slink.obj
 0001:00027300       __unwindfunclet$?getDevProps@slink@@EAEXPAVfabian_client@@I@Z$0 00428300 f   slink.obj
 0001:00027309       __unwindfunclet$?getDevProps@slink@@EAEXPAVfabian_client@@I@Z$1 00428309 f   slink.obj
 0001:00027312       __unwindfunclet$?getDevProps@slink@@EAEXPAVfabian_client@@I@Z$2 00428312 f   slink.obj
 0001:0002731a       __unwindfunclet$?getDevProps@slink@@EAEXPAVfabian_client@@I@Z$3 0042831a f   slink.obj
 0001:00027323       __unwindfunclet$?getDevProps@slink@@EAEXPAVfabian_client@@I@Z$4 00428323 f   slink.obj
 0001:0002732c       __unwindfunclet$?getDevProps@slink@@EAEXPAVfabian_client@@I@Z$5 0042832c f   slink.obj
 0001:00027335       __unwindfunclet$?getDevProps@slink@@EAEXPAVfabian_client@@I@Z$6 00428335 f   slink.obj
 0001:0002733e       __unwindfunclet$?getDevProps@slink@@EAEXPAVfabian_client@@I@Z$7 0042833e f   slink.obj
 0001:00027347       __unwindfunclet$?getDevProps@slink@@EAEXPAVfabian_client@@I@Z$8 00428347 f   slink.obj
 0001:00027350       __unwindfunclet$?getDevProps@slink@@EAEXPAVfabian_client@@I@Z$9 00428350 f   slink.obj
 0001:00027359       __unwindfunclet$?getDevProps@slink@@EAEXPAVfabian_client@@I@Z$10 00428359 f   slink.obj
 0001:00027362       __unwindfunclet$?getDevProps@slink@@EAEXPAVfabian_client@@I@Z$11 00428362 f   slink.obj
 0001:0002736b       __unwindfunclet$?getDevProps@slink@@EAEXPAVfabian_client@@I@Z$12 0042836b f   slink.obj
 0001:00027374       __ehhandler$?getDevProps@slink@@EAEXPAVfabian_client@@I@Z 00428374 f   slink.obj
 0001:000273a0       __unwindfunclet$?infoRegister@slink@@EAEXPAVfabian_client@@III@Z$4 004283a0 f   slink.obj
 0001:000273a9       __unwindfunclet$?infoRegister@slink@@EAEXPAVfabian_client@@III@Z$5 004283a9 f   slink.obj
 0001:000273b1       __unwindfunclet$?infoRegister@slink@@EAEXPAVfabian_client@@III@Z$6 004283b1 f   slink.obj
 0001:000273b9       __unwindfunclet$?infoRegister@slink@@EAEXPAVfabian_client@@III@Z$7 004283b9 f   slink.obj
 0001:000273c2       __unwindfunclet$?infoRegister@slink@@EAEXPAVfabian_client@@III@Z$8 004283c2 f   slink.obj
 0001:000273cb       __unwindfunclet$?infoRegister@slink@@EAEXPAVfabian_client@@III@Z$9 004283cb f   slink.obj
 0001:000273d4       __unwindfunclet$?infoRegister@slink@@EAEXPAVfabian_client@@III@Z$10 004283d4 f   slink.obj
 0001:000273dd       __unwindfunclet$?infoRegister@slink@@EAEXPAVfabian_client@@III@Z$11 004283dd f   slink.obj
 0001:000273e6       __unwindfunclet$?infoRegister@slink@@EAEXPAVfabian_client@@III@Z$12 004283e6 f   slink.obj
 0001:000273ef       __unwindfunclet$?infoRegister@slink@@EAEXPAVfabian_client@@III@Z$13 004283ef f   slink.obj
 0001:000273f8       __unwindfunclet$?infoRegister@slink@@EAEXPAVfabian_client@@III@Z$0 004283f8 f   slink.obj
 0001:00027401       __unwindfunclet$?infoRegister@slink@@EAEXPAVfabian_client@@III@Z$1 00428401 f   slink.obj
 0001:0002740a       __unwindfunclet$?infoRegister@slink@@EAEXPAVfabian_client@@III@Z$2 0042840a f   slink.obj
 0001:00027413       __unwindfunclet$?infoRegister@slink@@EAEXPAVfabian_client@@III@Z$3 00428413 f   slink.obj
 0001:0002741c       __ehhandler$?infoRegister@slink@@EAEXPAVfabian_client@@III@Z 0042841c f   slink.obj
 0001:00027450       __unwindfunclet$?listClientContextMenu@slink@@AAEXABVQPoint@@@Z$0 00428450 f   slink.obj
 0001:00027459       __unwindfunclet$?listClientContextMenu@slink@@AAEXABVQPoint@@@Z$1 00428459 f   slink.obj
 0001:00027462       __ehhandler$?listClientContextMenu@slink@@AAEXABVQPoint@@@Z 00428462 f   slink.obj
 0001:00027480       __unwindfunclet$?listRouter@slink@@EAEXPAVfabian_client@@IIII@Z$5 00428480 f   slink.obj
 0001:00027488       __unwindfunclet$?listRouter@slink@@EAEXPAVfabian_client@@IIII@Z$6 00428488 f   slink.obj
 0001:00027491       __unwindfunclet$?listRouter@slink@@EAEXPAVfabian_client@@IIII@Z$7 00428491 f   slink.obj
 0001:0002749a       __unwindfunclet$?listRouter@slink@@EAEXPAVfabian_client@@IIII@Z$8 0042849a f   slink.obj
 0001:000274a3       __unwindfunclet$?listRouter@slink@@EAEXPAVfabian_client@@IIII@Z$9 004284a3 f   slink.obj
 0001:000274ac       __unwindfunclet$?listRouter@slink@@EAEXPAVfabian_client@@IIII@Z$10 004284ac f   slink.obj
 0001:000274b5       __unwindfunclet$?listRouter@slink@@EAEXPAVfabian_client@@IIII@Z$11 004284b5 f   slink.obj
 0001:000274be       __unwindfunclet$?listRouter@slink@@EAEXPAVfabian_client@@IIII@Z$0 004284be f   slink.obj
 0001:000274c7       __unwindfunclet$?listRouter@slink@@EAEXPAVfabian_client@@IIII@Z$1 004284c7 f   slink.obj
 0001:000274d0       __unwindfunclet$?listRouter@slink@@EAEXPAVfabian_client@@IIII@Z$2 004284d0 f   slink.obj
 0001:000274d9       __unwindfunclet$?listRouter@slink@@EAEXPAVfabian_client@@IIII@Z$3 004284d9 f   slink.obj
 0001:000274e2       __unwindfunclet$?listRouter@slink@@EAEXPAVfabian_client@@IIII@Z$4 004284e2 f   slink.obj
 0001:000274eb       __ehhandler$?listRouter@slink@@EAEXPAVfabian_client@@IIII@Z 004284eb f   slink.obj
 0001:00027510       __unwindfunclet$?loadWhiteList@slink@@AAEXXZ$0 00428510 f   slink.obj
 0001:00027510       __unwindfunclet$?loadBlackList@slink@@AAEXXZ$0 00428510 f   slink.obj
 0001:00027518       __unwindfunclet$?loadWhiteList@slink@@AAEXXZ$1 00428518 f   slink.obj
 0001:00027518       __unwindfunclet$?loadBlackList@slink@@AAEXXZ$1 00428518 f   slink.obj
 0001:00027524       __unwindfunclet$?loadBlackList@slink@@AAEXXZ$2 00428524 f   slink.obj
 0001:00027524       __unwindfunclet$?loadWhiteList@slink@@AAEXXZ$2 00428524 f   slink.obj
 0001:0002752c       __unwindfunclet$?loadWhiteList@slink@@AAEXXZ$3 0042852c f   slink.obj
 0001:0002752c       __unwindfunclet$?loadBlackList@slink@@AAEXXZ$3 0042852c f   slink.obj
 0001:00027537       __unwindfunclet$?loadWhiteList@slink@@AAEXXZ$4 00428537 f   slink.obj
 0001:00027537       __unwindfunclet$?loadBlackList@slink@@AAEXXZ$4 00428537 f   slink.obj
 0001:0002753f       __unwindfunclet$?loadWhiteList@slink@@AAEXXZ$5 0042853f f   slink.obj
 0001:0002753f       __unwindfunclet$?loadBlackList@slink@@AAEXXZ$5 0042853f f   slink.obj
 0001:00027547       __unwindfunclet$?loadBlackList@slink@@AAEXXZ$6 00428547 f   slink.obj
 0001:00027547       __unwindfunclet$?loadWhiteList@slink@@AAEXXZ$6 00428547 f   slink.obj
 0001:00027553       __unwindfunclet$?loadBlackList@slink@@AAEXXZ$7 00428553 f   slink.obj
 0001:00027553       __unwindfunclet$?loadWhiteList@slink@@AAEXXZ$7 00428553 f   slink.obj
 0001:0002755f       __unwindfunclet$?loadBlackList@slink@@AAEXXZ$8 0042855f f   slink.obj
 0001:0002755f       __unwindfunclet$?loadWhiteList@slink@@AAEXXZ$8 0042855f f   slink.obj
 0001:00027567       __unwindfunclet$?loadBlackList@slink@@AAEXXZ$10 00428567 f   slink.obj
 0001:00027567       __unwindfunclet$?loadWhiteList@slink@@AAEXXZ$10 00428567 f   slink.obj
 0001:00027573       __ehhandler$?loadWhiteList@slink@@AAEXXZ 00428573 f   slink.obj
 0001:00027573       __ehhandler$?loadBlackList@slink@@AAEXXZ 00428573 f   slink.obj
 0001:000275a0       __unwindfunclet$?nextPoll@slink@@AAEX_N@Z$0 004285a0 f   slink.obj
 0001:000275a9       __unwindfunclet$?nextPoll@slink@@AAEX_N@Z$1 004285a9 f   slink.obj
 0001:000275b2       __unwindfunclet$?nextPoll@slink@@AAEX_N@Z$2 004285b2 f   slink.obj
 0001:000275bb       __unwindfunclet$?nextPoll@slink@@AAEX_N@Z$3 004285bb f   slink.obj
 0001:000275c4       __ehhandler$?nextPoll@slink@@AAEX_N@Z 004285c4 f   slink.obj
 0001:000275e0       __unwindfunclet$?node_copy@?$QList@VQSslCipher@@@@AAEXPAUNode@1@00@Z$5 004285e0 f   slink.obj
 0001:000275f1       __ehhandler$?node_copy@?$QList@VQSslCipher@@@@AAEXPAUNode@1@00@Z 004285f1 f   slink.obj
 0001:00027610       __unwindfunclet$?retranslateUi@Ui_slinkClass@@QAEXPAVQMainWindow@@@Z$0 00428610 f   slink.obj
 0001:00027619       __unwindfunclet$?retranslateUi@Ui_slinkClass@@QAEXPAVQMainWindow@@@Z$1 00428619 f   slink.obj
 0001:00027622       __unwindfunclet$?retranslateUi@Ui_slinkClass@@QAEXPAVQMainWindow@@@Z$2 00428622 f   slink.obj
 0001:0002762b       __unwindfunclet$?retranslateUi@Ui_slinkClass@@QAEXPAVQMainWindow@@@Z$3 0042862b f   slink.obj
 0001:00027634       __unwindfunclet$?retranslateUi@Ui_slinkClass@@QAEXPAVQMainWindow@@@Z$4 00428634 f   slink.obj
 0001:0002763d       __unwindfunclet$?retranslateUi@Ui_slinkClass@@QAEXPAVQMainWindow@@@Z$5 0042863d f   slink.obj
 0001:00027646       __unwindfunclet$?retranslateUi@Ui_slinkClass@@QAEXPAVQMainWindow@@@Z$6 00428646 f   slink.obj
 0001:0002764f       __unwindfunclet$?retranslateUi@Ui_slinkClass@@QAEXPAVQMainWindow@@@Z$7 0042864f f   slink.obj
 0001:00027658       __unwindfunclet$?retranslateUi@Ui_slinkClass@@QAEXPAVQMainWindow@@@Z$8 00428658 f   slink.obj
 0001:00027661       __unwindfunclet$?retranslateUi@Ui_slinkClass@@QAEXPAVQMainWindow@@@Z$9 00428661 f   slink.obj
 0001:0002766a       __unwindfunclet$?retranslateUi@Ui_slinkClass@@QAEXPAVQMainWindow@@@Z$10 0042866a f   slink.obj
 0001:00027673       __unwindfunclet$?retranslateUi@Ui_slinkClass@@QAEXPAVQMainWindow@@@Z$11 00428673 f   slink.obj
 0001:0002767c       __unwindfunclet$?retranslateUi@Ui_slinkClass@@QAEXPAVQMainWindow@@@Z$12 0042867c f   slink.obj
 0001:00027685       __unwindfunclet$?retranslateUi@Ui_slinkClass@@QAEXPAVQMainWindow@@@Z$13 00428685 f   slink.obj
 0001:0002768e       __unwindfunclet$?retranslateUi@Ui_slinkClass@@QAEXPAVQMainWindow@@@Z$14 0042868e f   slink.obj
 0001:00027697       __unwindfunclet$?retranslateUi@Ui_slinkClass@@QAEXPAVQMainWindow@@@Z$15 00428697 f   slink.obj
 0001:000276a0       __unwindfunclet$?retranslateUi@Ui_slinkClass@@QAEXPAVQMainWindow@@@Z$16 004286a0 f   slink.obj
 0001:000276a9       __unwindfunclet$?retranslateUi@Ui_slinkClass@@QAEXPAVQMainWindow@@@Z$17 004286a9 f   slink.obj
 0001:000276b2       __unwindfunclet$?retranslateUi@Ui_slinkClass@@QAEXPAVQMainWindow@@@Z$18 004286b2 f   slink.obj
 0001:000276bb       __unwindfunclet$?retranslateUi@Ui_slinkClass@@QAEXPAVQMainWindow@@@Z$19 004286bb f   slink.obj
 0001:000276c4       __unwindfunclet$?retranslateUi@Ui_slinkClass@@QAEXPAVQMainWindow@@@Z$20 004286c4 f   slink.obj
 0001:000276cd       __unwindfunclet$?retranslateUi@Ui_slinkClass@@QAEXPAVQMainWindow@@@Z$21 004286cd f   slink.obj
 0001:000276d6       __unwindfunclet$?retranslateUi@Ui_slinkClass@@QAEXPAVQMainWindow@@@Z$22 004286d6 f   slink.obj
 0001:000276df       __unwindfunclet$?retranslateUi@Ui_slinkClass@@QAEXPAVQMainWindow@@@Z$23 004286df f   slink.obj
 0001:000276e8       __ehhandler$?retranslateUi@Ui_slinkClass@@QAEXPAVQMainWindow@@@Z 004286e8 f   slink.obj
 0001:00027710       __unwindfunclet$?routerName@slink@@EAEXPAVfabian_client@@III@Z$4 00428710 f   slink.obj
 0001:00027718       __unwindfunclet$?routerName@slink@@EAEXPAVfabian_client@@III@Z$5 00428718 f   slink.obj
 0001:00027721       __unwindfunclet$?routerName@slink@@EAEXPAVfabian_client@@III@Z$6 00428721 f   slink.obj
 0001:0002772a       __unwindfunclet$?routerName@slink@@EAEXPAVfabian_client@@III@Z$7 0042872a f   slink.obj
 0001:00027733       __unwindfunclet$?routerName@slink@@EAEXPAVfabian_client@@III@Z$8 00428733 f   slink.obj
 0001:0002773c       __unwindfunclet$?routerName@slink@@EAEXPAVfabian_client@@III@Z$9 0042873c f   slink.obj
 0001:00027745       __unwindfunclet$?routerName@slink@@EAEXPAVfabian_client@@III@Z$10 00428745 f   slink.obj
 0001:0002774e       __unwindfunclet$?routerName@slink@@EAEXPAVfabian_client@@III@Z$0 0042874e f   slink.obj
 0001:00027757       __unwindfunclet$?routerName@slink@@EAEXPAVfabian_client@@III@Z$1 00428757 f   slink.obj
 0001:00027760       __unwindfunclet$?routerName@slink@@EAEXPAVfabian_client@@III@Z$2 00428760 f   slink.obj
 0001:00027769       __unwindfunclet$?routerName@slink@@EAEXPAVfabian_client@@III@Z$3 00428769 f   slink.obj
 0001:00027772       __ehhandler$?routerName@slink@@EAEXPAVfabian_client@@III@Z 00428772 f   slink.obj
 0001:000277a0       __unwindfunclet$?setupUi@Ui_slinkClass@@QAEXPAVQMainWindow@@@Z$1 004287a0 f   slink.obj
 0001:000277a9       __unwindfunclet$?setupUi@Ui_slinkClass@@QAEXPAVQMainWindow@@@Z$2 004287a9 f   slink.obj
 0001:000277b4       __unwindfunclet$?setupUi@Ui_slinkClass@@QAEXPAVQMainWindow@@@Z$3 004287b4 f   slink.obj
 0001:000277bd       __unwindfunclet$?setupUi@Ui_slinkClass@@QAEXPAVQMainWindow@@@Z$4 004287bd f   slink.obj
 0001:000277c8       __unwindfunclet$?setupUi@Ui_slinkClass@@QAEXPAVQMainWindow@@@Z$5 004287c8 f   slink.obj
 0001:000277d1       __unwindfunclet$?setupUi@Ui_slinkClass@@QAEXPAVQMainWindow@@@Z$6 004287d1 f   slink.obj
 0001:000277dc       __unwindfunclet$?setupUi@Ui_slinkClass@@QAEXPAVQMainWindow@@@Z$7 004287dc f   slink.obj
 0001:000277e5       __unwindfunclet$?setupUi@Ui_slinkClass@@QAEXPAVQMainWindow@@@Z$8 004287e5 f   slink.obj
 0001:000277f0       __unwindfunclet$?setupUi@Ui_slinkClass@@QAEXPAVQMainWindow@@@Z$9 004287f0 f   slink.obj
 0001:000277f9       __unwindfunclet$?setupUi@Ui_slinkClass@@QAEXPAVQMainWindow@@@Z$10 004287f9 f   slink.obj
 0001:00027804       __unwindfunclet$?setupUi@Ui_slinkClass@@QAEXPAVQMainWindow@@@Z$11 00428804 f   slink.obj
 0001:0002780d       __unwindfunclet$?setupUi@Ui_slinkClass@@QAEXPAVQMainWindow@@@Z$12 0042880d f   slink.obj
 0001:00027818       __unwindfunclet$?setupUi@Ui_slinkClass@@QAEXPAVQMainWindow@@@Z$13 00428818 f   slink.obj
 0001:00027821       __unwindfunclet$?setupUi@Ui_slinkClass@@QAEXPAVQMainWindow@@@Z$14 00428821 f   slink.obj
 0001:0002782c       __unwindfunclet$?setupUi@Ui_slinkClass@@QAEXPAVQMainWindow@@@Z$15 0042882c f   slink.obj
 0001:00027835       __unwindfunclet$?setupUi@Ui_slinkClass@@QAEXPAVQMainWindow@@@Z$16 00428835 f   slink.obj
 0001:00027840       __unwindfunclet$?setupUi@Ui_slinkClass@@QAEXPAVQMainWindow@@@Z$17 00428840 f   slink.obj
 0001:00027849       __unwindfunclet$?setupUi@Ui_slinkClass@@QAEXPAVQMainWindow@@@Z$18 00428849 f   slink.obj
 0001:00027854       __unwindfunclet$?setupUi@Ui_slinkClass@@QAEXPAVQMainWindow@@@Z$19 00428854 f   slink.obj
 0001:0002785d       __unwindfunclet$?setupUi@Ui_slinkClass@@QAEXPAVQMainWindow@@@Z$20 0042885d f   slink.obj
 0001:00027868       __unwindfunclet$?setupUi@Ui_slinkClass@@QAEXPAVQMainWindow@@@Z$21 00428868 f   slink.obj
 0001:00027871       __unwindfunclet$?setupUi@Ui_slinkClass@@QAEXPAVQMainWindow@@@Z$22 00428871 f   slink.obj
 0001:0002787c       __unwindfunclet$?setupUi@Ui_slinkClass@@QAEXPAVQMainWindow@@@Z$23 0042887c f   slink.obj
 0001:00027885       __unwindfunclet$?setupUi@Ui_slinkClass@@QAEXPAVQMainWindow@@@Z$24 00428885 f   slink.obj
 0001:00027890       __unwindfunclet$?setupUi@Ui_slinkClass@@QAEXPAVQMainWindow@@@Z$25 00428890 f   slink.obj
 0001:00027899       __unwindfunclet$?setupUi@Ui_slinkClass@@QAEXPAVQMainWindow@@@Z$26 00428899 f   slink.obj
 0001:000278a4       __unwindfunclet$?setupUi@Ui_slinkClass@@QAEXPAVQMainWindow@@@Z$27 004288a4 f   slink.obj
 0001:000278ad       __unwindfunclet$?setupUi@Ui_slinkClass@@QAEXPAVQMainWindow@@@Z$28 004288ad f   slink.obj
 0001:000278b8       __unwindfunclet$?setupUi@Ui_slinkClass@@QAEXPAVQMainWindow@@@Z$29 004288b8 f   slink.obj
 0001:000278c1       __unwindfunclet$?setupUi@Ui_slinkClass@@QAEXPAVQMainWindow@@@Z$30 004288c1 f   slink.obj
 0001:000278cc       __unwindfunclet$?setupUi@Ui_slinkClass@@QAEXPAVQMainWindow@@@Z$31 004288cc f   slink.obj
 0001:000278d5       __unwindfunclet$?setupUi@Ui_slinkClass@@QAEXPAVQMainWindow@@@Z$32 004288d5 f   slink.obj
 0001:000278e0       __unwindfunclet$?setupUi@Ui_slinkClass@@QAEXPAVQMainWindow@@@Z$33 004288e0 f   slink.obj
 0001:000278eb       __unwindfunclet$?setupUi@Ui_slinkClass@@QAEXPAVQMainWindow@@@Z$34 004288eb f   slink.obj
 0001:000278f4       __unwindfunclet$?setupUi@Ui_slinkClass@@QAEXPAVQMainWindow@@@Z$35 004288f4 f   slink.obj
 0001:000278ff       __unwindfunclet$?setupUi@Ui_slinkClass@@QAEXPAVQMainWindow@@@Z$36 004288ff f   slink.obj
 0001:00027908       __unwindfunclet$?setupUi@Ui_slinkClass@@QAEXPAVQMainWindow@@@Z$37 00428908 f   slink.obj
 0001:00027913       __unwindfunclet$?setupUi@Ui_slinkClass@@QAEXPAVQMainWindow@@@Z$38 00428913 f   slink.obj
 0001:0002791c       __unwindfunclet$?setupUi@Ui_slinkClass@@QAEXPAVQMainWindow@@@Z$39 0042891c f   slink.obj
 0001:00027927       __unwindfunclet$?setupUi@Ui_slinkClass@@QAEXPAVQMainWindow@@@Z$40 00428927 f   slink.obj
 0001:00027930       __unwindfunclet$?setupUi@Ui_slinkClass@@QAEXPAVQMainWindow@@@Z$41 00428930 f   slink.obj
 0001:0002793b       __unwindfunclet$?setupUi@Ui_slinkClass@@QAEXPAVQMainWindow@@@Z$42 0042893b f   slink.obj
 0001:00027944       __unwindfunclet$?setupUi@Ui_slinkClass@@QAEXPAVQMainWindow@@@Z$43 00428944 f   slink.obj
 0001:0002794f       __unwindfunclet$?setupUi@Ui_slinkClass@@QAEXPAVQMainWindow@@@Z$44 0042894f f   slink.obj
 0001:00027958       __unwindfunclet$?setupUi@Ui_slinkClass@@QAEXPAVQMainWindow@@@Z$45 00428958 f   slink.obj
 0001:00027963       __unwindfunclet$?setupUi@Ui_slinkClass@@QAEXPAVQMainWindow@@@Z$46 00428963 f   slink.obj
 0001:0002796c       __unwindfunclet$?setupUi@Ui_slinkClass@@QAEXPAVQMainWindow@@@Z$47 0042896c f   slink.obj
 0001:00027977       __unwindfunclet$?setupUi@Ui_slinkClass@@QAEXPAVQMainWindow@@@Z$48 00428977 f   slink.obj
 0001:00027980       __unwindfunclet$?setupUi@Ui_slinkClass@@QAEXPAVQMainWindow@@@Z$49 00428980 f   slink.obj
 0001:0002798b       __unwindfunclet$?setupUi@Ui_slinkClass@@QAEXPAVQMainWindow@@@Z$50 0042898b f   slink.obj
 0001:00027994       __unwindfunclet$?setupUi@Ui_slinkClass@@QAEXPAVQMainWindow@@@Z$51 00428994 f   slink.obj
 0001:0002799f       __unwindfunclet$?setupUi@Ui_slinkClass@@QAEXPAVQMainWindow@@@Z$52 0042899f f   slink.obj
 0001:000279a8       __ehhandler$?setupUi@Ui_slinkClass@@QAEXPAVQMainWindow@@@Z 004289a8 f   slink.obj
 0001:000279d0       __unwindfunclet$?userDeleted@slink@@AAEXABVQString@@@Z$0 004289d0 f   slink.obj
 0001:000279d8       __ehhandler$?userDeleted@slink@@AAEXABVQString@@@Z 004289d8 f   slink.obj
 0001:00027a00       __ehhandler$??$_Insert_nohint@AAU?$pair@$$CBIPAVfabianServer@@@std@@PAU?$_Tree_node@U?$pair@$$CBIPAVfabianServer@@@std@@PAX@2@@?$_Tree@V?$_Tmap_traits@IPAVfabianServer@@U?$less@I@std@@V?$allocator@U?$pair@$$CBIPAVfabianServer@@@std@@@3@$0A@@std@@@std@@IAE?AU?$pair@V?$_Tree_iterator@V?$_Tree_val@U?$_Tree_simple_types@U?$pair@$$CBIPAVfabianServer@@@std@@@std@@@std@@@std@@_N@1@_NAAU?$pair@$$CBIPAVfabianServer@@@1@PAU?$_Tree_node@U?$pair@$$CBIPAVfabianServer@@@std@@PAX@1@@Z 00428a00 f   user.obj
 0001:00027a00       __ehhandler$??$_Insert_nohint@AAU?$pair@$$CBIPAVsingleReg@@@std@@PAU?$_Tree_node@U?$pair@$$CBIPAVsingleReg@@@std@@PAX@2@@?$_Tree@V?$_Tmap_traits@IPAVsingleReg@@U?$less@I@std@@V?$allocator@U?$pair@$$CBIPAVsingleReg@@@std@@@3@$0A@@std@@@std@@IAE?AU?$pair@V?$_Tree_iterator@V?$_Tree_val@U?$_Tree_simple_types@U?$pair@$$CBIPAVsingleReg@@@std@@@std@@@std@@@std@@_N@1@_NAAU?$pair@$$CBIPAVsingleReg@@@1@PAU?$_Tree_node@U?$pair@$$CBIPAVsingleReg@@@std@@PAX@1@@Z 00428a00 f   user.obj
 0001:00027a00       __ehhandler$??$_Insert_nohint@AAU?$pair@$$CBIPAVdatabaseSync@@@std@@PAU?$_Tree_node@U?$pair@$$CBIPAVdatabaseSync@@@std@@PAX@2@@?$_Tree@V?$_Tmap_traits@IPAVdatabaseSync@@U?$less@I@std@@V?$allocator@U?$pair@$$CBIPAVdatabaseSync@@@std@@@3@$0A@@std@@@std@@IAE?AU?$pair@V?$_Tree_iterator@V?$_Tree_val@U?$_Tree_simple_types@U?$pair@$$CBIPAVdatabaseSync@@@std@@@std@@@std@@@std@@_N@1@_NAAU?$pair@$$CBIPAVdatabaseSync@@@1@PAU?$_Tree_node@U?$pair@$$CBIPAVdatabaseSync@@@std@@PAX@1@@Z 00428a00 f   user.obj
 0001:00027a20       __unwindfunclet$??0user@@QAE@ABVQString@@000II@Z$0 00428a20 f   user.obj
 0001:00027a2c       __unwindfunclet$??0user@@QAE@ABVQString@@000II@Z$1 00428a2c f   user.obj
 0001:00027a38       __unwindfunclet$??0user@@QAE@ABVQString@@000II@Z$2 00428a38 f   user.obj
 0001:00027a44       __unwindfunclet$??0user@@QAE@ABVQString@@000II@Z$3 00428a44 f   user.obj
 0001:00027a50       __unwindfunclet$??0user@@QAE@ABVQString@@000II@Z$4 00428a50 f   user.obj
 0001:00027a5b       __ehhandler$??0user@@QAE@ABVQString@@000II@Z 00428a5b f   user.obj
 0001:00027a80       __unwindfunclet$??1user@@UAE@XZ$0 00428a80 f   user.obj
 0001:00027a8c       __unwindfunclet$??1user@@UAE@XZ$1 00428a8c f   user.obj
 0001:00027a98       __unwindfunclet$??1user@@UAE@XZ$2 00428a98 f   user.obj
 0001:00027aa4       __unwindfunclet$??1user@@UAE@XZ$3 00428aa4 f   user.obj
 0001:00027ab0       __unwindfunclet$??1user@@UAE@XZ$4 00428ab0 f   user.obj
 0001:00027abb       __unwindfunclet$??1user@@UAE@XZ$5 00428abb f   user.obj
 0001:00027ac6       __ehhandler$??1user@@UAE@XZ 00428ac6 f   user.obj
 0001:00027af0       __unwindfunclet$?addWriteAccess@user@@QAEXIII@Z$0 00428af0 f   user.obj
 0001:00027af0       __unwindfunclet$?addReadAccess@user@@QAEXIII@Z$0 00428af0 f   user.obj
 0001:00027afb       __ehhandler$?addWriteAccess@user@@QAEXIII@Z 00428afb f   user.obj
 0001:00027afb       __ehhandler$?addReadAccess@user@@QAEXIII@Z 00428afb f   user.obj
 0001:00027b20       __unwindfunclet$??0userEditDialog@@QAE@XZ$0 00428b20 f   userEditDialog.obj
 0001:00027b29       __unwindfunclet$??0userEditDialog@@QAE@XZ$1 00428b29 f   userEditDialog.obj
 0001:00027b31       __unwindfunclet$??0userEditDialog@@QAE@XZ$5 00428b31 f   userEditDialog.obj
 0001:00027b3c       __unwindfunclet$??0userEditDialog@@QAE@XZ$6 00428b3c f   userEditDialog.obj
 0001:00027b45       __unwindfunclet$??0userEditDialog@@QAE@XZ$7 00428b45 f   userEditDialog.obj
 0001:00027b4e       __unwindfunclet$??0userEditDialog@@QAE@XZ$8 00428b4e f   userEditDialog.obj
 0001:00027b57       __unwindfunclet$??0userEditDialog@@QAE@XZ$9 00428b57 f   userEditDialog.obj
 0001:00027b60       __unwindfunclet$??0userEditDialog@@QAE@XZ$10 00428b60 f   userEditDialog.obj
 0001:00027b69       __unwindfunclet$??0userEditDialog@@QAE@XZ$11 00428b69 f   userEditDialog.obj
 0001:00027b72       __unwindfunclet$??0userEditDialog@@QAE@XZ$12 00428b72 f   userEditDialog.obj
 0001:00027b7b       __unwindfunclet$??0userEditDialog@@QAE@XZ$13 00428b7b f   userEditDialog.obj
 0001:00027b84       __unwindfunclet$??0userEditDialog@@QAE@XZ$14 00428b84 f   userEditDialog.obj
 0001:00027b8d       __unwindfunclet$??0userEditDialog@@QAE@XZ$15 00428b8d f   userEditDialog.obj
 0001:00027b96       __unwindfunclet$??0userEditDialog@@QAE@XZ$16 00428b96 f   userEditDialog.obj
 0001:00027b9f       __unwindfunclet$??0userEditDialog@@QAE@XZ$17 00428b9f f   userEditDialog.obj
 0001:00027ba8       __unwindfunclet$??0userEditDialog@@QAE@XZ$18 00428ba8 f   userEditDialog.obj
 0001:00027bb1       __ehhandler$??0userEditDialog@@QAE@XZ 00428bb1 f   userEditDialog.obj
 0001:00027bd0       __unwindfunclet$?retranslateUi@Ui_userEditDialog@@QAEXPAVQDialog@@@Z$0 00428bd0 f   userEditDialog.obj
 0001:00027bd9       __unwindfunclet$?retranslateUi@Ui_userEditDialog@@QAEXPAVQDialog@@@Z$1 00428bd9 f   userEditDialog.obj
 0001:00027be2       __unwindfunclet$?retranslateUi@Ui_userEditDialog@@QAEXPAVQDialog@@@Z$2 00428be2 f   userEditDialog.obj
 0001:00027beb       __unwindfunclet$?retranslateUi@Ui_userEditDialog@@QAEXPAVQDialog@@@Z$3 00428beb f   userEditDialog.obj
 0001:00027bf4       __unwindfunclet$?retranslateUi@Ui_userEditDialog@@QAEXPAVQDialog@@@Z$4 00428bf4 f   userEditDialog.obj
 0001:00027bfd       __unwindfunclet$?retranslateUi@Ui_userEditDialog@@QAEXPAVQDialog@@@Z$5 00428bfd f   userEditDialog.obj
 0001:00027c06       __unwindfunclet$?retranslateUi@Ui_userEditDialog@@QAEXPAVQDialog@@@Z$6 00428c06 f   userEditDialog.obj
 0001:00027c0f       __unwindfunclet$?retranslateUi@Ui_userEditDialog@@QAEXPAVQDialog@@@Z$7 00428c0f f   userEditDialog.obj
 0001:00027c18       __unwindfunclet$?retranslateUi@Ui_userEditDialog@@QAEXPAVQDialog@@@Z$8 00428c18 f   userEditDialog.obj
 0001:00027c21       __unwindfunclet$?retranslateUi@Ui_userEditDialog@@QAEXPAVQDialog@@@Z$9 00428c21 f   userEditDialog.obj
 0001:00027c2a       __unwindfunclet$?retranslateUi@Ui_userEditDialog@@QAEXPAVQDialog@@@Z$10 00428c2a f   userEditDialog.obj
 0001:00027c33       __ehhandler$?retranslateUi@Ui_userEditDialog@@QAEXPAVQDialog@@@Z 00428c33 f   userEditDialog.obj
 0001:00027c50       __unwindfunclet$?setupUi@Ui_userEditDialog@@QAEXPAVQDialog@@@Z$1 00428c50 f   userEditDialog.obj
 0001:00027c59       __unwindfunclet$?setupUi@Ui_userEditDialog@@QAEXPAVQDialog@@@Z$2 00428c59 f   userEditDialog.obj
 0001:00027c64       __unwindfunclet$?setupUi@Ui_userEditDialog@@QAEXPAVQDialog@@@Z$3 00428c64 f   userEditDialog.obj
 0001:00027c6d       __unwindfunclet$?setupUi@Ui_userEditDialog@@QAEXPAVQDialog@@@Z$4 00428c6d f   userEditDialog.obj
 0001:00027c78       __unwindfunclet$?setupUi@Ui_userEditDialog@@QAEXPAVQDialog@@@Z$5 00428c78 f   userEditDialog.obj
 0001:00027c81       __unwindfunclet$?setupUi@Ui_userEditDialog@@QAEXPAVQDialog@@@Z$6 00428c81 f   userEditDialog.obj
 0001:00027c8c       __unwindfunclet$?setupUi@Ui_userEditDialog@@QAEXPAVQDialog@@@Z$7 00428c8c f   userEditDialog.obj
 0001:00027c95       __unwindfunclet$?setupUi@Ui_userEditDialog@@QAEXPAVQDialog@@@Z$8 00428c95 f   userEditDialog.obj
 0001:00027ca0       __unwindfunclet$?setupUi@Ui_userEditDialog@@QAEXPAVQDialog@@@Z$9 00428ca0 f   userEditDialog.obj
 0001:00027ca9       __unwindfunclet$?setupUi@Ui_userEditDialog@@QAEXPAVQDialog@@@Z$10 00428ca9 f   userEditDialog.obj
 0001:00027cb4       __unwindfunclet$?setupUi@Ui_userEditDialog@@QAEXPAVQDialog@@@Z$11 00428cb4 f   userEditDialog.obj
 0001:00027cbd       __unwindfunclet$?setupUi@Ui_userEditDialog@@QAEXPAVQDialog@@@Z$12 00428cbd f   userEditDialog.obj
 0001:00027cc8       __unwindfunclet$?setupUi@Ui_userEditDialog@@QAEXPAVQDialog@@@Z$13 00428cc8 f   userEditDialog.obj
 0001:00027cd1       __unwindfunclet$?setupUi@Ui_userEditDialog@@QAEXPAVQDialog@@@Z$14 00428cd1 f   userEditDialog.obj
 0001:00027cdc       __unwindfunclet$?setupUi@Ui_userEditDialog@@QAEXPAVQDialog@@@Z$15 00428cdc f   userEditDialog.obj
 0001:00027ce7       __unwindfunclet$?setupUi@Ui_userEditDialog@@QAEXPAVQDialog@@@Z$16 00428ce7 f   userEditDialog.obj
 0001:00027cf0       __unwindfunclet$?setupUi@Ui_userEditDialog@@QAEXPAVQDialog@@@Z$17 00428cf0 f   userEditDialog.obj
 0001:00027cfb       __unwindfunclet$?setupUi@Ui_userEditDialog@@QAEXPAVQDialog@@@Z$18 00428cfb f   userEditDialog.obj
 0001:00027d06       __unwindfunclet$?setupUi@Ui_userEditDialog@@QAEXPAVQDialog@@@Z$19 00428d06 f   userEditDialog.obj
 0001:00027d0f       __unwindfunclet$?setupUi@Ui_userEditDialog@@QAEXPAVQDialog@@@Z$20 00428d0f f   userEditDialog.obj
 0001:00027d1a       __unwindfunclet$?setupUi@Ui_userEditDialog@@QAEXPAVQDialog@@@Z$21 00428d1a f   userEditDialog.obj
 0001:00027d23       __ehhandler$?setupUi@Ui_userEditDialog@@QAEXPAVQDialog@@@Z 00428d23 f   userEditDialog.obj
 0001:00027d40       __unwindfunclet$?slotAddUser@userEditDialog@@AAEXXZ$0 00428d40 f   userEditDialog.obj
 0001:00027d49       __unwindfunclet$?slotAddUser@userEditDialog@@AAEXXZ$1 00428d49 f   userEditDialog.obj
 0001:00027d52       __unwindfunclet$?slotAddUser@userEditDialog@@AAEXXZ$2 00428d52 f   userEditDialog.obj
 0001:00027d5b       __unwindfunclet$?slotAddUser@userEditDialog@@AAEXXZ$3 00428d5b f   userEditDialog.obj
 0001:00027d64       __unwindfunclet$?slotAddUser@userEditDialog@@AAEXXZ$4 00428d64 f   userEditDialog.obj
 0001:00027d6d       __unwindfunclet$?slotAddUser@userEditDialog@@AAEXXZ$5 00428d6d f   userEditDialog.obj
 0001:00027d75       __unwindfunclet$?slotAddUser@userEditDialog@@AAEXXZ$6 00428d75 f   userEditDialog.obj
 0001:00027d7e       __unwindfunclet$?slotAddUser@userEditDialog@@AAEXXZ$7 00428d7e f   userEditDialog.obj
 0001:00027d87       __unwindfunclet$?slotAddUser@userEditDialog@@AAEXXZ$8 00428d87 f   userEditDialog.obj
 0001:00027d90       __unwindfunclet$?slotAddUser@userEditDialog@@AAEXXZ$9 00428d90 f   userEditDialog.obj
 0001:00027d99       __unwindfunclet$?slotAddUser@userEditDialog@@AAEXXZ$10 00428d99 f   userEditDialog.obj
 0001:00027da2       __unwindfunclet$?slotAddUser@userEditDialog@@AAEXXZ$11 00428da2 f   userEditDialog.obj
 0001:00027dab       __unwindfunclet$?slotAddUser@userEditDialog@@AAEXXZ$12 00428dab f   userEditDialog.obj
 0001:00027db4       __unwindfunclet$?slotAddUser@userEditDialog@@AAEXXZ$13 00428db4 f   userEditDialog.obj
 0001:00027dbf       __unwindfunclet$?slotAddUser@userEditDialog@@AAEXXZ$14 00428dbf f   userEditDialog.obj
 0001:00027dc8       __unwindfunclet$?slotAddUser@userEditDialog@@AAEXXZ$15 00428dc8 f   userEditDialog.obj
 0001:00027dd1       __unwindfunclet$?slotAddUser@userEditDialog@@AAEXXZ$16 00428dd1 f   userEditDialog.obj
 0001:00027dda       __unwindfunclet$?slotAddUser@userEditDialog@@AAEXXZ$17 00428dda f   userEditDialog.obj
 0001:00027de3       __unwindfunclet$?slotAddUser@userEditDialog@@AAEXXZ$18 00428de3 f   userEditDialog.obj
 0001:00027dec       __unwindfunclet$?slotAddUser@userEditDialog@@AAEXXZ$19 00428dec f   userEditDialog.obj
 0001:00027df5       __ehhandler$?slotAddUser@userEditDialog@@AAEXXZ 00428df5 f   userEditDialog.obj
 0001:00027e10       __unwindfunclet$?slotDeleteUser@userEditDialog@@AAEXXZ$0 00428e10 f   userEditDialog.obj
 0001:00027e19       __unwindfunclet$?slotDeleteUser@userEditDialog@@AAEXXZ$1 00428e19 f   userEditDialog.obj
 0001:00027e22       __unwindfunclet$?slotDeleteUser@userEditDialog@@AAEXXZ$2 00428e22 f   userEditDialog.obj
 0001:00027e2b       __unwindfunclet$?slotDeleteUser@userEditDialog@@AAEXXZ$3 00428e2b f   userEditDialog.obj
 0001:00027e34       __ehhandler$?slotDeleteUser@userEditDialog@@AAEXXZ 00428e34 f   userEditDialog.obj
 0001:00027e50       __unwindfunclet$?slotItemDoubleClicked@userEditDialog@@AAEXPAVQTreeWidgetItem@@H@Z$0 00428e50 f   userEditDialog.obj
 0001:00027e59       __unwindfunclet$?slotItemDoubleClicked@userEditDialog@@AAEXPAVQTreeWidgetItem@@H@Z$1 00428e59 f   userEditDialog.obj
 0001:00027e61       __ehhandler$?slotItemDoubleClicked@userEditDialog@@AAEXPAVQTreeWidgetItem@@H@Z 00428e61 f   userEditDialog.obj
 0001:00027e80       __unwindfunclet$??0userEditPermissionsDialog@@QAE@ABVQString@@@Z$0 00428e80 f   userEditPermissionsDialog.obj
 0001:00027e8c       __unwindfunclet$??0userEditPermissionsDialog@@QAE@ABVQString@@@Z$1 00428e8c f   userEditPermissionsDialog.obj
 0001:00027e94       __unwindfunclet$??0userEditPermissionsDialog@@QAE@ABVQString@@@Z$2 00428e94 f   userEditPermissionsDialog.obj
 0001:00027e9f       __unwindfunclet$??0userEditPermissionsDialog@@QAE@ABVQString@@@Z$5 00428e9f f   userEditPermissionsDialog.obj
 0001:00027eab       __unwindfunclet$??0userEditPermissionsDialog@@QAE@ABVQString@@@Z$6 00428eab f   userEditPermissionsDialog.obj
 0001:00027eb7       __unwindfunclet$??0userEditPermissionsDialog@@QAE@ABVQString@@@Z$7 00428eb7 f   userEditPermissionsDialog.obj
 0001:00027ec3       __unwindfunclet$??0userEditPermissionsDialog@@QAE@ABVQString@@@Z$8 00428ec3 f   userEditPermissionsDialog.obj
 0001:00027ecf       __unwindfunclet$??0userEditPermissionsDialog@@QAE@ABVQString@@@Z$9 00428ecf f   userEditPermissionsDialog.obj
 0001:00027edb       __unwindfunclet$??0userEditPermissionsDialog@@QAE@ABVQString@@@Z$10 00428edb f   userEditPermissionsDialog.obj
 0001:00027ee7       __unwindfunclet$??0userEditPermissionsDialog@@QAE@ABVQString@@@Z$11 00428ee7 f   userEditPermissionsDialog.obj
 0001:00027ef3       __unwindfunclet$??0userEditPermissionsDialog@@QAE@ABVQString@@@Z$12 00428ef3 f   userEditPermissionsDialog.obj
 0001:00027eff       __unwindfunclet$??0userEditPermissionsDialog@@QAE@ABVQString@@@Z$13 00428eff f   userEditPermissionsDialog.obj
 0001:00027f0b       __unwindfunclet$??0userEditPermissionsDialog@@QAE@ABVQString@@@Z$14 00428f0b f   userEditPermissionsDialog.obj
 0001:00027f17       __unwindfunclet$??0userEditPermissionsDialog@@QAE@ABVQString@@@Z$15 00428f17 f   userEditPermissionsDialog.obj
 0001:00027f23       __unwindfunclet$??0userEditPermissionsDialog@@QAE@ABVQString@@@Z$16 00428f23 f   userEditPermissionsDialog.obj
 0001:00027f2f       __unwindfunclet$??0userEditPermissionsDialog@@QAE@ABVQString@@@Z$17 00428f2f f   userEditPermissionsDialog.obj
 0001:00027f3b       __unwindfunclet$??0userEditPermissionsDialog@@QAE@ABVQString@@@Z$18 00428f3b f   userEditPermissionsDialog.obj
 0001:00027f47       __unwindfunclet$??0userEditPermissionsDialog@@QAE@ABVQString@@@Z$19 00428f47 f   userEditPermissionsDialog.obj
 0001:00027f53       __unwindfunclet$??0userEditPermissionsDialog@@QAE@ABVQString@@@Z$20 00428f53 f   userEditPermissionsDialog.obj
 0001:00027f5f       __unwindfunclet$??0userEditPermissionsDialog@@QAE@ABVQString@@@Z$21 00428f5f f   userEditPermissionsDialog.obj
 0001:00027f6b       __unwindfunclet$??0userEditPermissionsDialog@@QAE@ABVQString@@@Z$22 00428f6b f   userEditPermissionsDialog.obj
 0001:00027f77       __ehhandler$??0userEditPermissionsDialog@@QAE@ABVQString@@@Z 00428f77 f   userEditPermissionsDialog.obj
 0001:00027fa0       __unwindfunclet$?accept@userEditPermissionsDialog@@UAEXXZ$0 00428fa0 f   userEditPermissionsDialog.obj
 0001:00027fab       __unwindfunclet$?accept@userEditPermissionsDialog@@UAEXXZ$1 00428fab f   userEditPermissionsDialog.obj
 0001:00027fb7       __unwindfunclet$?accept@userEditPermissionsDialog@@UAEXXZ$3 00428fb7 f   userEditPermissionsDialog.obj
 0001:00027fc3       __unwindfunclet$?accept@userEditPermissionsDialog@@UAEXXZ$4 00428fc3 f   userEditPermissionsDialog.obj
 0001:00027fcf       __unwindfunclet$?accept@userEditPermissionsDialog@@UAEXXZ$5 00428fcf f   userEditPermissionsDialog.obj
 0001:00027fdb       __unwindfunclet$?accept@userEditPermissionsDialog@@UAEXXZ$6 00428fdb f   userEditPermissionsDialog.obj
 0001:00027fe7       __unwindfunclet$?accept@userEditPermissionsDialog@@UAEXXZ$8 00428fe7 f   userEditPermissionsDialog.obj
 0001:00027ff3       __unwindfunclet$?accept@userEditPermissionsDialog@@UAEXXZ$9 00428ff3 f   userEditPermissionsDialog.obj
 0001:00027fff       __unwindfunclet$?accept@userEditPermissionsDialog@@UAEXXZ$10 00428fff f   userEditPermissionsDialog.obj
 0001:0002800b       __unwindfunclet$?accept@userEditPermissionsDialog@@UAEXXZ$11 0042900b f   userEditPermissionsDialog.obj
 0001:00028017       __unwindfunclet$?accept@userEditPermissionsDialog@@UAEXXZ$12 00429017 f   userEditPermissionsDialog.obj
 0001:00028023       __unwindfunclet$?accept@userEditPermissionsDialog@@UAEXXZ$13 00429023 f   userEditPermissionsDialog.obj
 0001:0002802f       __unwindfunclet$?accept@userEditPermissionsDialog@@UAEXXZ$14 0042902f f   userEditPermissionsDialog.obj
 0001:0002803b       __unwindfunclet$?accept@userEditPermissionsDialog@@UAEXXZ$15 0042903b f   userEditPermissionsDialog.obj
 0001:00028047       __unwindfunclet$?accept@userEditPermissionsDialog@@UAEXXZ$16 00429047 f   userEditPermissionsDialog.obj
 0001:0002804f       __unwindfunclet$?accept@userEditPermissionsDialog@@UAEXXZ$17 0042904f f   userEditPermissionsDialog.obj
 0001:0002805b       __unwindfunclet$?accept@userEditPermissionsDialog@@UAEXXZ$18 0042905b f   userEditPermissionsDialog.obj
 0001:00028063       __unwindfunclet$?accept@userEditPermissionsDialog@@UAEXXZ$19 00429063 f   userEditPermissionsDialog.obj
 0001:0002806f       __unwindfunclet$?accept@userEditPermissionsDialog@@UAEXXZ$20 0042906f f   userEditPermissionsDialog.obj
 0001:00028077       __unwindfunclet$?accept@userEditPermissionsDialog@@UAEXXZ$21 00429077 f   userEditPermissionsDialog.obj
 0001:0002807f       __unwindfunclet$?accept@userEditPermissionsDialog@@UAEXXZ$22 0042907f f   userEditPermissionsDialog.obj
 0001:0002808b       __unwindfunclet$?accept@userEditPermissionsDialog@@UAEXXZ$23 0042908b f   userEditPermissionsDialog.obj
 0001:00028093       __unwindfunclet$?accept@userEditPermissionsDialog@@UAEXXZ$24 00429093 f   userEditPermissionsDialog.obj
 0001:0002809f       __unwindfunclet$?accept@userEditPermissionsDialog@@UAEXXZ$25 0042909f f   userEditPermissionsDialog.obj
 0001:000280a7       __unwindfunclet$?accept@userEditPermissionsDialog@@UAEXXZ$26 004290a7 f   userEditPermissionsDialog.obj
 0001:000280b3       __unwindfunclet$?accept@userEditPermissionsDialog@@UAEXXZ$27 004290b3 f   userEditPermissionsDialog.obj
 0001:000280bb       __unwindfunclet$?accept@userEditPermissionsDialog@@UAEXXZ$28 004290bb f   userEditPermissionsDialog.obj
 0001:000280c7       __unwindfunclet$?accept@userEditPermissionsDialog@@UAEXXZ$29 004290c7 f   userEditPermissionsDialog.obj
 0001:000280cf       __unwindfunclet$?accept@userEditPermissionsDialog@@UAEXXZ$30 004290cf f   userEditPermissionsDialog.obj
 0001:000280da       __unwindfunclet$?accept@userEditPermissionsDialog@@UAEXXZ$32 004290da f   userEditPermissionsDialog.obj
 0001:000280e6       __unwindfunclet$?accept@userEditPermissionsDialog@@UAEXXZ$33 004290e6 f   userEditPermissionsDialog.obj
 0001:000280f2       __unwindfunclet$?accept@userEditPermissionsDialog@@UAEXXZ$34 004290f2 f   userEditPermissionsDialog.obj
 0001:000280fe       __unwindfunclet$?accept@userEditPermissionsDialog@@UAEXXZ$35 004290fe f   userEditPermissionsDialog.obj
 0001:00028106       __unwindfunclet$?accept@userEditPermissionsDialog@@UAEXXZ$36 00429106 f   userEditPermissionsDialog.obj
 0001:0002810e       __unwindfunclet$?accept@userEditPermissionsDialog@@UAEXXZ$38 0042910e f   userEditPermissionsDialog.obj
 0001:0002811a       __unwindfunclet$?accept@userEditPermissionsDialog@@UAEXXZ$39 0042911a f   userEditPermissionsDialog.obj
 0001:00028126       __unwindfunclet$?accept@userEditPermissionsDialog@@UAEXXZ$40 00429126 f   userEditPermissionsDialog.obj
 0001:00028132       __unwindfunclet$?accept@userEditPermissionsDialog@@UAEXXZ$41 00429132 f   userEditPermissionsDialog.obj
 0001:0002813a       __unwindfunclet$?accept@userEditPermissionsDialog@@UAEXXZ$42 0042913a f   userEditPermissionsDialog.obj
 0001:00028142       __unwindfunclet$?accept@userEditPermissionsDialog@@UAEXXZ$43 00429142 f   userEditPermissionsDialog.obj
 0001:0002814e       __ehhandler$?accept@userEditPermissionsDialog@@UAEXXZ 0042914e f   userEditPermissionsDialog.obj
 0001:00028180       __unwindfunclet$?retranslateUi@Ui_userEditPermissionsDialog@@QAEXPAVQDialog@@@Z$0 00429180 f   userEditPermissionsDialog.obj
 0001:00028189       __unwindfunclet$?retranslateUi@Ui_userEditPermissionsDialog@@QAEXPAVQDialog@@@Z$1 00429189 f   userEditPermissionsDialog.obj
 0001:00028192       __unwindfunclet$?retranslateUi@Ui_userEditPermissionsDialog@@QAEXPAVQDialog@@@Z$2 00429192 f   userEditPermissionsDialog.obj
 0001:0002819b       __unwindfunclet$?retranslateUi@Ui_userEditPermissionsDialog@@QAEXPAVQDialog@@@Z$3 0042919b f   userEditPermissionsDialog.obj
 0001:000281a4       __unwindfunclet$?retranslateUi@Ui_userEditPermissionsDialog@@QAEXPAVQDialog@@@Z$4 004291a4 f   userEditPermissionsDialog.obj
 0001:000281ad       __unwindfunclet$?retranslateUi@Ui_userEditPermissionsDialog@@QAEXPAVQDialog@@@Z$5 004291ad f   userEditPermissionsDialog.obj
 0001:000281b6       __ehhandler$?retranslateUi@Ui_userEditPermissionsDialog@@QAEXPAVQDialog@@@Z 004291b6 f   userEditPermissionsDialog.obj
 0001:000281e0       __unwindfunclet$?setupUi@Ui_userEditPermissionsDialog@@QAEXPAVQDialog@@@Z$1 004291e0 f   userEditPermissionsDialog.obj
 0001:000281e9       __unwindfunclet$?setupUi@Ui_userEditPermissionsDialog@@QAEXPAVQDialog@@@Z$2 004291e9 f   userEditPermissionsDialog.obj
 0001:000281f4       __unwindfunclet$?setupUi@Ui_userEditPermissionsDialog@@QAEXPAVQDialog@@@Z$3 004291f4 f   userEditPermissionsDialog.obj
 0001:000281fd       __unwindfunclet$?setupUi@Ui_userEditPermissionsDialog@@QAEXPAVQDialog@@@Z$4 004291fd f   userEditPermissionsDialog.obj
 0001:00028208       __unwindfunclet$?setupUi@Ui_userEditPermissionsDialog@@QAEXPAVQDialog@@@Z$5 00429208 f   userEditPermissionsDialog.obj
 0001:00028211       __unwindfunclet$?setupUi@Ui_userEditPermissionsDialog@@QAEXPAVQDialog@@@Z$6 00429211 f   userEditPermissionsDialog.obj
 0001:0002821c       __unwindfunclet$?setupUi@Ui_userEditPermissionsDialog@@QAEXPAVQDialog@@@Z$7 0042921c f   userEditPermissionsDialog.obj
 0001:00028225       __unwindfunclet$?setupUi@Ui_userEditPermissionsDialog@@QAEXPAVQDialog@@@Z$8 00429225 f   userEditPermissionsDialog.obj
 0001:00028230       __unwindfunclet$?setupUi@Ui_userEditPermissionsDialog@@QAEXPAVQDialog@@@Z$9 00429230 f   userEditPermissionsDialog.obj
 0001:00028239       __unwindfunclet$?setupUi@Ui_userEditPermissionsDialog@@QAEXPAVQDialog@@@Z$10 00429239 f   userEditPermissionsDialog.obj
 0001:00028244       __unwindfunclet$?setupUi@Ui_userEditPermissionsDialog@@QAEXPAVQDialog@@@Z$11 00429244 f   userEditPermissionsDialog.obj
 0001:0002824d       __unwindfunclet$?setupUi@Ui_userEditPermissionsDialog@@QAEXPAVQDialog@@@Z$12 0042924d f   userEditPermissionsDialog.obj
 0001:00028258       __unwindfunclet$?setupUi@Ui_userEditPermissionsDialog@@QAEXPAVQDialog@@@Z$13 00429258 f   userEditPermissionsDialog.obj
 0001:00028261       __unwindfunclet$?setupUi@Ui_userEditPermissionsDialog@@QAEXPAVQDialog@@@Z$14 00429261 f   userEditPermissionsDialog.obj
 0001:0002826c       __unwindfunclet$?setupUi@Ui_userEditPermissionsDialog@@QAEXPAVQDialog@@@Z$15 0042926c f   userEditPermissionsDialog.obj
 0001:00028277       __unwindfunclet$?setupUi@Ui_userEditPermissionsDialog@@QAEXPAVQDialog@@@Z$16 00429277 f   userEditPermissionsDialog.obj
 0001:00028280       __unwindfunclet$?setupUi@Ui_userEditPermissionsDialog@@QAEXPAVQDialog@@@Z$17 00429280 f   userEditPermissionsDialog.obj
 0001:0002828b       __unwindfunclet$?setupUi@Ui_userEditPermissionsDialog@@QAEXPAVQDialog@@@Z$18 0042928b f   userEditPermissionsDialog.obj
 0001:00028294       __unwindfunclet$?setupUi@Ui_userEditPermissionsDialog@@QAEXPAVQDialog@@@Z$19 00429294 f   userEditPermissionsDialog.obj
 0001:0002829f       __unwindfunclet$?setupUi@Ui_userEditPermissionsDialog@@QAEXPAVQDialog@@@Z$20 0042929f f   userEditPermissionsDialog.obj
 0001:000282aa       __unwindfunclet$?setupUi@Ui_userEditPermissionsDialog@@QAEXPAVQDialog@@@Z$21 004292aa f   userEditPermissionsDialog.obj
 0001:000282b3       __unwindfunclet$?setupUi@Ui_userEditPermissionsDialog@@QAEXPAVQDialog@@@Z$22 004292b3 f   userEditPermissionsDialog.obj
 0001:000282be       __unwindfunclet$?setupUi@Ui_userEditPermissionsDialog@@QAEXPAVQDialog@@@Z$23 004292be f   userEditPermissionsDialog.obj
 0001:000282c7       __unwindfunclet$?setupUi@Ui_userEditPermissionsDialog@@QAEXPAVQDialog@@@Z$24 004292c7 f   userEditPermissionsDialog.obj
 0001:000282d2       __unwindfunclet$?setupUi@Ui_userEditPermissionsDialog@@QAEXPAVQDialog@@@Z$25 004292d2 f   userEditPermissionsDialog.obj
 0001:000282db       __unwindfunclet$?setupUi@Ui_userEditPermissionsDialog@@QAEXPAVQDialog@@@Z$26 004292db f   userEditPermissionsDialog.obj
 0001:000282e6       __unwindfunclet$?setupUi@Ui_userEditPermissionsDialog@@QAEXPAVQDialog@@@Z$27 004292e6 f   userEditPermissionsDialog.obj
 0001:000282ef       __unwindfunclet$?setupUi@Ui_userEditPermissionsDialog@@QAEXPAVQDialog@@@Z$28 004292ef f   userEditPermissionsDialog.obj
 0001:000282fa       __unwindfunclet$?setupUi@Ui_userEditPermissionsDialog@@QAEXPAVQDialog@@@Z$29 004292fa f   userEditPermissionsDialog.obj
 0001:00028303       __ehhandler$?setupUi@Ui_userEditPermissionsDialog@@QAEXPAVQDialog@@@Z 00429303 f   userEditPermissionsDialog.obj
