 slinkServerdb

 Timestamp is 5e9dbc92 (Mon Apr 20 16:15:30 2020)

 Preferred load address is 00400000

 Start         Length     Name                   Class
 0001:00000000 0000623aH .text                   CODE
 0001:00006240 00002b0bH .text$di                CODE
 0001:00008d50 00073a25H .text$mn                CODE
 0001:0007c780 0000c8edH .text$x                 CODE
 0001:00089070 000018ffH .text$yd                CODE
 0002:00000000 00000104H .CRT$XCA                DATA
 0002:00000104 00000104H .CRT$XCAA               DATA
 0002:00000208 000002e6H .CRT$XCU                DATA
 0002:000004f0 00000104H .CRT$XCZ                DATA
 0002:000005f4 00000104H .CRT$XIA                DATA
 0002:000006f8 00000104H .CRT$XIAA               DATA
 0002:000007fc 00000104H .CRT$XIC                DATA
 0002:00000900 00000104H .CRT$XIY                DATA
 0002:00000a04 00000104H .CRT$XIZ                DATA
 0002:00000b10 000184f3H .rdata                  DATA
 0002:00019004 00000173H .rdata$debug            DATA
 0002:00019178 00001b3cH .rdata$r                DATA
 0002:0001acb4 00000104H .rtc$IAA                DATA
 0002:0001adb8 00000104H .rtc$IZZ                DATA
 0002:0001aebc 00000104H .rtc$TAA                DATA
 0002:0001afc0 00000104H .rtc$TZZ                DATA
 0002:0001b0c8 0000b56aH .xdata$x                DATA
 0002:00026632 00000000H .edata                  DATA
 0003:00000000 00000695H .data                   DATA
 0003:00000698 0000094dH .data$r                 DATA
 0003:00000fe8 00000724H .bss                    DATA
 0004:00000000 000012d0H .idata$5                DATA
 0004:000012d0 000000f0H .idata$2                DATA
 0004:000013c0 00000014H .idata$3                DATA
 0004:000013d4 000012d0H .idata$4                DATA
 0004:000026a4 0000a401H .idata$6                DATA
 0005:00000000 00000319H .rsrc$01                DATA
 0005:00000320 0000ad03H .rsrc$02                DATA

  Address         Publics by Value              Rva+Base       Lib:Object

 0000:00000000       ___guard_fids_count        00000000     <absolute>
 0000:00000000       ___safe_se_handler_table   00000000     <absolute>
 0000:00000000       ___guard_fids_table        00000000     <absolute>
 0000:00000000       __except_list              00000000     <absolute>
 0000:00000000       ___guard_flags             00000000     <absolute>
 0000:00000000       ___safe_se_handler_count   00000000     <absolute>
 0000:00009876       __ldused                   00009876     <absolute>
 0000:00009876       __fltused                  00009876     <absolute>
 0000:00000000       ___ImageBase               00400000     <linker-defined>
 0001:000060a9       _HtmlHelpA@16              004070a9 f   htmlhelp:init.obj
 0001:000061a1       _HtmlHelpW@16              004071a1 f   htmlhelp:init.obj
 0001:00008d50       ??0cBncsVersion@@QAE@PBD@Z 00409d50 f   cBncsVersion.obj
 0001:00009670       ??1cBncsVersion@@UAE@XZ    0040a670 f   cBncsVersion.obj
 0001:00009ac0       ??_EcBncsVersion@@UAEPAXI@Z 0040aac0 f i cBncsVersion.obj
 0001:00009ac0       ??_GcBncsVersion@@UAEPAXI@Z 0040aac0 f i cBncsVersion.obj
 0001:00009b00       ?strpbrk@@YAPADPADPBD@Z    0040ab00 f i cBncsVersion.obj
 0001:00009b60       ??0bncs_disklog@@QAE@PBDW4filetype@0@000000@Z 0040ab60 f   bncs_disklog.obj
 0001:00009bc0       ??0bncs_disklog@@QAE@PBDW4filetype@0@@Z 0040abc0 f   bncs_disklog.obj
 0001:00009c00       ?write@bncs_disklog@@QAEXPBD00000@Z 0040ac00 f   bncs_disklog.obj
 0001:00009ea0       ??1bncs_disklog@@UAE@XZ    0040aea0 f   bncs_disklog.obj
 0001:00009ec0       ?ref@bncs_disklog@@QAEPBDXZ 0040aec0 f   bncs_disklog.obj
 0001:00009ee0       ?clear@bncs_disklog@@QAEXXZ 0040aee0 f   bncs_disklog.obj
 0001:00009f20       ?openLogFile@bncs_disklog@@AAEXPBDW4filetype@1@@Z 0040af20 f   bncs_disklog.obj
 0001:0000a240       ?initVars@bncs_disklog@@AAEXXZ 0040b240 f   bncs_disklog.obj
 0001:0000a270       ?createDirectory@bncs_disklog@@AAEXPBD@Z 0040b270 f   bncs_disklog.obj
 0001:0000a370       ?cleanup@bncs_disklog@@AAEXXZ 0040b370 f   bncs_disklog.obj
 0001:0000a5c0       ??_Gbncs_disklog@@UAEPAXI@Z 0040b5c0 f i bncs_disklog.obj
 0001:0000a5c0       ??_Ebncs_disklog@@UAEPAXI@Z 0040b5c0 f i bncs_disklog.obj
 0001:0000a600       ??0ccCheck@@QAE@ABV?$basic_string@DU?$char_traits@D@std@@V?$allocator@D@2@@std@@@Z 0040b600 f   ccCheck.obj
 0001:0000a660       ??1ccCheck@@UAE@XZ         0040b660 f   ccCheck.obj
 0001:0000a680       ?setHeader@ccCheck@@QAEXABV?$basic_string@DU?$char_traits@D@std@@V?$allocator@D@2@@std@@@Z 0040b680 f   ccCheck.obj
 0001:0000a6a0       ?checkDevice@ccCheck@@QAE_NI@Z 0040b6a0 f   ccCheck.obj
 0001:0000a760       ?checkIndex@ccCheck@@QAE_NI@Z 0040b760 f   ccCheck.obj
 0001:0000a820       ?checkSource@ccCheck@@QAE_NH@Z 0040b820 f   ccCheck.obj
 0001:0000a8f0       ?checkRange@ccCheck@@QAE_NII@Z 0040b8f0 f   ccCheck.obj
 0001:0000a980       ?checkIndexRange@ccCheck@@QAE_NII@Z 0040b980 f   ccCheck.obj
 0001:0000aa50       ?checkDbIndexRange@ccCheck@@QAE_NII@Z 0040ba50 f   ccCheck.obj
 0001:0000aae0       ?checkDatabase@ccCheck@@QAE_NII@Z 0040bae0 f   ccCheck.obj
 0001:0000abd0       ?checkDatabase@ccCheck@@QAE_NI@Z 0040bbd0 f   ccCheck.obj
 0001:0000acd0       ?checkV1Database@ccCheck@@QAE_NI@Z 0040bcd0 f   ccCheck.obj
 0001:0000ad90       ?checkString@ccCheck@@QAE_NABV?$basic_string@DU?$char_traits@D@std@@V?$allocator@D@2@@std@@@Z 0040bd90 f   ccCheck.obj
 0001:0000ae30       ?checkString@ccCheck@@QAE_NABV?$basic_string@DU?$char_traits@D@std@@V?$allocator@D@2@@std@@I@Z 0040be30 f   ccCheck.obj
 0001:0000aed0       ?checkWorkstation@ccCheck@@QAE_NI@Z 0040bed0 f   ccCheck.obj
 0001:0000afd0       ?log@ccCheck@@QAEXABV?$basic_string@DU?$char_traits@D@std@@V?$allocator@D@2@@std@@@Z 0040bfd0 f   ccCheck.obj
 0001:0000b0b0       ?setMaxIndex@ccCheck@@QAEXI@Z 0040c0b0 f   ccCheck.obj
 0001:0000b0d0       ?setMaxSource@ccCheck@@QAEXH@Z 0040c0d0 f   ccCheck.obj
 0001:0000b0f0       ?setMaxDatabase@ccCheck@@QAEXI@Z 0040c0f0 f   ccCheck.obj
 0001:0000b110       ?setMaxDevice@ccCheck@@QAEXI@Z 0040c110 f   ccCheck.obj
 0001:0000b130       ?setMaxString@ccCheck@@QAEXI@Z 0040c130 f   ccCheck.obj
 0001:0000b430       ??$?8DD@std@@YA_NABV?$allocator@D@0@0@Z 0040c430 f i ccCheck.obj
 0001:0000b440       ??$?8V?$allocator@D@std@@V01@@std@@YA_NABU?$_Wrap_alloc@V?$allocator@D@std@@@0@0@Z 0040c440 f i ccCheck.obj
 0001:0000b480       ??$?9V?$allocator@D@std@@V01@@std@@YA_NABU?$_Wrap_alloc@V?$allocator@D@std@@@0@0@Z 0040c480 f i ccCheck.obj
 0001:0000b4c0       ??$?HDU?$char_traits@D@std@@V?$allocator@D@1@@std@@YA?AV?$basic_string@DU?$char_traits@D@std@@V?$allocator@D@2@@0@$$QAV10@ABV10@@Z 0040c4c0 f i ccCheck.obj
 0001:0000b510       ??$?HDU?$char_traits@D@std@@V?$allocator@D@1@@std@@YA?AV?$basic_string@DU?$char_traits@D@std@@V?$allocator@D@2@@0@$$QAV10@PBD@Z 0040c510 f i ccCheck.obj
 0001:0000b560       ??$?HDU?$char_traits@D@std@@V?$allocator@D@1@@std@@YA?AV?$basic_string@DU?$char_traits@D@std@@V?$allocator@D@2@@0@ABV10@PBD@Z 0040c560 f i ccCheck.obj
 0001:0000b650       ??$?HDU?$char_traits@D@std@@V?$allocator@D@1@@std@@YA?AV?$basic_string@DU?$char_traits@D@std@@V?$allocator@D@2@@0@PBDABV10@@Z 0040c650 f i ccCheck.obj
 0001:0000b740       ??$_Allocate@D@std@@YAPADIPAD@Z 0040c740 f i ccCheck.obj
 0001:0000b790       ??$_Allocate@U_Container_proxy@std@@@std@@YAPAU_Container_proxy@0@IPAU10@@Z 0040c790 f i ccCheck.obj
 0001:0000b7f0       ??$_Debug_pointer@D@std@@YAXPBDPB_WI@Z 0040c7f0 f i ccCheck.obj
 0001:0000b820       ??$addressof@D@std@@YAPADAAD@Z 0040c820 f i ccCheck.obj
 0001:0000b830       ??$construct@PADAAPAD@?$_Wrap_alloc@V?$allocator@D@std@@@std@@QAEXPAPADAAPAD@Z 0040c830 f i ccCheck.obj
 0001:0000b870       ??$construct@PADAAPAD@?$allocator@D@std@@QAEXPAPADAAPAD@Z 0040c870 f i ccCheck.obj
 0001:0000b920       ??$construct@PADAAPAD@?$allocator_traits@V?$allocator@D@std@@@std@@SAXAAV?$allocator@D@1@PAPADAAPAD@Z 0040c920 f i ccCheck.obj
 0001:0000b950       ??$construct@U_Container_proxy@std@@U12@@?$allocator@U_Container_proxy@std@@@std@@QAEXPAU_Container_proxy@1@$$QAU21@@Z 0040c950 f i ccCheck.obj
 0001:0000ba00       ??$destroy@PAD@?$_Wrap_alloc@V?$allocator@D@std@@@std@@QAEXPAPAD@Z 0040ca00 f i ccCheck.obj
 0001:0000ba30       ??$destroy@PAD@?$allocator@D@std@@QAEXPAPAD@Z 0040ca30 f i ccCheck.obj
 0001:0000ba40       ??$destroy@PAD@?$allocator_traits@V?$allocator@D@std@@@std@@SAXAAV?$allocator@D@1@PAPAD@Z 0040ca40 f i ccCheck.obj
 0001:0000ba60       ??$destroy@U_Container_proxy@std@@@?$allocator@U_Container_proxy@std@@@std@@QAEXPAU_Container_proxy@1@@Z 0040ca60 f i ccCheck.obj
 0001:0000ba70       ??$forward@AAPAD@std@@YAAAPADAAPAD@Z 0040ca70 f i ccCheck.obj
 0001:0000ba80       ??$forward@U_Container_proxy@std@@@std@@YA$$QAU_Container_proxy@0@AAU10@@Z 0040ca80 f i ccCheck.obj
 0001:0000ba90       ??$forward@V?$basic_string@DU?$char_traits@D@std@@V?$allocator@D@2@@std@@@std@@YA$$QAV?$basic_string@DU?$char_traits@D@std@@V?$allocator@D@2@@0@AAV10@@Z 0040ca90 f i ccCheck.obj
 0001:0000baa0       ??$move@AAV?$basic_string@DU?$char_traits@D@std@@V?$allocator@D@2@@std@@@std@@YA$$QAV?$basic_string@DU?$char_traits@D@std@@V?$allocator@D@2@@0@AAV10@@Z 0040caa0 f i ccCheck.obj
 0001:0000bab0       ??0?$_String_alloc@$0A@U?$_String_base_types@DV?$allocator@D@std@@@std@@@std@@QAE@ABV?$allocator@D@1@@Z 0040cab0 f i ccCheck.obj
 0001:0000bb20       ??0?$_String_val@U?$_Simple_types@D@std@@@std@@QAE@XZ 0040cb20 f i ccCheck.obj
 0001:0000bb60       ??0?$_Wrap_alloc@V?$allocator@D@std@@@std@@QAE@ABV?$allocator@D@1@@Z 0040cb60 f i ccCheck.obj
 0001:0000bb90       ??0?$_Wrap_alloc@V?$allocator@D@std@@@std@@QAE@XZ 0040cb90 f i ccCheck.obj
 0001:0000bbb0       ??0?$allocator@D@std@@QAE@ABV01@@Z 0040cbb0 f i ccCheck.obj
 0001:0000bbd0       ??0?$allocator@D@std@@QAE@XZ 0040cbd0 f i ccCheck.obj
 0001:0000bbf0       ??0?$allocator@U_Container_proxy@std@@@std@@QAE@XZ 0040cbf0 f i ccCheck.obj
 0001:0000bc10       ??0?$basic_string@DU?$char_traits@D@std@@V?$allocator@D@2@@std@@QAE@$$QAV01@@Z 0040cc10 f i ccCheck.obj
 0001:0000bc70       ??0?$basic_string@DU?$char_traits@D@std@@V?$allocator@D@2@@std@@QAE@ABV01@@Z 0040cc70 f i ccCheck.obj
 0001:0000bd20       ??0?$basic_string@DU?$char_traits@D@std@@V?$allocator@D@2@@std@@QAE@PBD@Z 0040cd20 f i ccCheck.obj
 0001:0000bdb0       ??0?$basic_string@DU?$char_traits@D@std@@V?$allocator@D@2@@std@@QAE@XZ 0040cdb0 f i ccCheck.obj
 0001:0000be30       ??0_Container_proxy@std@@QAE@XZ 0040ce30 f i ccCheck.obj
 0001:0000be60       ??0_Generic_error_category@std@@QAE@XZ 0040ce60 f i ccCheck.obj
 0001:0000be90       ??0_Iostream_error_category@std@@QAE@XZ 0040ce90 f i ccCheck.obj
 0001:0000bec0       ??0_System_error_category@std@@QAE@XZ 0040cec0 f i ccCheck.obj
 0001:0000bef0       ??0error_category@std@@QAE@XZ 0040cef0 f i ccCheck.obj
 0001:0000bf10       ??0error_condition@std@@QAE@HABVerror_category@1@@Z 0040cf10 f i ccCheck.obj
 0001:0000bf40       ??1?$_String_alloc@$0A@U?$_String_base_types@DV?$allocator@D@std@@@std@@@std@@QAE@XZ 0040cf40 f i ccCheck.obj
 0001:0000bf70       ??1?$_String_val@U?$_Simple_types@D@std@@@std@@QAE@XZ 0040cf70 f i ccCheck.obj
 0001:0000bf90       ??1?$basic_string@DU?$char_traits@D@std@@V?$allocator@D@2@@std@@QAE@XZ 0040cf90 f i ccCheck.obj
 0001:0000bfc0       ??1_Generic_error_category@std@@UAE@XZ 0040cfc0 f i ccCheck.obj
 0001:0000bfe0       ??1_Iostream_error_category@std@@UAE@XZ 0040cfe0 f i ccCheck.obj
 0001:0000c000       ??1_System_error_category@std@@UAE@XZ 0040d000 f i ccCheck.obj
 0001:0000c020       ??1error_category@std@@UAE@XZ 0040d020 f i ccCheck.obj
 0001:0000c040       ??2@YAPAXIPAX@Z            0040d040 f i ccCheck.obj
 0001:0000c050       ??3@YAXPAX0@Z              0040d050 f i ccCheck.obj
 0001:0000c060       ??4?$basic_string@DU?$char_traits@D@std@@V?$allocator@D@2@@std@@QAEAAV01@ABV01@@Z 0040d060 f i ccCheck.obj
 0001:0000c100       ??8error_category@std@@QBE_NABV01@@Z 0040d100 f i ccCheck.obj
 0001:0000c140       ??8error_condition@std@@QBE_NABV01@@Z 0040d140 f i ccCheck.obj
 0001:0000c1b0       ??Y?$basic_string@DU?$char_traits@D@std@@V?$allocator@D@2@@std@@QAEAAV01@ABV01@@Z 0040d1b0 f i ccCheck.obj
 0001:0000c1d0       ??Y?$basic_string@DU?$char_traits@D@std@@V?$allocator@D@2@@std@@QAEAAV01@PBD@Z 0040d1d0 f i ccCheck.obj
 0001:0000c1f0       ??_E_Generic_error_category@std@@UAEPAXI@Z 0040d1f0 f i ccCheck.obj
 0001:0000c1f0       ??_G_Generic_error_category@std@@UAEPAXI@Z 0040d1f0 f i ccCheck.obj
 0001:0000c230       ??_E_Iostream_error_category@std@@UAEPAXI@Z 0040d230 f i ccCheck.obj
 0001:0000c230       ??_G_Iostream_error_category@std@@UAEPAXI@Z 0040d230 f i ccCheck.obj
 0001:0000c270       ??_G_System_error_category@std@@UAEPAXI@Z 0040d270 f i ccCheck.obj
 0001:0000c270       ??_E_System_error_category@std@@UAEPAXI@Z 0040d270 f i ccCheck.obj
 0001:0000c2b0       ??_EccCheck@@UAEPAXI@Z     0040d2b0 f i ccCheck.obj
 0001:0000c2b0       ??_GccCheck@@UAEPAXI@Z     0040d2b0 f i ccCheck.obj
 0001:0000c2f0       ??_Gerror_category@std@@UAEPAXI@Z 0040d2f0 f i ccCheck.obj
 0001:0000c2f0       ??_Eerror_category@std@@UAEPAXI@Z 0040d2f0 f i ccCheck.obj
 0001:0000c330       ?_Alloc_proxy@?$_String_alloc@$0A@U?$_String_base_types@DV?$allocator@D@std@@@std@@@std@@QAEXXZ 0040d330 f i ccCheck.obj
 0001:0000c390       ?_Assign_rv@?$basic_string@DU?$char_traits@D@std@@V?$allocator@D@2@@std@@QAEX$$QAV12@@Z 0040d390 f i ccCheck.obj
 0001:0000c440       ?_Change_alloc@?$_String_alloc@$0A@U?$_String_base_types@DV?$allocator@D@std@@@std@@@std@@QAEXABU?$_Wrap_alloc@V?$allocator@D@std@@@2@@Z 0040d440 f i ccCheck.obj
 0001:0000c450       ?_Copy@?$basic_string@DU?$char_traits@D@std@@V?$allocator@D@2@@std@@QAEXII@Z 0040d450 f i ccCheck.obj
 0001:0000c680       ?_Eos@?$basic_string@DU?$char_traits@D@std@@V?$allocator@D@2@@std@@QAEXI@Z 0040d680 f i ccCheck.obj
 0001:0000c6d0       ?_Free_proxy@?$_String_alloc@$0A@U?$_String_base_types@DV?$allocator@D@std@@@std@@@std@@QAEXXZ 0040d6d0 f i ccCheck.obj
 0001:0000c730       ?_Getal@?$_String_alloc@$0A@U?$_String_base_types@DV?$allocator@D@std@@@std@@@std@@QBE?AU?$_Wrap_alloc@V?$allocator@D@std@@@2@XZ 0040d730 f i ccCheck.obj
 0001:0000c750       ?_Grow@?$basic_string@DU?$char_traits@D@std@@V?$allocator@D@2@@std@@QAE_NI_N@Z 0040d750 f i ccCheck.obj
 0001:0000c820       ?_Inside@?$basic_string@DU?$char_traits@D@std@@V?$allocator@D@2@@std@@QAE_NPBD@Z 0040d820 f i ccCheck.obj
 0001:0000c870       ?_Myptr@?$_String_val@U?$_Simple_types@D@std@@@std@@QAEPADXZ 0040d870 f i ccCheck.obj
 0001:0000c8c0       ?_Myptr@?$_String_val@U?$_Simple_types@D@std@@@std@@QBEPBDXZ 0040d8c0 f i ccCheck.obj
 0001:0000c910       ?_Tidy@?$basic_string@DU?$char_traits@D@std@@V?$allocator@D@2@@std@@QAEX_NI@Z 0040d910 f i ccCheck.obj
 0001:0000c9e0       ?_Xlen@?$basic_string@DU?$char_traits@D@std@@V?$allocator@D@2@@std@@QBEXXZ 0040d9e0 f i ccCheck.obj
 0001:0000ca00       ?_Xran@?$basic_string@DU?$char_traits@D@std@@V?$allocator@D@2@@std@@QBEXXZ 0040da00 f i ccCheck.obj
 0001:0000ca20       ?allocate@?$_Wrap_alloc@V?$allocator@D@std@@@std@@QAEPADI@Z 0040da20 f i ccCheck.obj
 0001:0000ca40       ?allocate@?$allocator@D@std@@QAEPADI@Z 0040da40 f i ccCheck.obj
 0001:0000ca70       ?allocate@?$allocator@U_Container_proxy@std@@@std@@QAEPAU_Container_proxy@2@I@Z 0040da70 f i ccCheck.obj
 0001:0000caa0       ?append@?$basic_string@DU?$char_traits@D@std@@V?$allocator@D@2@@std@@QAEAAV12@ABV12@@Z 0040daa0 f i ccCheck.obj
 0001:0000cad0       ?append@?$basic_string@DU?$char_traits@D@std@@V?$allocator@D@2@@std@@QAEAAV12@ABV12@II@Z 0040dad0 f i ccCheck.obj
 0001:0000cbc0       ?append@?$basic_string@DU?$char_traits@D@std@@V?$allocator@D@2@@std@@QAEAAV12@PBD@Z 0040dbc0 f i ccCheck.obj
 0001:0000cc10       ?append@?$basic_string@DU?$char_traits@D@std@@V?$allocator@D@2@@std@@QAEAAV12@PBDI@Z 0040dc10 f i ccCheck.obj
 0001:0000cd10       ?assign@?$basic_string@DU?$char_traits@D@std@@V?$allocator@D@2@@std@@QAEAAV12@ABV12@@Z 0040dd10 f i ccCheck.obj
 0001:0000cd40       ?assign@?$basic_string@DU?$char_traits@D@std@@V?$allocator@D@2@@std@@QAEAAV12@ABV12@II@Z 0040dd40 f i ccCheck.obj
 0001:0000ce20       ?assign@?$basic_string@DU?$char_traits@D@std@@V?$allocator@D@2@@std@@QAEAAV12@PBD@Z 0040de20 f i ccCheck.obj
 0001:0000ce70       ?assign@?$basic_string@DU?$char_traits@D@std@@V?$allocator@D@2@@std@@QAEAAV12@PBDI@Z 0040de70 f i ccCheck.obj
 0001:0000cf30       ?assign@?$char_traits@D@std@@SAXAADABD@Z 0040df30 f i ccCheck.obj
 0001:0000cf50       ?c_str@?$basic_string@DU?$char_traits@D@std@@V?$allocator@D@2@@std@@QBEPBDXZ 0040df50 f i ccCheck.obj
 0001:0000cf70       ?category@error_code@std@@QBEABVerror_category@2@XZ 0040df70 f i ccCheck.obj
 0001:0000cf90       ?category@error_condition@std@@QBEABVerror_category@2@XZ 0040df90 f i ccCheck.obj
 0001:0000cfb0       ?copy@?$char_traits@D@std@@SAPADPADPBDI@Z 0040dfb0 f i ccCheck.obj
 0001:0000cff0       ?deallocate@?$_Wrap_alloc@V?$allocator@D@std@@@std@@QAEXPADI@Z 0040dff0 f i ccCheck.obj
 0001:0000d020       ?deallocate@?$allocator@D@std@@QAEXPADI@Z 0040e020 f i ccCheck.obj
 0001:0000d040       ?deallocate@?$allocator@U_Container_proxy@std@@@std@@QAEXPAU_Container_proxy@2@I@Z 0040e040 f i ccCheck.obj
 0001:0000d060       ?default_error_condition@_System_error_category@std@@UBE?AVerror_condition@2@H@Z 0040e060 f i ccCheck.obj
 0001:0000d0c0       ?default_error_condition@error_category@std@@UBE?AVerror_condition@2@H@Z 0040e0c0 f i ccCheck.obj
 0001:0000d0f0       ?equivalent@error_category@std@@UBE_NABVerror_code@2@H@Z 0040e0f0 f i ccCheck.obj
 0001:0000d150       ?equivalent@error_category@std@@UBE_NHABVerror_condition@2@@Z 0040e150 f i ccCheck.obj
 0001:0000d190       ?erase@?$basic_string@DU?$char_traits@D@std@@V?$allocator@D@2@@std@@QAEAAV12@I@Z 0040e190 f i ccCheck.obj
 0001:0000d1d0       ?erase@?$basic_string@DU?$char_traits@D@std@@V?$allocator@D@2@@std@@QAEAAV12@II@Z 0040e1d0 f i ccCheck.obj
 0001:0000d280       ?generic_category@std@@YAABVerror_category@1@XZ 0040e280 f i ccCheck.obj
 0001:0000d290       ?length@?$basic_string@DU?$char_traits@D@std@@V?$allocator@D@2@@std@@QBEIXZ 0040e290 f i ccCheck.obj
 0001:0000d2b0       ?length@?$char_traits@D@std@@SAIPBD@Z 0040e2b0 f i ccCheck.obj
 0001:0000d2f0       ?max_size@?$_Wrap_alloc@V?$allocator@D@std@@@std@@QBEIXZ 0040e2f0 f i ccCheck.obj
 0001:0000d310       ?max_size@?$allocator@D@std@@QBEIXZ 0040e310 f i ccCheck.obj
 0001:0000d330       ?max_size@?$allocator_traits@V?$allocator@D@std@@@std@@SAIABV?$allocator@D@2@@Z 0040e330 f i ccCheck.obj
 0001:0000d340       ?max_size@?$basic_string@DU?$char_traits@D@std@@V?$allocator@D@2@@std@@QBEIXZ 0040e340 f i ccCheck.obj
 0001:0000d390       ?message@_Generic_error_category@std@@UBE?AV?$basic_string@DU?$char_traits@D@std@@V?$allocator@D@2@@2@H@Z 0040e390 f i ccCheck.obj
 0001:0000d400       ?message@_Iostream_error_category@std@@UBE?AV?$basic_string@DU?$char_traits@D@std@@V?$allocator@D@2@@2@H@Z 0040e400 f i ccCheck.obj
 0001:0000d470       ?message@_System_error_category@std@@UBE?AV?$basic_string@DU?$char_traits@D@std@@V?$allocator@D@2@@2@H@Z 0040e470 f i ccCheck.obj
 0001:0000d4e0       ?move@?$char_traits@D@std@@SAPADPADPBDI@Z 0040e4e0 f i ccCheck.obj
 0001:0000d520       ?name@_Generic_error_category@std@@UBEPBDXZ 0040e520 f i ccCheck.obj
 0001:0000d540       ?name@_Iostream_error_category@std@@UBEPBDXZ 0040e540 f i ccCheck.obj
 0001:0000d560       ?name@_System_error_category@std@@UBEPBDXZ 0040e560 f i ccCheck.obj
 0001:0000d580       ?reserve@?$basic_string@DU?$char_traits@D@std@@V?$allocator@D@2@@std@@QAEXI@Z 0040e580 f i ccCheck.obj
 0001:0000d5f0       ?select_on_container_copy_construction@?$_Wrap_alloc@V?$allocator@D@std@@@std@@QBE?AU12@XZ 0040e5f0 f i ccCheck.obj
 0001:0000d630       ?select_on_container_copy_construction@?$allocator@D@std@@QBE?AV12@XZ 0040e630 f i ccCheck.obj
 0001:0000d660       ?select_on_container_copy_construction@?$allocator_traits@V?$allocator@D@std@@@std@@SA?AV?$allocator@D@2@ABV32@@Z 0040e660 f i ccCheck.obj
 0001:0000d680       ?size@?$basic_string@DU?$char_traits@D@std@@V?$allocator@D@2@@std@@QBEIXZ 0040e680 f i ccCheck.obj
 0001:0000d6a0       ?system_category@std@@YAABVerror_category@1@XZ 0040e6a0 f i ccCheck.obj
 0001:0000d6b0       ?value@error_code@std@@QBEHXZ 0040e6b0 f i ccCheck.obj
 0001:0000d6d0       ?value@error_condition@std@@QBEHXZ 0040e6d0 f i ccCheck.obj
 0001:0000d6f0       _hypot                     0040e6f0 f i ccCheck.obj
 0001:0000d730       ??0ccClient@@QAE@PAVIccClientCallback@@ABV?$basic_string@DU?$char_traits@D@std@@V?$allocator@D@2@@std@@@Z 0040e730 f   ccClient.obj
 0001:0000d930       ??1ccClient@@UAE@XZ        0040e930 f   ccClient.obj
 0001:0000da10       ?version@ccClient@@QAEJXZ  0040ea10 f   ccClient.obj
 0001:0000da20       ?routerCrosspoint@ccClient@@QAEXHHHABV?$basic_string@DU?$char_traits@D@std@@V?$allocator@D@2@@std@@_NH@Z 0040ea20 f   ccClient.obj
 0001:0000db70       ?routerPoll@ccClient@@QAEXHHH_N@Z 0040eb70 f   ccClient.obj
 0001:0000dba0       ?routerQuery@ccClient@@QAEXHHH_N@Z 0040eba0 f   ccClient.obj
 0001:0000dbd0       ?routerLock@ccClient@@QAEXHHH_N0H@Z 0040ebd0 f   ccClient.obj
 0001:0000dc10       ?routerFile@ccClient@@QAEXH@Z 0040ec10 f   ccClient.obj
 0001:0000dc40       ?infoWrite@ccClient@@QAEXHHABV?$basic_string@DU?$char_traits@D@std@@V?$allocator@D@2@@std@@_NH@Z 0040ec40 f   ccClient.obj
 0001:0000dd90       ?infoPoll@ccClient@@QAEXHHH_N@Z 0040ed90 f   ccClient.obj
 0001:0000ddc0       ?infoQuery@ccClient@@QAEXHHH_N@Z 0040edc0 f   ccClient.obj
 0001:0000ddf0       ?infoLock@ccClient@@QAEXHHH_N0H@Z 0040edf0 f   ccClient.obj
 0001:0000de30       ?gpiSwitch@ccClient@@QAEXHH_N0H@Z 0040ee30 f   ccClient.obj
 0001:0000dfa0       ?gpiFile@ccClient@@QAEXH@Z 0040efa0 f   ccClient.obj
 0001:0000dfd0       ?gpiLock@ccClient@@QAEXHHH_N0H@Z 0040efd0 f   ccClient.obj
 0001:0000e010       ?gpiPoll@ccClient@@QAEXHHH_N@Z 0040f010 f   ccClient.obj
 0001:0000e040       ?gpiQuery@ccClient@@QAEXHHH_N@Z 0040f040 f   ccClient.obj
 0001:0000e070       ?deviceMessage@ccClient@@QAEXHHABV?$basic_string@DU?$char_traits@D@std@@V?$allocator@D@2@@std@@H@Z 0040f070 f   ccClient.obj
 0001:0000e170       ?deviceProfile@ccClient@@QAEXHAAH00AAV?$basic_string@DU?$char_traits@D@std@@V?$allocator@D@2@@std@@@Z 0040f170 f   ccClient.obj
 0001:0000e320       ?databaseName@ccClient@@QAE_NHHHAAV?$basic_string@DU?$char_traits@D@std@@V?$allocator@D@2@@std@@@Z 0040f320 f   ccClient.obj
 0001:0000e420       ?databaseIndex@ccClient@@QAEHHHABV?$basic_string@DU?$char_traits@D@std@@V?$allocator@D@2@@std@@@Z 0040f420 f   ccClient.obj
 0001:0000e5b0       ?databaseModify@ccClient@@QAE_NHHHABV?$basic_string@DU?$char_traits@D@std@@V?$allocator@D@2@@std@@_N1H@Z 0040f5b0 f   ccClient.obj
 0001:0000e770       ?revertiveRegister@ccClient@@QAEXHHH_NH@Z 0040f770 f   ccClient.obj
 0001:0000e800       ?revertiveDeregister@ccClient@@QAEXHHH@Z 0040f800 f   ccClient.obj
 0001:0000e8a0       ?revertiveDeregisterAll@ccClient@@QAEXXZ 0040f8a0 f   ccClient.obj
 0001:0000e8d0       ?cacheValue@ccClient@@QAE_NHHAAV?$basic_string@DU?$char_traits@D@std@@V?$allocator@D@2@@std@@PAH@Z 0040f8d0 f   ccClient.obj
 0001:0000e9e0       ?cacheIndex@ccClient@@QAEHHHHABV?$basic_string@DU?$char_traits@D@std@@V?$allocator@D@2@@std@@@Z 0040f9e0 f   ccClient.obj
 0001:0000eae0       ?cacheEnable@ccClient@@QAEX_N@Z 0040fae0 f   ccClient.obj
 0001:0000eb10       ?cacheTest@ccClient@@QAE_NHHH@Z 0040fb10 f   ccClient.obj
 0001:0000ebb0       ?cacheFlush@ccClient@@QAEXH@Z 0040fbb0 f   ccClient.obj
 0001:0000ebf0       ?isCacheEnabled@ccClient@@QAE_NXZ 0040fbf0 f   ccClient.obj
 0001:0000ec30       ?connect@ccClient@@QAE_NW4ipcType@cc@@J@Z 0040fc30 f   ccClient.obj
 0001:0000efc0       ?isConnected@ccClient@@QAE_NXZ 0040ffc0 f   ccClient.obj
 0001:0000eff0       ?disconnect@ccClient@@QAE_NXZ 0040fff0 f   ccClient.obj
 0001:0000f080       ?writeEnable@ccClient@@QAEX_N@Z 00410080 f   ccClient.obj
 0001:0000f0a0       ?isWriteEnabled@ccClient@@QAE_NXZ 004100a0 f   ccClient.obj
 0001:0000f0c0       ?setCloseHostOnExit@ccClient@@QAEX_N@Z 004100c0 f   ccClient.obj
 0001:0000f0e0       ?counters@ccClient@@QAE_NAAI0@Z 004100e0 f   ccClient.obj
 0001:0000f150       ?resetCounters@ccClient@@QAEXXZ 00410150 f   ccClient.obj
 0001:0000f190       ?setCallback@ccClient@@QAEXPAVIccClientCallback@@@Z 00410190 f   ccClient.obj
 0001:0000f1b0       ?getClientRegistrationExtent@ccClient@@QAE_NHAAH0@Z 004101b0 f   ccClient.obj
 0001:0000f220       ?sendBufferedCommands@ccClient@@QAEXXZ 00410220 f   ccClient.obj
 0001:0000f250       ?registerForNetMessage@ccClient@@QAEXXZ 00410250 f   ccClient.obj
 0001:0000f280       ?deregisterForNetMessage@ccClient@@QAEXXZ 00410280 f   ccClient.obj
 0001:0000f2b0       ?registerForConfigChangeMessage@ccClient@@QAEXXZ 004102b0 f   ccClient.obj
 0001:0000f2e0       ?deregisterForConfigChangeMessage@ccClient@@QAEXXZ 004102e0 f   ccClient.obj
 0001:0000f310       ?sendConfigChangeMessage@ccClient@@QAEXABV?$basic_string@DU?$char_traits@D@std@@V?$allocator@D@2@@std@@@Z 00410310 f   ccClient.obj
 0001:0000f350       ?flushDatabaseCache@ccClient@@QAEXH@Z 00410350 f   ccClient.obj
 0001:0000f380       ?maxDevices@ccClient@@QAEIXZ 00410380 f   ccClient.obj
 0001:0000f3c0       ?maxIndexes@ccClient@@QAEIXZ 004103c0 f   ccClient.obj
 0001:0000f400       ?maxSources@ccClient@@QAEIXZ 00410400 f   ccClient.obj
 0001:0000f440       ?maxDatabases@ccClient@@QAEIXZ 00410440 f   ccClient.obj
 0001:0000f480       ?maxString@ccClient@@QAEIXZ 00410480 f   ccClient.obj
 0001:0000f4c0       ?workstation@ccClient@@QAEHXZ 004104c0 f   ccClient.obj
 0001:0000f4e0       ?WndProc@ccClient@@CGJPAUHWND__@@IIJ@Z 004104e0 f   ccClient.obj
 0001:00010500       ?BNCSSendMessage@ccClient@@AAEJIIJHHH@Z 00411500 f   ccClient.obj
 0001:00010590       ?deviceQuery@ccClient@@AAEXDHHH_N@Z 00411590 f   ccClient.obj
 0001:00010750       ?devicePoll@ccClient@@AAEXDHHH_N@Z 00411750 f   ccClient.obj
 0001:00010910       ?deviceLock@ccClient@@AAEXDHHH_N0H@Z 00411910 f   ccClient.obj
 0001:00010b20       ?deviceFile@ccClient@@AAEXDH@Z 00411b20 f   ccClient.obj
 0001:000119c0       ??$?0U?$_Wrap_alloc@V?$allocator@V?$basic_string@DU?$char_traits@D@std@@V?$allocator@D@2@@std@@@std@@@std@@@?$_Wrap_alloc@V?$allocator@PAV?$basic_string@DU?$char_traits@D@std@@V?$allocator@D@2@@std@@@std@@@std@@QAE@ABU?$_Wrap_alloc@V?$allocator@V?$basic_string@DU?$char_traits@D@std@@V?$allocator@D@2@@std@@@std@@@1@@Z 004129c0 f i ccClient.obj
 0001:000119f0       ??$?0V?$basic_string@DU?$char_traits@D@std@@V?$allocator@D@2@@std@@@?$allocator@PAV?$basic_string@DU?$char_traits@D@std@@V?$allocator@D@2@@std@@@std@@QAE@ABV?$allocator@V?$basic_string@DU?$char_traits@D@std@@V?$allocator@D@2@@std@@@1@@Z 004129f0 f i ccClient.obj
 0001:00011a10       ??$_Allocate@PAV?$basic_string@DU?$char_traits@D@std@@V?$allocator@D@2@@std@@@std@@YAPAPAV?$basic_string@DU?$char_traits@D@std@@V?$allocator@D@2@@0@IPAPAV10@@Z 00412a10 f i ccClient.obj
 0001:00011a70       ??$_Allocate@V?$basic_string@DU?$char_traits@D@std@@V?$allocator@D@2@@std@@@std@@YAPAV?$basic_string@DU?$char_traits@D@std@@V?$allocator@D@2@@0@IPAV10@@Z 00412a70 f i ccClient.obj
 0001:00011ac0       ??$_Debug_pointer@PAV?$basic_string@DU?$char_traits@D@std@@V?$allocator@D@2@@std@@@std@@YAXPAPAV?$basic_string@DU?$char_traits@D@std@@V?$allocator@D@2@@0@PB_WI@Z 00412ac0 f i ccClient.obj
 0001:00011af0       ??$_Debug_range2@PAPAV?$basic_string@DU?$char_traits@D@std@@V?$allocator@D@2@@std@@@std@@YAXPAPAV?$basic_string@DU?$char_traits@D@std@@V?$allocator@D@2@@0@0PB_WIUrandom_access_iterator_tag@0@@Z 00412af0 f i ccClient.obj
 0001:00011b60       ??$_Debug_range@PAPAV?$basic_string@DU?$char_traits@D@std@@V?$allocator@D@2@@std@@@std@@YAXPAPAV?$basic_string@DU?$char_traits@D@std@@V?$allocator@D@2@@0@0PB_WI@Z 00412b60 f i ccClient.obj
 0001:00011bb0       ??$_Destroy_range@U?$_Wrap_alloc@V?$allocator@PAV?$basic_string@DU?$char_traits@D@std@@V?$allocator@D@2@@std@@@std@@@std@@@std@@YAXPAPAV?$basic_string@DU?$char_traits@D@std@@V?$allocator@D@2@@0@0AAU?$_Wrap_alloc@V?$allocator@PAV?$basic_string@DU?$char_traits@D@std@@V?$allocator@D@2@@std@@@std@@@0@@Z 00412bb0 f i ccClient.obj
 0001:00011c00       ??$_Destroy_range@U?$_Wrap_alloc@V?$allocator@PAV?$basic_string@DU?$char_traits@D@std@@V?$allocator@D@2@@std@@@std@@@std@@@std@@YAXPAPAV?$basic_string@DU?$char_traits@D@std@@V?$allocator@D@2@@0@0AAU?$_Wrap_alloc@V?$allocator@PAV?$basic_string@DU?$char_traits@D@std@@V?$allocator@D@2@@std@@@std@@@0@U_Scalar_ptr_iterator_tag@0@@Z 00412c00 f i ccClient.obj
 0001:00011c10       ??$_Fill_n@PAPAV?$basic_string@DU?$char_traits@D@std@@V?$allocator@D@2@@std@@IPAV12@@std@@YAPAPAV?$basic_string@DU?$char_traits@D@std@@V?$allocator@D@2@@0@PAPAV10@IABQAV10@@Z 00412c10 f i ccClient.obj
 0001:00011c50       ??$_Iter_cat@PAPAV?$basic_string@DU?$char_traits@D@std@@V?$allocator@D@2@@std@@@std@@YA?AUrandom_access_iterator_tag@0@ABQAPAV?$basic_string@DU?$char_traits@D@std@@V?$allocator@D@2@@0@@Z 00412c50 f i ccClient.obj
 0001:00011c70       ??$_Ptr_cat@PAV?$basic_string@DU?$char_traits@D@std@@V?$allocator@D@2@@std@@PAV12@@std@@YA?AU_Scalar_ptr_iterator_tag@0@PAPAV?$basic_string@DU?$char_traits@D@std@@V?$allocator@D@2@@0@0@Z 00412c70 f i ccClient.obj
 0001:00011c80       ??$_Rechecked@PAPAV?$basic_string@DU?$char_traits@D@std@@V?$allocator@D@2@@std@@PAPAV12@@std@@YAAAPAPAV?$basic_string@DU?$char_traits@D@std@@V?$allocator@D@2@@0@AAPAPAV10@PAPAV10@@Z 00412c80 f i ccClient.obj
 0001:00011ca0       ??$_Unchecked@PAPAV?$basic_string@DU?$char_traits@D@std@@V?$allocator@D@2@@std@@@std@@YAPAPAV?$basic_string@DU?$char_traits@D@std@@V?$allocator@D@2@@0@PAPAV10@@Z 00412ca0 f i ccClient.obj
 0001:00011cb0       ??$_Uninit_copy@PAPAV?$basic_string@DU?$char_traits@D@std@@V?$allocator@D@2@@std@@PAPAV12@U?$_Wrap_alloc@V?$allocator@PAV?$basic_string@DU?$char_traits@D@std@@V?$allocator@D@2@@std@@@std@@@2@@std@@YAPAPAV?$basic_string@DU?$char_traits@D@std@@V?$allocator@D@2@@0@PAPAV10@00AAU?$_Wrap_alloc@V?$allocator@PAV?$basic_string@DU?$char_traits@D@std@@V?$allocator@D@2@@std@@@std@@@0@@Z 00412cb0 f i ccClient.obj
 0001:00011d00       ??$_Uninit_copy@PAV?$basic_string@DU?$char_traits@D@std@@V?$allocator@D@2@@std@@PAV12@@std@@YAPAPAV?$basic_string@DU?$char_traits@D@std@@V?$allocator@D@2@@0@PAPAV10@00AAU?$_Wrap_alloc@V?$allocator@PAV?$basic_string@DU?$char_traits@D@std@@V?$allocator@D@2@@std@@@std@@@0@U_Scalar_ptr_iterator_tag@0@@Z 00412d00 f i ccClient.obj
 0001:00011d80       ??$_Uninit_def_fill_n@PAV?$basic_string@DU?$char_traits@D@std@@V?$allocator@D@2@@std@@IPAV12@@std@@YAXPAPAV?$basic_string@DU?$char_traits@D@std@@V?$allocator@D@2@@0@IAAU?$_Wrap_alloc@V?$allocator@PAV?$basic_string@DU?$char_traits@D@std@@V?$allocator@D@2@@std@@@std@@@0@0U_Scalar_ptr_iterator_tag@0@@Z 00412d80 f i ccClient.obj
 0001:00011db0       ??$_Uninitialized_copy@PAPAV?$basic_string@DU?$char_traits@D@std@@V?$allocator@D@2@@std@@PAPAV12@U?$_Wrap_alloc@V?$allocator@PAV?$basic_string@DU?$char_traits@D@std@@V?$allocator@D@2@@std@@@std@@@2@@std@@YAPAPAV?$basic_string@DU?$char_traits@D@std@@V?$allocator@D@2@@0@PAPAV10@00AAU?$_Wrap_alloc@V?$allocator@PAV?$basic_string@DU?$char_traits@D@std@@V?$allocator@D@2@@std@@@std@@@0@@Z 00412db0 f i ccClient.obj
 0001:00011e10       ??$_Uninitialized_default_fill_n@PAPAV?$basic_string@DU?$char_traits@D@std@@V?$allocator@D@2@@std@@IU?$_Wrap_alloc@V?$allocator@PAV?$basic_string@DU?$char_traits@D@std@@V?$allocator@D@2@@std@@@std@@@2@@std@@YAXPAPAV?$basic_string@DU?$char_traits@D@std@@V?$allocator@D@2@@0@IAAU?$_Wrap_alloc@V?$allocator@PAV?$basic_string@DU?$char_traits@D@std@@V?$allocator@D@2@@std@@@std@@@0@@Z 00412e10 f i ccClient.obj
 0001:00011e70       ??$_Val_type@PAPAV?$basic_string@DU?$char_traits@D@std@@V?$allocator@D@2@@std@@@std@@YAPAPAV?$basic_string@DU?$char_traits@D@std@@V?$allocator@D@2@@0@PAPAV10@@Z 00412e70 f i ccClient.obj
 0001:00011e80       ??$construct@U_Container_proxy@std@@U12@@?$_Wrap_alloc@V?$allocator@U_Container_proxy@std@@@std@@@std@@QAEXPAU_Container_proxy@1@$$QAU21@@Z 00412e80 f i ccClient.obj
 0001:00011ec0       ??$construct@U_Container_proxy@std@@U12@@?$allocator_traits@V?$allocator@U_Container_proxy@std@@@std@@@std@@SAXAAV?$allocator@U_Container_proxy@std@@@1@PAU_Container_proxy@1@$$QAU31@@Z 00412ec0 f i ccClient.obj
 0001:00011ef0       ??$construct@V?$basic_string@DU?$char_traits@D@std@@V?$allocator@D@2@@std@@ABV12@@?$_Wrap_alloc@V?$allocator@V?$basic_string@DU?$char_traits@D@std@@V?$allocator@D@2@@std@@@std@@@std@@QAEXPAV?$basic_string@DU?$char_traits@D@std@@V?$allocator@D@2@@1@ABV21@@Z 00412ef0 f i ccClient.obj
 0001:00011f30       ??$construct@V?$basic_string@DU?$char_traits@D@std@@V?$allocator@D@2@@std@@ABV12@@?$allocator_traits@V?$allocator@V?$basic_string@DU?$char_traits@D@std@@V?$allocator@D@2@@std@@@std@@@std@@SAXAAV?$allocator@V?$basic_string@DU?$char_traits@D@std@@V?$allocator@D@2@@std@@@1@PAV?$basic_string@DU?$char_traits@D@std@@V?$allocator@D@2@@1@ABV31@@Z 00412f30 f i ccClient.obj
 0001:00011f60       ??$construct@V?$basic_string@DU?$char_traits@D@std@@V?$allocator@D@2@@std@@V12@@?$_Wrap_alloc@V?$allocator@V?$basic_string@DU?$char_traits@D@std@@V?$allocator@D@2@@std@@@std@@@std@@QAEXPAV?$basic_string@DU?$char_traits@D@std@@V?$allocator@D@2@@1@$$QAV21@@Z 00412f60 f i ccClient.obj
 0001:00011fa0       ??$construct@V?$basic_string@DU?$char_traits@D@std@@V?$allocator@D@2@@std@@V12@@?$allocator@V?$basic_string@DU?$char_traits@D@std@@V?$allocator@D@2@@std@@@std@@QAEXPAV?$basic_string@DU?$char_traits@D@std@@V?$allocator@D@2@@1@$$QAV21@@Z 00412fa0 f i ccClient.obj
 0001:00012050       ??$construct@V?$basic_string@DU?$char_traits@D@std@@V?$allocator@D@2@@std@@V12@@?$allocator_traits@V?$allocator@V?$basic_string@DU?$char_traits@D@std@@V?$allocator@D@2@@std@@@std@@@std@@SAXAAV?$allocator@V?$basic_string@DU?$char_traits@D@std@@V?$allocator@D@2@@std@@@1@PAV?$basic_string@DU?$char_traits@D@std@@V?$allocator@D@2@@1@$$QAV31@@Z 00413050 f i ccClient.obj
 0001:00012080       ??$destroy@PAV?$basic_string@DU?$char_traits@D@std@@V?$allocator@D@2@@std@@@?$_Wrap_alloc@V?$allocator@V?$basic_string@DU?$char_traits@D@std@@V?$allocator@D@2@@std@@@std@@@std@@QAEXPAPAV?$basic_string@DU?$char_traits@D@std@@V?$allocator@D@2@@1@@Z 00413080 f i ccClient.obj
 0001:000120b0       ??$destroy@PAV?$basic_string@DU?$char_traits@D@std@@V?$allocator@D@2@@std@@@?$allocator@V?$basic_string@DU?$char_traits@D@std@@V?$allocator@D@2@@std@@@std@@QAEXPAPAV?$basic_string@DU?$char_traits@D@std@@V?$allocator@D@2@@1@@Z 004130b0 f i ccClient.obj
 0001:000120c0       ??$destroy@PAV?$basic_string@DU?$char_traits@D@std@@V?$allocator@D@2@@std@@@?$allocator_traits@V?$allocator@V?$basic_string@DU?$char_traits@D@std@@V?$allocator@D@2@@std@@@std@@@std@@SAXAAV?$allocator@V?$basic_string@DU?$char_traits@D@std@@V?$allocator@D@2@@std@@@1@PAPAV?$basic_string@DU?$char_traits@D@std@@V?$allocator@D@2@@1@@Z 004130c0 f i ccClient.obj
 0001:000120e0       ??$destroy@U_Container_proxy@std@@@?$_Wrap_alloc@V?$allocator@U_Container_proxy@std@@@std@@@std@@QAEXPAU_Container_proxy@1@@Z 004130e0 f i ccClient.obj
 0001:00012110       ??$destroy@U_Container_proxy@std@@@?$allocator_traits@V?$allocator@U_Container_proxy@std@@@std@@@std@@SAXAAV?$allocator@U_Container_proxy@std@@@1@PAU_Container_proxy@1@@Z 00413110 f i ccClient.obj
 0001:00012130       ??$destroy@V?$basic_string@DU?$char_traits@D@std@@V?$allocator@D@2@@std@@@?$_Wrap_alloc@V?$allocator@V?$basic_string@DU?$char_traits@D@std@@V?$allocator@D@2@@std@@@std@@@std@@QAEXPAV?$basic_string@DU?$char_traits@D@std@@V?$allocator@D@2@@1@@Z 00413130 f i ccClient.obj
 0001:00012160       ??$destroy@V?$basic_string@DU?$char_traits@D@std@@V?$allocator@D@2@@std@@@?$allocator@V?$basic_string@DU?$char_traits@D@std@@V?$allocator@D@2@@std@@@std@@QAEXPAV?$basic_string@DU?$char_traits@D@std@@V?$allocator@D@2@@1@@Z 00413160 f i ccClient.obj
 0001:00012180       ??$destroy@V?$basic_string@DU?$char_traits@D@std@@V?$allocator@D@2@@std@@@?$allocator_traits@V?$allocator@V?$basic_string@DU?$char_traits@D@std@@V?$allocator@D@2@@std@@@std@@@std@@SAXAAV?$allocator@V?$basic_string@DU?$char_traits@D@std@@V?$allocator@D@2@@std@@@1@PAV?$basic_string@DU?$char_traits@D@std@@V?$allocator@D@2@@1@@Z 00413180 f i ccClient.obj
 0001:000121a0       ??$forward@ABV?$basic_string@DU?$char_traits@D@std@@V?$allocator@D@2@@std@@@std@@YAABV?$basic_string@DU?$char_traits@D@std@@V?$allocator@D@2@@0@ABV10@@Z 004131a0 f i ccClient.obj
 0001:000121b0       ??0?$_Deque_alloc@$0A@U?$_Deque_base_types@V?$basic_string@DU?$char_traits@D@std@@V?$allocator@D@2@@std@@V?$allocator@V?$basic_string@DU?$char_traits@D@std@@V?$allocator@D@2@@std@@@2@@std@@@std@@QAE@ABV?$allocator@V?$basic_string@DU?$char_traits@D@std@@V?$allocator@D@2@@std@@@1@@Z 004131b0 f i ccClient.obj
 0001:00012220       ??0?$_Deque_const_iterator@V?$_Deque_val@U?$_Deque_simple_types@V?$basic_string@DU?$char_traits@D@std@@V?$allocator@D@2@@std@@@std@@@std@@@std@@QAE@IPBU_Container_base12@1@@Z 00413220 f i ccClient.obj
 0001:000122a0       ??0?$_Deque_iterator@V?$_Deque_val@U?$_Deque_simple_types@V?$basic_string@DU?$char_traits@D@std@@V?$allocator@D@2@@std@@@std@@@std@@@std@@QAE@IPBU_Container_base12@1@@Z 004132a0 f i ccClient.obj
 0001:000122d0       ??0?$_Deque_val@U?$_Deque_simple_types@V?$basic_string@DU?$char_traits@D@std@@V?$allocator@D@2@@std@@@std@@@std@@QAE@XZ 004132d0 f i ccClient.obj
 0001:00012320       ??0?$_Wrap_alloc@V?$allocator@U_Container_proxy@std@@@std@@@std@@QAE@XZ 00413320 f i ccClient.obj
 0001:00012340       ??0?$_Wrap_alloc@V?$allocator@V?$basic_string@DU?$char_traits@D@std@@V?$allocator@D@2@@std@@@std@@@std@@QAE@XZ 00413340 f i ccClient.obj
 0001:00012360       ??0?$allocator@V?$basic_string@DU?$char_traits@D@std@@V?$allocator@D@2@@std@@@std@@QAE@XZ 00413360 f i ccClient.obj
 0001:00012380       ??0?$deque@V?$basic_string@DU?$char_traits@D@std@@V?$allocator@D@2@@std@@V?$allocator@V?$basic_string@DU?$char_traits@D@std@@V?$allocator@D@2@@std@@@2@@std@@QAE@XZ 00413380 f i ccClient.obj
 0001:000123b0       ??0?$queue@V?$basic_string@DU?$char_traits@D@std@@V?$allocator@D@2@@std@@V?$deque@V?$basic_string@DU?$char_traits@D@std@@V?$allocator@D@2@@std@@V?$allocator@V?$basic_string@DU?$char_traits@D@std@@V?$allocator@D@2@@std@@@2@@2@@std@@QAE@XZ 004133b0 f i ccClient.obj
 0001:000123d0       ??0_Ignore@std@@QAE@XZ     004133d0 f i ccClient.obj
 0001:000123f0       ??0_Iterator_base12@std@@QAE@XZ 004133f0 f i ccClient.obj
 0001:00012420       ??1?$_Deque_alloc@$0A@U?$_Deque_base_types@V?$basic_string@DU?$char_traits@D@std@@V?$allocator@D@2@@std@@V?$allocator@V?$basic_string@DU?$char_traits@D@std@@V?$allocator@D@2@@std@@@2@@std@@@std@@QAE@XZ 00413420 f i ccClient.obj
 0001:00012450       ??1?$_Deque_const_iterator@V?$_Deque_val@U?$_Deque_simple_types@V?$basic_string@DU?$char_traits@D@std@@V?$allocator@D@2@@std@@@std@@@std@@@std@@QAE@XZ 00413450 f i ccClient.obj
 0001:00012470       ??1?$_Deque_iterator@V?$_Deque_val@U?$_Deque_simple_types@V?$basic_string@DU?$char_traits@D@std@@V?$allocator@D@2@@std@@@std@@@std@@@std@@QAE@XZ 00413470 f i ccClient.obj
 0001:00012490       ??1?$_Deque_val@U?$_Deque_simple_types@V?$basic_string@DU?$char_traits@D@std@@V?$allocator@D@2@@std@@@std@@@std@@QAE@XZ 00413490 f i ccClient.obj
 0001:000124b0       ??1?$deque@V?$basic_string@DU?$char_traits@D@std@@V?$allocator@D@2@@std@@V?$allocator@V?$basic_string@DU?$char_traits@D@std@@V?$allocator@D@2@@std@@@2@@std@@QAE@XZ 004134b0 f i ccClient.obj
 0001:000124e0       ??1?$queue@V?$basic_string@DU?$char_traits@D@std@@V?$allocator@D@2@@std@@V?$deque@V?$basic_string@DU?$char_traits@D@std@@V?$allocator@D@2@@std@@V?$allocator@V?$basic_string@DU?$char_traits@D@std@@V?$allocator@D@2@@std@@@2@@2@@std@@QAE@XZ 004134e0 f i ccClient.obj
 0001:00012500       ??1_Iterator_base12@std@@QAE@XZ 00413500 f i ccClient.obj
 0001:00012540       ??4?$basic_string@DU?$char_traits@D@std@@V?$allocator@D@2@@std@@QAEAAV01@PBD@Z 00413540 f i ccClient.obj
 0001:00012560       ??D?$_Deque_const_iterator@V?$_Deque_val@U?$_Deque_simple_types@V?$basic_string@DU?$char_traits@D@std@@V?$allocator@D@2@@std@@@std@@@std@@@std@@QBEABV?$basic_string@DU?$char_traits@D@std@@V?$allocator@D@2@@1@XZ 00413560 f i ccClient.obj
 0001:00012680       ??D?$_Deque_iterator@V?$_Deque_val@U?$_Deque_simple_types@V?$basic_string@DU?$char_traits@D@std@@V?$allocator@D@2@@std@@@std@@@std@@@std@@QBEAAV?$basic_string@DU?$char_traits@D@std@@V?$allocator@D@2@@1@XZ 00413680 f i ccClient.obj
 0001:000126a0       ??_G?$basic_string@DU?$char_traits@D@std@@V?$allocator@D@2@@std@@QAEPAXI@Z 004136a0 f i ccClient.obj
 0001:000126e0       ??_EccClient@@UAEPAXI@Z    004136e0 f i ccClient.obj
 0001:000126e0       ??_GccClient@@UAEPAXI@Z    004136e0 f i ccClient.obj
 0001:00012720       ?_Adopt@_Iterator_base12@std@@QAEXPBU_Container_base12@2@@Z 00413720 f i ccClient.obj
 0001:00012820       ?_Alloc_proxy@?$_Deque_alloc@$0A@U?$_Deque_base_types@V?$basic_string@DU?$char_traits@D@std@@V?$allocator@D@2@@std@@V?$allocator@V?$basic_string@DU?$char_traits@D@std@@V?$allocator@D@2@@std@@@2@@std@@@std@@QAEXXZ 00413820 f i ccClient.obj
 0001:00012880       ?_Clrcont@_Iterator_base12@std@@QAEXXZ 00413880 f i ccClient.obj
 0001:000128a0       ?_Free_proxy@?$_Deque_alloc@$0A@U?$_Deque_base_types@V?$basic_string@DU?$char_traits@D@std@@V?$allocator@D@2@@std@@V?$allocator@V?$basic_string@DU?$char_traits@D@std@@V?$allocator@D@2@@std@@@2@@std@@@std@@QAEXXZ 004138a0 f i ccClient.obj
 0001:00012900       ?_Getal@?$_Deque_alloc@$0A@U?$_Deque_base_types@V?$basic_string@DU?$char_traits@D@std@@V?$allocator@D@2@@std@@V?$allocator@V?$basic_string@DU?$char_traits@D@std@@V?$allocator@D@2@@std@@@2@@std@@@std@@QBE?AU?$_Wrap_alloc@V?$allocator@V?$basic_string@DU?$char_traits@D@std@@V?$allocator@D@2@@std@@@std@@@2@XZ 00413900 f i ccClient.obj
 0001:00012920       ?_Getblock@?$_Deque_val@U?$_Deque_simple_types@V?$basic_string@DU?$char_traits@D@std@@V?$allocator@D@2@@std@@@std@@@std@@QBEII@Z 00413920 f i ccClient.obj
 0001:00012940       ?_Getcont@_Iterator_base12@std@@QBEPBU_Container_base12@2@XZ 00413940 f i ccClient.obj
 0001:00012980       ?_Getpnext@_Iterator_base12@std@@QAEPAPAU12@XZ 00413980 f i ccClient.obj
 0001:000129a0       ?_Growmap@?$deque@V?$basic_string@DU?$char_traits@D@std@@V?$allocator@D@2@@std@@V?$allocator@V?$basic_string@DU?$char_traits@D@std@@V?$allocator@D@2@@std@@@2@@std@@IAEXI@Z 004139a0 f i ccClient.obj
 0001:00012c30       ?_Orphan_me@_Iterator_base12@std@@QAEXXZ 00413c30 f i ccClient.obj
 0001:00012cc0       ?_Orphan_off@?$deque@V?$basic_string@DU?$char_traits@D@std@@V?$allocator@D@2@@std@@V?$allocator@V?$basic_string@DU?$char_traits@D@std@@V?$allocator@D@2@@std@@@2@@std@@IBEXI@Z 00413cc0 f i ccClient.obj
 0001:00012e00       ?_Setcont@?$_Deque_const_iterator@V?$_Deque_val@U?$_Deque_simple_types@V?$basic_string@DU?$char_traits@D@std@@V?$allocator@D@2@@std@@@std@@@std@@@std@@QAEXPBV?$_Deque_val@U?$_Deque_simple_types@V?$basic_string@DU?$char_traits@D@std@@V?$allocator@D@2@@std@@@std@@@2@@Z 00413e00 f i ccClient.obj
 0001:00012e20       ?_Tidy@?$deque@V?$basic_string@DU?$char_traits@D@std@@V?$allocator@D@2@@std@@V?$allocator@V?$basic_string@DU?$char_traits@D@std@@V?$allocator@D@2@@std@@@2@@std@@IAEXXZ 00413e20 f i ccClient.obj
 0001:00012f30       ?_Xlen@?$deque@V?$basic_string@DU?$char_traits@D@std@@V?$allocator@D@2@@std@@V?$allocator@V?$basic_string@DU?$char_traits@D@std@@V?$allocator@D@2@@std@@@2@@std@@IBEXXZ 00413f30 f i ccClient.obj
 0001:00012f50       ?allocate@?$_Wrap_alloc@V?$allocator@PAV?$basic_string@DU?$char_traits@D@std@@V?$allocator@D@2@@std@@@std@@@std@@QAEPAPAV?$basic_string@DU?$char_traits@D@std@@V?$allocator@D@2@@2@I@Z 00413f50 f i ccClient.obj
 0001:00012f70       ?allocate@?$_Wrap_alloc@V?$allocator@U_Container_proxy@std@@@std@@@std@@QAEPAU_Container_proxy@2@I@Z 00413f70 f i ccClient.obj
 0001:00012f90       ?allocate@?$_Wrap_alloc@V?$allocator@V?$basic_string@DU?$char_traits@D@std@@V?$allocator@D@2@@std@@@std@@@std@@QAEPAV?$basic_string@DU?$char_traits@D@std@@V?$allocator@D@2@@2@I@Z 00413f90 f i ccClient.obj
 0001:00012fb0       ?allocate@?$allocator@PAV?$basic_string@DU?$char_traits@D@std@@V?$allocator@D@2@@std@@@std@@QAEPAPAV?$basic_string@DU?$char_traits@D@std@@V?$allocator@D@2@@2@I@Z 00413fb0 f i ccClient.obj
 0001:00012fe0       ?allocate@?$allocator@V?$basic_string@DU?$char_traits@D@std@@V?$allocator@D@2@@std@@@std@@QAEPAV?$basic_string@DU?$char_traits@D@std@@V?$allocator@D@2@@2@I@Z 00413fe0 f i ccClient.obj
 0001:00013010       ?begin@?$deque@V?$basic_string@DU?$char_traits@D@std@@V?$allocator@D@2@@std@@V?$allocator@V?$basic_string@DU?$char_traits@D@std@@V?$allocator@D@2@@std@@@2@@std@@QAE?AV?$_Deque_iterator@V?$_Deque_val@U?$_Deque_simple_types@V?$basic_string@DU?$char_traits@D@std@@V?$allocator@D@2@@std@@@std@@@std@@@2@XZ 00414010 f i ccClient.obj
 0001:00013040       ?construct@?$allocator@V?$basic_string@DU?$char_traits@D@std@@V?$allocator@D@2@@std@@@std@@QAEXPAV?$basic_string@DU?$char_traits@D@std@@V?$allocator@D@2@@2@ABV32@@Z 00414040 f i ccClient.obj
 0001:000130e0       ?deallocate@?$_Wrap_alloc@V?$allocator@PAV?$basic_string@DU?$char_traits@D@std@@V?$allocator@D@2@@std@@@std@@@std@@QAEXPAPAV?$basic_string@DU?$char_traits@D@std@@V?$allocator@D@2@@2@I@Z 004140e0 f i ccClient.obj
 0001:00013110       ?deallocate@?$_Wrap_alloc@V?$allocator@U_Container_proxy@std@@@std@@@std@@QAEXPAU_Container_proxy@2@I@Z 00414110 f i ccClient.obj
 0001:00013140       ?deallocate@?$_Wrap_alloc@V?$allocator@V?$basic_string@DU?$char_traits@D@std@@V?$allocator@D@2@@std@@@std@@@std@@QAEXPAV?$basic_string@DU?$char_traits@D@std@@V?$allocator@D@2@@2@I@Z 00414140 f i ccClient.obj
 0001:00013170       ?deallocate@?$allocator@PAV?$basic_string@DU?$char_traits@D@std@@V?$allocator@D@2@@std@@@std@@QAEXPAPAV?$basic_string@DU?$char_traits@D@std@@V?$allocator@D@2@@2@I@Z 00414170 f i ccClient.obj
 0001:00013190       ?deallocate@?$allocator@V?$basic_string@DU?$char_traits@D@std@@V?$allocator@D@2@@std@@@std@@QAEXPAV?$basic_string@DU?$char_traits@D@std@@V?$allocator@D@2@@2@I@Z 00414190 f i ccClient.obj
 0001:000131b0       ?empty@?$deque@V?$basic_string@DU?$char_traits@D@std@@V?$allocator@D@2@@std@@V?$allocator@V?$basic_string@DU?$char_traits@D@std@@V?$allocator@D@2@@std@@@2@@std@@QBE_NXZ 004141b0 f i ccClient.obj
 0001:000131f0       ?front@?$deque@V?$basic_string@DU?$char_traits@D@std@@V?$allocator@D@2@@std@@V?$allocator@V?$basic_string@DU?$char_traits@D@std@@V?$allocator@D@2@@std@@@2@@std@@QAEAAV?$basic_string@DU?$char_traits@D@std@@V?$allocator@D@2@@2@XZ 004141f0 f i ccClient.obj
 0001:00013280       ?front@?$queue@V?$basic_string@DU?$char_traits@D@std@@V?$allocator@D@2@@std@@V?$deque@V?$basic_string@DU?$char_traits@D@std@@V?$allocator@D@2@@std@@V?$allocator@V?$basic_string@DU?$char_traits@D@std@@V?$allocator@D@2@@std@@@2@@2@@std@@QAEAAV?$basic_string@DU?$char_traits@D@std@@V?$allocator@D@2@@2@XZ 00414280 f i ccClient.obj
 0001:000132a0       ?max_size@?$_Wrap_alloc@V?$allocator@V?$basic_string@DU?$char_traits@D@std@@V?$allocator@D@2@@std@@@std@@@std@@QBEIXZ 004142a0 f i ccClient.obj
 0001:000132c0       ?max_size@?$allocator@V?$basic_string@DU?$char_traits@D@std@@V?$allocator@D@2@@std@@@std@@QBEIXZ 004142c0 f i ccClient.obj
 0001:000132e0       ?max_size@?$allocator_traits@V?$allocator@V?$basic_string@DU?$char_traits@D@std@@V?$allocator@D@2@@std@@@std@@@std@@SAIABV?$allocator@V?$basic_string@DU?$char_traits@D@std@@V?$allocator@D@2@@std@@@2@@Z 004142e0 f i ccClient.obj
 0001:000132f0       ?max_size@?$deque@V?$basic_string@DU?$char_traits@D@std@@V?$allocator@D@2@@std@@V?$allocator@V?$basic_string@DU?$char_traits@D@std@@V?$allocator@D@2@@std@@@2@@std@@QBEIXZ 004142f0 f i ccClient.obj
 0001:00013320       ?pop@?$queue@V?$basic_string@DU?$char_traits@D@std@@V?$allocator@D@2@@std@@V?$deque@V?$basic_string@DU?$char_traits@D@std@@V?$allocator@D@2@@std@@V?$allocator@V?$basic_string@DU?$char_traits@D@std@@V?$allocator@D@2@@std@@@2@@2@@std@@QAEXXZ 00414320 f i ccClient.obj
 0001:00013340       ?pop_back@?$deque@V?$basic_string@DU?$char_traits@D@std@@V?$allocator@D@2@@std@@V?$allocator@V?$basic_string@DU?$char_traits@D@std@@V?$allocator@D@2@@std@@@2@@std@@QAEXXZ 00414340 f i ccClient.obj
 0001:00013430       ?pop_front@?$deque@V?$basic_string@DU?$char_traits@D@std@@V?$allocator@D@2@@std@@V?$allocator@V?$basic_string@DU?$char_traits@D@std@@V?$allocator@D@2@@std@@@2@@std@@QAEXXZ 00414430 f i ccClient.obj
 0001:00013530       ?push@?$queue@V?$basic_string@DU?$char_traits@D@std@@V?$allocator@D@2@@std@@V?$deque@V?$basic_string@DU?$char_traits@D@std@@V?$allocator@D@2@@std@@V?$allocator@V?$basic_string@DU?$char_traits@D@std@@V?$allocator@D@2@@std@@@2@@2@@std@@QAEX$$QAV?$basic_string@DU?$char_traits@D@std@@V?$allocator@D@2@@2@@Z 00414530 f i ccClient.obj
 0001:00013560       ?push@?$queue@V?$basic_string@DU?$char_traits@D@std@@V?$allocator@D@2@@std@@V?$deque@V?$basic_string@DU?$char_traits@D@std@@V?$allocator@D@2@@std@@V?$allocator@V?$basic_string@DU?$char_traits@D@std@@V?$allocator@D@2@@std@@@2@@2@@std@@QAEXABV?$basic_string@DU?$char_traits@D@std@@V?$allocator@D@2@@2@@Z 00414560 f i ccClient.obj
 0001:00013580       ?push_back@?$deque@V?$basic_string@DU?$char_traits@D@std@@V?$allocator@D@2@@std@@V?$allocator@V?$basic_string@DU?$char_traits@D@std@@V?$allocator@D@2@@std@@@2@@std@@QAEX$$QAV?$basic_string@DU?$char_traits@D@std@@V?$allocator@D@2@@2@@Z 00414580 f i ccClient.obj
 0001:000136c0       ?push_back@?$deque@V?$basic_string@DU?$char_traits@D@std@@V?$allocator@D@2@@std@@V?$allocator@V?$basic_string@DU?$char_traits@D@std@@V?$allocator@D@2@@std@@@2@@std@@QAEXABV?$basic_string@DU?$char_traits@D@std@@V?$allocator@D@2@@2@@Z 004146c0 f i ccClient.obj
 0001:000137f0       ?size@?$deque@V?$basic_string@DU?$char_traits@D@std@@V?$allocator@D@2@@std@@V?$allocator@V?$basic_string@DU?$char_traits@D@std@@V?$allocator@D@2@@std@@@2@@std@@QBEIXZ 004147f0 f i ccClient.obj
 0001:00013810       ?size@?$queue@V?$basic_string@DU?$char_traits@D@std@@V?$allocator@D@2@@std@@V?$deque@V?$basic_string@DU?$char_traits@D@std@@V?$allocator@D@2@@std@@V?$allocator@V?$basic_string@DU?$char_traits@D@std@@V?$allocator@D@2@@std@@@2@@2@@std@@QBEIXZ 00414810 f i ccClient.obj
 0001:00013830       ?readConfigSection@ccConfig@@SAXABV?$basic_string@DU?$char_traits@D@std@@V?$allocator@D@2@@std@@0AAV?$map@V?$basic_string@DU?$char_traits@D@std@@V?$allocator@D@2@@std@@V12@U?$less@V?$basic_string@DU?$char_traits@D@std@@V?$allocator@D@2@@std@@@2@V?$allocator@U?$pair@$$CBV?$basic_string@DU?$char_traits@D@std@@V?$allocator@D@2@@std@@V12@@std@@@2@@3@@Z 00414830 f   ccConfig.obj
 0001:000139c0       ?readConfigSectionRoot@ccConfig@@SAXABV?$basic_string@DU?$char_traits@D@std@@V?$allocator@D@2@@std@@0AAV?$map@V?$basic_string@DU?$char_traits@D@std@@V?$allocator@D@2@@std@@V12@U?$less@V?$basic_string@DU?$char_traits@D@std@@V?$allocator@D@2@@std@@@2@V?$allocator@U?$pair@$$CBV?$basic_string@DU?$char_traits@D@std@@V?$allocator@D@2@@std@@V12@@std@@@2@@3@@Z 004149c0 f   ccConfig.obj
 0001:00013aa0       ?readConfigSection@ccConfig@@SAXHABV?$basic_string@DU?$char_traits@D@std@@V?$allocator@D@2@@std@@AAV?$map@V?$basic_string@DU?$char_traits@D@std@@V?$allocator@D@2@@std@@V12@U?$less@V?$basic_string@DU?$char_traits@D@std@@V?$allocator@D@2@@std@@@2@V?$allocator@U?$pair@$$CBV?$basic_string@DU?$char_traits@D@std@@V?$allocator@D@2@@std@@V12@@std@@@2@@3@@Z 00414aa0 f   ccConfig.obj
 0001:00013ba0       ?deleteKeysFromSectionRoot@ccConfig@@SAXABV?$basic_string@DU?$char_traits@D@std@@V?$allocator@D@2@@std@@00@Z 00414ba0 f   ccConfig.obj
 0001:00013d50       ?writeConfigSection@ccConfig@@SAXABV?$basic_string@DU?$char_traits@D@std@@V?$allocator@D@2@@std@@0ABV?$map@V?$basic_string@DU?$char_traits@D@std@@V?$allocator@D@2@@std@@V12@U?$less@V?$basic_string@DU?$char_traits@D@std@@V?$allocator@D@2@@std@@@2@V?$allocator@U?$pair@$$CBV?$basic_string@DU?$char_traits@D@std@@V?$allocator@D@2@@std@@V12@@std@@@2@@3@@Z 00414d50 f   ccConfig.obj
 0001:00013ee0       ?writeConfigSectionRoot@ccConfig@@SAXABV?$basic_string@DU?$char_traits@D@std@@V?$allocator@D@2@@std@@0ABV?$map@V?$basic_string@DU?$char_traits@D@std@@V?$allocator@D@2@@std@@V12@U?$less@V?$basic_string@DU?$char_traits@D@std@@V?$allocator@D@2@@std@@@2@V?$allocator@U?$pair@$$CBV?$basic_string@DU?$char_traits@D@std@@V?$allocator@D@2@@std@@V12@@std@@@2@@3@@Z 00414ee0 f   ccConfig.obj
 0001:00013fc0       ?writeConfigSection@ccConfig@@SAXHABV?$basic_string@DU?$char_traits@D@std@@V?$allocator@D@2@@std@@ABV?$map@V?$basic_string@DU?$char_traits@D@std@@V?$allocator@D@2@@std@@V12@U?$less@V?$basic_string@DU?$char_traits@D@std@@V?$allocator@D@2@@std@@@2@V?$allocator@U?$pair@$$CBV?$basic_string@DU?$char_traits@D@std@@V?$allocator@D@2@@std@@V12@@std@@@2@@3@@Z 00414fc0 f   ccConfig.obj
 0001:000140c0       ?getString@ccConfig@@SA?AV?$basic_string@DU?$char_traits@D@std@@V?$allocator@D@2@@std@@ABV23@000_N@Z 004150c0 f   ccConfig.obj
 0001:00014250       ?getString@ccConfig@@SA?AV?$basic_string@DU?$char_traits@D@std@@V?$allocator@D@2@@std@@HABV23@00_N@Z 00415250 f   ccConfig.obj
 0001:000143c0       ?setString@ccConfig@@SAXABV?$basic_string@DU?$char_traits@D@std@@V?$allocator@D@2@@std@@000@Z 004153c0 f   ccConfig.obj
 0001:000144a0       ?setString@ccConfig@@SAXHABV?$basic_string@DU?$char_traits@D@std@@V?$allocator@D@2@@std@@00@Z 004154a0 f   ccConfig.obj
 0001:00014590       ?getInt@ccConfig@@SAHABV?$basic_string@DU?$char_traits@D@std@@V?$allocator@D@2@@std@@00H_N@Z 00415590 f   ccConfig.obj
 0001:000146f0       ?getInt@ccConfig@@SAHHABV?$basic_string@DU?$char_traits@D@std@@V?$allocator@D@2@@std@@0H_N@Z 004156f0 f   ccConfig.obj
 0001:00014840       ?getDevPath@ccConfig@@SA?AV?$basic_string@DU?$char_traits@D@std@@V?$allocator@D@2@@std@@XZ 00415840 f   ccConfig.obj
 0001:00014a20       ?getSystem@ccConfig@@SA?AV?$basic_string@DU?$char_traits@D@std@@V?$allocator@D@2@@std@@XZ 00415a20 f   ccConfig.obj
 0001:00014b30       ?getDevPath@ccConfig@@SA?AV?$basic_string@DU?$char_traits@D@std@@V?$allocator@D@2@@std@@H@Z 00415b30 f   ccConfig.obj
 0001:00014c20       ?getDevPath@ccConfig@@SA?AV?$basic_string@DU?$char_traits@D@std@@V?$allocator@D@2@@std@@ABV23@@Z 00415c20 f   ccConfig.obj
 0001:00014ce0       ?isV4Based@ccConfig@@SA_NXZ 00415ce0 f   ccConfig.obj
 0001:00014d50       ?isV3Based@ccConfig@@SA_NXZ 00415d50 f   ccConfig.obj
 0001:00014dc0       ?workstation@ccConfig@@SAHXZ 00415dc0 f   ccConfig.obj
 0001:00015010       ?sectionsAbs@ccConfig@@SAXABV?$basic_string@DU?$char_traits@D@std@@V?$allocator@D@2@@std@@AAV?$list@V?$basic_string@DU?$char_traits@D@std@@V?$allocator@D@2@@std@@V?$allocator@V?$basic_string@DU?$char_traits@D@std@@V?$allocator@D@2@@std@@@2@@3@@Z 00416010 f   ccConfig.obj
 0001:000151b0       ?sections@ccConfig@@SAXABV?$basic_string@DU?$char_traits@D@std@@V?$allocator@D@2@@std@@AAV?$list@V?$basic_string@DU?$char_traits@D@std@@V?$allocator@D@2@@std@@V?$allocator@V?$basic_string@DU?$char_traits@D@std@@V?$allocator@D@2@@std@@@2@@3@@Z 004161b0 f   ccConfig.obj
 0001:00015330       ?sectionsRoot@ccConfig@@SAXABV?$basic_string@DU?$char_traits@D@std@@V?$allocator@D@2@@std@@AAV?$list@V?$basic_string@DU?$char_traits@D@std@@V?$allocator@D@2@@std@@V?$allocator@V?$basic_string@DU?$char_traits@D@std@@V?$allocator@D@2@@std@@@2@@3@@Z 00416330 f   ccConfig.obj
 0001:00015410       ?sections@ccConfig@@SAXHAAV?$list@V?$basic_string@DU?$char_traits@D@std@@V?$allocator@D@2@@std@@V?$allocator@V?$basic_string@DU?$char_traits@D@std@@V?$allocator@D@2@@std@@@2@@std@@@Z 00416410 f   ccConfig.obj
 0001:00015510       ?deleteSectionRoot@ccConfig@@SAXABV?$basic_string@DU?$char_traits@D@std@@V?$allocator@D@2@@std@@0@Z 00416510 f   ccConfig.obj
 0001:000155f0       ??0ccConfig@@QAE@XZ        004165f0 f   ccConfig.obj
 0001:00015670       ??0ccConfig@@QAE@ABV?$basic_string@DU?$char_traits@D@std@@V?$allocator@D@2@@std@@0@Z 00416670 f   ccConfig.obj
 0001:00015750       ??0ccConfig@@QAE@HABV?$basic_string@DU?$char_traits@D@std@@V?$allocator@D@2@@std@@@Z 00416750 f   ccConfig.obj
 0001:00015830       ??1ccConfig@@UAE@XZ        00416830 f   ccConfig.obj
 0001:00015870       ?getString@ccConfig@@QAE?AV?$basic_string@DU?$char_traits@D@std@@V?$allocator@D@2@@std@@ABV23@0_N@Z 00416870 f   ccConfig.obj
 0001:000159b0       ?setString@ccConfig@@QAEXABV?$basic_string@DU?$char_traits@D@std@@V?$allocator@D@2@@std@@0@Z 004169b0 f   ccConfig.obj
 0001:00015aa0       ?getInt@ccConfig@@QAEHABV?$basic_string@DU?$char_traits@D@std@@V?$allocator@D@2@@std@@H_N@Z 00416aa0 f   ccConfig.obj
 0001:00015c20       ?developerMode@ccConfig@@SA_NXZ 00416c20 f   ccConfig.obj
 0001:00015c70       ?getLogPath@ccConfig@@SA?AV?$basic_string@DU?$char_traits@D@std@@V?$allocator@D@2@@std@@ABV23@0@Z 00416c70 f   ccConfig.obj
 0001:00015da0       ?readConfigSectionAbs@ccConfig@@CAXABV?$basic_string@DU?$char_traits@D@std@@V?$allocator@D@2@@std@@0AAV?$map@V?$basic_string@DU?$char_traits@D@std@@V?$allocator@D@2@@std@@V12@U?$less@V?$basic_string@DU?$char_traits@D@std@@V?$allocator@D@2@@std@@@2@V?$allocator@U?$pair@$$CBV?$basic_string@DU?$char_traits@D@std@@V?$allocator@D@2@@std@@V12@@std@@@2@@3@@Z 00416da0 f   ccConfig.obj
 0001:00016110       ?writeConfigSectionAbs@ccConfig@@CAXABV?$basic_string@DU?$char_traits@D@std@@V?$allocator@D@2@@std@@0ABV?$map@V?$basic_string@DU?$char_traits@D@std@@V?$allocator@D@2@@std@@V12@U?$less@V?$basic_string@DU?$char_traits@D@std@@V?$allocator@D@2@@std@@@2@V?$allocator@U?$pair@$$CBV?$basic_string@DU?$char_traits@D@std@@V?$allocator@D@2@@std@@V12@@std@@@2@@3@@Z 00417110 f   ccConfig.obj
 0001:00016650       ?buftolower@ccConfig@@CAPADPAD@Z 00417650 f   ccConfig.obj
 0001:000166c0       ?strtolower@ccConfig@@CA?AV?$basic_string@DU?$char_traits@D@std@@V?$allocator@D@2@@std@@ABV23@@Z 004176c0 f   ccConfig.obj
 0001:000167a0       ?find@ccConfig@@AAE?AV?$_Tree_iterator@V?$_Tree_val@U?$_Tree_simple_types@U?$pair@$$CBV?$basic_string@DU?$char_traits@D@std@@V?$allocator@D@2@@std@@V12@@std@@@std@@@std@@@std@@ABV?$basic_string@DU?$char_traits@D@std@@V?$allocator@D@2@@3@@Z 004177a0 f   ccConfig.obj
 0001:00017580       ??$?0AAV?$_Tree_iterator@V?$_Tree_val@U?$_Tree_simple_types@U?$pair@$$CBV?$basic_string@DU?$char_traits@D@std@@V?$allocator@D@2@@std@@V12@@std@@@std@@@std@@@std@@_NX@?$pair@V?$_Tree_iterator@V?$_Tree_val@U?$_Tree_simple_types@U?$pair@$$CBV?$basic_string@DU?$char_traits@D@std@@V?$allocator@D@2@@std@@V12@@std@@@std@@@std@@@std@@_N@std@@QAE@AAV?$_Tree_iterator@V?$_Tree_val@U?$_Tree_simple_types@U?$pair@$$CBV?$basic_string@DU?$char_traits@D@std@@V?$allocator@D@2@@std@@V12@@std@@@std@@@std@@@1@$$QA_N@Z 00418580 f i ccConfig.obj
 0001:00017610       ??$?0AAV?$basic_string@DU?$char_traits@D@std@@V?$allocator@D@2@@std@@AAV01@X@?$pair@V?$basic_string@DU?$char_traits@D@std@@V?$allocator@D@2@@std@@V12@@std@@QAE@AAV?$basic_string@DU?$char_traits@D@std@@V?$allocator@D@2@@1@0@Z 00418610 f i ccConfig.obj
 0001:000176b0       ??$?0U?$_Tree_node@U?$pair@$$CBV?$basic_string@DU?$char_traits@D@std@@V?$allocator@D@2@@std@@V12@@std@@PAX@std@@@?$allocator@U_Container_proxy@std@@@std@@QAE@ABV?$allocator@U?$_Tree_node@U?$pair@$$CBV?$basic_string@DU?$char_traits@D@std@@V?$allocator@D@2@@std@@V12@@std@@PAX@std@@@1@@Z 004186b0 f i ccConfig.obj
 0001:000176d0       ??$?0U?$_Wrap_alloc@V?$allocator@U?$_Tree_node@U?$pair@$$CBV?$basic_string@DU?$char_traits@D@std@@V?$allocator@D@2@@std@@V12@@std@@PAX@std@@@std@@@std@@@?$_Wrap_alloc@V?$allocator@U_Container_proxy@std@@@std@@@std@@QAE@ABU?$_Wrap_alloc@V?$allocator@U?$_Tree_node@U?$pair@$$CBV?$basic_string@DU?$char_traits@D@std@@V?$allocator@D@2@@std@@V12@@std@@PAX@std@@@std@@@1@@Z 004186d0 f i ccConfig.obj
 0001:00017700       ??$?0V?$_Tree_iterator@V?$_Tree_val@U?$_Tree_simple_types@U?$pair@$$CBV?$basic_string@DU?$char_traits@D@std@@V?$allocator@D@2@@std@@V12@@std@@@std@@@std@@@std@@_NX@?$pair@V?$_Tree_iterator@V?$_Tree_val@U?$_Tree_simple_types@U?$pair@$$CBV?$basic_string@DU?$char_traits@D@std@@V?$allocator@D@2@@std@@V12@@std@@@std@@@std@@@std@@_N@std@@QAE@$$QAV?$_Tree_iterator@V?$_Tree_val@U?$_Tree_simple_types@U?$pair@$$CBV?$basic_string@DU?$char_traits@D@std@@V?$allocator@D@2@@std@@V12@@std@@@std@@@std@@@1@$$QA_N@Z 00418700 f i ccConfig.obj
 0001:00017790       ??$?0V?$basic_string@DU?$char_traits@D@std@@V?$allocator@D@2@@std@@V01@X@?$pair@$$CBV?$basic_string@DU?$char_traits@D@std@@V?$allocator@D@2@@std@@V12@@std@@QAE@$$QAU?$pair@V?$basic_string@DU?$char_traits@D@std@@V?$allocator@D@2@@std@@V12@@1@@Z 00418790 f i ccConfig.obj
 0001:00017830       ??$?8DU?$char_traits@D@std@@V?$allocator@D@1@@std@@YA_NABV?$basic_string@DU?$char_traits@D@std@@V?$allocator@D@2@@0@0@Z 00418830 f i ccConfig.obj
 0001:00017870       ??$?8DU?$char_traits@D@std@@V?$allocator@D@1@@std@@YA_NABV?$basic_string@DU?$char_traits@D@std@@V?$allocator@D@2@@0@PBD@Z 00418870 f i ccConfig.obj
 0001:000178b0       ??$?MDU?$char_traits@D@std@@V?$allocator@D@1@@std@@YA_NABV?$basic_string@DU?$char_traits@D@std@@V?$allocator@D@2@@0@0@Z 004188b0 f i ccConfig.obj
 0001:000178f0       ??$_Allocate@U?$_List_node@V?$basic_string@DU?$char_traits@D@std@@V?$allocator@D@2@@std@@PAX@std@@@std@@YAPAU?$_List_node@V?$basic_string@DU?$char_traits@D@std@@V?$allocator@D@2@@std@@PAX@0@IPAU10@@Z 004188f0 f i ccConfig.obj
 0001:00017940       ??$_Allocate@U?$_Tree_node@U?$pair@$$CBV?$basic_string@DU?$char_traits@D@std@@V?$allocator@D@2@@std@@V12@@std@@PAX@std@@@std@@YAPAU?$_Tree_node@U?$pair@$$CBV?$basic_string@DU?$char_traits@D@std@@V?$allocator@D@2@@std@@V12@@std@@PAX@0@IPAU10@@Z 00418940 f i ccConfig.obj
 0001:00017990       ??$_Buynode@U?$pair@V?$basic_string@DU?$char_traits@D@std@@V?$allocator@D@2@@std@@V12@@std@@@?$_Tree_buy@U?$pair@$$CBV?$basic_string@DU?$char_traits@D@std@@V?$allocator@D@2@@std@@V12@@std@@V?$allocator@U?$pair@$$CBV?$basic_string@DU?$char_traits@D@std@@V?$allocator@D@2@@std@@V12@@std@@@2@@std@@QAEPAU?$_Tree_node@U?$pair@$$CBV?$basic_string@DU?$char_traits@D@std@@V?$allocator@D@2@@std@@V12@@std@@PAX@1@$$QAU?$pair@V?$basic_string@DU?$char_traits@D@std@@V?$allocator@D@2@@std@@V12@@1@@Z 00418990 f i ccConfig.obj
 0001:00017ac0       ??$_Buynode@V?$basic_string@DU?$char_traits@D@std@@V?$allocator@D@2@@std@@@?$_List_buy@V?$basic_string@DU?$char_traits@D@std@@V?$allocator@D@2@@std@@V?$allocator@V?$basic_string@DU?$char_traits@D@std@@V?$allocator@D@2@@std@@@2@@std@@QAEPAU?$_List_node@V?$basic_string@DU?$char_traits@D@std@@V?$allocator@D@2@@std@@PAX@1@PAU21@0$$QAV?$basic_string@DU?$char_traits@D@std@@V?$allocator@D@2@@1@@Z 00418ac0 f i ccConfig.obj
 0001:00017be0       ??$_Buynode_if_nil@AAU?$pair@$$CBV?$basic_string@DU?$char_traits@D@std@@V?$allocator@D@2@@std@@V12@@std@@@?$_Tree@V?$_Tmap_traits@V?$basic_string@DU?$char_traits@D@std@@V?$allocator@D@2@@std@@V12@U?$less@V?$basic_string@DU?$char_traits@D@std@@V?$allocator@D@2@@std@@@2@V?$allocator@U?$pair@$$CBV?$basic_string@DU?$char_traits@D@std@@V?$allocator@D@2@@std@@V12@@std@@@2@$0A@@std@@@std@@IAEPAU?$_Tree_node@U?$pair@$$CBV?$basic_string@DU?$char_traits@D@std@@V?$allocator@D@2@@std@@V12@@std@@PAX@1@PAU21@AAU?$pair@$$CBV?$basic_string@DU?$char_traits@D@std@@V?$allocator@D@2@@std@@V12@@1@@Z 00418be0 f i ccConfig.obj
 0001:00017c00       ??$_Debug_lt_pred@U?$less@V?$basic_string@DU?$char_traits@D@std@@V?$allocator@D@2@@std@@@std@@ABV?$basic_string@DU?$char_traits@D@std@@V?$allocator@D@2@@2@ABV32@@std@@YA_NU?$less@V?$basic_string@DU?$char_traits@D@std@@V?$allocator@D@2@@std@@@0@ABV?$basic_string@DU?$char_traits@D@std@@V?$allocator@D@2@@0@1PB_WI@Z 00418c00 f i ccConfig.obj
 0001:00017ca0       ??$_Insert@V?$basic_string@DU?$char_traits@D@std@@V?$allocator@D@2@@std@@@?$list@V?$basic_string@DU?$char_traits@D@std@@V?$allocator@D@2@@std@@V?$allocator@V?$basic_string@DU?$char_traits@D@std@@V?$allocator@D@2@@std@@@2@@std@@QAEXV?$_List_unchecked_const_iterator@V?$_List_val@U?$_List_simple_types@V?$basic_string@DU?$char_traits@D@std@@V?$allocator@D@2@@std@@@std@@@std@@U_Iterator_base0@2@@1@$$QAV?$basic_string@DU?$char_traits@D@std@@V?$allocator@D@2@@1@@Z 00418ca0 f i ccConfig.obj
 0001:00017d40       ??$_Insert_at@AAU?$pair@$$CBV?$basic_string@DU?$char_traits@D@std@@V?$allocator@D@2@@std@@V12@@std@@PAU?$_Tree_node@U?$pair@$$CBV?$basic_string@DU?$char_traits@D@std@@V?$allocator@D@2@@std@@V12@@std@@PAX@2@@?$_Tree@V?$_Tmap_traits@V?$basic_string@DU?$char_traits@D@std@@V?$allocator@D@2@@std@@V12@U?$less@V?$basic_string@DU?$char_traits@D@std@@V?$allocator@D@2@@std@@@2@V?$allocator@U?$pair@$$CBV?$basic_string@DU?$char_traits@D@std@@V?$allocator@D@2@@std@@V12@@std@@@2@$0A@@std@@@std@@IAE?AV?$_Tree_iterator@V?$_Tree_val@U?$_Tree_simple_types@U?$pair@$$CBV?$basic_string@DU?$char_traits@D@std@@V?$allocator@D@2@@std@@V12@@std@@@std@@@std@@@1@_NPAU?$_Tree_node@U?$pair@$$CBV?$basic_string@DU?$char_traits@D@std@@V?$allocator@D@2@@std@@V12@@std@@PAX@1@AAU?$pair@$$CBV?$basic_string@DU?$char_traits@D@std@@V?$allocator@D@2@@std@@V12@@1@1@Z 00418d40 f i ccConfig.obj
 0001:00018290       ??$_Insert_nohint@AAU?$pair@$$CBV?$basic_string@DU?$char_traits@D@std@@V?$allocator@D@2@@std@@V12@@std@@PAU?$_Tree_node@U?$pair@$$CBV?$basic_string@DU?$char_traits@D@std@@V?$allocator@D@2@@std@@V12@@std@@PAX@2@@?$_Tree@V?$_Tmap_traits@V?$basic_string@DU?$char_traits@D@std@@V?$allocator@D@2@@std@@V12@U?$less@V?$basic_string@DU?$char_traits@D@std@@V?$allocator@D@2@@std@@@2@V?$allocator@U?$pair@$$CBV?$basic_string@DU?$char_traits@D@std@@V?$allocator@D@2@@std@@V12@@std@@@2@$0A@@std@@@std@@IAE?AU?$pair@V?$_Tree_iterator@V?$_Tree_val@U?$_Tree_simple_types@U?$pair@$$CBV?$basic_string@DU?$char_traits@D@std@@V?$allocator@D@2@@std@@V12@@std@@@std@@@std@@@std@@_N@1@_NAAU?$pair@$$CBV?$basic_string@DU?$char_traits@D@std@@V?$allocator@D@2@@std@@V12@@1@PAU?$_Tree_node@U?$pair@$$CBV?$basic_string@DU?$char_traits@D@std@@V?$allocator@D@2@@std@@V12@@std@@PAX@1@@Z 00419290 f i ccConfig.obj
 0001:00018870       ??$_Kfn@$$CBV?$basic_string@DU?$char_traits@D@std@@V?$allocator@D@2@@std@@V12@@?$_Tmap_traits@V?$basic_string@DU?$char_traits@D@std@@V?$allocator@D@2@@std@@V12@U?$less@V?$basic_string@DU?$char_traits@D@std@@V?$allocator@D@2@@std@@@2@V?$allocator@U?$pair@$$CBV?$basic_string@DU?$char_traits@D@std@@V?$allocator@D@2@@std@@V12@@std@@@2@$0A@@std@@SAABV?$basic_string@DU?$char_traits@D@std@@V?$allocator@D@2@@1@ABU?$pair@$$CBV?$basic_string@DU?$char_traits@D@std@@V?$allocator@D@2@@std@@V12@@1@@Z 00419870 f i ccConfig.obj
 0001:00018880       ??$_Move@AAD@std@@YA$$QADAAD@Z 00419880 f i ccConfig.obj
 0001:00018890       ??$addressof@$$CBU?$pair@$$CBV?$basic_string@DU?$char_traits@D@std@@V?$allocator@D@2@@std@@V12@@std@@@std@@YAPBU?$pair@$$CBV?$basic_string@DU?$char_traits@D@std@@V?$allocator@D@2@@std@@V12@@0@ABU10@@Z 00419890 f i ccConfig.obj
 0001:000188a0       ??$addressof@PAU?$_List_node@V?$basic_string@DU?$char_traits@D@std@@V?$allocator@D@2@@std@@PAX@std@@@std@@YAPAPAU?$_List_node@V?$basic_string@DU?$char_traits@D@std@@V?$allocator@D@2@@std@@PAX@0@AAPAU10@@Z 004198a0 f i ccConfig.obj
 0001:000188b0       ??$addressof@PAU?$_Tree_node@U?$pair@$$CBV?$basic_string@DU?$char_traits@D@std@@V?$allocator@D@2@@std@@V12@@std@@PAX@std@@@std@@YAPAPAU?$_Tree_node@U?$pair@$$CBV?$basic_string@DU?$char_traits@D@std@@V?$allocator@D@2@@std@@V12@@std@@PAX@0@AAPAU10@@Z 004198b0 f i ccConfig.obj
 0001:000188c0       ??$addressof@U?$pair@$$CBV?$basic_string@DU?$char_traits@D@std@@V?$allocator@D@2@@std@@V12@@std@@@std@@YAPAU?$pair@$$CBV?$basic_string@DU?$char_traits@D@std@@V?$allocator@D@2@@std@@V12@@0@AAU10@@Z 004198c0 f i ccConfig.obj
 0001:000188d0       ??$addressof@V?$basic_string@DU?$char_traits@D@std@@V?$allocator@D@2@@std@@@std@@YAPAV?$basic_string@DU?$char_traits@D@std@@V?$allocator@D@2@@0@AAV10@@Z 004198d0 f i ccConfig.obj
 0001:000188e0       ??$assign@V?$_String_iterator@V?$_String_val@U?$_Simple_types@D@std@@@std@@@std@@@?$basic_string@DU?$char_traits@D@std@@V?$allocator@D@2@@std@@QAEAAV01@V?$_String_iterator@V?$_String_val@U?$_Simple_types@D@std@@@std@@@1@0@Z 004198e0 f i ccConfig.obj
 0001:00018a60       ??$construct@PAU?$_List_node@V?$basic_string@DU?$char_traits@D@std@@V?$allocator@D@2@@std@@PAX@std@@AAPAU12@@?$_Wrap_alloc@V?$allocator@U?$_List_node@V?$basic_string@DU?$char_traits@D@std@@V?$allocator@D@2@@std@@PAX@std@@@std@@@std@@QAEXPAPAU?$_List_node@V?$basic_string@DU?$char_traits@D@std@@V?$allocator@D@2@@std@@PAX@1@AAPAU21@@Z 00419a60 f i ccConfig.obj
 0001:00018aa0       ??$construct@PAU?$_List_node@V?$basic_string@DU?$char_traits@D@std@@V?$allocator@D@2@@std@@PAX@std@@AAPAU12@@?$allocator@U?$_List_node@V?$basic_string@DU?$char_traits@D@std@@V?$allocator@D@2@@std@@PAX@std@@@std@@QAEXPAPAU?$_List_node@V?$basic_string@DU?$char_traits@D@std@@V?$allocator@D@2@@std@@PAX@1@AAPAU21@@Z 00419aa0 f i ccConfig.obj
 0001:00018b50       ??$construct@PAU?$_List_node@V?$basic_string@DU?$char_traits@D@std@@V?$allocator@D@2@@std@@PAX@std@@AAPAU12@@?$allocator_traits@V?$allocator@U?$_List_node@V?$basic_string@DU?$char_traits@D@std@@V?$allocator@D@2@@std@@PAX@std@@@std@@@std@@SAXAAV?$allocator@U?$_List_node@V?$basic_string@DU?$char_traits@D@std@@V?$allocator@D@2@@std@@PAX@std@@@1@PAPAU?$_List_node@V?$basic_string@DU?$char_traits@D@std@@V?$allocator@D@2@@std@@PAX@1@AAPAU31@@Z 00419b50 f i ccConfig.obj
 0001:00018b80       ??$construct@PAU?$_Tree_node@U?$pair@$$CBV?$basic_string@DU?$char_traits@D@std@@V?$allocator@D@2@@std@@V12@@std@@PAX@std@@AAPAU12@@?$_Wrap_alloc@V?$allocator@U?$_Tree_node@U?$pair@$$CBV?$basic_string@DU?$char_traits@D@std@@V?$allocator@D@2@@std@@V12@@std@@PAX@std@@@std@@@std@@QAEXPAPAU?$_Tree_node@U?$pair@$$CBV?$basic_string@DU?$char_traits@D@std@@V?$allocator@D@2@@std@@V12@@std@@PAX@1@AAPAU21@@Z 00419b80 f i ccConfig.obj
 0001:00018bc0       ??$construct@PAU?$_Tree_node@U?$pair@$$CBV?$basic_string@DU?$char_traits@D@std@@V?$allocator@D@2@@std@@V12@@std@@PAX@std@@AAPAU12@@?$allocator@U?$_Tree_node@U?$pair@$$CBV?$basic_string@DU?$char_traits@D@std@@V?$allocator@D@2@@std@@V12@@std@@PAX@std@@@std@@QAEXPAPAU?$_Tree_node@U?$pair@$$CBV?$basic_string@DU?$char_traits@D@std@@V?$allocator@D@2@@std@@V12@@std@@PAX@1@AAPAU21@@Z 00419bc0 f i ccConfig.obj
 0001:00018c70       ??$construct@PAU?$_Tree_node@U?$pair@$$CBV?$basic_string@DU?$char_traits@D@std@@V?$allocator@D@2@@std@@V12@@std@@PAX@std@@AAPAU12@@?$allocator_traits@V?$allocator@U?$_Tree_node@U?$pair@$$CBV?$basic_string@DU?$char_traits@D@std@@V?$allocator@D@2@@std@@V12@@std@@PAX@std@@@std@@@std@@SAXAAV?$allocator@U?$_Tree_node@U?$pair@$$CBV?$basic_string@DU?$char_traits@D@std@@V?$allocator@D@2@@std@@V12@@std@@PAX@std@@@1@PAPAU?$_Tree_node@U?$pair@$$CBV?$basic_string@DU?$char_traits@D@std@@V?$allocator@D@2@@std@@V12@@std@@PAX@1@AAPAU31@@Z 00419c70 f i ccConfig.obj
 0001:00018ca0       ??$construct@U?$pair@$$CBV?$basic_string@DU?$char_traits@D@std@@V?$allocator@D@2@@std@@V12@@std@@U?$pair@V?$basic_string@DU?$char_traits@D@std@@V?$allocator@D@2@@std@@V12@@2@@?$_Wrap_alloc@V?$allocator@U?$_Tree_node@U?$pair@$$CBV?$basic_string@DU?$char_traits@D@std@@V?$allocator@D@2@@std@@V12@@std@@PAX@std@@@std@@@std@@QAEXPAU?$pair@$$CBV?$basic_string@DU?$char_traits@D@std@@V?$allocator@D@2@@std@@V12@@1@$$QAU?$pair@V?$basic_string@DU?$char_traits@D@std@@V?$allocator@D@2@@std@@V12@@1@@Z 00419ca0 f i ccConfig.obj
 0001:00018ce0       ??$construct@U?$pair@$$CBV?$basic_string@DU?$char_traits@D@std@@V?$allocator@D@2@@std@@V12@@std@@U?$pair@V?$basic_string@DU?$char_traits@D@std@@V?$allocator@D@2@@std@@V12@@2@@?$allocator@U?$_Tree_node@U?$pair@$$CBV?$basic_string@DU?$char_traits@D@std@@V?$allocator@D@2@@std@@V12@@std@@PAX@std@@@std@@QAEXPAU?$pair@$$CBV?$basic_string@DU?$char_traits@D@std@@V?$allocator@D@2@@std@@V12@@1@$$QAU?$pair@V?$basic_string@DU?$char_traits@D@std@@V?$allocator@D@2@@std@@V12@@1@@Z 00419ce0 f i ccConfig.obj
 0001:00018d90       ??$construct@U?$pair@$$CBV?$basic_string@DU?$char_traits@D@std@@V?$allocator@D@2@@std@@V12@@std@@U?$pair@V?$basic_string@DU?$char_traits@D@std@@V?$allocator@D@2@@std@@V12@@2@@?$allocator_traits@V?$allocator@U?$_Tree_node@U?$pair@$$CBV?$basic_string@DU?$char_traits@D@std@@V?$allocator@D@2@@std@@V12@@std@@PAX@std@@@std@@@std@@SAXAAV?$allocator@U?$_Tree_node@U?$pair@$$CBV?$basic_string@DU?$char_traits@D@std@@V?$allocator@D@2@@std@@V12@@std@@PAX@std@@@1@PAU?$pair@$$CBV?$basic_string@DU?$char_traits@D@std@@V?$allocator@D@2@@std@@V12@@1@$$QAU?$pair@V?$basic_string@DU?$char_traits@D@std@@V?$allocator@D@2@@std@@V12@@1@@Z 00419d90 f i ccConfig.obj
 0001:00018dc0       ??$construct@V?$basic_string@DU?$char_traits@D@std@@V?$allocator@D@2@@std@@V12@@?$_Wrap_alloc@V?$allocator@U?$_List_node@V?$basic_string@DU?$char_traits@D@std@@V?$allocator@D@2@@std@@PAX@std@@@std@@@std@@QAEXPAV?$basic_string@DU?$char_traits@D@std@@V?$allocator@D@2@@1@$$QAV21@@Z 00419dc0 f i ccConfig.obj
 0001:00018e00       ??$construct@V?$basic_string@DU?$char_traits@D@std@@V?$allocator@D@2@@std@@V12@@?$allocator@U?$_List_node@V?$basic_string@DU?$char_traits@D@std@@V?$allocator@D@2@@std@@PAX@std@@@std@@QAEXPAV?$basic_string@DU?$char_traits@D@std@@V?$allocator@D@2@@1@$$QAV21@@Z 00419e00 f i ccConfig.obj
 0001:00018eb0       ??$construct@V?$basic_string@DU?$char_traits@D@std@@V?$allocator@D@2@@std@@V12@@?$allocator_traits@V?$allocator@U?$_List_node@V?$basic_string@DU?$char_traits@D@std@@V?$allocator@D@2@@std@@PAX@std@@@std@@@std@@SAXAAV?$allocator@U?$_List_node@V?$basic_string@DU?$char_traits@D@std@@V?$allocator@D@2@@std@@PAX@std@@@1@PAV?$basic_string@DU?$char_traits@D@std@@V?$allocator@D@2@@1@$$QAV31@@Z 00419eb0 f i ccConfig.obj
 0001:00018ee0       ??$destroy@PAU?$_Tree_node@U?$pair@$$CBV?$basic_string@DU?$char_traits@D@std@@V?$allocator@D@2@@std@@V12@@std@@PAX@std@@@?$_Wrap_alloc@V?$allocator@U?$_Tree_node@U?$pair@$$CBV?$basic_string@DU?$char_traits@D@std@@V?$allocator@D@2@@std@@V12@@std@@PAX@std@@@std@@@std@@QAEXPAPAU?$_Tree_node@U?$pair@$$CBV?$basic_string@DU?$char_traits@D@std@@V?$allocator@D@2@@std@@V12@@std@@PAX@1@@Z 00419ee0 f i ccConfig.obj
 0001:00018f10       ??$destroy@PAU?$_Tree_node@U?$pair@$$CBV?$basic_string@DU?$char_traits@D@std@@V?$allocator@D@2@@std@@V12@@std@@PAX@std@@@?$allocator@U?$_Tree_node@U?$pair@$$CBV?$basic_string@DU?$char_traits@D@std@@V?$allocator@D@2@@std@@V12@@std@@PAX@std@@@std@@QAEXPAPAU?$_Tree_node@U?$pair@$$CBV?$basic_string@DU?$char_traits@D@std@@V?$allocator@D@2@@std@@V12@@std@@PAX@1@@Z 00419f10 f i ccConfig.obj
 0001:00018f20       ??$destroy@PAU?$_Tree_node@U?$pair@$$CBV?$basic_string@DU?$char_traits@D@std@@V?$allocator@D@2@@std@@V12@@std@@PAX@std@@@?$allocator_traits@V?$allocator@U?$_Tree_node@U?$pair@$$CBV?$basic_string@DU?$char_traits@D@std@@V?$allocator@D@2@@std@@V12@@std@@PAX@std@@@std@@@std@@SAXAAV?$allocator@U?$_Tree_node@U?$pair@$$CBV?$basic_string@DU?$char_traits@D@std@@V?$allocator@D@2@@std@@V12@@std@@PAX@std@@@1@PAPAU?$_Tree_node@U?$pair@$$CBV?$basic_string@DU?$char_traits@D@std@@V?$allocator@D@2@@std@@V12@@std@@PAX@1@@Z 00419f20 f i ccConfig.obj
 0001:00018f40       ??$destroy@U?$pair@$$CBV?$basic_string@DU?$char_traits@D@std@@V?$allocator@D@2@@std@@V12@@std@@@?$_Wrap_alloc@V?$allocator@U?$_Tree_node@U?$pair@$$CBV?$basic_string@DU?$char_traits@D@std@@V?$allocator@D@2@@std@@V12@@std@@PAX@std@@@std@@@std@@QAEXPAU?$pair@$$CBV?$basic_string@DU?$char_traits@D@std@@V?$allocator@D@2@@std@@V12@@1@@Z 00419f40 f i ccConfig.obj
 0001:00018f70       ??$destroy@U?$pair@$$CBV?$basic_string@DU?$char_traits@D@std@@V?$allocator@D@2@@std@@V12@@std@@@?$allocator@U?$_Tree_node@U?$pair@$$CBV?$basic_string@DU?$char_traits@D@std@@V?$allocator@D@2@@std@@V12@@std@@PAX@std@@@std@@QAEXPAU?$pair@$$CBV?$basic_string@DU?$char_traits@D@std@@V?$allocator@D@2@@std@@V12@@1@@Z 00419f70 f i ccConfig.obj
 0001:00018f90       ??$destroy@U?$pair@$$CBV?$basic_string@DU?$char_traits@D@std@@V?$allocator@D@2@@std@@V12@@std@@@?$allocator_traits@V?$allocator@U?$_Tree_node@U?$pair@$$CBV?$basic_string@DU?$char_traits@D@std@@V?$allocator@D@2@@std@@V12@@std@@PAX@std@@@std@@@std@@SAXAAV?$allocator@U?$_Tree_node@U?$pair@$$CBV?$basic_string@DU?$char_traits@D@std@@V?$allocator@D@2@@std@@V12@@std@@PAX@std@@@1@PAU?$pair@$$CBV?$basic_string@DU?$char_traits@D@std@@V?$allocator@D@2@@std@@V12@@1@@Z 00419f90 f i ccConfig.obj
 0001:00018fb0       ??$forward@AAPAU?$_List_node@V?$basic_string@DU?$char_traits@D@std@@V?$allocator@D@2@@std@@PAX@std@@@std@@YAAAPAU?$_List_node@V?$basic_string@DU?$char_traits@D@std@@V?$allocator@D@2@@std@@PAX@0@AAPAU10@@Z 00419fb0 f i ccConfig.obj
 0001:00018fc0       ??$forward@AAPAU?$_Tree_node@U?$pair@$$CBV?$basic_string@DU?$char_traits@D@std@@V?$allocator@D@2@@std@@V12@@std@@PAX@std@@@std@@YAAAPAU?$_Tree_node@U?$pair@$$CBV?$basic_string@DU?$char_traits@D@std@@V?$allocator@D@2@@std@@V12@@std@@PAX@0@AAPAU10@@Z 00419fc0 f i ccConfig.obj
 0001:00018fd0       ??$forward@AAU?$pair@$$CBV?$basic_string@DU?$char_traits@D@std@@V?$allocator@D@2@@std@@V12@@std@@@std@@YAAAU?$pair@$$CBV?$basic_string@DU?$char_traits@D@std@@V?$allocator@D@2@@std@@V12@@0@AAU10@@Z 00419fd0 f i ccConfig.obj
 0001:00018fe0       ??$forward@AAV?$_Tree_iterator@V?$_Tree_val@U?$_Tree_simple_types@U?$pair@$$CBV?$basic_string@DU?$char_traits@D@std@@V?$allocator@D@2@@std@@V12@@std@@@std@@@std@@@std@@@std@@YAAAV?$_Tree_iterator@V?$_Tree_val@U?$_Tree_simple_types@U?$pair@$$CBV?$basic_string@DU?$char_traits@D@std@@V?$allocator@D@2@@std@@V12@@std@@@std@@@std@@@0@AAV10@@Z 00419fe0 f i ccConfig.obj
 0001:00018ff0       ??$forward@AAV?$basic_string@DU?$char_traits@D@std@@V?$allocator@D@2@@std@@@std@@YAAAV?$basic_string@DU?$char_traits@D@std@@V?$allocator@D@2@@0@AAV10@@Z 00419ff0 f i ccConfig.obj
 0001:00019000       ??$forward@U?$pair@V?$basic_string@DU?$char_traits@D@std@@V?$allocator@D@2@@std@@V12@@std@@@std@@YA$$QAU?$pair@V?$basic_string@DU?$char_traits@D@std@@V?$allocator@D@2@@std@@V12@@0@AAU10@@Z 0041a000 f i ccConfig.obj
 0001:00019010       ??$forward@V?$_Tree_iterator@V?$_Tree_val@U?$_Tree_simple_types@U?$pair@$$CBV?$basic_string@DU?$char_traits@D@std@@V?$allocator@D@2@@std@@V12@@std@@@std@@@std@@@std@@@std@@YA$$QAV?$_Tree_iterator@V?$_Tree_val@U?$_Tree_simple_types@U?$pair@$$CBV?$basic_string@DU?$char_traits@D@std@@V?$allocator@D@2@@std@@V12@@std@@@std@@@std@@@0@AAV10@@Z 0041a010 f i ccConfig.obj
 0001:00019020       ??$forward@_N@std@@YA$$QA_NAA_N@Z 0041a020 f i ccConfig.obj
 0001:00019030       ??$insert@U?$pair@V?$basic_string@DU?$char_traits@D@std@@V?$allocator@D@2@@std@@V12@@std@@@?$_Tree@V?$_Tmap_traits@V?$basic_string@DU?$char_traits@D@std@@V?$allocator@D@2@@std@@V12@U?$less@V?$basic_string@DU?$char_traits@D@std@@V?$allocator@D@2@@std@@@2@V?$allocator@U?$pair@$$CBV?$basic_string@DU?$char_traits@D@std@@V?$allocator@D@2@@std@@V12@@std@@@2@$0A@@std@@@std@@QAE?AU?$pair@V?$_Tree_iterator@V?$_Tree_val@U?$_Tree_simple_types@U?$pair@$$CBV?$basic_string@DU?$char_traits@D@std@@V?$allocator@D@2@@std@@V12@@std@@@std@@@std@@@std@@_N@1@$$QAU?$pair@V?$basic_string@DU?$char_traits@D@std@@V?$allocator@D@2@@std@@V12@@1@@Z 0041a030 f i ccConfig.obj
 0001:000190a0       ??$swap@D@std@@YAXAAD0@Z   0041a0a0 f i ccConfig.obj
 0001:000190f0       ??0?$_Iterator012@Ubidirectional_iterator_tag@std@@U?$pair@$$CBV?$basic_string@DU?$char_traits@D@std@@V?$allocator@D@2@@std@@V12@@2@HPBU32@ABU32@U_Iterator_base12@2@@std@@QAE@ABU01@@Z 0041a0f0 f i ccConfig.obj
 0001:00019120       ??0?$_Iterator012@Ubidirectional_iterator_tag@std@@U?$pair@$$CBV?$basic_string@DU?$char_traits@D@std@@V?$allocator@D@2@@std@@V12@@2@HPBU32@ABU32@U_Iterator_base12@2@@std@@QAE@XZ 0041a120 f i ccConfig.obj
 0001:00019140       ??0?$_Iterator012@Urandom_access_iterator_tag@std@@DHPBDABDU_Iterator_base12@2@@std@@QAE@ABU01@@Z 0041a140 f i ccConfig.obj
 0001:00019170       ??0?$_Iterator012@Urandom_access_iterator_tag@std@@DHPBDABDU_Iterator_base12@2@@std@@QAE@XZ 0041a170 f i ccConfig.obj
 0001:00019190       ??0?$_List_unchecked_const_iterator@V?$_List_val@U?$_List_simple_types@V?$basic_string@DU?$char_traits@D@std@@V?$allocator@D@2@@std@@@std@@@std@@U_Iterator_base0@2@@std@@QAE@PAU?$_List_node@V?$basic_string@DU?$char_traits@D@std@@V?$allocator@D@2@@std@@PAX@1@PBV?$_List_val@U?$_List_simple_types@V?$basic_string@DU?$char_traits@D@std@@V?$allocator@D@2@@std@@@std@@@1@@Z 0041a190 f i ccConfig.obj
 0001:000191c0       ??0?$_List_unchecked_iterator@V?$_List_val@U?$_List_simple_types@V?$basic_string@DU?$char_traits@D@std@@V?$allocator@D@2@@std@@@std@@@std@@@std@@QAE@PAU?$_List_node@V?$basic_string@DU?$char_traits@D@std@@V?$allocator@D@2@@std@@PAX@1@PBV?$_List_val@U?$_List_simple_types@V?$basic_string@DU?$char_traits@D@std@@V?$allocator@D@2@@std@@@std@@@1@@Z 0041a1c0 f i ccConfig.obj
 0001:000191f0       ??0?$_String_const_iterator@V?$_String_val@U?$_Simple_types@D@std@@@std@@@std@@QAE@ABV01@@Z 0041a1f0 f i ccConfig.obj
 0001:00019230       ??0?$_String_const_iterator@V?$_String_val@U?$_Simple_types@D@std@@@std@@@std@@QAE@PBDPBU_Container_base12@1@@Z 0041a230 f i ccConfig.obj
 0001:000192b0       ??0?$_String_iterator@V?$_String_val@U?$_Simple_types@D@std@@@std@@@std@@QAE@ABV01@@Z 0041a2b0 f i ccConfig.obj
 0001:000192e0       ??0?$_String_iterator@V?$_String_val@U?$_Simple_types@D@std@@@std@@@std@@QAE@PADPBU_Container_base12@1@@Z 0041a2e0 f i ccConfig.obj
 0001:00019310       ??0?$_Tree@V?$_Tmap_traits@V?$basic_string@DU?$char_traits@D@std@@V?$allocator@D@2@@std@@V12@U?$less@V?$basic_string@DU?$char_traits@D@std@@V?$allocator@D@2@@std@@@2@V?$allocator@U?$pair@$$CBV?$basic_string@DU?$char_traits@D@std@@V?$allocator@D@2@@std@@V12@@std@@@2@$0A@@std@@@std@@QAE@ABU?$less@V?$basic_string@DU?$char_traits@D@std@@V?$allocator@D@2@@std@@@1@ABV?$allocator@U?$pair@$$CBV?$basic_string@DU?$char_traits@D@std@@V?$allocator@D@2@@std@@V12@@std@@@1@@Z 0041a310 f i ccConfig.obj
 0001:00019340       ??0?$_Tree_alloc@$0A@U?$_Tree_base_types@U?$pair@$$CBV?$basic_string@DU?$char_traits@D@std@@V?$allocator@D@2@@std@@V12@@std@@V?$allocator@U?$pair@$$CBV?$basic_string@DU?$char_traits@D@std@@V?$allocator@D@2@@std@@V12@@std@@@2@@std@@@std@@QAE@ABV?$allocator@U?$pair@$$CBV?$basic_string@DU?$char_traits@D@std@@V?$allocator@D@2@@std@@V12@@std@@@1@@Z 0041a340 f i ccConfig.obj
 0001:00019410       ??0?$_Tree_buy@U?$pair@$$CBV?$basic_string@DU?$char_traits@D@std@@V?$allocator@D@2@@std@@V12@@std@@V?$allocator@U?$pair@$$CBV?$basic_string@DU?$char_traits@D@std@@V?$allocator@D@2@@std@@V12@@std@@@2@@std@@QAE@ABV?$allocator@U?$pair@$$CBV?$basic_string@DU?$char_traits@D@std@@V?$allocator@D@2@@std@@V12@@std@@@1@@Z 0041a410 f i ccConfig.obj
 0001:00019440       ??0?$_Tree_comp@$0A@V?$_Tmap_traits@V?$basic_string@DU?$char_traits@D@std@@V?$allocator@D@2@@std@@V12@U?$less@V?$basic_string@DU?$char_traits@D@std@@V?$allocator@D@2@@std@@@2@V?$allocator@U?$pair@$$CBV?$basic_string@DU?$char_traits@D@std@@V?$allocator@D@2@@std@@V12@@std@@@2@$0A@@std@@@std@@QAE@ABU?$less@V?$basic_string@DU?$char_traits@D@std@@V?$allocator@D@2@@std@@@1@ABV?$allocator@U?$pair@$$CBV?$basic_string@DU?$char_traits@D@std@@V?$allocator@D@2@@std@@V12@@std@@@1@@Z 0041a440 f i ccConfig.obj
 0001:00019470       ??0?$_Tree_const_iterator@V?$_Tree_val@U?$_Tree_simple_types@U?$pair@$$CBV?$basic_string@DU?$char_traits@D@std@@V?$allocator@D@2@@std@@V12@@std@@@std@@@std@@@std@@QAE@ABV01@@Z 0041a470 f i ccConfig.obj
 0001:000194a0       ??0?$_Tree_const_iterator@V?$_Tree_val@U?$_Tree_simple_types@U?$pair@$$CBV?$basic_string@DU?$char_traits@D@std@@V?$allocator@D@2@@std@@V12@@std@@@std@@@std@@@std@@QAE@PAU?$_Tree_node@U?$pair@$$CBV?$basic_string@DU?$char_traits@D@std@@V?$allocator@D@2@@std@@V12@@std@@PAX@1@PBV?$_Tree_val@U?$_Tree_simple_types@U?$pair@$$CBV?$basic_string@DU?$char_traits@D@std@@V?$allocator@D@2@@std@@V12@@std@@@std@@@1@@Z 0041a4a0 f i ccConfig.obj
 0001:000194d0       ??0?$_Tree_iterator@V?$_Tree_val@U?$_Tree_simple_types@U?$pair@$$CBV?$basic_string@DU?$char_traits@D@std@@V?$allocator@D@2@@std@@V12@@std@@@std@@@std@@@std@@QAE@ABV01@@Z 0041a4d0 f i ccConfig.obj
 0001:00019500       ??0?$_Tree_iterator@V?$_Tree_val@U?$_Tree_simple_types@U?$pair@$$CBV?$basic_string@DU?$char_traits@D@std@@V?$allocator@D@2@@std@@V12@@std@@@std@@@std@@@std@@QAE@PAU?$_Tree_node@U?$pair@$$CBV?$basic_string@DU?$char_traits@D@std@@V?$allocator@D@2@@std@@V12@@std@@PAX@1@PBV?$_Tree_val@U?$_Tree_simple_types@U?$pair@$$CBV?$basic_string@DU?$char_traits@D@std@@V?$allocator@D@2@@std@@V12@@std@@@std@@@1@@Z 0041a500 f i ccConfig.obj
 0001:00019530       ??0?$_Tree_unchecked_const_iterator@V?$_Tree_val@U?$_Tree_simple_types@U?$pair@$$CBV?$basic_string@DU?$char_traits@D@std@@V?$allocator@D@2@@std@@V12@@std@@@std@@@std@@U_Iterator_base12@2@@std@@QAE@ABV01@@Z 0041a530 f i ccConfig.obj
 0001:00019570       ??0?$_Tree_unchecked_const_iterator@V?$_Tree_val@U?$_Tree_simple_types@U?$pair@$$CBV?$basic_string@DU?$char_traits@D@std@@V?$allocator@D@2@@std@@V12@@std@@@std@@@std@@U_Iterator_base12@2@@std@@QAE@PAU?$_Tree_node@U?$pair@$$CBV?$basic_string@DU?$char_traits@D@std@@V?$allocator@D@2@@std@@V12@@std@@PAX@1@PBV?$_Tree_val@U?$_Tree_simple_types@U?$pair@$$CBV?$basic_string@DU?$char_traits@D@std@@V?$allocator@D@2@@std@@V12@@std@@@std@@@1@@Z 0041a570 f i ccConfig.obj
 0001:000195f0       ??0?$_Tree_val@U?$_Tree_simple_types@U?$pair@$$CBV?$basic_string@DU?$char_traits@D@std@@V?$allocator@D@2@@std@@V12@@std@@@std@@@std@@QAE@XZ 0041a5f0 f i ccConfig.obj
 0001:00019630       ??0?$_Wrap_alloc@V?$allocator@U?$_List_node@V?$basic_string@DU?$char_traits@D@std@@V?$allocator@D@2@@std@@PAX@std@@@std@@@std@@QAE@XZ 0041a630 f i ccConfig.obj
 0001:00019650       ??0?$_Wrap_alloc@V?$allocator@U?$_Tree_node@U?$pair@$$CBV?$basic_string@DU?$char_traits@D@std@@V?$allocator@D@2@@std@@V12@@std@@PAX@std@@@std@@@std@@QAE@XZ 0041a650 f i ccConfig.obj
 0001:00019670       ??0?$allocator@U?$_List_node@V?$basic_string@DU?$char_traits@D@std@@V?$allocator@D@2@@std@@PAX@std@@@std@@QAE@XZ 0041a670 f i ccConfig.obj
 0001:00019690       ??0?$allocator@U?$_Tree_node@U?$pair@$$CBV?$basic_string@DU?$char_traits@D@std@@V?$allocator@D@2@@std@@V12@@std@@PAX@std@@@std@@QAE@XZ 0041a690 f i ccConfig.obj
 0001:000196b0       ??0?$allocator@U?$pair@$$CBV?$basic_string@DU?$char_traits@D@std@@V?$allocator@D@2@@std@@V12@@std@@@std@@QAE@XZ 0041a6b0 f i ccConfig.obj
 0001:000196d0       ??0?$map@V?$basic_string@DU?$char_traits@D@std@@V?$allocator@D@2@@std@@V12@U?$less@V?$basic_string@DU?$char_traits@D@std@@V?$allocator@D@2@@std@@@2@V?$allocator@U?$pair@$$CBV?$basic_string@DU?$char_traits@D@std@@V?$allocator@D@2@@std@@V12@@std@@@2@@std@@QAE@XZ 0041a6d0 f i ccConfig.obj
 0001:00019700       ??0_Iterator_base12@std@@QAE@ABU01@@Z 0041a700 f i ccConfig.obj
 0001:00019740       ??1?$_Iterator012@Ubidirectional_iterator_tag@std@@U?$pair@$$CBV?$basic_string@DU?$char_traits@D@std@@V?$allocator@D@2@@std@@V12@@2@HPBU32@ABU32@U_Iterator_base12@2@@std@@QAE@XZ 0041a740 f i ccConfig.obj
 0001:00019760       ??1?$_Iterator012@Urandom_access_iterator_tag@std@@DHPBDABDU_Iterator_base12@2@@std@@QAE@XZ 0041a760 f i ccConfig.obj
 0001:00019780       ??1?$_String_const_iterator@V?$_String_val@U?$_Simple_types@D@std@@@std@@@std@@QAE@XZ 0041a780 f i ccConfig.obj
 0001:000197a0       ??1?$_String_iterator@V?$_String_val@U?$_Simple_types@D@std@@@std@@@std@@QAE@XZ 0041a7a0 f i ccConfig.obj
 0001:000197c0       ??1?$_Tree@V?$_Tmap_traits@V?$basic_string@DU?$char_traits@D@std@@V?$allocator@D@2@@std@@V12@U?$less@V?$basic_string@DU?$char_traits@D@std@@V?$allocator@D@2@@std@@@2@V?$allocator@U?$pair@$$CBV?$basic_string@DU?$char_traits@D@std@@V?$allocator@D@2@@std@@V12@@std@@@2@$0A@@std@@@std@@QAE@XZ 0041a7c0 f i ccConfig.obj
 0001:000197f0       ??1?$_Tree_alloc@$0A@U?$_Tree_base_types@U?$pair@$$CBV?$basic_string@DU?$char_traits@D@std@@V?$allocator@D@2@@std@@V12@@std@@V?$allocator@U?$pair@$$CBV?$basic_string@DU?$char_traits@D@std@@V?$allocator@D@2@@std@@V12@@std@@@2@@std@@@std@@QAE@XZ 0041a7f0 f i ccConfig.obj
 0001:00019830       ??1?$_Tree_buy@U?$pair@$$CBV?$basic_string@DU?$char_traits@D@std@@V?$allocator@D@2@@std@@V12@@std@@V?$allocator@U?$pair@$$CBV?$basic_string@DU?$char_traits@D@std@@V?$allocator@D@2@@std@@V12@@std@@@2@@std@@QAE@XZ 0041a830 f i ccConfig.obj
 0001:00019850       ??1?$_Tree_comp@$0A@V?$_Tmap_traits@V?$basic_string@DU?$char_traits@D@std@@V?$allocator@D@2@@std@@V12@U?$less@V?$basic_string@DU?$char_traits@D@std@@V?$allocator@D@2@@std@@@2@V?$allocator@U?$pair@$$CBV?$basic_string@DU?$char_traits@D@std@@V?$allocator@D@2@@std@@V12@@std@@@2@$0A@@std@@@std@@QAE@XZ 0041a850 f i ccConfig.obj
 0001:00019870       ??1?$_Tree_const_iterator@V?$_Tree_val@U?$_Tree_simple_types@U?$pair@$$CBV?$basic_string@DU?$char_traits@D@std@@V?$allocator@D@2@@std@@V12@@std@@@std@@@std@@@std@@QAE@XZ 0041a870 f i ccConfig.obj
 0001:00019890       ??1?$_Tree_iterator@V?$_Tree_val@U?$_Tree_simple_types@U?$pair@$$CBV?$basic_string@DU?$char_traits@D@std@@V?$allocator@D@2@@std@@V12@@std@@@std@@@std@@@std@@QAE@XZ 0041a890 f i ccConfig.obj
 0001:000198b0       ??1?$_Tree_unchecked_const_iterator@V?$_Tree_val@U?$_Tree_simple_types@U?$pair@$$CBV?$basic_string@DU?$char_traits@D@std@@V?$allocator@D@2@@std@@V12@@std@@@std@@@std@@U_Iterator_base12@2@@std@@QAE@XZ 0041a8b0 f i ccConfig.obj
 0001:000198d0       ??1?$_Tree_val@U?$_Tree_simple_types@U?$pair@$$CBV?$basic_string@DU?$char_traits@D@std@@V?$allocator@D@2@@std@@V12@@std@@@std@@@std@@QAE@XZ 0041a8d0 f i ccConfig.obj
 0001:000198f0       ??1?$map@V?$basic_string@DU?$char_traits@D@std@@V?$allocator@D@2@@std@@V12@U?$less@V?$basic_string@DU?$char_traits@D@std@@V?$allocator@D@2@@std@@@2@V?$allocator@U?$pair@$$CBV?$basic_string@DU?$char_traits@D@std@@V?$allocator@D@2@@std@@V12@@std@@@2@@std@@QAE@XZ 0041a8f0 f i ccConfig.obj
 0001:00019910       ??1?$pair@$$CBV?$basic_string@DU?$char_traits@D@std@@V?$allocator@D@2@@std@@V12@@std@@QAE@XZ 0041a910 f i ccConfig.obj
 0001:00019940       ??1?$pair@V?$_Tree_iterator@V?$_Tree_val@U?$_Tree_simple_types@U?$pair@$$CBV?$basic_string@DU?$char_traits@D@std@@V?$allocator@D@2@@std@@V12@@std@@@std@@@std@@@std@@_N@std@@QAE@XZ 0041a940 f i ccConfig.obj
 0001:00019960       ??1?$pair@V?$basic_string@DU?$char_traits@D@std@@V?$allocator@D@2@@std@@V12@@std@@QAE@XZ 0041a960 f i ccConfig.obj
 0001:00019990       ??4?$_Iterator012@Ubidirectional_iterator_tag@std@@U?$pair@$$CBV?$basic_string@DU?$char_traits@D@std@@V?$allocator@D@2@@std@@V12@@2@HPBU32@ABU32@U_Iterator_base12@2@@std@@QAEAAU01@ABU01@@Z 0041a990 f i ccConfig.obj
 0001:000199c0       ??4?$_Tree_const_iterator@V?$_Tree_val@U?$_Tree_simple_types@U?$pair@$$CBV?$basic_string@DU?$char_traits@D@std@@V?$allocator@D@2@@std@@V12@@std@@@std@@@std@@@std@@QAEAAV01@ABV01@@Z 0041a9c0 f i ccConfig.obj
 0001:000199f0       ??4?$_Tree_iterator@V?$_Tree_val@U?$_Tree_simple_types@U?$pair@$$CBV?$basic_string@DU?$char_traits@D@std@@V?$allocator@D@2@@std@@V12@@std@@@std@@@std@@@std@@QAEAAV01@ABV01@@Z 0041a9f0 f i ccConfig.obj
 0001:00019a20       ??4?$_Tree_unchecked_const_iterator@V?$_Tree_val@U?$_Tree_simple_types@U?$pair@$$CBV?$basic_string@DU?$char_traits@D@std@@V?$allocator@D@2@@std@@V12@@std@@@std@@@std@@U_Iterator_base12@2@@std@@QAEAAV01@ABV01@@Z 0041aa20 f i ccConfig.obj
 0001:00019a60       ??4?$basic_string@DU?$char_traits@D@std@@V?$allocator@D@2@@std@@QAEAAV01@$$QAV01@@Z 0041aa60 f i ccConfig.obj
 0001:00019b40       ??4_Iterator_base12@std@@QAEAAU01@ABU01@@Z 0041ab40 f i ccConfig.obj
 0001:00019c00       ??8?$_String_const_iterator@V?$_String_val@U?$_Simple_types@D@std@@@std@@@std@@QBE_NABV01@@Z 0041ac00 f i ccConfig.obj
 0001:00019c50       ??8?$_Tree_const_iterator@V?$_Tree_val@U?$_Tree_simple_types@U?$pair@$$CBV?$basic_string@DU?$char_traits@D@std@@V?$allocator@D@2@@std@@V12@@std@@@std@@@std@@@std@@QBE_NABV01@@Z 0041ac50 f i ccConfig.obj
 0001:00019d40       ??9?$_Tree_const_iterator@V?$_Tree_val@U?$_Tree_simple_types@U?$pair@$$CBV?$basic_string@DU?$char_traits@D@std@@V?$allocator@D@2@@std@@V12@@std@@@std@@@std@@@std@@QBE_NABV01@@Z 0041ad40 f i ccConfig.obj
 0001:00019d90       ??C?$_Tree_const_iterator@V?$_Tree_val@U?$_Tree_simple_types@U?$pair@$$CBV?$basic_string@DU?$char_traits@D@std@@V?$allocator@D@2@@std@@V12@@std@@@std@@@std@@@std@@QBEPBU?$pair@$$CBV?$basic_string@DU?$char_traits@D@std@@V?$allocator@D@2@@std@@V12@@1@XZ 0041ad90 f i ccConfig.obj
 0001:00019dc0       ??C?$_Tree_iterator@V?$_Tree_val@U?$_Tree_simple_types@U?$pair@$$CBV?$basic_string@DU?$char_traits@D@std@@V?$allocator@D@2@@std@@V12@@std@@@std@@@std@@@std@@QBEPAU?$pair@$$CBV?$basic_string@DU?$char_traits@D@std@@V?$allocator@D@2@@std@@V12@@1@XZ 0041adc0 f i ccConfig.obj
 0001:00019df0       ??D?$_String_const_iterator@V?$_String_val@U?$_Simple_types@D@std@@@std@@@std@@QBEABDXZ 0041adf0 f i ccConfig.obj
 0001:00019ef0       ??D?$_String_iterator@V?$_String_val@U?$_Simple_types@D@std@@@std@@@std@@QBEAADXZ 0041aef0 f i ccConfig.obj
 0001:00019f10       ??D?$_Tree_const_iterator@V?$_Tree_val@U?$_Tree_simple_types@U?$pair@$$CBV?$basic_string@DU?$char_traits@D@std@@V?$allocator@D@2@@std@@V12@@std@@@std@@@std@@@std@@QBEABU?$pair@$$CBV?$basic_string@DU?$char_traits@D@std@@V?$allocator@D@2@@std@@V12@@1@XZ 0041af10 f i ccConfig.obj
 0001:00019ff0       ??D?$_Tree_iterator@V?$_Tree_val@U?$_Tree_simple_types@U?$pair@$$CBV?$basic_string@DU?$char_traits@D@std@@V?$allocator@D@2@@std@@V12@@std@@@std@@@std@@@std@@QBEAAU?$pair@$$CBV?$basic_string@DU?$char_traits@D@std@@V?$allocator@D@2@@std@@V12@@1@XZ 0041aff0 f i ccConfig.obj
 0001:0001a010       ??E?$_Tree_const_iterator@V?$_Tree_val@U?$_Tree_simple_types@U?$pair@$$CBV?$basic_string@DU?$char_traits@D@std@@V?$allocator@D@2@@std@@V12@@std@@@std@@@std@@@std@@QAE?AV01@H@Z 0041b010 f i ccConfig.obj
 0001:0001a0c0       ??E?$_Tree_const_iterator@V?$_Tree_val@U?$_Tree_simple_types@U?$pair@$$CBV?$basic_string@DU?$char_traits@D@std@@V?$allocator@D@2@@std@@V12@@std@@@std@@@std@@@std@@QAEAAV01@XZ 0041b0c0 f i ccConfig.obj
 0001:0001a1a0       ??E?$_Tree_iterator@V?$_Tree_val@U?$_Tree_simple_types@U?$pair@$$CBV?$basic_string@DU?$char_traits@D@std@@V?$allocator@D@2@@std@@V12@@std@@@std@@@std@@@std@@QAE?AV01@H@Z 0041b1a0 f i ccConfig.obj
 0001:0001a250       ??E?$_Tree_iterator@V?$_Tree_val@U?$_Tree_simple_types@U?$pair@$$CBV?$basic_string@DU?$char_traits@D@std@@V?$allocator@D@2@@std@@V12@@std@@@std@@@std@@@std@@QAEAAV01@XZ 0041b250 f i ccConfig.obj
 0001:0001a270       ??E?$_Tree_unchecked_const_iterator@V?$_Tree_val@U?$_Tree_simple_types@U?$pair@$$CBV?$basic_string@DU?$char_traits@D@std@@V?$allocator@D@2@@std@@V12@@std@@@std@@@std@@U_Iterator_base12@2@@std@@QAEAAV01@XZ 0041b270 f i ccConfig.obj
 0001:0001a360       ??F?$_Tree_const_iterator@V?$_Tree_val@U?$_Tree_simple_types@U?$pair@$$CBV?$basic_string@DU?$char_traits@D@std@@V?$allocator@D@2@@std@@V12@@std@@@std@@@std@@@std@@QAEAAV01@XZ 0041b360 f i ccConfig.obj
 0001:0001a4c0       ??F?$_Tree_iterator@V?$_Tree_val@U?$_Tree_simple_types@U?$pair@$$CBV?$basic_string@DU?$char_traits@D@std@@V?$allocator@D@2@@std@@V12@@std@@@std@@@std@@@std@@QAEAAV01@XZ 0041b4c0 f i ccConfig.obj
 0001:0001a4e0       ??F?$_Tree_unchecked_const_iterator@V?$_Tree_val@U?$_Tree_simple_types@U?$pair@$$CBV?$basic_string@DU?$char_traits@D@std@@V?$allocator@D@2@@std@@V12@@std@@@std@@@std@@U_Iterator_base12@2@@std@@QAEAAV01@XZ 0041b4e0 f i ccConfig.obj
 0001:0001a610       ??G?$_String_const_iterator@V?$_String_val@U?$_Simple_types@D@std@@@std@@@std@@QBEHABV01@@Z 0041b610 f i ccConfig.obj
 0001:0001a640       ??G?$_String_iterator@V?$_String_val@U?$_Simple_types@D@std@@@std@@@std@@QBEHABV?$_String_const_iterator@V?$_String_val@U?$_Simple_types@D@std@@@std@@@1@@Z 0041b640 f i ccConfig.obj
 0001:0001a6e0       ??R?$less@V?$basic_string@DU?$char_traits@D@std@@V?$allocator@D@2@@std@@@std@@QBE_NABV?$basic_string@DU?$char_traits@D@std@@V?$allocator@D@2@@1@0@Z 0041b6e0 f i ccConfig.obj
 0001:0001a710       ??_G?$pair@$$CBV?$basic_string@DU?$char_traits@D@std@@V?$allocator@D@2@@std@@V12@@std@@QAEPAXI@Z 0041b710 f i ccConfig.obj
 0001:0001a750       ??_EccConfig@@UAEPAXI@Z    0041b750 f i ccConfig.obj
 0001:0001a750       ??_GccConfig@@UAEPAXI@Z    0041b750 f i ccConfig.obj
 0001:0001a790       ?_Adopt@_Iterator_base0@std@@QAEXPBX@Z 0041b790 f i ccConfig.obj
 0001:0001a7a0       ?_Alloc_proxy@?$_Tree_alloc@$0A@U?$_Tree_base_types@U?$pair@$$CBV?$basic_string@DU?$char_traits@D@std@@V?$allocator@D@2@@std@@V12@@std@@V?$allocator@U?$pair@$$CBV?$basic_string@DU?$char_traits@D@std@@V?$allocator@D@2@@std@@V12@@std@@@2@@std@@@std@@QAEXXZ 0041b7a0 f i ccConfig.obj
 0001:0001a810       ?_Buyheadnode@?$_Tree_alloc@$0A@U?$_Tree_base_types@U?$pair@$$CBV?$basic_string@DU?$char_traits@D@std@@V?$allocator@D@2@@std@@V12@@std@@V?$allocator@U?$pair@$$CBV?$basic_string@DU?$char_traits@D@std@@V?$allocator@D@2@@std@@V12@@std@@@2@@std@@@std@@QAEPAU?$_Tree_node@U?$pair@$$CBV?$basic_string@DU?$char_traits@D@std@@V?$allocator@D@2@@std@@V12@@std@@PAX@2@XZ 0041b810 f i ccConfig.obj
 0001:0001a9d0       ?_Buynode0@?$_List_alloc@$0A@U?$_List_base_types@V?$basic_string@DU?$char_traits@D@std@@V?$allocator@D@2@@std@@V?$allocator@V?$basic_string@DU?$char_traits@D@std@@V?$allocator@D@2@@std@@@2@@std@@@std@@QAEPAU?$_List_node@V?$basic_string@DU?$char_traits@D@std@@V?$allocator@D@2@@std@@PAX@2@PAU32@0@Z 0041b9d0 f i ccConfig.obj
 0001:0001ab40       ?_Buynode0@?$_Tree_buy@U?$pair@$$CBV?$basic_string@DU?$char_traits@D@std@@V?$allocator@D@2@@std@@V12@@std@@V?$allocator@U?$pair@$$CBV?$basic_string@DU?$char_traits@D@std@@V?$allocator@D@2@@std@@V12@@std@@@2@@std@@QAEPAU?$_Tree_node@U?$pair@$$CBV?$basic_string@DU?$char_traits@D@std@@V?$allocator@D@2@@std@@V12@@std@@PAX@2@XZ 0041bb40 f i ccConfig.obj
 0001:0001ace0       ?_Color@?$_Tree_val@U?$_Tree_simple_types@U?$pair@$$CBV?$basic_string@DU?$char_traits@D@std@@V?$allocator@D@2@@std@@V12@@std@@@std@@@std@@SAAADPAU?$_Tree_node@U?$pair@$$CBV?$basic_string@DU?$char_traits@D@std@@V?$allocator@D@2@@std@@V12@@std@@PAX@2@@Z 0041bce0 f i ccConfig.obj
 0001:0001acf0       ?_Compat@?$_String_const_iterator@V?$_String_val@U?$_Simple_types@D@std@@@std@@@std@@QBEXABV12@@Z 0041bcf0 f i ccConfig.obj
 0001:0001adc0       ?_Destroy_if_not_nil@?$_Tree@V?$_Tmap_traits@V?$basic_string@DU?$char_traits@D@std@@V?$allocator@D@2@@std@@V12@U?$less@V?$basic_string@DU?$char_traits@D@std@@V?$allocator@D@2@@std@@@2@V?$allocator@U?$pair@$$CBV?$basic_string@DU?$char_traits@D@std@@V?$allocator@D@2@@std@@V12@@std@@@2@$0A@@std@@@std@@IAEXPAU?$_Tree_node@U?$pair@$$CBV?$basic_string@DU?$char_traits@D@std@@V?$allocator@D@2@@std@@V12@@std@@PAX@2@@Z 0041bdc0 f i ccConfig.obj
 0001:0001ae30       ?_Erase@?$_Tree@V?$_Tmap_traits@V?$basic_string@DU?$char_traits@D@std@@V?$allocator@D@2@@std@@V12@U?$less@V?$basic_string@DU?$char_traits@D@std@@V?$allocator@D@2@@std@@@2@V?$allocator@U?$pair@$$CBV?$basic_string@DU?$char_traits@D@std@@V?$allocator@D@2@@std@@V12@@std@@@2@$0A@@std@@@std@@IAEXPAU?$_Tree_node@U?$pair@$$CBV?$basic_string@DU?$char_traits@D@std@@V?$allocator@D@2@@std@@V12@@std@@PAX@2@@Z 0041be30 f i ccConfig.obj
 0001:0001af00       ?_Free_proxy@?$_Tree_alloc@$0A@U?$_Tree_base_types@U?$pair@$$CBV?$basic_string@DU?$char_traits@D@std@@V?$allocator@D@2@@std@@V12@@std@@V?$allocator@U?$pair@$$CBV?$basic_string@DU?$char_traits@D@std@@V?$allocator@D@2@@std@@V12@@std@@@2@@std@@@std@@QAEXXZ 0041bf00 f i ccConfig.obj
 0001:0001af70       ?_Freeheadnode@?$_Tree_alloc@$0A@U?$_Tree_base_types@U?$pair@$$CBV?$basic_string@DU?$char_traits@D@std@@V?$allocator@D@2@@std@@V12@@std@@V?$allocator@U?$pair@$$CBV?$basic_string@DU?$char_traits@D@std@@V?$allocator@D@2@@std@@V12@@std@@@2@@std@@@std@@QAEXPAU?$_Tree_node@U?$pair@$$CBV?$basic_string@DU?$char_traits@D@std@@V?$allocator@D@2@@std@@V12@@std@@PAX@2@@Z 0041bf70 f i ccConfig.obj
 0001:0001b040       ?_Freenode0@?$_Tree_buy@U?$pair@$$CBV?$basic_string@DU?$char_traits@D@std@@V?$allocator@D@2@@std@@V12@@std@@V?$allocator@U?$pair@$$CBV?$basic_string@DU?$char_traits@D@std@@V?$allocator@D@2@@std@@V12@@std@@@2@@std@@QAEXPAU?$_Tree_node@U?$pair@$$CBV?$basic_string@DU?$char_traits@D@std@@V?$allocator@D@2@@std@@V12@@std@@PAX@2@@Z 0041c040 f i ccConfig.obj
 0001:0001b110       ?_Getal@?$_List_alloc@$0A@U?$_List_base_types@V?$basic_string@DU?$char_traits@D@std@@V?$allocator@D@2@@std@@V?$allocator@V?$basic_string@DU?$char_traits@D@std@@V?$allocator@D@2@@std@@@2@@std@@@std@@QBE?AU?$_Wrap_alloc@V?$allocator@U?$_List_node@V?$basic_string@DU?$char_traits@D@std@@V?$allocator@D@2@@std@@PAX@std@@@std@@@2@XZ 0041c110 f i ccConfig.obj
 0001:0001b130       ?_Getal@?$_Tree_alloc@$0A@U?$_Tree_base_types@U?$pair@$$CBV?$basic_string@DU?$char_traits@D@std@@V?$allocator@D@2@@std@@V12@@std@@V?$allocator@U?$pair@$$CBV?$basic_string@DU?$char_traits@D@std@@V?$allocator@D@2@@std@@V12@@std@@@2@@std@@@std@@QBE?AU?$_Wrap_alloc@V?$allocator@U?$_Tree_node@U?$pair@$$CBV?$basic_string@DU?$char_traits@D@std@@V?$allocator@D@2@@std@@V12@@std@@PAX@std@@@std@@@2@XZ 0041c130 f i ccConfig.obj
 0001:0001b150       ?_Getcomp@?$_Tree_comp@$0A@V?$_Tmap_traits@V?$basic_string@DU?$char_traits@D@std@@V?$allocator@D@2@@std@@V12@U?$less@V?$basic_string@DU?$char_traits@D@std@@V?$allocator@D@2@@std@@@2@V?$allocator@U?$pair@$$CBV?$basic_string@DU?$char_traits@D@std@@V?$allocator@D@2@@std@@V12@@std@@@2@$0A@@std@@@std@@QBE?AU?$less@V?$basic_string@DU?$char_traits@D@std@@V?$allocator@D@2@@std@@@2@XZ 0041c150 f i ccConfig.obj
 0001:0001b170       ?_Incsize@?$list@V?$basic_string@DU?$char_traits@D@std@@V?$allocator@D@2@@std@@V?$allocator@V?$basic_string@DU?$char_traits@D@std@@V?$allocator@D@2@@std@@@2@@std@@QAEXI@Z 0041c170 f i ccConfig.obj
 0001:0001b1c0       ?_Isnil@?$_Tree_val@U?$_Tree_simple_types@U?$pair@$$CBV?$basic_string@DU?$char_traits@D@std@@V?$allocator@D@2@@std@@V12@@std@@@std@@@std@@SAAADPAU?$_Tree_node@U?$pair@$$CBV?$basic_string@DU?$char_traits@D@std@@V?$allocator@D@2@@std@@V12@@std@@PAX@2@@Z 0041c1c0 f i ccConfig.obj
 0001:0001b1d0       ?_Key@?$_Tree@V?$_Tmap_traits@V?$basic_string@DU?$char_traits@D@std@@V?$allocator@D@2@@std@@V12@U?$less@V?$basic_string@DU?$char_traits@D@std@@V?$allocator@D@2@@std@@@2@V?$allocator@U?$pair@$$CBV?$basic_string@DU?$char_traits@D@std@@V?$allocator@D@2@@std@@V12@@std@@@2@$0A@@std@@@std@@IBEABV?$basic_string@DU?$char_traits@D@std@@V?$allocator@D@2@@2@PAU?$_Tree_node@U?$pair@$$CBV?$basic_string@DU?$char_traits@D@std@@V?$allocator@D@2@@std@@V12@@std@@PAX@2@@Z 0041c1d0 f i ccConfig.obj
 0001:0001b200       ?_Kfn@?$_Tree@V?$_Tmap_traits@V?$basic_string@DU?$char_traits@D@std@@V?$allocator@D@2@@std@@V12@U?$less@V?$basic_string@DU?$char_traits@D@std@@V?$allocator@D@2@@std@@@2@V?$allocator@U?$pair@$$CBV?$basic_string@DU?$char_traits@D@std@@V?$allocator@D@2@@std@@V12@@std@@@2@$0A@@std@@@std@@IBEABV?$basic_string@DU?$char_traits@D@std@@V?$allocator@D@2@@2@ABU?$pair@$$CBV?$basic_string@DU?$char_traits@D@std@@V?$allocator@D@2@@std@@V12@@2@@Z 0041c200 f i ccConfig.obj
 0001:0001b220       ?_Left@?$_Tree_val@U?$_Tree_simple_types@U?$pair@$$CBV?$basic_string@DU?$char_traits@D@std@@V?$allocator@D@2@@std@@V12@@std@@@std@@@std@@SAAAPAU?$_Tree_node@U?$pair@$$CBV?$basic_string@DU?$char_traits@D@std@@V?$allocator@D@2@@std@@V12@@std@@PAX@2@PAU32@@Z 0041c220 f i ccConfig.obj
 0001:0001b230       ?_Lmost@?$_Tree@V?$_Tmap_traits@V?$basic_string@DU?$char_traits@D@std@@V?$allocator@D@2@@std@@V12@U?$less@V?$basic_string@DU?$char_traits@D@std@@V?$allocator@D@2@@std@@@2@V?$allocator@U?$pair@$$CBV?$basic_string@DU?$char_traits@D@std@@V?$allocator@D@2@@std@@V12@@std@@@2@$0A@@std@@@std@@IBEAAPAU?$_Tree_node@U?$pair@$$CBV?$basic_string@DU?$char_traits@D@std@@V?$allocator@D@2@@std@@V12@@std@@PAX@2@XZ 0041c230 f i ccConfig.obj
 0001:0001b250       ?_Lrotate@?$_Tree@V?$_Tmap_traits@V?$basic_string@DU?$char_traits@D@std@@V?$allocator@D@2@@std@@V12@U?$less@V?$basic_string@DU?$char_traits@D@std@@V?$allocator@D@2@@std@@@2@V?$allocator@U?$pair@$$CBV?$basic_string@DU?$char_traits@D@std@@V?$allocator@D@2@@std@@V12@@std@@@2@$0A@@std@@@std@@IAEXPAU?$_Tree_node@U?$pair@$$CBV?$basic_string@DU?$char_traits@D@std@@V?$allocator@D@2@@std@@V12@@std@@PAX@2@@Z 0041c250 f i ccConfig.obj
 0001:0001b3d0       ?_Max@?$_Tree_val@U?$_Tree_simple_types@U?$pair@$$CBV?$basic_string@DU?$char_traits@D@std@@V?$allocator@D@2@@std@@V12@@std@@@std@@@std@@SAPAU?$_Tree_node@U?$pair@$$CBV?$basic_string@DU?$char_traits@D@std@@V?$allocator@D@2@@std@@V12@@std@@PAX@2@PAU32@@Z 0041c3d0 f i ccConfig.obj
 0001:0001b420       ?_Min@?$_Tree_val@U?$_Tree_simple_types@U?$pair@$$CBV?$basic_string@DU?$char_traits@D@std@@V?$allocator@D@2@@std@@V12@@std@@@std@@@std@@SAPAU?$_Tree_node@U?$pair@$$CBV?$basic_string@DU?$char_traits@D@std@@V?$allocator@D@2@@std@@V12@@std@@PAX@2@PAU32@@Z 0041c420 f i ccConfig.obj
 0001:0001b470       ?_Mynode@?$_List_unchecked_const_iterator@V?$_List_val@U?$_List_simple_types@V?$basic_string@DU?$char_traits@D@std@@V?$allocator@D@2@@std@@@std@@@std@@U_Iterator_base0@2@@std@@QBEPAU?$_List_node@V?$basic_string@DU?$char_traits@D@std@@V?$allocator@D@2@@std@@PAX@2@XZ 0041c470 f i ccConfig.obj
 0001:0001b490       ?_Mynode@?$_Tree_unchecked_const_iterator@V?$_Tree_val@U?$_Tree_simple_types@U?$pair@$$CBV?$basic_string@DU?$char_traits@D@std@@V?$allocator@D@2@@std@@V12@@std@@@std@@@std@@U_Iterator_base12@2@@std@@QBEPAU?$_Tree_node@U?$pair@$$CBV?$basic_string@DU?$char_traits@D@std@@V?$allocator@D@2@@std@@V12@@std@@PAX@2@XZ 0041c490 f i ccConfig.obj
 0001:0001b4b0       ?_Myval@?$_List_val@U?$_List_simple_types@V?$basic_string@DU?$char_traits@D@std@@V?$allocator@D@2@@std@@@std@@@std@@SAAAV?$basic_string@DU?$char_traits@D@std@@V?$allocator@D@2@@2@PAU?$_List_node@V?$basic_string@DU?$char_traits@D@std@@V?$allocator@D@2@@std@@PAX@2@@Z 0041c4b0 f i ccConfig.obj
 0001:0001b4c0       ?_Myval@?$_Tree_val@U?$_Tree_simple_types@U?$pair@$$CBV?$basic_string@DU?$char_traits@D@std@@V?$allocator@D@2@@std@@V12@@std@@@std@@@std@@SAAAU?$pair@$$CBV?$basic_string@DU?$char_traits@D@std@@V?$allocator@D@2@@std@@V12@@2@PAU?$_Tree_node@U?$pair@$$CBV?$basic_string@DU?$char_traits@D@std@@V?$allocator@D@2@@std@@V12@@std@@PAX@2@@Z 0041c4c0 f i ccConfig.obj
 0001:0001b4d0       ?_Nextnode@?$_List_val@U?$_List_simple_types@V?$basic_string@DU?$char_traits@D@std@@V?$allocator@D@2@@std@@@std@@@std@@SAAAPAU?$_List_node@V?$basic_string@DU?$char_traits@D@std@@V?$allocator@D@2@@std@@PAX@2@PAU32@@Z 0041c4d0 f i ccConfig.obj
 0001:0001b4e0       ?_Orphan_ptr@?$_Tree@V?$_Tmap_traits@V?$basic_string@DU?$char_traits@D@std@@V?$allocator@D@2@@std@@V12@U?$less@V?$basic_string@DU?$char_traits@D@std@@V?$allocator@D@2@@std@@@2@V?$allocator@U?$pair@$$CBV?$basic_string@DU?$char_traits@D@std@@V?$allocator@D@2@@std@@V12@@std@@@2@$0A@@std@@@std@@IBEXAAV12@PAU?$_Tree_node@U?$pair@$$CBV?$basic_string@DU?$char_traits@D@std@@V?$allocator@D@2@@std@@V12@@std@@PAX@2@@Z 0041c4e0 f i ccConfig.obj
 0001:0001b5e0       ?_Parent@?$_Tree_val@U?$_Tree_simple_types@U?$pair@$$CBV?$basic_string@DU?$char_traits@D@std@@V?$allocator@D@2@@std@@V12@@std@@@std@@@std@@SAAAPAU?$_Tree_node@U?$pair@$$CBV?$basic_string@DU?$char_traits@D@std@@V?$allocator@D@2@@std@@V12@@std@@PAX@2@PAU32@@Z 0041c5e0 f i ccConfig.obj
 0001:0001b5f0       ?_Pdif@?$basic_string@DU?$char_traits@D@std@@V?$allocator@D@2@@std@@SAIV?$_String_const_iterator@V?$_String_val@U?$_Simple_types@D@std@@@std@@@2@0@Z 0041c5f0 f i ccConfig.obj
 0001:0001b690       ?_Prevnode@?$_List_val@U?$_List_simple_types@V?$basic_string@DU?$char_traits@D@std@@V?$allocator@D@2@@std@@@std@@@std@@SAAAPAU?$_List_node@V?$basic_string@DU?$char_traits@D@std@@V?$allocator@D@2@@std@@PAX@2@PAU32@@Z 0041c690 f i ccConfig.obj
 0001:0001b6a0       ?_Right@?$_Tree_val@U?$_Tree_simple_types@U?$pair@$$CBV?$basic_string@DU?$char_traits@D@std@@V?$allocator@D@2@@std@@V12@@std@@@std@@@std@@SAAAPAU?$_Tree_node@U?$pair@$$CBV?$basic_string@DU?$char_traits@D@std@@V?$allocator@D@2@@std@@V12@@std@@PAX@2@PAU32@@Z 0041c6a0 f i ccConfig.obj
 0001:0001b6b0       ?_Rmost@?$_Tree@V?$_Tmap_traits@V?$basic_string@DU?$char_traits@D@std@@V?$allocator@D@2@@std@@V12@U?$less@V?$basic_string@DU?$char_traits@D@std@@V?$allocator@D@2@@std@@@2@V?$allocator@U?$pair@$$CBV?$basic_string@DU?$char_traits@D@std@@V?$allocator@D@2@@std@@V12@@std@@@2@$0A@@std@@@std@@IBEAAPAU?$_Tree_node@U?$pair@$$CBV?$basic_string@DU?$char_traits@D@std@@V?$allocator@D@2@@std@@V12@@std@@PAX@2@XZ 0041c6b0 f i ccConfig.obj
 0001:0001b6d0       ?_Root@?$_Tree@V?$_Tmap_traits@V?$basic_string@DU?$char_traits@D@std@@V?$allocator@D@2@@std@@V12@U?$less@V?$basic_string@DU?$char_traits@D@std@@V?$allocator@D@2@@std@@@2@V?$allocator@U?$pair@$$CBV?$basic_string@DU?$char_traits@D@std@@V?$allocator@D@2@@std@@V12@@std@@@2@$0A@@std@@@std@@IBEAAPAU?$_Tree_node@U?$pair@$$CBV?$basic_string@DU?$char_traits@D@std@@V?$allocator@D@2@@std@@V12@@std@@PAX@2@XZ 0041c6d0 f i ccConfig.obj
 0001:0001b6f0       ?_Rrotate@?$_Tree@V?$_Tmap_traits@V?$basic_string@DU?$char_traits@D@std@@V?$allocator@D@2@@std@@V12@U?$less@V?$basic_string@DU?$char_traits@D@std@@V?$allocator@D@2@@std@@@2@V?$allocator@U?$pair@$$CBV?$basic_string@DU?$char_traits@D@std@@V?$allocator@D@2@@std@@V12@@std@@@2@$0A@@std@@@std@@IAEXPAU?$_Tree_node@U?$pair@$$CBV?$basic_string@DU?$char_traits@D@std@@V?$allocator@D@2@@std@@V12@@std@@PAX@2@@Z 0041c6f0 f i ccConfig.obj
 0001:0001b870       ?_Tidy@?$_Tree@V?$_Tmap_traits@V?$basic_string@DU?$char_traits@D@std@@V?$allocator@D@2@@std@@V12@U?$less@V?$basic_string@DU?$char_traits@D@std@@V?$allocator@D@2@@std@@@2@V?$allocator@U?$pair@$$CBV?$basic_string@DU?$char_traits@D@std@@V?$allocator@D@2@@std@@V12@@std@@@2@$0A@@std@@@std@@IAEXXZ 0041c870 f i ccConfig.obj
 0001:0001b980       ?_Unchecked_end@?$list@V?$basic_string@DU?$char_traits@D@std@@V?$allocator@D@2@@std@@V?$allocator@V?$basic_string@DU?$char_traits@D@std@@V?$allocator@D@2@@std@@@2@@std@@QAE?AV?$_List_unchecked_iterator@V?$_List_val@U?$_List_simple_types@V?$basic_string@DU?$char_traits@D@std@@V?$allocator@D@2@@std@@@std@@@std@@@2@XZ 0041c980 f i ccConfig.obj
 0001:0001b9b0       ?allocate@?$_Wrap_alloc@V?$allocator@U?$_List_node@V?$basic_string@DU?$char_traits@D@std@@V?$allocator@D@2@@std@@PAX@std@@@std@@@std@@QAEPAU?$_List_node@V?$basic_string@DU?$char_traits@D@std@@V?$allocator@D@2@@std@@PAX@2@I@Z 0041c9b0 f i ccConfig.obj
 0001:0001b9d0       ?allocate@?$_Wrap_alloc@V?$allocator@U?$_Tree_node@U?$pair@$$CBV?$basic_string@DU?$char_traits@D@std@@V?$allocator@D@2@@std@@V12@@std@@PAX@std@@@std@@@std@@QAEPAU?$_Tree_node@U?$pair@$$CBV?$basic_string@DU?$char_traits@D@std@@V?$allocator@D@2@@std@@V12@@std@@PAX@2@I@Z 0041c9d0 f i ccConfig.obj
 0001:0001b9f0       ?allocate@?$allocator@U?$_List_node@V?$basic_string@DU?$char_traits@D@std@@V?$allocator@D@2@@std@@PAX@std@@@std@@QAEPAU?$_List_node@V?$basic_string@DU?$char_traits@D@std@@V?$allocator@D@2@@std@@PAX@2@I@Z 0041c9f0 f i ccConfig.obj
 0001:0001ba20       ?allocate@?$allocator@U?$_Tree_node@U?$pair@$$CBV?$basic_string@DU?$char_traits@D@std@@V?$allocator@D@2@@std@@V12@@std@@PAX@std@@@std@@QAEPAU?$_Tree_node@U?$pair@$$CBV?$basic_string@DU?$char_traits@D@std@@V?$allocator@D@2@@std@@V12@@std@@PAX@2@I@Z 0041ca20 f i ccConfig.obj
 0001:0001ba50       ?begin@?$_Tree@V?$_Tmap_traits@V?$basic_string@DU?$char_traits@D@std@@V?$allocator@D@2@@std@@V12@U?$less@V?$basic_string@DU?$char_traits@D@std@@V?$allocator@D@2@@std@@@2@V?$allocator@U?$pair@$$CBV?$basic_string@DU?$char_traits@D@std@@V?$allocator@D@2@@std@@V12@@std@@@2@$0A@@std@@@std@@QAE?AV?$_Tree_iterator@V?$_Tree_val@U?$_Tree_simple_types@U?$pair@$$CBV?$basic_string@DU?$char_traits@D@std@@V?$allocator@D@2@@std@@V12@@std@@@std@@@std@@@2@XZ 0041ca50 f i ccConfig.obj
 0001:0001ba80       ?begin@?$_Tree@V?$_Tmap_traits@V?$basic_string@DU?$char_traits@D@std@@V?$allocator@D@2@@std@@V12@U?$less@V?$basic_string@DU?$char_traits@D@std@@V?$allocator@D@2@@std@@@2@V?$allocator@U?$pair@$$CBV?$basic_string@DU?$char_traits@D@std@@V?$allocator@D@2@@std@@V12@@std@@@2@$0A@@std@@@std@@QBE?AV?$_Tree_const_iterator@V?$_Tree_val@U?$_Tree_simple_types@U?$pair@$$CBV?$basic_string@DU?$char_traits@D@std@@V?$allocator@D@2@@std@@V12@@std@@@std@@@std@@@2@XZ 0041ca80 f i ccConfig.obj
 0001:0001bab0       ?begin@?$basic_string@DU?$char_traits@D@std@@V?$allocator@D@2@@std@@QAE?AV?$_String_iterator@V?$_String_val@U?$_Simple_types@D@std@@@std@@@2@XZ 0041cab0 f i ccConfig.obj
 0001:0001bae0       ?clear@?$_Tree@V?$_Tmap_traits@V?$basic_string@DU?$char_traits@D@std@@V?$allocator@D@2@@std@@V12@U?$less@V?$basic_string@DU?$char_traits@D@std@@V?$allocator@D@2@@std@@@2@V?$allocator@U?$pair@$$CBV?$basic_string@DU?$char_traits@D@std@@V?$allocator@D@2@@std@@V12@@std@@@2@$0A@@std@@@std@@QAEXXZ 0041cae0 f i ccConfig.obj
 0001:0001bb60       ?compare@?$basic_string@DU?$char_traits@D@std@@V?$allocator@D@2@@std@@QBEHABV12@@Z 0041cb60 f i ccConfig.obj
 0001:0001bba0       ?compare@?$basic_string@DU?$char_traits@D@std@@V?$allocator@D@2@@std@@QBEHIIPBDI@Z 0041cba0 f i ccConfig.obj
 0001:0001bcb0       ?compare@?$basic_string@DU?$char_traits@D@std@@V?$allocator@D@2@@std@@QBEHPBD@Z 0041ccb0 f i ccConfig.obj
 0001:0001bd10       ?compare@?$char_traits@D@std@@SAHPBD0I@Z 0041cd10 f i ccConfig.obj
 0001:0001bd50       ?deallocate@?$_Wrap_alloc@V?$allocator@U?$_List_node@V?$basic_string@DU?$char_traits@D@std@@V?$allocator@D@2@@std@@PAX@std@@@std@@@std@@QAEXPAU?$_List_node@V?$basic_string@DU?$char_traits@D@std@@V?$allocator@D@2@@std@@PAX@2@I@Z 0041cd50 f i ccConfig.obj
 0001:0001bd80       ?deallocate@?$_Wrap_alloc@V?$allocator@U?$_Tree_node@U?$pair@$$CBV?$basic_string@DU?$char_traits@D@std@@V?$allocator@D@2@@std@@V12@@std@@PAX@std@@@std@@@std@@QAEXPAU?$_Tree_node@U?$pair@$$CBV?$basic_string@DU?$char_traits@D@std@@V?$allocator@D@2@@std@@V12@@std@@PAX@2@I@Z 0041cd80 f i ccConfig.obj
 0001:0001bdb0       ?deallocate@?$allocator@U?$_List_node@V?$basic_string@DU?$char_traits@D@std@@V?$allocator@D@2@@std@@PAX@std@@@std@@QAEXPAU?$_List_node@V?$basic_string@DU?$char_traits@D@std@@V?$allocator@D@2@@std@@PAX@2@I@Z 0041cdb0 f i ccConfig.obj
 0001:0001bdd0       ?deallocate@?$allocator@U?$_Tree_node@U?$pair@$$CBV?$basic_string@DU?$char_traits@D@std@@V?$allocator@D@2@@std@@V12@@std@@PAX@std@@@std@@QAEXPAU?$_Tree_node@U?$pair@$$CBV?$basic_string@DU?$char_traits@D@std@@V?$allocator@D@2@@std@@V12@@std@@PAX@2@I@Z 0041cdd0 f i ccConfig.obj
 0001:0001bdf0       ?end@?$_Tree@V?$_Tmap_traits@V?$basic_string@DU?$char_traits@D@std@@V?$allocator@D@2@@std@@V12@U?$less@V?$basic_string@DU?$char_traits@D@std@@V?$allocator@D@2@@std@@@2@V?$allocator@U?$pair@$$CBV?$basic_string@DU?$char_traits@D@std@@V?$allocator@D@2@@std@@V12@@std@@@2@$0A@@std@@@std@@QAE?AV?$_Tree_iterator@V?$_Tree_val@U?$_Tree_simple_types@U?$pair@$$CBV?$basic_string@DU?$char_traits@D@std@@V?$allocator@D@2@@std@@V12@@std@@@std@@@std@@@2@XZ 0041cdf0 f i ccConfig.obj
 0001:0001be20       ?end@?$_Tree@V?$_Tmap_traits@V?$basic_string@DU?$char_traits@D@std@@V?$allocator@D@2@@std@@V12@U?$less@V?$basic_string@DU?$char_traits@D@std@@V?$allocator@D@2@@std@@@2@V?$allocator@U?$pair@$$CBV?$basic_string@DU?$char_traits@D@std@@V?$allocator@D@2@@std@@V12@@std@@@2@$0A@@std@@@std@@QBE?AV?$_Tree_const_iterator@V?$_Tree_val@U?$_Tree_simple_types@U?$pair@$$CBV?$basic_string@DU?$char_traits@D@std@@V?$allocator@D@2@@std@@V12@@std@@@std@@@std@@@2@XZ 0041ce20 f i ccConfig.obj
 0001:0001be50       ?end@?$basic_string@DU?$char_traits@D@std@@V?$allocator@D@2@@std@@QAE?AV?$_String_iterator@V?$_String_val@U?$_Simple_types@D@std@@@std@@@2@XZ 0041ce50 f i ccConfig.obj
 0001:0001be90       ?erase@?$_Tree@V?$_Tmap_traits@V?$basic_string@DU?$char_traits@D@std@@V?$allocator@D@2@@std@@V12@U?$less@V?$basic_string@DU?$char_traits@D@std@@V?$allocator@D@2@@std@@@2@V?$allocator@U?$pair@$$CBV?$basic_string@DU?$char_traits@D@std@@V?$allocator@D@2@@std@@V12@@std@@@2@$0A@@std@@@std@@QAE?AV?$_Tree_iterator@V?$_Tree_val@U?$_Tree_simple_types@U?$pair@$$CBV?$basic_string@DU?$char_traits@D@std@@V?$allocator@D@2@@std@@V12@@std@@@std@@@std@@@2@V?$_Tree_const_iterator@V?$_Tree_val@U?$_Tree_simple_types@U?$pair@$$CBV?$basic_string@DU?$char_traits@D@std@@V?$allocator@D@2@@std@@V12@@std@@@std@@@std@@@2@0@Z 0041ce90 f i ccConfig.obj
 0001:0001c0f0       ?erase@?$_Tree@V?$_Tmap_traits@V?$basic_string@DU?$char_traits@D@std@@V?$allocator@D@2@@std@@V12@U?$less@V?$basic_string@DU?$char_traits@D@std@@V?$allocator@D@2@@std@@@2@V?$allocator@U?$pair@$$CBV?$basic_string@DU?$char_traits@D@std@@V?$allocator@D@2@@std@@V12@@std@@@2@$0A@@std@@@std@@QAE?AV?$_Tree_iterator@V?$_Tree_val@U?$_Tree_simple_types@U?$pair@$$CBV?$basic_string@DU?$char_traits@D@std@@V?$allocator@D@2@@std@@V12@@std@@@std@@@std@@@2@V?$_Tree_const_iterator@V?$_Tree_val@U?$_Tree_simple_types@U?$pair@$$CBV?$basic_string@DU?$char_traits@D@std@@V?$allocator@D@2@@std@@V12@@std@@@std@@@std@@@2@@Z 0041d0f0 f i ccConfig.obj
 0001:0001cb10       ?find@?$basic_string@DU?$char_traits@D@std@@V?$allocator@D@2@@std@@QBEIABV12@I@Z 0041db10 f i ccConfig.obj
 0001:0001cb50       ?find@?$basic_string@DU?$char_traits@D@std@@V?$allocator@D@2@@std@@QBEIPBDII@Z 0041db50 f i ccConfig.obj
 0001:0001cc80       ?find@?$char_traits@D@std@@SAPBDPBDIABD@Z 0041dc80 f i ccConfig.obj
 0001:0001ccd0       ?max_size@?$_Tree@V?$_Tmap_traits@V?$basic_string@DU?$char_traits@D@std@@V?$allocator@D@2@@std@@V12@U?$less@V?$basic_string@DU?$char_traits@D@std@@V?$allocator@D@2@@std@@@2@V?$allocator@U?$pair@$$CBV?$basic_string@DU?$char_traits@D@std@@V?$allocator@D@2@@std@@V12@@std@@@2@$0A@@std@@@std@@QBEIXZ 0041dcd0 f i ccConfig.obj
 0001:0001cd00       ?max_size@?$_Wrap_alloc@V?$allocator@U?$_List_node@V?$basic_string@DU?$char_traits@D@std@@V?$allocator@D@2@@std@@PAX@std@@@std@@@std@@QBEIXZ 0041dd00 f i ccConfig.obj
 0001:0001cd20       ?max_size@?$_Wrap_alloc@V?$allocator@U?$_Tree_node@U?$pair@$$CBV?$basic_string@DU?$char_traits@D@std@@V?$allocator@D@2@@std@@V12@@std@@PAX@std@@@std@@@std@@QBEIXZ 0041dd20 f i ccConfig.obj
 0001:0001cd40       ?max_size@?$allocator@U?$_List_node@V?$basic_string@DU?$char_traits@D@std@@V?$allocator@D@2@@std@@PAX@std@@@std@@QBEIXZ 0041dd40 f i ccConfig.obj
 0001:0001cd60       ?max_size@?$allocator@U?$_Tree_node@U?$pair@$$CBV?$basic_string@DU?$char_traits@D@std@@V?$allocator@D@2@@std@@V12@@std@@PAX@std@@@std@@QBEIXZ 0041dd60 f i ccConfig.obj
 0001:0001cd80       ?max_size@?$allocator_traits@V?$allocator@U?$_List_node@V?$basic_string@DU?$char_traits@D@std@@V?$allocator@D@2@@std@@PAX@std@@@std@@@std@@SAIABV?$allocator@U?$_List_node@V?$basic_string@DU?$char_traits@D@std@@V?$allocator@D@2@@std@@PAX@std@@@2@@Z 0041dd80 f i ccConfig.obj
 0001:0001cd90       ?max_size@?$allocator_traits@V?$allocator@U?$_Tree_node@U?$pair@$$CBV?$basic_string@DU?$char_traits@D@std@@V?$allocator@D@2@@std@@V12@@std@@PAX@std@@@std@@@std@@SAIABV?$allocator@U?$_Tree_node@U?$pair@$$CBV?$basic_string@DU?$char_traits@D@std@@V?$allocator@D@2@@std@@V12@@std@@PAX@std@@@2@@Z 0041dd90 f i ccConfig.obj
 0001:0001cda0       ?max_size@?$list@V?$basic_string@DU?$char_traits@D@std@@V?$allocator@D@2@@std@@V?$allocator@V?$basic_string@DU?$char_traits@D@std@@V?$allocator@D@2@@std@@@2@@std@@QBEIXZ 0041dda0 f i ccConfig.obj
 0001:0001cdd0       ?pointer_to@?$pointer_traits@PAU?$pair@$$CBV?$basic_string@DU?$char_traits@D@std@@V?$allocator@D@2@@std@@V12@@std@@@std@@SAPAU?$pair@$$CBV?$basic_string@DU?$char_traits@D@std@@V?$allocator@D@2@@std@@V12@@2@AAU32@@Z 0041ddd0 f i ccConfig.obj
 0001:0001cdf0       ?pointer_to@?$pointer_traits@PBU?$pair@$$CBV?$basic_string@DU?$char_traits@D@std@@V?$allocator@D@2@@std@@V12@@std@@@std@@SAPBU?$pair@$$CBV?$basic_string@DU?$char_traits@D@std@@V?$allocator@D@2@@std@@V12@@2@ABU32@@Z 0041ddf0 f i ccConfig.obj
 0001:0001ce10       ?push_back@?$list@V?$basic_string@DU?$char_traits@D@std@@V?$allocator@D@2@@std@@V?$allocator@V?$basic_string@DU?$char_traits@D@std@@V?$allocator@D@2@@std@@@2@@std@@QAEX$$QAV?$basic_string@DU?$char_traits@D@std@@V?$allocator@D@2@@2@@Z 0041de10 f i ccConfig.obj
 0001:0001ce60       ?replace@?$basic_string@DU?$char_traits@D@std@@V?$allocator@D@2@@std@@QAEAAV12@IIABV12@II@Z 0041de60 f i ccConfig.obj
 0001:0001d1d0       ?replace@?$basic_string@DU?$char_traits@D@std@@V?$allocator@D@2@@std@@QAEAAV12@IIPBDI@Z 0041e1d0 f i ccConfig.obj
 0001:0001d3b0       ?replace@?$basic_string@DU?$char_traits@D@std@@V?$allocator@D@2@@std@@QAEAAV12@V?$_String_const_iterator@V?$_String_val@U?$_Simple_types@D@std@@@std@@@2@0V?$_String_iterator@V?$_String_val@U?$_Simple_types@D@std@@@std@@@2@1@Z 0041e3b0 f i ccConfig.obj
 0001:0001d670       ?strchr@@YAPADPADH@Z       0041e670 f i ccConfig.obj
 0001:0001d690       ??0sizedBuffer@@QAE@XZ     0041e690 f   sizedBuffer.obj
 0001:0001d6c0       ??0sizedBuffer@@QAE@PBEHH@Z 0041e6c0 f   sizedBuffer.obj
 0001:0001d750       ??0sizedBuffer@@QAE@ABV0@@Z 0041e750 f   sizedBuffer.obj
 0001:0001d780       ??1sizedBuffer@@UAE@XZ     0041e780 f   sizedBuffer.obj
 0001:0001d7c0       ??0sizedBuffer@@QAE@$$QAV0@@Z 0041e7c0 f   sizedBuffer.obj
 0001:0001d820       ??4sizedBuffer@@QAEAAV0@$$QAV0@@Z 0041e820 f   sizedBuffer.obj
 0001:0001d880       ?size@sizedBuffer@@QBEHXZ  0041e880 f   sizedBuffer.obj
 0001:0001d8a0       ?data@sizedBuffer@@QBEPBEXZ 0041e8a0 f   sizedBuffer.obj
 0001:0001d8c0       ?ref@sizedBuffer@@QBEHXZ   0041e8c0 f   sizedBuffer.obj
 0001:0001d8e0       ??4sizedBuffer@@QAEAAV0@ABV0@@Z 0041e8e0 f   sizedBuffer.obj
 0001:0001d930       ??8@YA_NABVsizedBuffer@@0@Z 0041e930 f   sizedBuffer.obj
 0001:0001d990       ??AsizedBuffer@@QBEEH@Z    0041e990 f   sizedBuffer.obj
 0001:0001d9c0       ?doCopy@sizedBuffer@@AAEXABV1@@Z 0041e9c0 f   sizedBuffer.obj
 0001:0001db50       ??_GsizedBuffer@@UAEPAXI@Z 0041eb50 f i sizedBuffer.obj
 0001:0001db50       ??_EsizedBuffer@@UAEPAXI@Z 0041eb50 f i sizedBuffer.obj
 0001:0001db90       ?setLog@appGlobal@@SAXPAVQTextEdit@@H@Z 0041eb90 f   appGlobal.obj
 0001:0001dd70       ?setProfile@appGlobal@@SAXABVQString@@@Z 0041ed70 f   appGlobal.obj
 0001:0001dd90       ?profile@appGlobal@@SA?AVQString@@XZ 0041ed90 f   appGlobal.obj
 0001:0001ddf0       ?configFilename@appGlobal@@SA?AVQString@@XZ 0041edf0 f   appGlobal.obj
 0001:0001dee0       ?log@appGlobal@@SAXABVQString@@@Z 0041eee0 f   appGlobal.obj
 0001:0001e050       ?logError@appGlobal@@SAXABVQString@@@Z 0041f050 f   appGlobal.obj
 0001:0001e200       ?dataPath@appGlobal@@SA?AVQString@@ABV2@@Z 0041f200 f   appGlobal.obj
 0001:0001e590       ?setLogging@appGlobal@@SAX_N@Z 0041f590 f   appGlobal.obj
 0001:0001e820       ??0QLatin1Char@@QAE@D@Z    0041f820 f i appGlobal.obj
 0001:0001e840       ??H@YA?BVQString@@ABV0@0@Z 0041f840 f i appGlobal.obj
 0001:0001e8f0       ??H@YA?BVQString@@ABV0@PBD@Z 0041f8f0 f i appGlobal.obj
 0001:0001e9d0       ??H@YA?BVQString@@PBDABV0@@Z 0041f9d0 f i appGlobal.obj
 0001:0001ea80       ??1clientsRegistration@@UAE@XZ 0041fa80 f   clientsRegistration.obj
 0001:0001eb90       ??0clientsRegistration@@QAE@XZ 0041fb90 f   clientsRegistration.obj
 0001:0001ebc0       ?addRegistration@clientsRegistration@@QAEXVclientIPC@@III_N@Z 0041fbc0 f   clientsRegistration.obj
 0001:0001ec10       ?deleteRegistration@clientsRegistration@@QAEXVclientIPC@@III@Z 0041fc10 f   clientsRegistration.obj
 0001:0001edb0       ?deleteAllRegistrations@clientsRegistration@@QAEXVclientIPC@@I@Z 0041fdb0 f   clientsRegistration.obj
 0001:0001ef30       ?getClientList@clientsRegistration@@QAEXIIAAV?$list@VclientIPC@@V?$allocator@VclientIPC@@@std@@@std@@@Z 0041ff30 f   clientsRegistration.obj
 0001:0001f050       ?getClientList@clientsRegistration@@QAEXIAAV?$list@VclientIPC@@V?$allocator@VclientIPC@@@std@@@std@@@Z 00420050 f   clientsRegistration.obj
 0001:0001f150       ?getRationalisedReg@clientsRegistration@@QAEXIAAI0@Z 00420150 f   clientsRegistration.obj
 0001:0001f2a0       ?registrationCount@clientsRegistration@@QAEIXZ 004202a0 f   clientsRegistration.obj
 0001:0001f2c0       ?getRegForClient@clientsRegistration@@QAEXVclientIPC@@AAV?$list@IV?$allocator@I@std@@@std@@@Z 004202c0 f   clientsRegistration.obj
 0001:0001f3e0       ?hasRegistration@clientsRegistration@@QAE_NI@Z 004203e0 f   clientsRegistration.obj
 0001:0001f4c0       ?isRegistered@clientsRegistration@@QAE_NVclientIPC@@III@Z 004204c0 f   clientsRegistration.obj
 0001:0001f610       ?isRegistered@clientsRegistration@@QAE_NVclientIPC@@II@Z 00420610 f   clientsRegistration.obj
 0001:0001f750       ?getRegObject@clientsRegistration@@AAEPAVsingleReg@@VclientIPC@@I_N@Z 00420750 f   clientsRegistration.obj
 0001:0001fcd0       ??$?0AAIAAPAVsingleReg@@X@?$pair@HPAVsingleReg@@@std@@QAE@AAIAAPAVsingleReg@@@Z 00420cd0 f i clientsRegistration.obj
 0001:0001fd20       ??$?0AAV?$_Tree_iterator@V?$_Tree_val@U?$_Tree_simple_types@U?$pair@$$CBIPAVsingleReg@@@std@@@std@@@std@@@std@@_NX@?$pair@V?$_Tree_iterator@V?$_Tree_val@U?$_Tree_simple_types@U?$pair@$$CBIPAVsingleReg@@@std@@@std@@@std@@@std@@_N@std@@QAE@AAV?$_Tree_iterator@V?$_Tree_val@U?$_Tree_simple_types@U?$pair@$$CBIPAVsingleReg@@@std@@@std@@@std@@@1@$$QA_N@Z 00420d20 f i clientsRegistration.obj
 0001:0001fdb0       ??$?0HPAVsingleReg@@X@?$pair@$$CBIPAVsingleReg@@@std@@QAE@$$QAU?$pair@HPAVsingleReg@@@1@@Z 00420db0 f i clientsRegistration.obj
 0001:0001fe00       ??$?0U?$_Tree_node@U?$pair@$$CBIPAVsingleReg@@@std@@PAX@std@@@?$allocator@U_Container_proxy@std@@@std@@QAE@ABV?$allocator@U?$_Tree_node@U?$pair@$$CBIPAVsingleReg@@@std@@PAX@std@@@1@@Z 00420e00 f i clientsRegistration.obj
 0001:0001fe20       ??$?0U?$_Wrap_alloc@V?$allocator@U?$_Tree_node@U?$pair@$$CBIPAVsingleReg@@@std@@PAX@std@@@std@@@std@@@?$_Wrap_alloc@V?$allocator@U_Container_proxy@std@@@std@@@std@@QAE@ABU?$_Wrap_alloc@V?$allocator@U?$_Tree_node@U?$pair@$$CBIPAVsingleReg@@@std@@PAX@std@@@std@@@1@@Z 00420e20 f i clientsRegistration.obj
 0001:0001fe50       ??$?0V?$_Tree_iterator@V?$_Tree_val@U?$_Tree_simple_types@U?$pair@$$CBIPAVsingleReg@@@std@@@std@@@std@@@std@@_NX@?$pair@V?$_Tree_iterator@V?$_Tree_val@U?$_Tree_simple_types@U?$pair@$$CBIPAVsingleReg@@@std@@@std@@@std@@@std@@_N@std@@QAE@$$QAV?$_Tree_iterator@V?$_Tree_val@U?$_Tree_simple_types@U?$pair@$$CBIPAVsingleReg@@@std@@@std@@@std@@@1@$$QA_N@Z 00420e50 f i clientsRegistration.obj
 0001:0001fee0       ??$_Allocate@U?$_List_node@IPAX@std@@@std@@YAPAU?$_List_node@IPAX@0@IPAU10@@Z 00420ee0 f i clientsRegistration.obj
 0001:0001ff30       ??$_Allocate@U?$_List_node@VclientIPC@@PAX@std@@@std@@YAPAU?$_List_node@VclientIPC@@PAX@0@IPAU10@@Z 00420f30 f i clientsRegistration.obj
 0001:0001ff80       ??$_Allocate@U?$_Tree_node@U?$pair@$$CBIPAVsingleReg@@@std@@PAX@std@@@std@@YAPAU?$_Tree_node@U?$pair@$$CBIPAVsingleReg@@@std@@PAX@0@IPAU10@@Z 00420f80 f i clientsRegistration.obj
 0001:0001ffd0       ??$_Buynode@I@?$_List_buy@IV?$allocator@I@std@@@std@@QAEPAU?$_List_node@IPAX@1@PAU21@0$$QAI@Z 00420fd0 f i clientsRegistration.obj
 0001:000200f0       ??$_Buynode@U?$pair@HPAVsingleReg@@@std@@@?$_Tree_buy@U?$pair@$$CBIPAVsingleReg@@@std@@V?$allocator@U?$pair@$$CBIPAVsingleReg@@@std@@@2@@std@@QAEPAU?$_Tree_node@U?$pair@$$CBIPAVsingleReg@@@std@@PAX@1@$$QAU?$pair@HPAVsingleReg@@@1@@Z 004210f0 f i clientsRegistration.obj
 0001:00020220       ??$_Buynode@VclientIPC@@@?$_List_buy@VclientIPC@@V?$allocator@VclientIPC@@@std@@@std@@QAEPAU?$_List_node@VclientIPC@@PAX@1@PAU21@0$$QAVclientIPC@@@Z 00421220 f i clientsRegistration.obj
 0001:00020340       ??$_Buynode_if_nil@AAU?$pair@$$CBIPAVsingleReg@@@std@@@?$_Tree@V?$_Tmap_traits@IPAVsingleReg@@U?$less@I@std@@V?$allocator@U?$pair@$$CBIPAVsingleReg@@@std@@@3@$00@std@@@std@@IAEPAU?$_Tree_node@U?$pair@$$CBIPAVsingleReg@@@std@@PAX@1@PAU21@AAU?$pair@$$CBIPAVsingleReg@@@1@@Z 00421340 f i clientsRegistration.obj
 0001:00020360       ??$_Debug_lt_pred@U?$less@I@std@@ABIABI@std@@YA_NU?$less@I@0@ABI1PB_WI@Z 00421360 f i clientsRegistration.obj
 0001:00020400       ??$_Insert@I@?$list@IV?$allocator@I@std@@@std@@QAEXV?$_List_unchecked_const_iterator@V?$_List_val@U?$_List_simple_types@I@std@@@std@@U_Iterator_base0@2@@1@$$QAI@Z 00421400 f i clientsRegistration.obj
 0001:000204a0       ??$_Insert@VclientIPC@@@?$list@VclientIPC@@V?$allocator@VclientIPC@@@std@@@std@@QAEXV?$_List_unchecked_const_iterator@V?$_List_val@U?$_List_simple_types@VclientIPC@@@std@@@std@@U_Iterator_base0@2@@1@$$QAVclientIPC@@@Z 004214a0 f i clientsRegistration.obj
 0001:00020540       ??$_Insert_at@AAU?$pair@$$CBIPAVsingleReg@@@std@@PAU?$_Tree_node@U?$pair@$$CBIPAVsingleReg@@@std@@PAX@2@@?$_Tree@V?$_Tmap_traits@IPAVsingleReg@@U?$less@I@std@@V?$allocator@U?$pair@$$CBIPAVsingleReg@@@std@@@3@$00@std@@@std@@IAE?AV?$_Tree_iterator@V?$_Tree_val@U?$_Tree_simple_types@U?$pair@$$CBIPAVsingleReg@@@std@@@std@@@std@@@1@_NPAU?$_Tree_node@U?$pair@$$CBIPAVsingleReg@@@std@@PAX@1@AAU?$pair@$$CBIPAVsingleReg@@@1@1@Z 00421540 f i clientsRegistration.obj
 0001:00020a90       ??$_Insert_nohint@AAU?$pair@$$CBIPAVsingleReg@@@std@@PAU?$_Tree_node@U?$pair@$$CBIPAVsingleReg@@@std@@PAX@2@@?$_Tree@V?$_Tmap_traits@IPAVsingleReg@@U?$less@I@std@@V?$allocator@U?$pair@$$CBIPAVsingleReg@@@std@@@3@$00@std@@@std@@IAE?AU?$pair@V?$_Tree_iterator@V?$_Tree_val@U?$_Tree_simple_types@U?$pair@$$CBIPAVsingleReg@@@std@@@std@@@std@@@std@@_N@1@_NAAU?$pair@$$CBIPAVsingleReg@@@1@PAU?$_Tree_node@U?$pair@$$CBIPAVsingleReg@@@std@@PAX@1@@Z 00421a90 f i clientsRegistration.obj
 0001:00021080       ??$_Kfn@$$CBIPAVsingleReg@@@?$_Tmap_traits@IPAVsingleReg@@U?$less@I@std@@V?$allocator@U?$pair@$$CBIPAVsingleReg@@@std@@@3@$00@std@@SAABIABU?$pair@$$CBIPAVsingleReg@@@1@@Z 00422080 f i clientsRegistration.obj
 0001:00021090       ??$addressof@$$CBU?$pair@$$CBIPAVsingleReg@@@std@@@std@@YAPBU?$pair@$$CBIPAVsingleReg@@@0@ABU10@@Z 00422090 f i clientsRegistration.obj
 0001:000210a0       ??$addressof@I@std@@YAPAIAAI@Z 004220a0 f i clientsRegistration.obj
 0001:000210b0       ??$addressof@PAU?$_List_node@IPAX@std@@@std@@YAPAPAU?$_List_node@IPAX@0@AAPAU10@@Z 004220b0 f i clientsRegistration.obj
 0001:000210c0       ??$addressof@PAU?$_List_node@VclientIPC@@PAX@std@@@std@@YAPAPAU?$_List_node@VclientIPC@@PAX@0@AAPAU10@@Z 004220c0 f i clientsRegistration.obj
 0001:000210d0       ??$addressof@PAU?$_Tree_node@U?$pair@$$CBIPAVsingleReg@@@std@@PAX@std@@@std@@YAPAPAU?$_Tree_node@U?$pair@$$CBIPAVsingleReg@@@std@@PAX@0@AAPAU10@@Z 004220d0 f i clientsRegistration.obj
 0001:000210e0       ??$addressof@U?$pair@$$CBIPAVsingleReg@@@std@@@std@@YAPAU?$pair@$$CBIPAVsingleReg@@@0@AAU10@@Z 004220e0 f i clientsRegistration.obj
 0001:000210f0       ??$addressof@VclientIPC@@@std@@YAPAVclientIPC@@AAV1@@Z 004220f0 f i clientsRegistration.obj
 0001:00021100       ??$construct@II@?$_Wrap_alloc@V?$allocator@U?$_List_node@IPAX@std@@@std@@@std@@QAEXPAI$$QAI@Z 00422100 f i clientsRegistration.obj
 0001:00021140       ??$construct@II@?$allocator@U?$_List_node@IPAX@std@@@std@@QAEXPAI$$QAI@Z 00422140 f i clientsRegistration.obj
 0001:000211f0       ??$construct@II@?$allocator_traits@V?$allocator@U?$_List_node@IPAX@std@@@std@@@std@@SAXAAV?$allocator@U?$_List_node@IPAX@std@@@1@PAI$$QAI@Z 004221f0 f i clientsRegistration.obj
 0001:00021220       ??$construct@PAU?$_List_node@IPAX@std@@AAPAU12@@?$_Wrap_alloc@V?$allocator@U?$_List_node@IPAX@std@@@std@@@std@@QAEXPAPAU?$_List_node@IPAX@1@AAPAU21@@Z 00422220 f i clientsRegistration.obj
 0001:00021260       ??$construct@PAU?$_List_node@IPAX@std@@AAPAU12@@?$allocator@U?$_List_node@IPAX@std@@@std@@QAEXPAPAU?$_List_node@IPAX@1@AAPAU21@@Z 00422260 f i clientsRegistration.obj
 0001:00021310       ??$construct@PAU?$_List_node@IPAX@std@@AAPAU12@@?$allocator_traits@V?$allocator@U?$_List_node@IPAX@std@@@std@@@std@@SAXAAV?$allocator@U?$_List_node@IPAX@std@@@1@PAPAU?$_List_node@IPAX@1@AAPAU31@@Z 00422310 f i clientsRegistration.obj
 0001:00021340       ??$construct@PAU?$_List_node@VclientIPC@@PAX@std@@AAPAU12@@?$_Wrap_alloc@V?$allocator@U?$_List_node@VclientIPC@@PAX@std@@@std@@@std@@QAEXPAPAU?$_List_node@VclientIPC@@PAX@1@AAPAU21@@Z 00422340 f i clientsRegistration.obj
 0001:00021380       ??$construct@PAU?$_List_node@VclientIPC@@PAX@std@@AAPAU12@@?$allocator@U?$_List_node@VclientIPC@@PAX@std@@@std@@QAEXPAPAU?$_List_node@VclientIPC@@PAX@1@AAPAU21@@Z 00422380 f i clientsRegistration.obj
 0001:00021430       ??$construct@PAU?$_List_node@VclientIPC@@PAX@std@@AAPAU12@@?$allocator_traits@V?$allocator@U?$_List_node@VclientIPC@@PAX@std@@@std@@@std@@SAXAAV?$allocator@U?$_List_node@VclientIPC@@PAX@std@@@1@PAPAU?$_List_node@VclientIPC@@PAX@1@AAPAU31@@Z 00422430 f i clientsRegistration.obj
 0001:00021460       ??$construct@PAU?$_Tree_node@U?$pair@$$CBIPAVsingleReg@@@std@@PAX@std@@AAPAU12@@?$_Wrap_alloc@V?$allocator@U?$_Tree_node@U?$pair@$$CBIPAVsingleReg@@@std@@PAX@std@@@std@@@std@@QAEXPAPAU?$_Tree_node@U?$pair@$$CBIPAVsingleReg@@@std@@PAX@1@AAPAU21@@Z 00422460 f i clientsRegistration.obj
 0001:000214a0       ??$construct@PAU?$_Tree_node@U?$pair@$$CBIPAVsingleReg@@@std@@PAX@std@@AAPAU12@@?$allocator@U?$_Tree_node@U?$pair@$$CBIPAVsingleReg@@@std@@PAX@std@@@std@@QAEXPAPAU?$_Tree_node@U?$pair@$$CBIPAVsingleReg@@@std@@PAX@1@AAPAU21@@Z 004224a0 f i clientsRegistration.obj
 0001:00021550       ??$construct@PAU?$_Tree_node@U?$pair@$$CBIPAVsingleReg@@@std@@PAX@std@@AAPAU12@@?$allocator_traits@V?$allocator@U?$_Tree_node@U?$pair@$$CBIPAVsingleReg@@@std@@PAX@std@@@std@@@std@@SAXAAV?$allocator@U?$_Tree_node@U?$pair@$$CBIPAVsingleReg@@@std@@PAX@std@@@1@PAPAU?$_Tree_node@U?$pair@$$CBIPAVsingleReg@@@std@@PAX@1@AAPAU31@@Z 00422550 f i clientsRegistration.obj
 0001:00021580       ??$construct@U?$pair@$$CBIPAVsingleReg@@@std@@U?$pair@HPAVsingleReg@@@2@@?$_Wrap_alloc@V?$allocator@U?$_Tree_node@U?$pair@$$CBIPAVsingleReg@@@std@@PAX@std@@@std@@@std@@QAEXPAU?$pair@$$CBIPAVsingleReg@@@1@$$QAU?$pair@HPAVsingleReg@@@1@@Z 00422580 f i clientsRegistration.obj
 0001:000215c0       ??$construct@U?$pair@$$CBIPAVsingleReg@@@std@@U?$pair@HPAVsingleReg@@@2@@?$allocator@U?$_Tree_node@U?$pair@$$CBIPAVsingleReg@@@std@@PAX@std@@@std@@QAEXPAU?$pair@$$CBIPAVsingleReg@@@1@$$QAU?$pair@HPAVsingleReg@@@1@@Z 004225c0 f i clientsRegistration.obj
 0001:00021670       ??$construct@U?$pair@$$CBIPAVsingleReg@@@std@@U?$pair@HPAVsingleReg@@@2@@?$allocator_traits@V?$allocator@U?$_Tree_node@U?$pair@$$CBIPAVsingleReg@@@std@@PAX@std@@@std@@@std@@SAXAAV?$allocator@U?$_Tree_node@U?$pair@$$CBIPAVsingleReg@@@std@@PAX@std@@@1@PAU?$pair@$$CBIPAVsingleReg@@@1@$$QAU?$pair@HPAVsingleReg@@@1@@Z 00422670 f i clientsRegistration.obj
 0001:000216a0       ??$construct@VclientIPC@@V1@@?$_Wrap_alloc@V?$allocator@U?$_List_node@VclientIPC@@PAX@std@@@std@@@std@@QAEXPAVclientIPC@@$$QAV2@@Z 004226a0 f i clientsRegistration.obj
 0001:000216e0       ??$construct@VclientIPC@@V1@@?$allocator@U?$_List_node@VclientIPC@@PAX@std@@@std@@QAEXPAVclientIPC@@$$QAV2@@Z 004226e0 f i clientsRegistration.obj
 0001:00021790       ??$construct@VclientIPC@@V1@@?$allocator_traits@V?$allocator@U?$_List_node@VclientIPC@@PAX@std@@@std@@@std@@SAXAAV?$allocator@U?$_List_node@VclientIPC@@PAX@std@@@1@PAVclientIPC@@$$QAV3@@Z 00422790 f i clientsRegistration.obj
 0001:000217c0       ??$destroy@PAU?$_Tree_node@U?$pair@$$CBIPAVsingleReg@@@std@@PAX@std@@@?$_Wrap_alloc@V?$allocator@U?$_Tree_node@U?$pair@$$CBIPAVsingleReg@@@std@@PAX@std@@@std@@@std@@QAEXPAPAU?$_Tree_node@U?$pair@$$CBIPAVsingleReg@@@std@@PAX@1@@Z 004227c0 f i clientsRegistration.obj
 0001:000217f0       ??$destroy@PAU?$_Tree_node@U?$pair@$$CBIPAVsingleReg@@@std@@PAX@std@@@?$allocator@U?$_Tree_node@U?$pair@$$CBIPAVsingleReg@@@std@@PAX@std@@@std@@QAEXPAPAU?$_Tree_node@U?$pair@$$CBIPAVsingleReg@@@std@@PAX@1@@Z 004227f0 f i clientsRegistration.obj
 0001:00021800       ??$destroy@PAU?$_Tree_node@U?$pair@$$CBIPAVsingleReg@@@std@@PAX@std@@@?$allocator_traits@V?$allocator@U?$_Tree_node@U?$pair@$$CBIPAVsingleReg@@@std@@PAX@std@@@std@@@std@@SAXAAV?$allocator@U?$_Tree_node@U?$pair@$$CBIPAVsingleReg@@@std@@PAX@std@@@1@PAPAU?$_Tree_node@U?$pair@$$CBIPAVsingleReg@@@std@@PAX@1@@Z 00422800 f i clientsRegistration.obj
 0001:00021820       ??$destroy@U?$pair@$$CBIPAVsingleReg@@@std@@@?$_Wrap_alloc@V?$allocator@U?$_Tree_node@U?$pair@$$CBIPAVsingleReg@@@std@@PAX@std@@@std@@@std@@QAEXPAU?$pair@$$CBIPAVsingleReg@@@1@@Z 00422820 f i clientsRegistration.obj
 0001:00021850       ??$destroy@U?$pair@$$CBIPAVsingleReg@@@std@@@?$allocator@U?$_Tree_node@U?$pair@$$CBIPAVsingleReg@@@std@@PAX@std@@@std@@QAEXPAU?$pair@$$CBIPAVsingleReg@@@1@@Z 00422850 f i clientsRegistration.obj
 0001:00021860       ??$destroy@U?$pair@$$CBIPAVsingleReg@@@std@@@?$allocator_traits@V?$allocator@U?$_Tree_node@U?$pair@$$CBIPAVsingleReg@@@std@@PAX@std@@@std@@@std@@SAXAAV?$allocator@U?$_Tree_node@U?$pair@$$CBIPAVsingleReg@@@std@@PAX@std@@@1@PAU?$pair@$$CBIPAVsingleReg@@@1@@Z 00422860 f i clientsRegistration.obj
 0001:00021880       ??$forward@AAI@std@@YAAAIAAI@Z 00422880 f i clientsRegistration.obj
 0001:00021890       ??$forward@AAPAU?$_List_node@IPAX@std@@@std@@YAAAPAU?$_List_node@IPAX@0@AAPAU10@@Z 00422890 f i clientsRegistration.obj
 0001:000218a0       ??$forward@AAPAU?$_List_node@VclientIPC@@PAX@std@@@std@@YAAAPAU?$_List_node@VclientIPC@@PAX@0@AAPAU10@@Z 004228a0 f i clientsRegistration.obj
 0001:000218b0       ??$forward@AAPAU?$_Tree_node@U?$pair@$$CBIPAVsingleReg@@@std@@PAX@std@@@std@@YAAAPAU?$_Tree_node@U?$pair@$$CBIPAVsingleReg@@@std@@PAX@0@AAPAU10@@Z 004228b0 f i clientsRegistration.obj
 0001:000218c0       ??$forward@AAPAVsingleReg@@@std@@YAAAPAVsingleReg@@AAPAV1@@Z 004228c0 f i clientsRegistration.obj
 0001:000218d0       ??$forward@AAU?$pair@$$CBIPAVsingleReg@@@std@@@std@@YAAAU?$pair@$$CBIPAVsingleReg@@@0@AAU10@@Z 004228d0 f i clientsRegistration.obj
 0001:000218e0       ??$forward@AAV?$_Tree_iterator@V?$_Tree_val@U?$_Tree_simple_types@U?$pair@$$CBIPAVsingleReg@@@std@@@std@@@std@@@std@@@std@@YAAAV?$_Tree_iterator@V?$_Tree_val@U?$_Tree_simple_types@U?$pair@$$CBIPAVsingleReg@@@std@@@std@@@std@@@0@AAV10@@Z 004228e0 f i clientsRegistration.obj
 0001:000218f0       ??$forward@ABI@std@@YAABIABI@Z 004228f0 f i clientsRegistration.obj
 0001:00021900       ??$forward@H@std@@YA$$QAHAAH@Z 00422900 f i clientsRegistration.obj
 0001:00021910       ??$forward@I@std@@YA$$QAIAAI@Z 00422910 f i clientsRegistration.obj
 0001:00021920       ??$forward@PAVsingleReg@@@std@@YA$$QAPAVsingleReg@@AAPAV1@@Z 00422920 f i clientsRegistration.obj
 0001:00021930       ??$forward@U?$pair@HPAVsingleReg@@@std@@@std@@YA$$QAU?$pair@HPAVsingleReg@@@0@AAU10@@Z 00422930 f i clientsRegistration.obj
 0001:00021940       ??$forward@V?$_Tree_iterator@V?$_Tree_val@U?$_Tree_simple_types@U?$pair@$$CBIPAVsingleReg@@@std@@@std@@@std@@@std@@@std@@YA$$QAV?$_Tree_iterator@V?$_Tree_val@U?$_Tree_simple_types@U?$pair@$$CBIPAVsingleReg@@@std@@@std@@@std@@@0@AAV10@@Z 00422940 f i clientsRegistration.obj
 0001:00021950       ??$forward@VclientIPC@@@std@@YA$$QAVclientIPC@@AAV1@@Z 00422950 f i clientsRegistration.obj
 0001:00021960       ??$insert@U?$pair@HPAVsingleReg@@@std@@@?$_Tree@V?$_Tmap_traits@IPAVsingleReg@@U?$less@I@std@@V?$allocator@U?$pair@$$CBIPAVsingleReg@@@std@@@3@$00@std@@@std@@QAE?AU?$pair@V?$_Tree_iterator@V?$_Tree_val@U?$_Tree_simple_types@U?$pair@$$CBIPAVsingleReg@@@std@@@std@@@std@@@std@@_N@1@$$QAU?$pair@HPAVsingleReg@@@1@@Z 00422960 f i clientsRegistration.obj
 0001:000219d0       ??$insert@U?$pair@HPAVsingleReg@@@std@@@?$multimap@IPAVsingleReg@@U?$less@I@std@@V?$allocator@U?$pair@$$CBIPAVsingleReg@@@std@@@3@@std@@QAE?AV?$_Tree_iterator@V?$_Tree_val@U?$_Tree_simple_types@U?$pair@$$CBIPAVsingleReg@@@std@@@std@@@std@@@1@$$QAU?$pair@HPAVsingleReg@@@1@@Z 004229d0 f i clientsRegistration.obj
 0001:00021a90       ??0?$_Iterator012@Ubidirectional_iterator_tag@std@@U?$pair@$$CBIPAVsingleReg@@@2@HPBU32@ABU32@U_Iterator_base12@2@@std@@QAE@ABU01@@Z 00422a90 f i clientsRegistration.obj
 0001:00021ac0       ??0?$_Iterator012@Ubidirectional_iterator_tag@std@@U?$pair@$$CBIPAVsingleReg@@@2@HPBU32@ABU32@U_Iterator_base12@2@@std@@QAE@XZ 00422ac0 f i clientsRegistration.obj
 0001:00021ae0       ??0?$_List_unchecked_const_iterator@V?$_List_val@U?$_List_simple_types@I@std@@@std@@U_Iterator_base0@2@@std@@QAE@PAU?$_List_node@IPAX@1@PBV?$_List_val@U?$_List_simple_types@I@std@@@1@@Z 00422ae0 f i clientsRegistration.obj
 0001:00021b10       ??0?$_List_unchecked_const_iterator@V?$_List_val@U?$_List_simple_types@VclientIPC@@@std@@@std@@U_Iterator_base0@2@@std@@QAE@PAU?$_List_node@VclientIPC@@PAX@1@PBV?$_List_val@U?$_List_simple_types@VclientIPC@@@std@@@1@@Z 00422b10 f i clientsRegistration.obj
 0001:00021b40       ??0?$_List_unchecked_iterator@V?$_List_val@U?$_List_simple_types@I@std@@@std@@@std@@QAE@PAU?$_List_node@IPAX@1@PBV?$_List_val@U?$_List_simple_types@I@std@@@1@@Z 00422b40 f i clientsRegistration.obj
 0001:00021b70       ??0?$_List_unchecked_iterator@V?$_List_val@U?$_List_simple_types@VclientIPC@@@std@@@std@@@std@@QAE@PAU?$_List_node@VclientIPC@@PAX@1@PBV?$_List_val@U?$_List_simple_types@VclientIPC@@@std@@@1@@Z 00422b70 f i clientsRegistration.obj
 0001:00021ba0       ??0?$_Tree@V?$_Tmap_traits@IPAVsingleReg@@U?$less@I@std@@V?$allocator@U?$pair@$$CBIPAVsingleReg@@@std@@@3@$00@std@@@std@@QAE@ABU?$less@I@1@ABV?$allocator@U?$pair@$$CBIPAVsingleReg@@@std@@@1@@Z 00422ba0 f i clientsRegistration.obj
 0001:00021bd0       ??0?$_Tree_alloc@$0A@U?$_Tree_base_types@U?$pair@$$CBIPAVsingleReg@@@std@@V?$allocator@U?$pair@$$CBIPAVsingleReg@@@std@@@2@@std@@@std@@QAE@ABV?$allocator@U?$pair@$$CBIPAVsingleReg@@@std@@@1@@Z 00422bd0 f i clientsRegistration.obj
 0001:00021ca0       ??0?$_Tree_buy@U?$pair@$$CBIPAVsingleReg@@@std@@V?$allocator@U?$pair@$$CBIPAVsingleReg@@@std@@@2@@std@@QAE@ABV?$allocator@U?$pair@$$CBIPAVsingleReg@@@std@@@1@@Z 00422ca0 f i clientsRegistration.obj
 0001:00021cd0       ??0?$_Tree_comp@$0A@V?$_Tmap_traits@IPAVsingleReg@@U?$less@I@std@@V?$allocator@U?$pair@$$CBIPAVsingleReg@@@std@@@3@$00@std@@@std@@QAE@ABU?$less@I@1@ABV?$allocator@U?$pair@$$CBIPAVsingleReg@@@std@@@1@@Z 00422cd0 f i clientsRegistration.obj
 0001:00021d00       ??0?$_Tree_const_iterator@V?$_Tree_val@U?$_Tree_simple_types@U?$pair@$$CBIPAVsingleReg@@@std@@@std@@@std@@@std@@QAE@ABV01@@Z 00422d00 f i clientsRegistration.obj
 0001:00021d30       ??0?$_Tree_const_iterator@V?$_Tree_val@U?$_Tree_simple_types@U?$pair@$$CBIPAVsingleReg@@@std@@@std@@@std@@@std@@QAE@PAU?$_Tree_node@U?$pair@$$CBIPAVsingleReg@@@std@@PAX@1@PBV?$_Tree_val@U?$_Tree_simple_types@U?$pair@$$CBIPAVsingleReg@@@std@@@std@@@1@@Z 00422d30 f i clientsRegistration.obj
 0001:00021d60       ??0?$_Tree_iterator@V?$_Tree_val@U?$_Tree_simple_types@U?$pair@$$CBIPAVsingleReg@@@std@@@std@@@std@@@std@@QAE@ABV01@@Z 00422d60 f i clientsRegistration.obj
 0001:00021d90       ??0?$_Tree_iterator@V?$_Tree_val@U?$_Tree_simple_types@U?$pair@$$CBIPAVsingleReg@@@std@@@std@@@std@@@std@@QAE@PAU?$_Tree_node@U?$pair@$$CBIPAVsingleReg@@@std@@PAX@1@PBV?$_Tree_val@U?$_Tree_simple_types@U?$pair@$$CBIPAVsingleReg@@@std@@@std@@@1@@Z 00422d90 f i clientsRegistration.obj
 0001:00021dc0       ??0?$_Tree_unchecked_const_iterator@V?$_Tree_val@U?$_Tree_simple_types@U?$pair@$$CBIPAVsingleReg@@@std@@@std@@@std@@U_Iterator_base12@2@@std@@QAE@ABV01@@Z 00422dc0 f i clientsRegistration.obj
 0001:00021e00       ??0?$_Tree_unchecked_const_iterator@V?$_Tree_val@U?$_Tree_simple_types@U?$pair@$$CBIPAVsingleReg@@@std@@@std@@@std@@U_Iterator_base12@2@@std@@QAE@PAU?$_Tree_node@U?$pair@$$CBIPAVsingleReg@@@std@@PAX@1@PBV?$_Tree_val@U?$_Tree_simple_types@U?$pair@$$CBIPAVsingleReg@@@std@@@std@@@1@@Z 00422e00 f i clientsRegistration.obj
 0001:00021e80       ??0?$_Tree_val@U?$_Tree_simple_types@U?$pair@$$CBIPAVsingleReg@@@std@@@std@@@std@@QAE@XZ 00422e80 f i clientsRegistration.obj
 0001:00021ec0       ??0?$_Wrap_alloc@V?$allocator@U?$_List_node@IPAX@std@@@std@@@std@@QAE@XZ 00422ec0 f i clientsRegistration.obj
 0001:00021ee0       ??0?$_Wrap_alloc@V?$allocator@U?$_List_node@VclientIPC@@PAX@std@@@std@@@std@@QAE@XZ 00422ee0 f i clientsRegistration.obj
 0001:00021f00       ??0?$_Wrap_alloc@V?$allocator@U?$_Tree_node@U?$pair@$$CBIPAVsingleReg@@@std@@PAX@std@@@std@@@std@@QAE@XZ 00422f00 f i clientsRegistration.obj
 0001:00021f20       ??0?$allocator@U?$_List_node@IPAX@std@@@std@@QAE@XZ 00422f20 f i clientsRegistration.obj
 0001:00021f40       ??0?$allocator@U?$_List_node@VclientIPC@@PAX@std@@@std@@QAE@XZ 00422f40 f i clientsRegistration.obj
 0001:00021f60       ??0?$allocator@U?$_Tree_node@U?$pair@$$CBIPAVsingleReg@@@std@@PAX@std@@@std@@QAE@XZ 00422f60 f i clientsRegistration.obj
 0001:00021f80       ??0?$allocator@U?$pair@$$CBIPAVsingleReg@@@std@@@std@@QAE@XZ 00422f80 f i clientsRegistration.obj
 0001:00021fa0       ??0?$multimap@IPAVsingleReg@@U?$less@I@std@@V?$allocator@U?$pair@$$CBIPAVsingleReg@@@std@@@3@@std@@QAE@XZ 00422fa0 f i clientsRegistration.obj
 0001:00021fd0       ??1?$_Iterator012@Ubidirectional_iterator_tag@std@@U?$pair@$$CBIPAVsingleReg@@@2@HPBU32@ABU32@U_Iterator_base12@2@@std@@QAE@XZ 00422fd0 f i clientsRegistration.obj
 0001:00021ff0       ??1?$_Tree@V?$_Tmap_traits@IPAVsingleReg@@U?$less@I@std@@V?$allocator@U?$pair@$$CBIPAVsingleReg@@@std@@@3@$00@std@@@std@@QAE@XZ 00422ff0 f i clientsRegistration.obj
 0001:00022020       ??1?$_Tree_alloc@$0A@U?$_Tree_base_types@U?$pair@$$CBIPAVsingleReg@@@std@@V?$allocator@U?$pair@$$CBIPAVsingleReg@@@std@@@2@@std@@@std@@QAE@XZ 00423020 f i clientsRegistration.obj
 0001:00022060       ??1?$_Tree_buy@U?$pair@$$CBIPAVsingleReg@@@std@@V?$allocator@U?$pair@$$CBIPAVsingleReg@@@std@@@2@@std@@QAE@XZ 00423060 f i clientsRegistration.obj
 0001:00022080       ??1?$_Tree_comp@$0A@V?$_Tmap_traits@IPAVsingleReg@@U?$less@I@std@@V?$allocator@U?$pair@$$CBIPAVsingleReg@@@std@@@3@$00@std@@@std@@QAE@XZ 00423080 f i clientsRegistration.obj
 0001:000220a0       ??1?$_Tree_const_iterator@V?$_Tree_val@U?$_Tree_simple_types@U?$pair@$$CBIPAVsingleReg@@@std@@@std@@@std@@@std@@QAE@XZ 004230a0 f i clientsRegistration.obj
 0001:000220c0       ??1?$_Tree_iterator@V?$_Tree_val@U?$_Tree_simple_types@U?$pair@$$CBIPAVsingleReg@@@std@@@std@@@std@@@std@@QAE@XZ 004230c0 f i clientsRegistration.obj
 0001:000220e0       ??1?$_Tree_unchecked_const_iterator@V?$_Tree_val@U?$_Tree_simple_types@U?$pair@$$CBIPAVsingleReg@@@std@@@std@@@std@@U_Iterator_base12@2@@std@@QAE@XZ 004230e0 f i clientsRegistration.obj
 0001:00022100       ??1?$_Tree_val@U?$_Tree_simple_types@U?$pair@$$CBIPAVsingleReg@@@std@@@std@@@std@@QAE@XZ 00423100 f i clientsRegistration.obj
 0001:00022120       ??1?$multimap@IPAVsingleReg@@U?$less@I@std@@V?$allocator@U?$pair@$$CBIPAVsingleReg@@@std@@@3@@std@@QAE@XZ 00423120 f i clientsRegistration.obj
 0001:00022140       ??1?$pair@V?$_Tree_iterator@V?$_Tree_val@U?$_Tree_simple_types@U?$pair@$$CBIPAVsingleReg@@@std@@@std@@@std@@@std@@_N@std@@QAE@XZ 00423140 f i clientsRegistration.obj
 0001:00022160       ??4?$_Iterator012@Ubidirectional_iterator_tag@std@@U?$pair@$$CBIPAVsingleReg@@@2@HPBU32@ABU32@U_Iterator_base12@2@@std@@QAEAAU01@ABU01@@Z 00423160 f i clientsRegistration.obj
 0001:00022190       ??4?$_Tree_const_iterator@V?$_Tree_val@U?$_Tree_simple_types@U?$pair@$$CBIPAVsingleReg@@@std@@@std@@@std@@@std@@QAEAAV01@ABV01@@Z 00423190 f i clientsRegistration.obj
 0001:000221c0       ??4?$_Tree_iterator@V?$_Tree_val@U?$_Tree_simple_types@U?$pair@$$CBIPAVsingleReg@@@std@@@std@@@std@@@std@@QAEAAV01@ABV01@@Z 004231c0 f i clientsRegistration.obj
 0001:000221f0       ??4?$_Tree_unchecked_const_iterator@V?$_Tree_val@U?$_Tree_simple_types@U?$pair@$$CBIPAVsingleReg@@@std@@@std@@@std@@U_Iterator_base12@2@@std@@QAEAAV01@ABV01@@Z 004231f0 f i clientsRegistration.obj
 0001:00022230       ??8?$_Tree_const_iterator@V?$_Tree_val@U?$_Tree_simple_types@U?$pair@$$CBIPAVsingleReg@@@std@@@std@@@std@@@std@@QBE_NABV01@@Z 00423230 f i clientsRegistration.obj
 0001:00022320       ??8clientIPC@@QAE_NABV0@@Z 00423320 f i clientsRegistration.obj
 0001:00022350       ??9?$_Tree_const_iterator@V?$_Tree_val@U?$_Tree_simple_types@U?$pair@$$CBIPAVsingleReg@@@std@@@std@@@std@@@std@@QBE_NABV01@@Z 00423350 f i clientsRegistration.obj
 0001:000223a0       ??C?$_Tree_const_iterator@V?$_Tree_val@U?$_Tree_simple_types@U?$pair@$$CBIPAVsingleReg@@@std@@@std@@@std@@@std@@QBEPBU?$pair@$$CBIPAVsingleReg@@@1@XZ 004233a0 f i clientsRegistration.obj
 0001:000223d0       ??C?$_Tree_iterator@V?$_Tree_val@U?$_Tree_simple_types@U?$pair@$$CBIPAVsingleReg@@@std@@@std@@@std@@@std@@QBEPAU?$pair@$$CBIPAVsingleReg@@@1@XZ 004233d0 f i clientsRegistration.obj
 0001:00022400       ??D?$_Tree_const_iterator@V?$_Tree_val@U?$_Tree_simple_types@U?$pair@$$CBIPAVsingleReg@@@std@@@std@@@std@@@std@@QBEABU?$pair@$$CBIPAVsingleReg@@@1@XZ 00423400 f i clientsRegistration.obj
 0001:000224e0       ??D?$_Tree_iterator@V?$_Tree_val@U?$_Tree_simple_types@U?$pair@$$CBIPAVsingleReg@@@std@@@std@@@std@@@std@@QBEAAU?$pair@$$CBIPAVsingleReg@@@1@XZ 004234e0 f i clientsRegistration.obj
 0001:00022500       ??E?$_Tree_const_iterator@V?$_Tree_val@U?$_Tree_simple_types@U?$pair@$$CBIPAVsingleReg@@@std@@@std@@@std@@@std@@QAE?AV01@H@Z 00423500 f i clientsRegistration.obj
 0001:000225b0       ??E?$_Tree_const_iterator@V?$_Tree_val@U?$_Tree_simple_types@U?$pair@$$CBIPAVsingleReg@@@std@@@std@@@std@@@std@@QAEAAV01@XZ 004235b0 f i clientsRegistration.obj
 0001:00022690       ??E?$_Tree_iterator@V?$_Tree_val@U?$_Tree_simple_types@U?$pair@$$CBIPAVsingleReg@@@std@@@std@@@std@@@std@@QAEAAV01@XZ 00423690 f i clientsRegistration.obj
 0001:000226b0       ??E?$_Tree_unchecked_const_iterator@V?$_Tree_val@U?$_Tree_simple_types@U?$pair@$$CBIPAVsingleReg@@@std@@@std@@@std@@U_Iterator_base12@2@@std@@QAEAAV01@XZ 004236b0 f i clientsRegistration.obj
 0001:000227a0       ??F?$_Tree_const_iterator@V?$_Tree_val@U?$_Tree_simple_types@U?$pair@$$CBIPAVsingleReg@@@std@@@std@@@std@@@std@@QAEAAV01@XZ 004237a0 f i clientsRegistration.obj
 0001:00022900       ??F?$_Tree_iterator@V?$_Tree_val@U?$_Tree_simple_types@U?$pair@$$CBIPAVsingleReg@@@std@@@std@@@std@@@std@@QAEAAV01@XZ 00423900 f i clientsRegistration.obj
 0001:00022920       ??F?$_Tree_unchecked_const_iterator@V?$_Tree_val@U?$_Tree_simple_types@U?$pair@$$CBIPAVsingleReg@@@std@@@std@@@std@@U_Iterator_base12@2@@std@@QAEAAV01@XZ 00423920 f i clientsRegistration.obj
 0001:00022a50       ??R?$less@I@std@@QBE_NABI0@Z 00423a50 f i clientsRegistration.obj
 0001:00022a90       ??_EclientsRegistration@@UAEPAXI@Z 00423a90 f i clientsRegistration.obj
 0001:00022a90       ??_GclientsRegistration@@UAEPAXI@Z 00423a90 f i clientsRegistration.obj
 0001:00022ad0       ?_Alloc_proxy@?$_Tree_alloc@$0A@U?$_Tree_base_types@U?$pair@$$CBIPAVsingleReg@@@std@@V?$allocator@U?$pair@$$CBIPAVsingleReg@@@std@@@2@@std@@@std@@QAEXXZ 00423ad0 f i clientsRegistration.obj
 0001:00022b40       ?_Buyheadnode@?$_Tree_alloc@$0A@U?$_Tree_base_types@U?$pair@$$CBIPAVsingleReg@@@std@@V?$allocator@U?$pair@$$CBIPAVsingleReg@@@std@@@2@@std@@@std@@QAEPAU?$_Tree_node@U?$pair@$$CBIPAVsingleReg@@@std@@PAX@2@XZ 00423b40 f i clientsRegistration.obj
 0001:00022d00       ?_Buynode0@?$_List_alloc@$0A@U?$_List_base_types@IV?$allocator@I@std@@@std@@@std@@QAEPAU?$_List_node@IPAX@2@PAU32@0@Z 00423d00 f i clientsRegistration.obj
 0001:00022e70       ?_Buynode0@?$_List_alloc@$0A@U?$_List_base_types@VclientIPC@@V?$allocator@VclientIPC@@@std@@@std@@@std@@QAEPAU?$_List_node@VclientIPC@@PAX@2@PAU32@0@Z 00423e70 f i clientsRegistration.obj
 0001:00022fe0       ?_Buynode0@?$_Tree_buy@U?$pair@$$CBIPAVsingleReg@@@std@@V?$allocator@U?$pair@$$CBIPAVsingleReg@@@std@@@2@@std@@QAEPAU?$_Tree_node@U?$pair@$$CBIPAVsingleReg@@@std@@PAX@2@XZ 00423fe0 f i clientsRegistration.obj
 0001:00023180       ?_Color@?$_Tree_val@U?$_Tree_simple_types@U?$pair@$$CBIPAVsingleReg@@@std@@@std@@@std@@SAAADPAU?$_Tree_node@U?$pair@$$CBIPAVsingleReg@@@std@@PAX@2@@Z 00424180 f i clientsRegistration.obj
 0001:00023190       ?_Destroy_if_not_nil@?$_Tree@V?$_Tmap_traits@IPAVsingleReg@@U?$less@I@std@@V?$allocator@U?$pair@$$CBIPAVsingleReg@@@std@@@3@$00@std@@@std@@IAEXPAU?$_Tree_node@U?$pair@$$CBIPAVsingleReg@@@std@@PAX@2@@Z 00424190 f i clientsRegistration.obj
 0001:00023200       ?_Erase@?$_Tree@V?$_Tmap_traits@IPAVsingleReg@@U?$less@I@std@@V?$allocator@U?$pair@$$CBIPAVsingleReg@@@std@@@3@$00@std@@@std@@IAEXPAU?$_Tree_node@U?$pair@$$CBIPAVsingleReg@@@std@@PAX@2@@Z 00424200 f i clientsRegistration.obj
 0001:000232d0       ?_Free_proxy@?$_Tree_alloc@$0A@U?$_Tree_base_types@U?$pair@$$CBIPAVsingleReg@@@std@@V?$allocator@U?$pair@$$CBIPAVsingleReg@@@std@@@2@@std@@@std@@QAEXXZ 004242d0 f i clientsRegistration.obj
 0001:00023340       ?_Freeheadnode@?$_Tree_alloc@$0A@U?$_Tree_base_types@U?$pair@$$CBIPAVsingleReg@@@std@@V?$allocator@U?$pair@$$CBIPAVsingleReg@@@std@@@2@@std@@@std@@QAEXPAU?$_Tree_node@U?$pair@$$CBIPAVsingleReg@@@std@@PAX@2@@Z 00424340 f i clientsRegistration.obj
 0001:00023410       ?_Freenode0@?$_Tree_buy@U?$pair@$$CBIPAVsingleReg@@@std@@V?$allocator@U?$pair@$$CBIPAVsingleReg@@@std@@@2@@std@@QAEXPAU?$_Tree_node@U?$pair@$$CBIPAVsingleReg@@@std@@PAX@2@@Z 00424410 f i clientsRegistration.obj
 0001:000234e0       ?_Getal@?$_List_alloc@$0A@U?$_List_base_types@IV?$allocator@I@std@@@std@@@std@@QBE?AU?$_Wrap_alloc@V?$allocator@U?$_List_node@IPAX@std@@@std@@@2@XZ 004244e0 f i clientsRegistration.obj
 0001:00023500       ?_Getal@?$_List_alloc@$0A@U?$_List_base_types@VclientIPC@@V?$allocator@VclientIPC@@@std@@@std@@@std@@QBE?AU?$_Wrap_alloc@V?$allocator@U?$_List_node@VclientIPC@@PAX@std@@@std@@@2@XZ 00424500 f i clientsRegistration.obj
 0001:00023520       ?_Getal@?$_Tree_alloc@$0A@U?$_Tree_base_types@U?$pair@$$CBIPAVsingleReg@@@std@@V?$allocator@U?$pair@$$CBIPAVsingleReg@@@std@@@2@@std@@@std@@QBE?AU?$_Wrap_alloc@V?$allocator@U?$_Tree_node@U?$pair@$$CBIPAVsingleReg@@@std@@PAX@std@@@std@@@2@XZ 00424520 f i clientsRegistration.obj
 0001:00023540       ?_Getcomp@?$_Tree_comp@$0A@V?$_Tmap_traits@IPAVsingleReg@@U?$less@I@std@@V?$allocator@U?$pair@$$CBIPAVsingleReg@@@std@@@3@$00@std@@@std@@QBE?AU?$less@I@2@XZ 00424540 f i clientsRegistration.obj
 0001:00023560       ?_Incsize@?$list@IV?$allocator@I@std@@@std@@QAEXI@Z 00424560 f i clientsRegistration.obj
 0001:000235b0       ?_Incsize@?$list@VclientIPC@@V?$allocator@VclientIPC@@@std@@@std@@QAEXI@Z 004245b0 f i clientsRegistration.obj
 0001:00023600       ?_Isnil@?$_Tree_val@U?$_Tree_simple_types@U?$pair@$$CBIPAVsingleReg@@@std@@@std@@@std@@SAAADPAU?$_Tree_node@U?$pair@$$CBIPAVsingleReg@@@std@@PAX@2@@Z 00424600 f i clientsRegistration.obj
 0001:00023610       ?_Key@?$_Tree@V?$_Tmap_traits@IPAVsingleReg@@U?$less@I@std@@V?$allocator@U?$pair@$$CBIPAVsingleReg@@@std@@@3@$00@std@@@std@@IBEABIPAU?$_Tree_node@U?$pair@$$CBIPAVsingleReg@@@std@@PAX@2@@Z 00424610 f i clientsRegistration.obj
 0001:00023640       ?_Kfn@?$_Tree@V?$_Tmap_traits@IPAVsingleReg@@U?$less@I@std@@V?$allocator@U?$pair@$$CBIPAVsingleReg@@@std@@@3@$00@std@@@std@@IBEABIABU?$pair@$$CBIPAVsingleReg@@@2@@Z 00424640 f i clientsRegistration.obj
 0001:00023660       ?_Lbound@?$_Tree@V?$_Tmap_traits@IPAVsingleReg@@U?$less@I@std@@V?$allocator@U?$pair@$$CBIPAVsingleReg@@@std@@@3@$00@std@@@std@@IAEPAU?$_Tree_node@U?$pair@$$CBIPAVsingleReg@@@std@@PAX@2@ABI@Z 00424660 f i clientsRegistration.obj
 0001:00023730       ?_Left@?$_Tree_val@U?$_Tree_simple_types@U?$pair@$$CBIPAVsingleReg@@@std@@@std@@@std@@SAAAPAU?$_Tree_node@U?$pair@$$CBIPAVsingleReg@@@std@@PAX@2@PAU32@@Z 00424730 f i clientsRegistration.obj
 0001:00023740       ?_Lmost@?$_Tree@V?$_Tmap_traits@IPAVsingleReg@@U?$less@I@std@@V?$allocator@U?$pair@$$CBIPAVsingleReg@@@std@@@3@$00@std@@@std@@IBEAAPAU?$_Tree_node@U?$pair@$$CBIPAVsingleReg@@@std@@PAX@2@XZ 00424740 f i clientsRegistration.obj
 0001:00023760       ?_Lrotate@?$_Tree@V?$_Tmap_traits@IPAVsingleReg@@U?$less@I@std@@V?$allocator@U?$pair@$$CBIPAVsingleReg@@@std@@@3@$00@std@@@std@@IAEXPAU?$_Tree_node@U?$pair@$$CBIPAVsingleReg@@@std@@PAX@2@@Z 00424760 f i clientsRegistration.obj
 0001:000238e0       ?_Max@?$_Tree_val@U?$_Tree_simple_types@U?$pair@$$CBIPAVsingleReg@@@std@@@std@@@std@@SAPAU?$_Tree_node@U?$pair@$$CBIPAVsingleReg@@@std@@PAX@2@PAU32@@Z 004248e0 f i clientsRegistration.obj
 0001:00023930       ?_Min@?$_Tree_val@U?$_Tree_simple_types@U?$pair@$$CBIPAVsingleReg@@@std@@@std@@@std@@SAPAU?$_Tree_node@U?$pair@$$CBIPAVsingleReg@@@std@@PAX@2@PAU32@@Z 00424930 f i clientsRegistration.obj
 0001:00023980       ?_Mynode@?$_List_unchecked_const_iterator@V?$_List_val@U?$_List_simple_types@I@std@@@std@@U_Iterator_base0@2@@std@@QBEPAU?$_List_node@IPAX@2@XZ 00424980 f i clientsRegistration.obj
 0001:000239a0       ?_Mynode@?$_List_unchecked_const_iterator@V?$_List_val@U?$_List_simple_types@VclientIPC@@@std@@@std@@U_Iterator_base0@2@@std@@QBEPAU?$_List_node@VclientIPC@@PAX@2@XZ 004249a0 f i clientsRegistration.obj
 0001:000239c0       ?_Mynode@?$_Tree_unchecked_const_iterator@V?$_Tree_val@U?$_Tree_simple_types@U?$pair@$$CBIPAVsingleReg@@@std@@@std@@@std@@U_Iterator_base12@2@@std@@QBEPAU?$_Tree_node@U?$pair@$$CBIPAVsingleReg@@@std@@PAX@2@XZ 004249c0 f i clientsRegistration.obj
 0001:000239e0       ?_Myval@?$_List_val@U?$_List_simple_types@I@std@@@std@@SAAAIPAU?$_List_node@IPAX@2@@Z 004249e0 f i clientsRegistration.obj
 0001:000239f0       ?_Myval@?$_List_val@U?$_List_simple_types@VclientIPC@@@std@@@std@@SAAAVclientIPC@@PAU?$_List_node@VclientIPC@@PAX@2@@Z 004249f0 f i clientsRegistration.obj
 0001:00023a00       ?_Myval@?$_Tree_val@U?$_Tree_simple_types@U?$pair@$$CBIPAVsingleReg@@@std@@@std@@@std@@SAAAU?$pair@$$CBIPAVsingleReg@@@2@PAU?$_Tree_node@U?$pair@$$CBIPAVsingleReg@@@std@@PAX@2@@Z 00424a00 f i clientsRegistration.obj
 0001:00023a10       ?_Nextnode@?$_List_val@U?$_List_simple_types@I@std@@@std@@SAAAPAU?$_List_node@IPAX@2@PAU32@@Z 00424a10 f i clientsRegistration.obj
 0001:00023a20       ?_Nextnode@?$_List_val@U?$_List_simple_types@VclientIPC@@@std@@@std@@SAAAPAU?$_List_node@VclientIPC@@PAX@2@PAU32@@Z 00424a20 f i clientsRegistration.obj
 0001:00023a30       ?_Orphan_ptr@?$_Tree@V?$_Tmap_traits@IPAVsingleReg@@U?$less@I@std@@V?$allocator@U?$pair@$$CBIPAVsingleReg@@@std@@@3@$00@std@@@std@@IBEXAAV12@PAU?$_Tree_node@U?$pair@$$CBIPAVsingleReg@@@std@@PAX@2@@Z 00424a30 f i clientsRegistration.obj
 0001:00023b30       ?_Parent@?$_Tree_val@U?$_Tree_simple_types@U?$pair@$$CBIPAVsingleReg@@@std@@@std@@@std@@SAAAPAU?$_Tree_node@U?$pair@$$CBIPAVsingleReg@@@std@@PAX@2@PAU32@@Z 00424b30 f i clientsRegistration.obj
 0001:00023b40       ?_Prevnode@?$_List_val@U?$_List_simple_types@I@std@@@std@@SAAAPAU?$_List_node@IPAX@2@PAU32@@Z 00424b40 f i clientsRegistration.obj
 0001:00023b50       ?_Prevnode@?$_List_val@U?$_List_simple_types@VclientIPC@@@std@@@std@@SAAAPAU?$_List_node@VclientIPC@@PAX@2@PAU32@@Z 00424b50 f i clientsRegistration.obj
 0001:00023b60       ?_Right@?$_Tree_val@U?$_Tree_simple_types@U?$pair@$$CBIPAVsingleReg@@@std@@@std@@@std@@SAAAPAU?$_Tree_node@U?$pair@$$CBIPAVsingleReg@@@std@@PAX@2@PAU32@@Z 00424b60 f i clientsRegistration.obj
 0001:00023b70       ?_Rmost@?$_Tree@V?$_Tmap_traits@IPAVsingleReg@@U?$less@I@std@@V?$allocator@U?$pair@$$CBIPAVsingleReg@@@std@@@3@$00@std@@@std@@IBEAAPAU?$_Tree_node@U?$pair@$$CBIPAVsingleReg@@@std@@PAX@2@XZ 00424b70 f i clientsRegistration.obj
 0001:00023b90       ?_Root@?$_Tree@V?$_Tmap_traits@IPAVsingleReg@@U?$less@I@std@@V?$allocator@U?$pair@$$CBIPAVsingleReg@@@std@@@3@$00@std@@@std@@IBEAAPAU?$_Tree_node@U?$pair@$$CBIPAVsingleReg@@@std@@PAX@2@XZ 00424b90 f i clientsRegistration.obj
 0001:00023bb0       ?_Rrotate@?$_Tree@V?$_Tmap_traits@IPAVsingleReg@@U?$less@I@std@@V?$allocator@U?$pair@$$CBIPAVsingleReg@@@std@@@3@$00@std@@@std@@IAEXPAU?$_Tree_node@U?$pair@$$CBIPAVsingleReg@@@std@@PAX@2@@Z 00424bb0 f i clientsRegistration.obj
 0001:00023d30       ?_Tidy@?$_Tree@V?$_Tmap_traits@IPAVsingleReg@@U?$less@I@std@@V?$allocator@U?$pair@$$CBIPAVsingleReg@@@std@@@3@$00@std@@@std@@IAEXXZ 00424d30 f i clientsRegistration.obj
 0001:00023e40       ?_Unchecked_end@?$list@IV?$allocator@I@std@@@std@@QAE?AV?$_List_unchecked_iterator@V?$_List_val@U?$_List_simple_types@I@std@@@std@@@2@XZ 00424e40 f i clientsRegistration.obj
 0001:00023e70       ?_Unchecked_end@?$list@VclientIPC@@V?$allocator@VclientIPC@@@std@@@std@@QAE?AV?$_List_unchecked_iterator@V?$_List_val@U?$_List_simple_types@VclientIPC@@@std@@@std@@@2@XZ 00424e70 f i clientsRegistration.obj
 0001:00023ea0       ?allocate@?$_Wrap_alloc@V?$allocator@U?$_List_node@IPAX@std@@@std@@@std@@QAEPAU?$_List_node@IPAX@2@I@Z 00424ea0 f i clientsRegistration.obj
 0001:00023ec0       ?allocate@?$_Wrap_alloc@V?$allocator@U?$_List_node@VclientIPC@@PAX@std@@@std@@@std@@QAEPAU?$_List_node@VclientIPC@@PAX@2@I@Z 00424ec0 f i clientsRegistration.obj
 0001:00023ee0       ?allocate@?$_Wrap_alloc@V?$allocator@U?$_Tree_node@U?$pair@$$CBIPAVsingleReg@@@std@@PAX@std@@@std@@@std@@QAEPAU?$_Tree_node@U?$pair@$$CBIPAVsingleReg@@@std@@PAX@2@I@Z 00424ee0 f i clientsRegistration.obj
 0001:00023f00       ?allocate@?$allocator@U?$_List_node@IPAX@std@@@std@@QAEPAU?$_List_node@IPAX@2@I@Z 00424f00 f i clientsRegistration.obj
 0001:00023f30       ?allocate@?$allocator@U?$_List_node@VclientIPC@@PAX@std@@@std@@QAEPAU?$_List_node@VclientIPC@@PAX@2@I@Z 00424f30 f i clientsRegistration.obj
 0001:00023f60       ?allocate@?$allocator@U?$_Tree_node@U?$pair@$$CBIPAVsingleReg@@@std@@PAX@std@@@std@@QAEPAU?$_Tree_node@U?$pair@$$CBIPAVsingleReg@@@std@@PAX@2@I@Z 00424f60 f i clientsRegistration.obj
 0001:00023f90       ?begin@?$_Tree@V?$_Tmap_traits@IPAVsingleReg@@U?$less@I@std@@V?$allocator@U?$pair@$$CBIPAVsingleReg@@@std@@@3@$00@std@@@std@@QAE?AV?$_Tree_iterator@V?$_Tree_val@U?$_Tree_simple_types@U?$pair@$$CBIPAVsingleReg@@@std@@@std@@@std@@@2@XZ 00424f90 f i clientsRegistration.obj
 0001:00023fc0       ?clear@?$_Tree@V?$_Tmap_traits@IPAVsingleReg@@U?$less@I@std@@V?$allocator@U?$pair@$$CBIPAVsingleReg@@@std@@@3@$00@std@@@std@@QAEXXZ 00424fc0 f i clientsRegistration.obj
 0001:00024040       ?deallocate@?$_Wrap_alloc@V?$allocator@U?$_List_node@IPAX@std@@@std@@@std@@QAEXPAU?$_List_node@IPAX@2@I@Z 00425040 f i clientsRegistration.obj
 0001:00024070       ?deallocate@?$_Wrap_alloc@V?$allocator@U?$_List_node@VclientIPC@@PAX@std@@@std@@@std@@QAEXPAU?$_List_node@VclientIPC@@PAX@2@I@Z 00425070 f i clientsRegistration.obj
 0001:000240a0       ?deallocate@?$_Wrap_alloc@V?$allocator@U?$_Tree_node@U?$pair@$$CBIPAVsingleReg@@@std@@PAX@std@@@std@@@std@@QAEXPAU?$_Tree_node@U?$pair@$$CBIPAVsingleReg@@@std@@PAX@2@I@Z 004250a0 f i clientsRegistration.obj
 0001:000240d0       ?deallocate@?$allocator@U?$_List_node@IPAX@std@@@std@@QAEXPAU?$_List_node@IPAX@2@I@Z 004250d0 f i clientsRegistration.obj
 0001:000240f0       ?deallocate@?$allocator@U?$_List_node@VclientIPC@@PAX@std@@@std@@QAEXPAU?$_List_node@VclientIPC@@PAX@2@I@Z 004250f0 f i clientsRegistration.obj
 0001:00024110       ?deallocate@?$allocator@U?$_Tree_node@U?$pair@$$CBIPAVsingleReg@@@std@@PAX@std@@@std@@QAEXPAU?$_Tree_node@U?$pair@$$CBIPAVsingleReg@@@std@@PAX@2@I@Z 00425110 f i clientsRegistration.obj
 0001:00024130       ?end@?$_Tree@V?$_Tmap_traits@IPAVsingleReg@@U?$less@I@std@@V?$allocator@U?$pair@$$CBIPAVsingleReg@@@std@@@3@$00@std@@@std@@QAE?AV?$_Tree_iterator@V?$_Tree_val@U?$_Tree_simple_types@U?$pair@$$CBIPAVsingleReg@@@std@@@std@@@std@@@2@XZ 00425130 f i clientsRegistration.obj
 0001:00024160       ?erase@?$_Tree@V?$_Tmap_traits@IPAVsingleReg@@U?$less@I@std@@V?$allocator@U?$pair@$$CBIPAVsingleReg@@@std@@@3@$00@std@@@std@@QAE?AV?$_Tree_iterator@V?$_Tree_val@U?$_Tree_simple_types@U?$pair@$$CBIPAVsingleReg@@@std@@@std@@@std@@@2@V?$_Tree_const_iterator@V?$_Tree_val@U?$_Tree_simple_types@U?$pair@$$CBIPAVsingleReg@@@std@@@std@@@std@@@2@0@Z 00425160 f i clientsRegistration.obj
 0001:000243c0       ?erase@?$_Tree@V?$_Tmap_traits@IPAVsingleReg@@U?$less@I@std@@V?$allocator@U?$pair@$$CBIPAVsingleReg@@@std@@@3@$00@std@@@std@@QAE?AV?$_Tree_iterator@V?$_Tree_val@U?$_Tree_simple_types@U?$pair@$$CBIPAVsingleReg@@@std@@@std@@@std@@@2@V?$_Tree_const_iterator@V?$_Tree_val@U?$_Tree_simple_types@U?$pair@$$CBIPAVsingleReg@@@std@@@std@@@std@@@2@@Z 004253c0 f i clientsRegistration.obj
 0001:00024de0       ?find@?$_Tree@V?$_Tmap_traits@IPAVsingleReg@@U?$less@I@std@@V?$allocator@U?$pair@$$CBIPAVsingleReg@@@std@@@3@$00@std@@@std@@QAE?AV?$_Tree_iterator@V?$_Tree_val@U?$_Tree_simple_types@U?$pair@$$CBIPAVsingleReg@@@std@@@std@@@std@@@2@ABI@Z 00425de0 f i clientsRegistration.obj
 0001:00024ff0       ?lower_bound@?$_Tree@V?$_Tmap_traits@IPAVsingleReg@@U?$less@I@std@@V?$allocator@U?$pair@$$CBIPAVsingleReg@@@std@@@3@$00@std@@@std@@QAE?AV?$_Tree_iterator@V?$_Tree_val@U?$_Tree_simple_types@U?$pair@$$CBIPAVsingleReg@@@std@@@std@@@std@@@2@ABI@Z 00425ff0 f i clientsRegistration.obj
 0001:00025040       ?max_size@?$_Tree@V?$_Tmap_traits@IPAVsingleReg@@U?$less@I@std@@V?$allocator@U?$pair@$$CBIPAVsingleReg@@@std@@@3@$00@std@@@std@@QBEIXZ 00426040 f i clientsRegistration.obj
 0001:00025070       ?max_size@?$_Wrap_alloc@V?$allocator@U?$_List_node@IPAX@std@@@std@@@std@@QBEIXZ 00426070 f i clientsRegistration.obj
 0001:00025090       ?max_size@?$_Wrap_alloc@V?$allocator@U?$_List_node@VclientIPC@@PAX@std@@@std@@@std@@QBEIXZ 00426090 f i clientsRegistration.obj
 0001:000250b0       ?max_size@?$_Wrap_alloc@V?$allocator@U?$_Tree_node@U?$pair@$$CBIPAVsingleReg@@@std@@PAX@std@@@std@@@std@@QBEIXZ 004260b0 f i clientsRegistration.obj
 0001:000250d0       ?max_size@?$allocator@U?$_List_node@IPAX@std@@@std@@QBEIXZ 004260d0 f i clientsRegistration.obj
 0001:000250f0       ?max_size@?$allocator@U?$_List_node@VclientIPC@@PAX@std@@@std@@QBEIXZ 004260f0 f i clientsRegistration.obj
 0001:00025110       ?max_size@?$allocator@U?$_Tree_node@U?$pair@$$CBIPAVsingleReg@@@std@@PAX@std@@@std@@QBEIXZ 00426110 f i clientsRegistration.obj
 0001:00025130       ?max_size@?$allocator_traits@V?$allocator@U?$_List_node@IPAX@std@@@std@@@std@@SAIABV?$allocator@U?$_List_node@IPAX@std@@@2@@Z 00426130 f i clientsRegistration.obj
 0001:00025140       ?max_size@?$allocator_traits@V?$allocator@U?$_List_node@VclientIPC@@PAX@std@@@std@@@std@@SAIABV?$allocator@U?$_List_node@VclientIPC@@PAX@std@@@2@@Z 00426140 f i clientsRegistration.obj
 0001:00025150       ?max_size@?$allocator_traits@V?$allocator@U?$_Tree_node@U?$pair@$$CBIPAVsingleReg@@@std@@PAX@std@@@std@@@std@@SAIABV?$allocator@U?$_Tree_node@U?$pair@$$CBIPAVsingleReg@@@std@@PAX@std@@@2@@Z 00426150 f i clientsRegistration.obj
 0001:00025160       ?max_size@?$list@IV?$allocator@I@std@@@std@@QBEIXZ 00426160 f i clientsRegistration.obj
 0001:00025190       ?max_size@?$list@VclientIPC@@V?$allocator@VclientIPC@@@std@@@std@@QBEIXZ 00426190 f i clientsRegistration.obj
 0001:000251c0       ?pointer_to@?$pointer_traits@PAU?$pair@$$CBIPAVsingleReg@@@std@@@std@@SAPAU?$pair@$$CBIPAVsingleReg@@@2@AAU32@@Z 004261c0 f i clientsRegistration.obj
 0001:000251e0       ?pointer_to@?$pointer_traits@PBU?$pair@$$CBIPAVsingleReg@@@std@@@std@@SAPBU?$pair@$$CBIPAVsingleReg@@@2@ABU32@@Z 004261e0 f i clientsRegistration.obj
 0001:00025200       ?push_back@?$list@IV?$allocator@I@std@@@std@@QAEX$$QAI@Z 00426200 f i clientsRegistration.obj
 0001:00025250       ?push_back@?$list@VclientIPC@@V?$allocator@VclientIPC@@@std@@@std@@QAEX$$QAVclientIPC@@@Z 00426250 f i clientsRegistration.obj
 0001:000252a0       ?size@?$_Tree@V?$_Tmap_traits@IPAVsingleReg@@U?$less@I@std@@V?$allocator@U?$pair@$$CBIPAVsingleReg@@@std@@@3@$00@std@@@std@@QBEIXZ 004262a0 f i clientsRegistration.obj
 0001:000252c0       ??0databaseSync@@QAE@I@Z   004262c0 f   databaseSync.obj
 0001:00025520       ??1databaseSync@@UAE@XZ    00426520 f   databaseSync.obj
 0001:00025540       ?save@databaseSync@@QAEIIII@Z 00426540 f   databaseSync.obj
 0001:00025e60       ?getDatabaseSync@databaseSync@@SAPAV1@I@Z 00426e60 f   databaseSync.obj
 0001:00025fd0       ?clear@databaseSync@@SAXXZ 00426fd0 f   databaseSync.obj
 0001:000260b0       ?setTransId@databaseSync@@QAEXABVQString@@I@Z 004270b0 f   databaseSync.obj
 0001:00026560       ?transId@databaseSync@@QAEIABVQString@@@Z 00427560 f   databaseSync.obj
 0001:00026950       ?transId@databaseSync@@QAEIXZ 00427950 f   databaseSync.obj
 0001:00026a60       ?getList@databaseSync@@QAE_NIIIAAV?$set@VdbEntry@@U?$less@VdbEntry@@@std@@V?$allocator@VdbEntry@@@3@@std@@@Z 00427a60 f   databaseSync.obj
 0001:00027610       ??$?0AAIAAPAVdatabaseSync@@X@?$pair@IPAVdatabaseSync@@@std@@QAE@AAIAAPAVdatabaseSync@@@Z 00428610 f i databaseSync.obj
 0001:00027660       ??$?0AAV?$_Tree_const_iterator@V?$_Tree_val@U?$_Tree_simple_types@VdbEntry@@@std@@@std@@@std@@_NX@?$pair@V?$_Tree_const_iterator@V?$_Tree_val@U?$_Tree_simple_types@VdbEntry@@@std@@@std@@@std@@_N@std@@QAE@AAV?$_Tree_const_iterator@V?$_Tree_val@U?$_Tree_simple_types@VdbEntry@@@std@@@std@@@1@$$QA_N@Z 00428660 f i databaseSync.obj
 0001:000276f0       ??$?0AAV?$_Tree_iterator@V?$_Tree_val@U?$_Tree_simple_types@U?$pair@$$CBIPAVdatabaseSync@@@std@@@std@@@std@@@std@@_NX@?$pair@V?$_Tree_iterator@V?$_Tree_val@U?$_Tree_simple_types@U?$pair@$$CBIPAVdatabaseSync@@@std@@@std@@@std@@@std@@_N@std@@QAE@AAV?$_Tree_iterator@V?$_Tree_val@U?$_Tree_simple_types@U?$pair@$$CBIPAVdatabaseSync@@@std@@@std@@@std@@@1@$$QA_N@Z 004286f0 f i databaseSync.obj
 0001:00027780       ??$?0IPAVdatabaseSync@@X@?$pair@$$CBIPAVdatabaseSync@@@std@@QAE@$$QAU?$pair@IPAVdatabaseSync@@@1@@Z 00428780 f i databaseSync.obj
 0001:000277d0       ??$?0U?$_Tree_node@U?$pair@$$CBIPAVdatabaseSync@@@std@@PAX@std@@@?$allocator@U_Container_proxy@std@@@std@@QAE@ABV?$allocator@U?$_Tree_node@U?$pair@$$CBIPAVdatabaseSync@@@std@@PAX@std@@@1@@Z 004287d0 f i databaseSync.obj
 0001:000277f0       ??$?0U?$_Wrap_alloc@V?$allocator@U?$_Tree_node@U?$pair@$$CBIPAVdatabaseSync@@@std@@PAX@std@@@std@@@std@@@?$_Wrap_alloc@V?$allocator@U_Container_proxy@std@@@std@@@std@@QAE@ABU?$_Wrap_alloc@V?$allocator@U?$_Tree_node@U?$pair@$$CBIPAVdatabaseSync@@@std@@PAX@std@@@std@@@1@@Z 004287f0 f i databaseSync.obj
 0001:00027820       ??$?0V?$_Tree_const_iterator@V?$_Tree_val@U?$_Tree_simple_types@VdbEntry@@@std@@@std@@@std@@_NX@?$pair@V?$_Tree_const_iterator@V?$_Tree_val@U?$_Tree_simple_types@VdbEntry@@@std@@@std@@@std@@_N@std@@QAE@$$QAV?$_Tree_const_iterator@V?$_Tree_val@U?$_Tree_simple_types@VdbEntry@@@std@@@std@@@1@$$QA_N@Z 00428820 f i databaseSync.obj
 0001:000278b0       ??$?0V?$_Tree_iterator@V?$_Tree_val@U?$_Tree_simple_types@U?$pair@$$CBIPAVdatabaseSync@@@std@@@std@@@std@@@std@@_NX@?$pair@V?$_Tree_iterator@V?$_Tree_val@U?$_Tree_simple_types@U?$pair@$$CBIPAVdatabaseSync@@@std@@@std@@@std@@@std@@_N@std@@QAE@$$QAV?$_Tree_iterator@V?$_Tree_val@U?$_Tree_simple_types@U?$pair@$$CBIPAVdatabaseSync@@@std@@@std@@@std@@@1@$$QA_N@Z 004288b0 f i databaseSync.obj
 0001:00027940       ??$_Allocate@U?$_Tree_node@U?$pair@$$CBIPAVdatabaseSync@@@std@@PAX@std@@@std@@YAPAU?$_Tree_node@U?$pair@$$CBIPAVdatabaseSync@@@std@@PAX@0@IPAU10@@Z 00428940 f i databaseSync.obj
 0001:00027990       ??$_Allocate@U?$_Tree_node@VdbEntry@@PAX@std@@@std@@YAPAU?$_Tree_node@VdbEntry@@PAX@0@IPAU10@@Z 00428990 f i databaseSync.obj
 0001:000279e0       ??$_Buynode@U?$pair@IPAVdatabaseSync@@@std@@@?$_Tree_buy@U?$pair@$$CBIPAVdatabaseSync@@@std@@V?$allocator@U?$pair@$$CBIPAVdatabaseSync@@@std@@@2@@std@@QAEPAU?$_Tree_node@U?$pair@$$CBIPAVdatabaseSync@@@std@@PAX@1@$$QAU?$pair@IPAVdatabaseSync@@@1@@Z 004289e0 f i databaseSync.obj
 0001:00027b10       ??$_Buynode@VdbEntry@@@?$_Tree_buy@VdbEntry@@V?$allocator@VdbEntry@@@std@@@std@@QAEPAU?$_Tree_node@VdbEntry@@PAX@1@$$QAVdbEntry@@@Z 00428b10 f i databaseSync.obj
 0001:00027c40       ??$_Buynode_if_nil@AAU?$pair@$$CBIPAVdatabaseSync@@@std@@@?$_Tree@V?$_Tmap_traits@IPAVdatabaseSync@@U?$less@I@std@@V?$allocator@U?$pair@$$CBIPAVdatabaseSync@@@std@@@3@$0A@@std@@@std@@IAEPAU?$_Tree_node@U?$pair@$$CBIPAVdatabaseSync@@@std@@PAX@1@PAU21@AAU?$pair@$$CBIPAVdatabaseSync@@@1@@Z 00428c40 f i databaseSync.obj
 0001:00027c60       ??$_Buynode_if_nil@VdbEntry@@@?$_Tree@V?$_Tset_traits@VdbEntry@@U?$less@VdbEntry@@@std@@V?$allocator@VdbEntry@@@3@$0A@@std@@@std@@IAEPAU?$_Tree_node@VdbEntry@@PAX@1@U_Nil@1@$$QAVdbEntry@@@Z 00428c60 f i databaseSync.obj
 0001:00027c90       ??$_Debug_lt_pred@U?$less@VdbEntry@@@std@@ABVdbEntry@@ABV3@@std@@YA_NU?$less@VdbEntry@@@0@ABVdbEntry@@1PB_WI@Z 00428c90 f i databaseSync.obj
 0001:00027d30       ??$_Insert_at@AAU?$pair@$$CBIPAVdatabaseSync@@@std@@PAU?$_Tree_node@U?$pair@$$CBIPAVdatabaseSync@@@std@@PAX@2@@?$_Tree@V?$_Tmap_traits@IPAVdatabaseSync@@U?$less@I@std@@V?$allocator@U?$pair@$$CBIPAVdatabaseSync@@@std@@@3@$0A@@std@@@std@@IAE?AV?$_Tree_iterator@V?$_Tree_val@U?$_Tree_simple_types@U?$pair@$$CBIPAVdatabaseSync@@@std@@@std@@@std@@@1@_NPAU?$_Tree_node@U?$pair@$$CBIPAVdatabaseSync@@@std@@PAX@1@AAU?$pair@$$CBIPAVdatabaseSync@@@1@1@Z 00428d30 f i databaseSync.obj
 0001:00028280       ??$_Insert_at@VdbEntry@@U_Nil@std@@@?$_Tree@V?$_Tset_traits@VdbEntry@@U?$less@VdbEntry@@@std@@V?$allocator@VdbEntry@@@3@$0A@@std@@@std@@IAE?AV?$_Tree_const_iterator@V?$_Tree_val@U?$_Tree_simple_types@VdbEntry@@@std@@@std@@@1@_NPAU?$_Tree_node@VdbEntry@@PAX@1@$$QAVdbEntry@@U_Nil@1@@Z 00429280 f i databaseSync.obj
 0001:000287d0       ??$_Insert_nohint@AAU?$pair@$$CBIPAVdatabaseSync@@@std@@PAU?$_Tree_node@U?$pair@$$CBIPAVdatabaseSync@@@std@@PAX@2@@?$_Tree@V?$_Tmap_traits@IPAVdatabaseSync@@U?$less@I@std@@V?$allocator@U?$pair@$$CBIPAVdatabaseSync@@@std@@@3@$0A@@std@@@std@@IAE?AU?$pair@V?$_Tree_iterator@V?$_Tree_val@U?$_Tree_simple_types@U?$pair@$$CBIPAVdatabaseSync@@@std@@@std@@@std@@@std@@_N@1@_NAAU?$pair@$$CBIPAVdatabaseSync@@@1@PAU?$_Tree_node@U?$pair@$$CBIPAVdatabaseSync@@@std@@PAX@1@@Z 004297d0 f i databaseSync.obj
 0001:00028db0       ??$_Insert_nohint@VdbEntry@@U_Nil@std@@@?$_Tree@V?$_Tset_traits@VdbEntry@@U?$less@VdbEntry@@@std@@V?$allocator@VdbEntry@@@3@$0A@@std@@@std@@IAE?AU?$pair@V?$_Tree_const_iterator@V?$_Tree_val@U?$_Tree_simple_types@VdbEntry@@@std@@@std@@@std@@_N@1@_N$$QAVdbEntry@@U_Nil@1@@Z 00429db0 f i databaseSync.obj
 0001:000293a0       ??$_Kfn@$$CBIPAVdatabaseSync@@@?$_Tmap_traits@IPAVdatabaseSync@@U?$less@I@std@@V?$allocator@U?$pair@$$CBIPAVdatabaseSync@@@std@@@3@$0A@@std@@SAABIABU?$pair@$$CBIPAVdatabaseSync@@@1@@Z 0042a3a0 f i databaseSync.obj
 0001:000293b0       ??$addressof@$$CBU?$pair@$$CBIPAVdatabaseSync@@@std@@@std@@YAPBU?$pair@$$CBIPAVdatabaseSync@@@0@ABU10@@Z 0042a3b0 f i databaseSync.obj
 0001:000293c0       ??$addressof@PAU?$_Tree_node@U?$pair@$$CBIPAVdatabaseSync@@@std@@PAX@std@@@std@@YAPAPAU?$_Tree_node@U?$pair@$$CBIPAVdatabaseSync@@@std@@PAX@0@AAPAU10@@Z 0042a3c0 f i databaseSync.obj
 0001:000293d0       ??$addressof@PAU?$_Tree_node@VdbEntry@@PAX@std@@@std@@YAPAPAU?$_Tree_node@VdbEntry@@PAX@0@AAPAU10@@Z 0042a3d0 f i databaseSync.obj
 0001:000293e0       ??$addressof@U?$pair@$$CBIPAVdatabaseSync@@@std@@@std@@YAPAU?$pair@$$CBIPAVdatabaseSync@@@0@AAU10@@Z 0042a3e0 f i databaseSync.obj
 0001:000293f0       ??$addressof@VdbEntry@@@std@@YAPAVdbEntry@@AAV1@@Z 0042a3f0 f i databaseSync.obj
 0001:00029400       ??$atomic@H@?$QAtomicOpsBySize@$03@@CAPAJPAH@Z 0042a400 f i databaseSync.obj
 0001:00029410       ??$construct@PAU?$_Tree_node@U?$pair@$$CBIPAVdatabaseSync@@@std@@PAX@std@@AAPAU12@@?$_Wrap_alloc@V?$allocator@U?$_Tree_node@U?$pair@$$CBIPAVdatabaseSync@@@std@@PAX@std@@@std@@@std@@QAEXPAPAU?$_Tree_node@U?$pair@$$CBIPAVdatabaseSync@@@std@@PAX@1@AAPAU21@@Z 0042a410 f i databaseSync.obj
 0001:00029450       ??$construct@PAU?$_Tree_node@U?$pair@$$CBIPAVdatabaseSync@@@std@@PAX@std@@AAPAU12@@?$allocator@U?$_Tree_node@U?$pair@$$CBIPAVdatabaseSync@@@std@@PAX@std@@@std@@QAEXPAPAU?$_Tree_node@U?$pair@$$CBIPAVdatabaseSync@@@std@@PAX@1@AAPAU21@@Z 0042a450 f i databaseSync.obj
 0001:00029500       ??$construct@PAU?$_Tree_node@U?$pair@$$CBIPAVdatabaseSync@@@std@@PAX@std@@AAPAU12@@?$allocator_traits@V?$allocator@U?$_Tree_node@U?$pair@$$CBIPAVdatabaseSync@@@std@@PAX@std@@@std@@@std@@SAXAAV?$allocator@U?$_Tree_node@U?$pair@$$CBIPAVdatabaseSync@@@std@@PAX@std@@@1@PAPAU?$_Tree_node@U?$pair@$$CBIPAVdatabaseSync@@@std@@PAX@1@AAPAU31@@Z 0042a500 f i databaseSync.obj
 0001:00029530       ??$construct@PAU?$_Tree_node@VdbEntry@@PAX@std@@AAPAU12@@?$_Wrap_alloc@V?$allocator@U?$_Tree_node@VdbEntry@@PAX@std@@@std@@@std@@QAEXPAPAU?$_Tree_node@VdbEntry@@PAX@1@AAPAU21@@Z 0042a530 f i databaseSync.obj
 0001:00029570       ??$construct@PAU?$_Tree_node@VdbEntry@@PAX@std@@AAPAU12@@?$allocator@U?$_Tree_node@VdbEntry@@PAX@std@@@std@@QAEXPAPAU?$_Tree_node@VdbEntry@@PAX@1@AAPAU21@@Z 0042a570 f i databaseSync.obj
 0001:00029620       ??$construct@PAU?$_Tree_node@VdbEntry@@PAX@std@@AAPAU12@@?$allocator_traits@V?$allocator@U?$_Tree_node@VdbEntry@@PAX@std@@@std@@@std@@SAXAAV?$allocator@U?$_Tree_node@VdbEntry@@PAX@std@@@1@PAPAU?$_Tree_node@VdbEntry@@PAX@1@AAPAU31@@Z 0042a620 f i databaseSync.obj
 0001:00029650       ??$construct@U?$pair@$$CBIPAVdatabaseSync@@@std@@U?$pair@IPAVdatabaseSync@@@2@@?$_Wrap_alloc@V?$allocator@U?$_Tree_node@U?$pair@$$CBIPAVdatabaseSync@@@std@@PAX@std@@@std@@@std@@QAEXPAU?$pair@$$CBIPAVdatabaseSync@@@1@$$QAU?$pair@IPAVdatabaseSync@@@1@@Z 0042a650 f i databaseSync.obj
 0001:00029690       ??$construct@U?$pair@$$CBIPAVdatabaseSync@@@std@@U?$pair@IPAVdatabaseSync@@@2@@?$allocator@U?$_Tree_node@U?$pair@$$CBIPAVdatabaseSync@@@std@@PAX@std@@@std@@QAEXPAU?$pair@$$CBIPAVdatabaseSync@@@1@$$QAU?$pair@IPAVdatabaseSync@@@1@@Z 0042a690 f i databaseSync.obj
 0001:00029740       ??$construct@U?$pair@$$CBIPAVdatabaseSync@@@std@@U?$pair@IPAVdatabaseSync@@@2@@?$allocator_traits@V?$allocator@U?$_Tree_node@U?$pair@$$CBIPAVdatabaseSync@@@std@@PAX@std@@@std@@@std@@SAXAAV?$allocator@U?$_Tree_node@U?$pair@$$CBIPAVdatabaseSync@@@std@@PAX@std@@@1@PAU?$pair@$$CBIPAVdatabaseSync@@@1@$$QAU?$pair@IPAVdatabaseSync@@@1@@Z 0042a740 f i databaseSync.obj
 0001:00029770       ??$construct@VdbEntry@@V1@@?$_Wrap_alloc@V?$allocator@U?$_Tree_node@VdbEntry@@PAX@std@@@std@@@std@@QAEXPAVdbEntry@@$$QAV2@@Z 0042a770 f i databaseSync.obj
 0001:000297b0       ??$construct@VdbEntry@@V1@@?$allocator@U?$_Tree_node@VdbEntry@@PAX@std@@@std@@QAEXPAVdbEntry@@$$QAV2@@Z 0042a7b0 f i databaseSync.obj
 0001:00029860       ??$construct@VdbEntry@@V1@@?$allocator_traits@V?$allocator@U?$_Tree_node@VdbEntry@@PAX@std@@@std@@@std@@SAXAAV?$allocator@U?$_Tree_node@VdbEntry@@PAX@std@@@1@PAVdbEntry@@$$QAV3@@Z 0042a860 f i databaseSync.obj
 0001:00029890       ??$deref@H@?$QAtomicOpsBySize@$03@@SA_NAAH@Z 0042a890 f i databaseSync.obj
 0001:000298d0       ??$destroy@PAU?$_Tree_node@U?$pair@$$CBIPAVdatabaseSync@@@std@@PAX@std@@@?$_Wrap_alloc@V?$allocator@U?$_Tree_node@U?$pair@$$CBIPAVdatabaseSync@@@std@@PAX@std@@@std@@@std@@QAEXPAPAU?$_Tree_node@U?$pair@$$CBIPAVdatabaseSync@@@std@@PAX@1@@Z 0042a8d0 f i databaseSync.obj
 0001:00029900       ??$destroy@PAU?$_Tree_node@U?$pair@$$CBIPAVdatabaseSync@@@std@@PAX@std@@@?$allocator@U?$_Tree_node@U?$pair@$$CBIPAVdatabaseSync@@@std@@PAX@std@@@std@@QAEXPAPAU?$_Tree_node@U?$pair@$$CBIPAVdatabaseSync@@@std@@PAX@1@@Z 0042a900 f i databaseSync.obj
 0001:00029910       ??$destroy@PAU?$_Tree_node@U?$pair@$$CBIPAVdatabaseSync@@@std@@PAX@std@@@?$allocator_traits@V?$allocator@U?$_Tree_node@U?$pair@$$CBIPAVdatabaseSync@@@std@@PAX@std@@@std@@@std@@SAXAAV?$allocator@U?$_Tree_node@U?$pair@$$CBIPAVdatabaseSync@@@std@@PAX@std@@@1@PAPAU?$_Tree_node@U?$pair@$$CBIPAVdatabaseSync@@@std@@PAX@1@@Z 0042a910 f i databaseSync.obj
 0001:00029930       ??$destroy@PAU?$_Tree_node@VdbEntry@@PAX@std@@@?$_Wrap_alloc@V?$allocator@U?$_Tree_node@VdbEntry@@PAX@std@@@std@@@std@@QAEXPAPAU?$_Tree_node@VdbEntry@@PAX@1@@Z 0042a930 f i databaseSync.obj
 0001:00029960       ??$destroy@PAU?$_Tree_node@VdbEntry@@PAX@std@@@?$allocator@U?$_Tree_node@VdbEntry@@PAX@std@@@std@@QAEXPAPAU?$_Tree_node@VdbEntry@@PAX@1@@Z 0042a960 f i databaseSync.obj
 0001:00029970       ??$destroy@PAU?$_Tree_node@VdbEntry@@PAX@std@@@?$allocator_traits@V?$allocator@U?$_Tree_node@VdbEntry@@PAX@std@@@std@@@std@@SAXAAV?$allocator@U?$_Tree_node@VdbEntry@@PAX@std@@@1@PAPAU?$_Tree_node@VdbEntry@@PAX@1@@Z 0042a970 f i databaseSync.obj
 0001:00029990       ??$destroy@U?$pair@$$CBIPAVdatabaseSync@@@std@@@?$_Wrap_alloc@V?$allocator@U?$_Tree_node@U?$pair@$$CBIPAVdatabaseSync@@@std@@PAX@std@@@std@@@std@@QAEXPAU?$pair@$$CBIPAVdatabaseSync@@@1@@Z 0042a990 f i databaseSync.obj
 0001:000299c0       ??$destroy@U?$pair@$$CBIPAVdatabaseSync@@@std@@@?$allocator@U?$_Tree_node@U?$pair@$$CBIPAVdatabaseSync@@@std@@PAX@std@@@std@@QAEXPAU?$pair@$$CBIPAVdatabaseSync@@@1@@Z 0042a9c0 f i databaseSync.obj
 0001:000299d0       ??$destroy@U?$pair@$$CBIPAVdatabaseSync@@@std@@@?$allocator_traits@V?$allocator@U?$_Tree_node@U?$pair@$$CBIPAVdatabaseSync@@@std@@PAX@std@@@std@@@std@@SAXAAV?$allocator@U?$_Tree_node@U?$pair@$$CBIPAVdatabaseSync@@@std@@PAX@std@@@1@PAU?$pair@$$CBIPAVdatabaseSync@@@1@@Z 0042a9d0 f i databaseSync.obj
 0001:000299f0       ??$forward@AAPAU?$_Tree_node@U?$pair@$$CBIPAVdatabaseSync@@@std@@PAX@std@@@std@@YAAAPAU?$_Tree_node@U?$pair@$$CBIPAVdatabaseSync@@@std@@PAX@0@AAPAU10@@Z 0042a9f0 f i databaseSync.obj
 0001:00029a00       ??$forward@AAPAU?$_Tree_node@VdbEntry@@PAX@std@@@std@@YAAAPAU?$_Tree_node@VdbEntry@@PAX@0@AAPAU10@@Z 0042aa00 f i databaseSync.obj
 0001:00029a10       ??$forward@AAPAVdatabaseSync@@@std@@YAAAPAVdatabaseSync@@AAPAV1@@Z 0042aa10 f i databaseSync.obj
 0001:00029a20       ??$forward@AAU?$pair@$$CBIPAVdatabaseSync@@@std@@@std@@YAAAU?$pair@$$CBIPAVdatabaseSync@@@0@AAU10@@Z 0042aa20 f i databaseSync.obj
 0001:00029a30       ??$forward@AAV?$_Tree_const_iterator@V?$_Tree_val@U?$_Tree_simple_types@VdbEntry@@@std@@@std@@@std@@@std@@YAAAV?$_Tree_const_iterator@V?$_Tree_val@U?$_Tree_simple_types@VdbEntry@@@std@@@std@@@0@AAV10@@Z 0042aa30 f i databaseSync.obj
 0001:00029a40       ??$forward@AAV?$_Tree_iterator@V?$_Tree_val@U?$_Tree_simple_types@U?$pair@$$CBIPAVdatabaseSync@@@std@@@std@@@std@@@std@@@std@@YAAAV?$_Tree_iterator@V?$_Tree_val@U?$_Tree_simple_types@U?$pair@$$CBIPAVdatabaseSync@@@std@@@std@@@std@@@0@AAV10@@Z 0042aa40 f i databaseSync.obj
 0001:00029a50       ??$forward@ABVdbEntry@@@std@@YAABVdbEntry@@ABV1@@Z 0042aa50 f i databaseSync.obj
 0001:00029a60       ??$forward@PAVdatabaseSync@@@std@@YA$$QAPAVdatabaseSync@@AAPAV1@@Z 0042aa60 f i databaseSync.obj
 0001:00029a70       ??$forward@U?$pair@IPAVdatabaseSync@@@std@@@std@@YA$$QAU?$pair@IPAVdatabaseSync@@@0@AAU10@@Z 0042aa70 f i databaseSync.obj
 0001:00029a80       ??$forward@V?$_Tree_const_iterator@V?$_Tree_val@U?$_Tree_simple_types@VdbEntry@@@std@@@std@@@std@@@std@@YA$$QAV?$_Tree_const_iterator@V?$_Tree_val@U?$_Tree_simple_types@VdbEntry@@@std@@@std@@@0@AAV10@@Z 0042aa80 f i databaseSync.obj
 0001:00029a90       ??$forward@V?$_Tree_iterator@V?$_Tree_val@U?$_Tree_simple_types@U?$pair@$$CBIPAVdatabaseSync@@@std@@@std@@@std@@@std@@@std@@YA$$QAV?$_Tree_iterator@V?$_Tree_val@U?$_Tree_simple_types@U?$pair@$$CBIPAVdatabaseSync@@@std@@@std@@@std@@@0@AAV10@@Z 0042aa90 f i databaseSync.obj
 0001:00029aa0       ??$forward@VdbEntry@@@std@@YA$$QAVdbEntry@@AAV1@@Z 0042aaa0 f i databaseSync.obj
 0001:00029ab0       ??$insert@U?$pair@IPAVdatabaseSync@@@std@@@?$_Tree@V?$_Tmap_traits@IPAVdatabaseSync@@U?$less@I@std@@V?$allocator@U?$pair@$$CBIPAVdatabaseSync@@@std@@@3@$0A@@std@@@std@@QAE?AU?$pair@V?$_Tree_iterator@V?$_Tree_val@U?$_Tree_simple_types@U?$pair@$$CBIPAVdatabaseSync@@@std@@@std@@@std@@@std@@_N@1@$$QAU?$pair@IPAVdatabaseSync@@@1@@Z 0042aab0 f i databaseSync.obj
 0001:00029b20       ??$load@H@?$QGenericAtomicOps@U?$QAtomicOpsBySize@$03@@@@SAHABH@Z 0042ab20 f i databaseSync.obj
 0001:00029b30       ??$make_pair@AAIAAPAVdatabaseSync@@@std@@YA?AU?$pair@IPAVdatabaseSync@@@0@AAIAAPAVdatabaseSync@@@Z 0042ab30 f i databaseSync.obj
 0001:00029b70       ??0?$_Iterator012@Ubidirectional_iterator_tag@std@@U?$pair@$$CBIPAVdatabaseSync@@@2@HPBU32@ABU32@U_Iterator_base12@2@@std@@QAE@ABU01@@Z 0042ab70 f i databaseSync.obj
 0001:00029ba0       ??0?$_Iterator012@Ubidirectional_iterator_tag@std@@U?$pair@$$CBIPAVdatabaseSync@@@2@HPBU32@ABU32@U_Iterator_base12@2@@std@@QAE@XZ 0042aba0 f i databaseSync.obj
 0001:00029bc0       ??0?$_Iterator012@Ubidirectional_iterator_tag@std@@VdbEntry@@HPBV3@ABV3@U_Iterator_base12@2@@std@@QAE@ABU01@@Z 0042abc0 f i databaseSync.obj
 0001:00029bf0       ??0?$_Iterator012@Ubidirectional_iterator_tag@std@@VdbEntry@@HPBV3@ABV3@U_Iterator_base12@2@@std@@QAE@XZ 0042abf0 f i databaseSync.obj
 0001:00029c10       ??0?$_Tree@V?$_Tmap_traits@IPAVdatabaseSync@@U?$less@I@std@@V?$allocator@U?$pair@$$CBIPAVdatabaseSync@@@std@@@3@$0A@@std@@@std@@QAE@ABU?$less@I@1@ABV?$allocator@U?$pair@$$CBIPAVdatabaseSync@@@std@@@1@@Z 0042ac10 f i databaseSync.obj
 0001:00029c40       ??0?$_Tree_alloc@$0A@U?$_Tree_base_types@U?$pair@$$CBIPAVdatabaseSync@@@std@@V?$allocator@U?$pair@$$CBIPAVdatabaseSync@@@std@@@2@@std@@@std@@QAE@ABV?$allocator@U?$pair@$$CBIPAVdatabaseSync@@@std@@@1@@Z 0042ac40 f i databaseSync.obj
 0001:00029d10       ??0?$_Tree_buy@U?$pair@$$CBIPAVdatabaseSync@@@std@@V?$allocator@U?$pair@$$CBIPAVdatabaseSync@@@std@@@2@@std@@QAE@ABV?$allocator@U?$pair@$$CBIPAVdatabaseSync@@@std@@@1@@Z 0042ad10 f i databaseSync.obj
 0001:00029d40       ??0?$_Tree_comp@$0A@V?$_Tmap_traits@IPAVdatabaseSync@@U?$less@I@std@@V?$allocator@U?$pair@$$CBIPAVdatabaseSync@@@std@@@3@$0A@@std@@@std@@QAE@ABU?$less@I@1@ABV?$allocator@U?$pair@$$CBIPAVdatabaseSync@@@std@@@1@@Z 0042ad40 f i databaseSync.obj
 0001:00029d70       ??0?$_Tree_const_iterator@V?$_Tree_val@U?$_Tree_simple_types@U?$pair@$$CBIPAVdatabaseSync@@@std@@@std@@@std@@@std@@QAE@ABV01@@Z 0042ad70 f i databaseSync.obj
 0001:00029da0       ??0?$_Tree_const_iterator@V?$_Tree_val@U?$_Tree_simple_types@U?$pair@$$CBIPAVdatabaseSync@@@std@@@std@@@std@@@std@@QAE@PAU?$_Tree_node@U?$pair@$$CBIPAVdatabaseSync@@@std@@PAX@1@PBV?$_Tree_val@U?$_Tree_simple_types@U?$pair@$$CBIPAVdatabaseSync@@@std@@@std@@@1@@Z 0042ada0 f i databaseSync.obj
 0001:00029dd0       ??0?$_Tree_const_iterator@V?$_Tree_val@U?$_Tree_simple_types@VdbEntry@@@std@@@std@@@std@@QAE@ABV01@@Z 0042add0 f i databaseSync.obj
 0001:00029e00       ??0?$_Tree_const_iterator@V?$_Tree_val@U?$_Tree_simple_types@VdbEntry@@@std@@@std@@@std@@QAE@PAU?$_Tree_node@VdbEntry@@PAX@1@PBV?$_Tree_val@U?$_Tree_simple_types@VdbEntry@@@std@@@1@@Z 0042ae00 f i databaseSync.obj
 0001:00029e30       ??0?$_Tree_iterator@V?$_Tree_val@U?$_Tree_simple_types@U?$pair@$$CBIPAVdatabaseSync@@@std@@@std@@@std@@@std@@QAE@ABV01@@Z 0042ae30 f i databaseSync.obj
 0001:00029e60       ??0?$_Tree_iterator@V?$_Tree_val@U?$_Tree_simple_types@U?$pair@$$CBIPAVdatabaseSync@@@std@@@std@@@std@@@std@@QAE@PAU?$_Tree_node@U?$pair@$$CBIPAVdatabaseSync@@@std@@PAX@1@PBV?$_Tree_val@U?$_Tree_simple_types@U?$pair@$$CBIPAVdatabaseSync@@@std@@@std@@@1@@Z 0042ae60 f i databaseSync.obj
 0001:00029e90       ??0?$_Tree_unchecked_const_iterator@V?$_Tree_val@U?$_Tree_simple_types@U?$pair@$$CBIPAVdatabaseSync@@@std@@@std@@@std@@U_Iterator_base12@2@@std@@QAE@ABV01@@Z 0042ae90 f i databaseSync.obj
 0001:00029ed0       ??0?$_Tree_unchecked_const_iterator@V?$_Tree_val@U?$_Tree_simple_types@U?$pair@$$CBIPAVdatabaseSync@@@std@@@std@@@std@@U_Iterator_base12@2@@std@@QAE@PAU?$_Tree_node@U?$pair@$$CBIPAVdatabaseSync@@@std@@PAX@1@PBV?$_Tree_val@U?$_Tree_simple_types@U?$pair@$$CBIPAVdatabaseSync@@@std@@@std@@@1@@Z 0042aed0 f i databaseSync.obj
 0001:00029f50       ??0?$_Tree_unchecked_const_iterator@V?$_Tree_val@U?$_Tree_simple_types@VdbEntry@@@std@@@std@@U_Iterator_base12@2@@std@@QAE@ABV01@@Z 0042af50 f i databaseSync.obj
 0001:00029f90       ??0?$_Tree_unchecked_const_iterator@V?$_Tree_val@U?$_Tree_simple_types@VdbEntry@@@std@@@std@@U_Iterator_base12@2@@std@@QAE@PAU?$_Tree_node@VdbEntry@@PAX@1@PBV?$_Tree_val@U?$_Tree_simple_types@VdbEntry@@@std@@@1@@Z 0042af90 f i databaseSync.obj
 0001:0002a010       ??0?$_Tree_val@U?$_Tree_simple_types@U?$pair@$$CBIPAVdatabaseSync@@@std@@@std@@@std@@QAE@XZ 0042b010 f i databaseSync.obj
 0001:0002a050       ??0?$_Wrap_alloc@V?$allocator@U?$_Tree_node@U?$pair@$$CBIPAVdatabaseSync@@@std@@PAX@std@@@std@@@std@@QAE@XZ 0042b050 f i databaseSync.obj
 0001:0002a070       ??0?$_Wrap_alloc@V?$allocator@U?$_Tree_node@VdbEntry@@PAX@std@@@std@@@std@@QAE@XZ 0042b070 f i databaseSync.obj
 0001:0002a090       ??0?$allocator@U?$_Tree_node@U?$pair@$$CBIPAVdatabaseSync@@@std@@PAX@std@@@std@@QAE@XZ 0042b090 f i databaseSync.obj
 0001:0002a0b0       ??0?$allocator@U?$_Tree_node@VdbEntry@@PAX@std@@@std@@QAE@XZ 0042b0b0 f i databaseSync.obj
 0001:0002a0d0       ??0?$allocator@U?$pair@$$CBIPAVdatabaseSync@@@std@@@std@@QAE@XZ 0042b0d0 f i databaseSync.obj
 0001:0002a0f0       ??0?$map@IPAVdatabaseSync@@U?$less@I@std@@V?$allocator@U?$pair@$$CBIPAVdatabaseSync@@@std@@@3@@std@@QAE@XZ 0042b0f0 f i databaseSync.obj
 0001:0002a120       ??0dbEntry@@QAE@II@Z       0042b120 f i databaseSync.obj
 0001:0002a150       ??1?$QList@VQString@@@@QAE@XZ 0042b150 f i databaseSync.obj
 0001:0002a1e0       ??1?$QListSpecialMethods@VQString@@@@IAE@XZ 0042b1e0 f i databaseSync.obj
 0001:0002a1f0       ??1?$_Iterator012@Ubidirectional_iterator_tag@std@@U?$pair@$$CBIPAVdatabaseSync@@@2@HPBU32@ABU32@U_Iterator_base12@2@@std@@QAE@XZ 0042b1f0 f i databaseSync.obj
 0001:0002a210       ??1?$_Iterator012@Ubidirectional_iterator_tag@std@@VdbEntry@@HPBV3@ABV3@U_Iterator_base12@2@@std@@QAE@XZ 0042b210 f i databaseSync.obj
 0001:0002a230       ??1?$_Tree@V?$_Tmap_traits@IPAVdatabaseSync@@U?$less@I@std@@V?$allocator@U?$pair@$$CBIPAVdatabaseSync@@@std@@@3@$0A@@std@@@std@@QAE@XZ 0042b230 f i databaseSync.obj
 0001:0002a260       ??1?$_Tree_alloc@$0A@U?$_Tree_base_types@U?$pair@$$CBIPAVdatabaseSync@@@std@@V?$allocator@U?$pair@$$CBIPAVdatabaseSync@@@std@@@2@@std@@@std@@QAE@XZ 0042b260 f i databaseSync.obj
 0001:0002a2a0       ??1?$_Tree_buy@U?$pair@$$CBIPAVdatabaseSync@@@std@@V?$allocator@U?$pair@$$CBIPAVdatabaseSync@@@std@@@2@@std@@QAE@XZ 0042b2a0 f i databaseSync.obj
 0001:0002a2c0       ??1?$_Tree_comp@$0A@V?$_Tmap_traits@IPAVdatabaseSync@@U?$less@I@std@@V?$allocator@U?$pair@$$CBIPAVdatabaseSync@@@std@@@3@$0A@@std@@@std@@QAE@XZ 0042b2c0 f i databaseSync.obj
 0001:0002a2e0       ??1?$_Tree_const_iterator@V?$_Tree_val@U?$_Tree_simple_types@U?$pair@$$CBIPAVdatabaseSync@@@std@@@std@@@std@@@std@@QAE@XZ 0042b2e0 f i databaseSync.obj
 0001:0002a300       ??1?$_Tree_const_iterator@V?$_Tree_val@U?$_Tree_simple_types@VdbEntry@@@std@@@std@@@std@@QAE@XZ 0042b300 f i databaseSync.obj
 0001:0002a320       ??1?$_Tree_iterator@V?$_Tree_val@U?$_Tree_simple_types@U?$pair@$$CBIPAVdatabaseSync@@@std@@@std@@@std@@@std@@QAE@XZ 0042b320 f i databaseSync.obj
 0001:0002a340       ??1?$_Tree_unchecked_const_iterator@V?$_Tree_val@U?$_Tree_simple_types@U?$pair@$$CBIPAVdatabaseSync@@@std@@@std@@@std@@U_Iterator_base12@2@@std@@QAE@XZ 0042b340 f i databaseSync.obj
 0001:0002a360       ??1?$_Tree_unchecked_const_iterator@V?$_Tree_val@U?$_Tree_simple_types@VdbEntry@@@std@@@std@@U_Iterator_base12@2@@std@@QAE@XZ 0042b360 f i databaseSync.obj
 0001:0002a380       ??1?$_Tree_val@U?$_Tree_simple_types@U?$pair@$$CBIPAVdatabaseSync@@@std@@@std@@@std@@QAE@XZ 0042b380 f i databaseSync.obj
 0001:0002a3a0       ??1?$map@IPAVdatabaseSync@@U?$less@I@std@@V?$allocator@U?$pair@$$CBIPAVdatabaseSync@@@std@@@3@@std@@QAE@XZ 0042b3a0 f i databaseSync.obj
 0001:0002a3c0       ??1?$pair@V?$_Tree_const_iterator@V?$_Tree_val@U?$_Tree_simple_types@VdbEntry@@@std@@@std@@@std@@_N@std@@QAE@XZ 0042b3c0 f i databaseSync.obj
 0001:0002a3e0       ??1?$pair@V?$_Tree_iterator@V?$_Tree_val@U?$_Tree_simple_types@U?$pair@$$CBIPAVdatabaseSync@@@std@@@std@@@std@@@std@@_N@std@@QAE@XZ 0042b3e0 f i databaseSync.obj
 0001:0002a400       ??1QStringList@@QAE@XZ     0042b400 f i databaseSync.obj
 0001:0002a420       ??8?$_Tree_const_iterator@V?$_Tree_val@U?$_Tree_simple_types@U?$pair@$$CBIPAVdatabaseSync@@@std@@@std@@@std@@@std@@QBE_NABV01@@Z 0042b420 f i databaseSync.obj
 0001:0002a510       ??8?$_Tree_const_iterator@V?$_Tree_val@U?$_Tree_simple_types@VdbEntry@@@std@@@std@@@std@@QBE_NABV01@@Z 0042b510 f i databaseSync.obj
 0001:0002a600       ??9?$_Tree_const_iterator@V?$_Tree_val@U?$_Tree_simple_types@U?$pair@$$CBIPAVdatabaseSync@@@std@@@std@@@std@@@std@@QBE_NABV01@@Z 0042b600 f i databaseSync.obj
 0001:0002a650       ??A?$QList@VQString@@@@QAEAAVQString@@H@Z 0042b650 f i databaseSync.obj
 0001:0002a6e0       ??C?$_Tree_const_iterator@V?$_Tree_val@U?$_Tree_simple_types@U?$pair@$$CBIPAVdatabaseSync@@@std@@@std@@@std@@@std@@QBEPBU?$pair@$$CBIPAVdatabaseSync@@@1@XZ 0042b6e0 f i databaseSync.obj
 0001:0002a710       ??C?$_Tree_iterator@V?$_Tree_val@U?$_Tree_simple_types@U?$pair@$$CBIPAVdatabaseSync@@@std@@@std@@@std@@@std@@QBEPAU?$pair@$$CBIPAVdatabaseSync@@@1@XZ 0042b710 f i databaseSync.obj
 0001:0002a740       ??D?$_Tree_const_iterator@V?$_Tree_val@U?$_Tree_simple_types@U?$pair@$$CBIPAVdatabaseSync@@@std@@@std@@@std@@@std@@QBEABU?$pair@$$CBIPAVdatabaseSync@@@1@XZ 0042b740 f i databaseSync.obj
 0001:0002a820       ??D?$_Tree_iterator@V?$_Tree_val@U?$_Tree_simple_types@U?$pair@$$CBIPAVdatabaseSync@@@std@@@std@@@std@@@std@@QBEAAU?$pair@$$CBIPAVdatabaseSync@@@1@XZ 0042b820 f i databaseSync.obj
 0001:0002a840       ??E?$_Tree_const_iterator@V?$_Tree_val@U?$_Tree_simple_types@U?$pair@$$CBIPAVdatabaseSync@@@std@@@std@@@std@@@std@@QAE?AV01@H@Z 0042b840 f i databaseSync.obj
 0001:0002a8f0       ??E?$_Tree_const_iterator@V?$_Tree_val@U?$_Tree_simple_types@U?$pair@$$CBIPAVdatabaseSync@@@std@@@std@@@std@@@std@@QAEAAV01@XZ 0042b8f0 f i databaseSync.obj
 0001:0002a9d0       ??E?$_Tree_iterator@V?$_Tree_val@U?$_Tree_simple_types@U?$pair@$$CBIPAVdatabaseSync@@@std@@@std@@@std@@@std@@QAEAAV01@XZ 0042b9d0 f i databaseSync.obj
 0001:0002a9f0       ??E?$_Tree_unchecked_const_iterator@V?$_Tree_val@U?$_Tree_simple_types@U?$pair@$$CBIPAVdatabaseSync@@@std@@@std@@@std@@U_Iterator_base12@2@@std@@QAEAAV01@XZ 0042b9f0 f i databaseSync.obj
 0001:0002aae0       ??F?$_Tree_const_iterator@V?$_Tree_val@U?$_Tree_simple_types@U?$pair@$$CBIPAVdatabaseSync@@@std@@@std@@@std@@@std@@QAEAAV01@XZ 0042bae0 f i databaseSync.obj
 0001:0002ac40       ??F?$_Tree_const_iterator@V?$_Tree_val@U?$_Tree_simple_types@VdbEntry@@@std@@@std@@@std@@QAEAAV01@XZ 0042bc40 f i databaseSync.obj
 0001:0002ada0       ??F?$_Tree_iterator@V?$_Tree_val@U?$_Tree_simple_types@U?$pair@$$CBIPAVdatabaseSync@@@std@@@std@@@std@@@std@@QAEAAV01@XZ 0042bda0 f i databaseSync.obj
 0001:0002adc0       ??F?$_Tree_unchecked_const_iterator@V?$_Tree_val@U?$_Tree_simple_types@U?$pair@$$CBIPAVdatabaseSync@@@std@@@std@@@std@@U_Iterator_base12@2@@std@@QAEAAV01@XZ 0042bdc0 f i databaseSync.obj
 0001:0002aef0       ??F?$_Tree_unchecked_const_iterator@V?$_Tree_val@U?$_Tree_simple_types@VdbEntry@@@std@@@std@@U_Iterator_base12@2@@std@@QAEAAV01@XZ 0042bef0 f i databaseSync.obj
 0001:0002b020       ??MdbEntry@@QBE_NABV0@@Z   0042c020 f i databaseSync.obj
 0001:0002b060       ??R?$less@VdbEntry@@@std@@QBE_NABVdbEntry@@0@Z 0042c060 f i databaseSync.obj
 0001:0002b080       ??_GQString@@QAEPAXI@Z     0042c080 f i databaseSync.obj
 0001:0002b0c0       ??_GdatabaseSync@@UAEPAXI@Z 0042c0c0 f i databaseSync.obj
 0001:0002b0c0       ??_EdatabaseSync@@UAEPAXI@Z 0042c0c0 f i databaseSync.obj
 0001:0002b100       ?_Alloc_proxy@?$_Tree_alloc@$0A@U?$_Tree_base_types@U?$pair@$$CBIPAVdatabaseSync@@@std@@V?$allocator@U?$pair@$$CBIPAVdatabaseSync@@@std@@@2@@std@@@std@@QAEXXZ 0042c100 f i databaseSync.obj
 0001:0002b170       ?_Buyheadnode@?$_Tree_alloc@$0A@U?$_Tree_base_types@U?$pair@$$CBIPAVdatabaseSync@@@std@@V?$allocator@U?$pair@$$CBIPAVdatabaseSync@@@std@@@2@@std@@@std@@QAEPAU?$_Tree_node@U?$pair@$$CBIPAVdatabaseSync@@@std@@PAX@2@XZ 0042c170 f i databaseSync.obj
 0001:0002b330       ?_Buynode0@?$_Tree_buy@U?$pair@$$CBIPAVdatabaseSync@@@std@@V?$allocator@U?$pair@$$CBIPAVdatabaseSync@@@std@@@2@@std@@QAEPAU?$_Tree_node@U?$pair@$$CBIPAVdatabaseSync@@@std@@PAX@2@XZ 0042c330 f i databaseSync.obj
 0001:0002b4d0       ?_Buynode0@?$_Tree_buy@VdbEntry@@V?$allocator@VdbEntry@@@std@@@std@@QAEPAU?$_Tree_node@VdbEntry@@PAX@2@XZ 0042c4d0 f i databaseSync.obj
 0001:0002b670       ?_Color@?$_Tree_val@U?$_Tree_simple_types@U?$pair@$$CBIPAVdatabaseSync@@@std@@@std@@@std@@SAAADPAU?$_Tree_node@U?$pair@$$CBIPAVdatabaseSync@@@std@@PAX@2@@Z 0042c670 f i databaseSync.obj
 0001:0002b680       ?_Color@?$_Tree_val@U?$_Tree_simple_types@VdbEntry@@@std@@@std@@SAAADPAU?$_Tree_node@VdbEntry@@PAX@2@@Z 0042c680 f i databaseSync.obj
 0001:0002b690       ?_Destroy_if_not_nil@?$_Tree@V?$_Tmap_traits@IPAVdatabaseSync@@U?$less@I@std@@V?$allocator@U?$pair@$$CBIPAVdatabaseSync@@@std@@@3@$0A@@std@@@std@@IAEXPAU?$_Tree_node@U?$pair@$$CBIPAVdatabaseSync@@@std@@PAX@2@@Z 0042c690 f i databaseSync.obj
 0001:0002b700       ?_Destroy_if_not_nil@?$_Tree@V?$_Tset_traits@VdbEntry@@U?$less@VdbEntry@@@std@@V?$allocator@VdbEntry@@@3@$0A@@std@@@std@@IAEXU_Nil@2@@Z 0042c700 f i databaseSync.obj
 0001:0002b710       ?_Erase@?$_Tree@V?$_Tmap_traits@IPAVdatabaseSync@@U?$less@I@std@@V?$allocator@U?$pair@$$CBIPAVdatabaseSync@@@std@@@3@$0A@@std@@@std@@IAEXPAU?$_Tree_node@U?$pair@$$CBIPAVdatabaseSync@@@std@@PAX@2@@Z 0042c710 f i databaseSync.obj
 0001:0002b7e0       ?_Free_proxy@?$_Tree_alloc@$0A@U?$_Tree_base_types@U?$pair@$$CBIPAVdatabaseSync@@@std@@V?$allocator@U?$pair@$$CBIPAVdatabaseSync@@@std@@@2@@std@@@std@@QAEXXZ 0042c7e0 f i databaseSync.obj
 0001:0002b850       ?_Freeheadnode@?$_Tree_alloc@$0A@U?$_Tree_base_types@U?$pair@$$CBIPAVdatabaseSync@@@std@@V?$allocator@U?$pair@$$CBIPAVdatabaseSync@@@std@@@2@@std@@@std@@QAEXPAU?$_Tree_node@U?$pair@$$CBIPAVdatabaseSync@@@std@@PAX@2@@Z 0042c850 f i databaseSync.obj
 0001:0002b920       ?_Freenode0@?$_Tree_buy@U?$pair@$$CBIPAVdatabaseSync@@@std@@V?$allocator@U?$pair@$$CBIPAVdatabaseSync@@@std@@@2@@std@@QAEXPAU?$_Tree_node@U?$pair@$$CBIPAVdatabaseSync@@@std@@PAX@2@@Z 0042c920 f i databaseSync.obj
 0001:0002b9f0       ?_Freenode0@?$_Tree_buy@VdbEntry@@V?$allocator@VdbEntry@@@std@@@std@@QAEXPAU?$_Tree_node@VdbEntry@@PAX@2@@Z 0042c9f0 f i databaseSync.obj
 0001:0002bac0       ?_Getal@?$_Tree_alloc@$0A@U?$_Tree_base_types@U?$pair@$$CBIPAVdatabaseSync@@@std@@V?$allocator@U?$pair@$$CBIPAVdatabaseSync@@@std@@@2@@std@@@std@@QBE?AU?$_Wrap_alloc@V?$allocator@U?$_Tree_node@U?$pair@$$CBIPAVdatabaseSync@@@std@@PAX@std@@@std@@@2@XZ 0042cac0 f i databaseSync.obj
 0001:0002bae0       ?_Getal@?$_Tree_alloc@$0A@U?$_Tree_base_types@VdbEntry@@V?$allocator@VdbEntry@@@std@@@std@@@std@@QBE?AU?$_Wrap_alloc@V?$allocator@U?$_Tree_node@VdbEntry@@PAX@std@@@std@@@2@XZ 0042cae0 f i databaseSync.obj
 0001:0002bb00       ?_Getcomp@?$_Tree_comp@$0A@V?$_Tmap_traits@IPAVdatabaseSync@@U?$less@I@std@@V?$allocator@U?$pair@$$CBIPAVdatabaseSync@@@std@@@3@$0A@@std@@@std@@QBE?AU?$less@I@2@XZ 0042cb00 f i databaseSync.obj
 0001:0002bb20       ?_Getcomp@?$_Tree_comp@$0A@V?$_Tset_traits@VdbEntry@@U?$less@VdbEntry@@@std@@V?$allocator@VdbEntry@@@3@$0A@@std@@@std@@QBE?AU?$less@VdbEntry@@@2@XZ 0042cb20 f i databaseSync.obj
 0001:0002bb40       ?_Isnil@?$_Tree_val@U?$_Tree_simple_types@U?$pair@$$CBIPAVdatabaseSync@@@std@@@std@@@std@@SAAADPAU?$_Tree_node@U?$pair@$$CBIPAVdatabaseSync@@@std@@PAX@2@@Z 0042cb40 f i databaseSync.obj
 0001:0002bb50       ?_Isnil@?$_Tree_val@U?$_Tree_simple_types@VdbEntry@@@std@@@std@@SAAADPAU?$_Tree_node@VdbEntry@@PAX@2@@Z 0042cb50 f i databaseSync.obj
 0001:0002bb60       ?_Key@?$_Tree@V?$_Tmap_traits@IPAVdatabaseSync@@U?$less@I@std@@V?$allocator@U?$pair@$$CBIPAVdatabaseSync@@@std@@@3@$0A@@std@@@std@@IBEABIPAU?$_Tree_node@U?$pair@$$CBIPAVdatabaseSync@@@std@@PAX@2@@Z 0042cb60 f i databaseSync.obj
 0001:0002bb90       ?_Key@?$_Tree@V?$_Tset_traits@VdbEntry@@U?$less@VdbEntry@@@std@@V?$allocator@VdbEntry@@@3@$0A@@std@@@std@@IBEABVdbEntry@@PAU?$_Tree_node@VdbEntry@@PAX@2@@Z 0042cb90 f i databaseSync.obj
 0001:0002bbc0       ?_Kfn@?$_Tree@V?$_Tmap_traits@IPAVdatabaseSync@@U?$less@I@std@@V?$allocator@U?$pair@$$CBIPAVdatabaseSync@@@std@@@3@$0A@@std@@@std@@IBEABIABU?$pair@$$CBIPAVdatabaseSync@@@2@@Z 0042cbc0 f i databaseSync.obj
 0001:0002bbe0       ?_Kfn@?$_Tree@V?$_Tset_traits@VdbEntry@@U?$less@VdbEntry@@@std@@V?$allocator@VdbEntry@@@3@$0A@@std@@@std@@IBEABVdbEntry@@ABV3@@Z 0042cbe0 f i databaseSync.obj
 0001:0002bc00       ?_Kfn@?$_Tset_traits@VdbEntry@@U?$less@VdbEntry@@@std@@V?$allocator@VdbEntry@@@3@$0A@@std@@SAABVdbEntry@@ABV3@@Z 0042cc00 f i databaseSync.obj
 0001:0002bc10       ?_Lbound@?$_Tree@V?$_Tmap_traits@IPAVdatabaseSync@@U?$less@I@std@@V?$allocator@U?$pair@$$CBIPAVdatabaseSync@@@std@@@3@$0A@@std@@@std@@IAEPAU?$_Tree_node@U?$pair@$$CBIPAVdatabaseSync@@@std@@PAX@2@ABI@Z 0042cc10 f i databaseSync.obj
 0001:0002bce0       ?_Left@?$_Tree_val@U?$_Tree_simple_types@U?$pair@$$CBIPAVdatabaseSync@@@std@@@std@@@std@@SAAAPAU?$_Tree_node@U?$pair@$$CBIPAVdatabaseSync@@@std@@PAX@2@PAU32@@Z 0042cce0 f i databaseSync.obj
 0001:0002bcf0       ?_Left@?$_Tree_val@U?$_Tree_simple_types@VdbEntry@@@std@@@std@@SAAAPAU?$_Tree_node@VdbEntry@@PAX@2@PAU32@@Z 0042ccf0 f i databaseSync.obj
 0001:0002bd00       ?_Lmost@?$_Tree@V?$_Tmap_traits@IPAVdatabaseSync@@U?$less@I@std@@V?$allocator@U?$pair@$$CBIPAVdatabaseSync@@@std@@@3@$0A@@std@@@std@@IBEAAPAU?$_Tree_node@U?$pair@$$CBIPAVdatabaseSync@@@std@@PAX@2@XZ 0042cd00 f i databaseSync.obj
 0001:0002bd20       ?_Lmost@?$_Tree@V?$_Tset_traits@VdbEntry@@U?$less@VdbEntry@@@std@@V?$allocator@VdbEntry@@@3@$0A@@std@@@std@@IBEAAPAU?$_Tree_node@VdbEntry@@PAX@2@XZ 0042cd20 f i databaseSync.obj
 0001:0002bd40       ?_Lrotate@?$_Tree@V?$_Tmap_traits@IPAVdatabaseSync@@U?$less@I@std@@V?$allocator@U?$pair@$$CBIPAVdatabaseSync@@@std@@@3@$0A@@std@@@std@@IAEXPAU?$_Tree_node@U?$pair@$$CBIPAVdatabaseSync@@@std@@PAX@2@@Z 0042cd40 f i databaseSync.obj
 0001:0002bec0       ?_Lrotate@?$_Tree@V?$_Tset_traits@VdbEntry@@U?$less@VdbEntry@@@std@@V?$allocator@VdbEntry@@@3@$0A@@std@@@std@@IAEXPAU?$_Tree_node@VdbEntry@@PAX@2@@Z 0042cec0 f i databaseSync.obj
 0001:0002c040       ?_Max@?$_Tree_val@U?$_Tree_simple_types@U?$pair@$$CBIPAVdatabaseSync@@@std@@@std@@@std@@SAPAU?$_Tree_node@U?$pair@$$CBIPAVdatabaseSync@@@std@@PAX@2@PAU32@@Z 0042d040 f i databaseSync.obj
 0001:0002c090       ?_Max@?$_Tree_val@U?$_Tree_simple_types@VdbEntry@@@std@@@std@@SAPAU?$_Tree_node@VdbEntry@@PAX@2@PAU32@@Z 0042d090 f i databaseSync.obj
 0001:0002c0e0       ?_Min@?$_Tree_val@U?$_Tree_simple_types@U?$pair@$$CBIPAVdatabaseSync@@@std@@@std@@@std@@SAPAU?$_Tree_node@U?$pair@$$CBIPAVdatabaseSync@@@std@@PAX@2@PAU32@@Z 0042d0e0 f i databaseSync.obj
 0001:0002c130       ?_Mynode@?$_Tree_unchecked_const_iterator@V?$_Tree_val@U?$_Tree_simple_types@U?$pair@$$CBIPAVdatabaseSync@@@std@@@std@@@std@@U_Iterator_base12@2@@std@@QBEPAU?$_Tree_node@U?$pair@$$CBIPAVdatabaseSync@@@std@@PAX@2@XZ 0042d130 f i databaseSync.obj
 0001:0002c150       ?_Mynode@?$_Tree_unchecked_const_iterator@V?$_Tree_val@U?$_Tree_simple_types@VdbEntry@@@std@@@std@@U_Iterator_base12@2@@std@@QBEPAU?$_Tree_node@VdbEntry@@PAX@2@XZ 0042d150 f i databaseSync.obj
 0001:0002c170       ?_Myval@?$_Tree_val@U?$_Tree_simple_types@U?$pair@$$CBIPAVdatabaseSync@@@std@@@std@@@std@@SAAAU?$pair@$$CBIPAVdatabaseSync@@@2@PAU?$_Tree_node@U?$pair@$$CBIPAVdatabaseSync@@@std@@PAX@2@@Z 0042d170 f i databaseSync.obj
 0001:0002c180       ?_Myval@?$_Tree_val@U?$_Tree_simple_types@VdbEntry@@@std@@@std@@SAAAVdbEntry@@PAU?$_Tree_node@VdbEntry@@PAX@2@@Z 0042d180 f i databaseSync.obj
 0001:0002c190       ?_Orphan_ptr@?$_Tree@V?$_Tmap_traits@IPAVdatabaseSync@@U?$less@I@std@@V?$allocator@U?$pair@$$CBIPAVdatabaseSync@@@std@@@3@$0A@@std@@@std@@IBEXAAV12@PAU?$_Tree_node@U?$pair@$$CBIPAVdatabaseSync@@@std@@PAX@2@@Z 0042d190 f i databaseSync.obj
 0001:0002c290       ?_Parent@?$_Tree_val@U?$_Tree_simple_types@U?$pair@$$CBIPAVdatabaseSync@@@std@@@std@@@std@@SAAAPAU?$_Tree_node@U?$pair@$$CBIPAVdatabaseSync@@@std@@PAX@2@PAU32@@Z 0042d290 f i databaseSync.obj
 0001:0002c2a0       ?_Parent@?$_Tree_val@U?$_Tree_simple_types@VdbEntry@@@std@@@std@@SAAAPAU?$_Tree_node@VdbEntry@@PAX@2@PAU32@@Z 0042d2a0 f i databaseSync.obj
 0001:0002c2b0       ?_Right@?$_Tree_val@U?$_Tree_simple_types@U?$pair@$$CBIPAVdatabaseSync@@@std@@@std@@@std@@SAAAPAU?$_Tree_node@U?$pair@$$CBIPAVdatabaseSync@@@std@@PAX@2@PAU32@@Z 0042d2b0 f i databaseSync.obj
 0001:0002c2c0       ?_Right@?$_Tree_val@U?$_Tree_simple_types@VdbEntry@@@std@@@std@@SAAAPAU?$_Tree_node@VdbEntry@@PAX@2@PAU32@@Z 0042d2c0 f i databaseSync.obj
 0001:0002c2d0       ?_Rmost@?$_Tree@V?$_Tmap_traits@IPAVdatabaseSync@@U?$less@I@std@@V?$allocator@U?$pair@$$CBIPAVdatabaseSync@@@std@@@3@$0A@@std@@@std@@IBEAAPAU?$_Tree_node@U?$pair@$$CBIPAVdatabaseSync@@@std@@PAX@2@XZ 0042d2d0 f i databaseSync.obj
 0001:0002c2f0       ?_Rmost@?$_Tree@V?$_Tset_traits@VdbEntry@@U?$less@VdbEntry@@@std@@V?$allocator@VdbEntry@@@3@$0A@@std@@@std@@IBEAAPAU?$_Tree_node@VdbEntry@@PAX@2@XZ 0042d2f0 f i databaseSync.obj
 0001:0002c310       ?_Root@?$_Tree@V?$_Tmap_traits@IPAVdatabaseSync@@U?$less@I@std@@V?$allocator@U?$pair@$$CBIPAVdatabaseSync@@@std@@@3@$0A@@std@@@std@@IBEAAPAU?$_Tree_node@U?$pair@$$CBIPAVdatabaseSync@@@std@@PAX@2@XZ 0042d310 f i databaseSync.obj
 0001:0002c330       ?_Root@?$_Tree@V?$_Tset_traits@VdbEntry@@U?$less@VdbEntry@@@std@@V?$allocator@VdbEntry@@@3@$0A@@std@@@std@@IBEAAPAU?$_Tree_node@VdbEntry@@PAX@2@XZ 0042d330 f i databaseSync.obj
 0001:0002c350       ?_Rrotate@?$_Tree@V?$_Tmap_traits@IPAVdatabaseSync@@U?$less@I@std@@V?$allocator@U?$pair@$$CBIPAVdatabaseSync@@@std@@@3@$0A@@std@@@std@@IAEXPAU?$_Tree_node@U?$pair@$$CBIPAVdatabaseSync@@@std@@PAX@2@@Z 0042d350 f i databaseSync.obj
 0001:0002c4d0       ?_Rrotate@?$_Tree@V?$_Tset_traits@VdbEntry@@U?$less@VdbEntry@@@std@@V?$allocator@VdbEntry@@@3@$0A@@std@@@std@@IAEXPAU?$_Tree_node@VdbEntry@@PAX@2@@Z 0042d4d0 f i databaseSync.obj
 0001:0002c650       ?_Tidy@?$_Tree@V?$_Tmap_traits@IPAVdatabaseSync@@U?$less@I@std@@V?$allocator@U?$pair@$$CBIPAVdatabaseSync@@@std@@@3@$0A@@std@@@std@@IAEXXZ 0042d650 f i databaseSync.obj
 0001:0002c760       ?allocate@?$_Wrap_alloc@V?$allocator@U?$_Tree_node@U?$pair@$$CBIPAVdatabaseSync@@@std@@PAX@std@@@std@@@std@@QAEPAU?$_Tree_node@U?$pair@$$CBIPAVdatabaseSync@@@std@@PAX@2@I@Z 0042d760 f i databaseSync.obj
 0001:0002c780       ?allocate@?$_Wrap_alloc@V?$allocator@U?$_Tree_node@VdbEntry@@PAX@std@@@std@@@std@@QAEPAU?$_Tree_node@VdbEntry@@PAX@2@I@Z 0042d780 f i databaseSync.obj
 0001:0002c7a0       ?allocate@?$allocator@U?$_Tree_node@U?$pair@$$CBIPAVdatabaseSync@@@std@@PAX@std@@@std@@QAEPAU?$_Tree_node@U?$pair@$$CBIPAVdatabaseSync@@@std@@PAX@2@I@Z 0042d7a0 f i databaseSync.obj
 0001:0002c7d0       ?allocate@?$allocator@U?$_Tree_node@VdbEntry@@PAX@std@@@std@@QAEPAU?$_Tree_node@VdbEntry@@PAX@2@I@Z 0042d7d0 f i databaseSync.obj
 0001:0002c800       ?begin@?$_Tree@V?$_Tmap_traits@IPAVdatabaseSync@@U?$less@I@std@@V?$allocator@U?$pair@$$CBIPAVdatabaseSync@@@std@@@3@$0A@@std@@@std@@QAE?AV?$_Tree_iterator@V?$_Tree_val@U?$_Tree_simple_types@U?$pair@$$CBIPAVdatabaseSync@@@std@@@std@@@std@@@2@XZ 0042d800 f i databaseSync.obj
 0001:0002c830       ?begin@?$_Tree@V?$_Tset_traits@VdbEntry@@U?$less@VdbEntry@@@std@@V?$allocator@VdbEntry@@@3@$0A@@std@@@std@@QAE?AV?$_Tree_const_iterator@V?$_Tree_val@U?$_Tree_simple_types@VdbEntry@@@std@@@std@@@2@XZ 0042d830 f i databaseSync.obj
 0001:0002c860       ?clear@?$_Tree@V?$_Tmap_traits@IPAVdatabaseSync@@U?$less@I@std@@V?$allocator@U?$pair@$$CBIPAVdatabaseSync@@@std@@@3@$0A@@std@@@std@@QAEXXZ 0042d860 f i databaseSync.obj
 0001:0002c8e0       ?count@?$QList@VQString@@@@QBEHXZ 0042d8e0 f i databaseSync.obj
 0001:0002c900       ?dealloc@?$QList@VQString@@@@AAEXPAUData@QListData@@@Z 0042d900 f i databaseSync.obj
 0001:0002c950       ?deallocate@?$_Wrap_alloc@V?$allocator@U?$_Tree_node@U?$pair@$$CBIPAVdatabaseSync@@@std@@PAX@std@@@std@@@std@@QAEXPAU?$_Tree_node@U?$pair@$$CBIPAVdatabaseSync@@@std@@PAX@2@I@Z 0042d950 f i databaseSync.obj
 0001:0002c980       ?deallocate@?$_Wrap_alloc@V?$allocator@U?$_Tree_node@VdbEntry@@PAX@std@@@std@@@std@@QAEXPAU?$_Tree_node@VdbEntry@@PAX@2@I@Z 0042d980 f i databaseSync.obj
 0001:0002c9b0       ?deallocate@?$allocator@U?$_Tree_node@U?$pair@$$CBIPAVdatabaseSync@@@std@@PAX@std@@@std@@QAEXPAU?$_Tree_node@U?$pair@$$CBIPAVdatabaseSync@@@std@@PAX@2@I@Z 0042d9b0 f i databaseSync.obj
 0001:0002c9d0       ?deallocate@?$allocator@U?$_Tree_node@VdbEntry@@PAX@std@@@std@@QAEXPAU?$_Tree_node@VdbEntry@@PAX@2@I@Z 0042d9d0 f i databaseSync.obj
 0001:0002c9f0       ?deref@?$QBasicAtomicInteger@H@@QAE_NXZ 0042d9f0 f i databaseSync.obj
 0001:0002ca10       ?deref@RefCount@QtPrivate@@QAE_NXZ 0042da10 f i databaseSync.obj
 0001:0002ca60       ?detach@?$QList@VQString@@@@QAEXXZ 0042da60 f i databaseSync.obj
 0001:0002ca90       ?detach_helper@?$QList@VQString@@@@AAEXH@Z 0042da90 f i databaseSync.obj
 0001:0002cba0       ?detach_helper@?$QList@VQString@@@@AAEXXZ 0042dba0 f i databaseSync.obj
 0001:0002cbd0       ?end@?$_Tree@V?$_Tmap_traits@IPAVdatabaseSync@@U?$less@I@std@@V?$allocator@U?$pair@$$CBIPAVdatabaseSync@@@std@@@3@$0A@@std@@@std@@QAE?AV?$_Tree_iterator@V?$_Tree_val@U?$_Tree_simple_types@U?$pair@$$CBIPAVdatabaseSync@@@std@@@std@@@std@@@2@XZ 0042dbd0 f i databaseSync.obj
 0001:0002cc00       ?erase@?$_Tree@V?$_Tmap_traits@IPAVdatabaseSync@@U?$less@I@std@@V?$allocator@U?$pair@$$CBIPAVdatabaseSync@@@std@@@3@$0A@@std@@@std@@QAE?AV?$_Tree_iterator@V?$_Tree_val@U?$_Tree_simple_types@U?$pair@$$CBIPAVdatabaseSync@@@std@@@std@@@std@@@2@V?$_Tree_const_iterator@V?$_Tree_val@U?$_Tree_simple_types@U?$pair@$$CBIPAVdatabaseSync@@@std@@@std@@@std@@@2@0@Z 0042dc00 f i databaseSync.obj
 0001:0002ce60       ?erase@?$_Tree@V?$_Tmap_traits@IPAVdatabaseSync@@U?$less@I@std@@V?$allocator@U?$pair@$$CBIPAVdatabaseSync@@@std@@@3@$0A@@std@@@std@@QAE?AV?$_Tree_iterator@V?$_Tree_val@U?$_Tree_simple_types@U?$pair@$$CBIPAVdatabaseSync@@@std@@@std@@@std@@@2@V?$_Tree_const_iterator@V?$_Tree_val@U?$_Tree_simple_types@U?$pair@$$CBIPAVdatabaseSync@@@std@@@std@@@std@@@2@@Z 0042de60 f i databaseSync.obj
 0001:0002d880       ?find@?$_Tree@V?$_Tmap_traits@IPAVdatabaseSync@@U?$less@I@std@@V?$allocator@U?$pair@$$CBIPAVdatabaseSync@@@std@@@3@$0A@@std@@@std@@QAE?AV?$_Tree_iterator@V?$_Tree_val@U?$_Tree_simple_types@U?$pair@$$CBIPAVdatabaseSync@@@std@@@std@@@std@@@2@ABI@Z 0042e880 f i databaseSync.obj
 0001:0002da90       ?insert@?$_Tree@V?$_Tset_traits@VdbEntry@@U?$less@VdbEntry@@@std@@V?$allocator@VdbEntry@@@3@$0A@@std@@@std@@QAE?AU?$pair@V?$_Tree_const_iterator@V?$_Tree_val@U?$_Tree_simple_types@VdbEntry@@@std@@@std@@@std@@_N@2@$$QAVdbEntry@@@Z 0042ea90 f i databaseSync.obj
 0001:0002daf0       ?insert@?$set@VdbEntry@@U?$less@VdbEntry@@@std@@V?$allocator@VdbEntry@@@3@@std@@QAE?AU?$pair@V?$_Tree_const_iterator@V?$_Tree_val@U?$_Tree_simple_types@VdbEntry@@@std@@@std@@@std@@_N@2@$$QAVdbEntry@@@Z 0042eaf0 f i databaseSync.obj
 0001:0002db40       ?isShared@RefCount@QtPrivate@@QBE_NXZ 0042eb40 f i databaseSync.obj
 0001:0002db90       ?load@?$QBasicAtomicInteger@H@@QBEHXZ 0042eb90 f i databaseSync.obj
 0001:0002dbb0       ?lower_bound@?$_Tree@V?$_Tmap_traits@IPAVdatabaseSync@@U?$less@I@std@@V?$allocator@U?$pair@$$CBIPAVdatabaseSync@@@std@@@3@$0A@@std@@@std@@QAE?AV?$_Tree_iterator@V?$_Tree_val@U?$_Tree_simple_types@U?$pair@$$CBIPAVdatabaseSync@@@std@@@std@@@std@@@2@ABI@Z 0042ebb0 f i databaseSync.obj
 0001:0002dc00       ?max_size@?$_Tree@V?$_Tmap_traits@IPAVdatabaseSync@@U?$less@I@std@@V?$allocator@U?$pair@$$CBIPAVdatabaseSync@@@std@@@3@$0A@@std@@@std@@QBEIXZ 0042ec00 f i databaseSync.obj
 0001:0002dc30       ?max_size@?$_Tree@V?$_Tset_traits@VdbEntry@@U?$less@VdbEntry@@@std@@V?$allocator@VdbEntry@@@3@$0A@@std@@@std@@QBEIXZ 0042ec30 f i databaseSync.obj
 0001:0002dc60       ?max_size@?$_Wrap_alloc@V?$allocator@U?$_Tree_node@U?$pair@$$CBIPAVdatabaseSync@@@std@@PAX@std@@@std@@@std@@QBEIXZ 0042ec60 f i databaseSync.obj
 0001:0002dc80       ?max_size@?$_Wrap_alloc@V?$allocator@U?$_Tree_node@VdbEntry@@PAX@std@@@std@@@std@@QBEIXZ 0042ec80 f i databaseSync.obj
 0001:0002dca0       ?max_size@?$allocator@U?$_Tree_node@U?$pair@$$CBIPAVdatabaseSync@@@std@@PAX@std@@@std@@QBEIXZ 0042eca0 f i databaseSync.obj
 0001:0002dcc0       ?max_size@?$allocator@U?$_Tree_node@VdbEntry@@PAX@std@@@std@@QBEIXZ 0042ecc0 f i databaseSync.obj
 0001:0002dce0       ?max_size@?$allocator_traits@V?$allocator@U?$_Tree_node@U?$pair@$$CBIPAVdatabaseSync@@@std@@PAX@std@@@std@@@std@@SAIABV?$allocator@U?$_Tree_node@U?$pair@$$CBIPAVdatabaseSync@@@std@@PAX@std@@@2@@Z 0042ece0 f i databaseSync.obj
 0001:0002dcf0       ?max_size@?$allocator_traits@V?$allocator@U?$_Tree_node@VdbEntry@@PAX@std@@@std@@@std@@SAIABV?$allocator@U?$_Tree_node@VdbEntry@@PAX@std@@@2@@Z 0042ecf0 f i databaseSync.obj
 0001:0002dd00       ?node_copy@?$QList@VQString@@@@AAEXPAUNode@1@00@Z 0042ed00 f i databaseSync.obj
 0001:0002df80       ?node_destruct@?$QList@VQString@@@@AAEXPAUNode@1@0@Z 0042ef80 f i databaseSync.obj
 0001:0002e020       ?pointer_to@?$pointer_traits@PAU?$pair@$$CBIPAVdatabaseSync@@@std@@@std@@SAPAU?$pair@$$CBIPAVdatabaseSync@@@2@AAU32@@Z 0042f020 f i databaseSync.obj
 0001:0002e040       ?pointer_to@?$pointer_traits@PBU?$pair@$$CBIPAVdatabaseSync@@@std@@@std@@SAPBU?$pair@$$CBIPAVdatabaseSync@@@2@ABU32@@Z 0042f040 f i databaseSync.obj
 0001:0002e060       ?qt_noop@@YAXXZ            0042f060 f i databaseSync.obj
 0001:0002e070       ?t@Node@?$QList@VQString@@@@QAEAAVQString@@XZ 0042f070 f i databaseSync.obj
 0001:0002e0a0       ??0decodeBNCSString@@QAE@PBDD@Z 0042f0a0 f   decodeBNCSString.obj
 0001:0002e340       ??1decodeBNCSString@@UAE@XZ 0042f340 f   decodeBNCSString.obj
 0001:0002e430       ??_GdecodeBNCSString@@UAEPAXI@Z 0042f430 f i decodeBNCSString.obj
 0001:0002e430       ??_EdecodeBNCSString@@UAEPAXI@Z 0042f430 f i decodeBNCSString.obj
 0001:0002e470       ??0fabianServer@@QAE@PAVQObject@@ABVQHostAddress@@H_N2PAVIfabian_clientCallback@@PAV?$set@VQString@@U?$less@VQString@@@std@@V?$allocator@VQString@@@3@@std@@4@Z 0042f470 f   fabianServer.obj
 0001:0002e7b0       ??1fabianServer@@UAE@XZ    0042f7b0 f   fabianServer.obj
 0001:0002e8a0       ?ok@fabianServer@@QAE_NXZ  0042f8a0 f   fabianServer.obj
 0001:0002e8c0       ?deleteClientsByName@fabianServer@@QAEHABVQString@@@Z 0042f8c0 f   fabianServer.obj
 0001:0002ea30       ?incomingConnection@fabianServer@@MAEXH@Z 0042fa30 f   fabianServer.obj
 0001:0002ef00       ?socketDisconnected@fabianServer@@AAEXXZ 0042ff00 f   fabianServer.obj
 0001:0002f220       ??$_Allocate@U?$_List_node@PAVfabian_client@@PAX@std@@@std@@YAPAU?$_List_node@PAVfabian_client@@PAX@0@IPAU10@@Z 00430220 f i fabianServer.obj
 0001:0002f270       ??$_Buynode@ABQAVfabian_client@@@?$_List_buy@PAVfabian_client@@V?$allocator@PAVfabian_client@@@std@@@std@@QAEPAU?$_List_node@PAVfabian_client@@PAX@1@PAU21@0ABQAVfabian_client@@@Z 00430270 f i fabianServer.obj
 0001:0002f390       ??$_Insert@ABQAVfabian_client@@@?$list@PAVfabian_client@@V?$allocator@PAVfabian_client@@@std@@@std@@QAEXV?$_List_unchecked_const_iterator@V?$_List_val@U?$_List_simple_types@PAVfabian_client@@@std@@@std@@U_Iterator_base0@2@@1@ABQAVfabian_client@@@Z 00430390 f i fabianServer.obj
 0001:0002f430       ??$addressof@PAU?$_List_node@PAVfabian_client@@PAX@std@@@std@@YAPAPAU?$_List_node@PAVfabian_client@@PAX@0@AAPAU10@@Z 00430430 f i fabianServer.obj
 0001:0002f440       ??$addressof@PAVfabian_client@@@std@@YAPAPAVfabian_client@@AAPAV1@@Z 00430440 f i fabianServer.obj
 0001:0002f450       ??$addressof@QAVfabian_client@@@std@@YAPBQAVfabian_client@@ABQAV1@@Z 00430450 f i fabianServer.obj
 0001:0002f460       ??$construct@PAU?$_List_node@PAVfabian_client@@PAX@std@@AAPAU12@@?$_Wrap_alloc@V?$allocator@U?$_List_node@PAVfabian_client@@PAX@std@@@std@@@std@@QAEXPAPAU?$_List_node@PAVfabian_client@@PAX@1@AAPAU21@@Z 00430460 f i fabianServer.obj
 0001:0002f4a0       ??$construct@PAU?$_List_node@PAVfabian_client@@PAX@std@@AAPAU12@@?$allocator@U?$_List_node@PAVfabian_client@@PAX@std@@@std@@QAEXPAPAU?$_List_node@PAVfabian_client@@PAX@1@AAPAU21@@Z 004304a0 f i fabianServer.obj
 0001:0002f550       ??$construct@PAU?$_List_node@PAVfabian_client@@PAX@std@@AAPAU12@@?$allocator_traits@V?$allocator@U?$_List_node@PAVfabian_client@@PAX@std@@@std@@@std@@SAXAAV?$allocator@U?$_List_node@PAVfabian_client@@PAX@std@@@1@PAPAU?$_List_node@PAVfabian_client@@PAX@1@AAPAU31@@Z 00430550 f i fabianServer.obj
 0001:0002f580       ??$construct@PAVfabian_client@@ABQAV1@@?$_Wrap_alloc@V?$allocator@U?$_List_node@PAVfabian_client@@PAX@std@@@std@@@std@@QAEXPAPAVfabian_client@@ABQAV2@@Z 00430580 f i fabianServer.obj
 0001:0002f5c0       ??$construct@PAVfabian_client@@ABQAV1@@?$allocator@U?$_List_node@PAVfabian_client@@PAX@std@@@std@@QAEXPAPAVfabian_client@@ABQAV2@@Z 004305c0 f i fabianServer.obj
 0001:0002f670       ??$construct@PAVfabian_client@@ABQAV1@@?$allocator_traits@V?$allocator@U?$_List_node@PAVfabian_client@@PAX@std@@@std@@@std@@SAXAAV?$allocator@U?$_List_node@PAVfabian_client@@PAX@std@@@1@PAPAVfabian_client@@ABQAV3@@Z 00430670 f i fabianServer.obj
 0001:0002f6a0       ??$destroy@PAU?$_List_node@PAVfabian_client@@PAX@std@@@?$_Wrap_alloc@V?$allocator@U?$_List_node@PAVfabian_client@@PAX@std@@@std@@@std@@QAEXPAPAU?$_List_node@PAVfabian_client@@PAX@1@@Z 004306a0 f i fabianServer.obj
 0001:0002f6d0       ??$destroy@PAU?$_List_node@PAVfabian_client@@PAX@std@@@?$allocator@U?$_List_node@PAVfabian_client@@PAX@std@@@std@@QAEXPAPAU?$_List_node@PAVfabian_client@@PAX@1@@Z 004306d0 f i fabianServer.obj
 0001:0002f6e0       ??$destroy@PAU?$_List_node@PAVfabian_client@@PAX@std@@@?$allocator_traits@V?$allocator@U?$_List_node@PAVfabian_client@@PAX@std@@@std@@@std@@SAXAAV?$allocator@U?$_List_node@PAVfabian_client@@PAX@std@@@1@PAPAU?$_List_node@PAVfabian_client@@PAX@1@@Z 004306e0 f i fabianServer.obj
 0001:0002f700       ??$destroy@PAVfabian_client@@@?$_Wrap_alloc@V?$allocator@U?$_List_node@PAVfabian_client@@PAX@std@@@std@@@std@@QAEXPAPAVfabian_client@@@Z 00430700 f i fabianServer.obj
 0001:0002f730       ??$destroy@PAVfabian_client@@@?$allocator@U?$_List_node@PAVfabian_client@@PAX@std@@@std@@QAEXPAPAVfabian_client@@@Z 00430730 f i fabianServer.obj
 0001:0002f740       ??$destroy@PAVfabian_client@@@?$allocator_traits@V?$allocator@U?$_List_node@PAVfabian_client@@PAX@std@@@std@@@std@@SAXAAV?$allocator@U?$_List_node@PAVfabian_client@@PAX@std@@@1@PAPAVfabian_client@@@Z 00430740 f i fabianServer.obj
 0001:0002f760       ??$forward@AAPAU?$_List_node@PAVfabian_client@@PAX@std@@@std@@YAAAPAU?$_List_node@PAVfabian_client@@PAX@0@AAPAU10@@Z 00430760 f i fabianServer.obj
 0001:0002f770       ??$forward@ABQAVfabian_client@@@std@@YAABQAVfabian_client@@ABQAV1@@Z 00430770 f i fabianServer.obj
 0001:0002f780       ??0?$_Iterator012@Ubidirectional_iterator_tag@std@@PAVfabian_client@@HPBQAV3@ABQAV3@U_Iterator_base12@2@@std@@QAE@ABU01@@Z 00430780 f i fabianServer.obj
 0001:0002f7b0       ??0?$_Iterator012@Ubidirectional_iterator_tag@std@@PAVfabian_client@@HPBQAV3@ABQAV3@U_Iterator_base12@2@@std@@QAE@XZ 004307b0 f i fabianServer.obj
 0001:0002f7d0       ??0?$_Iterator012@Ubidirectional_iterator_tag@std@@VQString@@HPBV3@ABV3@U_Iterator_base12@2@@std@@QAE@XZ 004307d0 f i fabianServer.obj
 0001:0002f7f0       ??0?$_List_alloc@$0A@U?$_List_base_types@PAVfabian_client@@V?$allocator@PAVfabian_client@@@std@@@std@@@std@@QAE@ABV?$allocator@PAVfabian_client@@@1@@Z 004307f0 f i fabianServer.obj
 0001:0002f8c0       ??0?$_List_buy@PAVfabian_client@@V?$allocator@PAVfabian_client@@@std@@@std@@QAE@ABV?$allocator@PAVfabian_client@@@1@@Z 004308c0 f i fabianServer.obj
 0001:0002f8f0       ??0?$_List_const_iterator@V?$_List_val@U?$_List_simple_types@PAVfabian_client@@@std@@@std@@@std@@QAE@ABV01@@Z 004308f0 f i fabianServer.obj
 0001:0002f920       ??0?$_List_const_iterator@V?$_List_val@U?$_List_simple_types@PAVfabian_client@@@std@@@std@@@std@@QAE@PAU?$_List_node@PAVfabian_client@@PAX@1@PBV?$_List_val@U?$_List_simple_types@PAVfabian_client@@@std@@@1@@Z 00430920 f i fabianServer.obj
 0001:0002f950       ??0?$_List_iterator@V?$_List_val@U?$_List_simple_types@PAVfabian_client@@@std@@@std@@@std@@QAE@ABV01@@Z 00430950 f i fabianServer.obj
 0001:0002f980       ??0?$_List_iterator@V?$_List_val@U?$_List_simple_types@PAVfabian_client@@@std@@@std@@@std@@QAE@PAU?$_List_node@PAVfabian_client@@PAX@1@PBV?$_List_val@U?$_List_simple_types@PAVfabian_client@@@std@@@1@@Z 00430980 f i fabianServer.obj
 0001:0002f9b0       ??0?$_List_unchecked_const_iterator@V?$_List_val@U?$_List_simple_types@PAVfabian_client@@@std@@@std@@U_Iterator_base0@2@@std@@QAE@PAU?$_List_node@PAVfabian_client@@PAX@1@PBV?$_List_val@U?$_List_simple_types@PAVfabian_client@@@std@@@1@@Z 004309b0 f i fabianServer.obj
 0001:0002f9e0       ??0?$_List_unchecked_const_iterator@V?$_List_val@U?$_List_simple_types@PAVfabian_client@@@std@@@std@@U_Iterator_base12@2@@std@@QAE@ABV01@@Z 004309e0 f i fabianServer.obj
 0001:0002fa20       ??0?$_List_unchecked_const_iterator@V?$_List_val@U?$_List_simple_types@PAVfabian_client@@@std@@@std@@U_Iterator_base12@2@@std@@QAE@PAU?$_List_node@PAVfabian_client@@PAX@1@PBV?$_List_val@U?$_List_simple_types@PAVfabian_client@@@std@@@1@@Z 00430a20 f i fabianServer.obj
 0001:0002faa0       ??0?$_List_unchecked_iterator@V?$_List_val@U?$_List_simple_types@PAVfabian_client@@@std@@@std@@@std@@QAE@PAU?$_List_node@PAVfabian_client@@PAX@1@PBV?$_List_val@U?$_List_simple_types@PAVfabian_client@@@std@@@1@@Z 00430aa0 f i fabianServer.obj
 0001:0002fad0       ??0?$_List_val@U?$_List_simple_types@PAVfabian_client@@@std@@@std@@QAE@XZ 00430ad0 f i fabianServer.obj
 0001:0002fb10       ??0?$_Tree_const_iterator@V?$_Tree_val@U?$_Tree_simple_types@VQString@@@std@@@std@@@std@@QAE@PAU?$_Tree_node@VQString@@PAX@1@PBV?$_Tree_val@U?$_Tree_simple_types@VQString@@@std@@@1@@Z 00430b10 f i fabianServer.obj
 0001:0002fb40       ??0?$_Tree_unchecked_const_iterator@V?$_Tree_val@U?$_Tree_simple_types@VQString@@@std@@@std@@U_Iterator_base12@2@@std@@QAE@PAU?$_Tree_node@VQString@@PAX@1@PBV?$_Tree_val@U?$_Tree_simple_types@VQString@@@std@@@1@@Z 00430b40 f i fabianServer.obj
 0001:0002fbc0       ??0?$_Wrap_alloc@V?$allocator@U?$_List_node@PAVfabian_client@@PAX@std@@@std@@@std@@QAE@XZ 00430bc0 f i fabianServer.obj
 0001:0002fbe0       ??0?$allocator@PAVfabian_client@@@std@@QAE@XZ 00430be0 f i fabianServer.obj
 0001:0002fc00       ??0?$allocator@U?$_List_node@PAVfabian_client@@PAX@std@@@std@@QAE@XZ 00430c00 f i fabianServer.obj
 0001:0002fc20       ??0?$list@PAVfabian_client@@V?$allocator@PAVfabian_client@@@std@@@std@@QAE@XZ 00430c20 f i fabianServer.obj
 0001:0002fc50       ??1?$QPair@VQHostAddress@@H@@QAE@XZ 00430c50 f i fabianServer.obj
 0001:0002fc70       ??1?$_Iterator012@Ubidirectional_iterator_tag@std@@PAVfabian_client@@HPBQAV3@ABQAV3@U_Iterator_base12@2@@std@@QAE@XZ 00430c70 f i fabianServer.obj
 0001:0002fc90       ??1?$_Iterator012@Ubidirectional_iterator_tag@std@@VQString@@HPBV3@ABV3@U_Iterator_base12@2@@std@@QAE@XZ 00430c90 f i fabianServer.obj
 0001:0002fcb0       ??1?$_List_alloc@$0A@U?$_List_base_types@PAVfabian_client@@V?$allocator@PAVfabian_client@@@std@@@std@@@std@@QAE@XZ 00430cb0 f i fabianServer.obj
 0001:0002fcf0       ??1?$_List_buy@PAVfabian_client@@V?$allocator@PAVfabian_client@@@std@@@std@@QAE@XZ 00430cf0 f i fabianServer.obj
 0001:0002fd10       ??1?$_List_const_iterator@V?$_List_val@U?$_List_simple_types@PAVfabian_client@@@std@@@std@@@std@@QAE@XZ 00430d10 f i fabianServer.obj
 0001:0002fd30       ??1?$_List_iterator@V?$_List_val@U?$_List_simple_types@PAVfabian_client@@@std@@@std@@@std@@QAE@XZ 00430d30 f i fabianServer.obj
 0001:0002fd50       ??1?$_List_unchecked_const_iterator@V?$_List_val@U?$_List_simple_types@PAVfabian_client@@@std@@@std@@U_Iterator_base12@2@@std@@QAE@XZ 00430d50 f i fabianServer.obj
 0001:0002fd70       ??1?$_List_val@U?$_List_simple_types@PAVfabian_client@@@std@@@std@@QAE@XZ 00430d70 f i fabianServer.obj
 0001:0002fd90       ??1?$_Tree_const_iterator@V?$_Tree_val@U?$_Tree_simple_types@VQString@@@std@@@std@@@std@@QAE@XZ 00430d90 f i fabianServer.obj
 0001:0002fdb0       ??1?$_Tree_unchecked_const_iterator@V?$_Tree_val@U?$_Tree_simple_types@VQString@@@std@@@std@@U_Iterator_base12@2@@std@@QAE@XZ 00430db0 f i fabianServer.obj
 0001:0002fdd0       ??1?$list@PAVfabian_client@@V?$allocator@PAVfabian_client@@@std@@@std@@QAE@XZ 00430dd0 f i fabianServer.obj
 0001:0002fe00       ??4?$_Iterator012@Ubidirectional_iterator_tag@std@@PAVfabian_client@@HPBQAV3@ABQAV3@U_Iterator_base12@2@@std@@QAEAAU01@ABU01@@Z 00430e00 f i fabianServer.obj
 0001:0002fe30       ??4?$_List_const_iterator@V?$_List_val@U?$_List_simple_types@PAVfabian_client@@@std@@@std@@@std@@QAEAAV01@ABV01@@Z 00430e30 f i fabianServer.obj
 0001:0002fe60       ??4?$_List_iterator@V?$_List_val@U?$_List_simple_types@PAVfabian_client@@@std@@@std@@@std@@QAEAAV01@ABV01@@Z 00430e60 f i fabianServer.obj
 0001:0002fe90       ??4?$_List_unchecked_const_iterator@V?$_List_val@U?$_List_simple_types@PAVfabian_client@@@std@@@std@@U_Iterator_base12@2@@std@@QAEAAV01@ABV01@@Z 00430e90 f i fabianServer.obj
 0001:0002fed0       ??8?$_List_const_iterator@V?$_List_val@U?$_List_simple_types@PAVfabian_client@@@std@@@std@@@std@@QBE_NABV01@@Z 00430ed0 f i fabianServer.obj
 0001:0002ffc0       ??8?$_Tree_const_iterator@V?$_Tree_val@U?$_Tree_simple_types@VQString@@@std@@@std@@@std@@QBE_NABV01@@Z 00430fc0 f i fabianServer.obj
 0001:000300b0       ??9?$_List_const_iterator@V?$_List_val@U?$_List_simple_types@PAVfabian_client@@@std@@@std@@@std@@QBE_NABV01@@Z 004310b0 f i fabianServer.obj
 0001:00030100       ??9?$_Tree_const_iterator@V?$_Tree_val@U?$_Tree_simple_types@VQString@@@std@@@std@@@std@@QBE_NABV01@@Z 00431100 f i fabianServer.obj
 0001:00030150       ??D?$_List_const_iterator@V?$_List_val@U?$_List_simple_types@PAVfabian_client@@@std@@@std@@@std@@QBEABQAVfabian_client@@XZ 00431150 f i fabianServer.obj
 0001:00030230       ??D?$_List_iterator@V?$_List_val@U?$_List_simple_types@PAVfabian_client@@@std@@@std@@@std@@QBEAAPAVfabian_client@@XZ 00431230 f i fabianServer.obj
 0001:00030250       ??D?$_Tree_const_iterator@V?$_Tree_val@U?$_Tree_simple_types@VQString@@@std@@@std@@@std@@QBEABVQString@@XZ 00431250 f i fabianServer.obj
 0001:00030330       ??E?$_List_const_iterator@V?$_List_val@U?$_List_simple_types@PAVfabian_client@@@std@@@std@@@std@@QAE?AV01@H@Z 00431330 f i fabianServer.obj
 0001:000303e0       ??E?$_List_const_iterator@V?$_List_val@U?$_List_simple_types@PAVfabian_client@@@std@@@std@@@std@@QAEAAV01@XZ 004313e0 f i fabianServer.obj
 0001:000304d0       ??E?$_List_iterator@V?$_List_val@U?$_List_simple_types@PAVfabian_client@@@std@@@std@@@std@@QAE?AV01@H@Z 004314d0 f i fabianServer.obj
 0001:00030580       ??E?$_List_iterator@V?$_List_val@U?$_List_simple_types@PAVfabian_client@@@std@@@std@@@std@@QAEAAV01@XZ 00431580 f i fabianServer.obj
 0001:000305a0       ??E?$_Tree_const_iterator@V?$_Tree_val@U?$_Tree_simple_types@VQString@@@std@@@std@@@std@@QAEAAV01@XZ 004315a0 f i fabianServer.obj
 0001:00030680       ??E?$_Tree_unchecked_const_iterator@V?$_Tree_val@U?$_Tree_simple_types@VQString@@@std@@@std@@U_Iterator_base12@2@@std@@QAEAAV01@XZ 00431680 f i fabianServer.obj
 0001:00030770       ??_EfabianServer@@UAEPAXI@Z 00431770 f i fabianServer.obj
 0001:00030770       ??_GfabianServer@@UAEPAXI@Z 00431770 f i fabianServer.obj
 0001:000307b0       ?_Alloc_proxy@?$_List_alloc@$0A@U?$_List_base_types@PAVfabian_client@@V?$allocator@PAVfabian_client@@@std@@@std@@@std@@QAEXXZ 004317b0 f i fabianServer.obj
 0001:00030810       ?_Buyheadnode@?$_List_alloc@$0A@U?$_List_base_types@PAVfabian_client@@V?$allocator@PAVfabian_client@@@std@@@std@@@std@@QAEPAU?$_List_node@PAVfabian_client@@PAX@2@XZ 00431810 f i fabianServer.obj
 0001:00030830       ?_Buynode0@?$_List_alloc@$0A@U?$_List_base_types@PAVfabian_client@@V?$allocator@PAVfabian_client@@@std@@@std@@@std@@QAEPAU?$_List_node@PAVfabian_client@@PAX@2@PAU32@0@Z 00431830 f i fabianServer.obj
 0001:000309a0       ?_Free_proxy@?$_List_alloc@$0A@U?$_List_base_types@PAVfabian_client@@V?$allocator@PAVfabian_client@@@std@@@std@@@std@@QAEXXZ 004319a0 f i fabianServer.obj
 0001:00030a00       ?_Freeheadnode@?$_List_alloc@$0A@U?$_List_base_types@PAVfabian_client@@V?$allocator@PAVfabian_client@@@std@@@std@@@std@@QAEXPAU?$_List_node@PAVfabian_client@@PAX@2@@Z 00431a00 f i fabianServer.obj
 0001:00030aa0       ?_Freenode@?$_List_buy@PAVfabian_client@@V?$allocator@PAVfabian_client@@@std@@@std@@QAEXPAU?$_List_node@PAVfabian_client@@PAX@2@@Z 00431aa0 f i fabianServer.obj
 0001:00030b70       ?_Getal@?$_List_alloc@$0A@U?$_List_base_types@PAVfabian_client@@V?$allocator@PAVfabian_client@@@std@@@std@@@std@@QBE?AU?$_Wrap_alloc@V?$allocator@U?$_List_node@PAVfabian_client@@PAX@std@@@std@@@2@XZ 00431b70 f i fabianServer.obj
 0001:00030b90       ?_Incsize@?$list@PAVfabian_client@@V?$allocator@PAVfabian_client@@@std@@@std@@QAEXI@Z 00431b90 f i fabianServer.obj
 0001:00030be0       ?_Isnil@?$_Tree_val@U?$_Tree_simple_types@VQString@@@std@@@std@@SAAADPAU?$_Tree_node@VQString@@PAX@2@@Z 00431be0 f i fabianServer.obj
 0001:00030bf0       ?_Left@?$_Tree_val@U?$_Tree_simple_types@VQString@@@std@@@std@@SAAAPAU?$_Tree_node@VQString@@PAX@2@PAU32@@Z 00431bf0 f i fabianServer.obj
 0001:00030c00       ?_Lmost@?$_Tree@V?$_Tset_traits@VQString@@U?$less@VQString@@@std@@V?$allocator@VQString@@@3@$0A@@std@@@std@@IBEAAPAU?$_Tree_node@VQString@@PAX@2@XZ 00431c00 f i fabianServer.obj
 0001:00030c20       ?_Make_iter@?$list@PAVfabian_client@@V?$allocator@PAVfabian_client@@@std@@@std@@QBE?AV?$_List_iterator@V?$_List_val@U?$_List_simple_types@PAVfabian_client@@@std@@@std@@@2@V?$_List_const_iterator@V?$_List_val@U?$_List_simple_types@PAVfabian_client@@@std@@@std@@@2@@Z 00431c20 f i fabianServer.obj
 0001:00030c60       ?_Min@?$_Tree_val@U?$_Tree_simple_types@VQString@@@std@@@std@@SAPAU?$_Tree_node@VQString@@PAX@2@PAU32@@Z 00431c60 f i fabianServer.obj
 0001:00030cb0       ?_Mynode@?$_List_unchecked_const_iterator@V?$_List_val@U?$_List_simple_types@PAVfabian_client@@@std@@@std@@U_Iterator_base0@2@@std@@QBEPAU?$_List_node@PAVfabian_client@@PAX@2@XZ 00431cb0 f i fabianServer.obj
 0001:00030cd0       ?_Mynode@?$_List_unchecked_const_iterator@V?$_List_val@U?$_List_simple_types@PAVfabian_client@@@std@@@std@@U_Iterator_base12@2@@std@@QBEPAU?$_List_node@PAVfabian_client@@PAX@2@XZ 00431cd0 f i fabianServer.obj
 0001:00030cf0       ?_Myval@?$_List_val@U?$_List_simple_types@PAVfabian_client@@@std@@@std@@SAAAPAVfabian_client@@PAU?$_List_node@PAVfabian_client@@PAX@2@@Z 00431cf0 f i fabianServer.obj
 0001:00030d00       ?_Myval@?$_Tree_val@U?$_Tree_simple_types@VQString@@@std@@@std@@SAAAVQString@@PAU?$_Tree_node@VQString@@PAX@2@@Z 00431d00 f i fabianServer.obj
 0001:00030d10       ?_Nextnode@?$_List_val@U?$_List_simple_types@PAVfabian_client@@@std@@@std@@SAAAPAU?$_List_node@PAVfabian_client@@PAX@2@PAU32@@Z 00431d10 f i fabianServer.obj
 0001:00030d20       ?_Orphan_ptr@?$list@PAVfabian_client@@V?$allocator@PAVfabian_client@@@std@@@std@@QBEXAAV12@PAU?$_List_node@PAVfabian_client@@PAX@2@@Z 00431d20 f i fabianServer.obj
 0001:00030e20       ?_Parent@?$_Tree_val@U?$_Tree_simple_types@VQString@@@std@@@std@@SAAAPAU?$_Tree_node@VQString@@PAX@2@PAU32@@Z 00431e20 f i fabianServer.obj
 0001:00030e30       ?_Prevnode@?$_List_val@U?$_List_simple_types@PAVfabian_client@@@std@@@std@@SAAAPAU?$_List_node@PAVfabian_client@@PAX@2@PAU32@@Z 00431e30 f i fabianServer.obj
 0001:00030e40       ?_Right@?$_Tree_val@U?$_Tree_simple_types@VQString@@@std@@@std@@SAAAPAU?$_Tree_node@VQString@@PAX@2@PAU32@@Z 00431e40 f i fabianServer.obj
 0001:00030e50       ?_Tidy@?$list@PAVfabian_client@@V?$allocator@PAVfabian_client@@@std@@@std@@QAEXXZ 00431e50 f i fabianServer.obj
 0001:00030e70       ?_Unchecked_end@?$list@PAVfabian_client@@V?$allocator@PAVfabian_client@@@std@@@std@@QAE?AV?$_List_unchecked_iterator@V?$_List_val@U?$_List_simple_types@PAVfabian_client@@@std@@@std@@@2@XZ 00431e70 f i fabianServer.obj
 0001:00030ea0       ?_Unlinknode@?$list@PAVfabian_client@@V?$allocator@PAVfabian_client@@@std@@@std@@QAEPAU?$_List_node@PAVfabian_client@@PAX@2@V?$_List_const_iterator@V?$_List_val@U?$_List_simple_types@PAVfabian_client@@@std@@@std@@@2@@Z 00431ea0 f i fabianServer.obj
 0001:00030ff0       ?allocate@?$_Wrap_alloc@V?$allocator@U?$_List_node@PAVfabian_client@@PAX@std@@@std@@@std@@QAEPAU?$_List_node@PAVfabian_client@@PAX@2@I@Z 00431ff0 f i fabianServer.obj
 0001:00031010       ?allocate@?$allocator@U?$_List_node@PAVfabian_client@@PAX@std@@@std@@QAEPAU?$_List_node@PAVfabian_client@@PAX@2@I@Z 00432010 f i fabianServer.obj
 0001:00031040       ?begin@?$_Tree@V?$_Tset_traits@VQString@@U?$less@VQString@@@std@@V?$allocator@VQString@@@3@$0A@@std@@@std@@QAE?AV?$_Tree_const_iterator@V?$_Tree_val@U?$_Tree_simple_types@VQString@@@std@@@std@@@2@XZ 00432040 f i fabianServer.obj
 0001:00031070       ?begin@?$list@PAVfabian_client@@V?$allocator@PAVfabian_client@@@std@@@std@@QAE?AV?$_List_iterator@V?$_List_val@U?$_List_simple_types@PAVfabian_client@@@std@@@std@@@2@XZ 00432070 f i fabianServer.obj
 0001:000310b0       ?clear@?$list@PAVfabian_client@@V?$allocator@PAVfabian_client@@@std@@@std@@QAEXXZ 004320b0 f i fabianServer.obj
 0001:00031170       ?deallocate@?$_Wrap_alloc@V?$allocator@U?$_List_node@PAVfabian_client@@PAX@std@@@std@@@std@@QAEXPAU?$_List_node@PAVfabian_client@@PAX@2@I@Z 00432170 f i fabianServer.obj
 0001:000311a0       ?deallocate@?$allocator@U?$_List_node@PAVfabian_client@@PAX@std@@@std@@QAEXPAU?$_List_node@PAVfabian_client@@PAX@2@I@Z 004321a0 f i fabianServer.obj
 0001:000311c0       ?end@?$_Tree@V?$_Tset_traits@VQString@@U?$less@VQString@@@std@@V?$allocator@VQString@@@3@$0A@@std@@@std@@QAE?AV?$_Tree_const_iterator@V?$_Tree_val@U?$_Tree_simple_types@VQString@@@std@@@std@@@2@XZ 004321c0 f i fabianServer.obj
 0001:000311f0       ?end@?$list@PAVfabian_client@@V?$allocator@PAVfabian_client@@@std@@@std@@QAE?AV?$_List_iterator@V?$_List_val@U?$_List_simple_types@PAVfabian_client@@@std@@@std@@@2@XZ 004321f0 f i fabianServer.obj
 0001:00031220       ?erase@?$list@PAVfabian_client@@V?$allocator@PAVfabian_client@@@std@@@std@@QAE?AV?$_List_iterator@V?$_List_val@U?$_List_simple_types@PAVfabian_client@@@std@@@std@@@2@V?$_List_const_iterator@V?$_List_val@U?$_List_simple_types@PAVfabian_client@@@std@@@std@@@2@@Z 00432220 f i fabianServer.obj
 0001:00031310       ?max_size@?$_Wrap_alloc@V?$allocator@U?$_List_node@PAVfabian_client@@PAX@std@@@std@@@std@@QBEIXZ 00432310 f i fabianServer.obj
 0001:00031330       ?max_size@?$allocator@U?$_List_node@PAVfabian_client@@PAX@std@@@std@@QBEIXZ 00432330 f i fabianServer.obj
 0001:00031350       ?max_size@?$allocator_traits@V?$allocator@U?$_List_node@PAVfabian_client@@PAX@std@@@std@@@std@@SAIABV?$allocator@U?$_List_node@PAVfabian_client@@PAX@std@@@2@@Z 00432350 f i fabianServer.obj
 0001:00031360       ?max_size@?$list@PAVfabian_client@@V?$allocator@PAVfabian_client@@@std@@@std@@QBEIXZ 00432360 f i fabianServer.obj
 0001:00031390       ?push_back@?$list@PAVfabian_client@@V?$allocator@PAVfabian_client@@@std@@@std@@QAEXABQAVfabian_client@@@Z 00432390 f i fabianServer.obj
 0001:000313d0       ?remove@?$list@PAVfabian_client@@V?$allocator@PAVfabian_client@@@std@@@std@@QAEXABQAVfabian_client@@@Z 004323d0 f i fabianServer.obj
 0001:00031650       ?size@?$_Tree@V?$_Tset_traits@VQString@@U?$less@VQString@@@std@@V?$allocator@VQString@@@3@$0A@@std@@@std@@QBEIXZ 00432650 f i fabianServer.obj
 0001:00031670       ??0fabian_client@@QAE@H_N0PAVIfabian_clientCallback@@PAVQObject@@@Z 00432670 f   fabian_client.obj
 0001:000331a0       ??1fabian_client@@UAE@XZ   004341a0 f   fabian_client.obj
 0001:000332e0       ?sendData@fabian_client@@QAEXABVQString@@@Z 004342e0 f   fabian_client.obj
 0001:00033390       ?peerAddress@fabian_client@@QAE?AVQHostAddress@@XZ 00434390 f   fabian_client.obj
 0001:000333f0       ?currentUser@fabian_client@@QAEPAVuser@@XZ 004343f0 f   fabian_client.obj
 0001:00033410       ?userId@fabian_client@@QAE?AVQString@@XZ 00434410 f   fabian_client.obj
 0001:00033520       ?workstationOverride@fabian_client@@QBEIXZ 00434520 f   fabian_client.obj
 0001:00033550       ?sendGreeting@fabian_client@@AAEXXZ 00434550 f   fabian_client.obj
 0001:00033780       ?lineParse@fabian_client@@AAEXABVQStringList@@@Z 00434780 f   fabian_client.obj
 0001:00037ae0       ?bufParse@fabian_client@@AAEHPADH@Z 00438ae0 f   fabian_client.obj
 0001:00037cf0       ?socketEncrypted@fabian_client@@QAEXXZ 00438cf0 f   fabian_client.obj
 0001:00037e60       ?socketSslErrors@fabian_client@@QAEXABV?$QList@VQSslError@@@@@Z 00438e60 f   fabian_client.obj
 0001:000380b0       ?socketDisconnected@fabian_client@@QAEXXZ 004390b0 f   fabian_client.obj
 0001:000381a0       ?socketReadyRead@fabian_client@@QAEXXZ 004391a0 f   fabian_client.obj
 0001:00038490       ?socketError@fabian_client@@QAEXW4SocketError@QAbstractSocket@@@Z 00439490 f   fabian_client.obj
 0001:00038860       ?preSharedKeyAuthenticationRequired@fabian_client@@QAEXPAVQSslPreSharedKeyAuthenticator@@@Z 00439860 f   fabian_client.obj
 0001:000388a0       ?sslMode@fabian_client@@QAEXW4SslMode@QSslSocket@@@Z 004398a0 f   fabian_client.obj
 0001:000388e0       ?timerEvent@fabian_client@@MAEXPAVQTimerEvent@@@Z 004398e0 f   fabian_client.obj
 0001:0003a820       ??$_Move@AAPAUData@QListData@@@std@@YA$$QAPAUData@QListData@@AAPAU12@@Z 0043b820 f i fabian_client.obj
 0001:0003a830       ??$move@AAV?$QList@VQString@@@@@std@@YA$$QAV?$QList@VQString@@@@AAV1@@Z 0043b830 f i fabian_client.obj
 0001:0003a840       ??$qSwap@PAUData@QListData@@@@YAXAAPAUData@QListData@@0@Z 0043b840 f i fabian_client.obj
 0001:0003a860       ??$ref@H@?$QAtomicOpsBySize@$03@@SA_NAAH@Z 0043b860 f i fabian_client.obj
 0001:0003a8a0       ??$swap@PAUData@QListData@@@std@@YAXAAPAUData@QListData@@0@Z 0043b8a0 f i fabian_client.obj
 0001:0003a8f0       ??0?$QFlags@W4OpenModeFlag@QIODevice@@@@QAE@W4OpenModeFlag@QIODevice@@@Z 0043b8f0 f i fabian_client.obj
 0001:0003a910       ??0?$QForeachContainer@$$CBV?$QList@VQSslError@@@@@@QAE@ABV?$QList@VQSslError@@@@@Z 0043b910 f i fabian_client.obj
 0001:0003a970       ??0?$QList@VQSslError@@@@QAE@ABV0@@Z 0043b970 f i fabian_client.obj
 0001:0003aa80       ??0?$QList@VQString@@@@QAE@$$QAV0@@Z 0043ba80 f i fabian_client.obj
 0001:0003aab0       ??0?$QList@VQString@@@@QAE@XZ 0043bab0 f i fabian_client.obj
 0001:0003aad0       ??0QStringList@@QAE@XZ     0043bad0 f i fabian_client.obj
 0001:0003aaf0       ??0const_iterator@?$QList@VQSslError@@@@QAE@PAUNode@1@@Z 0043baf0 f i fabian_client.obj
 0001:0003ab10       ??0const_iterator@?$QList@VQString@@@@QAE@PAUNode@1@@Z 0043bb10 f i fabian_client.obj
 0001:0003ab30       ??1?$QForeachContainer@$$CBV?$QList@VQSslError@@@@@@QAE@XZ 0043bb30 f i fabian_client.obj
 0001:0003ab50       ??1?$QList@VQSslError@@@@QAE@XZ 0043bb50 f i fabian_client.obj
 0001:0003abe0       ??1?$QListSpecialMethods@VQSslError@@@@IAE@XZ 0043bbe0 f i fabian_client.obj
 0001:0003abf0       ??4?$QList@VQString@@@@QAEAAV0@$$QAV0@@Z 0043bbf0 f i fabian_client.obj
 0001:0003ac50       ??9const_iterator@?$QList@VQSslError@@@@QBE_NABV01@@Z 0043bc50 f i fabian_client.obj
 0001:0003ac90       ??9const_iterator@?$QList@VQString@@@@QBE_NABV01@@Z 0043bc90 f i fabian_client.obj
 0001:0003acd0       ??Dconst_iterator@?$QList@VQSslError@@@@QBEABVQSslError@@XZ 0043bcd0 f i fabian_client.obj
 0001:0003acf0       ??Dconst_iterator@?$QList@VQString@@@@QBEABVQString@@XZ 0043bcf0 f i fabian_client.obj
 0001:0003ad10       ??Econst_iterator@?$QList@VQSslError@@@@QAEAAV01@XZ 0043bd10 f i fabian_client.obj
 0001:0003ad40       ??Econst_iterator@?$QList@VQString@@@@QAEAAV01@XZ 0043bd40 f i fabian_client.obj
 0001:0003ad61       ??_Efabian_client@@W7AEPAXI@Z 0043bd61 f i fabian_client.obj
 0001:0003ad70       ??_GQSslError@@QAEPAXI@Z   0043bd70 f i fabian_client.obj
 0001:0003adb0       ??_GQSslSocket@@UAEPAXI@Z  0043bdb0 f i fabian_client.obj
 0001:0003adb0       ??_EQSslSocket@@UAEPAXI@Z  0043bdb0 f i fabian_client.obj
 0001:0003adf0       ??_Gfabian_client@@UAEPAXI@Z 0043bdf0 f i fabian_client.obj
 0001:0003adf0       ??_Efabian_client@@UAEPAXI@Z 0043bdf0 f i fabian_client.obj
 0001:0003ae30       ?append@?$QList@VQString@@@@QAEXABVQString@@@Z 0043be30 f i fabian_client.obj
 0001:0003b000       ?begin@?$QList@VQSslError@@@@QBE?AVconst_iterator@1@XZ 0043c000 f i fabian_client.obj
 0001:0003b030       ?begin@?$QList@VQString@@@@QBE?AVconst_iterator@1@XZ 0043c030 f i fabian_client.obj
 0001:0003b060       ?clear@?$QList@VQString@@@@QAEXXZ 0043c060 f i fabian_client.obj
 0001:0003b0a0       ?dealloc@?$QList@VQSslError@@@@AAEXPAUData@QListData@@@Z 0043c0a0 f i fabian_client.obj
 0001:0003b0f0       ?detach_helper_grow@?$QList@VQString@@@@AAEPAUNode@1@HH@Z 0043c0f0 f i fabian_client.obj
 0001:0003b2d0       ?end@?$QList@VQSslError@@@@QBE?AVconst_iterator@1@XZ 0043c2d0 f i fabian_client.obj
 0001:0003b300       ?end@?$QList@VQString@@@@QBE?AVconst_iterator@1@XZ 0043c300 f i fabian_client.obj
 0001:0003b330       ?join@?$QListSpecialMethods@VQString@@@@QBE?AVQString@@ABV2@@Z 0043c330 f i fabian_client.obj
 0001:0003b390       ?node_construct@?$QList@VQString@@@@AAEXPAUNode@1@ABVQString@@@Z 0043c390 f i fabian_client.obj
 0001:0003b450       ?node_copy@?$QList@VQSslError@@@@AAEXPAUNode@1@00@Z 0043c450 f i fabian_client.obj
 0001:0003b700       ?node_destruct@?$QList@VQSslError@@@@AAEXPAUNode@1@0@Z 0043c700 f i fabian_client.obj
 0001:0003b7a0       ?node_destruct@?$QList@VQString@@@@AAEXPAUNode@1@@Z 0043c7a0 f i fabian_client.obj
 0001:0003b810       ?ref@?$QBasicAtomicInteger@H@@QAE_NXZ 0043c810 f i fabian_client.obj
 0001:0003b830       ?ref@RefCount@QtPrivate@@QAE_NXZ 0043c830 f i fabian_client.obj
 0001:0003b870       ?self@?$QListSpecialMethods@VQString@@@@ABEPBVQStringList@@XZ 0043c870 f i fabian_client.obj
 0001:0003b890       ?size@?$QList@VQSslError@@@@QBEHXZ 0043c890 f i fabian_client.obj
 0001:0003b8b0       ?swap@?$QList@VQString@@@@QAEXAAV1@@Z 0043c8b0 f i fabian_client.obj
 0001:0003b8e0       ?t@Node@?$QList@VQSslError@@@@QAEAAVQSslError@@XZ 0043c8e0 f i fabian_client.obj
 0001:0003b910       ?metaObject@fabianServer@@UBEPBUQMetaObject@@XZ 0043c910 f   moc_fabianServer.obj
 0001:0003b950       ?qt_metacast@fabianServer@@UAEPAXPBD@Z 0043c950 f   moc_fabianServer.obj
 0001:0003b990       ?qt_metacall@fabianServer@@UAEHW4Call@QMetaObject@@HPAPAX@Z 0043c990 f   moc_fabianServer.obj
 0001:0003ba20       ?qt_static_metacall@fabianServer@@CAXPAVQObject@@W4Call@QMetaObject@@HPAPAX@Z 0043ca20 f   moc_fabianServer.obj
 0001:0003baa0       ??C?$QScopedPointer@VQObjectData@@U?$QScopedPointerDeleter@VQObjectData@@@@@@QBEPAVQObjectData@@XZ 0043caa0 f i moc_fabianServer.obj
 0001:0003bac0       ?metaObject@fabian_client@@UBEPBUQMetaObject@@XZ 0043cac0 f   moc_fabian_client.obj
 0001:0003bb00       ?qt_metacast@fabian_client@@UAEPAXPBD@Z 0043cb00 f   moc_fabian_client.obj
 0001:0003bb80       ?qt_metacall@fabian_client@@UAEHW4Call@QMetaObject@@HPAPAX@Z 0043cb80 f   moc_fabian_client.obj
 0001:0003bc10       ?qt_static_metacall@fabian_client@@CAXPAVQObject@@W4Call@QMetaObject@@HPAPAX@Z 0043cc10 f   moc_fabian_client.obj
 0001:0003be30       ?disconnected@fabian_client@@QAEXXZ 0043ce30 f   moc_fabian_client.obj
 0001:0003bf40       ??$acquireMemoryFence@H@?$QGenericAtomicOps@U?$QAtomicOpsBySize@$03@@@@SAXABH@Z 0043cf40 f i moc_fabian_client.obj
 0001:0003bf60       ??$loadAcquire@H@?$QGenericAtomicOps@U?$QAtomicOpsBySize@$03@@@@SAHABH@Z 0043cf60 f i moc_fabian_client.obj
 0001:0003bf90       ??$orderedMemoryFence@H@?$QGenericAtomicOps@U?$QAtomicOpsBySize@$03@@@@SAXABH@Z 0043cf90 f i moc_fabian_client.obj
 0001:0003bfa0       ??$qMetaTypeId@V?$QList@VQSslError@@@@@@YAHXZ 0043cfa0 f i moc_fabian_client.obj
 0001:0003bfb0       ??$qMetaTypeId@W4SocketError@QAbstractSocket@@@@YAHXZ 0043cfb0 f i moc_fabian_client.obj
 0001:0003bfc0       ??$qRegisterMetaType@V?$QList@VQSslError@@@@@@YAHPBDPAV?$QList@VQSslError@@@@W4DefinedType@?$MetaTypeDefinedHelper@V?$QList@VQSslError@@@@$00@QtPrivate@@@Z 0043cfc0 f i moc_fabian_client.obj
 0001:0003c060       ??$qRegisterMetaType@V?$QList@VQSslError@@@@@@YAHXZ 0043d060 f i moc_fabian_client.obj
 0001:0003c070       ??$qRegisterMetaType@W4SocketError@QAbstractSocket@@@@YAHPBDPAW4SocketError@QAbstractSocket@@W4DefinedType@?$MetaTypeDefinedHelper@W4SocketError@QAbstractSocket@@$00@QtPrivate@@@Z 0043d070 f i moc_fabian_client.obj
 0001:0003c110       ??$qRegisterMetaType@W4SocketError@QAbstractSocket@@@@YAHXZ 0043d110 f i moc_fabian_client.obj
 0001:0003c120       ??$qRegisterNormalizedMetaType@V?$QList@VQSslError@@@@@@YAHABVQByteArray@@PAV?$QList@VQSslError@@@@W4DefinedType@?$MetaTypeDefinedHelper@V?$QList@VQSslError@@@@$00@QtPrivate@@@Z 0043d120 f i moc_fabian_client.obj
 0001:0003c300       ??$qRegisterNormalizedMetaType@W4SocketError@QAbstractSocket@@@@YAHABVQByteArray@@PAW4SocketError@QAbstractSocket@@W4DefinedType@?$MetaTypeDefinedHelper@W4SocketError@QAbstractSocket@@$00@QtPrivate@@@Z 0043d300 f i moc_fabian_client.obj
 0001:0003c4e0       ??$releaseMemoryFence@H@?$QGenericAtomicOps@U?$QAtomicOpsBySize@$03@@@@SAXABH@Z 0043d4e0 f i moc_fabian_client.obj
 0001:0003c500       ??$storeRelease@HH@?$QGenericAtomicOps@U?$QAtomicOpsBySize@$03@@@@SAXAAHH@Z 0043d500 f i moc_fabian_client.obj
 0001:0003c520       ??0?$QFlags@W4TypeFlag@QMetaType@@@@QAE@VQFlag@@@Z 0043d520 f i moc_fabian_client.obj
 0001:0003c550       ??0?$QList@VQSslError@@@@QAE@XZ 0043d550 f i moc_fabian_client.obj
 0001:0003c570       ??0QFlag@@QAE@H@Z          0043d570 f i moc_fabian_client.obj
 0001:0003c590       ??8@YA_NABVQByteArray@@0@Z 0043d590 f i moc_fabian_client.obj
 0001:0003c610       ??BQFlag@@QBEHXZ           0043d610 f i moc_fabian_client.obj
 0001:0003c630       ??_5?$QFlags@W4TypeFlag@QMetaType@@@@QAEAAV0@W4TypeFlag@QMetaType@@@Z 0043d630 f i moc_fabian_client.obj
 0001:0003c660       ??_G?$QList@VQSslError@@@@QAEPAXI@Z 0043d660 f i moc_fabian_client.obj
 0001:0003c6a0       ?Construct@?$QMetaTypeFunctionHelper@V?$QList@VQSslError@@@@$00@QtMetaTypePrivate@@SAPAXPAXPBX@Z 0043d6a0 f i moc_fabian_client.obj
 0001:0003c780       ?Construct@?$QMetaTypeFunctionHelper@W4SocketError@QAbstractSocket@@$00@QtMetaTypePrivate@@SAPAXPAXPBX@Z 0043d780 f i moc_fabian_client.obj
 0001:0003c7f0       ?Destruct@?$QMetaTypeFunctionHelper@V?$QList@VQSslError@@@@$00@QtMetaTypePrivate@@SAXPAX@Z 0043d7f0 f i moc_fabian_client.obj
 0001:0003c810       ?Destruct@?$QMetaTypeFunctionHelper@W4SocketError@QAbstractSocket@@$00@QtMetaTypePrivate@@SAXPAX@Z 0043d810 f i moc_fabian_client.obj
 0001:0003c820       ?loadAcquire@?$QBasicAtomicInteger@H@@QBEHXZ 0043d820 f i moc_fabian_client.obj
 0001:0003c840       ?qt_getEnumMetaObject@@YAPBUQMetaObject@@W4SocketError@QAbstractSocket@@@Z 0043d840 f i moc_fabian_client.obj
 0001:0003c850       ?qt_metatype_id@?$QMetaTypeId2@V?$QList@VQSslError@@@@@@SAHXZ 0043d850 f i moc_fabian_client.obj
 0001:0003c860       ?qt_metatype_id@?$QMetaTypeId2@W4SocketError@QAbstractSocket@@@@SAHXZ 0043d860 f i moc_fabian_client.obj
 0001:0003c870       ?qt_metatype_id@?$QMetaTypeId@V?$QList@VQSslError@@@@@@SAHXZ 0043d870 f i moc_fabian_client.obj
 0001:0003c8d0       ?qt_metatype_id@?$QMetaTypeId@W4SocketError@QAbstractSocket@@@@SAHXZ 0043d8d0 f i moc_fabian_client.obj
 0001:0003c930       ?qt_metatype_id@?$QMetaTypeIdHelper@V?$QList@VQSslError@@@@$00@QtPrivate@@SAHXZ 0043d930 f i moc_fabian_client.obj
 0001:0003c940       ?qt_metatype_id@?$QMetaTypeIdHelper@W4SocketError@QAbstractSocket@@$00@QtPrivate@@SAHXZ 0043d940 f i moc_fabian_client.obj
 0001:0003c950       ?registerConverter@?$AssociativeContainerConverterHelper@V?$QList@VQSslError@@@@$0A@@QtPrivate@@SA_NH@Z 0043d950 f i moc_fabian_client.obj
 0001:0003c960       ?registerConverter@?$AssociativeContainerConverterHelper@W4SocketError@QAbstractSocket@@$0A@@QtPrivate@@SA_NH@Z 0043d960 f i moc_fabian_client.obj
 0001:0003c970       ?registerConverter@?$IsPair@V?$QList@VQSslError@@@@@QtPrivate@@SA_NH@Z 0043d970 f i moc_fabian_client.obj
 0001:0003c980       ?registerConverter@?$IsPair@W4SocketError@QAbstractSocket@@@QtPrivate@@SA_NH@Z 0043d980 f i moc_fabian_client.obj
 0001:0003c990       ?registerConverter@?$MetaTypeSmartPointerHelper@V?$QList@VQSslError@@@@X@QtPrivate@@SA_NH@Z 0043d990 f i moc_fabian_client.obj
 0001:0003c9a0       ?registerConverter@?$MetaTypeSmartPointerHelper@W4SocketError@QAbstractSocket@@X@QtPrivate@@SA_NH@Z 0043d9a0 f i moc_fabian_client.obj
 0001:0003c9b0       ?registerConverter@?$SequentialContainerConverterHelper@W4SocketError@QAbstractSocket@@$0A@@QtPrivate@@SA_NH@Z 0043d9b0 f i moc_fabian_client.obj
 0001:0003c9c0       ?registerConverter@?$ValueTypeIsMetaType@V?$QList@VQSslError@@@@$0A@@QtPrivate@@SA_NH@Z 0043d9c0 f i moc_fabian_client.obj
 0001:0003c9d0       ?storeRelease@?$QBasicAtomicInteger@H@@QAEXH@Z 0043d9d0 f i moc_fabian_client.obj
 0001:0003ca00       ?value@?$MetaObjectForType@V?$QList@VQSslError@@@@X@QtPrivate@@SAPBUQMetaObject@@XZ 0043da00 f i moc_fabian_client.obj
 0001:0003ca10       ?value@?$MetaObjectForType@W4SocketError@QAbstractSocket@@X@QtPrivate@@SAPBUQMetaObject@@XZ 0043da10 f i moc_fabian_client.obj
 0001:0003ca30       ?metaObject@slink@@UBEPBUQMetaObject@@XZ 0043da30 f   moc_slink.obj
 0001:0003ca70       ?qt_metacast@slink@@UAEPAXPBD@Z 0043da70 f   moc_slink.obj
 0001:0003cab0       ?qt_metacall@slink@@UAEHW4Call@QMetaObject@@HPAPAX@Z 0043dab0 f   moc_slink.obj
 0001:0003cb40       ?qt_static_metacall@slink@@CAXPAVQObject@@W4Call@QMetaObject@@HPAPAX@Z 0043db40 f   moc_slink.obj
 0001:0003ccd0       ?metaObject@userEditDialog@@UBEPBUQMetaObject@@XZ 0043dcd0 f   moc_userEditDialog.obj
 0001:0003cd10       ?qt_metacast@userEditDialog@@UAEPAXPBD@Z 0043dd10 f   moc_userEditDialog.obj
 0001:0003cd50       ?qt_metacall@userEditDialog@@UAEHW4Call@QMetaObject@@HPAPAX@Z 0043dd50 f   moc_userEditDialog.obj
 0001:0003cde0       ?qt_static_metacall@userEditDialog@@CAXPAVQObject@@W4Call@QMetaObject@@HPAPAX@Z 0043dde0 f   moc_userEditDialog.obj
 0001:0003cf60       ?userAdded@userEditDialog@@QAEXPAVuser@@@Z 0043df60 f   moc_userEditDialog.obj
 0001:0003cfa0       ?userDeleted@userEditDialog@@QAEXABVQString@@@Z 0043dfa0 f   moc_userEditDialog.obj
 0001:0003d0a0       ?metaObject@userEditPermissionsDialog@@UBEPBUQMetaObject@@XZ 0043e0a0 f   moc_userEditPermissionsDialog.obj
 0001:0003d0e0       ?qt_metacast@userEditPermissionsDialog@@UAEPAXPBD@Z 0043e0e0 f   moc_userEditPermissionsDialog.obj
 0001:0003d120       ?qt_metacall@userEditPermissionsDialog@@UAEHW4Call@QMetaObject@@HPAPAX@Z 0043e120 f   moc_userEditPermissionsDialog.obj
 0001:0003d1b0       ?qt_static_metacall@userEditPermissionsDialog@@CAXPAVQObject@@W4Call@QMetaObject@@HPAPAX@Z 0043e1b0 f   moc_userEditPermissionsDialog.obj
 0001:0003d240       ?qInitResources_slink@@YAHXZ 0043e240 f   qrc_slink.obj
 0001:0003d250       ?qCleanupResources_slink@@YAHXZ 0043e250 f   qrc_slink.obj
 0001:0003d260       ??0initializer@?A0x3ad23e3c@@QAE@XZ 0043e260 f i qrc_slink.obj
 0001:0003d280       ??1initializer@?A0x3ad23e3c@@QAE@XZ 0043e280 f i qrc_slink.obj
 0001:0003d2a0       _main                      0043e2a0 f   main.obj
 0001:0003d720       ??6QStringList@@QAEAAV0@ABVQString@@@Z 0043e720 f i main.obj
 0001:0003d750       ??0singleReg@@IAE@XZ       0043e750 f   singleReg.obj
 0001:0003d790       ??0singleReg@@QAE@VclientIPC@@I@Z 0043e790 f   singleReg.obj
 0001:0003d7e0       ??1singleReg@@UAE@XZ       0043e7e0 f   singleReg.obj
 0001:0003d800       ?addRegistration@singleReg@@QAEXII@Z 0043e800 f   singleReg.obj
 0001:0003d870       ?removeAllRegistration@singleReg@@QAEXXZ 0043e870 f   singleReg.obj
 0001:0003d890       ?removeRegistration@singleReg@@QAEXII@Z 0043e890 f   singleReg.obj
 0001:0003db70       ?isRegistered@singleReg@@QBE_NI@Z 0043eb70 f   singleReg.obj
 0001:0003dc60       ?isRegisteredRange@singleReg@@QBE_NII@Z 0043ec60 f   singleReg.obj
 0001:0003dd80       ?hasAnyRegistrations@singleReg@@QBE_NXZ 0043ed80 f   singleReg.obj
 0001:0003ddb0       ?client@singleReg@@QBE?AVclientIPC@@XZ 0043edb0 f   singleReg.obj
 0001:0003ddd0       ?device@singleReg@@QBEIXZ  0043edd0 f   singleReg.obj
 0001:0003ddf0       ?minIndex@singleReg@@QBEIXZ 0043edf0 f   singleReg.obj
 0001:0003dec0       ?maxIndex@singleReg@@QBEIXZ 0043eec0 f   singleReg.obj
 0001:0003df90       ?dump@singleReg@@QAEXPBD@Z 0043ef90 f   singleReg.obj
 0001:0003e0e0       ?registrations@singleReg@@QAEPAV?$list@Vreg@@V?$allocator@Vreg@@@std@@@std@@XZ 0043f0e0 f   singleReg.obj
 0001:0003e100       ?extendExistingRegistration@singleReg@@AAE_NII@Z 0043f100 f   singleReg.obj
 0001:0003e2d0       ?cleanDuplicateRegistrations@singleReg@@AAEXXZ 0043f2d0 f   singleReg.obj
 0001:0003e7f0       ??$?0U?$_List_node@Vreg@@PAX@std@@@?$allocator@Vreg@@@std@@QAE@ABV?$allocator@U?$_List_node@Vreg@@PAX@std@@@1@@Z 0043f7f0 f i singleReg.obj
 0001:0003e810       ??$_Allocate@U?$_List_node@Vreg@@PAX@std@@@std@@YAPAU?$_List_node@Vreg@@PAX@0@IPAU10@@Z 0043f810 f i singleReg.obj
 0001:0003e870       ??$_Buynode@ABVreg@@@?$_List_buy@Vreg@@V?$allocator@Vreg@@@std@@@std@@QAEPAU?$_List_node@Vreg@@PAX@1@PAU21@0ABVreg@@@Z 0043f870 f i singleReg.obj
 0001:0003e990       ??$_Buynode@Vreg@@@?$_List_buy@Vreg@@V?$allocator@Vreg@@@std@@@std@@QAEPAU?$_List_node@Vreg@@PAX@1@PAU21@0$$QAVreg@@@Z 0043f990 f i singleReg.obj
 0001:0003eab0       ??$_Debug_range2@V?$_List_const_iterator@V?$_List_val@U?$_List_simple_types@Vreg@@@std@@@std@@@std@@@std@@YAXV?$_List_const_iterator@V?$_List_val@U?$_List_simple_types@Vreg@@@std@@@std@@@0@0PB_WIUinput_iterator_tag@0@@Z 0043fab0 f i singleReg.obj
 0001:0003eb40       ??$_Debug_range@V?$_List_const_iterator@V?$_List_val@U?$_List_simple_types@Vreg@@@std@@@std@@@std@@@std@@YAXV?$_List_const_iterator@V?$_List_val@U?$_List_simple_types@Vreg@@@std@@@std@@@0@0PB_WI@Z 0043fb40 f i singleReg.obj
 0001:0003ec20       ??$_Insert@ABVreg@@@?$list@Vreg@@V?$allocator@Vreg@@@std@@@std@@QAEXV?$_List_unchecked_const_iterator@V?$_List_val@U?$_List_simple_types@Vreg@@@std@@@std@@U_Iterator_base0@2@@1@ABVreg@@@Z 0043fc20 f i singleReg.obj
 0001:0003ecc0       ??$_Insert@Vreg@@@?$list@Vreg@@V?$allocator@Vreg@@@std@@@std@@QAEXV?$_List_unchecked_const_iterator@V?$_List_val@U?$_List_simple_types@Vreg@@@std@@@std@@U_Iterator_base0@2@@1@$$QAVreg@@@Z 0043fcc0 f i singleReg.obj
 0001:0003ed60       ??$_Insert_range@V?$_List_const_iterator@V?$_List_val@U?$_List_simple_types@Vreg@@@std@@@std@@@std@@@?$list@Vreg@@V?$allocator@Vreg@@@std@@@std@@QAEXV?$_List_unchecked_const_iterator@V?$_List_val@U?$_List_simple_types@Vreg@@@std@@@std@@U_Iterator_base0@2@@1@V?$_List_const_iterator@V?$_List_val@U?$_List_simple_types@Vreg@@@std@@@std@@@1@1Uforward_iterator_tag@1@@Z 0043fd60 f i singleReg.obj
 0001:0003ef20       ??$_Iter_cat@V?$_List_const_iterator@V?$_List_val@U?$_List_simple_types@Vreg@@@std@@@std@@@std@@@std@@YA?AUbidirectional_iterator_tag@0@ABV?$_List_const_iterator@V?$_List_val@U?$_List_simple_types@Vreg@@@std@@@std@@@0@@Z 0043ff20 f i singleReg.obj
 0001:0003ef40       ??$addressof@$$CBVreg@@@std@@YAPBVreg@@ABV1@@Z 0043ff40 f i singleReg.obj
 0001:0003ef50       ??$addressof@PAU?$_List_node@Vreg@@PAX@std@@@std@@YAPAPAU?$_List_node@Vreg@@PAX@0@AAPAU10@@Z 0043ff50 f i singleReg.obj
 0001:0003ef60       ??$addressof@Vreg@@@std@@YAPAVreg@@AAV1@@Z 0043ff60 f i singleReg.obj
 0001:0003ef70       ??$construct@PAU?$_List_node@Vreg@@PAX@std@@AAPAU12@@?$_Wrap_alloc@V?$allocator@U?$_List_node@Vreg@@PAX@std@@@std@@@std@@QAEXPAPAU?$_List_node@Vreg@@PAX@1@AAPAU21@@Z 0043ff70 f i singleReg.obj
 0001:0003efb0       ??$construct@PAU?$_List_node@Vreg@@PAX@std@@AAPAU12@@?$allocator@U?$_List_node@Vreg@@PAX@std@@@std@@QAEXPAPAU?$_List_node@Vreg@@PAX@1@AAPAU21@@Z 0043ffb0 f i singleReg.obj
 0001:0003f060       ??$construct@PAU?$_List_node@Vreg@@PAX@std@@AAPAU12@@?$allocator_traits@V?$allocator@U?$_List_node@Vreg@@PAX@std@@@std@@@std@@SAXAAV?$allocator@U?$_List_node@Vreg@@PAX@std@@@1@PAPAU?$_List_node@Vreg@@PAX@1@AAPAU31@@Z 00440060 f i singleReg.obj
 0001:0003f090       ??$construct@Vreg@@ABV1@@?$_Wrap_alloc@V?$allocator@U?$_List_node@Vreg@@PAX@std@@@std@@@std@@QAEXPAVreg@@ABV2@@Z 00440090 f i singleReg.obj
 0001:0003f0d0       ??$construct@Vreg@@ABV1@@?$allocator@U?$_List_node@Vreg@@PAX@std@@@std@@QAEXPAVreg@@ABV2@@Z 004400d0 f i singleReg.obj
 0001:0003f180       ??$construct@Vreg@@ABV1@@?$allocator_traits@V?$allocator@U?$_List_node@Vreg@@PAX@std@@@std@@@std@@SAXAAV?$allocator@U?$_List_node@Vreg@@PAX@std@@@1@PAVreg@@ABV3@@Z 00440180 f i singleReg.obj
 0001:0003f1b0       ??$construct@Vreg@@V1@@?$_Wrap_alloc@V?$allocator@U?$_List_node@Vreg@@PAX@std@@@std@@@std@@QAEXPAVreg@@$$QAV2@@Z 004401b0 f i singleReg.obj
 0001:0003f1f0       ??$construct@Vreg@@V1@@?$allocator@U?$_List_node@Vreg@@PAX@std@@@std@@QAEXPAVreg@@$$QAV2@@Z 004401f0 f i singleReg.obj
 0001:0003f2a0       ??$construct@Vreg@@V1@@?$allocator_traits@V?$allocator@U?$_List_node@Vreg@@PAX@std@@@std@@@std@@SAXAAV?$allocator@U?$_List_node@Vreg@@PAX@std@@@1@PAVreg@@$$QAV3@@Z 004402a0 f i singleReg.obj
 0001:0003f2d0       ??$destroy@PAU?$_List_node@Vreg@@PAX@std@@@?$_Wrap_alloc@V?$allocator@U?$_List_node@Vreg@@PAX@std@@@std@@@std@@QAEXPAPAU?$_List_node@Vreg@@PAX@1@@Z 004402d0 f i singleReg.obj
 0001:0003f300       ??$destroy@PAU?$_List_node@Vreg@@PAX@std@@@?$allocator@U?$_List_node@Vreg@@PAX@std@@@std@@QAEXPAPAU?$_List_node@Vreg@@PAX@1@@Z 00440300 f i singleReg.obj
 0001:0003f310       ??$destroy@PAU?$_List_node@Vreg@@PAX@std@@@?$allocator_traits@V?$allocator@U?$_List_node@Vreg@@PAX@std@@@std@@@std@@SAXAAV?$allocator@U?$_List_node@Vreg@@PAX@std@@@1@PAPAU?$_List_node@Vreg@@PAX@1@@Z 00440310 f i singleReg.obj
 0001:0003f330       ??$destroy@Vreg@@@?$_Wrap_alloc@V?$allocator@U?$_List_node@Vreg@@PAX@std@@@std@@@std@@QAEXPAVreg@@@Z 00440330 f i singleReg.obj
 0001:0003f360       ??$destroy@Vreg@@@?$allocator@U?$_List_node@Vreg@@PAX@std@@@std@@QAEXPAVreg@@@Z 00440360 f i singleReg.obj
 0001:0003f370       ??$destroy@Vreg@@@?$allocator_traits@V?$allocator@U?$_List_node@Vreg@@PAX@std@@@std@@@std@@SAXAAV?$allocator@U?$_List_node@Vreg@@PAX@std@@@1@PAVreg@@@Z 00440370 f i singleReg.obj
 0001:0003f390       ??$forward@AAPAU?$_List_node@Vreg@@PAX@std@@@std@@YAAAPAU?$_List_node@Vreg@@PAX@0@AAPAU10@@Z 00440390 f i singleReg.obj
 0001:0003f3a0       ??$forward@ABVreg@@@std@@YAABVreg@@ABV1@@Z 004403a0 f i singleReg.obj
 0001:0003f3b0       ??$forward@Vreg@@@std@@YA$$QAVreg@@AAV1@@Z 004403b0 f i singleReg.obj
 0001:0003f3c0       ??$insert@V?$_List_const_iterator@V?$_List_val@U?$_List_simple_types@Vreg@@@std@@@std@@@std@@@?$list@Vreg@@V?$allocator@Vreg@@@std@@@std@@QAE?AV?$_List_iterator@V?$_List_val@U?$_List_simple_types@Vreg@@@std@@@std@@@1@V?$_List_const_iterator@V?$_List_val@U?$_List_simple_types@Vreg@@@std@@@std@@@1@00@Z 004403c0 f i singleReg.obj
 0001:0003f700       ??0?$_Iterator012@Ubidirectional_iterator_tag@std@@Vreg@@HPBV3@ABV3@U_Iterator_base12@2@@std@@QAE@ABU01@@Z 00440700 f i singleReg.obj
 0001:0003f730       ??0?$_Iterator012@Ubidirectional_iterator_tag@std@@Vreg@@HPBV3@ABV3@U_Iterator_base12@2@@std@@QAE@XZ 00440730 f i singleReg.obj
 0001:0003f750       ??0?$_List_alloc@$0A@U?$_List_base_types@Vreg@@V?$allocator@Vreg@@@std@@@std@@@std@@QAE@ABV?$allocator@Vreg@@@1@@Z 00440750 f i singleReg.obj
 0001:0003f820       ??0?$_List_buy@Vreg@@V?$allocator@Vreg@@@std@@@std@@QAE@ABV?$allocator@Vreg@@@1@@Z 00440820 f i singleReg.obj
 0001:0003f850       ??0?$_List_const_iterator@V?$_List_val@U?$_List_simple_types@Vreg@@@std@@@std@@@std@@QAE@ABV01@@Z 00440850 f i singleReg.obj
 0001:0003f880       ??0?$_List_const_iterator@V?$_List_val@U?$_List_simple_types@Vreg@@@std@@@std@@@std@@QAE@PAU?$_List_node@Vreg@@PAX@1@PBV?$_List_val@U?$_List_simple_types@Vreg@@@std@@@1@@Z 00440880 f i singleReg.obj
 0001:0003f8b0       ??0?$_List_iterator@V?$_List_val@U?$_List_simple_types@Vreg@@@std@@@std@@@std@@QAE@ABV01@@Z 004408b0 f i singleReg.obj
 0001:0003f8e0       ??0?$_List_iterator@V?$_List_val@U?$_List_simple_types@Vreg@@@std@@@std@@@std@@QAE@PAU?$_List_node@Vreg@@PAX@1@PBV?$_List_val@U?$_List_simple_types@Vreg@@@std@@@1@@Z 004408e0 f i singleReg.obj
 0001:0003f910       ??0?$_List_unchecked_const_iterator@V?$_List_val@U?$_List_simple_types@Vreg@@@std@@@std@@U_Iterator_base0@2@@std@@QAE@PAU?$_List_node@Vreg@@PAX@1@PBV?$_List_val@U?$_List_simple_types@Vreg@@@std@@@1@@Z 00440910 f i singleReg.obj
 0001:0003f940       ??0?$_List_unchecked_const_iterator@V?$_List_val@U?$_List_simple_types@Vreg@@@std@@@std@@U_Iterator_base12@2@@std@@QAE@ABV01@@Z 00440940 f i singleReg.obj
 0001:0003f980       ??0?$_List_unchecked_const_iterator@V?$_List_val@U?$_List_simple_types@Vreg@@@std@@@std@@U_Iterator_base12@2@@std@@QAE@PAU?$_List_node@Vreg@@PAX@1@PBV?$_List_val@U?$_List_simple_types@Vreg@@@std@@@1@@Z 00440980 f i singleReg.obj
 0001:0003fa00       ??0?$_List_unchecked_iterator@V?$_List_val@U?$_List_simple_types@Vreg@@@std@@@std@@@std@@QAE@PAU?$_List_node@Vreg@@PAX@1@PBV?$_List_val@U?$_List_simple_types@Vreg@@@std@@@1@@Z 00440a00 f i singleReg.obj
 0001:0003fa30       ??0?$_List_val@U?$_List_simple_types@Vreg@@@std@@@std@@QAE@XZ 00440a30 f i singleReg.obj
 0001:0003fa70       ??0?$_Wrap_alloc@V?$allocator@U?$_List_node@Vreg@@PAX@std@@@std@@@std@@QAE@ABV?$allocator@U?$_List_node@Vreg@@PAX@std@@@1@@Z 00440a70 f i singleReg.obj
 0001:0003faa0       ??0?$_Wrap_alloc@V?$allocator@U?$_List_node@Vreg@@PAX@std@@@std@@@std@@QAE@XZ 00440aa0 f i singleReg.obj
 0001:0003fac0       ??0?$allocator@U?$_List_node@Vreg@@PAX@std@@@std@@QAE@ABV01@@Z 00440ac0 f i singleReg.obj
 0001:0003fae0       ??0?$allocator@U?$_List_node@Vreg@@PAX@std@@@std@@QAE@XZ 00440ae0 f i singleReg.obj
 0001:0003fb00       ??0?$allocator@Vreg@@@std@@QAE@XZ 00440b00 f i singleReg.obj
 0001:0003fb20       ??0?$list@Vreg@@V?$allocator@Vreg@@@std@@@std@@QAE@ABV01@@Z 00440b20 f i singleReg.obj
 0001:0003fcb0       ??0?$list@Vreg@@V?$allocator@Vreg@@@std@@@std@@QAE@XZ 00440cb0 f i singleReg.obj
 0001:0003fce0       ??0clientIPC@@QAE@XZ       00440ce0 f i singleReg.obj
 0001:0003fd00       ??0reg@@QAE@II@Z           00440d00 f i singleReg.obj
 0001:0003fd30       ??1?$_Iterator012@Ubidirectional_iterator_tag@std@@Vreg@@HPBV3@ABV3@U_Iterator_base12@2@@std@@QAE@XZ 00440d30 f i singleReg.obj
 0001:0003fd50       ??1?$_List_alloc@$0A@U?$_List_base_types@Vreg@@V?$allocator@Vreg@@@std@@@std@@@std@@QAE@XZ 00440d50 f i singleReg.obj
 0001:0003fd90       ??1?$_List_buy@Vreg@@V?$allocator@Vreg@@@std@@@std@@QAE@XZ 00440d90 f i singleReg.obj
 0001:0003fdb0       ??1?$_List_const_iterator@V?$_List_val@U?$_List_simple_types@Vreg@@@std@@@std@@@std@@QAE@XZ 00440db0 f i singleReg.obj
 0001:0003fdd0       ??1?$_List_iterator@V?$_List_val@U?$_List_simple_types@Vreg@@@std@@@std@@@std@@QAE@XZ 00440dd0 f i singleReg.obj
 0001:0003fdf0       ??1?$_List_unchecked_const_iterator@V?$_List_val@U?$_List_simple_types@Vreg@@@std@@@std@@U_Iterator_base12@2@@std@@QAE@XZ 00440df0 f i singleReg.obj
 0001:0003fe10       ??1?$_List_val@U?$_List_simple_types@Vreg@@@std@@@std@@QAE@XZ 00440e10 f i singleReg.obj
 0001:0003fe30       ??1?$list@Vreg@@V?$allocator@Vreg@@@std@@@std@@QAE@XZ 00440e30 f i singleReg.obj
 0001:0003fe60       ??4?$_Iterator012@Ubidirectional_iterator_tag@std@@Vreg@@HPBV3@ABV3@U_Iterator_base12@2@@std@@QAEAAU01@ABU01@@Z 00440e60 f i singleReg.obj
 0001:0003fe90       ??4?$_List_const_iterator@V?$_List_val@U?$_List_simple_types@Vreg@@@std@@@std@@@std@@QAEAAV01@ABV01@@Z 00440e90 f i singleReg.obj
 0001:0003fec0       ??4?$_List_iterator@V?$_List_val@U?$_List_simple_types@Vreg@@@std@@@std@@@std@@QAEAAV01@ABV01@@Z 00440ec0 f i singleReg.obj
 0001:0003fef0       ??4?$_List_unchecked_const_iterator@V?$_List_val@U?$_List_simple_types@Vreg@@@std@@@std@@U_Iterator_base12@2@@std@@QAEAAV01@ABV01@@Z 00440ef0 f i singleReg.obj
 0001:0003ff30       ??8?$_List_const_iterator@V?$_List_val@U?$_List_simple_types@Vreg@@@std@@@std@@@std@@QBE_NABV01@@Z 00440f30 f i singleReg.obj
 0001:00040020       ??9?$_List_const_iterator@V?$_List_val@U?$_List_simple_types@Vreg@@@std@@@std@@@std@@QBE_NABV01@@Z 00441020 f i singleReg.obj
 0001:00040070       ??9reg@@QBE_NABV0@@Z       00441070 f i singleReg.obj
 0001:000400b0       ??C?$_List_iterator@V?$_List_val@U?$_List_simple_types@Vreg@@@std@@@std@@@std@@QBEPAVreg@@XZ 004410b0 f i singleReg.obj
 0001:000400e0       ??C?$_List_unchecked_const_iterator@V?$_List_val@U?$_List_simple_types@Vreg@@@std@@@std@@U_Iterator_base12@2@@std@@QBEPBVreg@@XZ 004410e0 f i singleReg.obj
 0001:00040110       ??D?$_List_const_iterator@V?$_List_val@U?$_List_simple_types@Vreg@@@std@@@std@@@std@@QBEABVreg@@XZ 00441110 f i singleReg.obj
 0001:000401f0       ??D?$_List_iterator@V?$_List_val@U?$_List_simple_types@Vreg@@@std@@@std@@@std@@QBEAAVreg@@XZ 004411f0 f i singleReg.obj
 0001:00040210       ??D?$_List_unchecked_const_iterator@V?$_List_val@U?$_List_simple_types@Vreg@@@std@@@std@@U_Iterator_base12@2@@std@@QBEABVreg@@XZ 00441210 f i singleReg.obj
 0001:00040230       ??E?$_List_const_iterator@V?$_List_val@U?$_List_simple_types@Vreg@@@std@@@std@@@std@@QAE?AV01@H@Z 00441230 f i singleReg.obj
 0001:000402e0       ??E?$_List_const_iterator@V?$_List_val@U?$_List_simple_types@Vreg@@@std@@@std@@@std@@QAEAAV01@XZ 004412e0 f i singleReg.obj
 0001:000403d0       ??E?$_List_iterator@V?$_List_val@U?$_List_simple_types@Vreg@@@std@@@std@@@std@@QAEAAV01@XZ 004413d0 f i singleReg.obj
 0001:000403f0       ??F?$_List_const_iterator@V?$_List_val@U?$_List_simple_types@Vreg@@@std@@@std@@@std@@QAEAAV01@XZ 004413f0 f i singleReg.obj
 0001:000404e0       ??F?$_List_iterator@V?$_List_val@U?$_List_simple_types@Vreg@@@std@@@std@@@std@@QAEAAV01@XZ 004414e0 f i singleReg.obj
 0001:00040500       ??F?$_List_unchecked_const_iterator@V?$_List_val@U?$_List_simple_types@Vreg@@@std@@@std@@U_Iterator_base0@2@@std@@QAEAAV01@XZ 00441500 f i singleReg.obj
 0001:00040530       ??_GsingleReg@@UAEPAXI@Z   00441530 f i singleReg.obj
 0001:00040530       ??_EsingleReg@@UAEPAXI@Z   00441530 f i singleReg.obj
 0001:00040570       ?_Alloc_proxy@?$_List_alloc@$0A@U?$_List_base_types@Vreg@@V?$allocator@Vreg@@@std@@@std@@@std@@QAEXXZ 00441570 f i singleReg.obj
 0001:000405d0       ?_Buyheadnode@?$_List_alloc@$0A@U?$_List_base_types@Vreg@@V?$allocator@Vreg@@@std@@@std@@@std@@QAEPAU?$_List_node@Vreg@@PAX@2@XZ 004415d0 f i singleReg.obj
 0001:000405f0       ?_Buynode0@?$_List_alloc@$0A@U?$_List_base_types@Vreg@@V?$allocator@Vreg@@@std@@@std@@@std@@QAEPAU?$_List_node@Vreg@@PAX@2@PAU32@0@Z 004415f0 f i singleReg.obj
 0001:00040760       ?_Free_proxy@?$_List_alloc@$0A@U?$_List_base_types@Vreg@@V?$allocator@Vreg@@@std@@@std@@@std@@QAEXXZ 00441760 f i singleReg.obj
 0001:000407c0       ?_Freeheadnode@?$_List_alloc@$0A@U?$_List_base_types@Vreg@@V?$allocator@Vreg@@@std@@@std@@@std@@QAEXPAU?$_List_node@Vreg@@PAX@2@@Z 004417c0 f i singleReg.obj
 0001:00040860       ?_Freenode@?$_List_buy@Vreg@@V?$allocator@Vreg@@@std@@@std@@QAEXPAU?$_List_node@Vreg@@PAX@2@@Z 00441860 f i singleReg.obj
 0001:00040930       ?_Getal@?$_List_alloc@$0A@U?$_List_base_types@Vreg@@V?$allocator@Vreg@@@std@@@std@@@std@@QBE?AU?$_Wrap_alloc@V?$allocator@U?$_List_node@Vreg@@PAX@std@@@std@@@2@XZ 00441930 f i singleReg.obj
 0001:00040950       ?_Incsize@?$list@Vreg@@V?$allocator@Vreg@@@std@@@std@@QAEXI@Z 00441950 f i singleReg.obj
 0001:000409a0       ?_Make_iter@?$list@Vreg@@V?$allocator@Vreg@@@std@@@std@@QBE?AV?$_List_iterator@V?$_List_val@U?$_List_simple_types@Vreg@@@std@@@std@@@2@V?$_List_const_iterator@V?$_List_val@U?$_List_simple_types@Vreg@@@std@@@std@@@2@@Z 004419a0 f i singleReg.obj
 0001:000409e0       ?_Mynode@?$_List_unchecked_const_iterator@V?$_List_val@U?$_List_simple_types@Vreg@@@std@@@std@@U_Iterator_base0@2@@std@@QBEPAU?$_List_node@Vreg@@PAX@2@XZ 004419e0 f i singleReg.obj
 0001:00040a00       ?_Mynode@?$_List_unchecked_const_iterator@V?$_List_val@U?$_List_simple_types@Vreg@@@std@@@std@@U_Iterator_base12@2@@std@@QBEPAU?$_List_node@Vreg@@PAX@2@XZ 00441a00 f i singleReg.obj
 0001:00040a20       ?_Myval@?$_List_val@U?$_List_simple_types@Vreg@@@std@@@std@@SAAAVreg@@PAU?$_List_node@Vreg@@PAX@2@@Z 00441a20 f i singleReg.obj
 0001:00040a30       ?_Nextnode@?$_List_val@U?$_List_simple_types@Vreg@@@std@@@std@@SAAAPAU?$_List_node@Vreg@@PAX@2@PAU32@@Z 00441a30 f i singleReg.obj
 0001:00040a40       ?_Orphan_ptr@?$list@Vreg@@V?$allocator@Vreg@@@std@@@std@@QBEXAAV12@PAU?$_List_node@Vreg@@PAX@2@@Z 00441a40 f i singleReg.obj
 0001:00040b40       ?_Prevnode@?$_List_val@U?$_List_simple_types@Vreg@@@std@@@std@@SAAAPAU?$_List_node@Vreg@@PAX@2@PAU32@@Z 00441b40 f i singleReg.obj
 0001:00040b50       ?_Tidy@?$list@Vreg@@V?$allocator@Vreg@@@std@@@std@@QAEXXZ 00441b50 f i singleReg.obj
 0001:00040b70       ?_Unchecked@?$_List_const_iterator@V?$_List_val@U?$_List_simple_types@Vreg@@@std@@@std@@@std@@QBE?AV?$_List_unchecked_const_iterator@V?$_List_val@U?$_List_simple_types@Vreg@@@std@@@std@@U_Iterator_base0@2@@2@XZ 00441b70 f i singleReg.obj
 0001:00040bb0       ?_Unchecked_end@?$list@Vreg@@V?$allocator@Vreg@@@std@@@std@@QAE?AV?$_List_unchecked_iterator@V?$_List_val@U?$_List_simple_types@Vreg@@@std@@@std@@@2@XZ 00441bb0 f i singleReg.obj
 0001:00040be0       ?_Unchecked_erase@?$list@Vreg@@V?$allocator@Vreg@@@std@@@std@@QAEXV?$_List_unchecked_const_iterator@V?$_List_val@U?$_List_simple_types@Vreg@@@std@@@std@@U_Iterator_base0@2@@2@@Z 00441be0 f i singleReg.obj
 0001:00040c90       ?_Unlinknode@?$list@Vreg@@V?$allocator@Vreg@@@std@@@std@@QAEPAU?$_List_node@Vreg@@PAX@2@V?$_List_const_iterator@V?$_List_val@U?$_List_simple_types@Vreg@@@std@@@std@@@2@@Z 00441c90 f i singleReg.obj
 0001:00040de0       ?allocate@?$_Wrap_alloc@V?$allocator@U?$_List_node@Vreg@@PAX@std@@@std@@@std@@QAEPAU?$_List_node@Vreg@@PAX@2@I@Z 00441de0 f i singleReg.obj
 0001:00040e00       ?allocate@?$allocator@U?$_List_node@Vreg@@PAX@std@@@std@@QAEPAU?$_List_node@Vreg@@PAX@2@I@Z 00441e00 f i singleReg.obj
 0001:00040e30       ?begin@?$list@Vreg@@V?$allocator@Vreg@@@std@@@std@@QAE?AV?$_List_iterator@V?$_List_val@U?$_List_simple_types@Vreg@@@std@@@std@@@2@XZ 00441e30 f i singleReg.obj
 0001:00040e70       ?begin@?$list@Vreg@@V?$allocator@Vreg@@@std@@@std@@QBE?AV?$_List_const_iterator@V?$_List_val@U?$_List_simple_types@Vreg@@@std@@@std@@@2@XZ 00441e70 f i singleReg.obj
 0001:00040eb0       ?clear@?$list@Vreg@@V?$allocator@Vreg@@@std@@@std@@QAEXXZ 00441eb0 f i singleReg.obj
 0001:00040f70       ?deallocate@?$_Wrap_alloc@V?$allocator@U?$_List_node@Vreg@@PAX@std@@@std@@@std@@QAEXPAU?$_List_node@Vreg@@PAX@2@I@Z 00441f70 f i singleReg.obj
 0001:00040fa0       ?deallocate@?$allocator@U?$_List_node@Vreg@@PAX@std@@@std@@QAEXPAU?$_List_node@Vreg@@PAX@2@I@Z 00441fa0 f i singleReg.obj
 0001:00040fc0       ?end@?$list@Vreg@@V?$allocator@Vreg@@@std@@@std@@QAE?AV?$_List_iterator@V?$_List_val@U?$_List_simple_types@Vreg@@@std@@@std@@@2@XZ 00441fc0 f i singleReg.obj
 0001:00040ff0       ?end@?$list@Vreg@@V?$allocator@Vreg@@@std@@@std@@QBE?AV?$_List_const_iterator@V?$_List_val@U?$_List_simple_types@Vreg@@@std@@@std@@@2@XZ 00441ff0 f i singleReg.obj
 0001:00041020       ?erase@?$list@Vreg@@V?$allocator@Vreg@@@std@@@std@@QAE?AV?$_List_iterator@V?$_List_val@U?$_List_simple_types@Vreg@@@std@@@std@@@2@V?$_List_const_iterator@V?$_List_val@U?$_List_simple_types@Vreg@@@std@@@std@@@2@@Z 00442020 f i singleReg.obj
 0001:00041110       ?max_size@?$_Wrap_alloc@V?$allocator@U?$_List_node@Vreg@@PAX@std@@@std@@@std@@QBEIXZ 00442110 f i singleReg.obj
 0001:00041130       ?max_size@?$allocator@U?$_List_node@Vreg@@PAX@std@@@std@@QBEIXZ 00442130 f i singleReg.obj
 0001:00041150       ?max_size@?$allocator_traits@V?$allocator@U?$_List_node@Vreg@@PAX@std@@@std@@@std@@SAIABV?$allocator@U?$_List_node@Vreg@@PAX@std@@@2@@Z 00442150 f i singleReg.obj
 0001:00041160       ?max_size@?$list@Vreg@@V?$allocator@Vreg@@@std@@@std@@QBEIXZ 00442160 f i singleReg.obj
 0001:00041190       ?pointer_to@?$pointer_traits@PAVreg@@@std@@SAPAVreg@@AAV3@@Z 00442190 f i singleReg.obj
 0001:000411b0       ?pointer_to@?$pointer_traits@PBVreg@@@std@@SAPBVreg@@ABV3@@Z 004421b0 f i singleReg.obj
 0001:000411d0       ?push_back@?$list@Vreg@@V?$allocator@Vreg@@@std@@@std@@QAEX$$QAVreg@@@Z 004421d0 f i singleReg.obj
 0001:00041220       ?select_on_container_copy_construction@?$_Wrap_alloc@V?$allocator@U?$_List_node@Vreg@@PAX@std@@@std@@@std@@QBE?AU12@XZ 00442220 f i singleReg.obj
 0001:00041260       ?select_on_container_copy_construction@?$allocator@U?$_List_node@Vreg@@PAX@std@@@std@@QBE?AV12@XZ 00442260 f i singleReg.obj
 0001:00041290       ?select_on_container_copy_construction@?$allocator_traits@V?$allocator@U?$_List_node@Vreg@@PAX@std@@@std@@@std@@SA?AV?$allocator@U?$_List_node@Vreg@@PAX@std@@@2@ABV32@@Z 00442290 f i singleReg.obj
 0001:000412b0       ?size@?$list@Vreg@@V?$allocator@Vreg@@@std@@@std@@QBEIXZ 004422b0 f i singleReg.obj
 0001:00042170       ??0slink@@QAE@PAVQWidget@@@Z 00443170 f   slink.obj
 0001:000437e0       ??1slink@@UAE@XZ           004447e0 f   slink.obj
 0001:00043a20       ?timerEvent@slink@@MAEXPAVQTimerEvent@@@Z 00444a20 f   slink.obj
 0001:00043b20       ?cccInfoRevertive@slink@@EAEXHHABV?$basic_string@DU?$char_traits@D@std@@V?$allocator@D@2@@std@@@Z 00444b20 f   slink.obj
 0001:00043cf0       ?cccRtrRevertive@slink@@EAEXHHH@Z 00444cf0 f   slink.obj
 0001:00043ea0       ?cccGpiRevertive@slink@@EAEXHH_N@Z 00444ea0 f   slink.obj
 0001:00044050       ?cccDatabaseChange@slink@@EAEXHHH@Z 00445050 f   slink.obj
 0001:00044120       ?distributeDatabaseModify@slink@@AAEXPAVfabian_client@@IIIABVQString@@@Z 00445120 f   slink.obj
 0001:00044430       ?cccDisconnected@slink@@EAEXXZ 00445430 f   slink.obj
 0001:00044450       ?deferredClose@slink@@AAEXXZ 00445450 f   slink.obj
 0001:00044480       ?dumpServerList@slink@@AAEXXZ 00445480 f   slink.obj
 0001:00044620       ?addServer@slink@@AAE_NABVQHostAddress@@I_N@Z 00445620 f   slink.obj
 0001:00044970       ?deleteServer@slink@@AAE_NI@Z 00445970 f   slink.obj
 0001:00044a90       ?loadBlackList@slink@@AAEXXZ 00445a90 f   slink.obj
 0001:00044d90       ?loadWhiteList@slink@@AAEXXZ 00445d90 f   slink.obj
 0001:00045090       ?distributeRevertive@slink@@AAEXHHABVQString@@@Z 00446090 f   slink.obj
 0001:000451c0       ?nextPoll@slink@@AAEX_N@Z  004461c0 f   slink.obj
 0001:00045750       ?data@slink@@EAEXPAVfabian_client@@ABVQString@@@Z 00446750 f   slink.obj
 0001:000457f0       ?disconnected@slink@@EAEXPAVfabian_client@@@Z 004467f0 f   slink.obj
 0001:000458a0       ?connected@slink@@EAEXPAVfabian_client@@ABVQHostAddress@@G@Z 004468a0 f   slink.obj
 0001:00045960       ?connectedUser@slink@@EAEXPAVfabian_client@@ABVQString@@11I@Z 00446960 f   slink.obj
 0001:00045a80       ?encrypted@slink@@EAEXPAVfabian_client@@_N@Z 00446a80 f   slink.obj
 0001:00045a90       ?routerName@slink@@EAEXPAVfabian_client@@III@Z 00446a90 f   slink.obj
 0001:00045e30       ?listRouter@slink@@EAEXPAVfabian_client@@IIII@Z 00446e30 f   slink.obj
 0001:00046250       ?infoRegister@slink@@EAEXPAVfabian_client@@III@Z 00447250 f   slink.obj
 0001:00046840       ?infoUnregister@slink@@EAEXPAVfabian_client@@I@Z 00447840 f   slink.obj
 0001:00046930       ?gpiSwitch@slink@@EAEXPAVfabian_client@@III@Z 00447930 f   slink.obj
 0001:00046980       ?infoWrite@slink@@EAEXPAVfabian_client@@IIABVQString@@@Z 00447980 f   slink.obj
 0001:00046a20       ?routerCrosspoint@slink@@EAEXPAVfabian_client@@IHIABVQString@@@Z 00447a20 f   slink.obj
 0001:00046ac0       ?gpiLock@slink@@EAEXPAVfabian_client@@IIII@Z 00447ac0 f   slink.obj
 0001:00046b10       ?routerLock@slink@@EAEXPAVfabian_client@@IIII@Z 00447b10 f   slink.obj
 0001:00046b60       ?infoLock@slink@@EAEXPAVfabian_client@@IIII@Z 00447b60 f   slink.obj
 0001:00046bb0       ?gpiPoll@slink@@EAEXPAVfabian_client@@III@Z 00447bb0 f   slink.obj
 0001:00046be0       ?routerPoll@slink@@EAEXPAVfabian_client@@III@Z 00447be0 f   slink.obj
 0001:00046c10       ?infoPoll@slink@@EAEXPAVfabian_client@@III@Z 00447c10 f   slink.obj
 0001:00046c40       ?infoReg@slink@@AAEXPAVfabian_client@@III@Z 00447c40 f   slink.obj
 0001:00046c70       ?databaseModify@slink@@EAEXPAVfabian_client@@IIIABVQString@@@Z 00447c70 f   slink.obj
 0001:00046d30       ?checksumDatabase@slink@@EAEXPAVfabian_client@@IIII@Z 00447d30 f   slink.obj
 0001:00047250       ?getDevProps@slink@@EAEXPAVfabian_client@@I@Z 00448250 f   slink.obj
 0001:00047660       ?doPoll@slink@@AAEXPAVfabian_client@@DIII@Z 00448660 f   slink.obj
 0001:00048bd0       ?about@slink@@AAEXXZ       00449bd0 f   slink.obj
 0001:00048f20       ?doHelp@slink@@AAEXXZ      00449f20 f   slink.obj
 0001:00049150       ?doUserEdit@slink@@AAEXXZ  0044a150 f   slink.obj
 0001:00049230       ?doServerConfig@slink@@AAEXXZ 0044a230 f   slink.obj
 0001:000493d0       ?doWhiteBlackListEdit@slink@@AAEXXZ 0044a3d0 f   slink.obj
 0001:00049460       ?listClientContextMenu@slink@@AAEXABVQPoint@@@Z 0044a460 f   slink.obj
 0001:00049570       ?userDeleted@slink@@AAEXABVQString@@@Z 0044a570 f   slink.obj
 0001:00049810       ?userAdded@slink@@AAEXPAVuser@@@Z 0044a810 f   slink.obj
 0001:00049850       ?clearPollQueue@slink@@AAEXXZ 0044a850 f   slink.obj
 0001:00049970       ?doLogging@slink@@AAEX_N@Z 0044a970 f   slink.obj
 0001:0004bb40       ??$?0AAIAAPAVfabianServer@@X@?$pair@IPAVfabianServer@@@std@@QAE@AAIAAPAVfabianServer@@@Z 0044cb40 f i slink.obj
 0001:0004bb90       ??$?0AAV?$_Tree_const_iterator@V?$_Tree_val@U?$_Tree_simple_types@VQString@@@std@@@std@@@std@@_NX@?$pair@V?$_Tree_const_iterator@V?$_Tree_val@U?$_Tree_simple_types@VQString@@@std@@@std@@@std@@_N@std@@QAE@AAV?$_Tree_const_iterator@V?$_Tree_val@U?$_Tree_simple_types@VQString@@@std@@@std@@@1@$$QA_N@Z 0044cb90 f i slink.obj
 0001:0004bc20       ??$?0AAV?$_Tree_const_iterator@V?$_Tree_val@U?$_Tree_simple_types@VpollCommand@@@std@@@std@@@std@@AAV01@X@?$pair@V?$_Tree_const_iterator@V?$_Tree_val@U?$_Tree_simple_types@VpollCommand@@@std@@@std@@@std@@V12@@std@@QAE@AAV?$_Tree_const_iterator@V?$_Tree_val@U?$_Tree_simple_types@VpollCommand@@@std@@@std@@@1@0@Z 0044cc20 f i slink.obj
 0001:0004bcc0       ??$?0AAV?$_Tree_const_iterator@V?$_Tree_val@U?$_Tree_simple_types@VpollCommand@@@std@@@std@@@std@@_NX@?$pair@V?$_Tree_const_iterator@V?$_Tree_val@U?$_Tree_simple_types@VpollCommand@@@std@@@std@@@std@@_N@std@@QAE@AAV?$_Tree_const_iterator@V?$_Tree_val@U?$_Tree_simple_types@VpollCommand@@@std@@@std@@@1@$$QA_N@Z 0044ccc0 f i slink.obj
 0001:0004bd50       ??$?0AAV?$_Tree_iterator@V?$_Tree_val@U?$_Tree_simple_types@U?$pair@$$CBIPAVfabianServer@@@std@@@std@@@std@@@std@@_NX@?$pair@V?$_Tree_iterator@V?$_Tree_val@U?$_Tree_simple_types@U?$pair@$$CBIPAVfabianServer@@@std@@@std@@@std@@@std@@_N@std@@QAE@AAV?$_Tree_iterator@V?$_Tree_val@U?$_Tree_simple_types@U?$pair@$$CBIPAVfabianServer@@@std@@@std@@@std@@@1@$$QA_N@Z 0044cd50 f i slink.obj
 0001:0004bde0       ??$?0IPAVfabianServer@@X@?$pair@$$CBIPAVfabianServer@@@std@@QAE@$$QAU?$pair@IPAVfabianServer@@@1@@Z 0044cde0 f i slink.obj
 0001:0004be30       ??$?0U?$_Tree_node@U?$pair@$$CBIPAVfabianServer@@@std@@PAX@std@@@?$allocator@U_Container_proxy@std@@@std@@QAE@ABV?$allocator@U?$_Tree_node@U?$pair@$$CBIPAVfabianServer@@@std@@PAX@std@@@1@@Z 0044ce30 f i slink.obj
 0001:0004be50       ??$?0U?$_Tree_node@VQString@@PAX@std@@@?$allocator@U_Container_proxy@std@@@std@@QAE@ABV?$allocator@U?$_Tree_node@VQString@@PAX@std@@@1@@Z 0044ce50 f i slink.obj
 0001:0004be70       ??$?0U?$_Tree_node@VdbEntry@@PAX@std@@@?$allocator@U_Container_proxy@std@@@std@@QAE@ABV?$allocator@U?$_Tree_node@VdbEntry@@PAX@std@@@1@@Z 0044ce70 f i slink.obj
 0001:0004be90       ??$?0U?$_Tree_node@VpollCommand@@PAX@std@@@?$allocator@U_Container_proxy@std@@@std@@QAE@ABV?$allocator@U?$_Tree_node@VpollCommand@@PAX@std@@@1@@Z 0044ce90 f i slink.obj
 0001:0004beb0       ??$?0U?$_Wrap_alloc@V?$allocator@U?$_Tree_node@U?$pair@$$CBIPAVfabianServer@@@std@@PAX@std@@@std@@@std@@@?$_Wrap_alloc@V?$allocator@U_Container_proxy@std@@@std@@@std@@QAE@ABU?$_Wrap_alloc@V?$allocator@U?$_Tree_node@U?$pair@$$CBIPAVfabianServer@@@std@@PAX@std@@@std@@@1@@Z 0044ceb0 f i slink.obj
 0001:0004bee0       ??$?0U?$_Wrap_alloc@V?$allocator@U?$_Tree_node@VQString@@PAX@std@@@std@@@std@@@?$_Wrap_alloc@V?$allocator@U_Container_proxy@std@@@std@@@std@@QAE@ABU?$_Wrap_alloc@V?$allocator@U?$_Tree_node@VQString@@PAX@std@@@std@@@1@@Z 0044cee0 f i slink.obj
 0001:0004bf10       ??$?0U?$_Wrap_alloc@V?$allocator@U?$_Tree_node@VdbEntry@@PAX@std@@@std@@@std@@@?$_Wrap_alloc@V?$allocator@U_Container_proxy@std@@@std@@@std@@QAE@ABU?$_Wrap_alloc@V?$allocator@U?$_Tree_node@VdbEntry@@PAX@std@@@std@@@1@@Z 0044cf10 f i slink.obj
 0001:0004bf40       ??$?0U?$_Wrap_alloc@V?$allocator@U?$_Tree_node@VpollCommand@@PAX@std@@@std@@@std@@@?$_Wrap_alloc@V?$allocator@U_Container_proxy@std@@@std@@@std@@QAE@ABU?$_Wrap_alloc@V?$allocator@U?$_Tree_node@VpollCommand@@PAX@std@@@std@@@1@@Z 0044cf40 f i slink.obj
 0001:0004bf70       ??$?0U?$_Wrap_alloc@V?$allocator@VpollCommand@@@std@@@std@@@?$_Wrap_alloc@V?$allocator@PAVpollCommand@@@std@@@std@@QAE@ABU?$_Wrap_alloc@V?$allocator@VpollCommand@@@std@@@1@@Z 0044cf70 f i slink.obj
 0001:0004bfa0       ??$?0V?$_Tree_const_iterator@V?$_Tree_val@U?$_Tree_simple_types@VQString@@@std@@@std@@@std@@_NX@?$pair@V?$_Tree_const_iterator@V?$_Tree_val@U?$_Tree_simple_types@VQString@@@std@@@std@@@std@@_N@std@@QAE@$$QAV?$_Tree_const_iterator@V?$_Tree_val@U?$_Tree_simple_types@VQString@@@std@@@std@@@1@$$QA_N@Z 0044cfa0 f i slink.obj
 0001:0004c030       ??$?0V?$_Tree_const_iterator@V?$_Tree_val@U?$_Tree_simple_types@VpollCommand@@@std@@@std@@@std@@_NX@?$pair@V?$_Tree_const_iterator@V?$_Tree_val@U?$_Tree_simple_types@VpollCommand@@@std@@@std@@@std@@_N@std@@QAE@$$QAV?$_Tree_const_iterator@V?$_Tree_val@U?$_Tree_simple_types@VpollCommand@@@std@@@std@@@1@$$QA_N@Z 0044d030 f i slink.obj
 0001:0004c0c0       ??$?0V?$_Tree_iterator@V?$_Tree_val@U?$_Tree_simple_types@U?$pair@$$CBIPAVfabianServer@@@std@@@std@@@std@@@std@@_NX@?$pair@V?$_Tree_iterator@V?$_Tree_val@U?$_Tree_simple_types@U?$pair@$$CBIPAVfabianServer@@@std@@@std@@@std@@@std@@_N@std@@QAE@$$QAV?$_Tree_iterator@V?$_Tree_val@U?$_Tree_simple_types@U?$pair@$$CBIPAVfabianServer@@@std@@@std@@@std@@@1@$$QA_N@Z 0044d0c0 f i slink.obj
 0001:0004c150       ??$?0VpollCommand@@@?$allocator@PAVpollCommand@@@std@@QAE@ABV?$allocator@VpollCommand@@@1@@Z 0044d150 f i slink.obj
 0001:0004c170       ??$_Allocate@PAVpollCommand@@@std@@YAPAPAVpollCommand@@IPAPAV1@@Z 0044d170 f i slink.obj
 0001:0004c1d0       ??$_Allocate@U?$_List_node@PAVuser@@PAX@std@@@std@@YAPAU?$_List_node@PAVuser@@PAX@0@IPAU10@@Z 0044d1d0 f i slink.obj
 0001:0004c220       ??$_Allocate@U?$_Tree_node@U?$pair@$$CBIPAVfabianServer@@@std@@PAX@std@@@std@@YAPAU?$_Tree_node@U?$pair@$$CBIPAVfabianServer@@@std@@PAX@0@IPAU10@@Z 0044d220 f i slink.obj
 0001:0004c270       ??$_Allocate@U?$_Tree_node@VQString@@PAX@std@@@std@@YAPAU?$_Tree_node@VQString@@PAX@0@IPAU10@@Z 0044d270 f i slink.obj
 0001:0004c2c0       ??$_Allocate@U?$_Tree_node@VpollCommand@@PAX@std@@@std@@YAPAU?$_Tree_node@VpollCommand@@PAX@0@IPAU10@@Z 0044d2c0 f i slink.obj
 0001:0004c310       ??$_Allocate@VpollCommand@@@std@@YAPAVpollCommand@@IPAV1@@Z 0044d310 f i slink.obj
 0001:0004c360       ??$_Buynode@ABVpollCommand@@@?$_Tree_buy@VpollCommand@@V?$allocator@VpollCommand@@@std@@@std@@QAEPAU?$_Tree_node@VpollCommand@@PAX@1@ABVpollCommand@@@Z 0044d360 f i slink.obj
 0001:0004c490       ??$_Buynode@U?$pair@IPAVfabianServer@@@std@@@?$_Tree_buy@U?$pair@$$CBIPAVfabianServer@@@std@@V?$allocator@U?$pair@$$CBIPAVfabianServer@@@std@@@2@@std@@QAEPAU?$_Tree_node@U?$pair@$$CBIPAVfabianServer@@@std@@PAX@1@$$QAU?$pair@IPAVfabianServer@@@1@@Z 0044d490 f i slink.obj
 0001:0004c5c0       ??$_Buynode@VQString@@@?$_Tree_buy@VQString@@V?$allocator@VQString@@@std@@@std@@QAEPAU?$_Tree_node@VQString@@PAX@1@$$QAVQString@@@Z 0044d5c0 f i slink.obj
 0001:0004c6f0       ??$_Buynode_if_nil@AAU?$pair@$$CBIPAVfabianServer@@@std@@@?$_Tree@V?$_Tmap_traits@IPAVfabianServer@@U?$less@I@std@@V?$allocator@U?$pair@$$CBIPAVfabianServer@@@std@@@3@$0A@@std@@@std@@IAEPAU?$_Tree_node@U?$pair@$$CBIPAVfabianServer@@@std@@PAX@1@PAU21@AAU?$pair@$$CBIPAVfabianServer@@@1@@Z 0044d6f0 f i slink.obj
 0001:0004c710       ??$_Buynode_if_nil@ABVpollCommand@@@?$_Tree@V?$_Tset_traits@VpollCommand@@U?$less@VpollCommand@@@std@@V?$allocator@VpollCommand@@@3@$0A@@std@@@std@@IAEPAU?$_Tree_node@VpollCommand@@PAX@1@U_Nil@1@ABVpollCommand@@@Z 0044d710 f i slink.obj
 0001:0004c740       ??$_Buynode_if_nil@VQString@@@?$_Tree@V?$_Tset_traits@VQString@@U?$less@VQString@@@std@@V?$allocator@VQString@@@3@$0A@@std@@@std@@IAEPAU?$_Tree_node@VQString@@PAX@1@U_Nil@1@$$QAVQString@@@Z 0044d740 f i slink.obj
 0001:0004c770       ??$_Debug_lt_pred@U?$less@VQString@@@std@@ABVQString@@ABV3@@std@@YA_NU?$less@VQString@@@0@ABVQString@@1PB_WI@Z 0044d770 f i slink.obj
 0001:0004c810       ??$_Debug_lt_pred@U?$less@VpollCommand@@@std@@ABVpollCommand@@ABV3@@std@@YA_NU?$less@VpollCommand@@@0@ABVpollCommand@@1PB_WI@Z 0044d810 f i slink.obj
 0001:0004c8b0       ??$_Debug_pointer@PAVpollCommand@@@std@@YAXPAPAVpollCommand@@PB_WI@Z 0044d8b0 f i slink.obj
 0001:0004c8e0       ??$_Debug_range2@PAPAVpollCommand@@@std@@YAXPAPAVpollCommand@@0PB_WIUrandom_access_iterator_tag@0@@Z 0044d8e0 f i slink.obj
 0001:0004c950       ??$_Debug_range@PAPAVpollCommand@@@std@@YAXPAPAVpollCommand@@0PB_WI@Z 0044d950 f i slink.obj
 0001:0004c9a0       ??$_Destroy_range@U?$_Wrap_alloc@V?$allocator@PAVpollCommand@@@std@@@std@@@std@@YAXPAPAVpollCommand@@0AAU?$_Wrap_alloc@V?$allocator@PAVpollCommand@@@std@@@0@@Z 0044d9a0 f i slink.obj
 0001:0004c9f0       ??$_Destroy_range@U?$_Wrap_alloc@V?$allocator@PAVpollCommand@@@std@@@std@@@std@@YAXPAPAVpollCommand@@0AAU?$_Wrap_alloc@V?$allocator@PAVpollCommand@@@std@@@0@U_Scalar_ptr_iterator_tag@0@@Z 0044d9f0 f i slink.obj
 0001:0004ca00       ??$_Distance2@V?$_Tree_const_iterator@V?$_Tree_val@U?$_Tree_simple_types@VpollCommand@@@std@@@std@@@std@@I@std@@YAXV?$_Tree_const_iterator@V?$_Tree_val@U?$_Tree_simple_types@VpollCommand@@@std@@@std@@@0@0AAIUbidirectional_iterator_tag@0@@Z 0044da00 f i slink.obj
 0001:0004caa0       ??$_Distance@V?$_Tree_const_iterator@V?$_Tree_val@U?$_Tree_simple_types@VpollCommand@@@std@@@std@@@std@@I@std@@YAXV?$_Tree_const_iterator@V?$_Tree_val@U?$_Tree_simple_types@VpollCommand@@@std@@@std@@@0@0AAI@Z 0044daa0 f i slink.obj
 0001:0004cb80       ??$_Fill_n@PAPAVpollCommand@@IPAV1@@std@@YAPAPAVpollCommand@@PAPAV1@IABQAV1@@Z 0044db80 f i slink.obj
 0001:0004cbc0       ??$_Insert_at@AAU?$pair@$$CBIPAVfabianServer@@@std@@PAU?$_Tree_node@U?$pair@$$CBIPAVfabianServer@@@std@@PAX@2@@?$_Tree@V?$_Tmap_traits@IPAVfabianServer@@U?$less@I@std@@V?$allocator@U?$pair@$$CBIPAVfabianServer@@@std@@@3@$0A@@std@@@std@@IAE?AV?$_Tree_iterator@V?$_Tree_val@U?$_Tree_simple_types@U?$pair@$$CBIPAVfabianServer@@@std@@@std@@@std@@@1@_NPAU?$_Tree_node@U?$pair@$$CBIPAVfabianServer@@@std@@PAX@1@AAU?$pair@$$CBIPAVfabianServer@@@1@1@Z 0044dbc0 f i slink.obj
 0001:0004d110       ??$_Insert_at@ABVpollCommand@@U_Nil@std@@@?$_Tree@V?$_Tset_traits@VpollCommand@@U?$less@VpollCommand@@@std@@V?$allocator@VpollCommand@@@3@$0A@@std@@@std@@IAE?AV?$_Tree_const_iterator@V?$_Tree_val@U?$_Tree_simple_types@VpollCommand@@@std@@@std@@@1@_NPAU?$_Tree_node@VpollCommand@@PAX@1@ABVpollCommand@@U_Nil@1@@Z 0044e110 f i slink.obj
 0001:0004d660       ??$_Insert_at@VQString@@U_Nil@std@@@?$_Tree@V?$_Tset_traits@VQString@@U?$less@VQString@@@std@@V?$allocator@VQString@@@3@$0A@@std@@@std@@IAE?AV?$_Tree_const_iterator@V?$_Tree_val@U?$_Tree_simple_types@VQString@@@std@@@std@@@1@_NPAU?$_Tree_node@VQString@@PAX@1@$$QAVQString@@U_Nil@1@@Z 0044e660 f i slink.obj
 0001:0004dbb0       ??$_Insert_nohint@AAU?$pair@$$CBIPAVfabianServer@@@std@@PAU?$_Tree_node@U?$pair@$$CBIPAVfabianServer@@@std@@PAX@2@@?$_Tree@V?$_Tmap_traits@IPAVfabianServer@@U?$less@I@std@@V?$allocator@U?$pair@$$CBIPAVfabianServer@@@std@@@3@$0A@@std@@@std@@IAE?AU?$pair@V?$_Tree_iterator@V?$_Tree_val@U?$_Tree_simple_types@U?$pair@$$CBIPAVfabianServer@@@std@@@std@@@std@@@std@@_N@1@_NAAU?$pair@$$CBIPAVfabianServer@@@1@PAU?$_Tree_node@U?$pair@$$CBIPAVfabianServer@@@std@@PAX@1@@Z 0044ebb0 f i slink.obj
 0001:0004e190       ??$_Insert_nohint@ABVpollCommand@@U_Nil@std@@@?$_Tree@V?$_Tset_traits@VpollCommand@@U?$less@VpollCommand@@@std@@V?$allocator@VpollCommand@@@3@$0A@@std@@@std@@IAE?AU?$pair@V?$_Tree_const_iterator@V?$_Tree_val@U?$_Tree_simple_types@VpollCommand@@@std@@@std@@@std@@_N@1@_NABVpollCommand@@U_Nil@1@@Z 0044f190 f i slink.obj
 0001:0004e780       ??$_Insert_nohint@VQString@@U_Nil@std@@@?$_Tree@V?$_Tset_traits@VQString@@U?$less@VQString@@@std@@V?$allocator@VQString@@@3@$0A@@std@@@std@@IAE?AU?$pair@V?$_Tree_const_iterator@V?$_Tree_val@U?$_Tree_simple_types@VQString@@@std@@@std@@@std@@_N@1@_N$$QAVQString@@U_Nil@1@@Z 0044f780 f i slink.obj
 0001:0004ed70       ??$_Iter_cat@PAPAVpollCommand@@@std@@YA?AUrandom_access_iterator_tag@0@ABQAPAVpollCommand@@@Z 0044fd70 f i slink.obj
 0001:0004ed90       ??$_Iter_cat@V?$_Tree_const_iterator@V?$_Tree_val@U?$_Tree_simple_types@VpollCommand@@@std@@@std@@@std@@@std@@YA?AUbidirectional_iterator_tag@0@ABV?$_Tree_const_iterator@V?$_Tree_val@U?$_Tree_simple_types@VpollCommand@@@std@@@std@@@0@@Z 0044fd90 f i slink.obj
 0001:0004edb0       ??$_Kfn@$$CBIPAVfabianServer@@@?$_Tmap_traits@IPAVfabianServer@@U?$less@I@std@@V?$allocator@U?$pair@$$CBIPAVfabianServer@@@std@@@3@$0A@@std@@SAABIABU?$pair@$$CBIPAVfabianServer@@@1@@Z 0044fdb0 f i slink.obj
 0001:0004edc0       ??$_Ptr_cat@PAVpollCommand@@PAV1@@std@@YA?AU_Scalar_ptr_iterator_tag@0@PAPAVpollCommand@@0@Z 0044fdc0 f i slink.obj
 0001:0004edd0       ??$_Rechecked@PAPAVpollCommand@@PAPAV1@@std@@YAAAPAPAVpollCommand@@AAPAPAV1@PAPAV1@@Z 0044fdd0 f i slink.obj
 0001:0004edf0       ??$_Unchecked@PAPAVpollCommand@@@std@@YAPAPAVpollCommand@@PAPAV1@@Z 0044fdf0 f i slink.obj
 0001:0004ee00       ??$_Uninit_copy@PAPAVpollCommand@@PAPAV1@U?$_Wrap_alloc@V?$allocator@PAVpollCommand@@@std@@@std@@@std@@YAPAPAVpollCommand@@PAPAV1@00AAU?$_Wrap_alloc@V?$allocator@PAVpollCommand@@@std@@@0@@Z 0044fe00 f i slink.obj
 0001:0004ee50       ??$_Uninit_copy@PAVpollCommand@@PAV1@@std@@YAPAPAVpollCommand@@PAPAV1@00AAU?$_Wrap_alloc@V?$allocator@PAVpollCommand@@@std@@@0@U_Scalar_ptr_iterator_tag@0@@Z 0044fe50 f i slink.obj
 0001:0004eed0       ??$_Uninit_def_fill_n@PAVpollCommand@@IPAV1@@std@@YAXPAPAVpollCommand@@IAAU?$_Wrap_alloc@V?$allocator@PAVpollCommand@@@std@@@0@0U_Scalar_ptr_iterator_tag@0@@Z 0044fed0 f i slink.obj
 0001:0004ef00       ??$_Uninitialized_copy@PAPAVpollCommand@@PAPAV1@U?$_Wrap_alloc@V?$allocator@PAVpollCommand@@@std@@@std@@@std@@YAPAPAVpollCommand@@PAPAV1@00AAU?$_Wrap_alloc@V?$allocator@PAVpollCommand@@@std@@@0@@Z 0044ff00 f i slink.obj
 0001:0004ef60       ??$_Uninitialized_default_fill_n@PAPAVpollCommand@@IU?$_Wrap_alloc@V?$allocator@PAVpollCommand@@@std@@@std@@@std@@YAXPAPAVpollCommand@@IAAU?$_Wrap_alloc@V?$allocator@PAVpollCommand@@@std@@@0@@Z 0044ff60 f i slink.obj
 0001:0004efc0       ??$_Val_type@PAPAVpollCommand@@@std@@YAPAPAVpollCommand@@PAPAV1@@Z 0044ffc0 f i slink.obj
 0001:0004efd0       ??$addressof@$$CBU?$pair@$$CBIPAVfabianServer@@@std@@@std@@YAPBU?$pair@$$CBIPAVfabianServer@@@0@ABU10@@Z 0044ffd0 f i slink.obj
 0001:0004efe0       ??$addressof@$$CBVclientIPC@@@std@@YAPBVclientIPC@@ABV1@@Z 0044ffe0 f i slink.obj
 0001:0004eff0       ??$addressof@$$CBVdbEntry@@@std@@YAPBVdbEntry@@ABV1@@Z 0044fff0 f i slink.obj
 0001:0004f000       ??$addressof@$$CBVpollCommand@@@std@@YAPBVpollCommand@@ABV1@@Z 00450000 f i slink.obj
 0001:0004f010       ??$addressof@PAU?$_List_node@PAVuser@@PAX@std@@@std@@YAPAPAU?$_List_node@PAVuser@@PAX@0@AAPAU10@@Z 00450010 f i slink.obj
 0001:0004f020       ??$addressof@PAU?$_Tree_node@U?$pair@$$CBIPAVfabianServer@@@std@@PAX@std@@@std@@YAPAPAU?$_Tree_node@U?$pair@$$CBIPAVfabianServer@@@std@@PAX@0@AAPAU10@@Z 00450020 f i slink.obj
 0001:0004f030       ??$addressof@PAU?$_Tree_node@VQString@@PAX@std@@@std@@YAPAPAU?$_Tree_node@VQString@@PAX@0@AAPAU10@@Z 00450030 f i slink.obj
 0001:0004f040       ??$addressof@PAU?$_Tree_node@VpollCommand@@PAX@std@@@std@@YAPAPAU?$_Tree_node@VpollCommand@@PAX@0@AAPAU10@@Z 00450040 f i slink.obj
 0001:0004f050       ??$addressof@PAVuser@@@std@@YAPAPAVuser@@AAPAV1@@Z 00450050 f i slink.obj
 0001:0004f060       ??$addressof@U?$pair@$$CBIPAVfabianServer@@@std@@@std@@YAPAU?$pair@$$CBIPAVfabianServer@@@0@AAU10@@Z 00450060 f i slink.obj
 0001:0004f070       ??$addressof@VQString@@@std@@YAPAVQString@@AAV1@@Z 00450070 f i slink.obj
 0001:0004f080       ??$addressof@VpollCommand@@@std@@YAPAVpollCommand@@AAV1@@Z 00450080 f i slink.obj
 0001:0004f090       ??$construct@PAU?$_List_node@PAVuser@@PAX@std@@AAPAU12@@?$_Wrap_alloc@V?$allocator@U?$_List_node@PAVuser@@PAX@std@@@std@@@std@@QAEXPAPAU?$_List_node@PAVuser@@PAX@1@AAPAU21@@Z 00450090 f i slink.obj
 0001:0004f0d0       ??$construct@PAU?$_List_node@PAVuser@@PAX@std@@AAPAU12@@?$allocator@U?$_List_node@PAVuser@@PAX@std@@@std@@QAEXPAPAU?$_List_node@PAVuser@@PAX@1@AAPAU21@@Z 004500d0 f i slink.obj
 0001:0004f180       ??$construct@PAU?$_List_node@PAVuser@@PAX@std@@AAPAU12@@?$allocator_traits@V?$allocator@U?$_List_node@PAVuser@@PAX@std@@@std@@@std@@SAXAAV?$allocator@U?$_List_node@PAVuser@@PAX@std@@@1@PAPAU?$_List_node@PAVuser@@PAX@1@AAPAU31@@Z 00450180 f i slink.obj
 0001:0004f1b0       ??$construct@PAU?$_Tree_node@U?$pair@$$CBIPAVfabianServer@@@std@@PAX@std@@AAPAU12@@?$_Wrap_alloc@V?$allocator@U?$_Tree_node@U?$pair@$$CBIPAVfabianServer@@@std@@PAX@std@@@std@@@std@@QAEXPAPAU?$_Tree_node@U?$pair@$$CBIPAVfabianServer@@@std@@PAX@1@AAPAU21@@Z 004501b0 f i slink.obj
 0001:0004f1f0       ??$construct@PAU?$_Tree_node@U?$pair@$$CBIPAVfabianServer@@@std@@PAX@std@@AAPAU12@@?$allocator@U?$_Tree_node@U?$pair@$$CBIPAVfabianServer@@@std@@PAX@std@@@std@@QAEXPAPAU?$_Tree_node@U?$pair@$$CBIPAVfabianServer@@@std@@PAX@1@AAPAU21@@Z 004501f0 f i slink.obj
 0001:0004f2a0       ??$construct@PAU?$_Tree_node@U?$pair@$$CBIPAVfabianServer@@@std@@PAX@std@@AAPAU12@@?$allocator_traits@V?$allocator@U?$_Tree_node@U?$pair@$$CBIPAVfabianServer@@@std@@PAX@std@@@std@@@std@@SAXAAV?$allocator@U?$_Tree_node@U?$pair@$$CBIPAVfabianServer@@@std@@PAX@std@@@1@PAPAU?$_Tree_node@U?$pair@$$CBIPAVfabianServer@@@std@@PAX@1@AAPAU31@@Z 004502a0 f i slink.obj
 0001:0004f2d0       ??$construct@PAU?$_Tree_node@VQString@@PAX@std@@AAPAU12@@?$_Wrap_alloc@V?$allocator@U?$_Tree_node@VQString@@PAX@std@@@std@@@std@@QAEXPAPAU?$_Tree_node@VQString@@PAX@1@AAPAU21@@Z 004502d0 f i slink.obj
 0001:0004f310       ??$construct@PAU?$_Tree_node@VQString@@PAX@std@@AAPAU12@@?$allocator@U?$_Tree_node@VQString@@PAX@std@@@std@@QAEXPAPAU?$_Tree_node@VQString@@PAX@1@AAPAU21@@Z 00450310 f i slink.obj
 0001:0004f3c0       ??$construct@PAU?$_Tree_node@VQString@@PAX@std@@AAPAU12@@?$allocator_traits@V?$allocator@U?$_Tree_node@VQString@@PAX@std@@@std@@@std@@SAXAAV?$allocator@U?$_Tree_node@VQString@@PAX@std@@@1@PAPAU?$_Tree_node@VQString@@PAX@1@AAPAU31@@Z 004503c0 f i slink.obj
 0001:0004f3f0       ??$construct@PAU?$_Tree_node@VpollCommand@@PAX@std@@AAPAU12@@?$_Wrap_alloc@V?$allocator@U?$_Tree_node@VpollCommand@@PAX@std@@@std@@@std@@QAEXPAPAU?$_Tree_node@VpollCommand@@PAX@1@AAPAU21@@Z 004503f0 f i slink.obj
 0001:0004f430       ??$construct@PAU?$_Tree_node@VpollCommand@@PAX@std@@AAPAU12@@?$allocator@U?$_Tree_node@VpollCommand@@PAX@std@@@std@@QAEXPAPAU?$_Tree_node@VpollCommand@@PAX@1@AAPAU21@@Z 00450430 f i slink.obj
 0001:0004f4e0       ??$construct@PAU?$_Tree_node@VpollCommand@@PAX@std@@AAPAU12@@?$allocator_traits@V?$allocator@U?$_Tree_node@VpollCommand@@PAX@std@@@std@@@std@@SAXAAV?$allocator@U?$_Tree_node@VpollCommand@@PAX@std@@@1@PAPAU?$_Tree_node@VpollCommand@@PAX@1@AAPAU31@@Z 004504e0 f i slink.obj
 0001:0004f510       ??$construct@U?$pair@$$CBIPAVfabianServer@@@std@@U?$pair@IPAVfabianServer@@@2@@?$_Wrap_alloc@V?$allocator@U?$_Tree_node@U?$pair@$$CBIPAVfabianServer@@@std@@PAX@std@@@std@@@std@@QAEXPAU?$pair@$$CBIPAVfabianServer@@@1@$$QAU?$pair@IPAVfabianServer@@@1@@Z 00450510 f i slink.obj
 0001:0004f550       ??$construct@U?$pair@$$CBIPAVfabianServer@@@std@@U?$pair@IPAVfabianServer@@@2@@?$allocator@U?$_Tree_node@U?$pair@$$CBIPAVfabianServer@@@std@@PAX@std@@@std@@QAEXPAU?$pair@$$CBIPAVfabianServer@@@1@$$QAU?$pair@IPAVfabianServer@@@1@@Z 00450550 f i slink.obj
 0001:0004f600       ??$construct@U?$pair@$$CBIPAVfabianServer@@@std@@U?$pair@IPAVfabianServer@@@2@@?$allocator_traits@V?$allocator@U?$_Tree_node@U?$pair@$$CBIPAVfabianServer@@@std@@PAX@std@@@std@@@std@@SAXAAV?$allocator@U?$_Tree_node@U?$pair@$$CBIPAVfabianServer@@@std@@PAX@std@@@1@PAU?$pair@$$CBIPAVfabianServer@@@1@$$QAU?$pair@IPAVfabianServer@@@1@@Z 00450600 f i slink.obj
 0001:0004f630       ??$construct@VQString@@V1@@?$_Wrap_alloc@V?$allocator@U?$_Tree_node@VQString@@PAX@std@@@std@@@std@@QAEXPAVQString@@$$QAV2@@Z 00450630 f i slink.obj
 0001:0004f670       ??$construct@VQString@@V1@@?$allocator@U?$_Tree_node@VQString@@PAX@std@@@std@@QAEXPAVQString@@$$QAV2@@Z 00450670 f i slink.obj
 0001:0004f720       ??$construct@VQString@@V1@@?$allocator_traits@V?$allocator@U?$_Tree_node@VQString@@PAX@std@@@std@@@std@@SAXAAV?$allocator@U?$_Tree_node@VQString@@PAX@std@@@1@PAVQString@@$$QAV3@@Z 00450720 f i slink.obj
 0001:0004f750       ??$construct@VpollCommand@@ABV1@@?$_Wrap_alloc@V?$allocator@U?$_Tree_node@VpollCommand@@PAX@std@@@std@@@std@@QAEXPAVpollCommand@@ABV2@@Z 00450750 f i slink.obj
 0001:0004f790       ??$construct@VpollCommand@@ABV1@@?$_Wrap_alloc@V?$allocator@VpollCommand@@@std@@@std@@QAEXPAVpollCommand@@ABV2@@Z 00450790 f i slink.obj
 0001:0004f7d0       ??$construct@VpollCommand@@ABV1@@?$allocator@U?$_Tree_node@VpollCommand@@PAX@std@@@std@@QAEXPAVpollCommand@@ABV2@@Z 004507d0 f i slink.obj
 0001:0004f8a0       ??$construct@VpollCommand@@ABV1@@?$allocator_traits@V?$allocator@U?$_Tree_node@VpollCommand@@PAX@std@@@std@@@std@@SAXAAV?$allocator@U?$_Tree_node@VpollCommand@@PAX@std@@@1@PAVpollCommand@@ABV3@@Z 004508a0 f i slink.obj
 0001:0004f8d0       ??$construct@VpollCommand@@ABV1@@?$allocator_traits@V?$allocator@VpollCommand@@@std@@@std@@SAXAAV?$allocator@VpollCommand@@@1@PAVpollCommand@@ABV3@@Z 004508d0 f i slink.obj
 0001:0004f900       ??$destroy@PAU?$_List_node@PAVuser@@PAX@std@@@?$_Wrap_alloc@V?$allocator@U?$_List_node@PAVuser@@PAX@std@@@std@@@std@@QAEXPAPAU?$_List_node@PAVuser@@PAX@1@@Z 00450900 f i slink.obj
 0001:0004f930       ??$destroy@PAU?$_List_node@PAVuser@@PAX@std@@@?$allocator@U?$_List_node@PAVuser@@PAX@std@@@std@@QAEXPAPAU?$_List_node@PAVuser@@PAX@1@@Z 00450930 f i slink.obj
 0001:0004f940       ??$destroy@PAU?$_List_node@PAVuser@@PAX@std@@@?$allocator_traits@V?$allocator@U?$_List_node@PAVuser@@PAX@std@@@std@@@std@@SAXAAV?$allocator@U?$_List_node@PAVuser@@PAX@std@@@1@PAPAU?$_List_node@PAVuser@@PAX@1@@Z 00450940 f i slink.obj
 0001:0004f960       ??$destroy@PAU?$_List_node@VclientIPC@@PAX@std@@@?$_Wrap_alloc@V?$allocator@U?$_List_node@VclientIPC@@PAX@std@@@std@@@std@@QAEXPAPAU?$_List_node@VclientIPC@@PAX@1@@Z 00450960 f i slink.obj
 0001:0004f990       ??$destroy@PAU?$_List_node@VclientIPC@@PAX@std@@@?$allocator@U?$_List_node@VclientIPC@@PAX@std@@@std@@QAEXPAPAU?$_List_node@VclientIPC@@PAX@1@@Z 00450990 f i slink.obj
 0001:0004f9a0       ??$destroy@PAU?$_List_node@VclientIPC@@PAX@std@@@?$allocator_traits@V?$allocator@U?$_List_node@VclientIPC@@PAX@std@@@std@@@std@@SAXAAV?$allocator@U?$_List_node@VclientIPC@@PAX@std@@@1@PAPAU?$_List_node@VclientIPC@@PAX@1@@Z 004509a0 f i slink.obj
 0001:0004f9c0       ??$destroy@PAU?$_Tree_node@U?$pair@$$CBIPAVfabianServer@@@std@@PAX@std@@@?$_Wrap_alloc@V?$allocator@U?$_Tree_node@U?$pair@$$CBIPAVfabianServer@@@std@@PAX@std@@@std@@@std@@QAEXPAPAU?$_Tree_node@U?$pair@$$CBIPAVfabianServer@@@std@@PAX@1@@Z 004509c0 f i slink.obj
 0001:0004f9f0       ??$destroy@PAU?$_Tree_node@U?$pair@$$CBIPAVfabianServer@@@std@@PAX@std@@@?$allocator@U?$_Tree_node@U?$pair@$$CBIPAVfabianServer@@@std@@PAX@std@@@std@@QAEXPAPAU?$_Tree_node@U?$pair@$$CBIPAVfabianServer@@@std@@PAX@1@@Z 004509f0 f i slink.obj
 0001:0004fa00       ??$destroy@PAU?$_Tree_node@U?$pair@$$CBIPAVfabianServer@@@std@@PAX@std@@@?$allocator_traits@V?$allocator@U?$_Tree_node@U?$pair@$$CBIPAVfabianServer@@@std@@PAX@std@@@std@@@std@@SAXAAV?$allocator@U?$_Tree_node@U?$pair@$$CBIPAVfabianServer@@@std@@PAX@std@@@1@PAPAU?$_Tree_node@U?$pair@$$CBIPAVfabianServer@@@std@@PAX@1@@Z 00450a00 f i slink.obj
 0001:0004fa20       ??$destroy@PAU?$_Tree_node@VQString@@PAX@std@@@?$_Wrap_alloc@V?$allocator@U?$_Tree_node@VQString@@PAX@std@@@std@@@std@@QAEXPAPAU?$_Tree_node@VQString@@PAX@1@@Z 00450a20 f i slink.obj
 0001:0004fa50       ??$destroy@PAU?$_Tree_node@VQString@@PAX@std@@@?$allocator@U?$_Tree_node@VQString@@PAX@std@@@std@@QAEXPAPAU?$_Tree_node@VQString@@PAX@1@@Z 00450a50 f i slink.obj
 0001:0004fa60       ??$destroy@PAU?$_Tree_node@VQString@@PAX@std@@@?$allocator_traits@V?$allocator@U?$_Tree_node@VQString@@PAX@std@@@std@@@std@@SAXAAV?$allocator@U?$_Tree_node@VQString@@PAX@std@@@1@PAPAU?$_Tree_node@VQString@@PAX@1@@Z 00450a60 f i slink.obj
 0001:0004fa80       ??$destroy@PAU?$_Tree_node@VpollCommand@@PAX@std@@@?$_Wrap_alloc@V?$allocator@U?$_Tree_node@VpollCommand@@PAX@std@@@std@@@std@@QAEXPAPAU?$_Tree_node@VpollCommand@@PAX@1@@Z 00450a80 f i slink.obj
 0001:0004fab0       ??$destroy@PAU?$_Tree_node@VpollCommand@@PAX@std@@@?$allocator@U?$_Tree_node@VpollCommand@@PAX@std@@@std@@QAEXPAPAU?$_Tree_node@VpollCommand@@PAX@1@@Z 00450ab0 f i slink.obj
 0001:0004fac0       ??$destroy@PAU?$_Tree_node@VpollCommand@@PAX@std@@@?$allocator_traits@V?$allocator@U?$_Tree_node@VpollCommand@@PAX@std@@@std@@@std@@SAXAAV?$allocator@U?$_Tree_node@VpollCommand@@PAX@std@@@1@PAPAU?$_Tree_node@VpollCommand@@PAX@1@@Z 00450ac0 f i slink.obj
 0001:0004fae0       ??$destroy@PAVpollCommand@@@?$_Wrap_alloc@V?$allocator@VpollCommand@@@std@@@std@@QAEXPAPAVpollCommand@@@Z 00450ae0 f i slink.obj
 0001:0004fb10       ??$destroy@PAVpollCommand@@@?$allocator@VpollCommand@@@std@@QAEXPAPAVpollCommand@@@Z 00450b10 f i slink.obj
 0001:0004fb20       ??$destroy@PAVpollCommand@@@?$allocator_traits@V?$allocator@VpollCommand@@@std@@@std@@SAXAAV?$allocator@VpollCommand@@@1@PAPAVpollCommand@@@Z 00450b20 f i slink.obj
 0001:0004fb40       ??$destroy@PAVuser@@@?$_Wrap_alloc@V?$allocator@U?$_List_node@PAVuser@@PAX@std@@@std@@@std@@QAEXPAPAVuser@@@Z 00450b40 f i slink.obj
 0001:0004fb70       ??$destroy@PAVuser@@@?$allocator@U?$_List_node@PAVuser@@PAX@std@@@std@@QAEXPAPAVuser@@@Z 00450b70 f i slink.obj
 0001:0004fb80       ??$destroy@PAVuser@@@?$allocator_traits@V?$allocator@U?$_List_node@PAVuser@@PAX@std@@@std@@@std@@SAXAAV?$allocator@U?$_List_node@PAVuser@@PAX@std@@@1@PAPAVuser@@@Z 00450b80 f i slink.obj
 0001:0004fba0       ??$destroy@U?$pair@$$CBIPAVfabianServer@@@std@@@?$_Wrap_alloc@V?$allocator@U?$_Tree_node@U?$pair@$$CBIPAVfabianServer@@@std@@PAX@std@@@std@@@std@@QAEXPAU?$pair@$$CBIPAVfabianServer@@@1@@Z 00450ba0 f i slink.obj
 0001:0004fbd0       ??$destroy@U?$pair@$$CBIPAVfabianServer@@@std@@@?$allocator@U?$_Tree_node@U?$pair@$$CBIPAVfabianServer@@@std@@PAX@std@@@std@@QAEXPAU?$pair@$$CBIPAVfabianServer@@@1@@Z 00450bd0 f i slink.obj
 0001:0004fbe0       ??$destroy@U?$pair@$$CBIPAVfabianServer@@@std@@@?$allocator_traits@V?$allocator@U?$_Tree_node@U?$pair@$$CBIPAVfabianServer@@@std@@PAX@std@@@std@@@std@@SAXAAV?$allocator@U?$_Tree_node@U?$pair@$$CBIPAVfabianServer@@@std@@PAX@std@@@1@PAU?$pair@$$CBIPAVfabianServer@@@1@@Z 00450be0 f i slink.obj
 0001:0004fc00       ??$destroy@VQString@@@?$_Wrap_alloc@V?$allocator@U?$_Tree_node@VQString@@PAX@std@@@std@@@std@@QAEXPAVQString@@@Z 00450c00 f i slink.obj
 0001:0004fc30       ??$destroy@VQString@@@?$allocator@U?$_Tree_node@VQString@@PAX@std@@@std@@QAEXPAVQString@@@Z 00450c30 f i slink.obj
 0001:0004fc50       ??$destroy@VQString@@@?$allocator_traits@V?$allocator@U?$_Tree_node@VQString@@PAX@std@@@std@@@std@@SAXAAV?$allocator@U?$_Tree_node@VQString@@PAX@std@@@1@PAVQString@@@Z 00450c50 f i slink.obj
 0001:0004fc70       ??$destroy@VclientIPC@@@?$_Wrap_alloc@V?$allocator@U?$_List_node@VclientIPC@@PAX@std@@@std@@@std@@QAEXPAVclientIPC@@@Z 00450c70 f i slink.obj
 0001:0004fca0       ??$destroy@VclientIPC@@@?$allocator@U?$_List_node@VclientIPC@@PAX@std@@@std@@QAEXPAVclientIPC@@@Z 00450ca0 f i slink.obj
 0001:0004fcb0       ??$destroy@VclientIPC@@@?$allocator_traits@V?$allocator@U?$_List_node@VclientIPC@@PAX@std@@@std@@@std@@SAXAAV?$allocator@U?$_List_node@VclientIPC@@PAX@std@@@1@PAVclientIPC@@@Z 00450cb0 f i slink.obj
 0001:0004fcd0       ??$destroy@VdbEntry@@@?$_Wrap_alloc@V?$allocator@U?$_Tree_node@VdbEntry@@PAX@std@@@std@@@std@@QAEXPAVdbEntry@@@Z 00450cd0 f i slink.obj
 0001:0004fd00       ??$destroy@VdbEntry@@@?$allocator@U?$_Tree_node@VdbEntry@@PAX@std@@@std@@QAEXPAVdbEntry@@@Z 00450d00 f i slink.obj
 0001:0004fd10       ??$destroy@VdbEntry@@@?$allocator_traits@V?$allocator@U?$_Tree_node@VdbEntry@@PAX@std@@@std@@@std@@SAXAAV?$allocator@U?$_Tree_node@VdbEntry@@PAX@std@@@1@PAVdbEntry@@@Z 00450d10 f i slink.obj
 0001:0004fd30       ??$destroy@VpollCommand@@@?$_Wrap_alloc@V?$allocator@U?$_Tree_node@VpollCommand@@PAX@std@@@std@@@std@@QAEXPAVpollCommand@@@Z 00450d30 f i slink.obj
 0001:0004fd60       ??$destroy@VpollCommand@@@?$_Wrap_alloc@V?$allocator@VpollCommand@@@std@@@std@@QAEXPAVpollCommand@@@Z 00450d60 f i slink.obj
 0001:0004fd90       ??$destroy@VpollCommand@@@?$allocator@U?$_Tree_node@VpollCommand@@PAX@std@@@std@@QAEXPAVpollCommand@@@Z 00450d90 f i slink.obj
 0001:0004fda0       ??$destroy@VpollCommand@@@?$allocator@VpollCommand@@@std@@QAEXPAVpollCommand@@@Z 00450da0 f i slink.obj
 0001:0004fdb0       ??$destroy@VpollCommand@@@?$allocator_traits@V?$allocator@U?$_Tree_node@VpollCommand@@PAX@std@@@std@@@std@@SAXAAV?$allocator@U?$_Tree_node@VpollCommand@@PAX@std@@@1@PAVpollCommand@@@Z 00450db0 f i slink.obj
 0001:0004fdd0       ??$destroy@VpollCommand@@@?$allocator_traits@V?$allocator@VpollCommand@@@std@@@std@@SAXAAV?$allocator@VpollCommand@@@1@PAVpollCommand@@@Z 00450dd0 f i slink.obj
 0001:0004fdf0       ??$forward@AAPAU?$_List_node@PAVuser@@PAX@std@@@std@@YAAAPAU?$_List_node@PAVuser@@PAX@0@AAPAU10@@Z 00450df0 f i slink.obj
 0001:0004fe00       ??$forward@AAPAU?$_Tree_node@U?$pair@$$CBIPAVfabianServer@@@std@@PAX@std@@@std@@YAAAPAU?$_Tree_node@U?$pair@$$CBIPAVfabianServer@@@std@@PAX@0@AAPAU10@@Z 00450e00 f i slink.obj
 0001:0004fe10       ??$forward@AAPAU?$_Tree_node@VQString@@PAX@std@@@std@@YAAAPAU?$_Tree_node@VQString@@PAX@0@AAPAU10@@Z 00450e10 f i slink.obj
 0001:0004fe20       ??$forward@AAPAU?$_Tree_node@VpollCommand@@PAX@std@@@std@@YAAAPAU?$_Tree_node@VpollCommand@@PAX@0@AAPAU10@@Z 00450e20 f i slink.obj
 0001:0004fe30       ??$forward@AAPAVfabianServer@@@std@@YAAAPAVfabianServer@@AAPAV1@@Z 00450e30 f i slink.obj
 0001:0004fe40       ??$forward@AAU?$pair@$$CBIPAVfabianServer@@@std@@@std@@YAAAU?$pair@$$CBIPAVfabianServer@@@0@AAU10@@Z 00450e40 f i slink.obj
 0001:0004fe50       ??$forward@AAV?$_Tree_const_iterator@V?$_Tree_val@U?$_Tree_simple_types@VQString@@@std@@@std@@@std@@@std@@YAAAV?$_Tree_const_iterator@V?$_Tree_val@U?$_Tree_simple_types@VQString@@@std@@@std@@@0@AAV10@@Z 00450e50 f i slink.obj
 0001:0004fe60       ??$forward@AAV?$_Tree_const_iterator@V?$_Tree_val@U?$_Tree_simple_types@VpollCommand@@@std@@@std@@@std@@@std@@YAAAV?$_Tree_const_iterator@V?$_Tree_val@U?$_Tree_simple_types@VpollCommand@@@std@@@std@@@0@AAV10@@Z 00450e60 f i slink.obj
 0001:0004fe70       ??$forward@AAV?$_Tree_iterator@V?$_Tree_val@U?$_Tree_simple_types@U?$pair@$$CBIPAVfabianServer@@@std@@@std@@@std@@@std@@@std@@YAAAV?$_Tree_iterator@V?$_Tree_val@U?$_Tree_simple_types@U?$pair@$$CBIPAVfabianServer@@@std@@@std@@@std@@@0@AAV10@@Z 00450e70 f i slink.obj
 0001:0004fe80       ??$forward@ABVQString@@@std@@YAABVQString@@ABV1@@Z 00450e80 f i slink.obj
 0001:0004fe90       ??$forward@ABVpollCommand@@@std@@YAABVpollCommand@@ABV1@@Z 00450e90 f i slink.obj
 0001:0004fea0       ??$forward@PAVfabianServer@@@std@@YA$$QAPAVfabianServer@@AAPAV1@@Z 00450ea0 f i slink.obj
 0001:0004feb0       ??$forward@U?$pair@IPAVfabianServer@@@std@@@std@@YA$$QAU?$pair@IPAVfabianServer@@@0@AAU10@@Z 00450eb0 f i slink.obj
 0001:0004fec0       ??$forward@V?$_Tree_const_iterator@V?$_Tree_val@U?$_Tree_simple_types@VQString@@@std@@@std@@@std@@@std@@YA$$QAV?$_Tree_const_iterator@V?$_Tree_val@U?$_Tree_simple_types@VQString@@@std@@@std@@@0@AAV10@@Z 00450ec0 f i slink.obj
 0001:0004fed0       ??$forward@V?$_Tree_const_iterator@V?$_Tree_val@U?$_Tree_simple_types@VpollCommand@@@std@@@std@@@std@@@std@@YA$$QAV?$_Tree_const_iterator@V?$_Tree_val@U?$_Tree_simple_types@VpollCommand@@@std@@@std@@@0@AAV10@@Z 00450ed0 f i slink.obj
 0001:0004fee0       ??$forward@V?$_Tree_iterator@V?$_Tree_val@U?$_Tree_simple_types@U?$pair@$$CBIPAVfabianServer@@@std@@@std@@@std@@@std@@@std@@YA$$QAV?$_Tree_iterator@V?$_Tree_val@U?$_Tree_simple_types@U?$pair@$$CBIPAVfabianServer@@@std@@@std@@@std@@@0@AAV10@@Z 00450ee0 f i slink.obj
 0001:0004fef0       ??$forward@VQString@@@std@@YA$$QAVQString@@AAV1@@Z 00450ef0 f i slink.obj
 0001:0004ff00       ??$insert@U?$pair@IPAVfabianServer@@@std@@@?$_Tree@V?$_Tmap_traits@IPAVfabianServer@@U?$less@I@std@@V?$allocator@U?$pair@$$CBIPAVfabianServer@@@std@@@3@$0A@@std@@@std@@QAE?AU?$pair@V?$_Tree_iterator@V?$_Tree_val@U?$_Tree_simple_types@U?$pair@$$CBIPAVfabianServer@@@std@@@std@@@std@@@std@@_N@1@$$QAU?$pair@IPAVfabianServer@@@1@@Z 00450f00 f i slink.obj
 0001:0004ff70       ??$make_pair@AAIAAPAVfabianServer@@@std@@YA?AU?$pair@IPAVfabianServer@@@0@AAIAAPAVfabianServer@@@Z 00450f70 f i slink.obj
 0001:0004ffb0       ??0?$QFlags@W4AlignmentFlag@Qt@@@@QAE@PQPrivate@0@H@Z 00450fb0 f i slink.obj
 0001:0004ffd0       ??0?$QFlags@W4StandardButton@QMessageBox@@@@QAE@W4StandardButton@QMessageBox@@@Z 00450fd0 f i slink.obj
 0001:0004fff0       ??0?$QFlags@W4WindowType@Qt@@@@QAE@PQPrivate@0@H@Z 00450ff0 f i slink.obj
 0001:00050010       ??0?$QList@VQSslCipher@@@@QAE@XZ 00451010 f i slink.obj
 0001:00050030       ??0?$_Deque_alloc@$0A@U?$_Deque_base_types@VpollCommand@@V?$allocator@VpollCommand@@@std@@@std@@@std@@QAE@ABV?$allocator@VpollCommand@@@1@@Z 00451030 f i slink.obj
 0001:000500a0       ??0?$_Deque_const_iterator@V?$_Deque_val@U?$_Deque_simple_types@VpollCommand@@@std@@@std@@@std@@QAE@IPBU_Container_base12@1@@Z 004510a0 f i slink.obj
 0001:00050120       ??0?$_Deque_iterator@V?$_Deque_val@U?$_Deque_simple_types@VpollCommand@@@std@@@std@@@std@@QAE@IPBU_Container_base12@1@@Z 00451120 f i slink.obj
 0001:00050150       ??0?$_Deque_val@U?$_Deque_simple_types@VpollCommand@@@std@@@std@@QAE@XZ 00451150 f i slink.obj
 0001:000501a0       ??0?$_Iterator012@Ubidirectional_iterator_tag@std@@PAVuser@@HPBQAV3@ABQAV3@U_Iterator_base12@2@@std@@QAE@ABU01@@Z 004511a0 f i slink.obj
 0001:000501d0       ??0?$_Iterator012@Ubidirectional_iterator_tag@std@@PAVuser@@HPBQAV3@ABQAV3@U_Iterator_base12@2@@std@@QAE@XZ 004511d0 f i slink.obj
 0001:000501f0       ??0?$_Iterator012@Ubidirectional_iterator_tag@std@@U?$pair@$$CBIPAVfabianServer@@@2@HPBU32@ABU32@U_Iterator_base12@2@@std@@QAE@ABU01@@Z 004511f0 f i slink.obj
 0001:00050220       ??0?$_Iterator012@Ubidirectional_iterator_tag@std@@U?$pair@$$CBIPAVfabianServer@@@2@HPBU32@ABU32@U_Iterator_base12@2@@std@@QAE@XZ 00451220 f i slink.obj
 0001:00050240       ??0?$_Iterator012@Ubidirectional_iterator_tag@std@@VQString@@HPBV3@ABV3@U_Iterator_base12@2@@std@@QAE@ABU01@@Z 00451240 f i slink.obj
 0001:00050270       ??0?$_Iterator012@Ubidirectional_iterator_tag@std@@VclientIPC@@HPBV3@ABV3@U_Iterator_base12@2@@std@@QAE@ABU01@@Z 00451270 f i slink.obj
 0001:000502a0       ??0?$_Iterator012@Ubidirectional_iterator_tag@std@@VclientIPC@@HPBV3@ABV3@U_Iterator_base12@2@@std@@QAE@XZ 004512a0 f i slink.obj
 0001:000502c0       ??0?$_Iterator012@Ubidirectional_iterator_tag@std@@VpollCommand@@HPBV3@ABV3@U_Iterator_base12@2@@std@@QAE@ABU01@@Z 004512c0 f i slink.obj
 0001:000502f0       ??0?$_Iterator012@Ubidirectional_iterator_tag@std@@VpollCommand@@HPBV3@ABV3@U_Iterator_base12@2@@std@@QAE@XZ 004512f0 f i slink.obj
 0001:00050310       ??0?$_List_alloc@$0A@U?$_List_base_types@PAVuser@@V?$allocator@PAVuser@@@std@@@std@@@std@@QAE@ABV?$allocator@PAVuser@@@1@@Z 00451310 f i slink.obj
 0001:000503e0       ??0?$_List_alloc@$0A@U?$_List_base_types@VclientIPC@@V?$allocator@VclientIPC@@@std@@@std@@@std@@QAE@ABV?$allocator@VclientIPC@@@1@@Z 004513e0 f i slink.obj
 0001:000504b0       ??0?$_List_buy@PAVuser@@V?$allocator@PAVuser@@@std@@@std@@QAE@ABV?$allocator@PAVuser@@@1@@Z 004514b0 f i slink.obj
 0001:000504e0       ??0?$_List_buy@VclientIPC@@V?$allocator@VclientIPC@@@std@@@std@@QAE@ABV?$allocator@VclientIPC@@@1@@Z 004514e0 f i slink.obj
 0001:00050510       ??0?$_List_const_iterator@V?$_List_val@U?$_List_simple_types@PAVuser@@@std@@@std@@@std@@QAE@ABV01@@Z 00451510 f i slink.obj
 0001:00050540       ??0?$_List_const_iterator@V?$_List_val@U?$_List_simple_types@PAVuser@@@std@@@std@@@std@@QAE@PAU?$_List_node@PAVuser@@PAX@1@PBV?$_List_val@U?$_List_simple_types@PAVuser@@@std@@@1@@Z 00451540 f i slink.obj
 0001:00050570       ??0?$_List_const_iterator@V?$_List_val@U?$_List_simple_types@VclientIPC@@@std@@@std@@@std@@QAE@ABV01@@Z 00451570 f i slink.obj
 0001:000505a0       ??0?$_List_const_iterator@V?$_List_val@U?$_List_simple_types@VclientIPC@@@std@@@std@@@std@@QAE@PAU?$_List_node@VclientIPC@@PAX@1@PBV?$_List_val@U?$_List_simple_types@VclientIPC@@@std@@@1@@Z 004515a0 f i slink.obj
 0001:000505d0       ??0?$_List_iterator@V?$_List_val@U?$_List_simple_types@PAVuser@@@std@@@std@@@std@@QAE@PAU?$_List_node@PAVuser@@PAX@1@PBV?$_List_val@U?$_List_simple_types@PAVuser@@@std@@@1@@Z 004515d0 f i slink.obj
 0001:00050600       ??0?$_List_iterator@V?$_List_val@U?$_List_simple_types@VclientIPC@@@std@@@std@@@std@@QAE@PAU?$_List_node@VclientIPC@@PAX@1@PBV?$_List_val@U?$_List_simple_types@VclientIPC@@@std@@@1@@Z 00451600 f i slink.obj
 0001:00050630       ??0?$_List_unchecked_const_iterator@V?$_List_val@U?$_List_simple_types@PAVuser@@@std@@@std@@U_Iterator_base12@2@@std@@QAE@ABV01@@Z 00451630 f i slink.obj
 0001:00050670       ??0?$_List_unchecked_const_iterator@V?$_List_val@U?$_List_simple_types@PAVuser@@@std@@@std@@U_Iterator_base12@2@@std@@QAE@PAU?$_List_node@PAVuser@@PAX@1@PBV?$_List_val@U?$_List_simple_types@PAVuser@@@std@@@1@@Z 00451670 f i slink.obj
 0001:000506f0       ??0?$_List_unchecked_const_iterator@V?$_List_val@U?$_List_simple_types@VclientIPC@@@std@@@std@@U_Iterator_base12@2@@std@@QAE@ABV01@@Z 004516f0 f i slink.obj
 0001:00050730       ??0?$_List_unchecked_const_iterator@V?$_List_val@U?$_List_simple_types@VclientIPC@@@std@@@std@@U_Iterator_base12@2@@std@@QAE@PAU?$_List_node@VclientIPC@@PAX@1@PBV?$_List_val@U?$_List_simple_types@VclientIPC@@@std@@@1@@Z 00451730 f i slink.obj
 0001:000507b0       ??0?$_List_val@U?$_List_simple_types@PAVuser@@@std@@@std@@QAE@XZ 004517b0 f i slink.obj
 0001:000507f0       ??0?$_List_val@U?$_List_simple_types@VclientIPC@@@std@@@std@@QAE@XZ 004517f0 f i slink.obj
 0001:00050830       ??0?$_Tree@V?$_Tmap_traits@IPAVfabianServer@@U?$less@I@std@@V?$allocator@U?$pair@$$CBIPAVfabianServer@@@std@@@3@$0A@@std@@@std@@QAE@ABU?$less@I@1@ABV?$allocator@U?$pair@$$CBIPAVfabianServer@@@std@@@1@@Z 00451830 f i slink.obj
 0001:00050860       ??0?$_Tree@V?$_Tset_traits@VQString@@U?$less@VQString@@@std@@V?$allocator@VQString@@@3@$0A@@std@@@std@@QAE@ABU?$less@VQString@@@1@ABV?$allocator@VQString@@@1@@Z 00451860 f i slink.obj
 0001:00050890       ??0?$_Tree@V?$_Tset_traits@VdbEntry@@U?$less@VdbEntry@@@std@@V?$allocator@VdbEntry@@@3@$0A@@std@@@std@@QAE@ABU?$less@VdbEntry@@@1@ABV?$allocator@VdbEntry@@@1@@Z 00451890 f i slink.obj
 0001:000508c0       ??0?$_Tree@V?$_Tset_traits@VpollCommand@@U?$less@VpollCommand@@@std@@V?$allocator@VpollCommand@@@3@$0A@@std@@@std@@QAE@ABU?$less@VpollCommand@@@1@ABV?$allocator@VpollCommand@@@1@@Z 004518c0 f i slink.obj
 0001:000508f0       ??0?$_Tree_alloc@$0A@U?$_Tree_base_types@U?$pair@$$CBIPAVfabianServer@@@std@@V?$allocator@U?$pair@$$CBIPAVfabianServer@@@std@@@2@@std@@@std@@QAE@ABV?$allocator@U?$pair@$$CBIPAVfabianServer@@@std@@@1@@Z 004518f0 f i slink.obj
 0001:000509c0       ??0?$_Tree_alloc@$0A@U?$_Tree_base_types@VQString@@V?$allocator@VQString@@@std@@@std@@@std@@QAE@ABV?$allocator@VQString@@@1@@Z 004519c0 f i slink.obj
 0001:00050a90       ??0?$_Tree_alloc@$0A@U?$_Tree_base_types@VdbEntry@@V?$allocator@VdbEntry@@@std@@@std@@@std@@QAE@ABV?$allocator@VdbEntry@@@1@@Z 00451a90 f i slink.obj
 0001:00050b60       ??0?$_Tree_alloc@$0A@U?$_Tree_base_types@VpollCommand@@V?$allocator@VpollCommand@@@std@@@std@@@std@@QAE@ABV?$allocator@VpollCommand@@@1@@Z 00451b60 f i slink.obj
 0001:00050c30       ??0?$_Tree_buy@U?$pair@$$CBIPAVfabianServer@@@std@@V?$allocator@U?$pair@$$CBIPAVfabianServer@@@std@@@2@@std@@QAE@ABV?$allocator@U?$pair@$$CBIPAVfabianServer@@@std@@@1@@Z 00451c30 f i slink.obj
 0001:00050c60       ??0?$_Tree_buy@VQString@@V?$allocator@VQString@@@std@@@std@@QAE@ABV?$allocator@VQString@@@1@@Z 00451c60 f i slink.obj
 0001:00050c90       ??0?$_Tree_buy@VdbEntry@@V?$allocator@VdbEntry@@@std@@@std@@QAE@ABV?$allocator@VdbEntry@@@1@@Z 00451c90 f i slink.obj
 0001:00050cc0       ??0?$_Tree_buy@VpollCommand@@V?$allocator@VpollCommand@@@std@@@std@@QAE@ABV?$allocator@VpollCommand@@@1@@Z 00451cc0 f i slink.obj
 0001:00050cf0       ??0?$_Tree_comp@$0A@V?$_Tmap_traits@IPAVfabianServer@@U?$less@I@std@@V?$allocator@U?$pair@$$CBIPAVfabianServer@@@std@@@3@$0A@@std@@@std@@QAE@ABU?$less@I@1@ABV?$allocator@U?$pair@$$CBIPAVfabianServer@@@std@@@1@@Z 00451cf0 f i slink.obj
 0001:00050d20       ??0?$_Tree_comp@$0A@V?$_Tset_traits@VQString@@U?$less@VQString@@@std@@V?$allocator@VQString@@@3@$0A@@std@@@std@@QAE@ABU?$less@VQString@@@1@ABV?$allocator@VQString@@@1@@Z 00451d20 f i slink.obj
 0001:00050d50       ??0?$_Tree_comp@$0A@V?$_Tset_traits@VdbEntry@@U?$less@VdbEntry@@@std@@V?$allocator@VdbEntry@@@3@$0A@@std@@@std@@QAE@ABU?$less@VdbEntry@@@1@ABV?$allocator@VdbEntry@@@1@@Z 00451d50 f i slink.obj
 0001:00050d80       ??0?$_Tree_comp@$0A@V?$_Tset_traits@VpollCommand@@U?$less@VpollCommand@@@std@@V?$allocator@VpollCommand@@@3@$0A@@std@@@std@@QAE@ABU?$less@VpollCommand@@@1@ABV?$allocator@VpollCommand@@@1@@Z 00451d80 f i slink.obj
 0001:00050db0       ??0?$_Tree_const_iterator@V?$_Tree_val@U?$_Tree_simple_types@U?$pair@$$CBIPAVfabianServer@@@std@@@std@@@std@@@std@@QAE@ABV01@@Z 00451db0 f i slink.obj
 0001:00050de0       ??0?$_Tree_const_iterator@V?$_Tree_val@U?$_Tree_simple_types@U?$pair@$$CBIPAVfabianServer@@@std@@@std@@@std@@@std@@QAE@PAU?$_Tree_node@U?$pair@$$CBIPAVfabianServer@@@std@@PAX@1@PBV?$_Tree_val@U?$_Tree_simple_types@U?$pair@$$CBIPAVfabianServer@@@std@@@std@@@1@@Z 00451de0 f i slink.obj
 0001:00050e10       ??0?$_Tree_const_iterator@V?$_Tree_val@U?$_Tree_simple_types@VQString@@@std@@@std@@@std@@QAE@ABV01@@Z 00451e10 f i slink.obj
 0001:00050e40       ??0?$_Tree_const_iterator@V?$_Tree_val@U?$_Tree_simple_types@VpollCommand@@@std@@@std@@@std@@QAE@ABV01@@Z 00451e40 f i slink.obj
 0001:00050e70       ??0?$_Tree_const_iterator@V?$_Tree_val@U?$_Tree_simple_types@VpollCommand@@@std@@@std@@@std@@QAE@PAU?$_Tree_node@VpollCommand@@PAX@1@PBV?$_Tree_val@U?$_Tree_simple_types@VpollCommand@@@std@@@1@@Z 00451e70 f i slink.obj
 0001:00050ea0       ??0?$_Tree_iterator@V?$_Tree_val@U?$_Tree_simple_types@U?$pair@$$CBIPAVfabianServer@@@std@@@std@@@std@@@std@@QAE@ABV01@@Z 00451ea0 f i slink.obj
 0001:00050ed0       ??0?$_Tree_iterator@V?$_Tree_val@U?$_Tree_simple_types@U?$pair@$$CBIPAVfabianServer@@@std@@@std@@@std@@@std@@QAE@PAU?$_Tree_node@U?$pair@$$CBIPAVfabianServer@@@std@@PAX@1@PBV?$_Tree_val@U?$_Tree_simple_types@U?$pair@$$CBIPAVfabianServer@@@std@@@std@@@1@@Z 00451ed0 f i slink.obj
 0001:00050f00       ??0?$_Tree_unchecked_const_iterator@V?$_Tree_val@U?$_Tree_simple_types@U?$pair@$$CBIPAVfabianServer@@@std@@@std@@@std@@U_Iterator_base12@2@@std@@QAE@ABV01@@Z 00451f00 f i slink.obj
 0001:00050f40       ??0?$_Tree_unchecked_const_iterator@V?$_Tree_val@U?$_Tree_simple_types@U?$pair@$$CBIPAVfabianServer@@@std@@@std@@@std@@U_Iterator_base12@2@@std@@QAE@PAU?$_Tree_node@U?$pair@$$CBIPAVfabianServer@@@std@@PAX@1@PBV?$_Tree_val@U?$_Tree_simple_types@U?$pair@$$CBIPAVfabianServer@@@std@@@std@@@1@@Z 00451f40 f i slink.obj
 0001:00050fc0       ??0?$_Tree_unchecked_const_iterator@V?$_Tree_val@U?$_Tree_simple_types@VQString@@@std@@@std@@U_Iterator_base12@2@@std@@QAE@ABV01@@Z 00451fc0 f i slink.obj
 0001:00051000       ??0?$_Tree_unchecked_const_iterator@V?$_Tree_val@U?$_Tree_simple_types@VpollCommand@@@std@@@std@@U_Iterator_base12@2@@std@@QAE@ABV01@@Z 00452000 f i slink.obj
 0001:00051040       ??0?$_Tree_unchecked_const_iterator@V?$_Tree_val@U?$_Tree_simple_types@VpollCommand@@@std@@@std@@U_Iterator_base12@2@@std@@QAE@PAU?$_Tree_node@VpollCommand@@PAX@1@PBV?$_Tree_val@U?$_Tree_simple_types@VpollCommand@@@std@@@1@@Z 00452040 f i slink.obj
 0001:000510c0       ??0?$_Tree_val@U?$_Tree_simple_types@U?$pair@$$CBIPAVfabianServer@@@std@@@std@@@std@@QAE@XZ 004520c0 f i slink.obj
 0001:00051100       ??0?$_Tree_val@U?$_Tree_simple_types@VQString@@@std@@@std@@QAE@XZ 00452100 f i slink.obj
 0001:00051140       ??0?$_Tree_val@U?$_Tree_simple_types@VdbEntry@@@std@@@std@@QAE@XZ 00452140 f i slink.obj
 0001:00051180       ??0?$_Tree_val@U?$_Tree_simple_types@VpollCommand@@@std@@@std@@QAE@XZ 00452180 f i slink.obj
 0001:000511c0       ??0?$_Wrap_alloc@V?$allocator@U?$_List_node@PAVuser@@PAX@std@@@std@@@std@@QAE@XZ 004521c0 f i slink.obj
 0001:000511e0       ??0?$_Wrap_alloc@V?$allocator@U?$_Tree_node@U?$pair@$$CBIPAVfabianServer@@@std@@PAX@std@@@std@@@std@@QAE@XZ 004521e0 f i slink.obj
 0001:00051200       ??0?$_Wrap_alloc@V?$allocator@U?$_Tree_node@VQString@@PAX@std@@@std@@@std@@QAE@XZ 00452200 f i slink.obj
 0001:00051220       ??0?$_Wrap_alloc@V?$allocator@U?$_Tree_node@VpollCommand@@PAX@std@@@std@@@std@@QAE@XZ 00452220 f i slink.obj
 0001:00051240       ??0?$_Wrap_alloc@V?$allocator@VpollCommand@@@std@@@std@@QAE@XZ 00452240 f i slink.obj
 0001:00051260       ??0?$allocator@PAVuser@@@std@@QAE@XZ 00452260 f i slink.obj
 0001:00051280       ??0?$allocator@U?$_List_node@PAVuser@@PAX@std@@@std@@QAE@XZ 00452280 f i slink.obj
 0001:000512a0       ??0?$allocator@U?$_Tree_node@U?$pair@$$CBIPAVfabianServer@@@std@@PAX@std@@@std@@QAE@XZ 004522a0 f i slink.obj
 0001:000512c0       ??0?$allocator@U?$_Tree_node@VQString@@PAX@std@@@std@@QAE@XZ 004522c0 f i slink.obj
 0001:000512e0       ??0?$allocator@U?$_Tree_node@VpollCommand@@PAX@std@@@std@@QAE@XZ 004522e0 f i slink.obj
 0001:00051300       ??0?$allocator@U?$pair@$$CBIPAVfabianServer@@@std@@@std@@QAE@XZ 00452300 f i slink.obj
 0001:00051320       ??0?$allocator@VQString@@@std@@QAE@XZ 00452320 f i slink.obj
 0001:00051340       ??0?$allocator@VclientIPC@@@std@@QAE@XZ 00452340 f i slink.obj
 0001:00051360       ??0?$allocator@VdbEntry@@@std@@QAE@XZ 00452360 f i slink.obj
 0001:00051380       ??0?$allocator@VpollCommand@@@std@@QAE@XZ 00452380 f i slink.obj
 0001:000513a0       ??0?$deque@VpollCommand@@V?$allocator@VpollCommand@@@std@@@std@@QAE@XZ 004523a0 f i slink.obj
 0001:000513d0       ??0?$list@PAVuser@@V?$allocator@PAVuser@@@std@@@std@@QAE@XZ 004523d0 f i slink.obj
 0001:00051400       ??0?$list@VclientIPC@@V?$allocator@VclientIPC@@@std@@@std@@QAE@XZ 00452400 f i slink.obj
 0001:00051430       ??0?$map@IPAVfabianServer@@U?$less@I@std@@V?$allocator@U?$pair@$$CBIPAVfabianServer@@@std@@@3@@std@@QAE@XZ 00452430 f i slink.obj
 0001:00051460       ??0?$queue@VpollCommand@@V?$deque@VpollCommand@@V?$allocator@VpollCommand@@@std@@@std@@@std@@QAE@XZ 00452460 f i slink.obj
 0001:00051480       ??0?$set@VQString@@U?$less@VQString@@@std@@V?$allocator@VQString@@@3@@std@@QAE@XZ 00452480 f i slink.obj
 0001:000514b0       ??0?$set@VdbEntry@@U?$less@VdbEntry@@@std@@V?$allocator@VdbEntry@@@3@@std@@QAE@XZ 004524b0 f i slink.obj
 0001:000514e0       ??0?$set@VpollCommand@@U?$less@VpollCommand@@@std@@V?$allocator@VpollCommand@@@3@@std@@QAE@XZ 004524e0 f i slink.obj
 0001:00051510       ??0IccClientCallback@@QAE@XZ 00452510 f i slink.obj
 0001:00051530       ??0Ifabian_clientCallback@@QAE@XZ 00452530 f i slink.obj
 0001:00051550       ??0clientIPC@@QAE@PAVfabian_client@@@Z 00452550 f i slink.obj
 0001:00051570       ??0const_iterator@?$QList@VQSslCipher@@@@QAE@ABViterator@1@@Z 00452570 f i slink.obj
 0001:00051590       ??0const_iterator@?$QList@VQString@@@@QAE@ABViterator@1@@Z 00452590 f i slink.obj
 0001:000515b0       ??0iterator@?$QList@VQSslCipher@@@@QAE@PAUNode@1@@Z 004525b0 f i slink.obj
 0001:000515d0       ??0iterator@?$QList@VQString@@@@QAE@PAUNode@1@@Z 004525d0 f i slink.obj
 0001:000515f0       ??0pollCommand@@QAE@PAVQListWidgetItem@@DIII@Z 004525f0 f i slink.obj
 0001:00051640       ??1?$QList@VQSslCipher@@@@QAE@XZ 00452640 f i slink.obj
 0001:000516d0       ??1?$QListSpecialMethods@VQSslCipher@@@@IAE@XZ 004526d0 f i slink.obj
 0001:000516e0       ??1?$_Deque_alloc@$0A@U?$_Deque_base_types@VpollCommand@@V?$allocator@VpollCommand@@@std@@@std@@@std@@QAE@XZ 004526e0 f i slink.obj
 0001:00051710       ??1?$_Deque_const_iterator@V?$_Deque_val@U?$_Deque_simple_types@VpollCommand@@@std@@@std@@@std@@QAE@XZ 00452710 f i slink.obj
 0001:00051730       ??1?$_Deque_iterator@V?$_Deque_val@U?$_Deque_simple_types@VpollCommand@@@std@@@std@@@std@@QAE@XZ 00452730 f i slink.obj
 0001:00051750       ??1?$_Deque_val@U?$_Deque_simple_types@VpollCommand@@@std@@@std@@QAE@XZ 00452750 f i slink.obj
 0001:00051770       ??1?$_Iterator012@Ubidirectional_iterator_tag@std@@PAVuser@@HPBQAV3@ABQAV3@U_Iterator_base12@2@@std@@QAE@XZ 00452770 f i slink.obj
 0001:00051790       ??1?$_Iterator012@Ubidirectional_iterator_tag@std@@U?$pair@$$CBIPAVfabianServer@@@2@HPBU32@ABU32@U_Iterator_base12@2@@std@@QAE@XZ 00452790 f i slink.obj
 0001:000517b0       ??1?$_Iterator012@Ubidirectional_iterator_tag@std@@VclientIPC@@HPBV3@ABV3@U_Iterator_base12@2@@std@@QAE@XZ 004527b0 f i slink.obj
 0001:000517d0       ??1?$_Iterator012@Ubidirectional_iterator_tag@std@@VpollCommand@@HPBV3@ABV3@U_Iterator_base12@2@@std@@QAE@XZ 004527d0 f i slink.obj
 0001:000517f0       ??1?$_List_alloc@$0A@U?$_List_base_types@PAVuser@@V?$allocator@PAVuser@@@std@@@std@@@std@@QAE@XZ 004527f0 f i slink.obj
 0001:00051830       ??1?$_List_alloc@$0A@U?$_List_base_types@VclientIPC@@V?$allocator@VclientIPC@@@std@@@std@@@std@@QAE@XZ 00452830 f i slink.obj
 0001:00051870       ??1?$_List_buy@PAVuser@@V?$allocator@PAVuser@@@std@@@std@@QAE@XZ 00452870 f i slink.obj
 0001:00051890       ??1?$_List_buy@VclientIPC@@V?$allocator@VclientIPC@@@std@@@std@@QAE@XZ 00452890 f i slink.obj
 0001:000518b0       ??1?$_List_const_iterator@V?$_List_val@U?$_List_simple_types@PAVuser@@@std@@@std@@@std@@QAE@XZ 004528b0 f i slink.obj
 0001:000518d0       ??1?$_List_const_iterator@V?$_List_val@U?$_List_simple_types@VclientIPC@@@std@@@std@@@std@@QAE@XZ 004528d0 f i slink.obj
 0001:000518f0       ??1?$_List_iterator@V?$_List_val@U?$_List_simple_types@PAVuser@@@std@@@std@@@std@@QAE@XZ 004528f0 f i slink.obj
 0001:00051910       ??1?$_List_iterator@V?$_List_val@U?$_List_simple_types@VclientIPC@@@std@@@std@@@std@@QAE@XZ 00452910 f i slink.obj
 0001:00051930       ??1?$_List_unchecked_const_iterator@V?$_List_val@U?$_List_simple_types@PAVuser@@@std@@@std@@U_Iterator_base12@2@@std@@QAE@XZ 00452930 f i slink.obj
 0001:00051950       ??1?$_List_unchecked_const_iterator@V?$_List_val@U?$_List_simple_types@VclientIPC@@@std@@@std@@U_Iterator_base12@2@@std@@QAE@XZ 00452950 f i slink.obj
 0001:00051970       ??1?$_List_val@U?$_List_simple_types@PAVuser@@@std@@@std@@QAE@XZ 00452970 f i slink.obj
 0001:00051990       ??1?$_List_val@U?$_List_simple_types@VclientIPC@@@std@@@std@@QAE@XZ 00452990 f i slink.obj
 0001:000519b0       ??1?$_Tree@V?$_Tmap_traits@IPAVfabianServer@@U?$less@I@std@@V?$allocator@U?$pair@$$CBIPAVfabianServer@@@std@@@3@$0A@@std@@@std@@QAE@XZ 004529b0 f i slink.obj
 0001:000519e0       ??1?$_Tree@V?$_Tset_traits@VQString@@U?$less@VQString@@@std@@V?$allocator@VQString@@@3@$0A@@std@@@std@@QAE@XZ 004529e0 f i slink.obj
 0001:00051a10       ??1?$_Tree@V?$_Tset_traits@VdbEntry@@U?$less@VdbEntry@@@std@@V?$allocator@VdbEntry@@@3@$0A@@std@@@std@@QAE@XZ 00452a10 f i slink.obj
 0001:00051a40       ??1?$_Tree@V?$_Tset_traits@VpollCommand@@U?$less@VpollCommand@@@std@@V?$allocator@VpollCommand@@@3@$0A@@std@@@std@@QAE@XZ 00452a40 f i slink.obj
 0001:00051a70       ??1?$_Tree_alloc@$0A@U?$_Tree_base_types@U?$pair@$$CBIPAVfabianServer@@@std@@V?$allocator@U?$pair@$$CBIPAVfabianServer@@@std@@@2@@std@@@std@@QAE@XZ 00452a70 f i slink.obj
 0001:00051ab0       ??1?$_Tree_alloc@$0A@U?$_Tree_base_types@VQString@@V?$allocator@VQString@@@std@@@std@@@std@@QAE@XZ 00452ab0 f i slink.obj
 0001:00051af0       ??1?$_Tree_alloc@$0A@U?$_Tree_base_types@VdbEntry@@V?$allocator@VdbEntry@@@std@@@std@@@std@@QAE@XZ 00452af0 f i slink.obj
 0001:00051b30       ??1?$_Tree_alloc@$0A@U?$_Tree_base_types@VpollCommand@@V?$allocator@VpollCommand@@@std@@@std@@@std@@QAE@XZ 00452b30 f i slink.obj
 0001:00051b70       ??1?$_Tree_buy@U?$pair@$$CBIPAVfabianServer@@@std@@V?$allocator@U?$pair@$$CBIPAVfabianServer@@@std@@@2@@std@@QAE@XZ 00452b70 f i slink.obj
 0001:00051b90       ??1?$_Tree_buy@VQString@@V?$allocator@VQString@@@std@@@std@@QAE@XZ 00452b90 f i slink.obj
 0001:00051bb0       ??1?$_Tree_buy@VdbEntry@@V?$allocator@VdbEntry@@@std@@@std@@QAE@XZ 00452bb0 f i slink.obj
 0001:00051bd0       ??1?$_Tree_buy@VpollCommand@@V?$allocator@VpollCommand@@@std@@@std@@QAE@XZ 00452bd0 f i slink.obj
 0001:00051bf0       ??1?$_Tree_comp@$0A@V?$_Tmap_traits@IPAVfabianServer@@U?$less@I@std@@V?$allocator@U?$pair@$$CBIPAVfabianServer@@@std@@@3@$0A@@std@@@std@@QAE@XZ 00452bf0 f i slink.obj
 0001:00051c10       ??1?$_Tree_comp@$0A@V?$_Tset_traits@VQString@@U?$less@VQString@@@std@@V?$allocator@VQString@@@3@$0A@@std@@@std@@QAE@XZ 00452c10 f i slink.obj
 0001:00051c30       ??1?$_Tree_comp@$0A@V?$_Tset_traits@VdbEntry@@U?$less@VdbEntry@@@std@@V?$allocator@VdbEntry@@@3@$0A@@std@@@std@@QAE@XZ 00452c30 f i slink.obj
 0001:00051c50       ??1?$_Tree_comp@$0A@V?$_Tset_traits@VpollCommand@@U?$less@VpollCommand@@@std@@V?$allocator@VpollCommand@@@3@$0A@@std@@@std@@QAE@XZ 00452c50 f i slink.obj
 0001:00051c70       ??1?$_Tree_const_iterator@V?$_Tree_val@U?$_Tree_simple_types@U?$pair@$$CBIPAVfabianServer@@@std@@@std@@@std@@@std@@QAE@XZ 00452c70 f i slink.obj
 0001:00051c90       ??1?$_Tree_const_iterator@V?$_Tree_val@U?$_Tree_simple_types@VpollCommand@@@std@@@std@@@std@@QAE@XZ 00452c90 f i slink.obj
 0001:00051cb0       ??1?$_Tree_iterator@V?$_Tree_val@U?$_Tree_simple_types@U?$pair@$$CBIPAVfabianServer@@@std@@@std@@@std@@@std@@QAE@XZ 00452cb0 f i slink.obj
 0001:00051cd0       ??1?$_Tree_unchecked_const_iterator@V?$_Tree_val@U?$_Tree_simple_types@U?$pair@$$CBIPAVfabianServer@@@std@@@std@@@std@@U_Iterator_base12@2@@std@@QAE@XZ 00452cd0 f i slink.obj
 0001:00051cf0       ??1?$_Tree_unchecked_const_iterator@V?$_Tree_val@U?$_Tree_simple_types@VpollCommand@@@std@@@std@@U_Iterator_base12@2@@std@@QAE@XZ 00452cf0 f i slink.obj
 0001:00051d10       ??1?$_Tree_val@U?$_Tree_simple_types@U?$pair@$$CBIPAVfabianServer@@@std@@@std@@@std@@QAE@XZ 00452d10 f i slink.obj
 0001:00051d30       ??1?$_Tree_val@U?$_Tree_simple_types@VQString@@@std@@@std@@QAE@XZ 00452d30 f i slink.obj
 0001:00051d50       ??1?$_Tree_val@U?$_Tree_simple_types@VdbEntry@@@std@@@std@@QAE@XZ 00452d50 f i slink.obj
 0001:00051d70       ??1?$_Tree_val@U?$_Tree_simple_types@VpollCommand@@@std@@@std@@QAE@XZ 00452d70 f i slink.obj
 0001:00051d90       ??1?$deque@VpollCommand@@V?$allocator@VpollCommand@@@std@@@std@@QAE@XZ 00452d90 f i slink.obj
 0001:00051dc0       ??1?$list@PAVuser@@V?$allocator@PAVuser@@@std@@@std@@QAE@XZ 00452dc0 f i slink.obj
 0001:00051df0       ??1?$list@VclientIPC@@V?$allocator@VclientIPC@@@std@@@std@@QAE@XZ 00452df0 f i slink.obj
 0001:00051e20       ??1?$map@IPAVfabianServer@@U?$less@I@std@@V?$allocator@U?$pair@$$CBIPAVfabianServer@@@std@@@3@@std@@QAE@XZ 00452e20 f i slink.obj
 0001:00051e40       ??1?$pair@V?$_Tree_const_iterator@V?$_Tree_val@U?$_Tree_simple_types@VQString@@@std@@@std@@@std@@_N@std@@QAE@XZ 00452e40 f i slink.obj
 0001:00051e60       ??1?$pair@V?$_Tree_const_iterator@V?$_Tree_val@U?$_Tree_simple_types@VpollCommand@@@std@@@std@@@std@@V12@@std@@QAE@XZ 00452e60 f i slink.obj
 0001:00051e90       ??1?$pair@V?$_Tree_const_iterator@V?$_Tree_val@U?$_Tree_simple_types@VpollCommand@@@std@@@std@@@std@@_N@std@@QAE@XZ 00452e90 f i slink.obj
 0001:00051eb0       ??1?$pair@V?$_Tree_iterator@V?$_Tree_val@U?$_Tree_simple_types@U?$pair@$$CBIPAVfabianServer@@@std@@@std@@@std@@@std@@_N@std@@QAE@XZ 00452eb0 f i slink.obj
 0001:00051ed0       ??1?$queue@VpollCommand@@V?$deque@VpollCommand@@V?$allocator@VpollCommand@@@std@@@std@@@std@@QAE@XZ 00452ed0 f i slink.obj
 0001:00051ef0       ??1?$set@VQString@@U?$less@VQString@@@std@@V?$allocator@VQString@@@3@@std@@QAE@XZ 00452ef0 f i slink.obj
 0001:00051f10       ??1?$set@VdbEntry@@U?$less@VdbEntry@@@std@@V?$allocator@VdbEntry@@@3@@std@@QAE@XZ 00452f10 f i slink.obj
 0001:00051f30       ??1?$set@VpollCommand@@U?$less@VpollCommand@@@std@@V?$allocator@VpollCommand@@@3@@std@@QAE@XZ 00452f30 f i slink.obj
 0001:00051f50       ??8?$_List_const_iterator@V?$_List_val@U?$_List_simple_types@PAVuser@@@std@@@std@@@std@@QBE_NABV01@@Z 00452f50 f i slink.obj
 0001:00052040       ??8?$_List_const_iterator@V?$_List_val@U?$_List_simple_types@VclientIPC@@@std@@@std@@@std@@QBE_NABV01@@Z 00453040 f i slink.obj
 0001:00052130       ??8?$_Tree_const_iterator@V?$_Tree_val@U?$_Tree_simple_types@U?$pair@$$CBIPAVfabianServer@@@std@@@std@@@std@@@std@@QBE_NABV01@@Z 00453130 f i slink.obj
 0001:00052220       ??8?$_Tree_const_iterator@V?$_Tree_val@U?$_Tree_simple_types@VpollCommand@@@std@@@std@@@std@@QBE_NABV01@@Z 00453220 f i slink.obj
 0001:00052310       ??9?$_List_const_iterator@V?$_List_val@U?$_List_simple_types@PAVuser@@@std@@@std@@@std@@QBE_NABV01@@Z 00453310 f i slink.obj
 0001:00052360       ??9?$_List_const_iterator@V?$_List_val@U?$_List_simple_types@VclientIPC@@@std@@@std@@@std@@QBE_NABV01@@Z 00453360 f i slink.obj
 0001:000523b0       ??9?$_Tree_const_iterator@V?$_Tree_val@U?$_Tree_simple_types@U?$pair@$$CBIPAVfabianServer@@@std@@@std@@@std@@@std@@QBE_NABV01@@Z 004533b0 f i slink.obj
 0001:00052400       ??9?$_Tree_const_iterator@V?$_Tree_val@U?$_Tree_simple_types@VdbEntry@@@std@@@std@@@std@@QBE_NABV01@@Z 00453400 f i slink.obj
 0001:00052450       ??9?$_Tree_const_iterator@V?$_Tree_val@U?$_Tree_simple_types@VpollCommand@@@std@@@std@@@std@@QBE_NABV01@@Z 00453450 f i slink.obj
 0001:000524a0       ??9const_iterator@?$QList@VQSslCipher@@@@QBE_NABV01@@Z 004534a0 f i slink.obj
 0001:000524e0       ??9iterator@?$QList@VQString@@@@QBE_NABV01@@Z 004534e0 f i slink.obj
 0001:00052520       ??C?$_List_unchecked_const_iterator@V?$_List_val@U?$_List_simple_types@VclientIPC@@@std@@@std@@U_Iterator_base12@2@@std@@QBEPBVclientIPC@@XZ 00453520 f i slink.obj
 0001:00052550       ??C?$_Tree_const_iterator@V?$_Tree_val@U?$_Tree_simple_types@U?$pair@$$CBIPAVfabianServer@@@std@@@std@@@std@@@std@@QBEPBU?$pair@$$CBIPAVfabianServer@@@1@XZ 00453550 f i slink.obj
 0001:00052580       ??C?$_Tree_const_iterator@V?$_Tree_val@U?$_Tree_simple_types@VdbEntry@@@std@@@std@@@std@@QBEPBVdbEntry@@XZ 00453580 f i slink.obj
 0001:000525b0       ??C?$_Tree_const_iterator@V?$_Tree_val@U?$_Tree_simple_types@VpollCommand@@@std@@@std@@@std@@QBEPBVpollCommand@@XZ 004535b0 f i slink.obj
 0001:000525e0       ??C?$_Tree_iterator@V?$_Tree_val@U?$_Tree_simple_types@U?$pair@$$CBIPAVfabianServer@@@std@@@std@@@std@@@std@@QBEPAU?$pair@$$CBIPAVfabianServer@@@1@XZ 004535e0 f i slink.obj
 0001:00052610       ??D?$_Deque_const_iterator@V?$_Deque_val@U?$_Deque_simple_types@VpollCommand@@@std@@@std@@@std@@QBEABVpollCommand@@XZ 00453610 f i slink.obj
 0001:00052730       ??D?$_Deque_iterator@V?$_Deque_val@U?$_Deque_simple_types@VpollCommand@@@std@@@std@@@std@@QBEAAVpollCommand@@XZ 00453730 f i slink.obj
 0001:00052750       ??D?$_List_const_iterator@V?$_List_val@U?$_List_simple_types@PAVuser@@@std@@@std@@@std@@QBEABQAVuser@@XZ 00453750 f i slink.obj
 0001:00052830       ??D?$_List_unchecked_const_iterator@V?$_List_val@U?$_List_simple_types@VclientIPC@@@std@@@std@@U_Iterator_base12@2@@std@@QBEABVclientIPC@@XZ 00453830 f i slink.obj
 0001:00052850       ??D?$_Tree_const_iterator@V?$_Tree_val@U?$_Tree_simple_types@U?$pair@$$CBIPAVfabianServer@@@std@@@std@@@std@@@std@@QBEABU?$pair@$$CBIPAVfabianServer@@@1@XZ 00453850 f i slink.obj
 0001:00052930       ??D?$_Tree_const_iterator@V?$_Tree_val@U?$_Tree_simple_types@VdbEntry@@@std@@@std@@@std@@QBEABVdbEntry@@XZ 00453930 f i slink.obj
 0001:00052a10       ??D?$_Tree_const_iterator@V?$_Tree_val@U?$_Tree_simple_types@VpollCommand@@@std@@@std@@@std@@QBEABVpollCommand@@XZ 00453a10 f i slink.obj
 0001:00052af0       ??D?$_Tree_iterator@V?$_Tree_val@U?$_Tree_simple_types@U?$pair@$$CBIPAVfabianServer@@@std@@@std@@@std@@@std@@QBEAAU?$pair@$$CBIPAVfabianServer@@@1@XZ 00453af0 f i slink.obj
 0001:00052b10       ??Dconst_iterator@?$QList@VQSslCipher@@@@QBEABVQSslCipher@@XZ 00453b10 f i slink.obj
 0001:00052b30       ??Diterator@?$QList@VQString@@@@QBEAAVQString@@XZ 00453b30 f i slink.obj
 0001:00052b50       ??E?$_List_const_iterator@V?$_List_val@U?$_List_simple_types@PAVuser@@@std@@@std@@@std@@QAE?AV01@H@Z 00453b50 f i slink.obj
 0001:00052c00       ??E?$_List_const_iterator@V?$_List_val@U?$_List_simple_types@PAVuser@@@std@@@std@@@std@@QAEAAV01@XZ 00453c00 f i slink.obj
 0001:00052cf0       ??E?$_List_const_iterator@V?$_List_val@U?$_List_simple_types@VclientIPC@@@std@@@std@@@std@@QAEAAV01@XZ 00453cf0 f i slink.obj
 0001:00052de0       ??E?$_Tree_const_iterator@V?$_Tree_val@U?$_Tree_simple_types@U?$pair@$$CBIPAVfabianServer@@@std@@@std@@@std@@@std@@QAE?AV01@H@Z 00453de0 f i slink.obj
 0001:00052e90       ??E?$_Tree_const_iterator@V?$_Tree_val@U?$_Tree_simple_types@U?$pair@$$CBIPAVfabianServer@@@std@@@std@@@std@@@std@@QAEAAV01@XZ 00453e90 f i slink.obj
 0001:00052f70       ??E?$_Tree_const_iterator@V?$_Tree_val@U?$_Tree_simple_types@VQString@@@std@@@std@@@std@@QAE?AV01@H@Z 00453f70 f i slink.obj
 0001:00053020       ??E?$_Tree_const_iterator@V?$_Tree_val@U?$_Tree_simple_types@VdbEntry@@@std@@@std@@@std@@QAE?AV01@H@Z 00454020 f i slink.obj
 0001:000530d0       ??E?$_Tree_const_iterator@V?$_Tree_val@U?$_Tree_simple_types@VdbEntry@@@std@@@std@@@std@@QAEAAV01@XZ 004540d0 f i slink.obj
 0001:000531b0       ??E?$_Tree_const_iterator@V?$_Tree_val@U?$_Tree_simple_types@VpollCommand@@@std@@@std@@@std@@QAE?AV01@H@Z 004541b0 f i slink.obj
 0001:00053260       ??E?$_Tree_const_iterator@V?$_Tree_val@U?$_Tree_simple_types@VpollCommand@@@std@@@std@@@std@@QAEAAV01@XZ 00454260 f i slink.obj
 0001:00053340       ??E?$_Tree_iterator@V?$_Tree_val@U?$_Tree_simple_types@U?$pair@$$CBIPAVfabianServer@@@std@@@std@@@std@@@std@@QAEAAV01@XZ 00454340 f i slink.obj
 0001:00053360       ??E?$_Tree_unchecked_const_iterator@V?$_Tree_val@U?$_Tree_simple_types@U?$pair@$$CBIPAVfabianServer@@@std@@@std@@@std@@U_Iterator_base12@2@@std@@QAEAAV01@XZ 00454360 f i slink.obj
 0001:00053450       ??E?$_Tree_unchecked_const_iterator@V?$_Tree_val@U?$_Tree_simple_types@VdbEntry@@@std@@@std@@U_Iterator_base12@2@@std@@QAEAAV01@XZ 00454450 f i slink.obj
 0001:00053540       ??E?$_Tree_unchecked_const_iterator@V?$_Tree_val@U?$_Tree_simple_types@VpollCommand@@@std@@@std@@U_Iterator_base12@2@@std@@QAEAAV01@XZ 00454540 f i slink.obj
 0001:00053630       ??Econst_iterator@?$QList@VQSslCipher@@@@QAEAAV01@XZ 00454630 f i slink.obj
 0001:00053660       ??Eiterator@?$QList@VQString@@@@QAEAAV01@XZ 00454660 f i slink.obj
 0001:00053690       ??F?$_Tree_const_iterator@V?$_Tree_val@U?$_Tree_simple_types@U?$pair@$$CBIPAVfabianServer@@@std@@@std@@@std@@@std@@QAEAAV01@XZ 00454690 f i slink.obj
 0001:000537f0       ??F?$_Tree_const_iterator@V?$_Tree_val@U?$_Tree_simple_types@VQString@@@std@@@std@@@std@@QAEAAV01@XZ 004547f0 f i slink.obj
 0001:00053950       ??F?$_Tree_const_iterator@V?$_Tree_val@U?$_Tree_simple_types@VpollCommand@@@std@@@std@@@std@@QAEAAV01@XZ 00454950 f i slink.obj
 0001:00053ab0       ??F?$_Tree_iterator@V?$_Tree_val@U?$_Tree_simple_types@U?$pair@$$CBIPAVfabianServer@@@std@@@std@@@std@@@std@@QAEAAV01@XZ 00454ab0 f i slink.obj
 0001:00053ad0       ??F?$_Tree_unchecked_const_iterator@V?$_Tree_val@U?$_Tree_simple_types@U?$pair@$$CBIPAVfabianServer@@@std@@@std@@@std@@U_Iterator_base12@2@@std@@QAEAAV01@XZ 00454ad0 f i slink.obj
 0001:00053c00       ??F?$_Tree_unchecked_const_iterator@V?$_Tree_val@U?$_Tree_simple_types@VQString@@@std@@@std@@U_Iterator_base12@2@@std@@QAEAAV01@XZ 00454c00 f i slink.obj
 0001:00053d30       ??F?$_Tree_unchecked_const_iterator@V?$_Tree_val@U?$_Tree_simple_types@VpollCommand@@@std@@@std@@U_Iterator_base12@2@@std@@QAEAAV01@XZ 00454d30 f i slink.obj
 0001:00053e60       ??MpollCommand@@QBE_NABV0@@Z 00454e60 f i slink.obj
 0001:00053ef0       ??R?$less@VQString@@@std@@QBE_NABVQString@@0@Z 00454ef0 f i slink.obj
 0001:00053f20       ??R?$less@VpollCommand@@@std@@QBE_NABVpollCommand@@0@Z 00454f20 f i slink.obj
 0001:00053f3f       ??_EQGroupBox@@W7AEPAXI@Z  00454f3f f i slink.obj
 0001:00053f49       ??_EQHBoxLayout@@W7AEPAXI@Z 00454f49 f i slink.obj
 0001:00053f53       ??_EQListWidget@@W7AEPAXI@Z 00454f53 f i slink.obj
 0001:00053f5d       ??_EQMenu@@W7AEPAXI@Z      00454f5d f i slink.obj
 0001:00053f67       ??_EQMenuBar@@W7AEPAXI@Z   00454f67 f i slink.obj
 0001:00053f71       ??_EQPushButton@@W7AEPAXI@Z 00454f71 f i slink.obj
 0001:00053f7b       ??_EQSplitter@@W7AEPAXI@Z  00454f7b f i slink.obj
 0001:00053f85       ??_EQStatusBar@@W7AEPAXI@Z 00454f85 f i slink.obj
 0001:00053f8f       ??_EQTextEdit@@W7AEPAXI@Z  00454f8f f i slink.obj
 0001:00053f99       ??_EQToolBar@@W7AEPAXI@Z   00454f99 f i slink.obj
 0001:00053fa3       ??_EQTreeWidget@@W7AEPAXI@Z 00454fa3 f i slink.obj
 0001:00053fad       ??_EQVBoxLayout@@W7AEPAXI@Z 00454fad f i slink.obj
 0001:00053fb7       ??_EQWidget@@W7AEPAXI@Z    00454fb7 f i slink.obj
 0001:00053fc1       ??_Eslink@@W7AEPAXI@Z      00454fc1 f i slink.obj
 0001:00053fcb       ??_Eslink@@WCA@AEPAXI@Z    00454fcb f i slink.obj
 0001:00053fe0       ??_GQAction@@UAEPAXI@Z     00454fe0 f i slink.obj
 0001:00053fe0       ??_EQAction@@UAEPAXI@Z     00454fe0 f i slink.obj
 0001:00054020       ??_EQGroupBox@@UAEPAXI@Z   00455020 f i slink.obj
 0001:00054020       ??_GQGroupBox@@UAEPAXI@Z   00455020 f i slink.obj
 0001:00054060       ??_EQHBoxLayout@@UAEPAXI@Z 00455060 f i slink.obj
 0001:00054060       ??_GQHBoxLayout@@UAEPAXI@Z 00455060 f i slink.obj
 0001:000540a0       ??_GQListWidget@@UAEPAXI@Z 004550a0 f i slink.obj
 0001:000540a0       ??_EQListWidget@@UAEPAXI@Z 004550a0 f i slink.obj
 0001:000540e0       ??_GQListWidgetItem@@UAEPAXI@Z 004550e0 f i slink.obj
 0001:000540e0       ??_EQListWidgetItem@@UAEPAXI@Z 004550e0 f i slink.obj
 0001:00054120       ??_GQMenu@@UAEPAXI@Z       00455120 f i slink.obj
 0001:00054120       ??_EQMenu@@UAEPAXI@Z       00455120 f i slink.obj
 0001:00054160       ??_GQMenuBar@@UAEPAXI@Z    00455160 f i slink.obj
 0001:00054160       ??_EQMenuBar@@UAEPAXI@Z    00455160 f i slink.obj
 0001:000541a0       ??_EQPushButton@@UAEPAXI@Z 004551a0 f i slink.obj
 0001:000541a0       ??_GQPushButton@@UAEPAXI@Z 004551a0 f i slink.obj
 0001:000541e0       ??_EQSpacerItem@@UAEPAXI@Z 004551e0 f i slink.obj
 0001:000541e0       ??_GQSpacerItem@@UAEPAXI@Z 004551e0 f i slink.obj
 0001:00054220       ??_GQSplitter@@UAEPAXI@Z   00455220 f i slink.obj
 0001:00054220       ??_EQSplitter@@UAEPAXI@Z   00455220 f i slink.obj
 0001:00054260       ??_GQSslCipher@@QAEPAXI@Z  00455260 f i slink.obj
 0001:000542a0       ??_GQStatusBar@@UAEPAXI@Z  004552a0 f i slink.obj
 0001:000542a0       ??_EQStatusBar@@UAEPAXI@Z  004552a0 f i slink.obj
 0001:000542e0       ??_GQTextEdit@@UAEPAXI@Z   004552e0 f i slink.obj
 0001:000542e0       ??_EQTextEdit@@UAEPAXI@Z   004552e0 f i slink.obj
 0001:00054320       ??_GQToolBar@@UAEPAXI@Z    00455320 f i slink.obj
 0001:00054320       ??_EQToolBar@@UAEPAXI@Z    00455320 f i slink.obj
 0001:00054360       ??_GQTreeWidget@@UAEPAXI@Z 00455360 f i slink.obj
 0001:00054360       ??_EQTreeWidget@@UAEPAXI@Z 00455360 f i slink.obj
 0001:000543a0       ??_GQVBoxLayout@@UAEPAXI@Z 004553a0 f i slink.obj
 0001:000543a0       ??_EQVBoxLayout@@UAEPAXI@Z 004553a0 f i slink.obj
 0001:000543e0       ??_GQWidget@@UAEPAXI@Z     004553e0 f i slink.obj
 0001:000543e0       ??_EQWidget@@UAEPAXI@Z     004553e0 f i slink.obj
 0001:00054420       ??_Gslink@@UAEPAXI@Z       00455420 f i slink.obj
 0001:00054420       ??_Eslink@@UAEPAXI@Z       00455420 f i slink.obj
 0001:00054460       ?_Alloc_proxy@?$_Deque_alloc@$0A@U?$_Deque_base_types@VpollCommand@@V?$allocator@VpollCommand@@@std@@@std@@@std@@QAEXXZ 00455460 f i slink.obj
 0001:000544c0       ?_Alloc_proxy@?$_List_alloc@$0A@U?$_List_base_types@PAVuser@@V?$allocator@PAVuser@@@std@@@std@@@std@@QAEXXZ 004554c0 f i slink.obj
 0001:00054520       ?_Alloc_proxy@?$_List_alloc@$0A@U?$_List_base_types@VclientIPC@@V?$allocator@VclientIPC@@@std@@@std@@@std@@QAEXXZ 00455520 f i slink.obj
 0001:00054580       ?_Alloc_proxy@?$_Tree_alloc@$0A@U?$_Tree_base_types@U?$pair@$$CBIPAVfabianServer@@@std@@V?$allocator@U?$pair@$$CBIPAVfabianServer@@@std@@@2@@std@@@std@@QAEXXZ 00455580 f i slink.obj
 0001:000545f0       ?_Alloc_proxy@?$_Tree_alloc@$0A@U?$_Tree_base_types@VQString@@V?$allocator@VQString@@@std@@@std@@@std@@QAEXXZ 004555f0 f i slink.obj
 0001:00054660       ?_Alloc_proxy@?$_Tree_alloc@$0A@U?$_Tree_base_types@VdbEntry@@V?$allocator@VdbEntry@@@std@@@std@@@std@@QAEXXZ 00455660 f i slink.obj
 0001:000546d0       ?_Alloc_proxy@?$_Tree_alloc@$0A@U?$_Tree_base_types@VpollCommand@@V?$allocator@VpollCommand@@@std@@@std@@@std@@QAEXXZ 004556d0 f i slink.obj
 0001:00054740       ?_Buyheadnode@?$_List_alloc@$0A@U?$_List_base_types@PAVuser@@V?$allocator@PAVuser@@@std@@@std@@@std@@QAEPAU?$_List_node@PAVuser@@PAX@2@XZ 00455740 f i slink.obj
 0001:00054760       ?_Buyheadnode@?$_List_alloc@$0A@U?$_List_base_types@VclientIPC@@V?$allocator@VclientIPC@@@std@@@std@@@std@@QAEPAU?$_List_node@VclientIPC@@PAX@2@XZ 00455760 f i slink.obj
 0001:00054780       ?_Buyheadnode@?$_Tree_alloc@$0A@U?$_Tree_base_types@U?$pair@$$CBIPAVfabianServer@@@std@@V?$allocator@U?$pair@$$CBIPAVfabianServer@@@std@@@2@@std@@@std@@QAEPAU?$_Tree_node@U?$pair@$$CBIPAVfabianServer@@@std@@PAX@2@XZ 00455780 f i slink.obj
 0001:00054940       ?_Buyheadnode@?$_Tree_alloc@$0A@U?$_Tree_base_types@VQString@@V?$allocator@VQString@@@std@@@std@@@std@@QAEPAU?$_Tree_node@VQString@@PAX@2@XZ 00455940 f i slink.obj
 0001:00054b00       ?_Buyheadnode@?$_Tree_alloc@$0A@U?$_Tree_base_types@VdbEntry@@V?$allocator@VdbEntry@@@std@@@std@@@std@@QAEPAU?$_Tree_node@VdbEntry@@PAX@2@XZ 00455b00 f i slink.obj
 0001:00054cc0       ?_Buyheadnode@?$_Tree_alloc@$0A@U?$_Tree_base_types@VpollCommand@@V?$allocator@VpollCommand@@@std@@@std@@@std@@QAEPAU?$_Tree_node@VpollCommand@@PAX@2@XZ 00455cc0 f i slink.obj
 0001:00054e80       ?_Buynode0@?$_List_alloc@$0A@U?$_List_base_types@PAVuser@@V?$allocator@PAVuser@@@std@@@std@@@std@@QAEPAU?$_List_node@PAVuser@@PAX@2@PAU32@0@Z 00455e80 f i slink.obj
 0001:00054ff0       ?_Buynode0@?$_Tree_buy@U?$pair@$$CBIPAVfabianServer@@@std@@V?$allocator@U?$pair@$$CBIPAVfabianServer@@@std@@@2@@std@@QAEPAU?$_Tree_node@U?$pair@$$CBIPAVfabianServer@@@std@@PAX@2@XZ 00455ff0 f i slink.obj
 0001:00055190       ?_Buynode0@?$_Tree_buy@VQString@@V?$allocator@VQString@@@std@@@std@@QAEPAU?$_Tree_node@VQString@@PAX@2@XZ 00456190 f i slink.obj
 0001:00055330       ?_Buynode0@?$_Tree_buy@VpollCommand@@V?$allocator@VpollCommand@@@std@@@std@@QAEPAU?$_Tree_node@VpollCommand@@PAX@2@XZ 00456330 f i slink.obj
 0001:000554d0       ?_Color@?$_Tree_val@U?$_Tree_simple_types@U?$pair@$$CBIPAVfabianServer@@@std@@@std@@@std@@SAAADPAU?$_Tree_node@U?$pair@$$CBIPAVfabianServer@@@std@@PAX@2@@Z 004564d0 f i slink.obj
 0001:000554e0       ?_Color@?$_Tree_val@U?$_Tree_simple_types@VQString@@@std@@@std@@SAAADPAU?$_Tree_node@VQString@@PAX@2@@Z 004564e0 f i slink.obj
 0001:000554f0       ?_Color@?$_Tree_val@U?$_Tree_simple_types@VpollCommand@@@std@@@std@@SAAADPAU?$_Tree_node@VpollCommand@@PAX@2@@Z 004564f0 f i slink.obj
 0001:00055500       ?_Destroy_if_not_nil@?$_Tree@V?$_Tmap_traits@IPAVfabianServer@@U?$less@I@std@@V?$allocator@U?$pair@$$CBIPAVfabianServer@@@std@@@3@$0A@@std@@@std@@IAEXPAU?$_Tree_node@U?$pair@$$CBIPAVfabianServer@@@std@@PAX@2@@Z 00456500 f i slink.obj
 0001:00055570       ?_Destroy_if_not_nil@?$_Tree@V?$_Tset_traits@VQString@@U?$less@VQString@@@std@@V?$allocator@VQString@@@3@$0A@@std@@@std@@IAEXU_Nil@2@@Z 00456570 f i slink.obj
 0001:00055580       ?_Destroy_if_not_nil@?$_Tree@V?$_Tset_traits@VpollCommand@@U?$less@VpollCommand@@@std@@V?$allocator@VpollCommand@@@3@$0A@@std@@@std@@IAEXU_Nil@2@@Z 00456580 f i slink.obj
 0001:00055590       ?_Eqrange@?$_Tree@V?$_Tset_traits@VpollCommand@@U?$less@VpollCommand@@@std@@V?$allocator@VpollCommand@@@3@$0A@@std@@@std@@IAE?AU?$pair@V?$_Tree_const_iterator@V?$_Tree_val@U?$_Tree_simple_types@VpollCommand@@@std@@@std@@@std@@V12@@2@ABVpollCommand@@@Z 00456590 f i slink.obj
 0001:00055870       ?_Erase@?$_Tree@V?$_Tmap_traits@IPAVfabianServer@@U?$less@I@std@@V?$allocator@U?$pair@$$CBIPAVfabianServer@@@std@@@3@$0A@@std@@@std@@IAEXPAU?$_Tree_node@U?$pair@$$CBIPAVfabianServer@@@std@@PAX@2@@Z 00456870 f i slink.obj
 0001:00055940       ?_Erase@?$_Tree@V?$_Tset_traits@VQString@@U?$less@VQString@@@std@@V?$allocator@VQString@@@3@$0A@@std@@@std@@IAEXPAU?$_Tree_node@VQString@@PAX@2@@Z 00456940 f i slink.obj
 0001:00055a10       ?_Erase@?$_Tree@V?$_Tset_traits@VdbEntry@@U?$less@VdbEntry@@@std@@V?$allocator@VdbEntry@@@3@$0A@@std@@@std@@IAEXPAU?$_Tree_node@VdbEntry@@PAX@2@@Z 00456a10 f i slink.obj
 0001:00055ae0       ?_Erase@?$_Tree@V?$_Tset_traits@VpollCommand@@U?$less@VpollCommand@@@std@@V?$allocator@VpollCommand@@@3@$0A@@std@@@std@@IAEXPAU?$_Tree_node@VpollCommand@@PAX@2@@Z 00456ae0 f i slink.obj
 0001:00055bb0       ?_Free_proxy@?$_Deque_alloc@$0A@U?$_Deque_base_types@VpollCommand@@V?$allocator@VpollCommand@@@std@@@std@@@std@@QAEXXZ 00456bb0 f i slink.obj
 0001:00055c10       ?_Free_proxy@?$_List_alloc@$0A@U?$_List_base_types@PAVuser@@V?$allocator@PAVuser@@@std@@@std@@@std@@QAEXXZ 00456c10 f i slink.obj
 0001:00055c70       ?_Free_proxy@?$_List_alloc@$0A@U?$_List_base_types@VclientIPC@@V?$allocator@VclientIPC@@@std@@@std@@@std@@QAEXXZ 00456c70 f i slink.obj
 0001:00055cd0       ?_Free_proxy@?$_Tree_alloc@$0A@U?$_Tree_base_types@U?$pair@$$CBIPAVfabianServer@@@std@@V?$allocator@U?$pair@$$CBIPAVfabianServer@@@std@@@2@@std@@@std@@QAEXXZ 00456cd0 f i slink.obj
 0001:00055d40       ?_Free_proxy@?$_Tree_alloc@$0A@U?$_Tree_base_types@VQString@@V?$allocator@VQString@@@std@@@std@@@std@@QAEXXZ 00456d40 f i slink.obj
 0001:00055db0       ?_Free_proxy@?$_Tree_alloc@$0A@U?$_Tree_base_types@VdbEntry@@V?$allocator@VdbEntry@@@std@@@std@@@std@@QAEXXZ 00456db0 f i slink.obj
 0001:00055e20       ?_Free_proxy@?$_Tree_alloc@$0A@U?$_Tree_base_types@VpollCommand@@V?$allocator@VpollCommand@@@std@@@std@@@std@@QAEXXZ 00456e20 f i slink.obj
 0001:00055e90       ?_Freeheadnode@?$_List_alloc@$0A@U?$_List_base_types@PAVuser@@V?$allocator@PAVuser@@@std@@@std@@@std@@QAEXPAU?$_List_node@PAVuser@@PAX@2@@Z 00456e90 f i slink.obj
 0001:00055f30       ?_Freeheadnode@?$_List_alloc@$0A@U?$_List_base_types@VclientIPC@@V?$allocator@VclientIPC@@@std@@@std@@@std@@QAEXPAU?$_List_node@VclientIPC@@PAX@2@@Z 00456f30 f i slink.obj
 0001:00055fd0       ?_Freeheadnode@?$_Tree_alloc@$0A@U?$_Tree_base_types@U?$pair@$$CBIPAVfabianServer@@@std@@V?$allocator@U?$pair@$$CBIPAVfabianServer@@@std@@@2@@std@@@std@@QAEXPAU?$_Tree_node@U?$pair@$$CBIPAVfabianServer@@@std@@PAX@2@@Z 00456fd0 f i slink.obj
 0001:000560a0       ?_Freeheadnode@?$_Tree_alloc@$0A@U?$_Tree_base_types@VQString@@V?$allocator@VQString@@@std@@@std@@@std@@QAEXPAU?$_Tree_node@VQString@@PAX@2@@Z 004570a0 f i slink.obj
 0001:00056170       ?_Freeheadnode@?$_Tree_alloc@$0A@U?$_Tree_base_types@VdbEntry@@V?$allocator@VdbEntry@@@std@@@std@@@std@@QAEXPAU?$_Tree_node@VdbEntry@@PAX@2@@Z 00457170 f i slink.obj
 0001:00056240       ?_Freeheadnode@?$_Tree_alloc@$0A@U?$_Tree_base_types@VpollCommand@@V?$allocator@VpollCommand@@@std@@@std@@@std@@QAEXPAU?$_Tree_node@VpollCommand@@PAX@2@@Z 00457240 f i slink.obj
 0001:00056310       ?_Freenode0@?$_Tree_buy@U?$pair@$$CBIPAVfabianServer@@@std@@V?$allocator@U?$pair@$$CBIPAVfabianServer@@@std@@@2@@std@@QAEXPAU?$_Tree_node@U?$pair@$$CBIPAVfabianServer@@@std@@PAX@2@@Z 00457310 f i slink.obj
 0001:000563e0       ?_Freenode0@?$_Tree_buy@VQString@@V?$allocator@VQString@@@std@@@std@@QAEXPAU?$_Tree_node@VQString@@PAX@2@@Z 004573e0 f i slink.obj
 0001:000564b0       ?_Freenode0@?$_Tree_buy@VpollCommand@@V?$allocator@VpollCommand@@@std@@@std@@QAEXPAU?$_Tree_node@VpollCommand@@PAX@2@@Z 004574b0 f i slink.obj
 0001:00056580       ?_Freenode@?$_List_buy@PAVuser@@V?$allocator@PAVuser@@@std@@@std@@QAEXPAU?$_List_node@PAVuser@@PAX@2@@Z 00457580 f i slink.obj
 0001:00056650       ?_Freenode@?$_List_buy@VclientIPC@@V?$allocator@VclientIPC@@@std@@@std@@QAEXPAU?$_List_node@VclientIPC@@PAX@2@@Z 00457650 f i slink.obj
 0001:00056720       ?_Getal@?$_Deque_alloc@$0A@U?$_Deque_base_types@VpollCommand@@V?$allocator@VpollCommand@@@std@@@std@@@std@@QBE?AU?$_Wrap_alloc@V?$allocator@VpollCommand@@@std@@@2@XZ 00457720 f i slink.obj
 0001:00056740       ?_Getal@?$_List_alloc@$0A@U?$_List_base_types@PAVuser@@V?$allocator@PAVuser@@@std@@@std@@@std@@QBE?AU?$_Wrap_alloc@V?$allocator@U?$_List_node@PAVuser@@PAX@std@@@std@@@2@XZ 00457740 f i slink.obj
 0001:00056760       ?_Getal@?$_Tree_alloc@$0A@U?$_Tree_base_types@U?$pair@$$CBIPAVfabianServer@@@std@@V?$allocator@U?$pair@$$CBIPAVfabianServer@@@std@@@2@@std@@@std@@QBE?AU?$_Wrap_alloc@V?$allocator@U?$_Tree_node@U?$pair@$$CBIPAVfabianServer@@@std@@PAX@std@@@std@@@2@XZ 00457760 f i slink.obj
 0001:00056780       ?_Getal@?$_Tree_alloc@$0A@U?$_Tree_base_types@VQString@@V?$allocator@VQString@@@std@@@std@@@std@@QBE?AU?$_Wrap_alloc@V?$allocator@U?$_Tree_node@VQString@@PAX@std@@@std@@@2@XZ 00457780 f i slink.obj
 0001:000567a0       ?_Getal@?$_Tree_alloc@$0A@U?$_Tree_base_types@VpollCommand@@V?$allocator@VpollCommand@@@std@@@std@@@std@@QBE?AU?$_Wrap_alloc@V?$allocator@U?$_Tree_node@VpollCommand@@PAX@std@@@std@@@2@XZ 004577a0 f i slink.obj
 0001:000567c0       ?_Getblock@?$_Deque_val@U?$_Deque_simple_types@VpollCommand@@@std@@@std@@QBEII@Z 004577c0 f i slink.obj
 0001:000567e0       ?_Getcomp@?$_Tree_comp@$0A@V?$_Tmap_traits@IPAVfabianServer@@U?$less@I@std@@V?$allocator@U?$pair@$$CBIPAVfabianServer@@@std@@@3@$0A@@std@@@std@@QBE?AU?$less@I@2@XZ 004577e0 f i slink.obj
 0001:00056800       ?_Getcomp@?$_Tree_comp@$0A@V?$_Tset_traits@VQString@@U?$less@VQString@@@std@@V?$allocator@VQString@@@3@$0A@@std@@@std@@QBE?AU?$less@VQString@@@2@XZ 00457800 f i slink.obj
 0001:00056820       ?_Getcomp@?$_Tree_comp@$0A@V?$_Tset_traits@VpollCommand@@U?$less@VpollCommand@@@std@@V?$allocator@VpollCommand@@@3@$0A@@std@@@std@@QBE?AU?$less@VpollCommand@@@2@XZ 00457820 f i slink.obj
 0001:00056840       ?_Growmap@?$deque@VpollCommand@@V?$allocator@VpollCommand@@@std@@@std@@IAEXI@Z 00457840 f i slink.obj
 0001:00056ad0       ?_Isnil@?$_Tree_val@U?$_Tree_simple_types@U?$pair@$$CBIPAVfabianServer@@@std@@@std@@@std@@SAAADPAU?$_Tree_node@U?$pair@$$CBIPAVfabianServer@@@std@@PAX@2@@Z 00457ad0 f i slink.obj
 0001:00056ae0       ?_Isnil@?$_Tree_val@U?$_Tree_simple_types@VpollCommand@@@std@@@std@@SAAADPAU?$_Tree_node@VpollCommand@@PAX@2@@Z 00457ae0 f i slink.obj
 0001:00056af0       ?_Key@?$_Tree@V?$_Tmap_traits@IPAVfabianServer@@U?$less@I@std@@V?$allocator@U?$pair@$$CBIPAVfabianServer@@@std@@@3@$0A@@std@@@std@@IBEABIPAU?$_Tree_node@U?$pair@$$CBIPAVfabianServer@@@std@@PAX@2@@Z 00457af0 f i slink.obj
 0001:00056b20       ?_Key@?$_Tree@V?$_Tset_traits@VQString@@U?$less@VQString@@@std@@V?$allocator@VQString@@@3@$0A@@std@@@std@@IBEABVQString@@PAU?$_Tree_node@VQString@@PAX@2@@Z 00457b20 f i slink.obj
 0001:00056b50       ?_Key@?$_Tree@V?$_Tset_traits@VpollCommand@@U?$less@VpollCommand@@@std@@V?$allocator@VpollCommand@@@3@$0A@@std@@@std@@IBEABVpollCommand@@PAU?$_Tree_node@VpollCommand@@PAX@2@@Z 00457b50 f i slink.obj
 0001:00056b80       ?_Kfn@?$_Tree@V?$_Tmap_traits@IPAVfabianServer@@U?$less@I@std@@V?$allocator@U?$pair@$$CBIPAVfabianServer@@@std@@@3@$0A@@std@@@std@@IBEABIABU?$pair@$$CBIPAVfabianServer@@@2@@Z 00457b80 f i slink.obj
 0001:00056ba0       ?_Kfn@?$_Tree@V?$_Tset_traits@VQString@@U?$less@VQString@@@std@@V?$allocator@VQString@@@3@$0A@@std@@@std@@IBEABVQString@@ABV3@@Z 00457ba0 f i slink.obj
 0001:00056bc0       ?_Kfn@?$_Tree@V?$_Tset_traits@VpollCommand@@U?$less@VpollCommand@@@std@@V?$allocator@VpollCommand@@@3@$0A@@std@@@std@@IBEABVpollCommand@@ABV3@@Z 00457bc0 f i slink.obj
 0001:00056be0       ?_Kfn@?$_Tset_traits@VQString@@U?$less@VQString@@@std@@V?$allocator@VQString@@@3@$0A@@std@@SAABVQString@@ABV3@@Z 00457be0 f i slink.obj
 0001:00056bf0       ?_Kfn@?$_Tset_traits@VpollCommand@@U?$less@VpollCommand@@@std@@V?$allocator@VpollCommand@@@3@$0A@@std@@SAABVpollCommand@@ABV3@@Z 00457bf0 f i slink.obj
 0001:00056c00       ?_Lbound@?$_Tree@V?$_Tmap_traits@IPAVfabianServer@@U?$less@I@std@@V?$allocator@U?$pair@$$CBIPAVfabianServer@@@std@@@3@$0A@@std@@@std@@IAEPAU?$_Tree_node@U?$pair@$$CBIPAVfabianServer@@@std@@PAX@2@ABI@Z 00457c00 f i slink.obj
 0001:00056cd0       ?_Lbound@?$_Tree@V?$_Tset_traits@VpollCommand@@U?$less@VpollCommand@@@std@@V?$allocator@VpollCommand@@@3@$0A@@std@@@std@@IAEPAU?$_Tree_node@VpollCommand@@PAX@2@ABVpollCommand@@@Z 00457cd0 f i slink.obj
 0001:00056da0       ?_Left@?$_Tree_val@U?$_Tree_simple_types@U?$pair@$$CBIPAVfabianServer@@@std@@@std@@@std@@SAAAPAU?$_Tree_node@U?$pair@$$CBIPAVfabianServer@@@std@@PAX@2@PAU32@@Z 00457da0 f i slink.obj
 0001:00056db0       ?_Left@?$_Tree_val@U?$_Tree_simple_types@VpollCommand@@@std@@@std@@SAAAPAU?$_Tree_node@VpollCommand@@PAX@2@PAU32@@Z 00457db0 f i slink.obj
 0001:00056dc0       ?_Lmost@?$_Tree@V?$_Tmap_traits@IPAVfabianServer@@U?$less@I@std@@V?$allocator@U?$pair@$$CBIPAVfabianServer@@@std@@@3@$0A@@std@@@std@@IBEAAPAU?$_Tree_node@U?$pair@$$CBIPAVfabianServer@@@std@@PAX@2@XZ 00457dc0 f i slink.obj
 0001:00056de0       ?_Lmost@?$_Tree@V?$_Tset_traits@VpollCommand@@U?$less@VpollCommand@@@std@@V?$allocator@VpollCommand@@@3@$0A@@std@@@std@@IBEAAPAU?$_Tree_node@VpollCommand@@PAX@2@XZ 00457de0 f i slink.obj
 0001:00056e00       ?_Lrotate@?$_Tree@V?$_Tmap_traits@IPAVfabianServer@@U?$less@I@std@@V?$allocator@U?$pair@$$CBIPAVfabianServer@@@std@@@3@$0A@@std@@@std@@IAEXPAU?$_Tree_node@U?$pair@$$CBIPAVfabianServer@@@std@@PAX@2@@Z 00457e00 f i slink.obj
 0001:00056f80       ?_Lrotate@?$_Tree@V?$_Tset_traits@VQString@@U?$less@VQString@@@std@@V?$allocator@VQString@@@3@$0A@@std@@@std@@IAEXPAU?$_Tree_node@VQString@@PAX@2@@Z 00457f80 f i slink.obj
 0001:00057100       ?_Lrotate@?$_Tree@V?$_Tset_traits@VpollCommand@@U?$less@VpollCommand@@@std@@V?$allocator@VpollCommand@@@3@$0A@@std@@@std@@IAEXPAU?$_Tree_node@VpollCommand@@PAX@2@@Z 00458100 f i slink.obj
 0001:00057280       ?_Max@?$_Tree_val@U?$_Tree_simple_types@U?$pair@$$CBIPAVfabianServer@@@std@@@std@@@std@@SAPAU?$_Tree_node@U?$pair@$$CBIPAVfabianServer@@@std@@PAX@2@PAU32@@Z 00458280 f i slink.obj
 0001:000572d0       ?_Max@?$_Tree_val@U?$_Tree_simple_types@VQString@@@std@@@std@@SAPAU?$_Tree_node@VQString@@PAX@2@PAU32@@Z 004582d0 f i slink.obj
 0001:00057320       ?_Max@?$_Tree_val@U?$_Tree_simple_types@VpollCommand@@@std@@@std@@SAPAU?$_Tree_node@VpollCommand@@PAX@2@PAU32@@Z 00458320 f i slink.obj
 0001:00057370       ?_Min@?$_Tree_val@U?$_Tree_simple_types@U?$pair@$$CBIPAVfabianServer@@@std@@@std@@@std@@SAPAU?$_Tree_node@U?$pair@$$CBIPAVfabianServer@@@std@@PAX@2@PAU32@@Z 00458370 f i slink.obj
 0001:000573c0       ?_Min@?$_Tree_val@U?$_Tree_simple_types@VdbEntry@@@std@@@std@@SAPAU?$_Tree_node@VdbEntry@@PAX@2@PAU32@@Z 004583c0 f i slink.obj
 0001:00057410       ?_Min@?$_Tree_val@U?$_Tree_simple_types@VpollCommand@@@std@@@std@@SAPAU?$_Tree_node@VpollCommand@@PAX@2@PAU32@@Z 00458410 f i slink.obj
 0001:00057460       ?_Mynode@?$_Tree_unchecked_const_iterator@V?$_Tree_val@U?$_Tree_simple_types@U?$pair@$$CBIPAVfabianServer@@@std@@@std@@@std@@U_Iterator_base12@2@@std@@QBEPAU?$_Tree_node@U?$pair@$$CBIPAVfabianServer@@@std@@PAX@2@XZ 00458460 f i slink.obj
 0001:00057480       ?_Mynode@?$_Tree_unchecked_const_iterator@V?$_Tree_val@U?$_Tree_simple_types@VQString@@@std@@@std@@U_Iterator_base12@2@@std@@QBEPAU?$_Tree_node@VQString@@PAX@2@XZ 00458480 f i slink.obj
 0001:000574a0       ?_Mynode@?$_Tree_unchecked_const_iterator@V?$_Tree_val@U?$_Tree_simple_types@VpollCommand@@@std@@@std@@U_Iterator_base12@2@@std@@QBEPAU?$_Tree_node@VpollCommand@@PAX@2@XZ 004584a0 f i slink.obj
 0001:000574c0       ?_Myval@?$_List_val@U?$_List_simple_types@PAVuser@@@std@@@std@@SAAAPAVuser@@PAU?$_List_node@PAVuser@@PAX@2@@Z 004584c0 f i slink.obj
 0001:000574d0       ?_Myval@?$_Tree_val@U?$_Tree_simple_types@U?$pair@$$CBIPAVfabianServer@@@std@@@std@@@std@@SAAAU?$pair@$$CBIPAVfabianServer@@@2@PAU?$_Tree_node@U?$pair@$$CBIPAVfabianServer@@@std@@PAX@2@@Z 004584d0 f i slink.obj
 0001:000574e0       ?_Myval@?$_Tree_val@U?$_Tree_simple_types@VpollCommand@@@std@@@std@@SAAAVpollCommand@@PAU?$_Tree_node@VpollCommand@@PAX@2@@Z 004584e0 f i slink.obj
 0001:000574f0       ?_Nextnode@?$_List_val@U?$_List_simple_types@PAVuser@@@std@@@std@@SAAAPAU?$_List_node@PAVuser@@PAX@2@PAU32@@Z 004584f0 f i slink.obj
 0001:00057500       ?_Orphan_off@?$deque@VpollCommand@@V?$allocator@VpollCommand@@@std@@@std@@IBEXI@Z 00458500 f i slink.obj
 0001:00057640       ?_Orphan_ptr@?$_Tree@V?$_Tmap_traits@IPAVfabianServer@@U?$less@I@std@@V?$allocator@U?$pair@$$CBIPAVfabianServer@@@std@@@3@$0A@@std@@@std@@IBEXAAV12@PAU?$_Tree_node@U?$pair@$$CBIPAVfabianServer@@@std@@PAX@2@@Z 00458640 f i slink.obj
 0001:00057740       ?_Orphan_ptr@?$_Tree@V?$_Tset_traits@VQString@@U?$less@VQString@@@std@@V?$allocator@VQString@@@3@$0A@@std@@@std@@IBEXAAV12@PAU?$_Tree_node@VQString@@PAX@2@@Z 00458740 f i slink.obj
 0001:00057840       ?_Orphan_ptr@?$_Tree@V?$_Tset_traits@VdbEntry@@U?$less@VdbEntry@@@std@@V?$allocator@VdbEntry@@@3@$0A@@std@@@std@@IBEXAAV12@PAU?$_Tree_node@VdbEntry@@PAX@2@@Z 00458840 f i slink.obj
 0001:00057940       ?_Orphan_ptr@?$_Tree@V?$_Tset_traits@VpollCommand@@U?$less@VpollCommand@@@std@@V?$allocator@VpollCommand@@@3@$0A@@std@@@std@@IBEXAAV12@PAU?$_Tree_node@VpollCommand@@PAX@2@@Z 00458940 f i slink.obj
 0001:00057a40       ?_Orphan_ptr@?$list@PAVuser@@V?$allocator@PAVuser@@@std@@@std@@QBEXAAV12@PAU?$_List_node@PAVuser@@PAX@2@@Z 00458a40 f i slink.obj
 0001:00057b40       ?_Orphan_ptr@?$list@VclientIPC@@V?$allocator@VclientIPC@@@std@@@std@@QBEXAAV12@PAU?$_List_node@VclientIPC@@PAX@2@@Z 00458b40 f i slink.obj
 0001:00057c40       ?_Parent@?$_Tree_val@U?$_Tree_simple_types@U?$pair@$$CBIPAVfabianServer@@@std@@@std@@@std@@SAAAPAU?$_Tree_node@U?$pair@$$CBIPAVfabianServer@@@std@@PAX@2@PAU32@@Z 00458c40 f i slink.obj
 0001:00057c50       ?_Parent@?$_Tree_val@U?$_Tree_simple_types@VpollCommand@@@std@@@std@@SAAAPAU?$_Tree_node@VpollCommand@@PAX@2@PAU32@@Z 00458c50 f i slink.obj
 0001:00057c60       ?_Prevnode@?$_List_val@U?$_List_simple_types@PAVuser@@@std@@@std@@SAAAPAU?$_List_node@PAVuser@@PAX@2@PAU32@@Z 00458c60 f i slink.obj
 0001:00057c70       ?_Right@?$_Tree_val@U?$_Tree_simple_types@U?$pair@$$CBIPAVfabianServer@@@std@@@std@@@std@@SAAAPAU?$_Tree_node@U?$pair@$$CBIPAVfabianServer@@@std@@PAX@2@PAU32@@Z 00458c70 f i slink.obj
 0001:00057c80       ?_Right@?$_Tree_val@U?$_Tree_simple_types@VpollCommand@@@std@@@std@@SAAAPAU?$_Tree_node@VpollCommand@@PAX@2@PAU32@@Z 00458c80 f i slink.obj
 0001:00057c90       ?_Rmost@?$_Tree@V?$_Tmap_traits@IPAVfabianServer@@U?$less@I@std@@V?$allocator@U?$pair@$$CBIPAVfabianServer@@@std@@@3@$0A@@std@@@std@@IBEAAPAU?$_Tree_node@U?$pair@$$CBIPAVfabianServer@@@std@@PAX@2@XZ 00458c90 f i slink.obj
 0001:00057cb0       ?_Rmost@?$_Tree@V?$_Tset_traits@VQString@@U?$less@VQString@@@std@@V?$allocator@VQString@@@3@$0A@@std@@@std@@IBEAAPAU?$_Tree_node@VQString@@PAX@2@XZ 00458cb0 f i slink.obj
 0001:00057cd0       ?_Rmost@?$_Tree@V?$_Tset_traits@VpollCommand@@U?$less@VpollCommand@@@std@@V?$allocator@VpollCommand@@@3@$0A@@std@@@std@@IBEAAPAU?$_Tree_node@VpollCommand@@PAX@2@XZ 00458cd0 f i slink.obj
 0001:00057cf0       ?_Root@?$_Tree@V?$_Tmap_traits@IPAVfabianServer@@U?$less@I@std@@V?$allocator@U?$pair@$$CBIPAVfabianServer@@@std@@@3@$0A@@std@@@std@@IBEAAPAU?$_Tree_node@U?$pair@$$CBIPAVfabianServer@@@std@@PAX@2@XZ 00458cf0 f i slink.obj
 0001:00057d10       ?_Root@?$_Tree@V?$_Tset_traits@VQString@@U?$less@VQString@@@std@@V?$allocator@VQString@@@3@$0A@@std@@@std@@IBEAAPAU?$_Tree_node@VQString@@PAX@2@XZ 00458d10 f i slink.obj
 0001:00057d30       ?_Root@?$_Tree@V?$_Tset_traits@VpollCommand@@U?$less@VpollCommand@@@std@@V?$allocator@VpollCommand@@@3@$0A@@std@@@std@@IBEAAPAU?$_Tree_node@VpollCommand@@PAX@2@XZ 00458d30 f i slink.obj
 0001:00057d50       ?_Rrotate@?$_Tree@V?$_Tmap_traits@IPAVfabianServer@@U?$less@I@std@@V?$allocator@U?$pair@$$CBIPAVfabianServer@@@std@@@3@$0A@@std@@@std@@IAEXPAU?$_Tree_node@U?$pair@$$CBIPAVfabianServer@@@std@@PAX@2@@Z 00458d50 f i slink.obj
 0001:00057ed0       ?_Rrotate@?$_Tree@V?$_Tset_traits@VQString@@U?$less@VQString@@@std@@V?$allocator@VQString@@@3@$0A@@std@@@std@@IAEXPAU?$_Tree_node@VQString@@PAX@2@@Z 00458ed0 f i slink.obj
 0001:00058050       ?_Rrotate@?$_Tree@V?$_Tset_traits@VpollCommand@@U?$less@VpollCommand@@@std@@V?$allocator@VpollCommand@@@3@$0A@@std@@@std@@IAEXPAU?$_Tree_node@VpollCommand@@PAX@2@@Z 00459050 f i slink.obj
 0001:000581d0       ?_Setcont@?$_Deque_const_iterator@V?$_Deque_val@U?$_Deque_simple_types@VpollCommand@@@std@@@std@@@std@@QAEXPBV?$_Deque_val@U?$_Deque_simple_types@VpollCommand@@@std@@@2@@Z 004591d0 f i slink.obj
 0001:000581f0       ?_Tidy@?$_Tree@V?$_Tmap_traits@IPAVfabianServer@@U?$less@I@std@@V?$allocator@U?$pair@$$CBIPAVfabianServer@@@std@@@3@$0A@@std@@@std@@IAEXXZ 004591f0 f i slink.obj
 0001:00058300       ?_Tidy@?$_Tree@V?$_Tset_traits@VQString@@U?$less@VQString@@@std@@V?$allocator@VQString@@@3@$0A@@std@@@std@@IAEXXZ 00459300 f i slink.obj
 0001:00058360       ?_Tidy@?$_Tree@V?$_Tset_traits@VdbEntry@@U?$less@VdbEntry@@@std@@V?$allocator@VdbEntry@@@3@$0A@@std@@@std@@IAEXXZ 00459360 f i slink.obj
 0001:000583c0       ?_Tidy@?$_Tree@V?$_Tset_traits@VpollCommand@@U?$less@VpollCommand@@@std@@V?$allocator@VpollCommand@@@3@$0A@@std@@@std@@IAEXXZ 004593c0 f i slink.obj
 0001:00058420       ?_Tidy@?$deque@VpollCommand@@V?$allocator@VpollCommand@@@std@@@std@@IAEXXZ 00459420 f i slink.obj
 0001:00058530       ?_Tidy@?$list@PAVuser@@V?$allocator@PAVuser@@@std@@@std@@QAEXXZ 00459530 f i slink.obj
 0001:00058550       ?_Tidy@?$list@VclientIPC@@V?$allocator@VclientIPC@@@std@@@std@@QAEXXZ 00459550 f i slink.obj
 0001:00058570       ?_Xlen@?$deque@VpollCommand@@V?$allocator@VpollCommand@@@std@@@std@@IBEXXZ 00459570 f i slink.obj
 0001:00058590       ?allocate@?$_Wrap_alloc@V?$allocator@PAVpollCommand@@@std@@@std@@QAEPAPAVpollCommand@@I@Z 00459590 f i slink.obj
 0001:000585b0       ?allocate@?$_Wrap_alloc@V?$allocator@U?$_List_node@PAVuser@@PAX@std@@@std@@@std@@QAEPAU?$_List_node@PAVuser@@PAX@2@I@Z 004595b0 f i slink.obj
 0001:000585d0       ?allocate@?$_Wrap_alloc@V?$allocator@U?$_Tree_node@U?$pair@$$CBIPAVfabianServer@@@std@@PAX@std@@@std@@@std@@QAEPAU?$_Tree_node@U?$pair@$$CBIPAVfabianServer@@@std@@PAX@2@I@Z 004595d0 f i slink.obj
 0001:000585f0       ?allocate@?$_Wrap_alloc@V?$allocator@U?$_Tree_node@VQString@@PAX@std@@@std@@@std@@QAEPAU?$_Tree_node@VQString@@PAX@2@I@Z 004595f0 f i slink.obj
 0001:00058610       ?allocate@?$_Wrap_alloc@V?$allocator@U?$_Tree_node@VpollCommand@@PAX@std@@@std@@@std@@QAEPAU?$_Tree_node@VpollCommand@@PAX@2@I@Z 00459610 f i slink.obj
 0001:00058630       ?allocate@?$_Wrap_alloc@V?$allocator@VpollCommand@@@std@@@std@@QAEPAVpollCommand@@I@Z 00459630 f i slink.obj
 0001:00058650       ?allocate@?$allocator@PAVpollCommand@@@std@@QAEPAPAVpollCommand@@I@Z 00459650 f i slink.obj
 0001:00058680       ?allocate@?$allocator@U?$_List_node@PAVuser@@PAX@std@@@std@@QAEPAU?$_List_node@PAVuser@@PAX@2@I@Z 00459680 f i slink.obj
 0001:000586b0       ?allocate@?$allocator@U?$_Tree_node@U?$pair@$$CBIPAVfabianServer@@@std@@PAX@std@@@std@@QAEPAU?$_Tree_node@U?$pair@$$CBIPAVfabianServer@@@std@@PAX@2@I@Z 004596b0 f i slink.obj
 0001:000586e0       ?allocate@?$allocator@U?$_Tree_node@VQString@@PAX@std@@@std@@QAEPAU?$_Tree_node@VQString@@PAX@2@I@Z 004596e0 f i slink.obj
 0001:00058710       ?allocate@?$allocator@U?$_Tree_node@VpollCommand@@PAX@std@@@std@@QAEPAU?$_Tree_node@VpollCommand@@PAX@2@I@Z 00459710 f i slink.obj
 0001:00058740       ?allocate@?$allocator@VpollCommand@@@std@@QAEPAVpollCommand@@I@Z 00459740 f i slink.obj
 0001:00058770       ?append@?$QList@VQSslCipher@@@@QAEXABVQSslCipher@@@Z 00459770 f i slink.obj
 0001:00058940       ?begin@?$QList@VQSslCipher@@@@QAE?AViterator@1@XZ 00459940 f i slink.obj
 0001:00058980       ?begin@?$QList@VQString@@@@QAE?AViterator@1@XZ 00459980 f i slink.obj
 0001:000589c0       ?begin@?$_Tree@V?$_Tmap_traits@IPAVfabianServer@@U?$less@I@std@@V?$allocator@U?$pair@$$CBIPAVfabianServer@@@std@@@3@$0A@@std@@@std@@QAE?AV?$_Tree_iterator@V?$_Tree_val@U?$_Tree_simple_types@U?$pair@$$CBIPAVfabianServer@@@std@@@std@@@std@@@2@XZ 004599c0 f i slink.obj
 0001:000589f0       ?begin@?$_Tree@V?$_Tset_traits@VpollCommand@@U?$less@VpollCommand@@@std@@V?$allocator@VpollCommand@@@3@$0A@@std@@@std@@QAE?AV?$_Tree_const_iterator@V?$_Tree_val@U?$_Tree_simple_types@VpollCommand@@@std@@@std@@@2@XZ 004599f0 f i slink.obj
 0001:00058a20       ?begin@?$deque@VpollCommand@@V?$allocator@VpollCommand@@@std@@@std@@QAE?AV?$_Deque_iterator@V?$_Deque_val@U?$_Deque_simple_types@VpollCommand@@@std@@@std@@@2@XZ 00459a20 f i slink.obj
 0001:00058a50       ?begin@?$list@PAVuser@@V?$allocator@PAVuser@@@std@@@std@@QAE?AV?$_List_iterator@V?$_List_val@U?$_List_simple_types@PAVuser@@@std@@@std@@@2@XZ 00459a50 f i slink.obj
 0001:00058a90       ?begin@?$list@VclientIPC@@V?$allocator@VclientIPC@@@std@@@std@@QAE?AV?$_List_iterator@V?$_List_val@U?$_List_simple_types@VclientIPC@@@std@@@std@@@2@XZ 00459a90 f i slink.obj
 0001:00058ad0       ?cccConfigChangeMessage@IccClientCallback@@MAEXABV?$basic_string@DU?$char_traits@D@std@@V?$allocator@D@2@@std@@@Z 00459ad0 f i slink.obj
 0001:00058ae0       ?cccConnected@IccClientCallback@@MAEXXZ 00459ae0 f i slink.obj
 0001:00058af0       ?cccDatabaseChange@IccClientCallback@@MAEXHHH@Z 00459af0 f i slink.obj
 0001:00058b00       ?cccDeviceMessage@IccClientCallback@@MAEXHHABV?$basic_string@DU?$char_traits@D@std@@V?$allocator@D@2@@std@@H@Z 00459b00 f i slink.obj
 0001:00058b10       ?cccDeviceMode@IccClientCallback@@MAEXHHW4redundancyState@cc@@@Z 00459b10 f i slink.obj
 0001:00058b20       ?cccDisconnected@IccClientCallback@@MAEXXZ 00459b20 f i slink.obj
 0001:00058b30       ?cccGpiRevertive@IccClientCallback@@MAEXHH_N@Z 00459b30 f i slink.obj
 0001:00058b40       ?cccInfoRevertive@IccClientCallback@@MAEXHHABV?$basic_string@DU?$char_traits@D@std@@V?$allocator@D@2@@std@@@Z 00459b40 f i slink.obj
 0001:00058b50       ?cccPollError@IccClientCallback@@MAEXHH@Z 00459b50 f i slink.obj
 0001:00058b60       ?cccRtrRevertive@IccClientCallback@@MAEXHHH@Z 00459b60 f i slink.obj
 0001:00058b70       ?cccSerialNumberError@IccClientCallback@@MAEXHH@Z 00459b70 f i slink.obj
 0001:00058b80       ?clear@?$_Tree@V?$_Tmap_traits@IPAVfabianServer@@U?$less@I@std@@V?$allocator@U?$pair@$$CBIPAVfabianServer@@@std@@@3@$0A@@std@@@std@@QAEXXZ 00459b80 f i slink.obj
 0001:00058c00       ?clear@?$_Tree@V?$_Tset_traits@VQString@@U?$less@VQString@@@std@@V?$allocator@VQString@@@3@$0A@@std@@@std@@QAEXXZ 00459c00 f i slink.obj
 0001:00058c80       ?clear@?$_Tree@V?$_Tset_traits@VdbEntry@@U?$less@VdbEntry@@@std@@V?$allocator@VdbEntry@@@3@$0A@@std@@@std@@QAEXXZ 00459c80 f i slink.obj
 0001:00058d00       ?clear@?$_Tree@V?$_Tset_traits@VpollCommand@@U?$less@VpollCommand@@@std@@V?$allocator@VpollCommand@@@3@$0A@@std@@@std@@QAEXXZ 00459d00 f i slink.obj
 0001:00058d80       ?clear@?$list@PAVuser@@V?$allocator@PAVuser@@@std@@@std@@QAEXXZ 00459d80 f i slink.obj
 0001:00058e40       ?clear@?$list@VclientIPC@@V?$allocator@VclientIPC@@@std@@@std@@QAEXXZ 00459e40 f i slink.obj
 0001:00058f00       ?construct@?$allocator@VpollCommand@@@std@@QAEXPAVpollCommand@@ABV3@@Z 00459f00 f i slink.obj
 0001:00058f70       ?count@?$QList@VQSslCipher@@@@QBEHXZ 00459f70 f i slink.obj
 0001:00058f90       ?data_ptr@?$QStaticStringData@$06@@QBEPAU?$QTypedArrayData@G@@XZ 00459f90 f i slink.obj
 0001:00058ff0       ?data_ptr@?$QStaticStringData@$07@@QBEPAU?$QTypedArrayData@G@@XZ 00459ff0 f i slink.obj
 0001:00059050       ?data_ptr@?$QStaticStringData@$08@@QBEPAU?$QTypedArrayData@G@@XZ 0045a050 f i slink.obj
 0001:000590b0       ?data_ptr@?$QStaticStringData@$09@@QBEPAU?$QTypedArrayData@G@@XZ 0045a0b0 f i slink.obj
 0001:00059110       ?data_ptr@?$QStaticStringData@$0BA@@@QBEPAU?$QTypedArrayData@G@@XZ 0045a110 f i slink.obj
 0001:00059170       ?data_ptr@?$QStaticStringData@$0BM@@@QBEPAU?$QTypedArrayData@G@@XZ 0045a170 f i slink.obj
 0001:000591d0       ?data_ptr@?$QStaticStringData@$0L@@@QBEPAU?$QTypedArrayData@G@@XZ 0045a1d0 f i slink.obj
 0001:00059230       ?data_ptr@?$QStaticStringData@$0M@@@QBEPAU?$QTypedArrayData@G@@XZ 0045a230 f i slink.obj
 0001:00059290       ?data_ptr@?$QStaticStringData@$0N@@@QBEPAU?$QTypedArrayData@G@@XZ 0045a290 f i slink.obj
 0001:000592f0       ?data_ptr@?$QStaticStringData@$0O@@@QBEPAU?$QTypedArrayData@G@@XZ 0045a2f0 f i slink.obj
 0001:00059350       ?data_ptr@?$QStaticStringData@$0P@@@QBEPAU?$QTypedArrayData@G@@XZ 0045a350 f i slink.obj
 0001:000593b0       ?db@dbEntry@@QBEIXZ        0045a3b0 f i slink.obj
 0001:000593d0       ?dealloc@?$QList@VQSslCipher@@@@AAEXPAUData@QListData@@@Z 0045a3d0 f i slink.obj
 0001:00059420       ?deallocate@?$_Wrap_alloc@V?$allocator@PAVpollCommand@@@std@@@std@@QAEXPAPAVpollCommand@@I@Z 0045a420 f i slink.obj
 0001:00059450       ?deallocate@?$_Wrap_alloc@V?$allocator@U?$_List_node@PAVuser@@PAX@std@@@std@@@std@@QAEXPAU?$_List_node@PAVuser@@PAX@2@I@Z 0045a450 f i slink.obj
 0001:00059480       ?deallocate@?$_Wrap_alloc@V?$allocator@U?$_Tree_node@U?$pair@$$CBIPAVfabianServer@@@std@@PAX@std@@@std@@@std@@QAEXPAU?$_Tree_node@U?$pair@$$CBIPAVfabianServer@@@std@@PAX@2@I@Z 0045a480 f i slink.obj
 0001:000594b0       ?deallocate@?$_Wrap_alloc@V?$allocator@U?$_Tree_node@VQString@@PAX@std@@@std@@@std@@QAEXPAU?$_Tree_node@VQString@@PAX@2@I@Z 0045a4b0 f i slink.obj
 0001:000594e0       ?deallocate@?$_Wrap_alloc@V?$allocator@U?$_Tree_node@VpollCommand@@PAX@std@@@std@@@std@@QAEXPAU?$_Tree_node@VpollCommand@@PAX@2@I@Z 0045a4e0 f i slink.obj
 0001:00059510       ?deallocate@?$_Wrap_alloc@V?$allocator@VpollCommand@@@std@@@std@@QAEXPAVpollCommand@@I@Z 0045a510 f i slink.obj
 0001:00059540       ?deallocate@?$allocator@PAVpollCommand@@@std@@QAEXPAPAVpollCommand@@I@Z 0045a540 f i slink.obj
 0001:00059560       ?deallocate@?$allocator@U?$_List_node@PAVuser@@PAX@std@@@std@@QAEXPAU?$_List_node@PAVuser@@PAX@2@I@Z 0045a560 f i slink.obj
 0001:00059580       ?deallocate@?$allocator@U?$_Tree_node@U?$pair@$$CBIPAVfabianServer@@@std@@PAX@std@@@std@@QAEXPAU?$_Tree_node@U?$pair@$$CBIPAVfabianServer@@@std@@PAX@2@I@Z 0045a580 f i slink.obj
 0001:000595a0       ?deallocate@?$allocator@U?$_Tree_node@VQString@@PAX@std@@@std@@QAEXPAU?$_Tree_node@VQString@@PAX@2@I@Z 0045a5a0 f i slink.obj
 0001:000595c0       ?deallocate@?$allocator@U?$_Tree_node@VpollCommand@@PAX@std@@@std@@QAEXPAU?$_Tree_node@VpollCommand@@PAX@2@I@Z 0045a5c0 f i slink.obj
 0001:000595e0       ?deallocate@?$allocator@VpollCommand@@@std@@QAEXPAVpollCommand@@I@Z 0045a5e0 f i slink.obj
 0001:00059600       ?detach@?$QList@VQSslCipher@@@@QAEXXZ 0045a600 f i slink.obj
 0001:00059630       ?detach_helper@?$QList@VQSslCipher@@@@AAEXH@Z 0045a630 f i slink.obj
 0001:00059740       ?detach_helper@?$QList@VQSslCipher@@@@AAEXXZ 0045a740 f i slink.obj
 0001:00059770       ?detach_helper_grow@?$QList@VQSslCipher@@@@AAEPAUNode@1@HH@Z 0045a770 f i slink.obj
 0001:00059950       ?device@pollCommand@@QBEIXZ 0045a950 f i slink.obj
 0001:00059970       ?empty@?$deque@VpollCommand@@V?$allocator@VpollCommand@@@std@@@std@@QBE_NXZ 0045a970 f i slink.obj
 0001:000599b0       ?end@?$QList@VQSslCipher@@@@QAE?AViterator@1@XZ 0045a9b0 f i slink.obj
 0001:000599f0       ?end@?$QList@VQString@@@@QAE?AViterator@1@XZ 0045a9f0 f i slink.obj
 0001:00059a30       ?end@?$_Tree@V?$_Tmap_traits@IPAVfabianServer@@U?$less@I@std@@V?$allocator@U?$pair@$$CBIPAVfabianServer@@@std@@@3@$0A@@std@@@std@@QAE?AV?$_Tree_iterator@V?$_Tree_val@U?$_Tree_simple_types@U?$pair@$$CBIPAVfabianServer@@@std@@@std@@@std@@@2@XZ 0045aa30 f i slink.obj
 0001:00059a60       ?end@?$_Tree@V?$_Tset_traits@VdbEntry@@U?$less@VdbEntry@@@std@@V?$allocator@VdbEntry@@@3@$0A@@std@@@std@@QAE?AV?$_Tree_const_iterator@V?$_Tree_val@U?$_Tree_simple_types@VdbEntry@@@std@@@std@@@2@XZ 0045aa60 f i slink.obj
 0001:00059a90       ?end@?$_Tree@V?$_Tset_traits@VpollCommand@@U?$less@VpollCommand@@@std@@V?$allocator@VpollCommand@@@3@$0A@@std@@@std@@QAE?AV?$_Tree_const_iterator@V?$_Tree_val@U?$_Tree_simple_types@VpollCommand@@@std@@@std@@@2@XZ 0045aa90 f i slink.obj
 0001:00059ac0       ?end@?$list@PAVuser@@V?$allocator@PAVuser@@@std@@@std@@QAE?AV?$_List_iterator@V?$_List_val@U?$_List_simple_types@PAVuser@@@std@@@std@@@2@XZ 0045aac0 f i slink.obj
 0001:00059af0       ?end@?$list@VclientIPC@@V?$allocator@VclientIPC@@@std@@@std@@QAE?AV?$_List_iterator@V?$_List_val@U?$_List_simple_types@VclientIPC@@@std@@@std@@@2@XZ 0045aaf0 f i slink.obj
 0001:00059b20       ?end@pollCommand@@QBEIXZ   0045ab20 f i slink.obj
 0001:00059b40       ?equal_range@?$_Tree@V?$_Tset_traits@VpollCommand@@U?$less@VpollCommand@@@std@@V?$allocator@VpollCommand@@@3@$0A@@std@@@std@@QAE?AU?$pair@V?$_Tree_const_iterator@V?$_Tree_val@U?$_Tree_simple_types@VpollCommand@@@std@@@std@@@std@@V12@@2@ABVpollCommand@@@Z 0045ab40 f i slink.obj
 0001:00059b80       ?erase@?$_Tree@V?$_Tmap_traits@IPAVfabianServer@@U?$less@I@std@@V?$allocator@U?$pair@$$CBIPAVfabianServer@@@std@@@3@$0A@@std@@@std@@QAE?AV?$_Tree_iterator@V?$_Tree_val@U?$_Tree_simple_types@U?$pair@$$CBIPAVfabianServer@@@std@@@std@@@std@@@2@V?$_Tree_const_iterator@V?$_Tree_val@U?$_Tree_simple_types@U?$pair@$$CBIPAVfabianServer@@@std@@@std@@@std@@@2@0@Z 0045ab80 f i slink.obj
 0001:00059de0       ?erase@?$_Tree@V?$_Tmap_traits@IPAVfabianServer@@U?$less@I@std@@V?$allocator@U?$pair@$$CBIPAVfabianServer@@@std@@@3@$0A@@std@@@std@@QAE?AV?$_Tree_iterator@V?$_Tree_val@U?$_Tree_simple_types@U?$pair@$$CBIPAVfabianServer@@@std@@@std@@@std@@@2@V?$_Tree_const_iterator@V?$_Tree_val@U?$_Tree_simple_types@U?$pair@$$CBIPAVfabianServer@@@std@@@std@@@std@@@2@@Z 0045ade0 f i slink.obj
 0001:0005a800       ?erase@?$_Tree@V?$_Tset_traits@VQString@@U?$less@VQString@@@std@@V?$allocator@VQString@@@3@$0A@@std@@@std@@QAE?AV?$_Tree_const_iterator@V?$_Tree_val@U?$_Tree_simple_types@VQString@@@std@@@std@@@2@V32@0@Z 0045b800 f i slink.obj
 0001:0005aa60       ?erase@?$_Tree@V?$_Tset_traits@VQString@@U?$less@VQString@@@std@@V?$allocator@VQString@@@3@$0A@@std@@@std@@QAE?AV?$_Tree_const_iterator@V?$_Tree_val@U?$_Tree_simple_types@VQString@@@std@@@std@@@2@V32@@Z 0045ba60 f i slink.obj
 0001:0005b480       ?erase@?$_Tree@V?$_Tset_traits@VdbEntry@@U?$less@VdbEntry@@@std@@V?$allocator@VdbEntry@@@3@$0A@@std@@@std@@QAE?AV?$_Tree_const_iterator@V?$_Tree_val@U?$_Tree_simple_types@VdbEntry@@@std@@@std@@@2@V32@0@Z 0045c480 f i slink.obj
 0001:0005b6e0       ?erase@?$_Tree@V?$_Tset_traits@VdbEntry@@U?$less@VdbEntry@@@std@@V?$allocator@VdbEntry@@@3@$0A@@std@@@std@@QAE?AV?$_Tree_const_iterator@V?$_Tree_val@U?$_Tree_simple_types@VdbEntry@@@std@@@std@@@2@V32@@Z 0045c6e0 f i slink.obj
 0001:0005c100       ?erase@?$_Tree@V?$_Tset_traits@VpollCommand@@U?$less@VpollCommand@@@std@@V?$allocator@VpollCommand@@@3@$0A@@std@@@std@@QAE?AV?$_Tree_const_iterator@V?$_Tree_val@U?$_Tree_simple_types@VpollCommand@@@std@@@std@@@2@V32@0@Z 0045d100 f i slink.obj
 0001:0005c360       ?erase@?$_Tree@V?$_Tset_traits@VpollCommand@@U?$less@VpollCommand@@@std@@V?$allocator@VpollCommand@@@3@$0A@@std@@@std@@QAE?AV?$_Tree_const_iterator@V?$_Tree_val@U?$_Tree_simple_types@VpollCommand@@@std@@@std@@@2@V32@@Z 0045d360 f i slink.obj
 0001:0005cd80       ?erase@?$_Tree@V?$_Tset_traits@VpollCommand@@U?$less@VpollCommand@@@std@@V?$allocator@VpollCommand@@@3@$0A@@std@@@std@@QAEIABVpollCommand@@@Z 0045dd80 f i slink.obj
 0001:0005cec0       ?find@?$_Tree@V?$_Tmap_traits@IPAVfabianServer@@U?$less@I@std@@V?$allocator@U?$pair@$$CBIPAVfabianServer@@@std@@@3@$0A@@std@@@std@@QAE?AV?$_Tree_iterator@V?$_Tree_val@U?$_Tree_simple_types@U?$pair@$$CBIPAVfabianServer@@@std@@@std@@@std@@@2@ABI@Z 0045dec0 f i slink.obj
 0001:0005d0d0       ?find@?$_Tree@V?$_Tset_traits@VpollCommand@@U?$less@VpollCommand@@@std@@V?$allocator@VpollCommand@@@3@$0A@@std@@@std@@QAE?AV?$_Tree_const_iterator@V?$_Tree_val@U?$_Tree_simple_types@VpollCommand@@@std@@@std@@@2@ABVpollCommand@@@Z 0045e0d0 f i slink.obj
 0001:0005d2e0       ?front@?$deque@VpollCommand@@V?$allocator@VpollCommand@@@std@@@std@@QAEAAVpollCommand@@XZ 0045e2e0 f i slink.obj
 0001:0005d370       ?front@?$queue@VpollCommand@@V?$deque@VpollCommand@@V?$allocator@VpollCommand@@@std@@@std@@@std@@QAEAAVpollCommand@@XZ 0045e370 f i slink.obj
 0001:0005d390       ?index@dbEntry@@QBEIXZ     0045e390 f i slink.obj
 0001:0005d3b0       ?insert@?$_Tree@V?$_Tset_traits@VQString@@U?$less@VQString@@@std@@V?$allocator@VQString@@@3@$0A@@std@@@std@@QAE?AU?$pair@V?$_Tree_const_iterator@V?$_Tree_val@U?$_Tree_simple_types@VQString@@@std@@@std@@@std@@_N@2@$$QAVQString@@@Z 0045e3b0 f i slink.obj
 0001:0005d410       ?insert@?$_Tree@V?$_Tset_traits@VpollCommand@@U?$less@VpollCommand@@@std@@V?$allocator@VpollCommand@@@3@$0A@@std@@@std@@QAE?AU?$pair@V?$_Tree_const_iterator@V?$_Tree_val@U?$_Tree_simple_types@VpollCommand@@@std@@@std@@@std@@_N@2@ABVpollCommand@@@Z 0045e410 f i slink.obj
 0001:0005d460       ?insert@?$set@VQString@@U?$less@VQString@@@std@@V?$allocator@VQString@@@3@@std@@QAE?AU?$pair@V?$_Tree_const_iterator@V?$_Tree_val@U?$_Tree_simple_types@VQString@@@std@@@std@@@std@@_N@2@$$QAVQString@@@Z 0045e460 f i slink.obj
 0001:0005d4b0       ?insert@?$set@VpollCommand@@U?$less@VpollCommand@@@std@@V?$allocator@VpollCommand@@@3@@std@@QAE?AU?$pair@V?$_Tree_const_iterator@V?$_Tree_val@U?$_Tree_simple_types@VpollCommand@@@std@@@std@@@std@@_N@2@ABVpollCommand@@@Z 0045e4b0 f i slink.obj
 0001:0005d4f0       ?isStatic@RefCount@QtPrivate@@QBE_NXZ 0045e4f0 f i slink.obj
 0001:0005d530       ?lower_bound@?$_Tree@V?$_Tmap_traits@IPAVfabianServer@@U?$less@I@std@@V?$allocator@U?$pair@$$CBIPAVfabianServer@@@std@@@3@$0A@@std@@@std@@QAE?AV?$_Tree_iterator@V?$_Tree_val@U?$_Tree_simple_types@U?$pair@$$CBIPAVfabianServer@@@std@@@std@@@std@@@2@ABI@Z 0045e530 f i slink.obj
 0001:0005d580       ?lower_bound@?$_Tree@V?$_Tset_traits@VpollCommand@@U?$less@VpollCommand@@@std@@V?$allocator@VpollCommand@@@3@$0A@@std@@@std@@QAE?AV?$_Tree_const_iterator@V?$_Tree_val@U?$_Tree_simple_types@VpollCommand@@@std@@@std@@@2@ABVpollCommand@@@Z 0045e580 f i slink.obj
 0001:0005d5d0       ?lwi@pollCommand@@QBEPAVQListWidgetItem@@XZ 0045e5d0 f i slink.obj
 0001:0005d5f0       ?max_size@?$_Tree@V?$_Tmap_traits@IPAVfabianServer@@U?$less@I@std@@V?$allocator@U?$pair@$$CBIPAVfabianServer@@@std@@@3@$0A@@std@@@std@@QBEIXZ 0045e5f0 f i slink.obj
 0001:0005d620       ?max_size@?$_Tree@V?$_Tset_traits@VQString@@U?$less@VQString@@@std@@V?$allocator@VQString@@@3@$0A@@std@@@std@@QBEIXZ 0045e620 f i slink.obj
 0001:0005d650       ?max_size@?$_Tree@V?$_Tset_traits@VpollCommand@@U?$less@VpollCommand@@@std@@V?$allocator@VpollCommand@@@3@$0A@@std@@@std@@QBEIXZ 0045e650 f i slink.obj
 0001:0005d680       ?max_size@?$_Wrap_alloc@V?$allocator@U?$_Tree_node@U?$pair@$$CBIPAVfabianServer@@@std@@PAX@std@@@std@@@std@@QBEIXZ 0045e680 f i slink.obj
 0001:0005d6a0       ?max_size@?$_Wrap_alloc@V?$allocator@U?$_Tree_node@VQString@@PAX@std@@@std@@@std@@QBEIXZ 0045e6a0 f i slink.obj
 0001:0005d6c0       ?max_size@?$_Wrap_alloc@V?$allocator@U?$_Tree_node@VpollCommand@@PAX@std@@@std@@@std@@QBEIXZ 0045e6c0 f i slink.obj
 0001:0005d6e0       ?max_size@?$_Wrap_alloc@V?$allocator@VpollCommand@@@std@@@std@@QBEIXZ 0045e6e0 f i slink.obj
 0001:0005d700       ?max_size@?$allocator@U?$_Tree_node@U?$pair@$$CBIPAVfabianServer@@@std@@PAX@std@@@std@@QBEIXZ 0045e700 f i slink.obj
 0001:0005d720       ?max_size@?$allocator@U?$_Tree_node@VQString@@PAX@std@@@std@@QBEIXZ 0045e720 f i slink.obj
 0001:0005d740       ?max_size@?$allocator@U?$_Tree_node@VpollCommand@@PAX@std@@@std@@QBEIXZ 0045e740 f i slink.obj
 0001:0005d760       ?max_size@?$allocator@VpollCommand@@@std@@QBEIXZ 0045e760 f i slink.obj
 0001:0005d780       ?max_size@?$allocator_traits@V?$allocator@U?$_Tree_node@U?$pair@$$CBIPAVfabianServer@@@std@@PAX@std@@@std@@@std@@SAIABV?$allocator@U?$_Tree_node@U?$pair@$$CBIPAVfabianServer@@@std@@PAX@std@@@2@@Z 0045e780 f i slink.obj
 0001:0005d790       ?max_size@?$allocator_traits@V?$allocator@U?$_Tree_node@VQString@@PAX@std@@@std@@@std@@SAIABV?$allocator@U?$_Tree_node@VQString@@PAX@std@@@2@@Z 0045e790 f i slink.obj
 0001:0005d7a0       ?max_size@?$allocator_traits@V?$allocator@U?$_Tree_node@VpollCommand@@PAX@std@@@std@@@std@@SAIABV?$allocator@U?$_Tree_node@VpollCommand@@PAX@std@@@2@@Z 0045e7a0 f i slink.obj
 0001:0005d7b0       ?max_size@?$allocator_traits@V?$allocator@VpollCommand@@@std@@@std@@SAIABV?$allocator@VpollCommand@@@2@@Z 0045e7b0 f i slink.obj
 0001:0005d7c0       ?max_size@?$deque@VpollCommand@@V?$allocator@VpollCommand@@@std@@@std@@QBEIXZ 0045e7c0 f i slink.obj
 0001:0005d7f0       ?node_construct@?$QList@VQSslCipher@@@@AAEXPAUNode@1@ABVQSslCipher@@@Z 0045e7f0 f i slink.obj
 0001:0005d920       ?node_copy@?$QList@VQSslCipher@@@@AAEXPAUNode@1@00@Z 0045e920 f i slink.obj
 0001:0005dbd0       ?node_destruct@?$QList@VQSslCipher@@@@AAEXPAUNode@1@0@Z 0045ebd0 f i slink.obj
 0001:0005dc70       ?node_destruct@?$QList@VQSslCipher@@@@AAEXPAUNode@1@@Z 0045ec70 f i slink.obj
 0001:0005dce0       ?pointer_to@?$pointer_traits@PAU?$pair@$$CBIPAVfabianServer@@@std@@@std@@SAPAU?$pair@$$CBIPAVfabianServer@@@2@AAU32@@Z 0045ece0 f i slink.obj
 0001:0005dd00       ?pointer_to@?$pointer_traits@PBU?$pair@$$CBIPAVfabianServer@@@std@@@std@@SAPBU?$pair@$$CBIPAVfabianServer@@@2@ABU32@@Z 0045ed00 f i slink.obj
 0001:0005dd20       ?pointer_to@?$pointer_traits@PBVclientIPC@@@std@@SAPBVclientIPC@@ABV3@@Z 0045ed20 f i slink.obj
 0001:0005dd40       ?pointer_to@?$pointer_traits@PBVdbEntry@@@std@@SAPBVdbEntry@@ABV3@@Z 0045ed40 f i slink.obj
 0001:0005dd60       ?pointer_to@?$pointer_traits@PBVpollCommand@@@std@@SAPBVpollCommand@@ABV3@@Z 0045ed60 f i slink.obj
 0001:0005dd80       ?pop@?$queue@VpollCommand@@V?$deque@VpollCommand@@V?$allocator@VpollCommand@@@std@@@std@@@std@@QAEXXZ 0045ed80 f i slink.obj
 0001:0005dda0       ?pop_back@?$deque@VpollCommand@@V?$allocator@VpollCommand@@@std@@@std@@QAEXXZ 0045eda0 f i slink.obj
 0001:0005de90       ?pop_front@?$deque@VpollCommand@@V?$allocator@VpollCommand@@@std@@@std@@QAEXXZ 0045ee90 f i slink.obj
 0001:0005df90       ?push@?$queue@VpollCommand@@V?$deque@VpollCommand@@V?$allocator@VpollCommand@@@std@@@std@@@std@@QAEXABVpollCommand@@@Z 0045ef90 f i slink.obj
 0001:0005dfb0       ?push_back@?$deque@VpollCommand@@V?$allocator@VpollCommand@@@std@@@std@@QAEXABVpollCommand@@@Z 0045efb0 f i slink.obj
 0001:0005e0e0       ?retranslateUi@Ui_slinkClass@@QAEXPAVQMainWindow@@@Z 0045f0e0 f i slink.obj
 0001:0005eb10       ?setupUi@Ui_slinkClass@@QAEXPAVQMainWindow@@@Z 0045fb10 f i slink.obj
 0001:00060a50       ?size@?$_Tree@V?$_Tset_traits@VpollCommand@@U?$less@VpollCommand@@@std@@V?$allocator@VpollCommand@@@3@$0A@@std@@@std@@QBEIXZ 00461a50 f i slink.obj
 0001:00060a70       ?size@?$deque@VpollCommand@@V?$allocator@VpollCommand@@@std@@@std@@QBEIXZ 00461a70 f i slink.obj
 0001:00060a90       ?size@?$queue@VpollCommand@@V?$deque@VpollCommand@@V?$allocator@VpollCommand@@@std@@@std@@@std@@QBEIXZ 00461a90 f i slink.obj
 0001:00060ab0       ?start@pollCommand@@QBEIXZ 00461ab0 f i slink.obj
 0001:00060ad0       ?t@Node@?$QList@VQSslCipher@@@@QAEAAVQSslCipher@@XZ 00461ad0 f i slink.obj
 0001:00060b00       ?type@pollCommand@@QBEDXZ  00461b00 f i slink.obj
 0001:00060b20       ??0user@@QAE@ABVQString@@000II@Z 00461b20 f   user.obj
 0001:00060c20       ??1user@@UAE@XZ            00461c20 f   user.obj
 0001:00060e20       ?userName@user@@QBE?AVQString@@XZ 00461e20 f   user.obj
 0001:00060e60       ?password@user@@QBE?AVQString@@XZ 00461e60 f   user.obj
 0001:00060ea0       ?controlPassword@user@@QBE?AVQString@@XZ 00461ea0 f   user.obj
 0001:00060ee0       ?configKey@user@@QBE?AVQString@@XZ 00461ee0 f   user.obj
 0001:00060f20       ?serverPort@user@@QBEIXZ   00461f20 f   user.obj
 0001:00060f40       ?workstationOverride@user@@QBEIXZ 00461f40 f   user.obj
 0001:00060f60       ?isReadEnabled@user@@QBE_NI@Z 00461f60 f   user.obj
 0001:00061040       ?isReadEnabled@user@@QBE_NII@Z 00462040 f   user.obj
 0001:00061120       ?isWriteEnabled@user@@QBE_NI@Z 00462120 f   user.obj
 0001:000611e0       ?isWriteEnabled@user@@QBE_NII@Z 004621e0 f   user.obj
 0001:000612c0       ?isWriteEnabled@user@@QBE_NIII@Z 004622c0 f   user.obj
 0001:000613a0       ?isReadEnabled@user@@QBE_NIII@Z 004623a0 f   user.obj
 0001:00061480       ?addReadAccess@user@@QAEXIII@Z 00462480 f   user.obj
 0001:000615e0       ?addWriteAccess@user@@QAEXIII@Z 004625e0 f   user.obj
 0001:00061740       ?writePermissions@user@@QAEPAV?$map@IPAVsingleReg@@U?$less@I@std@@V?$allocator@U?$pair@$$CBIPAVsingleReg@@@std@@@3@@std@@XZ 00462740 f   user.obj
 0001:00061760       ?readPermissions@user@@QAEPAV?$map@IPAVsingleReg@@U?$less@I@std@@V?$allocator@U?$pair@$$CBIPAVsingleReg@@@std@@@3@@std@@XZ 00462760 f   user.obj
 0001:00061a90       ??$?0AAIAAPAVsingleReg@@X@?$pair@IPAVsingleReg@@@std@@QAE@AAIAAPAVsingleReg@@@Z 00462a90 f i user.obj
 0001:00061ae0       ??$?0IPAVsingleReg@@X@?$pair@$$CBIPAVsingleReg@@@std@@QAE@$$QAU?$pair@IPAVsingleReg@@@1@@Z 00462ae0 f i user.obj
 0001:00061b30       ??$_Buynode@U?$pair@IPAVsingleReg@@@std@@@?$_Tree_buy@U?$pair@$$CBIPAVsingleReg@@@std@@V?$allocator@U?$pair@$$CBIPAVsingleReg@@@std@@@2@@std@@QAEPAU?$_Tree_node@U?$pair@$$CBIPAVsingleReg@@@std@@PAX@1@$$QAU?$pair@IPAVsingleReg@@@1@@Z 00462b30 f i user.obj
 0001:00061c60       ??$_Buynode_if_nil@AAU?$pair@$$CBIPAVsingleReg@@@std@@@?$_Tree@V?$_Tmap_traits@IPAVsingleReg@@U?$less@I@std@@V?$allocator@U?$pair@$$CBIPAVsingleReg@@@std@@@3@$0A@@std@@@std@@IAEPAU?$_Tree_node@U?$pair@$$CBIPAVsingleReg@@@std@@PAX@1@PAU21@AAU?$pair@$$CBIPAVsingleReg@@@1@@Z 00462c60 f i user.obj
 0001:00061c80       ??$_Insert_at@AAU?$pair@$$CBIPAVsingleReg@@@std@@PAU?$_Tree_node@U?$pair@$$CBIPAVsingleReg@@@std@@PAX@2@@?$_Tree@V?$_Tmap_traits@IPAVsingleReg@@U?$less@I@std@@V?$allocator@U?$pair@$$CBIPAVsingleReg@@@std@@@3@$0A@@std@@@std@@IAE?AV?$_Tree_iterator@V?$_Tree_val@U?$_Tree_simple_types@U?$pair@$$CBIPAVsingleReg@@@std@@@std@@@std@@@1@_NPAU?$_Tree_node@U?$pair@$$CBIPAVsingleReg@@@std@@PAX@1@AAU?$pair@$$CBIPAVsingleReg@@@1@1@Z 00462c80 f i user.obj
 0001:000621d0       ??$_Insert_nohint@AAU?$pair@$$CBIPAVsingleReg@@@std@@PAU?$_Tree_node@U?$pair@$$CBIPAVsingleReg@@@std@@PAX@2@@?$_Tree@V?$_Tmap_traits@IPAVsingleReg@@U?$less@I@std@@V?$allocator@U?$pair@$$CBIPAVsingleReg@@@std@@@3@$0A@@std@@@std@@IAE?AU?$pair@V?$_Tree_iterator@V?$_Tree_val@U?$_Tree_simple_types@U?$pair@$$CBIPAVsingleReg@@@std@@@std@@@std@@@std@@_N@1@_NAAU?$pair@$$CBIPAVsingleReg@@@1@PAU?$_Tree_node@U?$pair@$$CBIPAVsingleReg@@@std@@PAX@1@@Z 004631d0 f i user.obj
 0001:000627b0       ??$_Kfn@$$CBIPAVsingleReg@@@?$_Tmap_traits@IPAVsingleReg@@U?$less@I@std@@V?$allocator@U?$pair@$$CBIPAVsingleReg@@@std@@@3@$0A@@std@@SAABIABU?$pair@$$CBIPAVsingleReg@@@1@@Z 004637b0 f i user.obj
 0001:000627c0       ??$construct@U?$pair@$$CBIPAVsingleReg@@@std@@U?$pair@IPAVsingleReg@@@2@@?$_Wrap_alloc@V?$allocator@U?$_Tree_node@U?$pair@$$CBIPAVsingleReg@@@std@@PAX@std@@@std@@@std@@QAEXPAU?$pair@$$CBIPAVsingleReg@@@1@$$QAU?$pair@IPAVsingleReg@@@1@@Z 004637c0 f i user.obj
 0001:00062800       ??$construct@U?$pair@$$CBIPAVsingleReg@@@std@@U?$pair@IPAVsingleReg@@@2@@?$allocator@U?$_Tree_node@U?$pair@$$CBIPAVsingleReg@@@std@@PAX@std@@@std@@QAEXPAU?$pair@$$CBIPAVsingleReg@@@1@$$QAU?$pair@IPAVsingleReg@@@1@@Z 00463800 f i user.obj
 0001:000628b0       ??$construct@U?$pair@$$CBIPAVsingleReg@@@std@@U?$pair@IPAVsingleReg@@@2@@?$allocator_traits@V?$allocator@U?$_Tree_node@U?$pair@$$CBIPAVsingleReg@@@std@@PAX@std@@@std@@@std@@SAXAAV?$allocator@U?$_Tree_node@U?$pair@$$CBIPAVsingleReg@@@std@@PAX@std@@@1@PAU?$pair@$$CBIPAVsingleReg@@@1@$$QAU?$pair@IPAVsingleReg@@@1@@Z 004638b0 f i user.obj
 0001:000628e0       ??$forward@U?$pair@IPAVsingleReg@@@std@@@std@@YA$$QAU?$pair@IPAVsingleReg@@@0@AAU10@@Z 004638e0 f i user.obj
 0001:000628f0       ??$insert@U?$pair@IPAVsingleReg@@@std@@@?$_Tree@V?$_Tmap_traits@IPAVsingleReg@@U?$less@I@std@@V?$allocator@U?$pair@$$CBIPAVsingleReg@@@std@@@3@$0A@@std@@@std@@QAE?AU?$pair@V?$_Tree_iterator@V?$_Tree_val@U?$_Tree_simple_types@U?$pair@$$CBIPAVsingleReg@@@std@@@std@@@std@@@std@@_N@1@$$QAU?$pair@IPAVsingleReg@@@1@@Z 004638f0 f i user.obj
 0001:00062960       ??0?$_Tree@V?$_Tmap_traits@IPAVsingleReg@@U?$less@I@std@@V?$allocator@U?$pair@$$CBIPAVsingleReg@@@std@@@3@$0A@@std@@@std@@QAE@ABU?$less@I@1@ABV?$allocator@U?$pair@$$CBIPAVsingleReg@@@std@@@1@@Z 00463960 f i user.obj
 0001:00062990       ??0?$_Tree_comp@$0A@V?$_Tmap_traits@IPAVsingleReg@@U?$less@I@std@@V?$allocator@U?$pair@$$CBIPAVsingleReg@@@std@@@3@$0A@@std@@@std@@QAE@ABU?$less@I@1@ABV?$allocator@U?$pair@$$CBIPAVsingleReg@@@std@@@1@@Z 00463990 f i user.obj
 0001:000629c0       ??0?$map@IPAVsingleReg@@U?$less@I@std@@V?$allocator@U?$pair@$$CBIPAVsingleReg@@@std@@@3@@std@@QAE@XZ 004639c0 f i user.obj
 0001:000629f0       ??1?$_Tree@V?$_Tmap_traits@IPAVsingleReg@@U?$less@I@std@@V?$allocator@U?$pair@$$CBIPAVsingleReg@@@std@@@3@$0A@@std@@@std@@QAE@XZ 004639f0 f i user.obj
 0001:00062a20       ??1?$_Tree_comp@$0A@V?$_Tmap_traits@IPAVsingleReg@@U?$less@I@std@@V?$allocator@U?$pair@$$CBIPAVsingleReg@@@std@@@3@$0A@@std@@@std@@QAE@XZ 00463a20 f i user.obj
 0001:00062a40       ??1?$map@IPAVsingleReg@@U?$less@I@std@@V?$allocator@U?$pair@$$CBIPAVsingleReg@@@std@@@3@@std@@QAE@XZ 00463a40 f i user.obj
 0001:00062a60       ??_Euser@@UAEPAXI@Z        00463a60 f i user.obj
 0001:00062a60       ??_Guser@@UAEPAXI@Z        00463a60 f i user.obj
 0001:00062aa0       ?_Destroy_if_not_nil@?$_Tree@V?$_Tmap_traits@IPAVsingleReg@@U?$less@I@std@@V?$allocator@U?$pair@$$CBIPAVsingleReg@@@std@@@3@$0A@@std@@@std@@IAEXPAU?$_Tree_node@U?$pair@$$CBIPAVsingleReg@@@std@@PAX@2@@Z 00463aa0 f i user.obj
 0001:00062b10       ?_Erase@?$_Tree@V?$_Tmap_traits@IPAVsingleReg@@U?$less@I@std@@V?$allocator@U?$pair@$$CBIPAVsingleReg@@@std@@@3@$0A@@std@@@std@@IAEXPAU?$_Tree_node@U?$pair@$$CBIPAVsingleReg@@@std@@PAX@2@@Z 00463b10 f i user.obj
 0001:00062be0       ?_Getcomp@?$_Tree_comp@$0A@V?$_Tmap_traits@IPAVsingleReg@@U?$less@I@std@@V?$allocator@U?$pair@$$CBIPAVsingleReg@@@std@@@3@$0A@@std@@@std@@QBE?AU?$less@I@2@XZ 00463be0 f i user.obj
 0001:00062c00       ?_Key@?$_Tree@V?$_Tmap_traits@IPAVsingleReg@@U?$less@I@std@@V?$allocator@U?$pair@$$CBIPAVsingleReg@@@std@@@3@$0A@@std@@@std@@IBEABIPAU?$_Tree_node@U?$pair@$$CBIPAVsingleReg@@@std@@PAX@2@@Z 00463c00 f i user.obj
 0001:00062c30       ?_Kfn@?$_Tree@V?$_Tmap_traits@IPAVsingleReg@@U?$less@I@std@@V?$allocator@U?$pair@$$CBIPAVsingleReg@@@std@@@3@$0A@@std@@@std@@IBEABIABU?$pair@$$CBIPAVsingleReg@@@2@@Z 00463c30 f i user.obj
 0001:00062c50       ?_Lbound@?$_Tree@V?$_Tmap_traits@IPAVsingleReg@@U?$less@I@std@@V?$allocator@U?$pair@$$CBIPAVsingleReg@@@std@@@3@$0A@@std@@@std@@IAEPAU?$_Tree_node@U?$pair@$$CBIPAVsingleReg@@@std@@PAX@2@ABI@Z 00463c50 f i user.obj
 0001:00062d20       ?_Lbound@?$_Tree@V?$_Tmap_traits@IPAVsingleReg@@U?$less@I@std@@V?$allocator@U?$pair@$$CBIPAVsingleReg@@@std@@@3@$0A@@std@@@std@@IBEPAU?$_Tree_node@U?$pair@$$CBIPAVsingleReg@@@std@@PAX@2@ABI@Z 00463d20 f i user.obj
 0001:00062df0       ?_Lmost@?$_Tree@V?$_Tmap_traits@IPAVsingleReg@@U?$less@I@std@@V?$allocator@U?$pair@$$CBIPAVsingleReg@@@std@@@3@$0A@@std@@@std@@IBEAAPAU?$_Tree_node@U?$pair@$$CBIPAVsingleReg@@@std@@PAX@2@XZ 00463df0 f i user.obj
 0001:00062e10       ?_Lrotate@?$_Tree@V?$_Tmap_traits@IPAVsingleReg@@U?$less@I@std@@V?$allocator@U?$pair@$$CBIPAVsingleReg@@@std@@@3@$0A@@std@@@std@@IAEXPAU?$_Tree_node@U?$pair@$$CBIPAVsingleReg@@@std@@PAX@2@@Z 00463e10 f i user.obj
 0001:00062f90       ?_Orphan_ptr@?$_Tree@V?$_Tmap_traits@IPAVsingleReg@@U?$less@I@std@@V?$allocator@U?$pair@$$CBIPAVsingleReg@@@std@@@3@$0A@@std@@@std@@IBEXAAV12@PAU?$_Tree_node@U?$pair@$$CBIPAVsingleReg@@@std@@PAX@2@@Z 00463f90 f i user.obj
 0001:00063090       ?_Rmost@?$_Tree@V?$_Tmap_traits@IPAVsingleReg@@U?$less@I@std@@V?$allocator@U?$pair@$$CBIPAVsingleReg@@@std@@@3@$0A@@std@@@std@@IBEAAPAU?$_Tree_node@U?$pair@$$CBIPAVsingleReg@@@std@@PAX@2@XZ 00464090 f i user.obj
 0001:000630b0       ?_Root@?$_Tree@V?$_Tmap_traits@IPAVsingleReg@@U?$less@I@std@@V?$allocator@U?$pair@$$CBIPAVsingleReg@@@std@@@3@$0A@@std@@@std@@IBEAAPAU?$_Tree_node@U?$pair@$$CBIPAVsingleReg@@@std@@PAX@2@XZ 004640b0 f i user.obj
 0001:000630d0       ?_Rrotate@?$_Tree@V?$_Tmap_traits@IPAVsingleReg@@U?$less@I@std@@V?$allocator@U?$pair@$$CBIPAVsingleReg@@@std@@@3@$0A@@std@@@std@@IAEXPAU?$_Tree_node@U?$pair@$$CBIPAVsingleReg@@@std@@PAX@2@@Z 004640d0 f i user.obj
 0001:00063250       ?_Tidy@?$_Tree@V?$_Tmap_traits@IPAVsingleReg@@U?$less@I@std@@V?$allocator@U?$pair@$$CBIPAVsingleReg@@@std@@@3@$0A@@std@@@std@@IAEXXZ 00464250 f i user.obj
 0001:00063360       ?begin@?$_Tree@V?$_Tmap_traits@IPAVsingleReg@@U?$less@I@std@@V?$allocator@U?$pair@$$CBIPAVsingleReg@@@std@@@3@$0A@@std@@@std@@QAE?AV?$_Tree_iterator@V?$_Tree_val@U?$_Tree_simple_types@U?$pair@$$CBIPAVsingleReg@@@std@@@std@@@std@@@2@XZ 00464360 f i user.obj
 0001:00063390       ?clear@?$_Tree@V?$_Tmap_traits@IPAVsingleReg@@U?$less@I@std@@V?$allocator@U?$pair@$$CBIPAVsingleReg@@@std@@@3@$0A@@std@@@std@@QAEXXZ 00464390 f i user.obj
 0001:00063410       ?end@?$_Tree@V?$_Tmap_traits@IPAVsingleReg@@U?$less@I@std@@V?$allocator@U?$pair@$$CBIPAVsingleReg@@@std@@@3@$0A@@std@@@std@@QAE?AV?$_Tree_iterator@V?$_Tree_val@U?$_Tree_simple_types@U?$pair@$$CBIPAVsingleReg@@@std@@@std@@@std@@@2@XZ 00464410 f i user.obj
 0001:00063440       ?end@?$_Tree@V?$_Tmap_traits@IPAVsingleReg@@U?$less@I@std@@V?$allocator@U?$pair@$$CBIPAVsingleReg@@@std@@@3@$0A@@std@@@std@@QBE?AV?$_Tree_const_iterator@V?$_Tree_val@U?$_Tree_simple_types@U?$pair@$$CBIPAVsingleReg@@@std@@@std@@@std@@@2@XZ 00464440 f i user.obj
 0001:00063470       ?erase@?$_Tree@V?$_Tmap_traits@IPAVsingleReg@@U?$less@I@std@@V?$allocator@U?$pair@$$CBIPAVsingleReg@@@std@@@3@$0A@@std@@@std@@QAE?AV?$_Tree_iterator@V?$_Tree_val@U?$_Tree_simple_types@U?$pair@$$CBIPAVsingleReg@@@std@@@std@@@std@@@2@V?$_Tree_const_iterator@V?$_Tree_val@U?$_Tree_simple_types@U?$pair@$$CBIPAVsingleReg@@@std@@@std@@@std@@@2@0@Z 00464470 f i user.obj
 0001:000636d0       ?erase@?$_Tree@V?$_Tmap_traits@IPAVsingleReg@@U?$less@I@std@@V?$allocator@U?$pair@$$CBIPAVsingleReg@@@std@@@3@$0A@@std@@@std@@QAE?AV?$_Tree_iterator@V?$_Tree_val@U?$_Tree_simple_types@U?$pair@$$CBIPAVsingleReg@@@std@@@std@@@std@@@2@V?$_Tree_const_iterator@V?$_Tree_val@U?$_Tree_simple_types@U?$pair@$$CBIPAVsingleReg@@@std@@@std@@@std@@@2@@Z 004646d0 f i user.obj
 0001:000640f0       ?find@?$_Tree@V?$_Tmap_traits@IPAVsingleReg@@U?$less@I@std@@V?$allocator@U?$pair@$$CBIPAVsingleReg@@@std@@@3@$0A@@std@@@std@@QAE?AV?$_Tree_iterator@V?$_Tree_val@U?$_Tree_simple_types@U?$pair@$$CBIPAVsingleReg@@@std@@@std@@@std@@@2@ABI@Z 004650f0 f i user.obj
 0001:00064300       ?find@?$_Tree@V?$_Tmap_traits@IPAVsingleReg@@U?$less@I@std@@V?$allocator@U?$pair@$$CBIPAVsingleReg@@@std@@@3@$0A@@std@@@std@@QBE?AV?$_Tree_const_iterator@V?$_Tree_val@U?$_Tree_simple_types@U?$pair@$$CBIPAVsingleReg@@@std@@@std@@@std@@@2@ABI@Z 00465300 f i user.obj
 0001:00064510       ?lower_bound@?$_Tree@V?$_Tmap_traits@IPAVsingleReg@@U?$less@I@std@@V?$allocator@U?$pair@$$CBIPAVsingleReg@@@std@@@3@$0A@@std@@@std@@QAE?AV?$_Tree_iterator@V?$_Tree_val@U?$_Tree_simple_types@U?$pair@$$CBIPAVsingleReg@@@std@@@std@@@std@@@2@ABI@Z 00465510 f i user.obj
 0001:00064560       ?lower_bound@?$_Tree@V?$_Tmap_traits@IPAVsingleReg@@U?$less@I@std@@V?$allocator@U?$pair@$$CBIPAVsingleReg@@@std@@@3@$0A@@std@@@std@@QBE?AV?$_Tree_const_iterator@V?$_Tree_val@U?$_Tree_simple_types@U?$pair@$$CBIPAVsingleReg@@@std@@@std@@@std@@@2@ABI@Z 00465560 f i user.obj
 0001:000645b0       ?max_size@?$_Tree@V?$_Tmap_traits@IPAVsingleReg@@U?$less@I@std@@V?$allocator@U?$pair@$$CBIPAVsingleReg@@@std@@@3@$0A@@std@@@std@@QBEIXZ 004655b0 f i user.obj
 0001:00064b80       ??0userEditDialog@@QAE@XZ  00465b80 f   userEditDialog.obj
 0001:000651e0       ??1userEditDialog@@UAE@XZ  004661e0 f   userEditDialog.obj
 0001:00065210       ?slotItemDoubleClicked@userEditDialog@@AAEXPAVQTreeWidgetItem@@H@Z 00466210 f   userEditDialog.obj
 0001:000652a0       ?slotAddUser@userEditDialog@@AAEXXZ 004662a0 f   userEditDialog.obj
 0001:00065860       ?slotDeleteUser@userEditDialog@@AAEXXZ 00466860 f   userEditDialog.obj
 0001:00065f10       ??0?$QFlags@W4InputMethodHint@Qt@@@@QAE@W4InputMethodHint@Qt@@@Z 00466f10 f i userEditDialog.obj
 0001:00065f30       ??0?$QFlags@W4StandardButton@QMessageBox@@@@QAE@VQFlag@@@Z 00466f30 f i userEditDialog.obj
 0001:00065f60       ??U?$QFlags@W4StandardButton@QMessageBox@@@@QBE?AV0@W4StandardButton@QMessageBox@@@Z 00466f60 f i userEditDialog.obj
 0001:00065fa0       ??U@YA?AV?$QFlags@W4StandardButton@QMessageBox@@@@W4StandardButton@QMessageBox@@0@Z 00466fa0 f i userEditDialog.obj
 0001:00065fcf       ??_EQLabel@@W7AEPAXI@Z     00466fcf f i userEditDialog.obj
 0001:00065fd9       ??_EuserEditDialog@@W7AEPAXI@Z 00466fd9 f i userEditDialog.obj
 0001:00065ff0       ??_EQLabel@@UAEPAXI@Z      00466ff0 f i userEditDialog.obj
 0001:00065ff0       ??_GQLabel@@UAEPAXI@Z      00466ff0 f i userEditDialog.obj
 0001:00066030       ??_EQTreeWidgetItem@@UAEPAXI@Z 00467030 f i userEditDialog.obj
 0001:00066030       ??_GQTreeWidgetItem@@UAEPAXI@Z 00467030 f i userEditDialog.obj
 0001:00066070       ??_GuserEditDialog@@UAEPAXI@Z 00467070 f i userEditDialog.obj
 0001:00066070       ??_EuserEditDialog@@UAEPAXI@Z 00467070 f i userEditDialog.obj
 0001:000660b0       ?data_ptr@?$QStaticStringData@$04@@QBEPAU?$QTypedArrayData@G@@XZ 004670b0 f i userEditDialog.obj
 0001:00066110       ?data_ptr@?$QStaticStringData@$0BC@@@QBEPAU?$QTypedArrayData@G@@XZ 00467110 f i userEditDialog.obj
 0001:00066170       ?retranslateUi@Ui_userEditDialog@@QAEXPAVQDialog@@@Z 00467170 f i userEditDialog.obj
 0001:00066600       ?setupUi@Ui_userEditDialog@@QAEXPAVQDialog@@@Z 00467600 f i userEditDialog.obj
 0001:00067c30       ??0userEditPermissionsDialog@@QAE@ABVQString@@@Z 00468c30 f   userEditPermissionsDialog.obj
 0001:00068980       ??1userEditPermissionsDialog@@UAE@XZ 00469980 f   userEditPermissionsDialog.obj
 0001:000689b0       ?accept@userEditPermissionsDialog@@UAEXXZ 004699b0 f   userEditPermissionsDialog.obj
 0001:00069810       ?doCopyRight@userEditPermissionsDialog@@AAEXXZ 0046a810 f   userEditPermissionsDialog.obj
 0001:00069850       ?doCopyLeft@userEditPermissionsDialog@@AAEXXZ 0046a850 f   userEditPermissionsDialog.obj
 0001:00069890       ?validDevAndRange@@YA_NABVQString@@@Z 0046a890 f   userEditPermissionsDialog.obj
 0001:0006a420       ??0?$QFlags@W4StandardButton@QDialogButtonBox@@@@QAE@VQFlag@@@Z 0046b420 f i userEditPermissionsDialog.obj
 0001:0006a450       ??0?$QFlags@W4StandardButton@QDialogButtonBox@@@@QAE@W4StandardButton@QDialogButtonBox@@@Z 0046b450 f i userEditPermissionsDialog.obj
 0001:0006a470       ??U?$QFlags@W4StandardButton@QDialogButtonBox@@@@QBE?AV0@W4StandardButton@QDialogButtonBox@@@Z 0046b470 f i userEditPermissionsDialog.obj
 0001:0006a4b0       ??U@YA?AV?$QFlags@W4StandardButton@QDialogButtonBox@@@@W4StandardButton@QDialogButtonBox@@0@Z 0046b4b0 f i userEditPermissionsDialog.obj
 0001:0006a4df       ??_EQDialogButtonBox@@W7AEPAXI@Z 0046b4df f i userEditPermissionsDialog.obj
 0001:0006a4e9       ??_EQToolButton@@W7AEPAXI@Z 0046b4e9 f i userEditPermissionsDialog.obj
 0001:0006a4f3       ??_EuserEditPermissionsDialog@@W7AEPAXI@Z 0046b4f3 f i userEditPermissionsDialog.obj
 0001:0006a500       ??_GQDialogButtonBox@@UAEPAXI@Z 0046b500 f i userEditPermissionsDialog.obj
 0001:0006a500       ??_EQDialogButtonBox@@UAEPAXI@Z 0046b500 f i userEditPermissionsDialog.obj
 0001:0006a540       ??_GQToolButton@@UAEPAXI@Z 0046b540 f i userEditPermissionsDialog.obj
 0001:0006a540       ??_EQToolButton@@UAEPAXI@Z 0046b540 f i userEditPermissionsDialog.obj
 0001:0006a580       ??_EuserEditPermissionsDialog@@UAEPAXI@Z 0046b580 f i userEditPermissionsDialog.obj
 0001:0006a580       ??_GuserEditPermissionsDialog@@UAEPAXI@Z 0046b580 f i userEditPermissionsDialog.obj
 0001:0006a5c0       ?data_ptr@?$QStaticStringData@$0BJ@@@QBEPAU?$QTypedArrayData@G@@XZ 0046b5c0 f i userEditPermissionsDialog.obj
 0001:0006a620       ?length@?$QList@VQString@@@@QBEHXZ 0046b620 f i userEditPermissionsDialog.obj
 0001:0006a640       ?retranslateUi@Ui_userEditPermissionsDialog@@QAEXPAVQDialog@@@Z 0046b640 f i userEditPermissionsDialog.obj
 0001:0006a8c0       ?setupUi@Ui_userEditPermissionsDialog@@QAEXPAVQDialog@@@Z 0046b8c0 f i userEditPermissionsDialog.obj
 0001:0006bcf0       ??0users@@QAE@XZ           0046ccf0 f   users.obj
 0001:0006bd10       ??1users@@UAE@XZ           0046cd10 f   users.obj
 0001:0006bd30       ?loadUsers@users@@SAXXZ    0046cd30 f   users.obj
 0001:0006bf90       ?loadAccess@users@@SAXAAVccConfig@@PAVuser@@ABVQString@@@Z 0046cf90 f   users.obj
 0001:0006c700       ?userList@users@@SAXAAV?$list@PAVuser@@V?$allocator@PAVuser@@@std@@@std@@@Z 0046d700 f   users.obj
 0001:0006c7f0       ?loadUserInfo@users@@SAXABVQString@@@Z 0046d7f0 f   users.obj
 0001:0006d140       ?getUser@users@@SAPBVuser@@ABVQString@@@Z 0046e140 f   users.obj
 0001:0006d240       ?getUserByConfigKey@users@@SAPBVuser@@ABVQString@@@Z 0046e240 f   users.obj
 0001:0006d380       ?createUser@users@@SAPAVuser@@ABVQString@@00II@Z 0046e380 f   users.obj
 0001:0006daa0       ?deleteUser@users@@SAXABVQString@@@Z 0046eaa0 f   users.obj
 0001:0006e630       ??$?0AAV?$_Tree_iterator@V?$_Tree_val@U?$_Tree_simple_types@U?$pair@$$CBVQString@@PAVuser@@@std@@@std@@@std@@@std@@_NX@?$pair@V?$_Tree_iterator@V?$_Tree_val@U?$_Tree_simple_types@U?$pair@$$CBVQString@@PAVuser@@@std@@@std@@@std@@@std@@_N@std@@QAE@AAV?$_Tree_iterator@V?$_Tree_val@U?$_Tree_simple_types@U?$pair@$$CBVQString@@PAVuser@@@std@@@std@@@std@@@1@$$QA_N@Z 0046f630 f i users.obj
 0001:0006e6c0       ??$?0ABVQString@@AAPAVuser@@X@?$pair@VQString@@PAVuser@@@std@@QAE@ABVQString@@AAPAVuser@@@Z 0046f6c0 f i users.obj
 0001:0006e750       ??$?0PBDAAPAVuser@@X@?$pair@VQString@@PAVuser@@@std@@QAE@$$QAPBDAAPAVuser@@@Z 0046f750 f i users.obj
 0001:0006e7f0       ??$?0U?$_Tree_node@U?$pair@$$CBVQString@@PAVuser@@@std@@PAX@std@@@?$allocator@U_Container_proxy@std@@@std@@QAE@ABV?$allocator@U?$_Tree_node@U?$pair@$$CBVQString@@PAVuser@@@std@@PAX@std@@@1@@Z 0046f7f0 f i users.obj
 0001:0006e810       ??$?0U?$_Wrap_alloc@V?$allocator@U?$_Tree_node@U?$pair@$$CBVQString@@PAVuser@@@std@@PAX@std@@@std@@@std@@@?$_Wrap_alloc@V?$allocator@U_Container_proxy@std@@@std@@@std@@QAE@ABU?$_Wrap_alloc@V?$allocator@U?$_Tree_node@U?$pair@$$CBVQString@@PAVuser@@@std@@PAX@std@@@std@@@1@@Z 0046f810 f i users.obj
 0001:0006e840       ??$?0V?$_Tree_iterator@V?$_Tree_val@U?$_Tree_simple_types@U?$pair@$$CBVQString@@PAVuser@@@std@@@std@@@std@@@std@@_NX@?$pair@V?$_Tree_iterator@V?$_Tree_val@U?$_Tree_simple_types@U?$pair@$$CBVQString@@PAVuser@@@std@@@std@@@std@@@std@@_N@std@@QAE@$$QAV?$_Tree_iterator@V?$_Tree_val@U?$_Tree_simple_types@U?$pair@$$CBVQString@@PAVuser@@@std@@@std@@@std@@@1@$$QA_N@Z 0046f840 f i users.obj
 0001:0006e8d0       ??$?0VQString@@PAVuser@@X@?$pair@$$CBVQString@@PAVuser@@@std@@QAE@$$QAU?$pair@VQString@@PAVuser@@@1@@Z 0046f8d0 f i users.obj
 0001:0006e970       ??$_Allocate@U?$_Tree_node@U?$pair@$$CBVQString@@PAVuser@@@std@@PAX@std@@@std@@YAPAU?$_Tree_node@U?$pair@$$CBVQString@@PAVuser@@@std@@PAX@0@IPAU10@@Z 0046f970 f i users.obj
 0001:0006e9c0       ??$_Buynode@ABQAVuser@@@?$_List_buy@PAVuser@@V?$allocator@PAVuser@@@std@@@std@@QAEPAU?$_List_node@PAVuser@@PAX@1@PAU21@0ABQAVuser@@@Z 0046f9c0 f i users.obj
 0001:0006eae0       ??$_Buynode@U?$pair@VQString@@PAVuser@@@std@@@?$_Tree_buy@U?$pair@$$CBVQString@@PAVuser@@@std@@V?$allocator@U?$pair@$$CBVQString@@PAVuser@@@std@@@2@@std@@QAEPAU?$_Tree_node@U?$pair@$$CBVQString@@PAVuser@@@std@@PAX@1@$$QAU?$pair@VQString@@PAVuser@@@1@@Z 0046fae0 f i users.obj
 0001:0006ec10       ??$_Buynode_if_nil@AAU?$pair@$$CBVQString@@PAVuser@@@std@@@?$_Tree@V?$_Tmap_traits@VQString@@PAVuser@@U?$less@VQString@@@std@@V?$allocator@U?$pair@$$CBVQString@@PAVuser@@@std@@@4@$0A@@std@@@std@@IAEPAU?$_Tree_node@U?$pair@$$CBVQString@@PAVuser@@@std@@PAX@1@PAU21@AAU?$pair@$$CBVQString@@PAVuser@@@1@@Z 0046fc10 f i users.obj
 0001:0006ec30       ??$_Insert@ABQAVuser@@@?$list@PAVuser@@V?$allocator@PAVuser@@@std@@@std@@QAEXV?$_List_unchecked_const_iterator@V?$_List_val@U?$_List_simple_types@PAVuser@@@std@@@std@@U_Iterator_base0@2@@1@ABQAVuser@@@Z 0046fc30 f i users.obj
 0001:0006ecd0       ??$_Insert_at@AAU?$pair@$$CBVQString@@PAVuser@@@std@@PAU?$_Tree_node@U?$pair@$$CBVQString@@PAVuser@@@std@@PAX@2@@?$_Tree@V?$_Tmap_traits@VQString@@PAVuser@@U?$less@VQString@@@std@@V?$allocator@U?$pair@$$CBVQString@@PAVuser@@@std@@@4@$0A@@std@@@std@@IAE?AV?$_Tree_iterator@V?$_Tree_val@U?$_Tree_simple_types@U?$pair@$$CBVQString@@PAVuser@@@std@@@std@@@std@@@1@_NPAU?$_Tree_node@U?$pair@$$CBVQString@@PAVuser@@@std@@PAX@1@AAU?$pair@$$CBVQString@@PAVuser@@@1@1@Z 0046fcd0 f i users.obj
 0001:0006f220       ??$_Insert_nohint@AAU?$pair@$$CBVQString@@PAVuser@@@std@@PAU?$_Tree_node@U?$pair@$$CBVQString@@PAVuser@@@std@@PAX@2@@?$_Tree@V?$_Tmap_traits@VQString@@PAVuser@@U?$less@VQString@@@std@@V?$allocator@U?$pair@$$CBVQString@@PAVuser@@@std@@@4@$0A@@std@@@std@@IAE?AU?$pair@V?$_Tree_iterator@V?$_Tree_val@U?$_Tree_simple_types@U?$pair@$$CBVQString@@PAVuser@@@std@@@std@@@std@@@std@@_N@1@_NAAU?$pair@$$CBVQString@@PAVuser@@@1@PAU?$_Tree_node@U?$pair@$$CBVQString@@PAVuser@@@std@@PAX@1@@Z 00470220 f i users.obj
 0001:0006f800       ??$_Kfn@$$CBVQString@@PAVuser@@@?$_Tmap_traits@VQString@@PAVuser@@U?$less@VQString@@@std@@V?$allocator@U?$pair@$$CBVQString@@PAVuser@@@std@@@4@$0A@@std@@SAABVQString@@ABU?$pair@$$CBVQString@@PAVuser@@@1@@Z 00470800 f i users.obj
 0001:0006f810       ??$addressof@$$CBU?$pair@$$CBVQString@@PAVuser@@@std@@@std@@YAPBU?$pair@$$CBVQString@@PAVuser@@@0@ABU10@@Z 00470810 f i users.obj
 0001:0006f820       ??$addressof@PAU?$_Tree_node@U?$pair@$$CBVQString@@PAVuser@@@std@@PAX@std@@@std@@YAPAPAU?$_Tree_node@U?$pair@$$CBVQString@@PAVuser@@@std@@PAX@0@AAPAU10@@Z 00470820 f i users.obj
 0001:0006f830       ??$addressof@U?$pair@$$CBVQString@@PAVuser@@@std@@@std@@YAPAU?$pair@$$CBVQString@@PAVuser@@@0@AAU10@@Z 00470830 f i users.obj
 0001:0006f840       ??$construct@PAU?$_Tree_node@U?$pair@$$CBVQString@@PAVuser@@@std@@PAX@std@@AAPAU12@@?$_Wrap_alloc@V?$allocator@U?$_Tree_node@U?$pair@$$CBVQString@@PAVuser@@@std@@PAX@std@@@std@@@std@@QAEXPAPAU?$_Tree_node@U?$pair@$$CBVQString@@PAVuser@@@std@@PAX@1@AAPAU21@@Z 00470840 f i users.obj
 0001:0006f880       ??$construct@PAU?$_Tree_node@U?$pair@$$CBVQString@@PAVuser@@@std@@PAX@std@@AAPAU12@@?$allocator@U?$_Tree_node@U?$pair@$$CBVQString@@PAVuser@@@std@@PAX@std@@@std@@QAEXPAPAU?$_Tree_node@U?$pair@$$CBVQString@@PAVuser@@@std@@PAX@1@AAPAU21@@Z 00470880 f i users.obj
 0001:0006f930       ??$construct@PAU?$_Tree_node@U?$pair@$$CBVQString@@PAVuser@@@std@@PAX@std@@AAPAU12@@?$allocator_traits@V?$allocator@U?$_Tree_node@U?$pair@$$CBVQString@@PAVuser@@@std@@PAX@std@@@std@@@std@@SAXAAV?$allocator@U?$_Tree_node@U?$pair@$$CBVQString@@PAVuser@@@std@@PAX@std@@@1@PAPAU?$_Tree_node@U?$pair@$$CBVQString@@PAVuser@@@std@@PAX@1@AAPAU31@@Z 00470930 f i users.obj
 0001:0006f960       ??$construct@PAVuser@@ABQAV1@@?$_Wrap_alloc@V?$allocator@U?$_List_node@PAVuser@@PAX@std@@@std@@@std@@QAEXPAPAVuser@@ABQAV2@@Z 00470960 f i users.obj
 0001:0006f9a0       ??$construct@PAVuser@@ABQAV1@@?$allocator@U?$_List_node@PAVuser@@PAX@std@@@std@@QAEXPAPAVuser@@ABQAV2@@Z 004709a0 f i users.obj
 0001:0006fa50       ??$construct@PAVuser@@ABQAV1@@?$allocator_traits@V?$allocator@U?$_List_node@PAVuser@@PAX@std@@@std@@@std@@SAXAAV?$allocator@U?$_List_node@PAVuser@@PAX@std@@@1@PAPAVuser@@ABQAV3@@Z 00470a50 f i users.obj
 0001:0006fa80       ??$construct@U?$pair@$$CBVQString@@PAVuser@@@std@@U?$pair@VQString@@PAVuser@@@2@@?$_Wrap_alloc@V?$allocator@U?$_Tree_node@U?$pair@$$CBVQString@@PAVuser@@@std@@PAX@std@@@std@@@std@@QAEXPAU?$pair@$$CBVQString@@PAVuser@@@1@$$QAU?$pair@VQString@@PAVuser@@@1@@Z 00470a80 f i users.obj
 0001:0006fac0       ??$construct@U?$pair@$$CBVQString@@PAVuser@@@std@@U?$pair@VQString@@PAVuser@@@2@@?$allocator@U?$_Tree_node@U?$pair@$$CBVQString@@PAVuser@@@std@@PAX@std@@@std@@QAEXPAU?$pair@$$CBVQString@@PAVuser@@@1@$$QAU?$pair@VQString@@PAVuser@@@1@@Z 00470ac0 f i users.obj
 0001:0006fb70       ??$construct@U?$pair@$$CBVQString@@PAVuser@@@std@@U?$pair@VQString@@PAVuser@@@2@@?$allocator_traits@V?$allocator@U?$_Tree_node@U?$pair@$$CBVQString@@PAVuser@@@std@@PAX@std@@@std@@@std@@SAXAAV?$allocator@U?$_Tree_node@U?$pair@$$CBVQString@@PAVuser@@@std@@PAX@std@@@1@PAU?$pair@$$CBVQString@@PAVuser@@@1@$$QAU?$pair@VQString@@PAVuser@@@1@@Z 00470b70 f i users.obj
 0001:0006fba0       ??$destroy@PAU?$_List_node@V?$basic_string@DU?$char_traits@D@std@@V?$allocator@D@2@@std@@PAX@std@@@?$_Wrap_alloc@V?$allocator@U?$_List_node@V?$basic_string@DU?$char_traits@D@std@@V?$allocator@D@2@@std@@PAX@std@@@std@@@std@@QAEXPAPAU?$_List_node@V?$basic_string@DU?$char_traits@D@std@@V?$allocator@D@2@@std@@PAX@1@@Z 00470ba0 f i users.obj
 0001:0006fbd0       ??$destroy@PAU?$_List_node@V?$basic_string@DU?$char_traits@D@std@@V?$allocator@D@2@@std@@PAX@std@@@?$allocator@U?$_List_node@V?$basic_string@DU?$char_traits@D@std@@V?$allocator@D@2@@std@@PAX@std@@@std@@QAEXPAPAU?$_List_node@V?$basic_string@DU?$char_traits@D@std@@V?$allocator@D@2@@std@@PAX@1@@Z 00470bd0 f i users.obj
 0001:0006fbe0       ??$destroy@PAU?$_List_node@V?$basic_string@DU?$char_traits@D@std@@V?$allocator@D@2@@std@@PAX@std@@@?$allocator_traits@V?$allocator@U?$_List_node@V?$basic_string@DU?$char_traits@D@std@@V?$allocator@D@2@@std@@PAX@std@@@std@@@std@@SAXAAV?$allocator@U?$_List_node@V?$basic_string@DU?$char_traits@D@std@@V?$allocator@D@2@@std@@PAX@std@@@1@PAPAU?$_List_node@V?$basic_string@DU?$char_traits@D@std@@V?$allocator@D@2@@std@@PAX@1@@Z 00470be0 f i users.obj
 0001:0006fc00       ??$destroy@PAU?$_Tree_node@U?$pair@$$CBVQString@@PAVuser@@@std@@PAX@std@@@?$_Wrap_alloc@V?$allocator@U?$_Tree_node@U?$pair@$$CBVQString@@PAVuser@@@std@@PAX@std@@@std@@@std@@QAEXPAPAU?$_Tree_node@U?$pair@$$CBVQString@@PAVuser@@@std@@PAX@1@@Z 00470c00 f i users.obj
 0001:0006fc30       ??$destroy@PAU?$_Tree_node@U?$pair@$$CBVQString@@PAVuser@@@std@@PAX@std@@@?$allocator@U?$_Tree_node@U?$pair@$$CBVQString@@PAVuser@@@std@@PAX@std@@@std@@QAEXPAPAU?$_Tree_node@U?$pair@$$CBVQString@@PAVuser@@@std@@PAX@1@@Z 00470c30 f i users.obj
 0001:0006fc40       ??$destroy@PAU?$_Tree_node@U?$pair@$$CBVQString@@PAVuser@@@std@@PAX@std@@@?$allocator_traits@V?$allocator@U?$_Tree_node@U?$pair@$$CBVQString@@PAVuser@@@std@@PAX@std@@@std@@@std@@SAXAAV?$allocator@U?$_Tree_node@U?$pair@$$CBVQString@@PAVuser@@@std@@PAX@std@@@1@PAPAU?$_Tree_node@U?$pair@$$CBVQString@@PAVuser@@@std@@PAX@1@@Z 00470c40 f i users.obj
 0001:0006fc60       ??$destroy@U?$pair@$$CBVQString@@PAVuser@@@std@@@?$_Wrap_alloc@V?$allocator@U?$_Tree_node@U?$pair@$$CBVQString@@PAVuser@@@std@@PAX@std@@@std@@@std@@QAEXPAU?$pair@$$CBVQString@@PAVuser@@@1@@Z 00470c60 f i users.obj
 0001:0006fc90       ??$destroy@U?$pair@$$CBVQString@@PAVuser@@@std@@@?$allocator@U?$_Tree_node@U?$pair@$$CBVQString@@PAVuser@@@std@@PAX@std@@@std@@QAEXPAU?$pair@$$CBVQString@@PAVuser@@@1@@Z 00470c90 f i users.obj
 0001:0006fcb0       ??$destroy@U?$pair@$$CBVQString@@PAVuser@@@std@@@?$allocator_traits@V?$allocator@U?$_Tree_node@U?$pair@$$CBVQString@@PAVuser@@@std@@PAX@std@@@std@@@std@@SAXAAV?$allocator@U?$_Tree_node@U?$pair@$$CBVQString@@PAVuser@@@std@@PAX@std@@@1@PAU?$pair@$$CBVQString@@PAVuser@@@1@@Z 00470cb0 f i users.obj
 0001:0006fcd0       ??$destroy@V?$basic_string@DU?$char_traits@D@std@@V?$allocator@D@2@@std@@@?$_Wrap_alloc@V?$allocator@U?$_List_node@V?$basic_string@DU?$char_traits@D@std@@V?$allocator@D@2@@std@@PAX@std@@@std@@@std@@QAEXPAV?$basic_string@DU?$char_traits@D@std@@V?$allocator@D@2@@1@@Z 00470cd0 f i users.obj
 0001:0006fd00       ??$destroy@V?$basic_string@DU?$char_traits@D@std@@V?$allocator@D@2@@std@@@?$allocator@U?$_List_node@V?$basic_string@DU?$char_traits@D@std@@V?$allocator@D@2@@std@@PAX@std@@@std@@QAEXPAV?$basic_string@DU?$char_traits@D@std@@V?$allocator@D@2@@1@@Z 00470d00 f i users.obj
 0001:0006fd20       ??$destroy@V?$basic_string@DU?$char_traits@D@std@@V?$allocator@D@2@@std@@@?$allocator_traits@V?$allocator@U?$_List_node@V?$basic_string@DU?$char_traits@D@std@@V?$allocator@D@2@@std@@PAX@std@@@std@@@std@@SAXAAV?$allocator@U?$_List_node@V?$basic_string@DU?$char_traits@D@std@@V?$allocator@D@2@@std@@PAX@std@@@1@PAV?$basic_string@DU?$char_traits@D@std@@V?$allocator@D@2@@1@@Z 00470d20 f i users.obj
 0001:0006fd40       ??$forward@AAPAU?$_Tree_node@U?$pair@$$CBVQString@@PAVuser@@@std@@PAX@std@@@std@@YAAAPAU?$_Tree_node@U?$pair@$$CBVQString@@PAVuser@@@std@@PAX@0@AAPAU10@@Z 00470d40 f i users.obj
 0001:0006fd50       ??$forward@AAPAVuser@@@std@@YAAAPAVuser@@AAPAV1@@Z 00470d50 f i users.obj
 0001:0006fd60       ??$forward@AAU?$pair@$$CBVQString@@PAVuser@@@std@@@std@@YAAAU?$pair@$$CBVQString@@PAVuser@@@0@AAU10@@Z 00470d60 f i users.obj
 0001:0006fd70       ??$forward@AAV?$_Tree_iterator@V?$_Tree_val@U?$_Tree_simple_types@U?$pair@$$CBVQString@@PAVuser@@@std@@@std@@@std@@@std@@@std@@YAAAV?$_Tree_iterator@V?$_Tree_val@U?$_Tree_simple_types@U?$pair@$$CBVQString@@PAVuser@@@std@@@std@@@std@@@0@AAV10@@Z 00470d70 f i users.obj
 0001:0006fd80       ??$forward@ABQAVuser@@@std@@YAABQAVuser@@ABQAV1@@Z 00470d80 f i users.obj
 0001:0006fd90       ??$forward@PAVuser@@@std@@YA$$QAPAVuser@@AAPAV1@@Z 00470d90 f i users.obj
 0001:0006fda0       ??$forward@PBD@std@@YA$$QAPBDAAPBD@Z 00470da0 f i users.obj
 0001:0006fdb0       ??$forward@U?$pair@VQString@@PAVuser@@@std@@@std@@YA$$QAU?$pair@VQString@@PAVuser@@@0@AAU10@@Z 00470db0 f i users.obj
 0001:0006fdc0       ??$forward@V?$_Tree_iterator@V?$_Tree_val@U?$_Tree_simple_types@U?$pair@$$CBVQString@@PAVuser@@@std@@@std@@@std@@@std@@@std@@YA$$QAV?$_Tree_iterator@V?$_Tree_val@U?$_Tree_simple_types@U?$pair@$$CBVQString@@PAVuser@@@std@@@std@@@std@@@0@AAV10@@Z 00470dc0 f i users.obj
 0001:0006fdd0       ??$insert@U?$pair@VQString@@PAVuser@@@std@@@?$_Tree@V?$_Tmap_traits@VQString@@PAVuser@@U?$less@VQString@@@std@@V?$allocator@U?$pair@$$CBVQString@@PAVuser@@@std@@@4@$0A@@std@@@std@@QAE?AU?$pair@V?$_Tree_iterator@V?$_Tree_val@U?$_Tree_simple_types@U?$pair@$$CBVQString@@PAVuser@@@std@@@std@@@std@@@std@@_N@1@$$QAU?$pair@VQString@@PAVuser@@@1@@Z 00470dd0 f i users.obj
 0001:0006fe40       ??0?$_Iterator012@Ubidirectional_iterator_tag@std@@U?$pair@$$CBVQString@@PAVuser@@@2@HPBU32@ABU32@U_Iterator_base12@2@@std@@QAE@ABU01@@Z 00470e40 f i users.obj
 0001:0006fe70       ??0?$_Iterator012@Ubidirectional_iterator_tag@std@@U?$pair@$$CBVQString@@PAVuser@@@2@HPBU32@ABU32@U_Iterator_base12@2@@std@@QAE@XZ 00470e70 f i users.obj
 0001:0006fe90       ??0?$_Iterator012@Ubidirectional_iterator_tag@std@@V?$basic_string@DU?$char_traits@D@std@@V?$allocator@D@2@@2@HPBV32@ABV32@U_Iterator_base12@2@@std@@QAE@ABU01@@Z 00470e90 f i users.obj
 0001:0006fec0       ??0?$_Iterator012@Ubidirectional_iterator_tag@std@@V?$basic_string@DU?$char_traits@D@std@@V?$allocator@D@2@@2@HPBV32@ABV32@U_Iterator_base12@2@@std@@QAE@XZ 00470ec0 f i users.obj
 0001:0006fee0       ??0?$_List_alloc@$0A@U?$_List_base_types@V?$basic_string@DU?$char_traits@D@std@@V?$allocator@D@2@@std@@V?$allocator@V?$basic_string@DU?$char_traits@D@std@@V?$allocator@D@2@@std@@@2@@std@@@std@@QAE@ABV?$allocator@V?$basic_string@DU?$char_traits@D@std@@V?$allocator@D@2@@std@@@1@@Z 00470ee0 f i users.obj
 0001:0006ffb0       ??0?$_List_buy@V?$basic_string@DU?$char_traits@D@std@@V?$allocator@D@2@@std@@V?$allocator@V?$basic_string@DU?$char_traits@D@std@@V?$allocator@D@2@@std@@@2@@std@@QAE@ABV?$allocator@V?$basic_string@DU?$char_traits@D@std@@V?$allocator@D@2@@std@@@1@@Z 00470fb0 f i users.obj
 0001:0006ffe0       ??0?$_List_const_iterator@V?$_List_val@U?$_List_simple_types@V?$basic_string@DU?$char_traits@D@std@@V?$allocator@D@2@@std@@@std@@@std@@@std@@QAE@ABV01@@Z 00470fe0 f i users.obj
 0001:00070010       ??0?$_List_const_iterator@V?$_List_val@U?$_List_simple_types@V?$basic_string@DU?$char_traits@D@std@@V?$allocator@D@2@@std@@@std@@@std@@@std@@QAE@PAU?$_List_node@V?$basic_string@DU?$char_traits@D@std@@V?$allocator@D@2@@std@@PAX@1@PBV?$_List_val@U?$_List_simple_types@V?$basic_string@DU?$char_traits@D@std@@V?$allocator@D@2@@std@@@std@@@1@@Z 00471010 f i users.obj
 0001:00070040       ??0?$_List_iterator@V?$_List_val@U?$_List_simple_types@V?$basic_string@DU?$char_traits@D@std@@V?$allocator@D@2@@std@@@std@@@std@@@std@@QAE@PAU?$_List_node@V?$basic_string@DU?$char_traits@D@std@@V?$allocator@D@2@@std@@PAX@1@PBV?$_List_val@U?$_List_simple_types@V?$basic_string@DU?$char_traits@D@std@@V?$allocator@D@2@@std@@@std@@@1@@Z 00471040 f i users.obj
 0001:00070070       ??0?$_List_unchecked_const_iterator@V?$_List_val@U?$_List_simple_types@PAVuser@@@std@@@std@@U_Iterator_base0@2@@std@@QAE@PAU?$_List_node@PAVuser@@PAX@1@PBV?$_List_val@U?$_List_simple_types@PAVuser@@@std@@@1@@Z 00471070 f i users.obj
 0001:000700a0       ??0?$_List_unchecked_const_iterator@V?$_List_val@U?$_List_simple_types@V?$basic_string@DU?$char_traits@D@std@@V?$allocator@D@2@@std@@@std@@@std@@U_Iterator_base12@2@@std@@QAE@ABV01@@Z 004710a0 f i users.obj
 0001:000700e0       ??0?$_List_unchecked_const_iterator@V?$_List_val@U?$_List_simple_types@V?$basic_string@DU?$char_traits@D@std@@V?$allocator@D@2@@std@@@std@@@std@@U_Iterator_base12@2@@std@@QAE@PAU?$_List_node@V?$basic_string@DU?$char_traits@D@std@@V?$allocator@D@2@@std@@PAX@1@PBV?$_List_val@U?$_List_simple_types@V?$basic_string@DU?$char_traits@D@std@@V?$allocator@D@2@@std@@@std@@@1@@Z 004710e0 f i users.obj
 0001:00070160       ??0?$_List_unchecked_iterator@V?$_List_val@U?$_List_simple_types@PAVuser@@@std@@@std@@@std@@QAE@PAU?$_List_node@PAVuser@@PAX@1@PBV?$_List_val@U?$_List_simple_types@PAVuser@@@std@@@1@@Z 00471160 f i users.obj
 0001:00070190       ??0?$_List_val@U?$_List_simple_types@V?$basic_string@DU?$char_traits@D@std@@V?$allocator@D@2@@std@@@std@@@std@@QAE@XZ 00471190 f i users.obj
 0001:000701d0       ??0?$_Tree@V?$_Tmap_traits@VQString@@PAVuser@@U?$less@VQString@@@std@@V?$allocator@U?$pair@$$CBVQString@@PAVuser@@@std@@@4@$0A@@std@@@std@@QAE@ABU?$less@VQString@@@1@ABV?$allocator@U?$pair@$$CBVQString@@PAVuser@@@std@@@1@@Z 004711d0 f i users.obj
 0001:00070200       ??0?$_Tree_alloc@$0A@U?$_Tree_base_types@U?$pair@$$CBVQString@@PAVuser@@@std@@V?$allocator@U?$pair@$$CBVQString@@PAVuser@@@std@@@2@@std@@@std@@QAE@ABV?$allocator@U?$pair@$$CBVQString@@PAVuser@@@std@@@1@@Z 00471200 f i users.obj
 0001:000702d0       ??0?$_Tree_buy@U?$pair@$$CBVQString@@PAVuser@@@std@@V?$allocator@U?$pair@$$CBVQString@@PAVuser@@@std@@@2@@std@@QAE@ABV?$allocator@U?$pair@$$CBVQString@@PAVuser@@@std@@@1@@Z 004712d0 f i users.obj
 0001:00070300       ??0?$_Tree_comp@$0A@V?$_Tmap_traits@VQString@@PAVuser@@U?$less@VQString@@@std@@V?$allocator@U?$pair@$$CBVQString@@PAVuser@@@std@@@4@$0A@@std@@@std@@QAE@ABU?$less@VQString@@@1@ABV?$allocator@U?$pair@$$CBVQString@@PAVuser@@@std@@@1@@Z 00471300 f i users.obj
 0001:00070330       ??0?$_Tree_const_iterator@V?$_Tree_val@U?$_Tree_simple_types@U?$pair@$$CBVQString@@PAVuser@@@std@@@std@@@std@@@std@@QAE@ABV01@@Z 00471330 f i users.obj
 0001:00070360       ??0?$_Tree_const_iterator@V?$_Tree_val@U?$_Tree_simple_types@U?$pair@$$CBVQString@@PAVuser@@@std@@@std@@@std@@@std@@QAE@PAU?$_Tree_node@U?$pair@$$CBVQString@@PAVuser@@@std@@PAX@1@PBV?$_Tree_val@U?$_Tree_simple_types@U?$pair@$$CBVQString@@PAVuser@@@std@@@std@@@1@@Z 00471360 f i users.obj
 0001:00070390       ??0?$_Tree_iterator@V?$_Tree_val@U?$_Tree_simple_types@U?$pair@$$CBVQString@@PAVuser@@@std@@@std@@@std@@@std@@QAE@ABV01@@Z 00471390 f i users.obj
 0001:000703c0       ??0?$_Tree_iterator@V?$_Tree_val@U?$_Tree_simple_types@U?$pair@$$CBVQString@@PAVuser@@@std@@@std@@@std@@@std@@QAE@PAU?$_Tree_node@U?$pair@$$CBVQString@@PAVuser@@@std@@PAX@1@PBV?$_Tree_val@U?$_Tree_simple_types@U?$pair@$$CBVQString@@PAVuser@@@std@@@std@@@1@@Z 004713c0 f i users.obj
 0001:000703f0       ??0?$_Tree_unchecked_const_iterator@V?$_Tree_val@U?$_Tree_simple_types@U?$pair@$$CBVQString@@PAVuser@@@std@@@std@@@std@@U_Iterator_base12@2@@std@@QAE@ABV01@@Z 004713f0 f i users.obj
 0001:00070430       ??0?$_Tree_unchecked_const_iterator@V?$_Tree_val@U?$_Tree_simple_types@U?$pair@$$CBVQString@@PAVuser@@@std@@@std@@@std@@U_Iterator_base12@2@@std@@QAE@PAU?$_Tree_node@U?$pair@$$CBVQString@@PAVuser@@@std@@PAX@1@PBV?$_Tree_val@U?$_Tree_simple_types@U?$pair@$$CBVQString@@PAVuser@@@std@@@std@@@1@@Z 00471430 f i users.obj
 0001:000704b0       ??0?$_Tree_val@U?$_Tree_simple_types@U?$pair@$$CBVQString@@PAVuser@@@std@@@std@@@std@@QAE@XZ 004714b0 f i users.obj
 0001:000704f0       ??0?$_Wrap_alloc@V?$allocator@U?$_Tree_node@U?$pair@$$CBVQString@@PAVuser@@@std@@PAX@std@@@std@@@std@@QAE@XZ 004714f0 f i users.obj
 0001:00070510       ??0?$allocator@U?$_Tree_node@U?$pair@$$CBVQString@@PAVuser@@@std@@PAX@std@@@std@@QAE@XZ 00471510 f i users.obj
 0001:00070530       ??0?$allocator@U?$pair@$$CBVQString@@PAVuser@@@std@@@std@@QAE@XZ 00471530 f i users.obj
 0001:00070550       ??0?$list@V?$basic_string@DU?$char_traits@D@std@@V?$allocator@D@2@@std@@V?$allocator@V?$basic_string@DU?$char_traits@D@std@@V?$allocator@D@2@@std@@@2@@std@@QAE@XZ 00471550 f i users.obj
 0001:00070580       ??0?$map@VQString@@PAVuser@@U?$less@VQString@@@std@@V?$allocator@U?$pair@$$CBVQString@@PAVuser@@@std@@@4@@std@@QAE@XZ 00471580 f i users.obj
 0001:000705b0       ??1?$_Iterator012@Ubidirectional_iterator_tag@std@@U?$pair@$$CBVQString@@PAVuser@@@2@HPBU32@ABU32@U_Iterator_base12@2@@std@@QAE@XZ 004715b0 f i users.obj
 0001:000705d0       ??1?$_Iterator012@Ubidirectional_iterator_tag@std@@V?$basic_string@DU?$char_traits@D@std@@V?$allocator@D@2@@2@HPBV32@ABV32@U_Iterator_base12@2@@std@@QAE@XZ 004715d0 f i users.obj
 0001:000705f0       ??1?$_List_alloc@$0A@U?$_List_base_types@V?$basic_string@DU?$char_traits@D@std@@V?$allocator@D@2@@std@@V?$allocator@V?$basic_string@DU?$char_traits@D@std@@V?$allocator@D@2@@std@@@2@@std@@@std@@QAE@XZ 004715f0 f i users.obj
 0001:00070630       ??1?$_List_buy@V?$basic_string@DU?$char_traits@D@std@@V?$allocator@D@2@@std@@V?$allocator@V?$basic_string@DU?$char_traits@D@std@@V?$allocator@D@2@@std@@@2@@std@@QAE@XZ 00471630 f i users.obj
 0001:00070650       ??1?$_List_const_iterator@V?$_List_val@U?$_List_simple_types@V?$basic_string@DU?$char_traits@D@std@@V?$allocator@D@2@@std@@@std@@@std@@@std@@QAE@XZ 00471650 f i users.obj
 0001:00070670       ??1?$_List_iterator@V?$_List_val@U?$_List_simple_types@V?$basic_string@DU?$char_traits@D@std@@V?$allocator@D@2@@std@@@std@@@std@@@std@@QAE@XZ 00471670 f i users.obj
 0001:00070690       ??1?$_List_unchecked_const_iterator@V?$_List_val@U?$_List_simple_types@V?$basic_string@DU?$char_traits@D@std@@V?$allocator@D@2@@std@@@std@@@std@@U_Iterator_base12@2@@std@@QAE@XZ 00471690 f i users.obj
 0001:000706b0       ??1?$_List_val@U?$_List_simple_types@V?$basic_string@DU?$char_traits@D@std@@V?$allocator@D@2@@std@@@std@@@std@@QAE@XZ 004716b0 f i users.obj
 0001:000706d0       ??1?$_Tree@V?$_Tmap_traits@VQString@@PAVuser@@U?$less@VQString@@@std@@V?$allocator@U?$pair@$$CBVQString@@PAVuser@@@std@@@4@$0A@@std@@@std@@QAE@XZ 004716d0 f i users.obj
 0001:00070700       ??1?$_Tree_alloc@$0A@U?$_Tree_base_types@U?$pair@$$CBVQString@@PAVuser@@@std@@V?$allocator@U?$pair@$$CBVQString@@PAVuser@@@std@@@2@@std@@@std@@QAE@XZ 00471700 f i users.obj
 0001:00070740       ??1?$_Tree_buy@U?$pair@$$CBVQString@@PAVuser@@@std@@V?$allocator@U?$pair@$$CBVQString@@PAVuser@@@std@@@2@@std@@QAE@XZ 00471740 f i users.obj
 0001:00070760       ??1?$_Tree_comp@$0A@V?$_Tmap_traits@VQString@@PAVuser@@U?$less@VQString@@@std@@V?$allocator@U?$pair@$$CBVQString@@PAVuser@@@std@@@4@$0A@@std@@@std@@QAE@XZ 00471760 f i users.obj
 0001:00070780       ??1?$_Tree_const_iterator@V?$_Tree_val@U?$_Tree_simple_types@U?$pair@$$CBVQString@@PAVuser@@@std@@@std@@@std@@@std@@QAE@XZ 00471780 f i users.obj
 0001:000707a0       ??1?$_Tree_iterator@V?$_Tree_val@U?$_Tree_simple_types@U?$pair@$$CBVQString@@PAVuser@@@std@@@std@@@std@@@std@@QAE@XZ 004717a0 f i users.obj
 0001:000707c0       ??1?$_Tree_unchecked_const_iterator@V?$_Tree_val@U?$_Tree_simple_types@U?$pair@$$CBVQString@@PAVuser@@@std@@@std@@@std@@U_Iterator_base12@2@@std@@QAE@XZ 004717c0 f i users.obj
 0001:000707e0       ??1?$_Tree_val@U?$_Tree_simple_types@U?$pair@$$CBVQString@@PAVuser@@@std@@@std@@@std@@QAE@XZ 004717e0 f i users.obj
 0001:00070800       ??1?$list@V?$basic_string@DU?$char_traits@D@std@@V?$allocator@D@2@@std@@V?$allocator@V?$basic_string@DU?$char_traits@D@std@@V?$allocator@D@2@@std@@@2@@std@@QAE@XZ 00471800 f i users.obj
 0001:00070830       ??1?$map@VQString@@PAVuser@@U?$less@VQString@@@std@@V?$allocator@U?$pair@$$CBVQString@@PAVuser@@@std@@@4@@std@@QAE@XZ 00471830 f i users.obj
 0001:00070850       ??1?$pair@$$CBVQString@@PAVuser@@@std@@QAE@XZ 00471850 f i users.obj
 0001:00070870       ??1?$pair@V?$_Tree_iterator@V?$_Tree_val@U?$_Tree_simple_types@U?$pair@$$CBVQString@@PAVuser@@@std@@@std@@@std@@@std@@_N@std@@QAE@XZ 00471870 f i users.obj
 0001:00070890       ??1?$pair@VQString@@PAVuser@@@std@@QAE@XZ 00471890 f i users.obj
 0001:000708b0       ??8?$_List_const_iterator@V?$_List_val@U?$_List_simple_types@V?$basic_string@DU?$char_traits@D@std@@V?$allocator@D@2@@std@@@std@@@std@@@std@@QBE_NABV01@@Z 004718b0 f i users.obj
 0001:000709a0       ??8?$_Tree_const_iterator@V?$_Tree_val@U?$_Tree_simple_types@U?$pair@$$CBVQString@@PAVuser@@@std@@@std@@@std@@@std@@QBE_NABV01@@Z 004719a0 f i users.obj
 0001:00070a90       ??9?$_List_const_iterator@V?$_List_val@U?$_List_simple_types@V?$basic_string@DU?$char_traits@D@std@@V?$allocator@D@2@@std@@@std@@@std@@@std@@QBE_NABV01@@Z 00471a90 f i users.obj
 0001:00070ae0       ??9?$_Tree_const_iterator@V?$_Tree_val@U?$_Tree_simple_types@U?$pair@$$CBVQString@@PAVuser@@@std@@@std@@@std@@@std@@QBE_NABV01@@Z 00471ae0 f i users.obj
 0001:00070b30       ??C?$_Tree_const_iterator@V?$_Tree_val@U?$_Tree_simple_types@U?$pair@$$CBVQString@@PAVuser@@@std@@@std@@@std@@@std@@QBEPBU?$pair@$$CBVQString@@PAVuser@@@1@XZ 00471b30 f i users.obj
 0001:00070b60       ??C?$_Tree_iterator@V?$_Tree_val@U?$_Tree_simple_types@U?$pair@$$CBVQString@@PAVuser@@@std@@@std@@@std@@@std@@QBEPAU?$pair@$$CBVQString@@PAVuser@@@1@XZ 00471b60 f i users.obj
 0001:00070b90       ??Citerator@?$QList@VQString@@@@QBEPAVQString@@XZ 00471b90 f i users.obj
 0001:00070bb0       ??D?$_List_const_iterator@V?$_List_val@U?$_List_simple_types@V?$basic_string@DU?$char_traits@D@std@@V?$allocator@D@2@@std@@@std@@@std@@@std@@QBEABV?$basic_string@DU?$char_traits@D@std@@V?$allocator@D@2@@1@XZ 00471bb0 f i users.obj
 0001:00070c90       ??D?$_Tree_const_iterator@V?$_Tree_val@U?$_Tree_simple_types@U?$pair@$$CBVQString@@PAVuser@@@std@@@std@@@std@@@std@@QBEABU?$pair@$$CBVQString@@PAVuser@@@1@XZ 00471c90 f i users.obj
 0001:00070d70       ??D?$_Tree_iterator@V?$_Tree_val@U?$_Tree_simple_types@U?$pair@$$CBVQString@@PAVuser@@@std@@@std@@@std@@@std@@QBEAAU?$pair@$$CBVQString@@PAVuser@@@1@XZ 00471d70 f i users.obj
 0001:00070d90       ??E?$_List_const_iterator@V?$_List_val@U?$_List_simple_types@V?$basic_string@DU?$char_traits@D@std@@V?$allocator@D@2@@std@@@std@@@std@@@std@@QAEAAV01@XZ 00471d90 f i users.obj
 0001:00070e80       ??E?$_Tree_const_iterator@V?$_Tree_val@U?$_Tree_simple_types@U?$pair@$$CBVQString@@PAVuser@@@std@@@std@@@std@@@std@@QAE?AV01@H@Z 00471e80 f i users.obj
 0001:00070f30       ??E?$_Tree_const_iterator@V?$_Tree_val@U?$_Tree_simple_types@U?$pair@$$CBVQString@@PAVuser@@@std@@@std@@@std@@@std@@QAEAAV01@XZ 00471f30 f i users.obj
 0001:00071010       ??E?$_Tree_unchecked_const_iterator@V?$_Tree_val@U?$_Tree_simple_types@U?$pair@$$CBVQString@@PAVuser@@@std@@@std@@@std@@U_Iterator_base12@2@@std@@QAEAAV01@XZ 00472010 f i users.obj
 0001:00071100       ??Eiterator@?$QList@VQString@@@@QAE?AV01@H@Z 00472100 f i users.obj
 0001:00071140       ??F?$_Tree_const_iterator@V?$_Tree_val@U?$_Tree_simple_types@U?$pair@$$CBVQString@@PAVuser@@@std@@@std@@@std@@@std@@QAEAAV01@XZ 00472140 f i users.obj
 0001:000712a0       ??F?$_Tree_iterator@V?$_Tree_val@U?$_Tree_simple_types@U?$pair@$$CBVQString@@PAVuser@@@std@@@std@@@std@@@std@@QAEAAV01@XZ 004722a0 f i users.obj
 0001:000712c0       ??F?$_Tree_unchecked_const_iterator@V?$_Tree_val@U?$_Tree_simple_types@U?$pair@$$CBVQString@@PAVuser@@@std@@@std@@@std@@U_Iterator_base12@2@@std@@QAEAAV01@XZ 004722c0 f i users.obj
 0001:000713f0       ??_G?$pair@$$CBVQString@@PAVuser@@@std@@QAEPAXI@Z 004723f0 f i users.obj
 0001:00071430       ??_Eusers@@UAEPAXI@Z       00472430 f i users.obj
 0001:00071430       ??_Gusers@@UAEPAXI@Z       00472430 f i users.obj
 0001:00071470       ?_Alloc_proxy@?$_List_alloc@$0A@U?$_List_base_types@V?$basic_string@DU?$char_traits@D@std@@V?$allocator@D@2@@std@@V?$allocator@V?$basic_string@DU?$char_traits@D@std@@V?$allocator@D@2@@std@@@2@@std@@@std@@QAEXXZ 00472470 f i users.obj
 0001:000714d0       ?_Alloc_proxy@?$_Tree_alloc@$0A@U?$_Tree_base_types@U?$pair@$$CBVQString@@PAVuser@@@std@@V?$allocator@U?$pair@$$CBVQString@@PAVuser@@@std@@@2@@std@@@std@@QAEXXZ 004724d0 f i users.obj
 0001:00071540       ?_Buyheadnode@?$_List_alloc@$0A@U?$_List_base_types@V?$basic_string@DU?$char_traits@D@std@@V?$allocator@D@2@@std@@V?$allocator@V?$basic_string@DU?$char_traits@D@std@@V?$allocator@D@2@@std@@@2@@std@@@std@@QAEPAU?$_List_node@V?$basic_string@DU?$char_traits@D@std@@V?$allocator@D@2@@std@@PAX@2@XZ 00472540 f i users.obj
 0001:00071560       ?_Buyheadnode@?$_Tree_alloc@$0A@U?$_Tree_base_types@U?$pair@$$CBVQString@@PAVuser@@@std@@V?$allocator@U?$pair@$$CBVQString@@PAVuser@@@std@@@2@@std@@@std@@QAEPAU?$_Tree_node@U?$pair@$$CBVQString@@PAVuser@@@std@@PAX@2@XZ 00472560 f i users.obj
 0001:00071720       ?_Buynode0@?$_Tree_buy@U?$pair@$$CBVQString@@PAVuser@@@std@@V?$allocator@U?$pair@$$CBVQString@@PAVuser@@@std@@@2@@std@@QAEPAU?$_Tree_node@U?$pair@$$CBVQString@@PAVuser@@@std@@PAX@2@XZ 00472720 f i users.obj
 0001:000718c0       ?_Color@?$_Tree_val@U?$_Tree_simple_types@U?$pair@$$CBVQString@@PAVuser@@@std@@@std@@@std@@SAAADPAU?$_Tree_node@U?$pair@$$CBVQString@@PAVuser@@@std@@PAX@2@@Z 004728c0 f i users.obj
 0001:000718d0       ?_Destroy_if_not_nil@?$_Tree@V?$_Tmap_traits@VQString@@PAVuser@@U?$less@VQString@@@std@@V?$allocator@U?$pair@$$CBVQString@@PAVuser@@@std@@@4@$0A@@std@@@std@@IAEXPAU?$_Tree_node@U?$pair@$$CBVQString@@PAVuser@@@std@@PAX@2@@Z 004728d0 f i users.obj
 0001:00071940       ?_Erase@?$_Tree@V?$_Tmap_traits@VQString@@PAVuser@@U?$less@VQString@@@std@@V?$allocator@U?$pair@$$CBVQString@@PAVuser@@@std@@@4@$0A@@std@@@std@@IAEXPAU?$_Tree_node@U?$pair@$$CBVQString@@PAVuser@@@std@@PAX@2@@Z 00472940 f i users.obj
 0001:00071a10       ?_Free_proxy@?$_List_alloc@$0A@U?$_List_base_types@V?$basic_string@DU?$char_traits@D@std@@V?$allocator@D@2@@std@@V?$allocator@V?$basic_string@DU?$char_traits@D@std@@V?$allocator@D@2@@std@@@2@@std@@@std@@QAEXXZ 00472a10 f i users.obj
 0001:00071a70       ?_Free_proxy@?$_Tree_alloc@$0A@U?$_Tree_base_types@U?$pair@$$CBVQString@@PAVuser@@@std@@V?$allocator@U?$pair@$$CBVQString@@PAVuser@@@std@@@2@@std@@@std@@QAEXXZ 00472a70 f i users.obj
 0001:00071ae0       ?_Freeheadnode@?$_List_alloc@$0A@U?$_List_base_types@V?$basic_string@DU?$char_traits@D@std@@V?$allocator@D@2@@std@@V?$allocator@V?$basic_string@DU?$char_traits@D@std@@V?$allocator@D@2@@std@@@2@@std@@@std@@QAEXPAU?$_List_node@V?$basic_string@DU?$char_traits@D@std@@V?$allocator@D@2@@std@@PAX@2@@Z 00472ae0 f i users.obj
 0001:00071b80       ?_Freeheadnode@?$_Tree_alloc@$0A@U?$_Tree_base_types@U?$pair@$$CBVQString@@PAVuser@@@std@@V?$allocator@U?$pair@$$CBVQString@@PAVuser@@@std@@@2@@std@@@std@@QAEXPAU?$_Tree_node@U?$pair@$$CBVQString@@PAVuser@@@std@@PAX@2@@Z 00472b80 f i users.obj
 0001:00071c50       ?_Freenode0@?$_Tree_buy@U?$pair@$$CBVQString@@PAVuser@@@std@@V?$allocator@U?$pair@$$CBVQString@@PAVuser@@@std@@@2@@std@@QAEXPAU?$_Tree_node@U?$pair@$$CBVQString@@PAVuser@@@std@@PAX@2@@Z 00472c50 f i users.obj
 0001:00071d20       ?_Freenode@?$_List_buy@V?$basic_string@DU?$char_traits@D@std@@V?$allocator@D@2@@std@@V?$allocator@V?$basic_string@DU?$char_traits@D@std@@V?$allocator@D@2@@std@@@2@@std@@QAEXPAU?$_List_node@V?$basic_string@DU?$char_traits@D@std@@V?$allocator@D@2@@std@@PAX@2@@Z 00472d20 f i users.obj
 0001:00071df0       ?_Getal@?$_Tree_alloc@$0A@U?$_Tree_base_types@U?$pair@$$CBVQString@@PAVuser@@@std@@V?$allocator@U?$pair@$$CBVQString@@PAVuser@@@std@@@2@@std@@@std@@QBE?AU?$_Wrap_alloc@V?$allocator@U?$_Tree_node@U?$pair@$$CBVQString@@PAVuser@@@std@@PAX@std@@@std@@@2@XZ 00472df0 f i users.obj
 0001:00071e10       ?_Getcomp@?$_Tree_comp@$0A@V?$_Tmap_traits@VQString@@PAVuser@@U?$less@VQString@@@std@@V?$allocator@U?$pair@$$CBVQString@@PAVuser@@@std@@@4@$0A@@std@@@std@@QBE?AU?$less@VQString@@@2@XZ 00472e10 f i users.obj
 0001:00071e30       ?_Incsize@?$list@PAVuser@@V?$allocator@PAVuser@@@std@@@std@@QAEXI@Z 00472e30 f i users.obj
 0001:00071e80       ?_Isnil@?$_Tree_val@U?$_Tree_simple_types@U?$pair@$$CBVQString@@PAVuser@@@std@@@std@@@std@@SAAADPAU?$_Tree_node@U?$pair@$$CBVQString@@PAVuser@@@std@@PAX@2@@Z 00472e80 f i users.obj
 0001:00071e90       ?_Key@?$_Tree@V?$_Tmap_traits@VQString@@PAVuser@@U?$less@VQString@@@std@@V?$allocator@U?$pair@$$CBVQString@@PAVuser@@@std@@@4@$0A@@std@@@std@@IBEABVQString@@PAU?$_Tree_node@U?$pair@$$CBVQString@@PAVuser@@@std@@PAX@2@@Z 00472e90 f i users.obj
 0001:00071ec0       ?_Kfn@?$_Tree@V?$_Tmap_traits@VQString@@PAVuser@@U?$less@VQString@@@std@@V?$allocator@U?$pair@$$CBVQString@@PAVuser@@@std@@@4@$0A@@std@@@std@@IBEABVQString@@ABU?$pair@$$CBVQString@@PAVuser@@@2@@Z 00472ec0 f i users.obj
 0001:00071ee0       ?_Lbound@?$_Tree@V?$_Tmap_traits@VQString@@PAVuser@@U?$less@VQString@@@std@@V?$allocator@U?$pair@$$CBVQString@@PAVuser@@@std@@@4@$0A@@std@@@std@@IAEPAU?$_Tree_node@U?$pair@$$CBVQString@@PAVuser@@@std@@PAX@2@ABVQString@@@Z 00472ee0 f i users.obj
 0001:00071fb0       ?_Left@?$_Tree_val@U?$_Tree_simple_types@U?$pair@$$CBVQString@@PAVuser@@@std@@@std@@@std@@SAAAPAU?$_Tree_node@U?$pair@$$CBVQString@@PAVuser@@@std@@PAX@2@PAU32@@Z 00472fb0 f i users.obj
 0001:00071fc0       ?_Lmost@?$_Tree@V?$_Tmap_traits@VQString@@PAVuser@@U?$less@VQString@@@std@@V?$allocator@U?$pair@$$CBVQString@@PAVuser@@@std@@@4@$0A@@std@@@std@@IBEAAPAU?$_Tree_node@U?$pair@$$CBVQString@@PAVuser@@@std@@PAX@2@XZ 00472fc0 f i users.obj
 0001:00071fe0       ?_Lrotate@?$_Tree@V?$_Tmap_traits@VQString@@PAVuser@@U?$less@VQString@@@std@@V?$allocator@U?$pair@$$CBVQString@@PAVuser@@@std@@@4@$0A@@std@@@std@@IAEXPAU?$_Tree_node@U?$pair@$$CBVQString@@PAVuser@@@std@@PAX@2@@Z 00472fe0 f i users.obj
 0001:00072160       ?_Max@?$_Tree_val@U?$_Tree_simple_types@U?$pair@$$CBVQString@@PAVuser@@@std@@@std@@@std@@SAPAU?$_Tree_node@U?$pair@$$CBVQString@@PAVuser@@@std@@PAX@2@PAU32@@Z 00473160 f i users.obj
 0001:000721b0       ?_Min@?$_Tree_val@U?$_Tree_simple_types@U?$pair@$$CBVQString@@PAVuser@@@std@@@std@@@std@@SAPAU?$_Tree_node@U?$pair@$$CBVQString@@PAVuser@@@std@@PAX@2@PAU32@@Z 004731b0 f i users.obj
 0001:00072200       ?_Mynode@?$_List_unchecked_const_iterator@V?$_List_val@U?$_List_simple_types@PAVuser@@@std@@@std@@U_Iterator_base0@2@@std@@QBEPAU?$_List_node@PAVuser@@PAX@2@XZ 00473200 f i users.obj
 0001:00072220       ?_Mynode@?$_Tree_unchecked_const_iterator@V?$_Tree_val@U?$_Tree_simple_types@U?$pair@$$CBVQString@@PAVuser@@@std@@@std@@@std@@U_Iterator_base12@2@@std@@QBEPAU?$_Tree_node@U?$pair@$$CBVQString@@PAVuser@@@std@@PAX@2@XZ 00473220 f i users.obj
 0001:00072240       ?_Myval@?$_Tree_val@U?$_Tree_simple_types@U?$pair@$$CBVQString@@PAVuser@@@std@@@std@@@std@@SAAAU?$pair@$$CBVQString@@PAVuser@@@2@PAU?$_Tree_node@U?$pair@$$CBVQString@@PAVuser@@@std@@PAX@2@@Z 00473240 f i users.obj
 0001:00072250       ?_Orphan_ptr@?$_Tree@V?$_Tmap_traits@VQString@@PAVuser@@U?$less@VQString@@@std@@V?$allocator@U?$pair@$$CBVQString@@PAVuser@@@std@@@4@$0A@@std@@@std@@IBEXAAV12@PAU?$_Tree_node@U?$pair@$$CBVQString@@PAVuser@@@std@@PAX@2@@Z 00473250 f i users.obj
 0001:00072350       ?_Orphan_ptr@?$list@V?$basic_string@DU?$char_traits@D@std@@V?$allocator@D@2@@std@@V?$allocator@V?$basic_string@DU?$char_traits@D@std@@V?$allocator@D@2@@std@@@2@@std@@QBEXAAV12@PAU?$_List_node@V?$basic_string@DU?$char_traits@D@std@@V?$allocator@D@2@@std@@PAX@2@@Z 00473350 f i users.obj
 0001:00072450       ?_Parent@?$_Tree_val@U?$_Tree_simple_types@U?$pair@$$CBVQString@@PAVuser@@@std@@@std@@@std@@SAAAPAU?$_Tree_node@U?$pair@$$CBVQString@@PAVuser@@@std@@PAX@2@PAU32@@Z 00473450 f i users.obj
 0001:00072460       ?_Right@?$_Tree_val@U?$_Tree_simple_types@U?$pair@$$CBVQString@@PAVuser@@@std@@@std@@@std@@SAAAPAU?$_Tree_node@U?$pair@$$CBVQString@@PAVuser@@@std@@PAX@2@PAU32@@Z 00473460 f i users.obj
 0001:00072470       ?_Rmost@?$_Tree@V?$_Tmap_traits@VQString@@PAVuser@@U?$less@VQString@@@std@@V?$allocator@U?$pair@$$CBVQString@@PAVuser@@@std@@@4@$0A@@std@@@std@@IBEAAPAU?$_Tree_node@U?$pair@$$CBVQString@@PAVuser@@@std@@PAX@2@XZ 00473470 f i users.obj
 0001:00072490       ?_Root@?$_Tree@V?$_Tmap_traits@VQString@@PAVuser@@U?$less@VQString@@@std@@V?$allocator@U?$pair@$$CBVQString@@PAVuser@@@std@@@4@$0A@@std@@@std@@IBEAAPAU?$_Tree_node@U?$pair@$$CBVQString@@PAVuser@@@std@@PAX@2@XZ 00473490 f i users.obj
 0001:000724b0       ?_Rrotate@?$_Tree@V?$_Tmap_traits@VQString@@PAVuser@@U?$less@VQString@@@std@@V?$allocator@U?$pair@$$CBVQString@@PAVuser@@@std@@@4@$0A@@std@@@std@@IAEXPAU?$_Tree_node@U?$pair@$$CBVQString@@PAVuser@@@std@@PAX@2@@Z 004734b0 f i users.obj
 0001:00072630       ?_Tidy@?$_Tree@V?$_Tmap_traits@VQString@@PAVuser@@U?$less@VQString@@@std@@V?$allocator@U?$pair@$$CBVQString@@PAVuser@@@std@@@4@$0A@@std@@@std@@IAEXXZ 00473630 f i users.obj
 0001:00072740       ?_Tidy@?$list@V?$basic_string@DU?$char_traits@D@std@@V?$allocator@D@2@@std@@V?$allocator@V?$basic_string@DU?$char_traits@D@std@@V?$allocator@D@2@@std@@@2@@std@@QAEXXZ 00473740 f i users.obj
 0001:00072760       ?_Unchecked_end@?$list@PAVuser@@V?$allocator@PAVuser@@@std@@@std@@QAE?AV?$_List_unchecked_iterator@V?$_List_val@U?$_List_simple_types@PAVuser@@@std@@@std@@@2@XZ 00473760 f i users.obj
 0001:00072790       ?allocate@?$_Wrap_alloc@V?$allocator@U?$_Tree_node@U?$pair@$$CBVQString@@PAVuser@@@std@@PAX@std@@@std@@@std@@QAEPAU?$_Tree_node@U?$pair@$$CBVQString@@PAVuser@@@std@@PAX@2@I@Z 00473790 f i users.obj
 0001:000727b0       ?allocate@?$allocator@U?$_Tree_node@U?$pair@$$CBVQString@@PAVuser@@@std@@PAX@std@@@std@@QAEPAU?$_Tree_node@U?$pair@$$CBVQString@@PAVuser@@@std@@PAX@2@I@Z 004737b0 f i users.obj
 0001:000727e0       ?begin@?$_Tree@V?$_Tmap_traits@VQString@@PAVuser@@U?$less@VQString@@@std@@V?$allocator@U?$pair@$$CBVQString@@PAVuser@@@std@@@4@$0A@@std@@@std@@QAE?AV?$_Tree_iterator@V?$_Tree_val@U?$_Tree_simple_types@U?$pair@$$CBVQString@@PAVuser@@@std@@@std@@@std@@@2@XZ 004737e0 f i users.obj
 0001:00072810       ?begin@?$list@V?$basic_string@DU?$char_traits@D@std@@V?$allocator@D@2@@std@@V?$allocator@V?$basic_string@DU?$char_traits@D@std@@V?$allocator@D@2@@std@@@2@@std@@QAE?AV?$_List_iterator@V?$_List_val@U?$_List_simple_types@V?$basic_string@DU?$char_traits@D@std@@V?$allocator@D@2@@std@@@std@@@std@@@2@XZ 00473810 f i users.obj
 0001:00072850       ?clear@?$_Tree@V?$_Tmap_traits@VQString@@PAVuser@@U?$less@VQString@@@std@@V?$allocator@U?$pair@$$CBVQString@@PAVuser@@@std@@@4@$0A@@std@@@std@@QAEXXZ 00473850 f i users.obj
 0001:000728d0       ?clear@?$list@V?$basic_string@DU?$char_traits@D@std@@V?$allocator@D@2@@std@@V?$allocator@V?$basic_string@DU?$char_traits@D@std@@V?$allocator@D@2@@std@@@2@@std@@QAEXXZ 004738d0 f i users.obj
 0001:00072990       ?deallocate@?$_Wrap_alloc@V?$allocator@U?$_Tree_node@U?$pair@$$CBVQString@@PAVuser@@@std@@PAX@std@@@std@@@std@@QAEXPAU?$_Tree_node@U?$pair@$$CBVQString@@PAVuser@@@std@@PAX@2@I@Z 00473990 f i users.obj
 0001:000729c0       ?deallocate@?$allocator@U?$_Tree_node@U?$pair@$$CBVQString@@PAVuser@@@std@@PAX@std@@@std@@QAEXPAU?$_Tree_node@U?$pair@$$CBVQString@@PAVuser@@@std@@PAX@2@I@Z 004739c0 f i users.obj
 0001:000729e0       ?end@?$_Tree@V?$_Tmap_traits@VQString@@PAVuser@@U?$less@VQString@@@std@@V?$allocator@U?$pair@$$CBVQString@@PAVuser@@@std@@@4@$0A@@std@@@std@@QAE?AV?$_Tree_iterator@V?$_Tree_val@U?$_Tree_simple_types@U?$pair@$$CBVQString@@PAVuser@@@std@@@std@@@std@@@2@XZ 004739e0 f i users.obj
 0001:00072a10       ?end@?$list@V?$basic_string@DU?$char_traits@D@std@@V?$allocator@D@2@@std@@V?$allocator@V?$basic_string@DU?$char_traits@D@std@@V?$allocator@D@2@@std@@@2@@std@@QAE?AV?$_List_iterator@V?$_List_val@U?$_List_simple_types@V?$basic_string@DU?$char_traits@D@std@@V?$allocator@D@2@@std@@@std@@@std@@@2@XZ 00473a10 f i users.obj
 0001:00072a40       ?erase@?$_Tree@V?$_Tmap_traits@VQString@@PAVuser@@U?$less@VQString@@@std@@V?$allocator@U?$pair@$$CBVQString@@PAVuser@@@std@@@4@$0A@@std@@@std@@QAE?AV?$_Tree_iterator@V?$_Tree_val@U?$_Tree_simple_types@U?$pair@$$CBVQString@@PAVuser@@@std@@@std@@@std@@@2@V?$_Tree_const_iterator@V?$_Tree_val@U?$_Tree_simple_types@U?$pair@$$CBVQString@@PAVuser@@@std@@@std@@@std@@@2@0@Z 00473a40 f i users.obj
 0001:00072ca0       ?erase@?$_Tree@V?$_Tmap_traits@VQString@@PAVuser@@U?$less@VQString@@@std@@V?$allocator@U?$pair@$$CBVQString@@PAVuser@@@std@@@4@$0A@@std@@@std@@QAE?AV?$_Tree_iterator@V?$_Tree_val@U?$_Tree_simple_types@U?$pair@$$CBVQString@@PAVuser@@@std@@@std@@@std@@@2@V?$_Tree_const_iterator@V?$_Tree_val@U?$_Tree_simple_types@U?$pair@$$CBVQString@@PAVuser@@@std@@@std@@@std@@@2@@Z 00473ca0 f i users.obj
 0001:000736c0       ?find@?$_Tree@V?$_Tmap_traits@VQString@@PAVuser@@U?$less@VQString@@@std@@V?$allocator@U?$pair@$$CBVQString@@PAVuser@@@std@@@4@$0A@@std@@@std@@QAE?AV?$_Tree_iterator@V?$_Tree_val@U?$_Tree_simple_types@U?$pair@$$CBVQString@@PAVuser@@@std@@@std@@@std@@@2@ABVQString@@@Z 004746c0 f i users.obj
 0001:000738d0       ?lower_bound@?$_Tree@V?$_Tmap_traits@VQString@@PAVuser@@U?$less@VQString@@@std@@V?$allocator@U?$pair@$$CBVQString@@PAVuser@@@std@@@4@$0A@@std@@@std@@QAE?AV?$_Tree_iterator@V?$_Tree_val@U?$_Tree_simple_types@U?$pair@$$CBVQString@@PAVuser@@@std@@@std@@@std@@@2@ABVQString@@@Z 004748d0 f i users.obj
 0001:00073920       ?max_size@?$_Tree@V?$_Tmap_traits@VQString@@PAVuser@@U?$less@VQString@@@std@@V?$allocator@U?$pair@$$CBVQString@@PAVuser@@@std@@@4@$0A@@std@@@std@@QBEIXZ 00474920 f i users.obj
 0001:00073950       ?max_size@?$_Wrap_alloc@V?$allocator@U?$_List_node@PAVuser@@PAX@std@@@std@@@std@@QBEIXZ 00474950 f i users.obj
 0001:00073970       ?max_size@?$_Wrap_alloc@V?$allocator@U?$_Tree_node@U?$pair@$$CBVQString@@PAVuser@@@std@@PAX@std@@@std@@@std@@QBEIXZ 00474970 f i users.obj
 0001:00073990       ?max_size@?$allocator@U?$_List_node@PAVuser@@PAX@std@@@std@@QBEIXZ 00474990 f i users.obj
 0001:000739b0       ?max_size@?$allocator@U?$_Tree_node@U?$pair@$$CBVQString@@PAVuser@@@std@@PAX@std@@@std@@QBEIXZ 004749b0 f i users.obj
 0001:000739d0       ?max_size@?$allocator_traits@V?$allocator@U?$_List_node@PAVuser@@PAX@std@@@std@@@std@@SAIABV?$allocator@U?$_List_node@PAVuser@@PAX@std@@@2@@Z 004749d0 f i users.obj
 0001:000739e0       ?max_size@?$allocator_traits@V?$allocator@U?$_Tree_node@U?$pair@$$CBVQString@@PAVuser@@@std@@PAX@std@@@std@@@std@@SAIABV?$allocator@U?$_Tree_node@U?$pair@$$CBVQString@@PAVuser@@@std@@PAX@std@@@2@@Z 004749e0 f i users.obj
 0001:000739f0       ?max_size@?$list@PAVuser@@V?$allocator@PAVuser@@@std@@@std@@QBEIXZ 004749f0 f i users.obj
 0001:00073a20       ?pointer_to@?$pointer_traits@PAU?$pair@$$CBVQString@@PAVuser@@@std@@@std@@SAPAU?$pair@$$CBVQString@@PAVuser@@@2@AAU32@@Z 00474a20 f i users.obj
 0001:00073a40       ?pointer_to@?$pointer_traits@PBU?$pair@$$CBVQString@@PAVuser@@@std@@@std@@SAPBU?$pair@$$CBVQString@@PAVuser@@@2@ABU32@@Z 00474a40 f i users.obj
 0001:00073a60       ?push_back@?$list@PAVuser@@V?$allocator@PAVuser@@@std@@@std@@QAEXABQAVuser@@@Z 00474a60 f i users.obj
 0001:00073aa0       ?size@?$_Tree@V?$_Tmap_traits@VQString@@PAVuser@@U?$less@VQString@@@std@@V?$allocator@U?$pair@$$CBVQString@@PAVuser@@@std@@@4@$0A@@std@@@std@@QBEIXZ 00474aa0 f i users.obj
 0001:000743c0       ??0whiteBlackListEditDialog@@QAE@PAV?$set@VQString@@U?$less@VQString@@@std@@V?$allocator@VQString@@@3@@std@@0@Z 004753c0 f   whiteBlackListEditDialog.obj
 0001:00074580       ??1whiteBlackListEditDialog@@UAE@XZ 00475580 f   whiteBlackListEditDialog.obj
 0001:000745b0       ?accept@whiteBlackListEditDialog@@UAEXXZ 004755b0 f   whiteBlackListEditDialog.obj
 0001:00074f40       ?validateIpEntries@whiteBlackListEditDialog@@AAE?AVQString@@PAVQTextEdit@@@Z 00475f40 f   whiteBlackListEditDialog.obj
 0001:0007569c       ??_EwhiteBlackListEditDialog@@W7AEPAXI@Z 0047669c f i whiteBlackListEditDialog.obj
 0001:000756b0       ??_EwhiteBlackListEditDialog@@UAEPAXI@Z 004766b0 f i whiteBlackListEditDialog.obj
 0001:000756b0       ??_GwhiteBlackListEditDialog@@UAEPAXI@Z 004766b0 f i whiteBlackListEditDialog.obj
 0001:000756f0       ?retranslateUi@Ui_whiteBlackListEdit@@QAEXPAVQDialog@@@Z 004766f0 f i whiteBlackListEditDialog.obj
 0001:00075a30       ?setupUi@Ui_whiteBlackListEdit@@QAEXPAVQDialog@@@Z 00476a30 f i whiteBlackListEditDialog.obj
 0001:00077176       _GetFileVersionInfoSizeA@8 00478176 f   version:VERSION.dll
 0001:0007717c       _GetFileVersionInfoA@16    0047817c f   version:VERSION.dll
 0001:00077182       _VerQueryValueA@16         00478182 f   version:VERSION.dll
 0001:00077188       ??0QChar@@QAE@UQLatin1Char@@@Z 00478188 f   Qt5Cored:Qt5Cored.dll
 0001:0007718e       ??1QByteArray@@QAE@XZ      0047818e f   Qt5Cored:Qt5Cored.dll
 0001:00077194       ??BQByteArray@@QBEPBDXZ    00478194 f   Qt5Cored:Qt5Cored.dll
 0001:0007719a       ??0QString@@QAE@XZ         0047819a f   Qt5Cored:Qt5Cored.dll
 0001:000771a0       ??0QString@@QAE@ABV0@@Z    004781a0 f   Qt5Cored:Qt5Cored.dll
 0001:000771a6       ??1QString@@QAE@XZ         004781a6 f   Qt5Cored:Qt5Cored.dll
 0001:000771ac       ??4QString@@QAEAAV0@ABV0@@Z 004781ac f   Qt5Cored:Qt5Cored.dll
 0001:000771b2       ??0QString@@QAE@$$QAV0@@Z  004781b2 f   Qt5Cored:Qt5Cored.dll
 0001:000771b8       ??4QString@@QAEAAV0@$$QAV0@@Z 004781b8 f   Qt5Cored:Qt5Cored.dll
 0001:000771be       ?length@QString@@QBEHXZ    004781be f   Qt5Cored:Qt5Cored.dll
 0001:000771c4       ?arg@QString@@QBE?AV1@ABV1@HVQChar@@@Z 004781c4 f   Qt5Cored:Qt5Cored.dll
 0001:000771ca       ??YQString@@QAEAAV0@ABV0@@Z 004781ca f   Qt5Cored:Qt5Cored.dll
 0001:000771d0       ?toLatin1@QString@@QBE?AVQByteArray@@XZ 004781d0 f   Qt5Cored:Qt5Cored.dll
 0001:000771d6       ?fromUtf8@QString@@SA?AV1@PBDH@Z 004781d6 f   Qt5Cored:Qt5Cored.dll
 0001:000771dc       ??0QString@@QAE@PBD@Z      004781dc f   Qt5Cored:Qt5Cored.dll
 0001:000771e2       ??4QString@@QAEAAV0@PBD@Z  004781e2 f   Qt5Cored:Qt5Cored.dll
 0001:000771e8       ??1QDateTime@@QAE@XZ       004781e8 f   Qt5Cored:Qt5Cored.dll
 0001:000771ee       ?toString@QDateTime@@QBE?AVQString@@ABV2@@Z 004781ee f   Qt5Cored:Qt5Cored.dll
 0001:000771f4       ?currentDateTime@QDateTime@@SA?AV1@XZ 004781f4 f   Qt5Cored:Qt5Cored.dll
 0001:000771fa       ??0QDir@@QAE@ABVQString@@@Z 004781fa f   Qt5Cored:Qt5Cored.dll
 0001:00077200       ??1QDir@@QAE@XZ            00478200 f   Qt5Cored:Qt5Cored.dll
 0001:00077206       ?mkdir@QDir@@QBE_NABVQString@@@Z 00478206 f   Qt5Cored:Qt5Cored.dll
 0001:0007720c       ?exists@QDir@@QBE_NXZ      0047820c f   Qt5Cored:Qt5Cored.dll
 0001:00077212       ?qt_assert_x@@YAXPBD00H@Z  00478212 f   Qt5Cored:Qt5Cored.dll
 0001:00077218       ??0QMessageLogger@@QAE@PBDH0@Z 00478218 f   Qt5Cored:Qt5Cored.dll
 0001:0007721e       ?debug@QMessageLogger@@QBAXPBDZZ 0047821e f   Qt5Cored:Qt5Cored.dll
 0001:00077224       ??0QChar@@QAE@H@Z          00478224 f   Qt5Cored:Qt5Cored.dll
 0001:0007722a       ?arg@QString@@QBE?AV1@HHHVQChar@@@Z 0047822a f   Qt5Cored:Qt5Cored.dll
 0001:00077230       ?arg@QString@@QBE?AV1@IHHVQChar@@@Z 00478230 f   Qt5Cored:Qt5Cored.dll
 0001:00077236       ?split@QString@@QBE?AVQStringList@@VQChar@@W4SplitBehavior@1@W4CaseSensitivity@Qt@@@Z 00478236 f   Qt5Cored:Qt5Cored.dll
 0001:0007723c       ?toUInt@QString@@QBEIPA_NH@Z 0047823c f   Qt5Cored:Qt5Cored.dll
 0001:00077242       ?detach@QListData@@QAEPAUData@1@H@Z 00478242 f   Qt5Cored:Qt5Cored.dll
 0001:00077248       ?dispose@QListData@@QAEXXZ 00478248 f   Qt5Cored:Qt5Cored.dll
 0001:0007724e       ?dispose@QListData@@SAXPAUData@1@@Z 0047824e f   Qt5Cored:Qt5Cored.dll
 0001:00077254       ?size@QListData@@QBEHXZ    00478254 f   Qt5Cored:Qt5Cored.dll
 0001:0007725a       ?at@QListData@@QBEPAPAXH@Z 0047825a f   Qt5Cored:Qt5Cored.dll
 0001:00077260       ?begin@QListData@@QBEPAPAXXZ 00478260 f   Qt5Cored:Qt5Cored.dll
 0001:00077266       ?end@QListData@@QBEPAPAXXZ 00478266 f   Qt5Cored:Qt5Cored.dll
 0001:0007726c       ?qFlagLocation@@YAPBDPBD@Z 0047826c f   Qt5Cored:Qt5Cored.dll
 0001:00077272       ??1Connection@QMetaObject@@QAE@XZ 00478272 f   Qt5Cored:Qt5Cored.dll
 0001:00077278       ??8@YA_NABVQString@@0@Z    00478278 f   Qt5Cored:Qt5Cored.dll
 0001:0007727e       ?connect@QObject@@SA?AVConnection@QMetaObject@@PBV1@PBD01W4ConnectionType@Qt@@@Z 0047827e f   Qt5Cored:Qt5Cored.dll
 0001:00077284       ?deleteLater@QObject@@QAEXXZ 00478284 f   Qt5Cored:Qt5Cored.dll
 0001:0007728a       ?sender@QObject@@IBEPAV1@XZ 0047828a f   Qt5Cored:Qt5Cored.dll
 0001:00077290       ?childEvent@QObject@@MAEXPAVQChildEvent@@@Z 00478290 f   Qt5Cored:Qt5Cored.dll
 0001:00077296       ?connectNotify@QObject@@MAEXABVQMetaMethod@@@Z 00478296 f   Qt5Cored:Qt5Cored.dll
 0001:0007729c       ?customEvent@QObject@@MAEXPAVQEvent@@@Z 0047829c f   Qt5Cored:Qt5Cored.dll
 0001:000772a2       ?disconnectNotify@QObject@@MAEXABVQMetaMethod@@@Z 004782a2 f   Qt5Cored:Qt5Cored.dll
 0001:000772a8       ?event@QObject@@UAE_NPAVQEvent@@@Z 004782a8 f   Qt5Cored:Qt5Cored.dll
 0001:000772ae       ?eventFilter@QObject@@UAE_NPAV1@PAVQEvent@@@Z 004782ae f   Qt5Cored:Qt5Cored.dll
 0001:000772b4       ?timerEvent@QObject@@MAEXPAVQTimerEvent@@@Z 004782b4 f   Qt5Cored:Qt5Cored.dll
 0001:000772ba       ?debug@QMessageLogger@@QBE?AVQDebug@@XZ 004782ba f   Qt5Cored:Qt5Cored.dll
 0001:000772c0       ??0QByteArray@@QAE@XZ      004782c0 f   Qt5Cored:Qt5Cored.dll
 0001:000772c6       ?constData@QString@@QBEPBVQChar@@XZ 004782c6 f   Qt5Cored:Qt5Cored.dll
 0001:000772cc       ??AQString@@QAE?AVQCharRef@@H@Z 004782cc f   Qt5Cored:Qt5Cored.dll
 0001:000772d2       ?arg@QString@@QBE?AV1@_KHHVQChar@@@Z 004782d2 f   Qt5Cored:Qt5Cored.dll
 0001:000772d8       ?arg@QString@@QBE?AV1@GHHVQChar@@@Z 004782d8 f   Qt5Cored:Qt5Cored.dll
 0001:000772de       ?arg@QString@@QBE?AV1@VQChar@@H0@Z 004782de f   Qt5Cored:Qt5Cored.dll
 0001:000772e4       ?right@QString@@QBE?AV1@H@Z 004782e4 f   Qt5Cored:Qt5Cored.dll
 0001:000772ea       ?startsWith@QString@@QBE_NABV1@W4CaseSensitivity@Qt@@@Z 004782ea f   Qt5Cored:Qt5Cored.dll
 0001:000772f0       ?toLower@QString@@QBE?AV1@XZ 004782f0 f   Qt5Cored:Qt5Cored.dll
 0001:000772f6       ?append@QString@@QAEAAV1@ABV1@@Z 004782f6 f   Qt5Cored:Qt5Cored.dll
 0001:000772fc       ?toLocal8Bit@QString@@QBE?AVQByteArray@@XZ 004782fc f   Qt5Cored:Qt5Cored.dll
 0001:00077302       ??8QString@@QBE_NPBD@Z     00478302 f   Qt5Cored:Qt5Cored.dll
 0001:00077308       ?toStdString@QString@@QBE?AV?$basic_string@DU?$char_traits@D@std@@V?$allocator@D@2@@std@@XZ 00478308 f   Qt5Cored:Qt5Cored.dll
 0001:0007730e       ??BQCharRef@@QBE?AVQChar@@XZ 0047830e f   Qt5Cored:Qt5Cored.dll
 0001:00077314       ?toLatin1@QCharRef@@QBEDXZ 00478314 f   Qt5Cored:Qt5Cored.dll
 0001:0007731a       ?detach_grow@QListData@@QAEPAUData@1@PAHH@Z 0047831a f   Qt5Cored:Qt5Cored.dll
 0001:00077320       ?append@QListData@@QAEPAPAXXZ 00478320 f   Qt5Cored:Qt5Cored.dll
 0001:00077326       ?QStringList_join@QtPrivate@@YA?AVQString@@PBVQStringList@@PBVQChar@@H@Z 00478326 f   Qt5Cored:Qt5Cored.dll
 0001:0007732c       ??0QObject@@QAE@PAV0@@Z    0047832c f   Qt5Cored:Qt5Cored.dll
 0001:00077332       ??1QObject@@UAE@XZ         00478332 f   Qt5Cored:Qt5Cored.dll
 0001:00077338       ?startTimer@QObject@@QAEHHW4TimerType@Qt@@@Z 00478338 f   Qt5Cored:Qt5Cored.dll
 0001:0007733e       ?read@QIODevice@@QAE_JPAD_J@Z 0047833e f   Qt5Cored:Qt5Cored.dll
 0001:00077344       ?write@QIODevice@@QAE_JPBD_J@Z 00478344 f   Qt5Cored:Qt5Cored.dll
 0001:0007734a       ?write@QIODevice@@QAE_JPBD@Z 0047834a f   Qt5Cored:Qt5Cored.dll
 0001:00077350       ?write@QIODevice@@QAE_JABVQByteArray@@@Z 00478350 f   Qt5Cored:Qt5Cored.dll
 0001:00077356       ??1QVariant@@QAE@XZ        00478356 f   Qt5Cored:Qt5Cored.dll
 0001:0007735c       ??0QVariant@@QAE@_N@Z      0047835c f   Qt5Cored:Qt5Cored.dll
 0001:00077362       ??1QDebug@@QAE@XZ          00478362 f   Qt5Cored:Qt5Cored.dll
 0001:00077368       ??6QDebug@@QAEAAV0@PBD@Z   00478368 f   Qt5Cored:Qt5Cored.dll
 0001:0007736e       ??6QDebug@@QAEAAV0@ABVQString@@@Z 0047836e f   Qt5Cored:Qt5Cored.dll
 0001:00077374       ?timerId@QTimerEvent@@QBEHXZ 00478374 f   Qt5Cored:Qt5Cored.dll
 0001:0007737a       ?close@QFileDevice@@UAEXXZ 0047837a f   Qt5Cored:Qt5Cored.dll
 0001:00077380       ??0QFile@@QAE@ABVQString@@@Z 00478380 f   Qt5Cored:Qt5Cored.dll
 0001:00077386       ??1QFile@@UAE@XZ           00478386 f   Qt5Cored:Qt5Cored.dll
 0001:0007738c       ?fileName@QFile@@UBE?AVQString@@XZ 0047838c f   Qt5Cored:Qt5Cored.dll
 0001:00077392       ?open@QFile@@UAE_NV?$QFlags@W4OpenModeFlag@QIODevice@@@@@Z 00478392 f   Qt5Cored:Qt5Cored.dll
 0001:00077398       ?open@QIODevice@@UAE_NV?$QFlags@W4OpenModeFlag@QIODevice@@@@@Z 00478398 f   Qt5Cored:Qt5Cored.dll
 0001:0007739e       ?pos@QIODevice@@UBE_JXZ    0047839e f   Qt5Cored:Qt5Cored.dll
 0001:000773a4       ?reset@QIODevice@@UAE_NXZ  004783a4 f   Qt5Cored:Qt5Cored.dll
 0001:000773aa       ?seek@QIODevice@@UAE_N_J@Z 004783aa f   Qt5Cored:Qt5Cored.dll
 0001:000773b0       ?size@QIODevice@@UBE_JXZ   004783b0 f   Qt5Cored:Qt5Cored.dll
 0001:000773b6       ?dynamicMetaObject@QObjectData@@QBEPAUQMetaObject@@XZ 004783b6 f   Qt5Cored:Qt5Cored.dll
 0001:000773bc       ?normalizedType@QMetaObject@@SA?AVQByteArray@@PBD@Z 004783bc f   Qt5Cored:Qt5Cored.dll
 0001:000773c2       ?activate@QMetaObject@@SAXPAVQObject@@PBU1@HPAPAX@Z 004783c2 f   Qt5Cored:Qt5Cored.dll
 0001:000773c8       ?size@QByteArray@@QBEHXZ   004783c8 f   Qt5Cored:Qt5Cored.dll
 0001:000773ce       ?constData@QByteArray@@QBEPBDXZ 004783ce f   Qt5Cored:Qt5Cored.dll
 0001:000773d4       ?registerNormalizedType@QMetaType@@SAHABVQByteArray@@P6AXPAX@ZP6APAX1PBX@ZHV?$QFlags@W4TypeFlag@QMetaType@@@@PBUQMetaObject@@@Z 004783d4 f   Qt5Cored:Qt5Cored.dll
 0001:000773da       ?registerNormalizedTypedef@QMetaType@@SAHABVQByteArray@@H@Z 004783da f   Qt5Cored:Qt5Cored.dll
 0001:000773e0       ?qt_metacast@QObject@@UAEPAXPBD@Z 004783e0 f   Qt5Cored:Qt5Cored.dll
 0001:000773e6       ?qt_metacall@QObject@@UAEHW4Call@QMetaObject@@HPAPAX@Z 004783e6 f   Qt5Cored:Qt5Cored.dll
 0001:000773ec       ?setLibraryPaths@QCoreApplication@@SAXABVQStringList@@@Z 004783ec f   Qt5Cored:Qt5Cored.dll
 0001:000773f2       ?qt_assert@@YAXPBD0H@Z     004783f2 f   Qt5Cored:Qt5Cored.dll
 0001:000773f8       ?connectSlotsByName@QMetaObject@@SAXPAVQObject@@@Z 004783f8 f   Qt5Cored:Qt5Cored.dll
 0001:000773fe       ??0QChar@@QAE@D@Z          004783fe f   Qt5Cored:Qt5Cored.dll
 0001:00077404       ?data@QByteArray@@QAEPADXZ 00478404 f   Qt5Cored:Qt5Cored.dll
 0001:0007740a       ?toHex@QByteArray@@QBE?AV1@XZ 0047840a f   Qt5Cored:Qt5Cored.dll
 0001:00077410       ?isEmpty@QString@@QBE_NXZ  00478410 f   Qt5Cored:Qt5Cored.dll
 0001:00077416       ?arg@QString@@QBE?AV1@DHVQChar@@@Z 00478416 f   Qt5Cored:Qt5Cored.dll
 0001:0007741c       ?replace@QString@@QAEAAV1@ABV1@0W4CaseSensitivity@Qt@@@Z 0047841c f   Qt5Cored:Qt5Cored.dll
 0001:00077422       ?split@QString@@QBE?AVQStringList@@ABV1@W4SplitBehavior@1@W4CaseSensitivity@Qt@@@Z 00478422 f   Qt5Cored:Qt5Cored.dll
 0001:00077428       ??M@YA_NABVQString@@0@Z    00478428 f   Qt5Cored:Qt5Cored.dll
 0001:0007742e       ??9QString@@QBE_NPBD@Z     0047842e f   Qt5Cored:Qt5Cored.dll
 0001:00077434       ??0QString@@QAE@UQStringDataPtr@@@Z 00478434 f   Qt5Cored:Qt5Cored.dll
 0001:0007743a       ?objectName@QObject@@QBE?AVQString@@XZ 0047843a f   Qt5Cored:Qt5Cored.dll
 0001:00077440       ?setObjectName@QObject@@QAEXABVQString@@@Z 00478440 f   Qt5Cored:Qt5Cored.dll
 0001:00077446       ?killTimer@QObject@@QAEXH@Z 00478446 f   Qt5Cored:Qt5Cored.dll
 0001:0007744c       ??0QSize@@QAE@HH@Z         0047844c f   Qt5Cored:Qt5Cored.dll
 0001:00077452       ??0QRect@@QAE@HHHH@Z       00478452 f   Qt5Cored:Qt5Cored.dll
 0001:00077458       ?arguments@QCoreApplication@@SA?AVQStringList@@XZ 00478458 f   Qt5Cored:Qt5Cored.dll
 0001:0007745e       ?translate@QCoreApplication@@SA?AVQString@@PBD00H@Z 0047845e f   Qt5Cored:Qt5Cored.dll
 0001:00077464       ??6QDebug@@QAEAAV0@H@Z     00478464 f   Qt5Cored:Qt5Cored.dll
 0001:0007746a       ??6QDebug@@QAEAAV0@I@Z     0047846a f   Qt5Cored:Qt5Cored.dll
 0001:00077470       ??0QCryptographicHash@@QAE@W4Algorithm@0@@Z 00478470 f   Qt5Cored:Qt5Cored.dll
 0001:00077476       ??1QCryptographicHash@@QAE@XZ 00478476 f   Qt5Cored:Qt5Cored.dll
 0001:0007747c       ?addData@QCryptographicHash@@QAEXPBDH@Z 0047847c f   Qt5Cored:Qt5Cored.dll
 0001:00077482       ?result@QCryptographicHash@@QBE?AVQByteArray@@XZ 00478482 f   Qt5Cored:Qt5Cored.dll
 0001:00077488       ?toInt@QString@@QBEHPA_NH@Z 00478488 f   Qt5Cored:Qt5Cored.dll
 0001:0007748e       ?simplified@QString@@QBE?AV1@XZ 0047848e f   Qt5Cored:Qt5Cored.dll
 0001:00077494       ?contains@QString@@QBE_NABV1@W4CaseSensitivity@Qt@@@Z 00478494 f   Qt5Cored:Qt5Cored.dll
 0001:0007749a       ?fromStdString@QString@@SA?AV1@ABV?$basic_string@DU?$char_traits@D@std@@V?$allocator@D@2@@std@@@Z 0047849a f   Qt5Cored:Qt5Cored.dll
 0001:000774a0       ??YQString@@QAEAAV0@PBD@Z  004784a0 f   Qt5Cored:Qt5Cored.dll
 0001:000774a6       ?setMaximumBlockCount@QTextDocument@@QAEXH@Z 004784a6 f   Qt5Guid:Qt5Guid.dll
 0001:000774ac       ??0QPixmap@@QAE@QBQBD@Z    004784ac f   Qt5Guid:Qt5Guid.dll
 0001:000774b2       ??1QPixmap@@UAE@XZ         004784b2 f   Qt5Guid:Qt5Guid.dll
 0001:000774b8       ??0QKeySequence@@QAE@ABVQString@@W4SequenceFormat@0@@Z 004784b8 f   Qt5Guid:Qt5Guid.dll
 0001:000774be       ??1QKeySequence@@QAE@XZ    004784be f   Qt5Guid:Qt5Guid.dll
 0001:000774c4       ??0QIcon@@QAE@ABVQPixmap@@@Z 004784c4 f   Qt5Guid:Qt5Guid.dll
 0001:000774ca       ??1QIcon@@QAE@XZ           004784ca f   Qt5Guid:Qt5Guid.dll
 0001:000774d0       ?clone@QTextDocument@@QBEPAV1@PAVQObject@@@Z 004784d0 f   Qt5Guid:Qt5Guid.dll
 0001:000774d6       ?begin@QTextDocument@@QBE?AVQTextBlock@@XZ 004784d6 f   Qt5Guid:Qt5Guid.dll
 0001:000774dc       ?end@QTextDocument@@QBE?AVQTextBlock@@XZ 004784dc f   Qt5Guid:Qt5Guid.dll
 0001:000774e2       ??4QTextBlock@@QAEAAV0@ABV0@@Z 004784e2 f   Qt5Guid:Qt5Guid.dll
 0001:000774e8       ??9QTextBlock@@QBE_NABV0@@Z 004784e8 f   Qt5Guid:Qt5Guid.dll
 0001:000774ee       ?text@QTextBlock@@QBE?AVQString@@XZ 004784ee f   Qt5Guid:Qt5Guid.dll
 0001:000774f4       ?next@QTextBlock@@QBE?AV1@XZ 004784f4 f   Qt5Guid:Qt5Guid.dll
 0001:000774fa       ??1QHostAddress@@QAE@XZ    004784fa f   Qt5Networkd:Qt5Networkd.dll
 0001:00077500       ?toString@QHostAddress@@QBE?AVQString@@XZ 00478500 f   Qt5Networkd:Qt5Networkd.dll
 0001:00077506       ?isInSubnet@QHostAddress@@QBE_NABU?$QPair@VQHostAddress@@H@@@Z 00478506 f   Qt5Networkd:Qt5Networkd.dll
 0001:0007750c       ?parseSubnet@QHostAddress@@SA?AU?$QPair@VQHostAddress@@H@@ABVQString@@@Z 0047850c f   Qt5Networkd:Qt5Networkd.dll
 0001:00077512       ??0QTcpServer@@QAE@PAVQObject@@@Z 00478512 f   Qt5Networkd:Qt5Networkd.dll
 0001:00077518       ??1QTcpServer@@UAE@XZ      00478518 f   Qt5Networkd:Qt5Networkd.dll
 0001:0007751e       ?listen@QTcpServer@@QAE_NABVQHostAddress@@G@Z 0047851e f   Qt5Networkd:Qt5Networkd.dll
 0001:00077524       ?errorString@QTcpServer@@QBE?AVQString@@XZ 00478524 f   Qt5Networkd:Qt5Networkd.dll
 0001:0007752a       ?setProxy@QTcpServer@@QAEXABVQNetworkProxy@@@Z 0047852a f   Qt5Networkd:Qt5Networkd.dll
 0001:00077530       ??0QNetworkProxy@@QAE@W4ProxyType@0@ABVQString@@G11@Z 00478530 f   Qt5Networkd:Qt5Networkd.dll
 0001:00077536       ??1QNetworkProxy@@QAE@XZ   00478536 f   Qt5Networkd:Qt5Networkd.dll
 0001:0007753c       ?hasPendingConnections@QTcpServer@@UBE_NXZ 0047853c f   Qt5Networkd:Qt5Networkd.dll
 0001:00077542       ?nextPendingConnection@QTcpServer@@UAEPAVQTcpSocket@@XZ 00478542 f   Qt5Networkd:Qt5Networkd.dll
 0001:00077548       ?localPort@QAbstractSocket@@QBEGXZ 00478548 f   Qt5Networkd:Qt5Networkd.dll
 0001:0007754e       ?peerPort@QAbstractSocket@@QBEGXZ 0047854e f   Qt5Networkd:Qt5Networkd.dll
 0001:00077554       ?peerAddress@QAbstractSocket@@QBE?AVQHostAddress@@XZ 00478554 f   Qt5Networkd:Qt5Networkd.dll
 0001:0007755a       ??0QSslCertificate@@QAE@PAVQIODevice@@W4EncodingFormat@QSsl@@@Z 0047855a f   Qt5Networkd:Qt5Networkd.dll
 0001:00077560       ??1QSslCertificate@@QAE@XZ 00478560 f   Qt5Networkd:Qt5Networkd.dll
 0001:00077566       ?isNull@QSslCertificate@@QBE_NXZ 00478566 f   Qt5Networkd:Qt5Networkd.dll
 0001:0007756c       ?issuerInfo@QSslCertificate@@QBE?AVQStringList@@W4SubjectInfo@1@@Z 0047856c f   Qt5Networkd:Qt5Networkd.dll
 0001:00077572       ??0QSslError@@QAE@ABV0@@Z  00478572 f   Qt5Networkd:Qt5Networkd.dll
 0001:00077578       ??1QSslError@@QAE@XZ       00478578 f   Qt5Networkd:Qt5Networkd.dll
 0001:0007757e       ?errorString@QSslError@@QBE?AVQString@@XZ 0047857e f   Qt5Networkd:Qt5Networkd.dll
 0001:00077584       ??0QSslSocket@@QAE@PAVQObject@@@Z 00478584 f   Qt5Networkd:Qt5Networkd.dll
 0001:0007758a       ??1QSslSocket@@UAE@XZ      0047858a f   Qt5Networkd:Qt5Networkd.dll
 0001:00077590       ?protocol@QSslSocket@@QBE?AW4SslProtocol@QSsl@@XZ 00478590 f   Qt5Networkd:Qt5Networkd.dll
 0001:00077596       ?setSslConfiguration@QSslSocket@@QAEXABVQSslConfiguration@@@Z 00478596 f   Qt5Networkd:Qt5Networkd.dll
 0001:0007759c       ?localCertificate@QSslSocket@@QBE?AVQSslCertificate@@XZ 0047859c f   Qt5Networkd:Qt5Networkd.dll
 0001:000775a2       ?sessionCipher@QSslSocket@@QBE?AVQSslCipher@@XZ 004785a2 f   Qt5Networkd:Qt5Networkd.dll
 0001:000775a8       ?privateKey@QSslSocket@@QBE?AVQSslKey@@XZ 004785a8 f   Qt5Networkd:Qt5Networkd.dll
 0001:000775ae       ?startServerEncryption@QSslSocket@@QAEXXZ 004785ae f   Qt5Networkd:Qt5Networkd.dll
 0001:000775b4       ??0QHostAddress@@QAE@XZ    004785b4 f   Qt5Networkd:Qt5Networkd.dll
 0001:000775ba       ??4QHostAddress@@QAEAAV0@$$QAV0@@Z 004785ba f   Qt5Networkd:Qt5Networkd.dll
 0001:000775c0       ??0QSslKey@@QAE@PAVQIODevice@@W4KeyAlgorithm@QSsl@@W4EncodingFormat@3@W4KeyType@3@ABVQByteArray@@@Z 004785c0 f   Qt5Networkd:Qt5Networkd.dll
 0001:000775c6       ??1QSslKey@@QAE@XZ         004785c6 f   Qt5Networkd:Qt5Networkd.dll
 0001:000775cc       ?isNull@QSslKey@@QBE_NXZ   004785cc f   Qt5Networkd:Qt5Networkd.dll
 0001:000775d2       ??0QSslConfiguration@@QAE@XZ 004785d2 f   Qt5Networkd:Qt5Networkd.dll
 0001:000775d8       ??1QSslConfiguration@@QAE@XZ 004785d8 f   Qt5Networkd:Qt5Networkd.dll
 0001:000775de       ?setProtocol@QSslConfiguration@@QAEXW4SslProtocol@QSsl@@@Z 004785de f   Qt5Networkd:Qt5Networkd.dll
 0001:000775e4       ?setPeerVerifyMode@QSslConfiguration@@QAEXW4PeerVerifyMode@QSslSocket@@@Z 004785e4 f   Qt5Networkd:Qt5Networkd.dll
 0001:000775ea       ?setLocalCertificate@QSslConfiguration@@QAEXABVQSslCertificate@@@Z 004785ea f   Qt5Networkd:Qt5Networkd.dll
 0001:000775f0       ?setPrivateKey@QSslConfiguration@@QAEXABVQSslKey@@@Z 004785f0 f   Qt5Networkd:Qt5Networkd.dll
 0001:000775f6       ??1QSslCipher@@QAE@XZ      004785f6 f   Qt5Networkd:Qt5Networkd.dll
 0001:000775fc       ?name@QSslCipher@@QBE?AVQString@@XZ 004785fc f   Qt5Networkd:Qt5Networkd.dll
 0001:00077602       ?atEnd@QSslSocket@@UBE_NXZ 00478602 f   Qt5Networkd:Qt5Networkd.dll
 0001:00077608       ?bytesAvailable@QSslSocket@@UBE_JXZ 00478608 f   Qt5Networkd:Qt5Networkd.dll
 0001:0007760e       ?bytesToWrite@QSslSocket@@UBE_JXZ 0047860e f   Qt5Networkd:Qt5Networkd.dll
 0001:00077614       ?canReadLine@QSslSocket@@UBE_NXZ 00478614 f   Qt5Networkd:Qt5Networkd.dll
 0001:0007761a       ?close@QSslSocket@@UAEXXZ  0047861a f   Qt5Networkd:Qt5Networkd.dll
 0001:00077620       ?connectToHost@QAbstractSocket@@UAEXABVQHostAddress@@GV?$QFlags@W4OpenModeFlag@QIODevice@@@@@Z 00478620 f   Qt5Networkd:Qt5Networkd.dll
 0001:00077626       ?connectToHost@QSslSocket@@UAEXABVQString@@GV?$QFlags@W4OpenModeFlag@QIODevice@@@@W4NetworkLayerProtocol@QAbstractSocket@@@Z 00478626 f   Qt5Networkd:Qt5Networkd.dll
 0001:0007762c       ?disconnectFromHost@QSslSocket@@UAEXXZ 0047862c f   Qt5Networkd:Qt5Networkd.dll
 0001:00077632       ?isSequential@QAbstractSocket@@UBE_NXZ 00478632 f   Qt5Networkd:Qt5Networkd.dll
 0001:00077638       ?metaObject@QSslSocket@@UBEPBUQMetaObject@@XZ 00478638 f   Qt5Networkd:Qt5Networkd.dll
 0001:0007763e       ?qt_metacall@QSslSocket@@UAEHW4Call@QMetaObject@@HPAPAX@Z 0047863e f   Qt5Networkd:Qt5Networkd.dll
 0001:00077644       ?qt_metacast@QSslSocket@@UAEPAXPBD@Z 00478644 f   Qt5Networkd:Qt5Networkd.dll
 0001:0007764a       ?readData@QSslSocket@@MAE_JPAD_J@Z 0047864a f   Qt5Networkd:Qt5Networkd.dll
 0001:00077650       ?readLineData@QAbstractSocket@@MAE_JPAD_J@Z 00478650 f   Qt5Networkd:Qt5Networkd.dll
 0001:00077656       ?resume@QSslSocket@@UAEXXZ 00478656 f   Qt5Networkd:Qt5Networkd.dll
 0001:0007765c       ?setReadBufferSize@QSslSocket@@UAEX_J@Z 0047865c f   Qt5Networkd:Qt5Networkd.dll
 0001:00077662       ?setSocketDescriptor@QSslSocket@@UAE_NHW4SocketState@QAbstractSocket@@V?$QFlags@W4OpenModeFlag@QIODevice@@@@@Z 00478662 f   Qt5Networkd:Qt5Networkd.dll
 0001:00077668       ?setSocketOption@QSslSocket@@UAEXW4SocketOption@QAbstractSocket@@ABVQVariant@@@Z 00478668 f   Qt5Networkd:Qt5Networkd.dll
 0001:0007766e       ?socketDescriptor@QAbstractSocket@@UBEHXZ 0047866e f   Qt5Networkd:Qt5Networkd.dll
 0001:00077674       ?socketOption@QSslSocket@@UAE?AVQVariant@@W4SocketOption@QAbstractSocket@@@Z 00478674 f   Qt5Networkd:Qt5Networkd.dll
 0001:0007767a       ?waitForBytesWritten@QSslSocket@@UAE_NH@Z 0047867a f   Qt5Networkd:Qt5Networkd.dll
 0001:00077680       ?waitForConnected@QSslSocket@@UAE_NH@Z 00478680 f   Qt5Networkd:Qt5Networkd.dll
 0001:00077686       ?waitForDisconnected@QSslSocket@@UAE_NH@Z 00478686 f   Qt5Networkd:Qt5Networkd.dll
 0001:0007768c       ?waitForReadyRead@QSslSocket@@UAE_NH@Z 0047868c f   Qt5Networkd:Qt5Networkd.dll
 0001:00077692       ?writeData@QSslSocket@@MAE_JPBD_J@Z 00478692 f   Qt5Networkd:Qt5Networkd.dll
 0001:00077698       ?qt_metacast@QTcpServer@@UAEPAXPBD@Z 00478698 f   Qt5Networkd:Qt5Networkd.dll
 0001:0007769e       ?qt_metacall@QTcpServer@@UAEHW4Call@QMetaObject@@HPAPAX@Z 0047869e f   Qt5Networkd:Qt5Networkd.dll
 0001:000776a4       ??0QHostAddress@@QAE@ABVQString@@@Z 004786a4 f   Qt5Networkd:Qt5Networkd.dll
 0001:000776aa       ?serverPort@QTcpServer@@QBEGXZ 004786aa f   Qt5Networkd:Qt5Networkd.dll
 0001:000776b0       ?setDefaultCiphers@QSslSocket@@SAXABV?$QList@VQSslCipher@@@@@Z 004786b0 f   Qt5Networkd:Qt5Networkd.dll
 0001:000776b6       ??0QSslCipher@@QAE@ABVQString@@@Z 004786b6 f   Qt5Networkd:Qt5Networkd.dll
 0001:000776bc       ??0QSslCipher@@QAE@ABV0@@Z 004786bc f   Qt5Networkd:Qt5Networkd.dll
 0001:000776c2       ?isNull@QSslCipher@@QBE_NXZ 004786c2 f   Qt5Networkd:Qt5Networkd.dll
 0001:000776c8       ?isNull@QHostAddress@@QBE_NXZ 004786c8 f   Qt5Networkd:Qt5Networkd.dll
 0001:000776ce       ?document@QTextEdit@@QBEPAVQTextDocument@@XZ 004786ce f   Qt5Widgetsd:Qt5Widgetsd.dll
 0001:000776d4       ?append@QTextEdit@@QAEXABVQString@@@Z 004786d4 f   Qt5Widgetsd:Qt5Widgetsd.dll
 0001:000776da       ??0QTreeWidgetItem@@QAE@H@Z 004786da f   Qt5Widgetsd:Qt5Widgetsd.dll
 0001:000776e0       ??1QTreeWidgetItem@@UAE@XZ 004786e0 f   Qt5Widgetsd:Qt5Widgetsd.dll
 0001:000776e6       ?setText@QTreeWidgetItem@@QAEXHABVQString@@@Z 004786e6 f   Qt5Widgetsd:Qt5Widgetsd.dll
 0001:000776ec       ??MQTreeWidgetItem@@UBE_NABV0@@Z 004786ec f   Qt5Widgetsd:Qt5Widgetsd.dll
 0001:000776f2       ?clone@QTreeWidgetItem@@UBEPAV1@XZ 004786f2 f   Qt5Widgetsd:Qt5Widgetsd.dll
 0001:000776f8       ?data@QTreeWidgetItem@@UBE?AVQVariant@@HH@Z 004786f8 f   Qt5Widgetsd:Qt5Widgetsd.dll
 0001:000776fe       ?read@QTreeWidgetItem@@UAEXAAVQDataStream@@@Z 004786fe f   Qt5Widgetsd:Qt5Widgetsd.dll
 0001:00077704       ?setData@QTreeWidgetItem@@UAEXHHABVQVariant@@@Z 00478704 f   Qt5Widgetsd:Qt5Widgetsd.dll
 0001:0007770a       ?write@QTreeWidgetItem@@UBEXAAVQDataStream@@@Z 0047870a f   Qt5Widgetsd:Qt5Widgetsd.dll
 0001:00077710       ?qt_metacast@QMainWindow@@UAEPAXPBD@Z 00478710 f   Qt5Widgetsd:Qt5Widgetsd.dll
 0001:00077716       ?qt_metacall@QMainWindow@@UAEHW4Call@QMetaObject@@HPAPAX@Z 00478716 f   Qt5Widgetsd:Qt5Widgetsd.dll
 0001:0007771c       ?qt_metacast@QDialog@@UAEPAXPBD@Z 0047871c f   Qt5Widgetsd:Qt5Widgetsd.dll
 0001:00077722       ?qt_metacall@QDialog@@UAEHW4Call@QMetaObject@@HPAPAX@Z 00478722 f   Qt5Widgetsd:Qt5Widgetsd.dll
 0001:00077728       ?show@QWidget@@QAEXXZ      00478728 f   Qt5Widgetsd:Qt5Widgetsd.dll
 0001:0007772e       ??0QApplication@@QAE@AAHPAPADH@Z 0047872e f   Qt5Widgetsd:Qt5Widgetsd.dll
 0001:00077734       ??1QApplication@@UAE@XZ    00478734 f   Qt5Widgetsd:Qt5Widgetsd.dll
 0001:0007773a       ?exec@QApplication@@SAHXZ  0047873a f   Qt5Widgetsd:Qt5Widgetsd.dll
 0001:00077740       ??0QSizePolicy@@QAE@W4Policy@0@0W4ControlType@0@@Z 00478740 f   Qt5Widgetsd:Qt5Widgetsd.dll
 0001:00077746       ?setHeightForWidth@QSizePolicy@@QAEX_N@Z 00478746 f   Qt5Widgetsd:Qt5Widgetsd.dll
 0001:0007774c       ?hasHeightForWidth@QSizePolicy@@QBE_NXZ 0047874c f   Qt5Widgetsd:Qt5Widgetsd.dll
 0001:00077752       ?setHorizontalStretch@QSizePolicy@@QAEXH@Z 00478752 f   Qt5Widgetsd:Qt5Widgetsd.dll
 0001:00077758       ?setVerticalStretch@QSizePolicy@@QAEXH@Z 00478758 f   Qt5Widgetsd:Qt5Widgetsd.dll
 0001:0007775e       ??0QWidget@@QAE@PAV0@V?$QFlags@W4WindowType@Qt@@@@@Z 0047875e f   Qt5Widgetsd:Qt5Widgetsd.dll
 0001:00077764       ??1QWidget@@UAE@XZ         00478764 f   Qt5Widgetsd:Qt5Widgetsd.dll
 0001:0007776a       ?winId@QWidget@@QBEIXZ     0047876a f   Qt5Widgetsd:Qt5Widgetsd.dll
 0001:00077770       ?setMaximumSize@QWidget@@QAEXABVQSize@@@Z 00478770 f   Qt5Widgetsd:Qt5Widgetsd.dll
 0001:00077776       ?mapToGlobal@QWidget@@QBE?AVQPoint@@ABV2@@Z 00478776 f   Qt5Widgetsd:Qt5Widgetsd.dll
 0001:0007777c       ?setWindowTitle@QWidget@@QAEXABVQString@@@Z 0047877c f   Qt5Widgetsd:Qt5Widgetsd.dll
 0001:00077782       ?setWindowIcon@QWidget@@QAEXABVQIcon@@@Z 00478782 f   Qt5Widgetsd:Qt5Widgetsd.dll
 0001:00077788       ?setContextMenuPolicy@QWidget@@QAEXW4ContextMenuPolicy@Qt@@@Z 00478788 f   Qt5Widgetsd:Qt5Widgetsd.dll
 0001:0007778e       ?close@QWidget@@QAE_NXZ    0047878e f   Qt5Widgetsd:Qt5Widgetsd.dll
 0001:00077794       ?resize@QWidget@@QAEXHH@Z  00478794 f   Qt5Widgetsd:Qt5Widgetsd.dll
 0001:0007779a       ?setGeometry@QWidget@@QAEXABVQRect@@@Z 0047879a f   Qt5Widgetsd:Qt5Widgetsd.dll
 0001:000777a0       ?sizePolicy@QWidget@@QBE?AVQSizePolicy@@XZ 004787a0 f   Qt5Widgetsd:Qt5Widgetsd.dll
 0001:000777a6       ?setSizePolicy@QWidget@@QAEXVQSizePolicy@@@Z 004787a6 f   Qt5Widgetsd:Qt5Widgetsd.dll
 0001:000777ac       ?addAction@QWidget@@QAEXPAVQAction@@@Z 004787ac f   Qt5Widgetsd:Qt5Widgetsd.dll
 0001:000777b2       ??0QMainWindow@@QAE@PAVQWidget@@V?$QFlags@W4WindowType@Qt@@@@@Z 004787b2 f   Qt5Widgetsd:Qt5Widgetsd.dll
 0001:000777b8       ??1QMainWindow@@UAE@XZ     004787b8 f   Qt5Widgetsd:Qt5Widgetsd.dll
 0001:000777be       ?setMenuBar@QMainWindow@@QAEXPAVQMenuBar@@@Z 004787be f   Qt5Widgetsd:Qt5Widgetsd.dll
 0001:000777c4       ?setStatusBar@QMainWindow@@QAEXPAVQStatusBar@@@Z 004787c4 f   Qt5Widgetsd:Qt5Widgetsd.dll
 0001:000777ca       ?setCentralWidget@QMainWindow@@QAEXPAVQWidget@@@Z 004787ca f   Qt5Widgetsd:Qt5Widgetsd.dll
 0001:000777d0       ?addToolBar@QMainWindow@@QAEXW4ToolBarArea@Qt@@PAVQToolBar@@@Z 004787d0 f   Qt5Widgetsd:Qt5Widgetsd.dll
 0001:000777d6       ??0QAction@@QAE@PAVQObject@@@Z 004787d6 f   Qt5Widgetsd:Qt5Widgetsd.dll
 0001:000777dc       ??1QAction@@UAE@XZ         004787dc f   Qt5Widgetsd:Qt5Widgetsd.dll
 0001:000777e2       ?setText@QAction@@QAEXABVQString@@@Z 004787e2 f   Qt5Widgetsd:Qt5Widgetsd.dll
 0001:000777e8       ?setShortcut@QAction@@QAEXABVQKeySequence@@@Z 004787e8 f   Qt5Widgetsd:Qt5Widgetsd.dll
 0001:000777ee       ?setCheckable@QAction@@QAEX_N@Z 004787ee f   Qt5Widgetsd:Qt5Widgetsd.dll
 0001:000777f4       ?setChecked@QAction@@QAEX_N@Z 004787f4 f   Qt5Widgetsd:Qt5Widgetsd.dll
 0001:000777fa       ??0QGroupBox@@QAE@PAVQWidget@@@Z 004787fa f   Qt5Widgetsd:Qt5Widgetsd.dll
 0001:00077800       ??1QGroupBox@@UAE@XZ       00478800 f   Qt5Widgetsd:Qt5Widgetsd.dll
 0001:00077806       ?setTitle@QGroupBox@@QAEXABVQString@@@Z 00478806 f   Qt5Widgetsd:Qt5Widgetsd.dll
 0001:0007780c       ??0QSpacerItem@@QAE@HHW4Policy@QSizePolicy@@0@Z 0047880c f   Qt5Widgetsd:Qt5Widgetsd.dll
 0001:00077812       ??1QSpacerItem@@UAE@XZ     00478812 f   Qt5Widgetsd:Qt5Widgetsd.dll
 0001:00077818       ?setContentsMargins@QLayout@@QAEXHHHH@Z 00478818 f   Qt5Widgetsd:Qt5Widgetsd.dll
 0001:0007781e       ?setSizeConstraint@QLayout@@QAEXW4SizeConstraint@1@@Z 0047881e f   Qt5Widgetsd:Qt5Widgetsd.dll
 0001:00077824       ?addWidget@QBoxLayout@@QAEXPAVQWidget@@HV?$QFlags@W4AlignmentFlag@Qt@@@@@Z 00478824 f   Qt5Widgetsd:Qt5Widgetsd.dll
 0001:0007782a       ?addLayout@QBoxLayout@@QAEXPAVQLayout@@H@Z 0047882a f   Qt5Widgetsd:Qt5Widgetsd.dll
 0001:00077830       ?setSpacing@QBoxLayout@@QAEXH@Z 00478830 f   Qt5Widgetsd:Qt5Widgetsd.dll
 0001:00077836       ??0QHBoxLayout@@QAE@XZ     00478836 f   Qt5Widgetsd:Qt5Widgetsd.dll
 0001:0007783c       ??1QHBoxLayout@@UAE@XZ     0047883c f   Qt5Widgetsd:Qt5Widgetsd.dll
 0001:00077842       ??0QVBoxLayout@@QAE@PAVQWidget@@@Z 00478842 f   Qt5Widgetsd:Qt5Widgetsd.dll
 0001:00077848       ??1QVBoxLayout@@UAE@XZ     00478848 f   Qt5Widgetsd:Qt5Widgetsd.dll
 0001:0007784e       ?setSectionResizeMode@QHeaderView@@QAEXW4ResizeMode@1@@Z 0047884e f   Qt5Widgetsd:Qt5Widgetsd.dll
 0001:00077854       ??0QListWidgetItem@@QAE@ABVQString@@PAVQListWidget@@H@Z 00478854 f   Qt5Widgetsd:Qt5Widgetsd.dll
 0001:0007785a       ??1QListWidgetItem@@UAE@XZ 0047885a f   Qt5Widgetsd:Qt5Widgetsd.dll
 0001:00077860       ??0QListWidget@@QAE@PAVQWidget@@@Z 00478860 f   Qt5Widgetsd:Qt5Widgetsd.dll
 0001:00077866       ??1QListWidget@@UAE@XZ     00478866 f   Qt5Widgetsd:Qt5Widgetsd.dll
 0001:0007786c       ?addItem@QListWidget@@QAEXPAVQListWidgetItem@@@Z 0047886c f   Qt5Widgetsd:Qt5Widgetsd.dll
 0001:00077872       ??0QMenu@@QAE@PAVQWidget@@@Z 00478872 f   Qt5Widgetsd:Qt5Widgetsd.dll
 0001:00077878       ??1QMenu@@UAE@XZ           00478878 f   Qt5Widgetsd:Qt5Widgetsd.dll
 0001:0007787e       ?addAction@QMenu@@QAEPAVQAction@@ABVQString@@@Z 0047887e f   Qt5Widgetsd:Qt5Widgetsd.dll
 0001:00077884       ?exec@QMenu@@QAEPAVQAction@@ABVQPoint@@PAV2@@Z 00478884 f   Qt5Widgetsd:Qt5Widgetsd.dll
 0001:0007788a       ?menuAction@QMenu@@QBEPAVQAction@@XZ 0047888a f   Qt5Widgetsd:Qt5Widgetsd.dll
 0001:00077890       ?setTitle@QMenu@@QAEXABVQString@@@Z 00478890 f   Qt5Widgetsd:Qt5Widgetsd.dll
 0001:00077896       ??0QMenuBar@@QAE@PAVQWidget@@@Z 00478896 f   Qt5Widgetsd:Qt5Widgetsd.dll
 0001:0007789c       ??1QMenuBar@@UAE@XZ        0047889c f   Qt5Widgetsd:Qt5Widgetsd.dll
 0001:000778a2       ?setText@QAbstractButton@@QAEXABVQString@@@Z 004788a2 f   Qt5Widgetsd:Qt5Widgetsd.dll
 0001:000778a8       ??0QPushButton@@QAE@PAVQWidget@@@Z 004788a8 f   Qt5Widgetsd:Qt5Widgetsd.dll
 0001:000778ae       ??1QPushButton@@UAE@XZ     004788ae f   Qt5Widgetsd:Qt5Widgetsd.dll
 0001:000778b4       ??0QSplitter@@QAE@PAVQWidget@@@Z 004788b4 f   Qt5Widgetsd:Qt5Widgetsd.dll
 0001:000778ba       ??1QSplitter@@UAE@XZ       004788ba f   Qt5Widgetsd:Qt5Widgetsd.dll
 0001:000778c0       ?addWidget@QSplitter@@QAEXPAVQWidget@@@Z 004788c0 f   Qt5Widgetsd:Qt5Widgetsd.dll
 0001:000778c6       ?setOrientation@QSplitter@@QAEXW4Orientation@Qt@@@Z 004788c6 f   Qt5Widgetsd:Qt5Widgetsd.dll
 0001:000778cc       ??0QStatusBar@@QAE@PAVQWidget@@@Z 004788cc f   Qt5Widgetsd:Qt5Widgetsd.dll
 0001:000778d2       ??1QStatusBar@@UAE@XZ      004788d2 f   Qt5Widgetsd:Qt5Widgetsd.dll
 0001:000778d8       ??0QTextEdit@@QAE@PAVQWidget@@@Z 004788d8 f   Qt5Widgetsd:Qt5Widgetsd.dll
 0001:000778de       ??1QTextEdit@@UAE@XZ       004788de f   Qt5Widgetsd:Qt5Widgetsd.dll
 0001:000778e4       ?setReadOnly@QTextEdit@@QAEX_N@Z 004788e4 f   Qt5Widgetsd:Qt5Widgetsd.dll
 0001:000778ea       ??0QToolBar@@QAE@PAVQWidget@@@Z 004788ea f   Qt5Widgetsd:Qt5Widgetsd.dll
 0001:000778f0       ??1QToolBar@@UAE@XZ        004788f0 f   Qt5Widgetsd:Qt5Widgetsd.dll
 0001:000778f6       ?header@QTreeView@@QBEPAVQHeaderView@@XZ 004788f6 f   Qt5Widgetsd:Qt5Widgetsd.dll
 0001:000778fc       ??0QTreeWidget@@QAE@PAVQWidget@@@Z 004788fc f   Qt5Widgetsd:Qt5Widgetsd.dll
 0001:00077902       ??1QTreeWidget@@UAE@XZ     00478902 f   Qt5Widgetsd:Qt5Widgetsd.dll
 0001:00077908       ?addTopLevelItem@QTreeWidget@@QAEXPAVQTreeWidgetItem@@@Z 00478908 f   Qt5Widgetsd:Qt5Widgetsd.dll
 0001:0007790e       ?headerItem@QTreeWidget@@QBEPAVQTreeWidgetItem@@XZ 0047890e f   Qt5Widgetsd:Qt5Widgetsd.dll
 0001:00077914       ?itemAt@QTreeWidget@@QBEPAVQTreeWidgetItem@@ABVQPoint@@@Z 00478914 f   Qt5Widgetsd:Qt5Widgetsd.dll
 0001:0007791a       ?exec@QDialog@@UAEHXZ      0047891a f   Qt5Widgetsd:Qt5Widgetsd.dll
 0001:00077920       ?information@QMessageBox@@SA?AW4StandardButton@1@PAVQWidget@@ABVQString@@1V?$QFlags@W4StandardButton@QMessageBox@@@@W421@@Z 00478920 f   Qt5Widgetsd:Qt5Widgetsd.dll
 0001:00077926       ?critical@QMessageBox@@SA?AW4StandardButton@1@PAVQWidget@@ABVQString@@1V?$QFlags@W4StandardButton@QMessageBox@@@@W421@@Z 00478926 f   Qt5Widgetsd:Qt5Widgetsd.dll
 0001:0007792c       ??MQListWidgetItem@@UBE_NABV0@@Z 0047892c f   Qt5Widgetsd:Qt5Widgetsd.dll
 0001:00077932       ?actionEvent@QMenu@@MAEXPAVQActionEvent@@@Z 00478932 f   Qt5Widgetsd:Qt5Widgetsd.dll
 0001:00077938       ?actionEvent@QMenuBar@@MAEXPAVQActionEvent@@@Z 00478938 f   Qt5Widgetsd:Qt5Widgetsd.dll
 0001:0007793e       ?actionEvent@QToolBar@@MAEXPAVQActionEvent@@@Z 0047893e f   Qt5Widgetsd:Qt5Widgetsd.dll
 0001:00077944       ?actionEvent@QWidget@@MAEXPAVQActionEvent@@@Z 00478944 f   Qt5Widgetsd:Qt5Widgetsd.dll
 0001:0007794a       ?addItem@QBoxLayout@@UAEXPAVQLayoutItem@@@Z 0047894a f   Qt5Widgetsd:Qt5Widgetsd.dll
 0001:00077950       ?canInsertFromMimeData@QTextEdit@@MBE_NPBVQMimeData@@@Z 00478950 f   Qt5Widgetsd:Qt5Widgetsd.dll
 0001:00077956       ?changeEvent@QAbstractButton@@MAEXPAVQEvent@@@Z 00478956 f   Qt5Widgetsd:Qt5Widgetsd.dll
 0001:0007795c       ?changeEvent@QFrame@@MAEXPAVQEvent@@@Z 0047895c f   Qt5Widgetsd:Qt5Widgetsd.dll
 0001:00077962       ?changeEvent@QGroupBox@@MAEXPAVQEvent@@@Z 00478962 f   Qt5Widgetsd:Qt5Widgetsd.dll
 0001:00077968       ?changeEvent@QMenu@@MAEXPAVQEvent@@@Z 00478968 f   Qt5Widgetsd:Qt5Widgetsd.dll
 0001:0007796e       ?changeEvent@QMenuBar@@MAEXPAVQEvent@@@Z 0047896e f   Qt5Widgetsd:Qt5Widgetsd.dll
 0001:00077974       ?changeEvent@QSplitter@@MAEXPAVQEvent@@@Z 00478974 f   Qt5Widgetsd:Qt5Widgetsd.dll
 0001:0007797a       ?changeEvent@QTextEdit@@MAEXPAVQEvent@@@Z 0047897a f   Qt5Widgetsd:Qt5Widgetsd.dll
 0001:00077980       ?changeEvent@QToolBar@@MAEXPAVQEvent@@@Z 00478980 f   Qt5Widgetsd:Qt5Widgetsd.dll
 0001:00077986       ?changeEvent@QWidget@@MAEXPAVQEvent@@@Z 00478986 f   Qt5Widgetsd:Qt5Widgetsd.dll
 0001:0007798c       ?checkStateSet@QAbstractButton@@MAEXXZ 0047898c f   Qt5Widgetsd:Qt5Widgetsd.dll
 0001:00077992       ?childEvent@QGroupBox@@MAEXPAVQChildEvent@@@Z 00478992 f   Qt5Widgetsd:Qt5Widgetsd.dll
 0001:00077998       ?childEvent@QLayout@@MAEXPAVQChildEvent@@@Z 00478998 f   Qt5Widgetsd:Qt5Widgetsd.dll
 0001:0007799e       ?childEvent@QSplitter@@MAEXPAVQChildEvent@@@Z 0047899e f   Qt5Widgetsd:Qt5Widgetsd.dll
 0001:000779a4       ?clone@QListWidgetItem@@UBEPAV1@XZ 004789a4 f   Qt5Widgetsd:Qt5Widgetsd.dll
 0001:000779aa       ?closeEditor@QAbstractItemView@@MAEXPAVQWidget@@W4EndEditHint@QAbstractItemDelegate@@@Z 004789aa f   Qt5Widgetsd:Qt5Widgetsd.dll
 0001:000779b0       ?closeEvent@QWidget@@MAEXPAVQCloseEvent@@@Z 004789b0 f   Qt5Widgetsd:Qt5Widgetsd.dll
 0001:000779b6       ?commitData@QAbstractItemView@@MAEXPAVQWidget@@@Z 004789b6 f   Qt5Widgetsd:Qt5Widgetsd.dll
 0001:000779bc       ?contextMenuEvent@QAbstractScrollArea@@MAEXPAVQContextMenuEvent@@@Z 004789bc f   Qt5Widgetsd:Qt5Widgetsd.dll
 0001:000779c2       ?contextMenuEvent@QMainWindow@@MAEXPAVQContextMenuEvent@@@Z 004789c2 f   Qt5Widgetsd:Qt5Widgetsd.dll
 0001:000779c8       ?contextMenuEvent@QTextEdit@@MAEXPAVQContextMenuEvent@@@Z 004789c8 f   Qt5Widgetsd:Qt5Widgetsd.dll
 0001:000779ce       ?contextMenuEvent@QWidget@@MAEXPAVQContextMenuEvent@@@Z 004789ce f   Qt5Widgetsd:Qt5Widgetsd.dll
 0001:000779d4       ?controlTypes@QLayout@@UBE?AV?$QFlags@W4ControlType@QSizePolicy@@@@XZ 004789d4 f   Qt5Widgetsd:Qt5Widgetsd.dll
 0001:000779da       ?controlTypes@QLayoutItem@@UBE?AV?$QFlags@W4ControlType@QSizePolicy@@@@XZ 004789da f   Qt5Widgetsd:Qt5Widgetsd.dll
 0001:000779e0       ?count@QBoxLayout@@UBEHXZ  004789e0 f   Qt5Widgetsd:Qt5Widgetsd.dll
 0001:000779e6       ?createHandle@QSplitter@@MAEPAVQSplitterHandle@@XZ 004789e6 f   Qt5Widgetsd:Qt5Widgetsd.dll
 0001:000779ec       ?createMimeDataFromSelection@QTextEdit@@MBEPAVQMimeData@@XZ 004789ec f   Qt5Widgetsd:Qt5Widgetsd.dll
 0001:000779f2       ?createPopupMenu@QMainWindow@@UAEPAVQMenu@@XZ 004789f2 f   Qt5Widgetsd:Qt5Widgetsd.dll
 0001:000779f8       ?currentChanged@QListView@@MAEXABVQModelIndex@@0@Z 004789f8 f   Qt5Widgetsd:Qt5Widgetsd.dll
 0001:000779fe       ?currentChanged@QTreeView@@MAEXABVQModelIndex@@0@Z 004789fe f   Qt5Widgetsd:Qt5Widgetsd.dll
 0001:00077a04       ?data@QListWidgetItem@@UBE?AVQVariant@@H@Z 00478a04 f   Qt5Widgetsd:Qt5Widgetsd.dll
 0001:00077a0a       ?dataChanged@QListView@@MAEXABVQModelIndex@@0ABV?$QVector@H@@@Z 00478a0a f   Qt5Widgetsd:Qt5Widgetsd.dll
 0001:00077a10       ?dataChanged@QTreeView@@UAEXABVQModelIndex@@0ABV?$QVector@H@@@Z 00478a10 f   Qt5Widgetsd:Qt5Widgetsd.dll
 0001:00077a16       ?devType@QWidget@@UBEHXZ   00478a16 f   Qt5Widgetsd:Qt5Widgetsd.dll
 0001:00077a1c       ?doItemsLayout@QListView@@UAEXXZ 00478a1c f   Qt5Widgetsd:Qt5Widgetsd.dll
 0001:00077a22       ?doItemsLayout@QTreeView@@UAEXXZ 00478a22 f   Qt5Widgetsd:Qt5Widgetsd.dll
 0001:00077a28       ?doSetTextCursor@QTextEdit@@MAEXABVQTextCursor@@@Z 00478a28 f   Qt5Widgetsd:Qt5Widgetsd.dll
 0001:00077a2e       ?dragEnterEvent@QAbstractItemView@@MAEXPAVQDragEnterEvent@@@Z 00478a2e f   Qt5Widgetsd:Qt5Widgetsd.dll
 0001:00077a34       ?dragEnterEvent@QTextEdit@@MAEXPAVQDragEnterEvent@@@Z 00478a34 f   Qt5Widgetsd:Qt5Widgetsd.dll
 0001:00077a3a       ?dragEnterEvent@QWidget@@MAEXPAVQDragEnterEvent@@@Z 00478a3a f   Qt5Widgetsd:Qt5Widgetsd.dll
 0001:00077a40       ?dragLeaveEvent@QAbstractItemView@@MAEXPAVQDragLeaveEvent@@@Z 00478a40 f   Qt5Widgetsd:Qt5Widgetsd.dll
 0001:00077a46       ?dragLeaveEvent@QListView@@MAEXPAVQDragLeaveEvent@@@Z 00478a46 f   Qt5Widgetsd:Qt5Widgetsd.dll
 0001:00077a4c       ?dragLeaveEvent@QTextEdit@@MAEXPAVQDragLeaveEvent@@@Z 00478a4c f   Qt5Widgetsd:Qt5Widgetsd.dll
 0001:00077a52       ?dragLeaveEvent@QWidget@@MAEXPAVQDragLeaveEvent@@@Z 00478a52 f   Qt5Widgetsd:Qt5Widgetsd.dll
 0001:00077a58       ?dragMoveEvent@QListView@@MAEXPAVQDragMoveEvent@@@Z 00478a58 f   Qt5Widgetsd:Qt5Widgetsd.dll
 0001:00077a5e       ?dragMoveEvent@QTextEdit@@MAEXPAVQDragMoveEvent@@@Z 00478a5e f   Qt5Widgetsd:Qt5Widgetsd.dll
 0001:00077a64       ?dragMoveEvent@QTreeView@@MAEXPAVQDragMoveEvent@@@Z 00478a64 f   Qt5Widgetsd:Qt5Widgetsd.dll
 0001:00077a6a       ?dragMoveEvent@QWidget@@MAEXPAVQDragMoveEvent@@@Z 00478a6a f   Qt5Widgetsd:Qt5Widgetsd.dll
 0001:00077a70       ?drawBranches@QTreeView@@MBEXPAVQPainter@@ABVQRect@@ABVQModelIndex@@@Z 00478a70 f   Qt5Widgetsd:Qt5Widgetsd.dll
 0001:00077a76       ?drawRow@QTreeView@@MBEXPAVQPainter@@ABVQStyleOptionViewItem@@ABVQModelIndex@@@Z 00478a76 f   Qt5Widgetsd:Qt5Widgetsd.dll
 0001:00077a7c       ?dropEvent@QListWidget@@UAEXPAVQDropEvent@@@Z 00478a7c f   Qt5Widgetsd:Qt5Widgetsd.dll
 0001:00077a82       ?dropEvent@QTextEdit@@MAEXPAVQDropEvent@@@Z 00478a82 f   Qt5Widgetsd:Qt5Widgetsd.dll
 0001:00077a88       ?dropEvent@QTreeWidget@@MAEXPAVQDropEvent@@@Z 00478a88 f   Qt5Widgetsd:Qt5Widgetsd.dll
 0001:00077a8e       ?dropEvent@QWidget@@MAEXPAVQDropEvent@@@Z 00478a8e f   Qt5Widgetsd:Qt5Widgetsd.dll
 0001:00077a94       ?dropMimeData@QListWidget@@MAE_NHPBVQMimeData@@W4DropAction@Qt@@@Z 00478a94 f   Qt5Widgetsd:Qt5Widgetsd.dll
 0001:00077a9a       ?dropMimeData@QTreeWidget@@MAE_NPAVQTreeWidgetItem@@HPBVQMimeData@@W4DropAction@Qt@@@Z 00478a9a f   Qt5Widgetsd:Qt5Widgetsd.dll
 0001:00077aa0       ?edit@QAbstractItemView@@MAE_NABVQModelIndex@@W4EditTrigger@1@PAVQEvent@@@Z 00478aa0 f   Qt5Widgetsd:Qt5Widgetsd.dll
 0001:00077aa6       ?editorDestroyed@QAbstractItemView@@MAEXPAVQObject@@@Z 00478aa6 f   Qt5Widgetsd:Qt5Widgetsd.dll
 0001:00077aac       ?enterEvent@QMenu@@MAEXPAVQEvent@@@Z 00478aac f   Qt5Widgetsd:Qt5Widgetsd.dll
 0001:00077ab2       ?enterEvent@QWidget@@MAEXPAVQEvent@@@Z 00478ab2 f   Qt5Widgetsd:Qt5Widgetsd.dll
 0001:00077ab8       ?event@QAction@@MAE_NPAVQEvent@@@Z 00478ab8 f   Qt5Widgetsd:Qt5Widgetsd.dll
 0001:00077abe       ?event@QGroupBox@@MAE_NPAVQEvent@@@Z 00478abe f   Qt5Widgetsd:Qt5Widgetsd.dll
 0001:00077ac4       ?event@QListWidget@@MAE_NPAVQEvent@@@Z 00478ac4 f   Qt5Widgetsd:Qt5Widgetsd.dll
 0001:00077aca       ?event@QMainWindow@@MAE_NPAVQEvent@@@Z 00478aca f   Qt5Widgetsd:Qt5Widgetsd.dll
 0001:00077ad0       ?event@QMenu@@MAE_NPAVQEvent@@@Z 00478ad0 f   Qt5Widgetsd:Qt5Widgetsd.dll
 0001:00077ad6       ?event@QMenuBar@@MAE_NPAVQEvent@@@Z 00478ad6 f   Qt5Widgetsd:Qt5Widgetsd.dll
 0001:00077adc       ?event@QPushButton@@MAE_NPAVQEvent@@@Z 00478adc f   Qt5Widgetsd:Qt5Widgetsd.dll
 0001:00077ae2       ?event@QSplitter@@MAE_NPAVQEvent@@@Z 00478ae2 f   Qt5Widgetsd:Qt5Widgetsd.dll
 0001:00077ae8       ?event@QStatusBar@@MAE_NPAVQEvent@@@Z 00478ae8 f   Qt5Widgetsd:Qt5Widgetsd.dll
 0001:00077aee       ?event@QTextEdit@@MAE_NPAVQEvent@@@Z 00478aee f   Qt5Widgetsd:Qt5Widgetsd.dll
 0001:00077af4       ?event@QToolBar@@MAE_NPAVQEvent@@@Z 00478af4 f   Qt5Widgetsd:Qt5Widgetsd.dll
 0001:00077afa       ?event@QTreeWidget@@MAE_NPAVQEvent@@@Z 00478afa f   Qt5Widgetsd:Qt5Widgetsd.dll
 0001:00077b00       ?event@QWidget@@MAE_NPAVQEvent@@@Z 00478b00 f   Qt5Widgetsd:Qt5Widgetsd.dll
 0001:00077b06       ?eventFilter@QAbstractScrollArea@@MAE_NPAVQObject@@PAVQEvent@@@Z 00478b06 f   Qt5Widgetsd:Qt5Widgetsd.dll
 0001:00077b0c       ?eventFilter@QMenuBar@@MAE_NPAVQObject@@PAVQEvent@@@Z 00478b0c f   Qt5Widgetsd:Qt5Widgetsd.dll
 0001:00077b12       ?expandingDirections@QBoxLayout@@UBE?AV?$QFlags@W4Orientation@Qt@@@@XZ 00478b12 f   Qt5Widgetsd:Qt5Widgetsd.dll
 0001:00077b18       ?expandingDirections@QSpacerItem@@UBE?AV?$QFlags@W4Orientation@Qt@@@@XZ 00478b18 f   Qt5Widgetsd:Qt5Widgetsd.dll
 0001:00077b1e       ?focusInEvent@QAbstractItemView@@MAEXPAVQFocusEvent@@@Z 00478b1e f   Qt5Widgetsd:Qt5Widgetsd.dll
 0001:00077b24       ?focusInEvent@QGroupBox@@MAEXPAVQFocusEvent@@@Z 00478b24 f   Qt5Widgetsd:Qt5Widgetsd.dll
 0001:00077b2a       ?focusInEvent@QMenuBar@@MAEXPAVQFocusEvent@@@Z 00478b2a f   Qt5Widgetsd:Qt5Widgetsd.dll
 0001:00077b30       ?focusInEvent@QPushButton@@MAEXPAVQFocusEvent@@@Z 00478b30 f   Qt5Widgetsd:Qt5Widgetsd.dll
 0001:00077b36       ?focusInEvent@QTextEdit@@MAEXPAVQFocusEvent@@@Z 00478b36 f   Qt5Widgetsd:Qt5Widgetsd.dll
 0001:00077b3c       ?focusInEvent@QWidget@@MAEXPAVQFocusEvent@@@Z 00478b3c f   Qt5Widgetsd:Qt5Widgetsd.dll
 0001:00077b42       ?focusNextPrevChild@QAbstractItemView@@MAE_N_N@Z 00478b42 f   Qt5Widgetsd:Qt5Widgetsd.dll
 0001:00077b48       ?focusNextPrevChild@QMenu@@MAE_N_N@Z 00478b48 f   Qt5Widgetsd:Qt5Widgetsd.dll
 0001:00077b4e       ?focusNextPrevChild@QTextEdit@@MAE_N_N@Z 00478b4e f   Qt5Widgetsd:Qt5Widgetsd.dll
 0001:00077b54       ?focusNextPrevChild@QWidget@@MAE_N_N@Z 00478b54 f   Qt5Widgetsd:Qt5Widgetsd.dll
 0001:00077b5a       ?focusOutEvent@QAbstractItemView@@MAEXPAVQFocusEvent@@@Z 00478b5a f   Qt5Widgetsd:Qt5Widgetsd.dll
 0001:00077b60       ?focusOutEvent@QMenuBar@@MAEXPAVQFocusEvent@@@Z 00478b60 f   Qt5Widgetsd:Qt5Widgetsd.dll
 0001:00077b66       ?focusOutEvent@QPushButton@@MAEXPAVQFocusEvent@@@Z 00478b66 f   Qt5Widgetsd:Qt5Widgetsd.dll
 0001:00077b6c       ?focusOutEvent@QTextEdit@@MAEXPAVQFocusEvent@@@Z 00478b6c f   Qt5Widgetsd:Qt5Widgetsd.dll
 0001:00077b72       ?focusOutEvent@QWidget@@MAEXPAVQFocusEvent@@@Z 00478b72 f   Qt5Widgetsd:Qt5Widgetsd.dll
 0001:00077b78       ?geometry@QLayout@@UBE?AVQRect@@XZ 00478b78 f   Qt5Widgetsd:Qt5Widgetsd.dll
 0001:00077b7e       ?geometry@QSpacerItem@@UBE?AVQRect@@XZ 00478b7e f   Qt5Widgetsd:Qt5Widgetsd.dll
 0001:00077b84       ?hasHeightForWidth@QBoxLayout@@UBE_NXZ 00478b84 f   Qt5Widgetsd:Qt5Widgetsd.dll
 0001:00077b8a       ?hasHeightForWidth@QLayoutItem@@UBE_NXZ 00478b8a f   Qt5Widgetsd:Qt5Widgetsd.dll
 0001:00077b90       ?hasHeightForWidth@QWidget@@UBE_NXZ 00478b90 f   Qt5Widgetsd:Qt5Widgetsd.dll
 0001:00077b96       ?heightForWidth@QBoxLayout@@UBEHH@Z 00478b96 f   Qt5Widgetsd:Qt5Widgetsd.dll
 0001:00077b9c       ?heightForWidth@QLayoutItem@@UBEHH@Z 00478b9c f   Qt5Widgetsd:Qt5Widgetsd.dll
 0001:00077ba2       ?heightForWidth@QMenuBar@@UBEHH@Z 00478ba2 f   Qt5Widgetsd:Qt5Widgetsd.dll
 0001:00077ba8       ?heightForWidth@QWidget@@UBEHH@Z 00478ba8 f   Qt5Widgetsd:Qt5Widgetsd.dll
 0001:00077bae       ?hideEvent@QMenu@@MAEXPAVQHideEvent@@@Z 00478bae f   Qt5Widgetsd:Qt5Widgetsd.dll
 0001:00077bb4       ?hideEvent@QWidget@@MAEXPAVQHideEvent@@@Z 00478bb4 f   Qt5Widgetsd:Qt5Widgetsd.dll
 0001:00077bba       ?hitButton@QAbstractButton@@MBE_NABVQPoint@@@Z 00478bba f   Qt5Widgetsd:Qt5Widgetsd.dll
 0001:00077bc0       ?horizontalOffset@QListView@@MBEHXZ 00478bc0 f   Qt5Widgetsd:Qt5Widgetsd.dll
 0001:00077bc6       ?horizontalOffset@QTreeView@@MBEHXZ 00478bc6 f   Qt5Widgetsd:Qt5Widgetsd.dll
 0001:00077bcc       ?horizontalScrollbarAction@QAbstractItemView@@MAEXH@Z 00478bcc f   Qt5Widgetsd:Qt5Widgetsd.dll
 0001:00077bd2       ?horizontalScrollbarAction@QTreeView@@MAEXH@Z 00478bd2 f   Qt5Widgetsd:Qt5Widgetsd.dll
 0001:00077bd8       ?horizontalScrollbarValueChanged@QAbstractItemView@@MAEXH@Z 00478bd8 f   Qt5Widgetsd:Qt5Widgetsd.dll
 0001:00077bde       ?indexAt@QListView@@UBE?AVQModelIndex@@ABVQPoint@@@Z 00478bde f   Qt5Widgetsd:Qt5Widgetsd.dll
 0001:00077be4       ?indexAt@QTreeView@@UBE?AVQModelIndex@@ABVQPoint@@@Z 00478be4 f   Qt5Widgetsd:Qt5Widgetsd.dll
 0001:00077bea       ?indexOf@QLayout@@UBEHPAVQWidget@@@Z 00478bea f   Qt5Widgetsd:Qt5Widgetsd.dll
 0001:00077bf0       ?initPainter@QWidget@@MBEXPAVQPainter@@@Z 00478bf0 f   Qt5Widgetsd:Qt5Widgetsd.dll
 0001:00077bf6       ?inputMethodEvent@QAbstractItemView@@MAEXPAVQInputMethodEvent@@@Z 00478bf6 f   Qt5Widgetsd:Qt5Widgetsd.dll
 0001:00077bfc       ?inputMethodEvent@QTextEdit@@MAEXPAVQInputMethodEvent@@@Z 00478bfc f   Qt5Widgetsd:Qt5Widgetsd.dll
 0001:00077c02       ?inputMethodEvent@QWidget@@MAEXPAVQInputMethodEvent@@@Z 00478c02 f   Qt5Widgetsd:Qt5Widgetsd.dll
 0001:00077c08       ?inputMethodQuery@QAbstractItemView@@UBE?AVQVariant@@W4InputMethodQuery@Qt@@@Z 00478c08 f   Qt5Widgetsd:Qt5Widgetsd.dll
 0001:00077c0e       ?inputMethodQuery@QTextEdit@@UBE?AVQVariant@@W4InputMethodQuery@Qt@@@Z 00478c0e f   Qt5Widgetsd:Qt5Widgetsd.dll
 0001:00077c14       ?inputMethodQuery@QWidget@@UBE?AVQVariant@@W4InputMethodQuery@Qt@@@Z 00478c14 f   Qt5Widgetsd:Qt5Widgetsd.dll
 0001:00077c1a       ?insertFromMimeData@QTextEdit@@MAEXPBVQMimeData@@@Z 00478c1a f   Qt5Widgetsd:Qt5Widgetsd.dll
 0001:00077c20       ?invalidate@QBoxLayout@@UAEXXZ 00478c20 f   Qt5Widgetsd:Qt5Widgetsd.dll
 0001:00077c26       ?invalidate@QLayoutItem@@UAEXXZ 00478c26 f   Qt5Widgetsd:Qt5Widgetsd.dll
 0001:00077c2c       ?isEmpty@QLayout@@UBE_NXZ  00478c2c f   Qt5Widgetsd:Qt5Widgetsd.dll
 0001:00077c32       ?isEmpty@QSpacerItem@@UBE_NXZ 00478c32 f   Qt5Widgetsd:Qt5Widgetsd.dll
 0001:00077c38       ?isIndexHidden@QListView@@MBE_NABVQModelIndex@@@Z 00478c38 f   Qt5Widgetsd:Qt5Widgetsd.dll
 0001:00077c3e       ?isIndexHidden@QTreeView@@MBE_NABVQModelIndex@@@Z 00478c3e f   Qt5Widgetsd:Qt5Widgetsd.dll
 0001:00077c44       ?itemAt@QBoxLayout@@UBEPAVQLayoutItem@@H@Z 00478c44 f   Qt5Widgetsd:Qt5Widgetsd.dll
 0001:00077c4a       ?keyPressEvent@QAbstractItemView@@MAEXPAVQKeyEvent@@@Z 00478c4a f   Qt5Widgetsd:Qt5Widgetsd.dll
 0001:00077c50       ?keyPressEvent@QMenu@@MAEXPAVQKeyEvent@@@Z 00478c50 f   Qt5Widgetsd:Qt5Widgetsd.dll
 0001:00077c56       ?keyPressEvent@QMenuBar@@MAEXPAVQKeyEvent@@@Z 00478c56 f   Qt5Widgetsd:Qt5Widgetsd.dll
 0001:00077c5c       ?keyPressEvent@QPushButton@@MAEXPAVQKeyEvent@@@Z 00478c5c f   Qt5Widgetsd:Qt5Widgetsd.dll
 0001:00077c62       ?keyPressEvent@QTextEdit@@MAEXPAVQKeyEvent@@@Z 00478c62 f   Qt5Widgetsd:Qt5Widgetsd.dll
 0001:00077c68       ?keyPressEvent@QTreeView@@MAEXPAVQKeyEvent@@@Z 00478c68 f   Qt5Widgetsd:Qt5Widgetsd.dll
 0001:00077c6e       ?keyPressEvent@QWidget@@MAEXPAVQKeyEvent@@@Z 00478c6e f   Qt5Widgetsd:Qt5Widgetsd.dll
 0001:00077c74       ?keyReleaseEvent@QAbstractButton@@MAEXPAVQKeyEvent@@@Z 00478c74 f   Qt5Widgetsd:Qt5Widgetsd.dll
 0001:00077c7a       ?keyReleaseEvent@QTextEdit@@MAEXPAVQKeyEvent@@@Z 00478c7a f   Qt5Widgetsd:Qt5Widgetsd.dll
 0001:00077c80       ?keyReleaseEvent@QWidget@@MAEXPAVQKeyEvent@@@Z 00478c80 f   Qt5Widgetsd:Qt5Widgetsd.dll
 0001:00077c86       ?keyboardSearch@QAbstractItemView@@UAEXABVQString@@@Z 00478c86 f   Qt5Widgetsd:Qt5Widgetsd.dll
 0001:00077c8c       ?keyboardSearch@QTreeView@@UAEXABVQString@@@Z 00478c8c f   Qt5Widgetsd:Qt5Widgetsd.dll
 0001:00077c92       ?layout@QLayout@@UAEPAV1@XZ 00478c92 f   Qt5Widgetsd:Qt5Widgetsd.dll
 0001:00077c98       ?layout@QLayoutItem@@UAEPAVQLayout@@XZ 00478c98 f   Qt5Widgetsd:Qt5Widgetsd.dll
 0001:00077c9e       ?leaveEvent@QMenu@@MAEXPAVQEvent@@@Z 00478c9e f   Qt5Widgetsd:Qt5Widgetsd.dll
 0001:00077ca4       ?leaveEvent@QMenuBar@@MAEXPAVQEvent@@@Z 00478ca4 f   Qt5Widgetsd:Qt5Widgetsd.dll
 0001:00077caa       ?leaveEvent@QWidget@@MAEXPAVQEvent@@@Z 00478caa f   Qt5Widgetsd:Qt5Widgetsd.dll
 0001:00077cb0       ?loadResource@QTextEdit@@UAE?AVQVariant@@HABVQUrl@@@Z 00478cb0 f   Qt5Widgetsd:Qt5Widgetsd.dll
 0001:00077cb6       ?maximumSize@QBoxLayout@@UBE?AVQSize@@XZ 00478cb6 f   Qt5Widgetsd:Qt5Widgetsd.dll
 0001:00077cbc       ?maximumSize@QSpacerItem@@UBE?AVQSize@@XZ 00478cbc f   Qt5Widgetsd:Qt5Widgetsd.dll
 0001:00077cc2       ?metaObject@QAction@@UBEPBUQMetaObject@@XZ 00478cc2 f   Qt5Widgetsd:Qt5Widgetsd.dll
 0001:00077cc8       ?metaObject@QGroupBox@@UBEPBUQMetaObject@@XZ 00478cc8 f   Qt5Widgetsd:Qt5Widgetsd.dll
 0001:00077cce       ?metaObject@QHBoxLayout@@UBEPBUQMetaObject@@XZ 00478cce f   Qt5Widgetsd:Qt5Widgetsd.dll
 0001:00077cd4       ?metaObject@QListWidget@@UBEPBUQMetaObject@@XZ 00478cd4 f   Qt5Widgetsd:Qt5Widgetsd.dll
 0001:00077cda       ?metaObject@QMenu@@UBEPBUQMetaObject@@XZ 00478cda f   Qt5Widgetsd:Qt5Widgetsd.dll
 0001:00077ce0       ?metaObject@QMenuBar@@UBEPBUQMetaObject@@XZ 00478ce0 f   Qt5Widgetsd:Qt5Widgetsd.dll
 0001:00077ce6       ?metaObject@QPushButton@@UBEPBUQMetaObject@@XZ 00478ce6 f   Qt5Widgetsd:Qt5Widgetsd.dll
 0001:00077cec       ?metaObject@QSplitter@@UBEPBUQMetaObject@@XZ 00478cec f   Qt5Widgetsd:Qt5Widgetsd.dll
 0001:00077cf2       ?metaObject@QStatusBar@@UBEPBUQMetaObject@@XZ 00478cf2 f   Qt5Widgetsd:Qt5Widgetsd.dll
 0001:00077cf8       ?metaObject@QTextEdit@@UBEPBUQMetaObject@@XZ 00478cf8 f   Qt5Widgetsd:Qt5Widgetsd.dll
 0001:00077cfe       ?metaObject@QToolBar@@UBEPBUQMetaObject@@XZ 00478cfe f   Qt5Widgetsd:Qt5Widgetsd.dll
 0001:00077d04       ?metaObject@QTreeWidget@@UBEPBUQMetaObject@@XZ 00478d04 f   Qt5Widgetsd:Qt5Widgetsd.dll
 0001:00077d0a       ?metaObject@QVBoxLayout@@UBEPBUQMetaObject@@XZ 00478d0a f   Qt5Widgetsd:Qt5Widgetsd.dll
 0001:00077d10       ?metaObject@QWidget@@UBEPBUQMetaObject@@XZ 00478d10 f   Qt5Widgetsd:Qt5Widgetsd.dll
 0001:00077d16       ?metric@QWidget@@MBEHW4PaintDeviceMetric@QPaintDevice@@@Z 00478d16 f   Qt5Widgetsd:Qt5Widgetsd.dll
 0001:00077d1c       ?mimeData@QListWidget@@MBEPAVQMimeData@@V?$QList@PAVQListWidgetItem@@@@@Z 00478d1c f   Qt5Widgetsd:Qt5Widgetsd.dll
 0001:00077d22       ?mimeData@QTreeWidget@@MBEPAVQMimeData@@V?$QList@PAVQTreeWidgetItem@@@@@Z 00478d22 f   Qt5Widgetsd:Qt5Widgetsd.dll
 0001:00077d28       ?mimeTypes@QListWidget@@MBE?AVQStringList@@XZ 00478d28 f   Qt5Widgetsd:Qt5Widgetsd.dll
 0001:00077d2e       ?mimeTypes@QTreeWidget@@MBE?AVQStringList@@XZ 00478d2e f   Qt5Widgetsd:Qt5Widgetsd.dll
 0001:00077d34       ?minimumHeightForWidth@QBoxLayout@@UBEHH@Z 00478d34 f   Qt5Widgetsd:Qt5Widgetsd.dll
 0001:00077d3a       ?minimumHeightForWidth@QLayoutItem@@UBEHH@Z 00478d3a f   Qt5Widgetsd:Qt5Widgetsd.dll
 0001:00077d40       ?minimumSize@QBoxLayout@@UBE?AVQSize@@XZ 00478d40 f   Qt5Widgetsd:Qt5Widgetsd.dll
 0001:00077d46       ?minimumSize@QSpacerItem@@UBE?AVQSize@@XZ 00478d46 f   Qt5Widgetsd:Qt5Widgetsd.dll
 0001:00077d4c       ?minimumSizeHint@QAbstractScrollArea@@UBE?AVQSize@@XZ 00478d4c f   Qt5Widgetsd:Qt5Widgetsd.dll
 0001:00077d52       ?minimumSizeHint@QGroupBox@@UBE?AVQSize@@XZ 00478d52 f   Qt5Widgetsd:Qt5Widgetsd.dll
 0001:00077d58       ?minimumSizeHint@QMenuBar@@UBE?AVQSize@@XZ 00478d58 f   Qt5Widgetsd:Qt5Widgetsd.dll
 0001:00077d5e       ?minimumSizeHint@QPushButton@@UBE?AVQSize@@XZ 00478d5e f   Qt5Widgetsd:Qt5Widgetsd.dll
 0001:00077d64       ?minimumSizeHint@QSplitter@@UBE?AVQSize@@XZ 00478d64 f   Qt5Widgetsd:Qt5Widgetsd.dll
