 v3bncslinkdb

 Timestamp is 5e9db807 (Mon Apr 20 15:56:07 2020)

 Preferred load address is 00400000

 Start         Length     Name                   Class
 0001:00000000 00027865H .textbss                DATA
 0002:00000000 000054d7H .text                   CODE
 0002:000054e0 00001e9eH .text$di                CODE
 0002:00007380 0004a35fH .text$mn                CODE
 0002:000516e0 000063aaH .text$x                 CODE
 0002:00057a90 00001525H .text$yd                CODE
 0003:00000000 00000104H .CRT$XCA                DATA
 0003:00000104 00000104H .CRT$XCAA               DATA
 0003:00000208 000001b0H .CRT$XCU                DATA
 0003:000003b8 00000104H .CRT$XCZ                DATA
 0003:000004bc 00000104H .CRT$XIA                DATA
 0003:000005c0 00000104H .CRT$XIAA               DATA
 0003:000006c4 00000104H .CRT$XIC                DATA
 0003:000007c8 00000104H .CRT$XIY                DATA
 0003:000008cc 00000104H .CRT$XIZ                DATA
 0003:000009d0 0001ace9H .rdata                  DATA
 0003:0001b6bc 00000173H .rdata$debug            DATA
 0003:0001b830 0000157cH .rdata$r                DATA
 0003:0001cdac 00000104H .rtc$IAA                DATA
 0003:0001ceb0 0000015bH .rtc$IMZ                DATA
 0003:0001d00c 00000104H .rtc$IZZ                DATA
 0003:0001d110 00000104H .rtc$TAA                DATA
 0003:0001d214 0000015bH .rtc$TMZ                DATA
 0003:0001d370 00000104H .rtc$TZZ                DATA
 0003:0001d478 0000436eH .xdata$x                DATA
 0003:000217e6 00000000H .edata                  DATA
 0004:00000000 0000093eH .data                   DATA
 0004:00000940 0000077cH .data$r                 DATA
 0004:000010c0 00000d20H .bss                    DATA
 0005:00000000 0000125cH .idata$5                DATA
 0005:0000125c 000000b4H .idata$2                DATA
 0005:00001310 00000014H .idata$3                DATA
 0005:00001324 0000125cH .idata$4                DATA
 0005:00002580 000094afH .idata$6                DATA
 0006:00000000 00000319H .rsrc$01                DATA
 0006:00000320 00009f96H .rsrc$02                DATA

  Address         Publics by Value              Rva+Base       Lib:Object

 0000:00000000       ___safe_se_handler_table   00000000     <absolute>
 0000:00000000       ___guard_flags             00000000     <absolute>
 0000:00000000       ___guard_fids_count        00000000     <absolute>
 0000:00000000       ___safe_se_handler_count   00000000     <absolute>
 0000:00000000       ___guard_fids_table        00000000     <absolute>
 0000:00000000       __except_list              00000000     <absolute>
 0000:00009876       __fltused                  00009876     <absolute>
 0000:00009876       __ldused                   00009876     <absolute>
 0000:00000000       ___ImageBase               00400000     <linker-defined>
 0001:00000000       __enc$textbss$begin        00401000     <linker-defined>
 0001:00027865       __enc$textbss$end          00428865     <linker-defined>
 0002:000050a5       _HtmlHelpA@16              0042e0a5 f   htmlhelp:init.obj
 0002:000051da       _HtmlHelpW@16              0042e1da f   htmlhelp:init.obj
 0002:00005299       _WinMain@16                0042e299 f   qtmain:qtmain_win.obj
 0002:00005349       ?detach@?$QMemArray@PAD@@UAEXXZ 0042e349 f i qtmain:qtmain_win.obj
 0002:00005353       ??_G?$QMemArray@H@@UAEPAXI@Z 0042e353 f i qtmain:qtmain_win.obj
 0002:00005380       ??_G?$QMemArray@_N@@UAEPAXI@Z 0042e380 f i qtmain:qtmain_win.obj
 0002:000053ad       ??_G?$QMemArray@D@@UAEPAXI@Z 0042e3ad f i qtmain:qtmain_win.obj
 0002:000053da       ??_G?$QMemArray@VQPoint@@@@UAEPAXI@Z 0042e3da f i qtmain:qtmain_win.obj
 0002:00005407       ??_G?$QPtrList@D@@UAEPAXI@Z 0042e407 f i qtmain:qtmain_win.obj
 0002:0000543e       ??_G?$QPtrList@VQObject@@@@UAEPAXI@Z 0042e43e f i qtmain:qtmain_win.obj
 0002:00005475       ??_G?$QPtrList@VQWidget@@@@UAEPAXI@Z 0042e475 f i qtmain:qtmain_win.obj
 0002:000054ac       ??_G?$QMemArray@PAD@@UAEPAXI@Z 0042e4ac f i qtmain:qtmain_win.obj
 0002:000054ac       ??_E?$QMemArray@PAD@@UAEPAXI@Z 0042e4ac f i qtmain:qtmain_win.obj
 0002:00007380       ??0aboutDialog@@QAE@PAVQWidget@@PBD_NI@Z 00430380 f   aboutdialog.obj
 0002:00007cf0       ??1aboutDialog@@UAE@XZ     00430cf0 f   aboutdialog.obj
 0002:00007da0       ?languageChange@aboutDialog@@MAEXXZ 00430da0 f   aboutdialog.obj
 0002:000082bc       ??_EQFrame@@WCI@AEPAXI@Z   004312bc f i aboutdialog.obj
 0002:000082c6       ??_EQHBoxLayout@@WCI@AEPAXI@Z 004312c6 f i aboutdialog.obj
 0002:000082d0       ??_EQLabel@@WCI@AEPAXI@Z   004312d0 f i aboutdialog.obj
 0002:000082da       ??_EQPushButton@@WCI@AEPAXI@Z 004312da f i aboutdialog.obj
 0002:000082e4       ??_EQVBoxLayout@@WCI@AEPAXI@Z 004312e4 f i aboutdialog.obj
 0002:000082ee       ??_EaboutDialog@@WCI@AEPAXI@Z 004312ee f i aboutdialog.obj
 0002:00008300       ??_GQFrame@@UAEPAXI@Z      00431300 f i aboutdialog.obj
 0002:00008300       ??_EQFrame@@UAEPAXI@Z      00431300 f i aboutdialog.obj
 0002:00008380       ??_EQHBoxLayout@@UAEPAXI@Z 00431380 f i aboutdialog.obj
 0002:00008380       ??_GQHBoxLayout@@UAEPAXI@Z 00431380 f i aboutdialog.obj
 0002:00008400       ??_GQLabel@@UAEPAXI@Z      00431400 f i aboutdialog.obj
 0002:00008400       ??_EQLabel@@UAEPAXI@Z      00431400 f i aboutdialog.obj
 0002:00008480       ??_GQPushButton@@UAEPAXI@Z 00431480 f i aboutdialog.obj
 0002:00008480       ??_EQPushButton@@UAEPAXI@Z 00431480 f i aboutdialog.obj
 0002:00008500       ??_EQSpacerItem@@UAEPAXI@Z 00431500 f i aboutdialog.obj
 0002:00008500       ??_GQSpacerItem@@UAEPAXI@Z 00431500 f i aboutdialog.obj
 0002:00008580       ??_EQVBoxLayout@@UAEPAXI@Z 00431580 f i aboutdialog.obj
 0002:00008580       ??_GQVBoxLayout@@UAEPAXI@Z 00431580 f i aboutdialog.obj
 0002:00008600       ??_EaboutDialog@@UAEPAXI@Z 00431600 f i aboutdialog.obj
 0002:00008600       ??_GaboutDialog@@UAEPAXI@Z 00431600 f i aboutdialog.obj
 0002:00008670       ?metaObject@aboutDialog@@UBEPAVQMetaObject@@XZ 00431670 f i aboutdialog.obj
 0002:000086c0       ??0aboutDialogImpl@@QAE@PAVQWidget@@PBD_NI@Z 004316c0 f   aboutdialogimpl.obj
 0002:000089e0       ??1aboutDialogImpl@@UAE@XZ 004319e0 f   aboutdialogimpl.obj
 0002:00008b0e       ??_EaboutDialogImpl@@WCI@AEPAXI@Z 00431b0e f i aboutdialogimpl.obj
 0002:00008b20       ??_EaboutDialogImpl@@UAEPAXI@Z 00431b20 f i aboutdialogimpl.obj
 0002:00008b20       ??_GaboutDialogImpl@@UAEPAXI@Z 00431b20 f i aboutdialogimpl.obj
 0002:00008b90       ?metaObject@aboutDialogImpl@@UBEPAVQMetaObject@@XZ 00431b90 f i aboutdialogimpl.obj
 0002:00008be0       ??0bncslink32MainWindow@@QAE@PAVQWidget@@PBDI@Z 00431be0 f   bncslink32mainwindow.obj
 0002:0000a5b0       ??1bncslink32MainWindow@@UAE@XZ 004335b0 f   bncslink32mainwindow.obj
 0002:0000a610       ?languageChange@bncslink32MainWindow@@MAEXXZ 00433610 f   bncslink32mainwindow.obj
 0002:0000bc02       ??_EQGridLayout@@WCI@AEPAXI@Z 00434c02 f i bncslink32mainwindow.obj
 0002:0000bc0c       ??_EQMenuBar@@WCI@AEPAXI@Z 00434c0c f i bncslink32mainwindow.obj
 0002:0000bc16       ??_EQMenuBar@@WIM@AEPAXI@Z 00434c16 f i bncslink32mainwindow.obj
 0002:0000bc23       ??_EQPopupMenu@@WCI@AEPAXI@Z 00434c23 f i bncslink32mainwindow.obj
 0002:0000bc2d       ??_EQPopupMenu@@WIM@AEPAXI@Z 00434c2d f i bncslink32mainwindow.obj
 0002:0000bc3a       ??_EQTextEdit@@WCI@AEPAXI@Z 00434c3a f i bncslink32mainwindow.obj
 0002:0000bc44       ??_EQWidget@@WCI@AEPAXI@Z  00434c44 f i bncslink32mainwindow.obj
 0002:0000bc4e       ??_Ebncslink32MainWindow@@WCI@AEPAXI@Z 00434c4e f i bncslink32mainwindow.obj
 0002:0000bc60       ??_EQAction@@UAEPAXI@Z     00434c60 f i bncslink32mainwindow.obj
 0002:0000bc60       ??_GQAction@@UAEPAXI@Z     00434c60 f i bncslink32mainwindow.obj
 0002:0000bce0       ??_GQGridLayout@@UAEPAXI@Z 00434ce0 f i bncslink32mainwindow.obj
 0002:0000bce0       ??_EQGridLayout@@UAEPAXI@Z 00434ce0 f i bncslink32mainwindow.obj
 0002:0000bd60       ??_GQMenuBar@@UAEPAXI@Z    00434d60 f i bncslink32mainwindow.obj
 0002:0000bd60       ??_EQMenuBar@@UAEPAXI@Z    00434d60 f i bncslink32mainwindow.obj
 0002:0000bde0       ??_GQPopupMenu@@UAEPAXI@Z  00434de0 f i bncslink32mainwindow.obj
 0002:0000bde0       ??_EQPopupMenu@@UAEPAXI@Z  00434de0 f i bncslink32mainwindow.obj
 0002:0000be60       ??_EQTextEdit@@UAEPAXI@Z   00434e60 f i bncslink32mainwindow.obj
 0002:0000be60       ??_GQTextEdit@@UAEPAXI@Z   00434e60 f i bncslink32mainwindow.obj
 0002:0000bee0       ??_EQWidget@@UAEPAXI@Z     00434ee0 f i bncslink32mainwindow.obj
 0002:0000bee0       ??_GQWidget@@UAEPAXI@Z     00434ee0 f i bncslink32mainwindow.obj
 0002:0000bf60       ??_Gbncslink32MainWindow@@UAEPAXI@Z 00434f60 f i bncslink32mainwindow.obj
 0002:0000bf60       ??_Ebncslink32MainWindow@@UAEPAXI@Z 00434f60 f i bncslink32mainwindow.obj
 0002:0000bfd0       ?metaObject@bncslink32MainWindow@@UBEPAVQMetaObject@@XZ 00434fd0 f i bncslink32mainwindow.obj
 0002:0000c020       ??0bncslink32MainWindowImpl@@QAE@PAVQWidget@@PBDI@Z 00435020 f   bncslink32mainwindowimpl.obj
 0002:0000d070       ??1bncslink32MainWindowImpl@@UAE@XZ 00436070 f   bncslink32mainwindowimpl.obj
 0002:0000d1f0       ?checkDlls@bncslink32MainWindowImpl@@AAEXXZ 004361f0 f   bncslink32mainwindowimpl.obj
 0002:0000d490       ?checkWs@bncslink32MainWindowImpl@@AAEXXZ 00436490 f   bncslink32mainwindowimpl.obj
 0002:0000d720       ?moveIfRequired@bncslink32MainWindowImpl@@AAEXABVQString@@@Z 00436720 f   bncslink32mainwindowimpl.obj
 0002:0000e250       ?loadDatabaseUpdateList@bncslink32MainWindowImpl@@AAEXXZ 00437250 f   bncslink32mainwindowimpl.obj
 0002:0000eba0       ?doNextPoll@bncslink32MainWindowImpl@@AAEXXZ 00437ba0 f   bncslink32mainwindowimpl.obj
 0002:0000eed0       ?addLocalDatabase@bncslink32MainWindowImpl@@AAEXH@Z 00437ed0 f   bncslink32mainwindowimpl.obj
 0002:0000ef30       ?setEnvironment@bncslink32MainWindowImpl@@AAEXXZ 00437f30 f   bncslink32mainwindowimpl.obj
 0002:0000f530       ?timerEvent@bncslink32MainWindowImpl@@MAEXPAVQTimerEvent@@@Z 00438530 f   bncslink32mainwindowimpl.obj
 0002:0000fd50       ?fabianConnected@bncslink32MainWindowImpl@@AAEX_N@Z 00438d50 f   bncslink32mainwindowimpl.obj
 0002:00010210       ?routerName@bncslink32MainWindowImpl@@AAEXIIIABVQString@@@Z 00439210 f   bncslink32mainwindowimpl.obj
 0002:00010280       ?applcorePanelExited@bncslink32MainWindowImpl@@AAEXXZ 00439280 f   bncslink32mainwindowimpl.obj
 0002:000102e0       ?doAbout@bncslink32MainWindowImpl@@AAEXXZ 004392e0 f   bncslink32mainwindowimpl.obj
 0002:000103b0       ?doHelp@bncslink32MainWindowImpl@@AAEXXZ 004393b0 f   bncslink32mainwindowimpl.obj
 0002:000104f0       ?log@bncslink32MainWindowImpl@@QAEXABVQString@@@Z 004394f0 f   bncslink32mainwindowimpl.obj
 0002:00010560       ?logError@bncslink32MainWindowImpl@@QAEXABVQString@@@Z 00439560 f   bncslink32mainwindowimpl.obj
 0002:00011860       ??$?0AAV?$_Tree_const_iterator@V?$_Tree_val@U?$_Tree_simple_types@H@std@@@std@@@std@@_NX@?$pair@V?$_Tree_const_iterator@V?$_Tree_val@U?$_Tree_simple_types@H@std@@@std@@@std@@_N@std@@QAE@AAV?$_Tree_const_iterator@V?$_Tree_val@U?$_Tree_simple_types@H@std@@@std@@@1@$$QA_N@Z 0043a860 f i bncslink32mainwindowimpl.obj
 0002:00011930       ??$?0U?$_Tree_node@HPAX@std@@@?$allocator@U_Container_proxy@std@@@std@@QAE@ABV?$allocator@U?$_Tree_node@HPAX@std@@@1@@Z 0043a930 f i bncslink32mainwindowimpl.obj
 0002:00011970       ??$?0U?$_Wrap_alloc@V?$allocator@U?$_Tree_node@HPAX@std@@@std@@@std@@@?$_Wrap_alloc@V?$allocator@U_Container_proxy@std@@@std@@@std@@QAE@ABU?$_Wrap_alloc@V?$allocator@U?$_Tree_node@HPAX@std@@@std@@@1@@Z 0043a970 f i bncslink32mainwindowimpl.obj
 0002:000119d0       ??$?0V?$_Tree_const_iterator@V?$_Tree_val@U?$_Tree_simple_types@H@std@@@std@@@std@@_NX@?$pair@V?$_Tree_const_iterator@V?$_Tree_val@U?$_Tree_simple_types@H@std@@@std@@@std@@_N@std@@QAE@$$QAV?$_Tree_const_iterator@V?$_Tree_val@U?$_Tree_simple_types@H@std@@@std@@@1@$$QA_N@Z 0043a9d0 f i bncslink32mainwindowimpl.obj
 0002:00011aa0       ??$_Allocate@U?$_Tree_node@HPAX@std@@@std@@YAPAU?$_Tree_node@HPAX@0@IPAU10@@Z 0043aaa0 f i bncslink32mainwindowimpl.obj
 0002:00011b30       ??$_Allocate@U_Container_proxy@std@@@std@@YAPAU_Container_proxy@0@IPAU10@@Z 0043ab30 f i bncslink32mainwindowimpl.obj
 0002:00011bd0       ??$_Buynode@ABH@?$_Tree_buy@HV?$allocator@H@std@@@std@@QAEPAU?$_Tree_node@HPAX@1@ABH@Z 0043abd0 f i bncslink32mainwindowimpl.obj
 0002:00011d40       ??$_Buynode_if_nil@ABH@?$_Tree@V?$_Tset_traits@HU?$less@H@std@@V?$allocator@H@2@$0A@@std@@@std@@IAEPAU?$_Tree_node@HPAX@1@U_Nil@1@ABH@Z 0043ad40 f i bncslink32mainwindowimpl.obj
 0002:00011db0       ??$_Debug_lt_pred@U?$less@H@std@@ABHABH@std@@YA_NU?$less@H@0@ABH1PB_WI@Z 0043adb0 f i bncslink32mainwindowimpl.obj
 0002:00011e90       ??$_Insert_at@ABHU_Nil@std@@@?$_Tree@V?$_Tset_traits@HU?$less@H@std@@V?$allocator@H@2@$0A@@std@@@std@@IAE?AV?$_Tree_const_iterator@V?$_Tree_val@U?$_Tree_simple_types@H@std@@@std@@@1@_NPAU?$_Tree_node@HPAX@1@ABHU_Nil@1@@Z 0043ae90 f i bncslink32mainwindowimpl.obj
 0002:00012420       ??$_Insert_nohint@ABHU_Nil@std@@@?$_Tree@V?$_Tset_traits@HU?$less@H@std@@V?$allocator@H@2@$0A@@std@@@std@@IAE?AU?$pair@V?$_Tree_const_iterator@V?$_Tree_val@U?$_Tree_simple_types@H@std@@@std@@@std@@_N@1@_NABHU_Nil@1@@Z 0043b420 f i bncslink32mainwindowimpl.obj
 0002:00012b70       ??$_Move@AAD@std@@YA$$QADAAD@Z 0043bb70 f i bncslink32mainwindowimpl.obj
 0002:00012bb0       ??$addressof@H@std@@YAPAHAAH@Z 0043bbb0 f i bncslink32mainwindowimpl.obj
 0002:00012bf0       ??$addressof@PAU?$_Tree_node@HPAX@std@@@std@@YAPAPAU?$_Tree_node@HPAX@0@AAPAU10@@Z 0043bbf0 f i bncslink32mainwindowimpl.obj
 0002:00012c30       ??$construct@HABH@?$_Wrap_alloc@V?$allocator@U?$_Tree_node@HPAX@std@@@std@@@std@@QAEXPAHABH@Z 0043bc30 f i bncslink32mainwindowimpl.obj
 0002:00012ca0       ??$construct@HABH@?$allocator@U?$_Tree_node@HPAX@std@@@std@@QAEXPAHABH@Z 0043bca0 f i bncslink32mainwindowimpl.obj
 0002:00012da0       ??$construct@HABH@?$allocator_traits@V?$allocator@U?$_Tree_node@HPAX@std@@@std@@@std@@SAXAAV?$allocator@U?$_Tree_node@HPAX@std@@@1@PAHABH@Z 0043bda0 f i bncslink32mainwindowimpl.obj
 0002:00012e00       ??$construct@PAU?$_Tree_node@HPAX@std@@AAPAU12@@?$_Wrap_alloc@V?$allocator@U?$_Tree_node@HPAX@std@@@std@@@std@@QAEXPAPAU?$_Tree_node@HPAX@1@AAPAU21@@Z 0043be00 f i bncslink32mainwindowimpl.obj
 0002:00012e70       ??$construct@PAU?$_Tree_node@HPAX@std@@AAPAU12@@?$allocator@U?$_Tree_node@HPAX@std@@@std@@QAEXPAPAU?$_Tree_node@HPAX@1@AAPAU21@@Z 0043be70 f i bncslink32mainwindowimpl.obj
 0002:00012f70       ??$construct@PAU?$_Tree_node@HPAX@std@@AAPAU12@@?$allocator_traits@V?$allocator@U?$_Tree_node@HPAX@std@@@std@@@std@@SAXAAV?$allocator@U?$_Tree_node@HPAX@std@@@1@PAPAU?$_Tree_node@HPAX@1@AAPAU31@@Z 0043bf70 f i bncslink32mainwindowimpl.obj
 0002:00012fd0       ??$construct@U_Container_proxy@std@@U12@@?$_Wrap_alloc@V?$allocator@U_Container_proxy@std@@@std@@@std@@QAEXPAU_Container_proxy@1@$$QAU21@@Z 0043bfd0 f i bncslink32mainwindowimpl.obj
 0002:00013040       ??$construct@U_Container_proxy@std@@U12@@?$allocator@U_Container_proxy@std@@@std@@QAEXPAU_Container_proxy@1@$$QAU21@@Z 0043c040 f i bncslink32mainwindowimpl.obj
 0002:00013150       ??$construct@U_Container_proxy@std@@U12@@?$allocator_traits@V?$allocator@U_Container_proxy@std@@@std@@@std@@SAXAAV?$allocator@U_Container_proxy@std@@@1@PAU_Container_proxy@1@$$QAU31@@Z 0043c150 f i bncslink32mainwindowimpl.obj
 0002:000131b0       ??$destroy@H@?$_Wrap_alloc@V?$allocator@U?$_Tree_node@HPAX@std@@@std@@@std@@QAEXPAH@Z 0043c1b0 f i bncslink32mainwindowimpl.obj
 0002:00013210       ??$destroy@H@?$allocator@U?$_Tree_node@HPAX@std@@@std@@QAEXPAH@Z 0043c210 f i bncslink32mainwindowimpl.obj
 0002:00013250       ??$destroy@H@?$allocator_traits@V?$allocator@U?$_Tree_node@HPAX@std@@@std@@@std@@SAXAAV?$allocator@U?$_Tree_node@HPAX@std@@@1@PAH@Z 0043c250 f i bncslink32mainwindowimpl.obj
 0002:000132a0       ??$destroy@PAU?$_Tree_node@HPAX@std@@@?$_Wrap_alloc@V?$allocator@U?$_Tree_node@HPAX@std@@@std@@@std@@QAEXPAPAU?$_Tree_node@HPAX@1@@Z 0043c2a0 f i bncslink32mainwindowimpl.obj
 0002:00013300       ??$destroy@PAU?$_Tree_node@HPAX@std@@@?$allocator@U?$_Tree_node@HPAX@std@@@std@@QAEXPAPAU?$_Tree_node@HPAX@1@@Z 0043c300 f i bncslink32mainwindowimpl.obj
 0002:00013340       ??$destroy@PAU?$_Tree_node@HPAX@std@@@?$allocator_traits@V?$allocator@U?$_Tree_node@HPAX@std@@@std@@@std@@SAXAAV?$allocator@U?$_Tree_node@HPAX@std@@@1@PAPAU?$_Tree_node@HPAX@1@@Z 0043c340 f i bncslink32mainwindowimpl.obj
 0002:00013390       ??$destroy@U_Container_proxy@std@@@?$_Wrap_alloc@V?$allocator@U_Container_proxy@std@@@std@@@std@@QAEXPAU_Container_proxy@1@@Z 0043c390 f i bncslink32mainwindowimpl.obj
 0002:000133f0       ??$destroy@U_Container_proxy@std@@@?$allocator@U_Container_proxy@std@@@std@@QAEXPAU_Container_proxy@1@@Z 0043c3f0 f i bncslink32mainwindowimpl.obj
 0002:00013430       ??$destroy@U_Container_proxy@std@@@?$allocator_traits@V?$allocator@U_Container_proxy@std@@@std@@@std@@SAXAAV?$allocator@U_Container_proxy@std@@@1@PAU_Container_proxy@1@@Z 0043c430 f i bncslink32mainwindowimpl.obj
 0002:00013480       ??$forward@AAPAU?$_Tree_node@HPAX@std@@@std@@YAAAPAU?$_Tree_node@HPAX@0@AAPAU10@@Z 0043c480 f i bncslink32mainwindowimpl.obj
 0002:000134c0       ??$forward@AAV?$_Tree_const_iterator@V?$_Tree_val@U?$_Tree_simple_types@H@std@@@std@@@std@@@std@@YAAAV?$_Tree_const_iterator@V?$_Tree_val@U?$_Tree_simple_types@H@std@@@std@@@0@AAV10@@Z 0043c4c0 f i bncslink32mainwindowimpl.obj
 0002:00013500       ??$forward@ABH@std@@YAABHABH@Z 0043c500 f i bncslink32mainwindowimpl.obj
 0002:00013540       ??$forward@U_Container_proxy@std@@@std@@YA$$QAU_Container_proxy@0@AAU10@@Z 0043c540 f i bncslink32mainwindowimpl.obj
 0002:00013580       ??$forward@V?$_Tree_const_iterator@V?$_Tree_val@U?$_Tree_simple_types@H@std@@@std@@@std@@@std@@YA$$QAV?$_Tree_const_iterator@V?$_Tree_val@U?$_Tree_simple_types@H@std@@@std@@@0@AAV10@@Z 0043c580 f i bncslink32mainwindowimpl.obj
 0002:000135c0       ??$forward@_N@std@@YA$$QA_NAA_N@Z 0043c5c0 f i bncslink32mainwindowimpl.obj
 0002:00013600       ??$swap@D@std@@YAXAAD0@Z   0043c600 f i bncslink32mainwindowimpl.obj
 0002:000136c0       ??0?$QPtrQueue@VlistRouterCmd@@@@QAE@XZ 0043c6c0 f i bncslink32mainwindowimpl.obj
 0002:00013730       ??0?$_Iterator012@Ubidirectional_iterator_tag@std@@HHPBHABHU_Iterator_base12@2@@std@@QAE@ABU01@@Z 0043c730 f i bncslink32mainwindowimpl.obj
 0002:00013790       ??0?$_Iterator012@Ubidirectional_iterator_tag@std@@HHPBHABHU_Iterator_base12@2@@std@@QAE@XZ 0043c790 f i bncslink32mainwindowimpl.obj
 0002:000137f0       ??0?$_Tree@V?$_Tset_traits@HU?$less@H@std@@V?$allocator@H@2@$0A@@std@@@std@@QAE@ABU?$less@H@1@ABV?$allocator@H@1@@Z 0043c7f0 f i bncslink32mainwindowimpl.obj
 0002:00013850       ??0?$_Tree_alloc@$0A@U?$_Tree_base_types@HV?$allocator@H@std@@@std@@@std@@QAE@ABV?$allocator@H@1@@Z 0043c850 f i bncslink32mainwindowimpl.obj
 0002:00013950       ??0?$_Tree_buy@HV?$allocator@H@std@@@std@@QAE@ABV?$allocator@H@1@@Z 0043c950 f i bncslink32mainwindowimpl.obj
 0002:000139b0       ??0?$_Tree_comp@$0A@V?$_Tset_traits@HU?$less@H@std@@V?$allocator@H@2@$0A@@std@@@std@@QAE@ABU?$less@H@1@ABV?$allocator@H@1@@Z 0043c9b0 f i bncslink32mainwindowimpl.obj
 0002:00013a10       ??0?$_Tree_const_iterator@V?$_Tree_val@U?$_Tree_simple_types@H@std@@@std@@@std@@QAE@ABV01@@Z 0043ca10 f i bncslink32mainwindowimpl.obj
 0002:00013a70       ??0?$_Tree_const_iterator@V?$_Tree_val@U?$_Tree_simple_types@H@std@@@std@@@std@@QAE@PAU?$_Tree_node@HPAX@1@PBV?$_Tree_val@U?$_Tree_simple_types@H@std@@@1@@Z 0043ca70 f i bncslink32mainwindowimpl.obj
 0002:00013ad0       ??0?$_Tree_unchecked_const_iterator@V?$_Tree_val@U?$_Tree_simple_types@H@std@@@std@@U_Iterator_base12@2@@std@@QAE@ABV01@@Z 0043cad0 f i bncslink32mainwindowimpl.obj
 0002:00013b40       ??0?$_Tree_unchecked_const_iterator@V?$_Tree_val@U?$_Tree_simple_types@H@std@@@std@@U_Iterator_base12@2@@std@@QAE@PAU?$_Tree_node@HPAX@1@PBV?$_Tree_val@U?$_Tree_simple_types@H@std@@@1@@Z 0043cb40 f i bncslink32mainwindowimpl.obj
 0002:00013c00       ??0?$_Tree_val@U?$_Tree_simple_types@H@std@@@std@@QAE@XZ 0043cc00 f i bncslink32mainwindowimpl.obj
 0002:00013c80       ??0?$_Wrap_alloc@V?$allocator@U?$_Tree_node@HPAX@std@@@std@@@std@@QAE@XZ 0043cc80 f i bncslink32mainwindowimpl.obj
 0002:00013ce0       ??0?$allocator@H@std@@QAE@XZ 0043cce0 f i bncslink32mainwindowimpl.obj
 0002:00013d20       ??0?$allocator@U?$_Tree_node@HPAX@std@@@std@@QAE@XZ 0043cd20 f i bncslink32mainwindowimpl.obj
 0002:00013d60       ??0?$set@HU?$less@H@std@@V?$allocator@H@2@@std@@QAE@XZ 0043cd60 f i bncslink32mainwindowimpl.obj
 0002:00013dd0       ??0_Container_proxy@std@@QAE@XZ 0043cdd0 f i bncslink32mainwindowimpl.obj
 0002:00013e20       ??0_Iterator_base12@std@@QAE@ABU01@@Z 0043ce20 f i bncslink32mainwindowimpl.obj
 0002:00013ea0       ??0_Iterator_base12@std@@QAE@XZ 0043cea0 f i bncslink32mainwindowimpl.obj
 0002:00013ef0       ??0listRouterCmd@@QAE@HHHH@Z 0043cef0 f i bncslink32mainwindowimpl.obj
 0002:00013f70       ??1?$QPtrQueue@VlistRouterCmd@@@@UAE@XZ 0043cf70 f i bncslink32mainwindowimpl.obj
 0002:00014030       ??1?$_Iterator012@Ubidirectional_iterator_tag@std@@HHPBHABHU_Iterator_base12@2@@std@@QAE@XZ 0043d030 f i bncslink32mainwindowimpl.obj
 0002:00014080       ??1?$_Tree@V?$_Tset_traits@HU?$less@H@std@@V?$allocator@H@2@$0A@@std@@@std@@QAE@XZ 0043d080 f i bncslink32mainwindowimpl.obj
 0002:000140e0       ??1?$_Tree_alloc@$0A@U?$_Tree_base_types@HV?$allocator@H@std@@@std@@@std@@QAE@XZ 0043d0e0 f i bncslink32mainwindowimpl.obj
 0002:00014150       ??1?$_Tree_buy@HV?$allocator@H@std@@@std@@QAE@XZ 0043d150 f i bncslink32mainwindowimpl.obj
 0002:000141a0       ??1?$_Tree_comp@$0A@V?$_Tset_traits@HU?$less@H@std@@V?$allocator@H@2@$0A@@std@@@std@@QAE@XZ 0043d1a0 f i bncslink32mainwindowimpl.obj
 0002:000141f0       ??1?$_Tree_const_iterator@V?$_Tree_val@U?$_Tree_simple_types@H@std@@@std@@@std@@QAE@XZ 0043d1f0 f i bncslink32mainwindowimpl.obj
 0002:00014240       ??1?$_Tree_unchecked_const_iterator@V?$_Tree_val@U?$_Tree_simple_types@H@std@@@std@@U_Iterator_base12@2@@std@@QAE@XZ 0043d240 f i bncslink32mainwindowimpl.obj
 0002:00014290       ??1?$_Tree_val@U?$_Tree_simple_types@H@std@@@std@@QAE@XZ 0043d290 f i bncslink32mainwindowimpl.obj
 0002:000142f0       ??1?$pair@V?$_Tree_const_iterator@V?$_Tree_val@U?$_Tree_simple_types@H@std@@@std@@@std@@_N@std@@QAE@XZ 0043d2f0 f i bncslink32mainwindowimpl.obj
 0002:00014340       ??1?$set@HU?$less@H@std@@V?$allocator@H@2@@std@@QAE@XZ 0043d340 f i bncslink32mainwindowimpl.obj
 0002:00014390       ??1_Iterator_base12@std@@QAE@XZ 0043d390 f i bncslink32mainwindowimpl.obj
 0002:00014450       ??1listRouterCmd@@UAE@XZ   0043d450 f i bncslink32mainwindowimpl.obj
 0002:00014490       ??2@YAPAXIPAX@Z            0043d490 f i bncslink32mainwindowimpl.obj
 0002:000144d0       ??3@YAXPAX0@Z              0043d4d0 f i bncslink32mainwindowimpl.obj
 0002:00014500       ??4_Iterator_base12@std@@QAEAAU01@ABU01@@Z 0043d500 f i bncslink32mainwindowimpl.obj
 0002:00014640       ??8?$_Tree_const_iterator@V?$_Tree_val@U?$_Tree_simple_types@H@std@@@std@@@std@@QBE_NABV01@@Z 0043d640 f i bncslink32mainwindowimpl.obj
 0002:000147a0       ??9?$_Tree_const_iterator@V?$_Tree_val@U?$_Tree_simple_types@H@std@@@std@@@std@@QBE_NABV01@@Z 0043d7a0 f i bncslink32mainwindowimpl.obj
 0002:00014830       ??E?$_Tree_const_iterator@V?$_Tree_val@U?$_Tree_simple_types@H@std@@@std@@@std@@QAE?AV01@H@Z 0043d830 f i bncslink32mainwindowimpl.obj
 0002:00014950       ??E?$_Tree_const_iterator@V?$_Tree_val@U?$_Tree_simple_types@H@std@@@std@@@std@@QAEAAV01@XZ 0043d950 f i bncslink32mainwindowimpl.obj
 0002:00014a90       ??E?$_Tree_unchecked_const_iterator@V?$_Tree_val@U?$_Tree_simple_types@H@std@@@std@@U_Iterator_base12@2@@std@@QAEAAV01@XZ 0043da90 f i bncslink32mainwindowimpl.obj
 0002:00014bc0       ??F?$_Tree_const_iterator@V?$_Tree_val@U?$_Tree_simple_types@H@std@@@std@@@std@@QAEAAV01@XZ 0043dbc0 f i bncslink32mainwindowimpl.obj
 0002:00014da0       ??F?$_Tree_unchecked_const_iterator@V?$_Tree_val@U?$_Tree_simple_types@H@std@@@std@@U_Iterator_base12@2@@std@@QAEAAV01@XZ 0043dda0 f i bncslink32mainwindowimpl.obj
 0002:00014f00       ??R?$less@H@std@@QBE_NABH0@Z 0043df00 f i bncslink32mainwindowimpl.obj
 0002:00014f69       ??_Ebncslink32MainWindowImpl@@WCI@AEPAXI@Z 0043df69 f i bncslink32mainwindowimpl.obj
 0002:00014f80       ??_E?$QPtrQueue@VlistRouterCmd@@@@UAEPAXI@Z 0043df80 f i bncslink32mainwindowimpl.obj
 0002:00014f80       ??_G?$QPtrQueue@VlistRouterCmd@@@@UAEPAXI@Z 0043df80 f i bncslink32mainwindowimpl.obj
 0002:00014ff0       ??_Gbncslink32MainWindowImpl@@UAEPAXI@Z 0043dff0 f i bncslink32mainwindowimpl.obj
 0002:00014ff0       ??_Ebncslink32MainWindowImpl@@UAEPAXI@Z 0043dff0 f i bncslink32mainwindowimpl.obj
 0002:00015060       ??_GlistRouterCmd@@UAEPAXI@Z 0043e060 f i bncslink32mainwindowimpl.obj
 0002:00015060       ??_ElistRouterCmd@@UAEPAXI@Z 0043e060 f i bncslink32mainwindowimpl.obj
 0002:000150d0       ?_Adopt@_Iterator_base12@std@@QAEXPBU_Container_base12@2@@Z 0043e0d0 f i bncslink32mainwindowimpl.obj
 0002:00015280       ?_Alloc_proxy@?$_Tree_alloc@$0A@U?$_Tree_base_types@HV?$allocator@H@std@@@std@@@std@@QAEXXZ 0043e280 f i bncslink32mainwindowimpl.obj
 0002:00015360       ?_Buyheadnode@?$_Tree_alloc@$0A@U?$_Tree_base_types@HV?$allocator@H@std@@@std@@@std@@QAEPAU?$_Tree_node@HPAX@2@XZ 0043e360 f i bncslink32mainwindowimpl.obj
 0002:000155c0       ?_Buynode0@?$_Tree_buy@HV?$allocator@H@std@@@std@@QAEPAU?$_Tree_node@HPAX@2@XZ 0043e5c0 f i bncslink32mainwindowimpl.obj
 0002:000157d0       ?_Clrcont@_Iterator_base12@std@@QAEXXZ 0043e7d0 f i bncslink32mainwindowimpl.obj
 0002:00015810       ?_Color@?$_Tree_val@U?$_Tree_simple_types@H@std@@@std@@SAAADPAU?$_Tree_node@HPAX@2@@Z 0043e810 f i bncslink32mainwindowimpl.obj
 0002:00015850       ?_Destroy_if_not_nil@?$_Tree@V?$_Tset_traits@HU?$less@H@std@@V?$allocator@H@2@$0A@@std@@@std@@IAEXU_Nil@2@@Z 0043e850 f i bncslink32mainwindowimpl.obj
 0002:00015890       ?_Erase@?$_Tree@V?$_Tset_traits@HU?$less@H@std@@V?$allocator@H@2@$0A@@std@@@std@@IAEXPAU?$_Tree_node@HPAX@2@@Z 0043e890 f i bncslink32mainwindowimpl.obj
 0002:000159a0       ?_Free_proxy@?$_Tree_alloc@$0A@U?$_Tree_base_types@HV?$allocator@H@std@@@std@@@std@@QAEXXZ 0043e9a0 f i bncslink32mainwindowimpl.obj
 0002:00015a90       ?_Freeheadnode@?$_Tree_alloc@$0A@U?$_Tree_base_types@HV?$allocator@H@std@@@std@@@std@@QAEXPAU?$_Tree_node@HPAX@2@@Z 0043ea90 f i bncslink32mainwindowimpl.obj
 0002:00015ba0       ?_Freenode0@?$_Tree_buy@HV?$allocator@H@std@@@std@@QAEXPAU?$_Tree_node@HPAX@2@@Z 0043eba0 f i bncslink32mainwindowimpl.obj
 0002:00015cb0       ?_Getal@?$_Tree_alloc@$0A@U?$_Tree_base_types@HV?$allocator@H@std@@@std@@@std@@QBE?AU?$_Wrap_alloc@V?$allocator@U?$_Tree_node@HPAX@std@@@std@@@2@XZ 0043ecb0 f i bncslink32mainwindowimpl.obj
 0002:00015d10       ?_Getcomp@?$_Tree_comp@$0A@V?$_Tset_traits@HU?$less@H@std@@V?$allocator@H@2@$0A@@std@@@std@@QBE?AU?$less@H@2@XZ 0043ed10 f i bncslink32mainwindowimpl.obj
 0002:00015d50       ?_Getcont@_Iterator_base12@std@@QBEPBU_Container_base12@2@XZ 0043ed50 f i bncslink32mainwindowimpl.obj
 0002:00015dc0       ?_Getpnext@_Iterator_base12@std@@QAEPAPAU12@XZ 0043edc0 f i bncslink32mainwindowimpl.obj
 0002:00015e00       ?_Isnil@?$_Tree_val@U?$_Tree_simple_types@H@std@@@std@@SAAADPAU?$_Tree_node@HPAX@2@@Z 0043ee00 f i bncslink32mainwindowimpl.obj
 0002:00015e40       ?_Key@?$_Tree@V?$_Tset_traits@HU?$less@H@std@@V?$allocator@H@2@$0A@@std@@@std@@IBEABHPAU?$_Tree_node@HPAX@2@@Z 0043ee40 f i bncslink32mainwindowimpl.obj
 0002:00015eb0       ?_Kfn@?$_Tree@V?$_Tset_traits@HU?$less@H@std@@V?$allocator@H@2@$0A@@std@@@std@@IBEABHABH@Z 0043eeb0 f i bncslink32mainwindowimpl.obj
 0002:00015f10       ?_Kfn@?$_Tset_traits@HU?$less@H@std@@V?$allocator@H@2@$0A@@std@@SAABHABH@Z 0043ef10 f i bncslink32mainwindowimpl.obj
 0002:00015f50       ?_Left@?$_Tree_val@U?$_Tree_simple_types@H@std@@@std@@SAAAPAU?$_Tree_node@HPAX@2@PAU32@@Z 0043ef50 f i bncslink32mainwindowimpl.obj
 0002:00015f90       ?_Lmost@?$_Tree@V?$_Tset_traits@HU?$less@H@std@@V?$allocator@H@2@$0A@@std@@@std@@IBEAAPAU?$_Tree_node@HPAX@2@XZ 0043ef90 f i bncslink32mainwindowimpl.obj
 0002:00015ff0       ?_Lrotate@?$_Tree@V?$_Tset_traits@HU?$less@H@std@@V?$allocator@H@2@$0A@@std@@@std@@IAEXPAU?$_Tree_node@HPAX@2@@Z 0043eff0 f i bncslink32mainwindowimpl.obj
 0002:000161a0       ?_Max@?$_Tree_val@U?$_Tree_simple_types@H@std@@@std@@SAPAU?$_Tree_node@HPAX@2@PAU32@@Z 0043f1a0 f i bncslink32mainwindowimpl.obj
 0002:00016220       ?_Min@?$_Tree_val@U?$_Tree_simple_types@H@std@@@std@@SAPAU?$_Tree_node@HPAX@2@PAU32@@Z 0043f220 f i bncslink32mainwindowimpl.obj
 0002:000162a0       ?_Mynode@?$_Tree_unchecked_const_iterator@V?$_Tree_val@U?$_Tree_simple_types@H@std@@@std@@U_Iterator_base12@2@@std@@QBEPAU?$_Tree_node@HPAX@2@XZ 0043f2a0 f i bncslink32mainwindowimpl.obj
 0002:000162e0       ?_Myval@?$_Tree_val@U?$_Tree_simple_types@H@std@@@std@@SAAAHPAU?$_Tree_node@HPAX@2@@Z 0043f2e0 f i bncslink32mainwindowimpl.obj
 0002:00016320       ?_Orphan_me@_Iterator_base12@std@@QAEXXZ 0043f320 f i bncslink32mainwindowimpl.obj
 0002:000163f0       ?_Orphan_ptr@?$_Tree@V?$_Tset_traits@HU?$less@H@std@@V?$allocator@H@2@$0A@@std@@@std@@IBEXAAV12@PAU?$_Tree_node@HPAX@2@@Z 0043f3f0 f i bncslink32mainwindowimpl.obj
 0002:00016580       ?_Parent@?$_Tree_val@U?$_Tree_simple_types@H@std@@@std@@SAAAPAU?$_Tree_node@HPAX@2@PAU32@@Z 0043f580 f i bncslink32mainwindowimpl.obj
 0002:000165c0       ?_Right@?$_Tree_val@U?$_Tree_simple_types@H@std@@@std@@SAAAPAU?$_Tree_node@HPAX@2@PAU32@@Z 0043f5c0 f i bncslink32mainwindowimpl.obj
 0002:00016600       ?_Rmost@?$_Tree@V?$_Tset_traits@HU?$less@H@std@@V?$allocator@H@2@$0A@@std@@@std@@IBEAAPAU?$_Tree_node@HPAX@2@XZ 0043f600 f i bncslink32mainwindowimpl.obj
 0002:00016660       ?_Root@?$_Tree@V?$_Tset_traits@HU?$less@H@std@@V?$allocator@H@2@$0A@@std@@@std@@IBEAAPAU?$_Tree_node@HPAX@2@XZ 0043f660 f i bncslink32mainwindowimpl.obj
 0002:000166c0       ?_Rrotate@?$_Tree@V?$_Tset_traits@HU?$less@H@std@@V?$allocator@H@2@$0A@@std@@@std@@IAEXPAU?$_Tree_node@HPAX@2@@Z 0043f6c0 f i bncslink32mainwindowimpl.obj
 0002:00016870       ?_Tidy@?$_Tree@V?$_Tset_traits@HU?$less@H@std@@V?$allocator@H@2@$0A@@std@@@std@@IAEXXZ 0043f870 f i bncslink32mainwindowimpl.obj
 0002:00016920       ?allocate@?$_Wrap_alloc@V?$allocator@U?$_Tree_node@HPAX@std@@@std@@@std@@QAEPAU?$_Tree_node@HPAX@2@I@Z 0043f920 f i bncslink32mainwindowimpl.obj
 0002:00016980       ?allocate@?$_Wrap_alloc@V?$allocator@U_Container_proxy@std@@@std@@@std@@QAEPAU_Container_proxy@2@I@Z 0043f980 f i bncslink32mainwindowimpl.obj
 0002:000169e0       ?allocate@?$allocator@U?$_Tree_node@HPAX@std@@@std@@QAEPAU?$_Tree_node@HPAX@2@I@Z 0043f9e0 f i bncslink32mainwindowimpl.obj
 0002:00016a40       ?allocate@?$allocator@U_Container_proxy@std@@@std@@QAEPAU_Container_proxy@2@I@Z 0043fa40 f i bncslink32mainwindowimpl.obj
 0002:00016aa0       ?begin@?$_Tree@V?$_Tset_traits@HU?$less@H@std@@V?$allocator@H@2@$0A@@std@@@std@@QAE?AV?$_Tree_const_iterator@V?$_Tree_val@U?$_Tree_simple_types@H@std@@@std@@@2@XZ 0043faa0 f i bncslink32mainwindowimpl.obj
 0002:00016b10       ?clear@?$QPtrQueue@VlistRouterCmd@@@@UAEXXZ 0043fb10 f i bncslink32mainwindowimpl.obj
 0002:00016b70       ?clear@?$_Tree@V?$_Tset_traits@HU?$less@H@std@@V?$allocator@H@2@$0A@@std@@@std@@QAEXXZ 0043fb70 f i bncslink32mainwindowimpl.obj
 0002:00016c30       ?count@?$QPtrQueue@VlistRouterCmd@@@@UBEIXZ 0043fc30 f i bncslink32mainwindowimpl.obj
 0002:00016c90       ?deallocate@?$_Wrap_alloc@V?$allocator@U?$_Tree_node@HPAX@std@@@std@@@std@@QAEXPAU?$_Tree_node@HPAX@2@I@Z 0043fc90 f i bncslink32mainwindowimpl.obj
 0002:00016cf0       ?deallocate@?$_Wrap_alloc@V?$allocator@U_Container_proxy@std@@@std@@@std@@QAEXPAU_Container_proxy@2@I@Z 0043fcf0 f i bncslink32mainwindowimpl.obj
 0002:00016d50       ?deallocate@?$allocator@U?$_Tree_node@HPAX@std@@@std@@QAEXPAU?$_Tree_node@HPAX@2@I@Z 0043fd50 f i bncslink32mainwindowimpl.obj
 0002:00016db0       ?deallocate@?$allocator@U_Container_proxy@std@@@std@@QAEXPAU_Container_proxy@2@I@Z 0043fdb0 f i bncslink32mainwindowimpl.obj
 0002:00016e10       ?deleteItem@?$QPtrQueue@VlistRouterCmd@@@@EAEXPAX@Z 0043fe10 f i bncslink32mainwindowimpl.obj
 0002:00016ed0       ?dequeue@?$QPtrQueue@VlistRouterCmd@@@@QAEPAVlistRouterCmd@@XZ 0043fed0 f i bncslink32mainwindowimpl.obj
 0002:00016f30       ?end@?$_Tree@V?$_Tset_traits@HU?$less@H@std@@V?$allocator@H@2@$0A@@std@@@std@@QAE?AV?$_Tree_const_iterator@V?$_Tree_val@U?$_Tree_simple_types@H@std@@@std@@@2@XZ 0043ff30 f i bncslink32mainwindowimpl.obj
 0002:00016fa0       ?enqueue@?$QPtrQueue@VlistRouterCmd@@@@QAEXPBVlistRouterCmd@@@Z 0043ffa0 f i bncslink32mainwindowimpl.obj
 0002:00017010       ?erase@?$_Tree@V?$_Tset_traits@HU?$less@H@std@@V?$allocator@H@2@$0A@@std@@@std@@QAE?AV?$_Tree_const_iterator@V?$_Tree_val@U?$_Tree_simple_types@H@std@@@std@@@2@V32@0@Z 00440010 f i bncslink32mainwindowimpl.obj
 0002:00017330       ?erase@?$_Tree@V?$_Tset_traits@HU?$less@H@std@@V?$allocator@H@2@$0A@@std@@@std@@QAE?AV?$_Tree_const_iterator@V?$_Tree_val@U?$_Tree_simple_types@H@std@@@std@@@2@V32@@Z 00440330 f i bncslink32mainwindowimpl.obj
 0002:00017db0       ?insert@?$_Tree@V?$_Tset_traits@HU?$less@H@std@@V?$allocator@H@2@$0A@@std@@@std@@QAE?AU?$pair@V?$_Tree_const_iterator@V?$_Tree_val@U?$_Tree_simple_types@H@std@@@std@@@std@@_N@2@ABH@Z 00440db0 f i bncslink32mainwindowimpl.obj
 0002:00017e40       ?insert@?$set@HU?$less@H@std@@V?$allocator@H@2@@std@@QAE?AU?$pair@V?$_Tree_const_iterator@V?$_Tree_val@U?$_Tree_simple_types@H@std@@@std@@@std@@_N@2@ABH@Z 00440e40 f i bncslink32mainwindowimpl.obj
 0002:00017ec0       ?max_size@?$_Tree@V?$_Tset_traits@HU?$less@H@std@@V?$allocator@H@2@$0A@@std@@@std@@QBEIXZ 00440ec0 f i bncslink32mainwindowimpl.obj
 0002:00017f20       ?max_size@?$_Wrap_alloc@V?$allocator@U?$_Tree_node@HPAX@std@@@std@@@std@@QBEIXZ 00440f20 f i bncslink32mainwindowimpl.obj
 0002:00017f80       ?max_size@?$allocator@U?$_Tree_node@HPAX@std@@@std@@QBEIXZ 00440f80 f i bncslink32mainwindowimpl.obj
 0002:00017fc0       ?max_size@?$allocator_traits@V?$allocator@U?$_Tree_node@HPAX@std@@@std@@@std@@SAIABV?$allocator@U?$_Tree_node@HPAX@std@@@2@@Z 00440fc0 f i bncslink32mainwindowimpl.obj
 0002:00018010       ?metaObject@bncslink32MainWindowImpl@@UBEPAVQMetaObject@@XZ 00441010 f i bncslink32mainwindowimpl.obj
 0002:00018060       ?strstr@@YAPADPADPBD@Z     00441060 f i bncslink32mainwindowimpl.obj
 0002:000180c0       _hypot                     004410c0 f i bncslink32mainwindowimpl.obj
 0002:00018140       ??1clientsRegistration@@UAE@XZ 00441140 f   clientsRegistration.obj
 0002:000182d0       ??0clientsRegistration@@QAE@XZ 004412d0 f   clientsRegistration.obj
 0002:00018320       ?addRegistration@clientsRegistration@@QAEXVclientIPC@@III_N@Z 00441320 f   clientsRegistration.obj
 0002:000183a0       ?deleteRegistration@clientsRegistration@@QAEXVclientIPC@@III@Z 004413a0 f   clientsRegistration.obj
 0002:000185b0       ?deleteAllRegistrations@clientsRegistration@@QAEXVclientIPC@@I@Z 004415b0 f   clientsRegistration.obj
 0002:000187d0       ?getClientList@clientsRegistration@@QAEXIIAAV?$list@VclientIPC@@V?$allocator@VclientIPC@@@std@@@std@@@Z 004417d0 f   clientsRegistration.obj
 0002:00018970       ?getClientList@clientsRegistration@@QAEXIAAV?$list@VclientIPC@@V?$allocator@VclientIPC@@@std@@@std@@@Z 00441970 f   clientsRegistration.obj
 0002:00018af0       ?getRationalisedReg@clientsRegistration@@QAEXIAAI0@Z 00441af0 f   clientsRegistration.obj
 0002:00018ce0       ?registrationCount@clientsRegistration@@QAEIXZ 00441ce0 f   clientsRegistration.obj
 0002:00018d30       ?getRegForClient@clientsRegistration@@QAEXVclientIPC@@V?$list@IV?$allocator@I@std@@@std@@@Z 00441d30 f   clientsRegistration.obj
 0002:00018ee0       ?getRegObject@clientsRegistration@@AAEPAVsingleReg@@VclientIPC@@I_N@Z 00441ee0 f   clientsRegistration.obj
 0002:00019520       ??$_Allocate@U?$_List_node@IPAX@std@@@std@@YAPAU?$_List_node@IPAX@0@IPAU10@@Z 00442520 f i clientsRegistration.obj
 0002:000195b0       ??$_Allocate@U?$_List_node@PAVsingleReg@@PAX@std@@@std@@YAPAU?$_List_node@PAVsingleReg@@PAX@0@IPAU10@@Z 004425b0 f i clientsRegistration.obj
 0002:00019640       ??$_Allocate@U?$_List_node@VclientIPC@@PAX@std@@@std@@YAPAU?$_List_node@VclientIPC@@PAX@0@IPAU10@@Z 00442640 f i clientsRegistration.obj
 0002:000196e0       ??$_Buynode@ABQAVsingleReg@@@?$_List_buy@PAVsingleReg@@V?$allocator@PAVsingleReg@@@std@@@std@@QAEPAU?$_List_node@PAVsingleReg@@PAX@1@PAU21@0ABQAVsingleReg@@@Z 004426e0 f i clientsRegistration.obj
 0002:00019850       ??$_Buynode@I@?$_List_buy@IV?$allocator@I@std@@@std@@QAEPAU?$_List_node@IPAX@1@PAU21@0$$QAI@Z 00442850 f i clientsRegistration.obj
 0002:000199c0       ??$_Buynode@VclientIPC@@@?$_List_buy@VclientIPC@@V?$allocator@VclientIPC@@@std@@@std@@QAEPAU?$_List_node@VclientIPC@@PAX@1@PAU21@0$$QAVclientIPC@@@Z 004429c0 f i clientsRegistration.obj
 0002:00019b30       ??$_Insert@ABQAVsingleReg@@@?$list@PAVsingleReg@@V?$allocator@PAVsingleReg@@@std@@@std@@QAEXV?$_List_unchecked_const_iterator@V?$_List_val@U?$_List_simple_types@PAVsingleReg@@@std@@@std@@U_Iterator_base0@2@@1@ABQAVsingleReg@@@Z 00442b30 f i clientsRegistration.obj
 0002:00019c00       ??$_Insert@I@?$list@IV?$allocator@I@std@@@std@@QAEXV?$_List_unchecked_const_iterator@V?$_List_val@U?$_List_simple_types@I@std@@@std@@U_Iterator_base0@2@@1@$$QAI@Z 00442c00 f i clientsRegistration.obj
 0002:00019cd0       ??$_Insert@VclientIPC@@@?$list@VclientIPC@@V?$allocator@VclientIPC@@@std@@@std@@QAEXV?$_List_unchecked_const_iterator@V?$_List_val@U?$_List_simple_types@VclientIPC@@@std@@@std@@U_Iterator_base0@2@@1@$$QAVclientIPC@@@Z 00442cd0 f i clientsRegistration.obj
 0002:00019da0       ??$addressof@I@std@@YAPAIAAI@Z 00442da0 f i clientsRegistration.obj
 0002:00019de0       ??$addressof@PAU?$_List_node@IPAX@std@@@std@@YAPAPAU?$_List_node@IPAX@0@AAPAU10@@Z 00442de0 f i clientsRegistration.obj
 0002:00019e20       ??$addressof@PAU?$_List_node@PAVsingleReg@@PAX@std@@@std@@YAPAPAU?$_List_node@PAVsingleReg@@PAX@0@AAPAU10@@Z 00442e20 f i clientsRegistration.obj
 0002:00019e60       ??$addressof@PAU?$_List_node@VclientIPC@@PAX@std@@@std@@YAPAPAU?$_List_node@VclientIPC@@PAX@0@AAPAU10@@Z 00442e60 f i clientsRegistration.obj
 0002:00019ea0       ??$addressof@PAVsingleReg@@@std@@YAPAPAVsingleReg@@AAPAV1@@Z 00442ea0 f i clientsRegistration.obj
 0002:00019ee0       ??$addressof@VclientIPC@@@std@@YAPAVclientIPC@@AAV1@@Z 00442ee0 f i clientsRegistration.obj
 0002:00019f20       ??$construct@II@?$_Wrap_alloc@V?$allocator@U?$_List_node@IPAX@std@@@std@@@std@@QAEXPAI$$QAI@Z 00442f20 f i clientsRegistration.obj
 0002:00019f90       ??$construct@II@?$allocator@U?$_List_node@IPAX@std@@@std@@QAEXPAI$$QAI@Z 00442f90 f i clientsRegistration.obj
 0002:0001a090       ??$construct@II@?$allocator_traits@V?$allocator@U?$_List_node@IPAX@std@@@std@@@std@@SAXAAV?$allocator@U?$_List_node@IPAX@std@@@1@PAI$$QAI@Z 00443090 f i clientsRegistration.obj
 0002:0001a0f0       ??$construct@PAU?$_List_node@IPAX@std@@AAPAU12@@?$_Wrap_alloc@V?$allocator@U?$_List_node@IPAX@std@@@std@@@std@@QAEXPAPAU?$_List_node@IPAX@1@AAPAU21@@Z 004430f0 f i clientsRegistration.obj
 0002:0001a160       ??$construct@PAU?$_List_node@IPAX@std@@AAPAU12@@?$allocator@U?$_List_node@IPAX@std@@@std@@QAEXPAPAU?$_List_node@IPAX@1@AAPAU21@@Z 00443160 f i clientsRegistration.obj
 0002:0001a260       ??$construct@PAU?$_List_node@IPAX@std@@AAPAU12@@?$allocator_traits@V?$allocator@U?$_List_node@IPAX@std@@@std@@@std@@SAXAAV?$allocator@U?$_List_node@IPAX@std@@@1@PAPAU?$_List_node@IPAX@1@AAPAU31@@Z 00443260 f i clientsRegistration.obj
 0002:0001a2c0       ??$construct@PAU?$_List_node@PAVsingleReg@@PAX@std@@AAPAU12@@?$_Wrap_alloc@V?$allocator@U?$_List_node@PAVsingleReg@@PAX@std@@@std@@@std@@QAEXPAPAU?$_List_node@PAVsingleReg@@PAX@1@AAPAU21@@Z 004432c0 f i clientsRegistration.obj
 0002:0001a330       ??$construct@PAU?$_List_node@PAVsingleReg@@PAX@std@@AAPAU12@@?$allocator@U?$_List_node@PAVsingleReg@@PAX@std@@@std@@QAEXPAPAU?$_List_node@PAVsingleReg@@PAX@1@AAPAU21@@Z 00443330 f i clientsRegistration.obj
 0002:0001a430       ??$construct@PAU?$_List_node@PAVsingleReg@@PAX@std@@AAPAU12@@?$allocator_traits@V?$allocator@U?$_List_node@PAVsingleReg@@PAX@std@@@std@@@std@@SAXAAV?$allocator@U?$_List_node@PAVsingleReg@@PAX@std@@@1@PAPAU?$_List_node@PAVsingleReg@@PAX@1@AAPAU31@@Z 00443430 f i clientsRegistration.obj
 0002:0001a490       ??$construct@PAU?$_List_node@VclientIPC@@PAX@std@@AAPAU12@@?$_Wrap_alloc@V?$allocator@U?$_List_node@VclientIPC@@PAX@std@@@std@@@std@@QAEXPAPAU?$_List_node@VclientIPC@@PAX@1@AAPAU21@@Z 00443490 f i clientsRegistration.obj
 0002:0001a500       ??$construct@PAU?$_List_node@VclientIPC@@PAX@std@@AAPAU12@@?$allocator@U?$_List_node@VclientIPC@@PAX@std@@@std@@QAEXPAPAU?$_List_node@VclientIPC@@PAX@1@AAPAU21@@Z 00443500 f i clientsRegistration.obj
 0002:0001a600       ??$construct@PAU?$_List_node@VclientIPC@@PAX@std@@AAPAU12@@?$allocator_traits@V?$allocator@U?$_List_node@VclientIPC@@PAX@std@@@std@@@std@@SAXAAV?$allocator@U?$_List_node@VclientIPC@@PAX@std@@@1@PAPAU?$_List_node@VclientIPC@@PAX@1@AAPAU31@@Z 00443600 f i clientsRegistration.obj
 0002:0001a660       ??$construct@PAVsingleReg@@ABQAV1@@?$_Wrap_alloc@V?$allocator@U?$_List_node@PAVsingleReg@@PAX@std@@@std@@@std@@QAEXPAPAVsingleReg@@ABQAV2@@Z 00443660 f i clientsRegistration.obj
 0002:0001a6d0       ??$construct@PAVsingleReg@@ABQAV1@@?$allocator@U?$_List_node@PAVsingleReg@@PAX@std@@@std@@QAEXPAPAVsingleReg@@ABQAV2@@Z 004436d0 f i clientsRegistration.obj
 0002:0001a7d0       ??$construct@PAVsingleReg@@ABQAV1@@?$allocator_traits@V?$allocator@U?$_List_node@PAVsingleReg@@PAX@std@@@std@@@std@@SAXAAV?$allocator@U?$_List_node@PAVsingleReg@@PAX@std@@@1@PAPAVsingleReg@@ABQAV3@@Z 004437d0 f i clientsRegistration.obj
 0002:0001a830       ??$construct@VclientIPC@@V1@@?$_Wrap_alloc@V?$allocator@U?$_List_node@VclientIPC@@PAX@std@@@std@@@std@@QAEXPAVclientIPC@@$$QAV2@@Z 00443830 f i clientsRegistration.obj
 0002:0001a8a0       ??$construct@VclientIPC@@V1@@?$allocator@U?$_List_node@VclientIPC@@PAX@std@@@std@@QAEXPAVclientIPC@@$$QAV2@@Z 004438a0 f i clientsRegistration.obj
 0002:0001a9b0       ??$construct@VclientIPC@@V1@@?$allocator_traits@V?$allocator@U?$_List_node@VclientIPC@@PAX@std@@@std@@@std@@SAXAAV?$allocator@U?$_List_node@VclientIPC@@PAX@std@@@1@PAVclientIPC@@$$QAV3@@Z 004439b0 f i clientsRegistration.obj
 0002:0001aa10       ??$destroy@I@?$_Wrap_alloc@V?$allocator@U?$_List_node@IPAX@std@@@std@@@std@@QAEXPAI@Z 00443a10 f i clientsRegistration.obj
 0002:0001aa70       ??$destroy@I@?$allocator@U?$_List_node@IPAX@std@@@std@@QAEXPAI@Z 00443a70 f i clientsRegistration.obj
 0002:0001aab0       ??$destroy@I@?$allocator_traits@V?$allocator@U?$_List_node@IPAX@std@@@std@@@std@@SAXAAV?$allocator@U?$_List_node@IPAX@std@@@1@PAI@Z 00443ab0 f i clientsRegistration.obj
 0002:0001ab00       ??$destroy@PAU?$_List_node@IPAX@std@@@?$_Wrap_alloc@V?$allocator@U?$_List_node@IPAX@std@@@std@@@std@@QAEXPAPAU?$_List_node@IPAX@1@@Z 00443b00 f i clientsRegistration.obj
 0002:0001ab60       ??$destroy@PAU?$_List_node@IPAX@std@@@?$allocator@U?$_List_node@IPAX@std@@@std@@QAEXPAPAU?$_List_node@IPAX@1@@Z 00443b60 f i clientsRegistration.obj
 0002:0001aba0       ??$destroy@PAU?$_List_node@IPAX@std@@@?$allocator_traits@V?$allocator@U?$_List_node@IPAX@std@@@std@@@std@@SAXAAV?$allocator@U?$_List_node@IPAX@std@@@1@PAPAU?$_List_node@IPAX@1@@Z 00443ba0 f i clientsRegistration.obj
 0002:0001abf0       ??$destroy@PAU?$_List_node@PAVsingleReg@@PAX@std@@@?$_Wrap_alloc@V?$allocator@U?$_List_node@PAVsingleReg@@PAX@std@@@std@@@std@@QAEXPAPAU?$_List_node@PAVsingleReg@@PAX@1@@Z 00443bf0 f i clientsRegistration.obj
 0002:0001ac50       ??$destroy@PAU?$_List_node@PAVsingleReg@@PAX@std@@@?$allocator@U?$_List_node@PAVsingleReg@@PAX@std@@@std@@QAEXPAPAU?$_List_node@PAVsingleReg@@PAX@1@@Z 00443c50 f i clientsRegistration.obj
 0002:0001ac90       ??$destroy@PAU?$_List_node@PAVsingleReg@@PAX@std@@@?$allocator_traits@V?$allocator@U?$_List_node@PAVsingleReg@@PAX@std@@@std@@@std@@SAXAAV?$allocator@U?$_List_node@PAVsingleReg@@PAX@std@@@1@PAPAU?$_List_node@PAVsingleReg@@PAX@1@@Z 00443c90 f i clientsRegistration.obj
 0002:0001ace0       ??$destroy@PAVsingleReg@@@?$_Wrap_alloc@V?$allocator@U?$_List_node@PAVsingleReg@@PAX@std@@@std@@@std@@QAEXPAPAVsingleReg@@@Z 00443ce0 f i clientsRegistration.obj
 0002:0001ad40       ??$destroy@PAVsingleReg@@@?$allocator@U?$_List_node@PAVsingleReg@@PAX@std@@@std@@QAEXPAPAVsingleReg@@@Z 00443d40 f i clientsRegistration.obj
 0002:0001ad80       ??$destroy@PAVsingleReg@@@?$allocator_traits@V?$allocator@U?$_List_node@PAVsingleReg@@PAX@std@@@std@@@std@@SAXAAV?$allocator@U?$_List_node@PAVsingleReg@@PAX@std@@@1@PAPAVsingleReg@@@Z 00443d80 f i clientsRegistration.obj
 0002:0001add0       ??$forward@AAPAU?$_List_node@IPAX@std@@@std@@YAAAPAU?$_List_node@IPAX@0@AAPAU10@@Z 00443dd0 f i clientsRegistration.obj
 0002:0001ae10       ??$forward@AAPAU?$_List_node@PAVsingleReg@@PAX@std@@@std@@YAAAPAU?$_List_node@PAVsingleReg@@PAX@0@AAPAU10@@Z 00443e10 f i clientsRegistration.obj
 0002:0001ae50       ??$forward@AAPAU?$_List_node@VclientIPC@@PAX@std@@@std@@YAAAPAU?$_List_node@VclientIPC@@PAX@0@AAPAU10@@Z 00443e50 f i clientsRegistration.obj
 0002:0001ae90       ??$forward@ABQAVsingleReg@@@std@@YAABQAVsingleReg@@ABQAV1@@Z 00443e90 f i clientsRegistration.obj
 0002:0001aed0       ??$forward@I@std@@YA$$QAIAAI@Z 00443ed0 f i clientsRegistration.obj
 0002:0001af10       ??$forward@VclientIPC@@@std@@YA$$QAVclientIPC@@AAV1@@Z 00443f10 f i clientsRegistration.obj
 0002:0001af50       ??0?$_Iterator012@Ubidirectional_iterator_tag@std@@PAVsingleReg@@HPBQAV3@ABQAV3@U_Iterator_base12@2@@std@@QAE@ABU01@@Z 00443f50 f i clientsRegistration.obj
 0002:0001afb0       ??0?$_Iterator012@Ubidirectional_iterator_tag@std@@PAVsingleReg@@HPBQAV3@ABQAV3@U_Iterator_base12@2@@std@@QAE@XZ 00443fb0 f i clientsRegistration.obj
 0002:0001b010       ??0?$_List_alloc@$0A@U?$_List_base_types@PAVsingleReg@@V?$allocator@PAVsingleReg@@@std@@@std@@@std@@QAE@ABV?$allocator@PAVsingleReg@@@1@@Z 00444010 f i clientsRegistration.obj
 0002:0001b110       ??0?$_List_buy@PAVsingleReg@@V?$allocator@PAVsingleReg@@@std@@@std@@QAE@ABV?$allocator@PAVsingleReg@@@1@@Z 00444110 f i clientsRegistration.obj
 0002:0001b170       ??0?$_List_const_iterator@V?$_List_val@U?$_List_simple_types@PAVsingleReg@@@std@@@std@@@std@@QAE@ABV01@@Z 00444170 f i clientsRegistration.obj
 0002:0001b1d0       ??0?$_List_const_iterator@V?$_List_val@U?$_List_simple_types@PAVsingleReg@@@std@@@std@@@std@@QAE@PAU?$_List_node@PAVsingleReg@@PAX@1@PBV?$_List_val@U?$_List_simple_types@PAVsingleReg@@@std@@@1@@Z 004441d0 f i clientsRegistration.obj
 0002:0001b230       ??0?$_List_iterator@V?$_List_val@U?$_List_simple_types@PAVsingleReg@@@std@@@std@@@std@@QAE@PAU?$_List_node@PAVsingleReg@@PAX@1@PBV?$_List_val@U?$_List_simple_types@PAVsingleReg@@@std@@@1@@Z 00444230 f i clientsRegistration.obj
 0002:0001b290       ??0?$_List_unchecked_const_iterator@V?$_List_val@U?$_List_simple_types@I@std@@@std@@U_Iterator_base0@2@@std@@QAE@PAU?$_List_node@IPAX@1@PBV?$_List_val@U?$_List_simple_types@I@std@@@1@@Z 00444290 f i clientsRegistration.obj
 0002:0001b300       ??0?$_List_unchecked_const_iterator@V?$_List_val@U?$_List_simple_types@PAVsingleReg@@@std@@@std@@U_Iterator_base0@2@@std@@QAE@PAU?$_List_node@PAVsingleReg@@PAX@1@PBV?$_List_val@U?$_List_simple_types@PAVsingleReg@@@std@@@1@@Z 00444300 f i clientsRegistration.obj
 0002:0001b370       ??0?$_List_unchecked_const_iterator@V?$_List_val@U?$_List_simple_types@PAVsingleReg@@@std@@@std@@U_Iterator_base12@2@@std@@QAE@ABV01@@Z 00444370 f i clientsRegistration.obj
 0002:0001b3e0       ??0?$_List_unchecked_const_iterator@V?$_List_val@U?$_List_simple_types@PAVsingleReg@@@std@@@std@@U_Iterator_base12@2@@std@@QAE@PAU?$_List_node@PAVsingleReg@@PAX@1@PBV?$_List_val@U?$_List_simple_types@PAVsingleReg@@@std@@@1@@Z 004443e0 f i clientsRegistration.obj
 0002:0001b4a0       ??0?$_List_unchecked_const_iterator@V?$_List_val@U?$_List_simple_types@VclientIPC@@@std@@@std@@U_Iterator_base0@2@@std@@QAE@PAU?$_List_node@VclientIPC@@PAX@1@PBV?$_List_val@U?$_List_simple_types@VclientIPC@@@std@@@1@@Z 004444a0 f i clientsRegistration.obj
 0002:0001b510       ??0?$_List_unchecked_iterator@V?$_List_val@U?$_List_simple_types@I@std@@@std@@@std@@QAE@PAU?$_List_node@IPAX@1@PBV?$_List_val@U?$_List_simple_types@I@std@@@1@@Z 00444510 f i clientsRegistration.obj
 0002:0001b570       ??0?$_List_unchecked_iterator@V?$_List_val@U?$_List_simple_types@PAVsingleReg@@@std@@@std@@@std@@QAE@PAU?$_List_node@PAVsingleReg@@PAX@1@PBV?$_List_val@U?$_List_simple_types@PAVsingleReg@@@std@@@1@@Z 00444570 f i clientsRegistration.obj
 0002:0001b5d0       ??0?$_List_unchecked_iterator@V?$_List_val@U?$_List_simple_types@VclientIPC@@@std@@@std@@@std@@QAE@PAU?$_List_node@VclientIPC@@PAX@1@PBV?$_List_val@U?$_List_simple_types@VclientIPC@@@std@@@1@@Z 004445d0 f i clientsRegistration.obj
 0002:0001b630       ??0?$_List_val@U?$_List_simple_types@PAVsingleReg@@@std@@@std@@QAE@XZ 00444630 f i clientsRegistration.obj
 0002:0001b6b0       ??0?$_Wrap_alloc@V?$allocator@U?$_List_node@IPAX@std@@@std@@@std@@QAE@XZ 004446b0 f i clientsRegistration.obj
 0002:0001b710       ??0?$_Wrap_alloc@V?$allocator@U?$_List_node@PAVsingleReg@@PAX@std@@@std@@@std@@QAE@XZ 00444710 f i clientsRegistration.obj
 0002:0001b770       ??0?$_Wrap_alloc@V?$allocator@U?$_List_node@VclientIPC@@PAX@std@@@std@@@std@@QAE@XZ 00444770 f i clientsRegistration.obj
 0002:0001b7d0       ??0?$_Wrap_alloc@V?$allocator@U_Container_proxy@std@@@std@@@std@@QAE@XZ 004447d0 f i clientsRegistration.obj
 0002:0001b830       ??0?$allocator@PAVsingleReg@@@std@@QAE@XZ 00444830 f i clientsRegistration.obj
 0002:0001b870       ??0?$allocator@U?$_List_node@IPAX@std@@@std@@QAE@XZ 00444870 f i clientsRegistration.obj
 0002:0001b8b0       ??0?$allocator@U?$_List_node@PAVsingleReg@@PAX@std@@@std@@QAE@XZ 004448b0 f i clientsRegistration.obj
 0002:0001b8f0       ??0?$allocator@U?$_List_node@VclientIPC@@PAX@std@@@std@@QAE@XZ 004448f0 f i clientsRegistration.obj
 0002:0001b930       ??0?$allocator@U_Container_proxy@std@@@std@@QAE@XZ 00444930 f i clientsRegistration.obj
 0002:0001b970       ??0?$list@PAVsingleReg@@V?$allocator@PAVsingleReg@@@std@@@std@@QAE@XZ 00444970 f i clientsRegistration.obj
 0002:0001b9e0       ??1?$_Iterator012@Ubidirectional_iterator_tag@std@@PAVsingleReg@@HPBQAV3@ABQAV3@U_Iterator_base12@2@@std@@QAE@XZ 004449e0 f i clientsRegistration.obj
 0002:0001ba30       ??1?$_List_alloc@$0A@U?$_List_base_types@IV?$allocator@I@std@@@std@@@std@@QAE@XZ 00444a30 f i clientsRegistration.obj
 0002:0001baa0       ??1?$_List_alloc@$0A@U?$_List_base_types@PAVsingleReg@@V?$allocator@PAVsingleReg@@@std@@@std@@@std@@QAE@XZ 00444aa0 f i clientsRegistration.obj
 0002:0001bb10       ??1?$_List_buy@IV?$allocator@I@std@@@std@@QAE@XZ 00444b10 f i clientsRegistration.obj
 0002:0001bb60       ??1?$_List_buy@PAVsingleReg@@V?$allocator@PAVsingleReg@@@std@@@std@@QAE@XZ 00444b60 f i clientsRegistration.obj
 0002:0001bbb0       ??1?$_List_const_iterator@V?$_List_val@U?$_List_simple_types@PAVsingleReg@@@std@@@std@@@std@@QAE@XZ 00444bb0 f i clientsRegistration.obj
 0002:0001bc00       ??1?$_List_iterator@V?$_List_val@U?$_List_simple_types@PAVsingleReg@@@std@@@std@@@std@@QAE@XZ 00444c00 f i clientsRegistration.obj
 0002:0001bc50       ??1?$_List_unchecked_const_iterator@V?$_List_val@U?$_List_simple_types@PAVsingleReg@@@std@@@std@@U_Iterator_base12@2@@std@@QAE@XZ 00444c50 f i clientsRegistration.obj
 0002:0001bca0       ??1?$_List_val@U?$_List_simple_types@I@std@@@std@@QAE@XZ 00444ca0 f i clientsRegistration.obj
 0002:0001bd00       ??1?$_List_val@U?$_List_simple_types@PAVsingleReg@@@std@@@std@@QAE@XZ 00444d00 f i clientsRegistration.obj
 0002:0001bd60       ??1?$list@IV?$allocator@I@std@@@std@@QAE@XZ 00444d60 f i clientsRegistration.obj
 0002:0001bdc0       ??1?$list@PAVsingleReg@@V?$allocator@PAVsingleReg@@@std@@@std@@QAE@XZ 00444dc0 f i clientsRegistration.obj
 0002:0001be20       ??4?$_Iterator012@Ubidirectional_iterator_tag@std@@PAVsingleReg@@HPBQAV3@ABQAV3@U_Iterator_base12@2@@std@@QAEAAU01@ABU01@@Z 00444e20 f i clientsRegistration.obj
 0002:0001be80       ??4?$_List_const_iterator@V?$_List_val@U?$_List_simple_types@PAVsingleReg@@@std@@@std@@@std@@QAEAAV01@ABV01@@Z 00444e80 f i clientsRegistration.obj
 0002:0001bee0       ??4?$_List_iterator@V?$_List_val@U?$_List_simple_types@PAVsingleReg@@@std@@@std@@@std@@QAEAAV01@ABV01@@Z 00444ee0 f i clientsRegistration.obj
 0002:0001bf40       ??4?$_List_unchecked_const_iterator@V?$_List_val@U?$_List_simple_types@PAVsingleReg@@@std@@@std@@U_Iterator_base12@2@@std@@QAEAAV01@ABV01@@Z 00444f40 f i clientsRegistration.obj
 0002:0001bfb0       ??8?$_List_const_iterator@V?$_List_val@U?$_List_simple_types@PAVsingleReg@@@std@@@std@@@std@@QBE_NABV01@@Z 00444fb0 f i clientsRegistration.obj
 0002:0001c110       ??8clientIPC@@QAE_NABV0@@Z 00445110 f i clientsRegistration.obj
 0002:0001c160       ??9?$_List_const_iterator@V?$_List_val@U?$_List_simple_types@PAVsingleReg@@@std@@@std@@@std@@QBE_NABV01@@Z 00445160 f i clientsRegistration.obj
 0002:0001c1f0       ??D?$_List_const_iterator@V?$_List_val@U?$_List_simple_types@PAVsingleReg@@@std@@@std@@@std@@QBEABQAVsingleReg@@XZ 004451f0 f i clientsRegistration.obj
 0002:0001c330       ??D?$_List_iterator@V?$_List_val@U?$_List_simple_types@PAVsingleReg@@@std@@@std@@@std@@QBEAAPAVsingleReg@@XZ 00445330 f i clientsRegistration.obj
 0002:0001c380       ??E?$_List_const_iterator@V?$_List_val@U?$_List_simple_types@PAVsingleReg@@@std@@@std@@@std@@QAE?AV01@H@Z 00445380 f i clientsRegistration.obj
 0002:0001c4a0       ??E?$_List_const_iterator@V?$_List_val@U?$_List_simple_types@PAVsingleReg@@@std@@@std@@@std@@QAEAAV01@XZ 004454a0 f i clientsRegistration.obj
 0002:0001c5f0       ??E?$_List_iterator@V?$_List_val@U?$_List_simple_types@PAVsingleReg@@@std@@@std@@@std@@QAEAAV01@XZ 004455f0 f i clientsRegistration.obj
 0002:0001c650       ??_EclientsRegistration@@UAEPAXI@Z 00445650 f i clientsRegistration.obj
 0002:0001c650       ??_GclientsRegistration@@UAEPAXI@Z 00445650 f i clientsRegistration.obj
 0002:0001c6c0       ?_Adopt@_Iterator_base0@std@@QAEXPBX@Z 004456c0 f i clientsRegistration.obj
 0002:0001c700       ?_Alloc_proxy@?$_List_alloc@$0A@U?$_List_base_types@PAVsingleReg@@V?$allocator@PAVsingleReg@@@std@@@std@@@std@@QAEXXZ 00445700 f i clientsRegistration.obj
 0002:0001c7d0       ?_Buyheadnode@?$_List_alloc@$0A@U?$_List_base_types@PAVsingleReg@@V?$allocator@PAVsingleReg@@@std@@@std@@@std@@QAEPAU?$_List_node@PAVsingleReg@@PAX@2@XZ 004457d0 f i clientsRegistration.obj
 0002:0001c830       ?_Buynode0@?$_List_alloc@$0A@U?$_List_base_types@IV?$allocator@I@std@@@std@@@std@@QAEPAU?$_List_node@IPAX@2@PAU32@0@Z 00445830 f i clientsRegistration.obj
 0002:0001c9f0       ?_Buynode0@?$_List_alloc@$0A@U?$_List_base_types@PAVsingleReg@@V?$allocator@PAVsingleReg@@@std@@@std@@@std@@QAEPAU?$_List_node@PAVsingleReg@@PAX@2@PAU32@0@Z 004459f0 f i clientsRegistration.obj
 0002:0001cbb0       ?_Buynode0@?$_List_alloc@$0A@U?$_List_base_types@VclientIPC@@V?$allocator@VclientIPC@@@std@@@std@@@std@@QAEPAU?$_List_node@VclientIPC@@PAX@2@PAU32@0@Z 00445bb0 f i clientsRegistration.obj
 0002:0001cd70       ?_Free_proxy@?$_List_alloc@$0A@U?$_List_base_types@IV?$allocator@I@std@@@std@@@std@@QAEXXZ 00445d70 f i clientsRegistration.obj
 0002:0001ce50       ?_Free_proxy@?$_List_alloc@$0A@U?$_List_base_types@PAVsingleReg@@V?$allocator@PAVsingleReg@@@std@@@std@@@std@@QAEXXZ 00445e50 f i clientsRegistration.obj
 0002:0001cf30       ?_Freeheadnode@?$_List_alloc@$0A@U?$_List_base_types@IV?$allocator@I@std@@@std@@@std@@QAEXPAU?$_List_node@IPAX@2@@Z 00445f30 f i clientsRegistration.obj
 0002:0001d010       ?_Freeheadnode@?$_List_alloc@$0A@U?$_List_base_types@PAVsingleReg@@V?$allocator@PAVsingleReg@@@std@@@std@@@std@@QAEXPAU?$_List_node@PAVsingleReg@@PAX@2@@Z 00446010 f i clientsRegistration.obj
 0002:0001d0f0       ?_Freenode@?$_List_buy@IV?$allocator@I@std@@@std@@QAEXPAU?$_List_node@IPAX@2@@Z 004460f0 f i clientsRegistration.obj
 0002:0001d200       ?_Freenode@?$_List_buy@PAVsingleReg@@V?$allocator@PAVsingleReg@@@std@@@std@@QAEXPAU?$_List_node@PAVsingleReg@@PAX@2@@Z 00446200 f i clientsRegistration.obj
 0002:0001d310       ?_Getal@?$_List_alloc@$0A@U?$_List_base_types@IV?$allocator@I@std@@@std@@@std@@QBE?AU?$_Wrap_alloc@V?$allocator@U?$_List_node@IPAX@std@@@std@@@2@XZ 00446310 f i clientsRegistration.obj
 0002:0001d370       ?_Getal@?$_List_alloc@$0A@U?$_List_base_types@PAVsingleReg@@V?$allocator@PAVsingleReg@@@std@@@std@@@std@@QBE?AU?$_Wrap_alloc@V?$allocator@U?$_List_node@PAVsingleReg@@PAX@std@@@std@@@2@XZ 00446370 f i clientsRegistration.obj
 0002:0001d3d0       ?_Getal@?$_List_alloc@$0A@U?$_List_base_types@VclientIPC@@V?$allocator@VclientIPC@@@std@@@std@@@std@@QBE?AU?$_Wrap_alloc@V?$allocator@U?$_List_node@VclientIPC@@PAX@std@@@std@@@2@XZ 004463d0 f i clientsRegistration.obj
 0002:0001d430       ?_Incsize@?$list@IV?$allocator@I@std@@@std@@QAEXI@Z 00446430 f i clientsRegistration.obj
 0002:0001d4c0       ?_Incsize@?$list@PAVsingleReg@@V?$allocator@PAVsingleReg@@@std@@@std@@QAEXI@Z 004464c0 f i clientsRegistration.obj
 0002:0001d550       ?_Incsize@?$list@VclientIPC@@V?$allocator@VclientIPC@@@std@@@std@@QAEXI@Z 00446550 f i clientsRegistration.obj
 0002:0001d5e0       ?_Make_iter@?$list@PAVsingleReg@@V?$allocator@PAVsingleReg@@@std@@@std@@QBE?AV?$_List_iterator@V?$_List_val@U?$_List_simple_types@PAVsingleReg@@@std@@@std@@@2@V?$_List_const_iterator@V?$_List_val@U?$_List_simple_types@PAVsingleReg@@@std@@@std@@@2@@Z 004465e0 f i clientsRegistration.obj
 0002:0001d650       ?_Mynode@?$_List_unchecked_const_iterator@V?$_List_val@U?$_List_simple_types@I@std@@@std@@U_Iterator_base0@2@@std@@QBEPAU?$_List_node@IPAX@2@XZ 00446650 f i clientsRegistration.obj
 0002:0001d690       ?_Mynode@?$_List_unchecked_const_iterator@V?$_List_val@U?$_List_simple_types@PAVsingleReg@@@std@@@std@@U_Iterator_base0@2@@std@@QBEPAU?$_List_node@PAVsingleReg@@PAX@2@XZ 00446690 f i clientsRegistration.obj
 0002:0001d6d0       ?_Mynode@?$_List_unchecked_const_iterator@V?$_List_val@U?$_List_simple_types@PAVsingleReg@@@std@@@std@@U_Iterator_base12@2@@std@@QBEPAU?$_List_node@PAVsingleReg@@PAX@2@XZ 004466d0 f i clientsRegistration.obj
 0002:0001d710       ?_Mynode@?$_List_unchecked_const_iterator@V?$_List_val@U?$_List_simple_types@VclientIPC@@@std@@@std@@U_Iterator_base0@2@@std@@QBEPAU?$_List_node@VclientIPC@@PAX@2@XZ 00446710 f i clientsRegistration.obj
 0002:0001d750       ?_Myval@?$_List_val@U?$_List_simple_types@I@std@@@std@@SAAAIPAU?$_List_node@IPAX@2@@Z 00446750 f i clientsRegistration.obj
 0002:0001d790       ?_Myval@?$_List_val@U?$_List_simple_types@PAVsingleReg@@@std@@@std@@SAAAPAVsingleReg@@PAU?$_List_node@PAVsingleReg@@PAX@2@@Z 00446790 f i clientsRegistration.obj
 0002:0001d7d0       ?_Myval@?$_List_val@U?$_List_simple_types@VclientIPC@@@std@@@std@@SAAAVclientIPC@@PAU?$_List_node@VclientIPC@@PAX@2@@Z 004467d0 f i clientsRegistration.obj
 0002:0001d810       ?_Nextnode@?$_List_val@U?$_List_simple_types@I@std@@@std@@SAAAPAU?$_List_node@IPAX@2@PAU32@@Z 00446810 f i clientsRegistration.obj
 0002:0001d850       ?_Nextnode@?$_List_val@U?$_List_simple_types@PAVsingleReg@@@std@@@std@@SAAAPAU?$_List_node@PAVsingleReg@@PAX@2@PAU32@@Z 00446850 f i clientsRegistration.obj
 0002:0001d890       ?_Nextnode@?$_List_val@U?$_List_simple_types@VclientIPC@@@std@@@std@@SAAAPAU?$_List_node@VclientIPC@@PAX@2@PAU32@@Z 00446890 f i clientsRegistration.obj
 0002:0001d8d0       ?_Orphan_ptr@?$list@IV?$allocator@I@std@@@std@@QBEXAAV12@PAU?$_List_node@IPAX@2@@Z 004468d0 f i clientsRegistration.obj
 0002:0001da60       ?_Orphan_ptr@?$list@PAVsingleReg@@V?$allocator@PAVsingleReg@@@std@@@std@@QBEXAAV12@PAU?$_List_node@PAVsingleReg@@PAX@2@@Z 00446a60 f i clientsRegistration.obj
 0002:0001dbf0       ?_Prevnode@?$_List_val@U?$_List_simple_types@I@std@@@std@@SAAAPAU?$_List_node@IPAX@2@PAU32@@Z 00446bf0 f i clientsRegistration.obj
 0002:0001dc30       ?_Prevnode@?$_List_val@U?$_List_simple_types@PAVsingleReg@@@std@@@std@@SAAAPAU?$_List_node@PAVsingleReg@@PAX@2@PAU32@@Z 00446c30 f i clientsRegistration.obj
 0002:0001dc70       ?_Prevnode@?$_List_val@U?$_List_simple_types@VclientIPC@@@std@@@std@@SAAAPAU?$_List_node@VclientIPC@@PAX@2@PAU32@@Z 00446c70 f i clientsRegistration.obj
 0002:0001dcb0       ?_Tidy@?$list@IV?$allocator@I@std@@@std@@QAEXXZ 00446cb0 f i clientsRegistration.obj
 0002:0001dd00       ?_Tidy@?$list@PAVsingleReg@@V?$allocator@PAVsingleReg@@@std@@@std@@QAEXXZ 00446d00 f i clientsRegistration.obj
 0002:0001dd50       ?_Unchecked_end@?$list@IV?$allocator@I@std@@@std@@QAE?AV?$_List_unchecked_iterator@V?$_List_val@U?$_List_simple_types@I@std@@@std@@@2@XZ 00446d50 f i clientsRegistration.obj
 0002:0001ddc0       ?_Unchecked_end@?$list@PAVsingleReg@@V?$allocator@PAVsingleReg@@@std@@@std@@QAE?AV?$_List_unchecked_iterator@V?$_List_val@U?$_List_simple_types@PAVsingleReg@@@std@@@std@@@2@XZ 00446dc0 f i clientsRegistration.obj
 0002:0001de30       ?_Unchecked_end@?$list@VclientIPC@@V?$allocator@VclientIPC@@@std@@@std@@QAE?AV?$_List_unchecked_iterator@V?$_List_val@U?$_List_simple_types@VclientIPC@@@std@@@std@@@2@XZ 00446e30 f i clientsRegistration.obj
 0002:0001dea0       ?_Unlinknode@?$list@PAVsingleReg@@V?$allocator@PAVsingleReg@@@std@@@std@@QAEPAU?$_List_node@PAVsingleReg@@PAX@2@V?$_List_const_iterator@V?$_List_val@U?$_List_simple_types@PAVsingleReg@@@std@@@std@@@2@@Z 00446ea0 f i clientsRegistration.obj
 0002:0001e030       ?allocate@?$_Wrap_alloc@V?$allocator@U?$_List_node@IPAX@std@@@std@@@std@@QAEPAU?$_List_node@IPAX@2@I@Z 00447030 f i clientsRegistration.obj
 0002:0001e090       ?allocate@?$_Wrap_alloc@V?$allocator@U?$_List_node@PAVsingleReg@@PAX@std@@@std@@@std@@QAEPAU?$_List_node@PAVsingleReg@@PAX@2@I@Z 00447090 f i clientsRegistration.obj
 0002:0001e0f0       ?allocate@?$_Wrap_alloc@V?$allocator@U?$_List_node@VclientIPC@@PAX@std@@@std@@@std@@QAEPAU?$_List_node@VclientIPC@@PAX@2@I@Z 004470f0 f i clientsRegistration.obj
 0002:0001e150       ?allocate@?$allocator@U?$_List_node@IPAX@std@@@std@@QAEPAU?$_List_node@IPAX@2@I@Z 00447150 f i clientsRegistration.obj
 0002:0001e1b0       ?allocate@?$allocator@U?$_List_node@PAVsingleReg@@PAX@std@@@std@@QAEPAU?$_List_node@PAVsingleReg@@PAX@2@I@Z 004471b0 f i clientsRegistration.obj
 0002:0001e210       ?allocate@?$allocator@U?$_List_node@VclientIPC@@PAX@std@@@std@@QAEPAU?$_List_node@VclientIPC@@PAX@2@I@Z 00447210 f i clientsRegistration.obj
 0002:0001e270       ?begin@?$list@PAVsingleReg@@V?$allocator@PAVsingleReg@@@std@@@std@@QAE?AV?$_List_iterator@V?$_List_val@U?$_List_simple_types@PAVsingleReg@@@std@@@std@@@2@XZ 00447270 f i clientsRegistration.obj
 0002:0001e2e0       ?clear@?$list@IV?$allocator@I@std@@@std@@QAEXXZ 004472e0 f i clientsRegistration.obj
 0002:0001e3e0       ?clear@?$list@PAVsingleReg@@V?$allocator@PAVsingleReg@@@std@@@std@@QAEXXZ 004473e0 f i clientsRegistration.obj
 0002:0001e4e0       ?deallocate@?$_Wrap_alloc@V?$allocator@U?$_List_node@IPAX@std@@@std@@@std@@QAEXPAU?$_List_node@IPAX@2@I@Z 004474e0 f i clientsRegistration.obj
 0002:0001e540       ?deallocate@?$_Wrap_alloc@V?$allocator@U?$_List_node@PAVsingleReg@@PAX@std@@@std@@@std@@QAEXPAU?$_List_node@PAVsingleReg@@PAX@2@I@Z 00447540 f i clientsRegistration.obj
 0002:0001e5a0       ?deallocate@?$_Wrap_alloc@V?$allocator@U?$_List_node@VclientIPC@@PAX@std@@@std@@@std@@QAEXPAU?$_List_node@VclientIPC@@PAX@2@I@Z 004475a0 f i clientsRegistration.obj
 0002:0001e600       ?deallocate@?$allocator@U?$_List_node@IPAX@std@@@std@@QAEXPAU?$_List_node@IPAX@2@I@Z 00447600 f i clientsRegistration.obj
 0002:0001e660       ?deallocate@?$allocator@U?$_List_node@PAVsingleReg@@PAX@std@@@std@@QAEXPAU?$_List_node@PAVsingleReg@@PAX@2@I@Z 00447660 f i clientsRegistration.obj
 0002:0001e6c0       ?deallocate@?$allocator@U?$_List_node@VclientIPC@@PAX@std@@@std@@QAEXPAU?$_List_node@VclientIPC@@PAX@2@I@Z 004476c0 f i clientsRegistration.obj
 0002:0001e720       ?end@?$list@PAVsingleReg@@V?$allocator@PAVsingleReg@@@std@@@std@@QAE?AV?$_List_iterator@V?$_List_val@U?$_List_simple_types@PAVsingleReg@@@std@@@std@@@2@XZ 00447720 f i clientsRegistration.obj
 0002:0001e790       ?erase@?$list@PAVsingleReg@@V?$allocator@PAVsingleReg@@@std@@@std@@QAE?AV?$_List_iterator@V?$_List_val@U?$_List_simple_types@PAVsingleReg@@@std@@@std@@@2@V?$_List_const_iterator@V?$_List_val@U?$_List_simple_types@PAVsingleReg@@@std@@@std@@@2@@Z 00447790 f i clientsRegistration.obj
 0002:0001e8d0       ?max_size@?$_Wrap_alloc@V?$allocator@U?$_List_node@IPAX@std@@@std@@@std@@QBEIXZ 004478d0 f i clientsRegistration.obj
 0002:0001e930       ?max_size@?$_Wrap_alloc@V?$allocator@U?$_List_node@PAVsingleReg@@PAX@std@@@std@@@std@@QBEIXZ 00447930 f i clientsRegistration.obj
 0002:0001e990       ?max_size@?$_Wrap_alloc@V?$allocator@U?$_List_node@VclientIPC@@PAX@std@@@std@@@std@@QBEIXZ 00447990 f i clientsRegistration.obj
 0002:0001e9f0       ?max_size@?$allocator@U?$_List_node@IPAX@std@@@std@@QBEIXZ 004479f0 f i clientsRegistration.obj
 0002:0001ea30       ?max_size@?$allocator@U?$_List_node@PAVsingleReg@@PAX@std@@@std@@QBEIXZ 00447a30 f i clientsRegistration.obj
 0002:0001ea70       ?max_size@?$allocator@U?$_List_node@VclientIPC@@PAX@std@@@std@@QBEIXZ 00447a70 f i clientsRegistration.obj
 0002:0001eab0       ?max_size@?$allocator_traits@V?$allocator@U?$_List_node@IPAX@std@@@std@@@std@@SAIABV?$allocator@U?$_List_node@IPAX@std@@@2@@Z 00447ab0 f i clientsRegistration.obj
 0002:0001eb00       ?max_size@?$allocator_traits@V?$allocator@U?$_List_node@PAVsingleReg@@PAX@std@@@std@@@std@@SAIABV?$allocator@U?$_List_node@PAVsingleReg@@PAX@std@@@2@@Z 00447b00 f i clientsRegistration.obj
 0002:0001eb50       ?max_size@?$allocator_traits@V?$allocator@U?$_List_node@VclientIPC@@PAX@std@@@std@@@std@@SAIABV?$allocator@U?$_List_node@VclientIPC@@PAX@std@@@2@@Z 00447b50 f i clientsRegistration.obj
 0002:0001eba0       ?max_size@?$list@IV?$allocator@I@std@@@std@@QBEIXZ 00447ba0 f i clientsRegistration.obj
 0002:0001ec00       ?max_size@?$list@PAVsingleReg@@V?$allocator@PAVsingleReg@@@std@@@std@@QBEIXZ 00447c00 f i clientsRegistration.obj
 0002:0001ec60       ?max_size@?$list@VclientIPC@@V?$allocator@VclientIPC@@@std@@@std@@QBEIXZ 00447c60 f i clientsRegistration.obj
 0002:0001ecc0       ?push_back@?$list@IV?$allocator@I@std@@@std@@QAEX$$QAI@Z 00447cc0 f i clientsRegistration.obj
 0002:0001ed50       ?push_back@?$list@PAVsingleReg@@V?$allocator@PAVsingleReg@@@std@@@std@@QAEXABQAVsingleReg@@@Z 00447d50 f i clientsRegistration.obj
 0002:0001edd0       ?push_back@?$list@VclientIPC@@V?$allocator@VclientIPC@@@std@@@std@@QAEX$$QAVclientIPC@@@Z 00447dd0 f i clientsRegistration.obj
 0002:0001ee60       ?size@?$list@PAVsingleReg@@V?$allocator@PAVsingleReg@@@std@@@std@@QBEIXZ 00447e60 f i clientsRegistration.obj
 0002:0001eea0       ?getSetting@config@@SA?AVQString@@ABV2@00@Z 00447ea0 f   config.obj
 0002:0001f030       ?getSettingInt@config@@SAHABVQString@@0H@Z 00448030 f   config.obj
 0002:0001f2b0       ??0fabianClient@@QAE@XZ    004482b0 f   fabianClient.obj
 0002:0001f4a0       ??1fabianClient@@UAE@XZ    004484a0 f   fabianClient.obj
 0002:0001f5b0       ?setAddress@fabianClient@@QAEXABVQString@@@Z 004485b0 f   fabianClient.obj
 0002:0001f610       ?setAltAddress@fabianClient@@QAEXABVQString@@@Z 00448610 f   fabianClient.obj
 0002:0001f670       ?setPort@fabianClient@@QAEXH@Z 00448670 f   fabianClient.obj
 0002:0001f6b0       ?setAltPort@fabianClient@@QAEXH@Z 004486b0 f   fabianClient.obj
 0002:0001f6f0       ?setUserName@fabianClient@@QAEXABVQString@@@Z 004486f0 f   fabianClient.obj
 0002:0001f750       ?setPassword@fabianClient@@QAEXABVQString@@@Z 00448750 f   fabianClient.obj
 0002:0001f7b0       ?setControlPass@fabianClient@@QAEXABVQString@@@Z 004487b0 f   fabianClient.obj
 0002:0001f810       ?connect@fabianClient@@QAEXXZ 00448810 f   fabianClient.obj
 0002:0001fb20       ?transmitCount@fabianClient@@QAEIXZ 00448b20 f   fabianClient.obj
 0002:0001fb50       ?receiveCount@fabianClient@@QAEIXZ 00448b50 f   fabianClient.obj
 0002:0001fb80       ?databaseChangeCount@fabianClient@@QAEIXZ 00448b80 f   fabianClient.obj
 0002:0001fbb0       ?reg@fabianClient@@QAEXIII@Z 00448bb0 f   fabianClient.obj
 0002:0001fcf0       ?unreg@fabianClient@@QAEXI@Z 00448cf0 f   fabianClient.obj
 0002:0001fe20       ?infoWrite@fabianClient@@QAEXIIABVQString@@@Z 00448e20 f   fabianClient.obj
 0002:0001ff70       ?infoPoll@fabianClient@@QAEXIII@Z 00448f70 f   fabianClient.obj
 0002:000200b0       ?infoLock@fabianClient@@QAEXIII_N@Z 004490b0 f   fabianClient.obj
 0002:000201f0       ?gpiSwitch@fabianClient@@QAEXII_N@Z 004491f0 f   fabianClient.obj
 0002:00020330       ?gpiPoll@fabianClient@@QAEXIII@Z 00449330 f   fabianClient.obj
 0002:00020470       ?gpiLock@fabianClient@@QAEXIII_N@Z 00449470 f   fabianClient.obj
 0002:000205b0       ?routerCrosspoint@fabianClient@@QAEXIIIABVQString@@@Z 004495b0 f   fabianClient.obj
 0002:00020700       ?routerPoll@fabianClient@@QAEXIII@Z 00449700 f   fabianClient.obj
 0002:00020840       ?routerLock@fabianClient@@QAEXIII_N@Z 00449840 f   fabianClient.obj
 0002:00020980       ?listRouter@fabianClient@@QAEXIIII@Z 00449980 f   fabianClient.obj
 0002:00020ac0       ?routerModify@fabianClient@@QAEXIIIABVQString@@_N@Z 00449ac0 f   fabianClient.obj
 0002:00020c10       ?socketConnected@fabianClient@@AAEXXZ 00449c10 f   fabianClient.obj
 0002:00020cc0       ?socketConnectionClosed@fabianClient@@AAEXXZ 00449cc0 f   fabianClient.obj
 0002:00020d10       ?socketReadyRead@fabianClient@@AAEXXZ 00449d10 f   fabianClient.obj
 0002:00021c40       ?socketError@fabianClient@@AAEXH@Z 0044ac40 f   fabianClient.obj
 0002:00022c7d       ??_EfabianClient@@WCI@AEPAXI@Z 0044bc7d f i fabianClient.obj
 0002:00022c90       ??_EfabianClient@@UAEPAXI@Z 0044bc90 f i fabianClient.obj
 0002:00022c90       ??_GfabianClient@@UAEPAXI@Z 0044bc90 f i fabianClient.obj
 0002:00022d00       ?metaObject@fabianClient@@UBEPAVQMetaObject@@XZ 0044bd00 f i fabianClient.obj
 0002:00022d50       _main                      0044bd50 f   main.obj
 0002:00022ef0       ??0messageWindow@@QAE@PAUHINSTANCE__@@PADH@Z 0044bef0 f   messageWindow.obj
 0002:00023290       ??1messageWindow@@UAE@XZ   0044c290 f   messageWindow.obj
 0002:00023520       ?instance@messageWindow@@QAEPAUHINSTANCE__@@XZ 0044c520 f   messageWindow.obj
 0002:00023550       ?clientCount@messageWindow@@QAEIXZ 0044c550 f   messageWindow.obj
 0002:000235a0       ?registrationCount@messageWindow@@QAEIXZ 0044c5a0 f   messageWindow.obj
 0002:000235f0       ?clientMessageCount@messageWindow@@QAEIXZ 0044c5f0 f   messageWindow.obj
 0002:00023620       ?nameChangeCount@messageWindow@@QAEIXZ 0044c620 f   messageWindow.obj
 0002:00023650       ?setLocalDatabaseList@messageWindow@@QAEXABV?$set@HU?$less@H@std@@V?$allocator@H@2@@std@@@Z 0044c650 f   messageWindow.obj
 0002:000236a0       ?registerLocalDatabaseDevices@messageWindow@@QAEXXZ 0044c6a0 f   messageWindow.obj
 0002:000237d0       ?databasesLoaded@messageWindow@@QAEHXZ 0044c7d0 f   messageWindow.obj
 0002:00023820       ?devicesCached@messageWindow@@QAEHXZ 0044c820 f   messageWindow.obj
 0002:00023870       ?SendMessage32@messageWindow@@AAEJPAUHWND__@@VclientIPC@@IIJHH@Z 0044c870 f   messageWindow.obj
 0002:00023900       ?loadWriteEnable@messageWindow@@AAEXXZ 0044c900 f   messageWindow.obj
 0002:00023ba0       ?MyRegisterClass@messageWindow@@AAEGPAUHINSTANCE__@@@Z 0044cba0 f   messageWindow.obj
 0002:00023c50       ?InitInstance@messageWindow@@AAEHPAUHINSTANCE__@@H@Z 0044cc50 f   messageWindow.obj
 0002:00023d00       ?WndProc@@YGJPAUHWND__@@IIJ@Z 0044cd00 f   messageWindow.obj
 0002:00026270       ?addClient@messageWindow@@AAEXPAUHWND__@@H@Z 0044f270 f   messageWindow.obj
 0002:000262e0       ?removeClient@messageWindow@@AAEXPAUHWND__@@@Z 0044f2e0 f   messageWindow.obj
 0002:00026450       ?rereg@messageWindow@@AAEXI@Z 0044f450 f   messageWindow.obj
 0002:000264a0       ?rereg@messageWindow@@AAEXIII@Z 0044f4a0 f   messageWindow.obj
 0002:000265e0       ?isLocalDatabase@messageWindow@@AAE_NH@Z 0044f5e0 f   messageWindow.obj
 0002:000266f0       ?customEvent@messageWindow@@EAEXPAVQCustomEvent@@@Z 0044f6f0 f   messageWindow.obj
 0002:00026b10       ?writeEnabled@messageWindow@@QAE_NH@Z 0044fb10 f   messageWindow.obj
 0002:00026c70       ?routerRevertive@messageWindow@@QAEXIIH@Z 0044fc70 f   messageWindow.obj
 0002:00026fc0       ?infoRevertive@messageWindow@@QAEXIIABVQString@@@Z 0044ffc0 f   messageWindow.obj
 0002:00027260       ?gpiRevertive@messageWindow@@QAEXII_N@Z 00450260 f   messageWindow.obj
 0002:00027510       ?routerName@messageWindow@@QAEXIIIABVQString@@@Z 00450510 f   messageWindow.obj
 0002:000279b0       ?databaseChange@messageWindow@@QAEXIIIABVQString@@@Z 004509b0 f   messageWindow.obj
 0002:00029110       ??$?0U?$_List_node@IPAX@std@@@?$allocator@I@std@@QAE@ABV?$allocator@U?$_List_node@IPAX@std@@@1@@Z 00452110 f i messageWindow.obj
 0002:00029150       ??$?8U?$_Tree_node@HPAX@std@@U01@@std@@YA_NABV?$allocator@U?$_Tree_node@HPAX@std@@@0@0@Z 00452150 f i messageWindow.obj
 0002:00029180       ??$?8V?$allocator@U?$_Tree_node@HPAX@std@@@std@@V01@@std@@YA_NABU?$_Wrap_alloc@V?$allocator@U?$_Tree_node@HPAX@std@@@std@@@0@0@Z 00452180 f i messageWindow.obj
 0002:000291f0       ??$?9V?$allocator@U?$_Tree_node@HPAX@std@@@std@@V01@@std@@YA_NABU?$_Wrap_alloc@V?$allocator@U?$_Tree_node@HPAX@std@@@std@@@0@0@Z 004521f0 f i messageWindow.obj
 0002:00029270       ??$_Allocate@D@std@@YAPADIPAD@Z 00452270 f i messageWindow.obj
 0002:00029300       ??$_Buynode@AAH@?$_Tree_buy@HV?$allocator@H@std@@@std@@QAEPAU?$_Tree_node@HPAX@1@AAH@Z 00452300 f i messageWindow.obj
 0002:00029470       ??$_Buynode@ABI@?$_List_buy@IV?$allocator@I@std@@@std@@QAEPAU?$_List_node@IPAX@1@PAU21@0ABI@Z 00452470 f i messageWindow.obj
 0002:000295e0       ??$_Copy@U?$integral_constant@_N$0A@@std@@@?$_Tree@V?$_Tset_traits@HU?$less@H@std@@V?$allocator@H@2@$0A@@std@@@std@@IAEXABV01@U?$integral_constant@_N$0A@@1@@Z 004525e0 f i messageWindow.obj
 0002:00029710       ??$_Copy_nodes@U?$integral_constant@_N$0A@@std@@@?$_Tree@V?$_Tset_traits@HU?$less@H@std@@V?$allocator@H@2@$0A@@std@@@std@@IAEPAU?$_Tree_node@HPAX@1@PAU21@0U?$integral_constant@_N$0A@@1@@Z 00452710 f i messageWindow.obj
 0002:00029960       ??$_Copy_or_move@U?$integral_constant@_N$0A@@std@@U?$integral_constant@_N$00@2@U32@H@?$_Tree@V?$_Tset_traits@HU?$less@H@std@@V?$allocator@H@2@$0A@@std@@@std@@IAEPAU?$_Tree_node@HPAX@1@PAU21@U?$integral_constant@_N$0A@@1@U?$integral_constant@_N$00@1@2H@Z 00452960 f i messageWindow.obj
 0002:000299d0       ??$_Debug_pointer@D@std@@YAXPBDPB_WI@Z 004529d0 f i messageWindow.obj
 0002:00029a40       ??$_Debug_range2@V?$_List_const_iterator@V?$_List_val@U?$_List_simple_types@I@std@@@std@@@std@@@std@@YAXV?$_List_const_iterator@V?$_List_val@U?$_List_simple_types@I@std@@@std@@@0@0PB_WIUinput_iterator_tag@0@@Z 00452a40 f i messageWindow.obj
 0002:00029b00       ??$_Debug_range@V?$_List_const_iterator@V?$_List_val@U?$_List_simple_types@I@std@@@std@@@std@@@std@@YAXV?$_List_const_iterator@V?$_List_val@U?$_List_simple_types@I@std@@@std@@@0@0PB_WI@Z 00452b00 f i messageWindow.obj
 0002:00029c30       ??$_Insert@ABI@?$list@IV?$allocator@I@std@@@std@@QAEXV?$_List_unchecked_const_iterator@V?$_List_val@U?$_List_simple_types@I@std@@@std@@U_Iterator_base0@2@@1@ABI@Z 00452c30 f i messageWindow.obj
 0002:00029d00       ??$_Insert_range@V?$_List_const_iterator@V?$_List_val@U?$_List_simple_types@I@std@@@std@@@std@@@?$list@IV?$allocator@I@std@@@std@@QAEXV?$_List_unchecked_const_iterator@V?$_List_val@U?$_List_simple_types@I@std@@@std@@U_Iterator_base0@2@@1@V?$_List_const_iterator@V?$_List_val@U?$_List_simple_types@I@std@@@std@@@1@1Uforward_iterator_tag@1@@Z 00452d00 f i messageWindow.obj
 0002:00029f60       ??$_Iter_cat@V?$_List_const_iterator@V?$_List_val@U?$_List_simple_types@I@std@@@std@@@std@@@std@@YA?AUbidirectional_iterator_tag@0@ABV?$_List_const_iterator@V?$_List_val@U?$_List_simple_types@I@std@@@std@@@0@@Z 00452f60 f i messageWindow.obj
 0002:00029fe0       ??$addressof@$$CBVclientIPC@@@std@@YAPBVclientIPC@@ABV1@@Z 00452fe0 f i messageWindow.obj
 0002:0002a020       ??$addressof@D@std@@YAPADAAD@Z 00453020 f i messageWindow.obj
 0002:0002a060       ??$construct@HAAH@?$_Wrap_alloc@V?$allocator@U?$_Tree_node@HPAX@std@@@std@@@std@@QAEXPAHAAH@Z 00453060 f i messageWindow.obj
 0002:0002a0d0       ??$construct@HAAH@?$allocator@U?$_Tree_node@HPAX@std@@@std@@QAEXPAHAAH@Z 004530d0 f i messageWindow.obj
 0002:0002a1d0       ??$construct@HAAH@?$allocator_traits@V?$allocator@U?$_Tree_node@HPAX@std@@@std@@@std@@SAXAAV?$allocator@U?$_Tree_node@HPAX@std@@@1@PAHAAH@Z 004531d0 f i messageWindow.obj
 0002:0002a230       ??$construct@IABI@?$_Wrap_alloc@V?$allocator@U?$_List_node@IPAX@std@@@std@@@std@@QAEXPAIABI@Z 00453230 f i messageWindow.obj
 0002:0002a2a0       ??$construct@IABI@?$allocator@U?$_List_node@IPAX@std@@@std@@QAEXPAIABI@Z 004532a0 f i messageWindow.obj
 0002:0002a3a0       ??$construct@IABI@?$allocator_traits@V?$allocator@U?$_List_node@IPAX@std@@@std@@@std@@SAXAAV?$allocator@U?$_List_node@IPAX@std@@@1@PAIABI@Z 004533a0 f i messageWindow.obj
 0002:0002a400       ??$construct@PADAAPAD@?$_Wrap_alloc@V?$allocator@D@std@@@std@@QAEXPAPADAAPAD@Z 00453400 f i messageWindow.obj
 0002:0002a470       ??$construct@PADAAPAD@?$allocator@D@std@@QAEXPAPADAAPAD@Z 00453470 f i messageWindow.obj
 0002:0002a570       ??$construct@PADAAPAD@?$allocator_traits@V?$allocator@D@std@@@std@@SAXAAV?$allocator@D@1@PAPADAAPAD@Z 00453570 f i messageWindow.obj
 0002:0002a5d0       ??$destroy@PAD@?$_Wrap_alloc@V?$allocator@D@std@@@std@@QAEXPAPAD@Z 004535d0 f i messageWindow.obj
 0002:0002a630       ??$destroy@PAD@?$allocator@D@std@@QAEXPAPAD@Z 00453630 f i messageWindow.obj
 0002:0002a670       ??$destroy@PAD@?$allocator_traits@V?$allocator@D@std@@@std@@SAXAAV?$allocator@D@1@PAPAD@Z 00453670 f i messageWindow.obj
 0002:0002a6c0       ??$destroy@PAU?$_List_node@VclientIPC@@PAX@std@@@?$_Wrap_alloc@V?$allocator@U?$_List_node@VclientIPC@@PAX@std@@@std@@@std@@QAEXPAPAU?$_List_node@VclientIPC@@PAX@1@@Z 004536c0 f i messageWindow.obj
 0002:0002a720       ??$destroy@PAU?$_List_node@VclientIPC@@PAX@std@@@?$allocator@U?$_List_node@VclientIPC@@PAX@std@@@std@@QAEXPAPAU?$_List_node@VclientIPC@@PAX@1@@Z 00453720 f i messageWindow.obj
 0002:0002a760       ??$destroy@PAU?$_List_node@VclientIPC@@PAX@std@@@?$allocator_traits@V?$allocator@U?$_List_node@VclientIPC@@PAX@std@@@std@@@std@@SAXAAV?$allocator@U?$_List_node@VclientIPC@@PAX@std@@@1@PAPAU?$_List_node@VclientIPC@@PAX@1@@Z 00453760 f i messageWindow.obj
 0002:0002a7b0       ??$destroy@VclientIPC@@@?$_Wrap_alloc@V?$allocator@U?$_List_node@VclientIPC@@PAX@std@@@std@@@std@@QAEXPAVclientIPC@@@Z 004537b0 f i messageWindow.obj
 0002:0002a810       ??$destroy@VclientIPC@@@?$allocator@U?$_List_node@VclientIPC@@PAX@std@@@std@@QAEXPAVclientIPC@@@Z 00453810 f i messageWindow.obj
 0002:0002a850       ??$destroy@VclientIPC@@@?$allocator_traits@V?$allocator@U?$_List_node@VclientIPC@@PAX@std@@@std@@@std@@SAXAAV?$allocator@U?$_List_node@VclientIPC@@PAX@std@@@1@PAVclientIPC@@@Z 00453850 f i messageWindow.obj
 0002:0002a8a0       ??$forward@AAH@std@@YAAAHAAH@Z 004538a0 f i messageWindow.obj
 0002:0002a8e0       ??$forward@AAPAD@std@@YAAAPADAAPAD@Z 004538e0 f i messageWindow.obj
 0002:0002a920       ??$forward@ABI@std@@YAABIABI@Z 00453920 f i messageWindow.obj
 0002:0002a960       ??$insert@V?$_List_const_iterator@V?$_List_val@U?$_List_simple_types@I@std@@@std@@@std@@@?$list@IV?$allocator@I@std@@@std@@QAE?AV?$_List_iterator@V?$_List_val@U?$_List_simple_types@I@std@@@std@@@1@V?$_List_const_iterator@V?$_List_val@U?$_List_simple_types@I@std@@@std@@@1@00@Z 00453960 f i messageWindow.obj
 0002:0002adb0       ??0?$_Iterator012@Ubidirectional_iterator_tag@std@@IHPBIABIU_Iterator_base12@2@@std@@QAE@ABU01@@Z 00453db0 f i messageWindow.obj
 0002:0002ae10       ??0?$_Iterator012@Ubidirectional_iterator_tag@std@@IHPBIABIU_Iterator_base12@2@@std@@QAE@XZ 00453e10 f i messageWindow.obj
 0002:0002ae70       ??0?$_Iterator012@Ubidirectional_iterator_tag@std@@VclientIPC@@HPBV3@ABV3@U_Iterator_base12@2@@std@@QAE@ABU01@@Z 00453e70 f i messageWindow.obj
 0002:0002aed0       ??0?$_Iterator012@Ubidirectional_iterator_tag@std@@VclientIPC@@HPBV3@ABV3@U_Iterator_base12@2@@std@@QAE@XZ 00453ed0 f i messageWindow.obj
 0002:0002af30       ??0?$_List_alloc@$0A@U?$_List_base_types@IV?$allocator@I@std@@@std@@@std@@QAE@ABV?$allocator@I@1@@Z 00453f30 f i messageWindow.obj
 0002:0002b030       ??0?$_List_alloc@$0A@U?$_List_base_types@VclientIPC@@V?$allocator@VclientIPC@@@std@@@std@@@std@@QAE@ABV?$allocator@VclientIPC@@@1@@Z 00454030 f i messageWindow.obj
 0002:0002b130       ??0?$_List_buy@IV?$allocator@I@std@@@std@@QAE@ABV?$allocator@I@1@@Z 00454130 f i messageWindow.obj
 0002:0002b190       ??0?$_List_buy@VclientIPC@@V?$allocator@VclientIPC@@@std@@@std@@QAE@ABV?$allocator@VclientIPC@@@1@@Z 00454190 f i messageWindow.obj
 0002:0002b1f0       ??0?$_List_const_iterator@V?$_List_val@U?$_List_simple_types@I@std@@@std@@@std@@QAE@ABV01@@Z 004541f0 f i messageWindow.obj
 0002:0002b250       ??0?$_List_const_iterator@V?$_List_val@U?$_List_simple_types@I@std@@@std@@@std@@QAE@PAU?$_List_node@IPAX@1@PBV?$_List_val@U?$_List_simple_types@I@std@@@1@@Z 00454250 f i messageWindow.obj
 0002:0002b2b0       ??0?$_List_const_iterator@V?$_List_val@U?$_List_simple_types@VclientIPC@@@std@@@std@@@std@@QAE@ABV01@@Z 004542b0 f i messageWindow.obj
 0002:0002b310       ??0?$_List_const_iterator@V?$_List_val@U?$_List_simple_types@VclientIPC@@@std@@@std@@@std@@QAE@PAU?$_List_node@VclientIPC@@PAX@1@PBV?$_List_val@U?$_List_simple_types@VclientIPC@@@std@@@1@@Z 00454310 f i messageWindow.obj
 0002:0002b370       ??0?$_List_iterator@V?$_List_val@U?$_List_simple_types@I@std@@@std@@@std@@QAE@ABV01@@Z 00454370 f i messageWindow.obj
 0002:0002b3d0       ??0?$_List_iterator@V?$_List_val@U?$_List_simple_types@I@std@@@std@@@std@@QAE@PAU?$_List_node@IPAX@1@PBV?$_List_val@U?$_List_simple_types@I@std@@@1@@Z 004543d0 f i messageWindow.obj
 0002:0002b430       ??0?$_List_iterator@V?$_List_val@U?$_List_simple_types@VclientIPC@@@std@@@std@@@std@@QAE@PAU?$_List_node@VclientIPC@@PAX@1@PBV?$_List_val@U?$_List_simple_types@VclientIPC@@@std@@@1@@Z 00454430 f i messageWindow.obj
 0002:0002b490       ??0?$_List_unchecked_const_iterator@V?$_List_val@U?$_List_simple_types@I@std@@@std@@U_Iterator_base12@2@@std@@QAE@ABV01@@Z 00454490 f i messageWindow.obj
 0002:0002b500       ??0?$_List_unchecked_const_iterator@V?$_List_val@U?$_List_simple_types@I@std@@@std@@U_Iterator_base12@2@@std@@QAE@PAU?$_List_node@IPAX@1@PBV?$_List_val@U?$_List_simple_types@I@std@@@1@@Z 00454500 f i messageWindow.obj
 0002:0002b5c0       ??0?$_List_unchecked_const_iterator@V?$_List_val@U?$_List_simple_types@VclientIPC@@@std@@@std@@U_Iterator_base12@2@@std@@QAE@ABV01@@Z 004545c0 f i messageWindow.obj
 0002:0002b630       ??0?$_List_unchecked_const_iterator@V?$_List_val@U?$_List_simple_types@VclientIPC@@@std@@@std@@U_Iterator_base12@2@@std@@QAE@PAU?$_List_node@VclientIPC@@PAX@1@PBV?$_List_val@U?$_List_simple_types@VclientIPC@@@std@@@1@@Z 00454630 f i messageWindow.obj
 0002:0002b6f0       ??0?$_List_val@U?$_List_simple_types@I@std@@@std@@QAE@XZ 004546f0 f i messageWindow.obj
 0002:0002b770       ??0?$_List_val@U?$_List_simple_types@VclientIPC@@@std@@@std@@QAE@XZ 00454770 f i messageWindow.obj
 0002:0002b7f0       ??0?$_String_alloc@$0A@U?$_String_base_types@DV?$allocator@D@std@@@std@@@std@@QAE@ABV?$allocator@D@1@@Z 004547f0 f i messageWindow.obj
 0002:0002b8a0       ??0?$_String_val@U?$_Simple_types@D@std@@@std@@QAE@XZ 004548a0 f i messageWindow.obj
 0002:0002b920       ??0?$_Wrap_alloc@V?$allocator@D@std@@@std@@QAE@XZ 00454920 f i messageWindow.obj
 0002:0002b980       ??0?$_Wrap_alloc@V?$allocator@U?$_List_node@IPAX@std@@@std@@@std@@QAE@ABV?$allocator@U?$_List_node@IPAX@std@@@1@@Z 00454980 f i messageWindow.obj
 0002:0002b9e0       ??0?$allocator@D@std@@QAE@XZ 004549e0 f i messageWindow.obj
 0002:0002ba20       ??0?$allocator@I@std@@QAE@XZ 00454a20 f i messageWindow.obj
 0002:0002ba60       ??0?$allocator@U?$_List_node@IPAX@std@@@std@@QAE@ABV01@@Z 00454a60 f i messageWindow.obj
 0002:0002baa0       ??0?$allocator@U?$_Tree_node@HPAX@std@@@std@@QAE@ABV01@@Z 00454aa0 f i messageWindow.obj
 0002:0002bae0       ??0?$allocator@VclientIPC@@@std@@QAE@XZ 00454ae0 f i messageWindow.obj
 0002:0002bb20       ??0?$basic_string@DU?$char_traits@D@std@@V?$allocator@D@2@@std@@QAE@PBD@Z 00454b20 f i messageWindow.obj
 0002:0002bbf0       ??0?$list@IV?$allocator@I@std@@@std@@QAE@ABV01@@Z 00454bf0 f i messageWindow.obj
 0002:0002be00       ??0?$list@IV?$allocator@I@std@@@std@@QAE@XZ 00454e00 f i messageWindow.obj
 0002:0002be70       ??0?$list@VclientIPC@@V?$allocator@VclientIPC@@@std@@@std@@QAE@XZ 00454e70 f i messageWindow.obj
 0002:0002bee0       ??0_Generic_error_category@std@@QAE@XZ 00454ee0 f i messageWindow.obj
 0002:0002bf40       ??0_Ignore@std@@QAE@XZ     00454f40 f i messageWindow.obj
 0002:0002bf80       ??0_Iostream_error_category@std@@QAE@XZ 00454f80 f i messageWindow.obj
 0002:0002bfe0       ??0_System_error_category@std@@QAE@XZ 00454fe0 f i messageWindow.obj
 0002:0002c040       ??0cachePoll@@QAE@DHHH@Z   00455040 f i messageWindow.obj
 0002:0002c0e0       ??0clientIPC@@QAE@PAUHWND__@@H@Z 004550e0 f i messageWindow.obj
 0002:0002c130       ??0error_category@std@@QAE@XZ 00455130 f i messageWindow.obj
 0002:0002c180       ??0error_condition@std@@QAE@HABVerror_category@1@@Z 00455180 f i messageWindow.obj
 0002:0002c1d0       ??1?$_Iterator012@Ubidirectional_iterator_tag@std@@IHPBIABIU_Iterator_base12@2@@std@@QAE@XZ 004551d0 f i messageWindow.obj
 0002:0002c220       ??1?$_Iterator012@Ubidirectional_iterator_tag@std@@VclientIPC@@HPBV3@ABV3@U_Iterator_base12@2@@std@@QAE@XZ 00455220 f i messageWindow.obj
 0002:0002c270       ??1?$_List_alloc@$0A@U?$_List_base_types@VclientIPC@@V?$allocator@VclientIPC@@@std@@@std@@@std@@QAE@XZ 00455270 f i messageWindow.obj
 0002:0002c2e0       ??1?$_List_buy@VclientIPC@@V?$allocator@VclientIPC@@@std@@@std@@QAE@XZ 004552e0 f i messageWindow.obj
 0002:0002c330       ??1?$_List_const_iterator@V?$_List_val@U?$_List_simple_types@I@std@@@std@@@std@@QAE@XZ 00455330 f i messageWindow.obj
 0002:0002c380       ??1?$_List_const_iterator@V?$_List_val@U?$_List_simple_types@VclientIPC@@@std@@@std@@@std@@QAE@XZ 00455380 f i messageWindow.obj
 0002:0002c3d0       ??1?$_List_iterator@V?$_List_val@U?$_List_simple_types@I@std@@@std@@@std@@QAE@XZ 004553d0 f i messageWindow.obj
 0002:0002c420       ??1?$_List_iterator@V?$_List_val@U?$_List_simple_types@VclientIPC@@@std@@@std@@@std@@QAE@XZ 00455420 f i messageWindow.obj
 0002:0002c470       ??1?$_List_unchecked_const_iterator@V?$_List_val@U?$_List_simple_types@I@std@@@std@@U_Iterator_base12@2@@std@@QAE@XZ 00455470 f i messageWindow.obj
 0002:0002c4c0       ??1?$_List_unchecked_const_iterator@V?$_List_val@U?$_List_simple_types@VclientIPC@@@std@@@std@@U_Iterator_base12@2@@std@@QAE@XZ 004554c0 f i messageWindow.obj
 0002:0002c510       ??1?$_List_val@U?$_List_simple_types@VclientIPC@@@std@@@std@@QAE@XZ 00455510 f i messageWindow.obj
 0002:0002c570       ??1?$_String_alloc@$0A@U?$_String_base_types@DV?$allocator@D@std@@@std@@@std@@QAE@XZ 00455570 f i messageWindow.obj
 0002:0002c5d0       ??1?$_String_val@U?$_Simple_types@D@std@@@std@@QAE@XZ 004555d0 f i messageWindow.obj
 0002:0002c630       ??1?$list@VclientIPC@@V?$allocator@VclientIPC@@@std@@@std@@QAE@XZ 00455630 f i messageWindow.obj
 0002:0002c690       ??1_Generic_error_category@std@@UAE@XZ 00455690 f i messageWindow.obj
 0002:0002c6e0       ??1_Iostream_error_category@std@@UAE@XZ 004556e0 f i messageWindow.obj
 0002:0002c730       ??1_System_error_category@std@@UAE@XZ 00455730 f i messageWindow.obj
 0002:0002c780       ??1cachePoll@@UAE@XZ       00455780 f i messageWindow.obj
 0002:0002c7e0       ??1error_category@std@@UAE@XZ 004557e0 f i messageWindow.obj
 0002:0002c820       ??4?$_Tree@V?$_Tset_traits@HU?$less@H@std@@V?$allocator@H@2@$0A@@std@@@std@@QAEAAV01@ABV01@@Z 00455820 f i messageWindow.obj
 0002:0002c930       ??4?$set@HU?$less@H@std@@V?$allocator@H@2@@std@@QAEAAV01@ABV01@@Z 00455930 f i messageWindow.obj
 0002:0002c990       ??8?$_List_const_iterator@V?$_List_val@U?$_List_simple_types@I@std@@@std@@@std@@QBE_NABV01@@Z 00455990 f i messageWindow.obj
 0002:0002caf0       ??8?$_List_const_iterator@V?$_List_val@U?$_List_simple_types@VclientIPC@@@std@@@std@@@std@@QBE_NABV01@@Z 00455af0 f i messageWindow.obj
 0002:0002cc50       ??8error_category@std@@QBE_NABV01@@Z 00455c50 f i messageWindow.obj
 0002:0002ccc0       ??8error_condition@std@@QBE_NABV01@@Z 00455cc0 f i messageWindow.obj
 0002:0002cd70       ??9?$_List_const_iterator@V?$_List_val@U?$_List_simple_types@I@std@@@std@@@std@@QBE_NABV01@@Z 00455d70 f i messageWindow.obj
 0002:0002ce00       ??9?$_List_const_iterator@V?$_List_val@U?$_List_simple_types@VclientIPC@@@std@@@std@@@std@@QBE_NABV01@@Z 00455e00 f i messageWindow.obj
 0002:0002ce90       ??BclientIPC@@QBEPAUHWND__@@XZ 00455e90 f i messageWindow.obj
 0002:0002ced0       ??C?$_List_iterator@V?$_List_val@U?$_List_simple_types@VclientIPC@@@std@@@std@@@std@@QBEPAVclientIPC@@XZ 00455ed0 f i messageWindow.obj
 0002:0002cf30       ??C?$_List_unchecked_const_iterator@V?$_List_val@U?$_List_simple_types@VclientIPC@@@std@@@std@@U_Iterator_base12@2@@std@@QBEPBVclientIPC@@XZ 00455f30 f i messageWindow.obj
 0002:0002cf90       ??D?$_List_const_iterator@V?$_List_val@U?$_List_simple_types@I@std@@@std@@@std@@QBEABIXZ 00455f90 f i messageWindow.obj
 0002:0002d0d0       ??D?$_List_const_iterator@V?$_List_val@U?$_List_simple_types@VclientIPC@@@std@@@std@@@std@@QBEABVclientIPC@@XZ 004560d0 f i messageWindow.obj
 0002:0002d210       ??D?$_List_iterator@V?$_List_val@U?$_List_simple_types@I@std@@@std@@@std@@QBEAAIXZ 00456210 f i messageWindow.obj
 0002:0002d260       ??D?$_List_iterator@V?$_List_val@U?$_List_simple_types@VclientIPC@@@std@@@std@@@std@@QBEAAVclientIPC@@XZ 00456260 f i messageWindow.obj
 0002:0002d2b0       ??D?$_List_unchecked_const_iterator@V?$_List_val@U?$_List_simple_types@VclientIPC@@@std@@@std@@U_Iterator_base12@2@@std@@QBEABVclientIPC@@XZ 004562b0 f i messageWindow.obj
 0002:0002d310       ??D?$_Tree_const_iterator@V?$_Tree_val@U?$_Tree_simple_types@H@std@@@std@@@std@@QBEABHXZ 00456310 f i messageWindow.obj
 0002:0002d450       ??E?$_List_const_iterator@V?$_List_val@U?$_List_simple_types@I@std@@@std@@@std@@QAEAAV01@XZ 00456450 f i messageWindow.obj
 0002:0002d5a0       ??E?$_List_const_iterator@V?$_List_val@U?$_List_simple_types@VclientIPC@@@std@@@std@@@std@@QAE?AV01@H@Z 004565a0 f i messageWindow.obj
 0002:0002d6c0       ??E?$_List_const_iterator@V?$_List_val@U?$_List_simple_types@VclientIPC@@@std@@@std@@@std@@QAEAAV01@XZ 004566c0 f i messageWindow.obj
 0002:0002d810       ??E?$_List_iterator@V?$_List_val@U?$_List_simple_types@I@std@@@std@@@std@@QAEAAV01@XZ 00456810 f i messageWindow.obj
 0002:0002d870       ??E?$_List_iterator@V?$_List_val@U?$_List_simple_types@VclientIPC@@@std@@@std@@@std@@QAEAAV01@XZ 00456870 f i messageWindow.obj
 0002:0002d8d0       ??F?$_List_const_iterator@V?$_List_val@U?$_List_simple_types@I@std@@@std@@@std@@QAEAAV01@XZ 004568d0 f i messageWindow.obj
 0002:0002da20       ??F?$_List_iterator@V?$_List_val@U?$_List_simple_types@I@std@@@std@@@std@@QAEAAV01@XZ 00456a20 f i messageWindow.obj
 0002:0002da80       ??F?$_List_unchecked_const_iterator@V?$_List_val@U?$_List_simple_types@I@std@@@std@@U_Iterator_base0@2@@std@@QAEAAV01@XZ 00456a80 f i messageWindow.obj
 0002:0002daf0       ??_E_Generic_error_category@std@@UAEPAXI@Z 00456af0 f i messageWindow.obj
 0002:0002daf0       ??_G_Generic_error_category@std@@UAEPAXI@Z 00456af0 f i messageWindow.obj
 0002:0002db60       ??_G_Iostream_error_category@std@@UAEPAXI@Z 00456b60 f i messageWindow.obj
 0002:0002db60       ??_E_Iostream_error_category@std@@UAEPAXI@Z 00456b60 f i messageWindow.obj
 0002:0002dbd0       ??_G_System_error_category@std@@UAEPAXI@Z 00456bd0 f i messageWindow.obj
 0002:0002dbd0       ??_E_System_error_category@std@@UAEPAXI@Z 00456bd0 f i messageWindow.obj
 0002:0002dc40       ??_GcachePoll@@UAEPAXI@Z   00456c40 f i messageWindow.obj
 0002:0002dc40       ??_EcachePoll@@UAEPAXI@Z   00456c40 f i messageWindow.obj
 0002:0002dcb0       ??_Gerror_category@std@@UAEPAXI@Z 00456cb0 f i messageWindow.obj
 0002:0002dcb0       ??_Eerror_category@std@@UAEPAXI@Z 00456cb0 f i messageWindow.obj
 0002:0002dd20       ??_EmessageWindow@@UAEPAXI@Z 00456d20 f i messageWindow.obj
 0002:0002dd20       ??_GmessageWindow@@UAEPAXI@Z 00456d20 f i messageWindow.obj
 0002:0002dd90       ?_Alloc_proxy@?$_List_alloc@$0A@U?$_List_base_types@IV?$allocator@I@std@@@std@@@std@@QAEXXZ 00456d90 f i messageWindow.obj
 0002:0002de60       ?_Alloc_proxy@?$_List_alloc@$0A@U?$_List_base_types@VclientIPC@@V?$allocator@VclientIPC@@@std@@@std@@@std@@QAEXXZ 00456e60 f i messageWindow.obj
 0002:0002df30       ?_Alloc_proxy@?$_String_alloc@$0A@U?$_String_base_types@DV?$allocator@D@std@@@std@@@std@@QAEXXZ 00456f30 f i messageWindow.obj
 0002:0002e000       ?_Buyheadnode@?$_List_alloc@$0A@U?$_List_base_types@IV?$allocator@I@std@@@std@@@std@@QAEPAU?$_List_node@IPAX@2@XZ 00457000 f i messageWindow.obj
 0002:0002e060       ?_Buyheadnode@?$_List_alloc@$0A@U?$_List_base_types@VclientIPC@@V?$allocator@VclientIPC@@@std@@@std@@@std@@QAEPAU?$_List_node@VclientIPC@@PAX@2@XZ 00457060 f i messageWindow.obj
 0002:0002e0c0       ?_Change_alloc@?$_Tree_alloc@$0A@U?$_Tree_base_types@HV?$allocator@H@std@@@std@@@std@@QAEXABU?$_Wrap_alloc@V?$allocator@U?$_Tree_node@HPAX@std@@@std@@@2@@Z 004570c0 f i messageWindow.obj
 0002:0002e100       ?_Copy@?$basic_string@DU?$char_traits@D@std@@V?$allocator@D@2@@std@@QAEXII@Z 00457100 f i messageWindow.obj
 0002:0002e3c0       ?_Eos@?$basic_string@DU?$char_traits@D@std@@V?$allocator@D@2@@std@@QAEXI@Z 004573c0 f i messageWindow.obj
 0002:0002e440       ?_Free_proxy@?$_List_alloc@$0A@U?$_List_base_types@VclientIPC@@V?$allocator@VclientIPC@@@std@@@std@@@std@@QAEXXZ 00457440 f i messageWindow.obj
 0002:0002e520       ?_Free_proxy@?$_String_alloc@$0A@U?$_String_base_types@DV?$allocator@D@std@@@std@@@std@@QAEXXZ 00457520 f i messageWindow.obj
 0002:0002e600       ?_Freeheadnode@?$_List_alloc@$0A@U?$_List_base_types@VclientIPC@@V?$allocator@VclientIPC@@@std@@@std@@@std@@QAEXPAU?$_List_node@VclientIPC@@PAX@2@@Z 00457600 f i messageWindow.obj
 0002:0002e6e0       ?_Freenode@?$_List_buy@VclientIPC@@V?$allocator@VclientIPC@@@std@@@std@@QAEXPAU?$_List_node@VclientIPC@@PAX@2@@Z 004576e0 f i messageWindow.obj
 0002:0002e7f0       ?_Getal@?$_String_alloc@$0A@U?$_String_base_types@DV?$allocator@D@std@@@std@@@std@@QBE?AU?$_Wrap_alloc@V?$allocator@D@std@@@2@XZ 004577f0 f i messageWindow.obj
 0002:0002e850       ?_Grow@?$basic_string@DU?$char_traits@D@std@@V?$allocator@D@2@@std@@QAE_NI_N@Z 00457850 f i messageWindow.obj
 0002:0002e970       ?_Inside@?$basic_string@DU?$char_traits@D@std@@V?$allocator@D@2@@std@@QAE_NPBD@Z 00457970 f i messageWindow.obj
 0002:0002e9f0       ?_Lbound@?$_Tree@V?$_Tset_traits@HU?$less@H@std@@V?$allocator@H@2@$0A@@std@@@std@@IAEPAU?$_Tree_node@HPAX@2@ABH@Z 004579f0 f i messageWindow.obj
 0002:0002eb00       ?_Make_iter@?$list@IV?$allocator@I@std@@@std@@QBE?AV?$_List_iterator@V?$_List_val@U?$_List_simple_types@I@std@@@std@@@2@V?$_List_const_iterator@V?$_List_val@U?$_List_simple_types@I@std@@@std@@@2@@Z 00457b00 f i messageWindow.obj
 0002:0002eb70       ?_Make_iter@?$list@VclientIPC@@V?$allocator@VclientIPC@@@std@@@std@@QBE?AV?$_List_iterator@V?$_List_val@U?$_List_simple_types@VclientIPC@@@std@@@std@@@2@V?$_List_const_iterator@V?$_List_val@U?$_List_simple_types@VclientIPC@@@std@@@std@@@2@@Z 00457b70 f i messageWindow.obj
 0002:0002ebe0       ?_Mynode@?$_List_unchecked_const_iterator@V?$_List_val@U?$_List_simple_types@VclientIPC@@@std@@@std@@U_Iterator_base12@2@@std@@QBEPAU?$_List_node@VclientIPC@@PAX@2@XZ 00457be0 f i messageWindow.obj
 0002:0002ec20       ?_Myptr@?$_String_val@U?$_Simple_types@D@std@@@std@@QAEPADXZ 00457c20 f i messageWindow.obj
 0002:0002ecb0       ?_Myptr@?$_String_val@U?$_Simple_types@D@std@@@std@@QBEPBDXZ 00457cb0 f i messageWindow.obj
 0002:0002ed40       ?_Orphan_ptr@?$list@VclientIPC@@V?$allocator@VclientIPC@@@std@@@std@@QBEXAAV12@PAU?$_List_node@VclientIPC@@PAX@2@@Z 00457d40 f i messageWindow.obj
 0002:0002eed0       ?_Setcomp@?$_Tree_comp@$0A@V?$_Tset_traits@HU?$less@H@std@@V?$allocator@H@2@$0A@@std@@@std@@QAEXABU?$less@H@2@@Z 00457ed0 f i messageWindow.obj
 0002:0002ef10       ?_Tidy@?$basic_string@DU?$char_traits@D@std@@V?$allocator@D@2@@std@@QAEX_NI@Z 00457f10 f i messageWindow.obj
 0002:0002f020       ?_Tidy@?$list@VclientIPC@@V?$allocator@VclientIPC@@@std@@@std@@QAEXXZ 00458020 f i messageWindow.obj
 0002:0002f070       ?_Unchecked@?$_List_const_iterator@V?$_List_val@U?$_List_simple_types@I@std@@@std@@@std@@QBE?AV?$_List_unchecked_const_iterator@V?$_List_val@U?$_List_simple_types@I@std@@@std@@U_Iterator_base0@2@@2@XZ 00458070 f i messageWindow.obj
 0002:0002f0e0       ?_Unchecked_begin@?$list@IV?$allocator@I@std@@@std@@QAE?AV?$_List_unchecked_iterator@V?$_List_val@U?$_List_simple_types@I@std@@@std@@@2@XZ 004580e0 f i messageWindow.obj
 0002:0002f150       ?_Unchecked_begin@?$list@VclientIPC@@V?$allocator@VclientIPC@@@std@@@std@@QAE?AV?$_List_unchecked_iterator@V?$_List_val@U?$_List_simple_types@VclientIPC@@@std@@@std@@@2@XZ 00458150 f i messageWindow.obj
 0002:0002f1c0       ?_Unchecked_erase@?$list@IV?$allocator@I@std@@@std@@QAEXV?$_List_unchecked_const_iterator@V?$_List_val@U?$_List_simple_types@I@std@@@std@@U_Iterator_base0@2@@2@@Z 004581c0 f i messageWindow.obj
 0002:0002f2a0       ?_Unlinknode@?$list@VclientIPC@@V?$allocator@VclientIPC@@@std@@@std@@QAEPAU?$_List_node@VclientIPC@@PAX@2@V?$_List_const_iterator@V?$_List_val@U?$_List_simple_types@VclientIPC@@@std@@@std@@@2@@Z 004582a0 f i messageWindow.obj
 0002:0002f430       ?_Xlen@?$basic_string@DU?$char_traits@D@std@@V?$allocator@D@2@@std@@QBEXXZ 00458430 f i messageWindow.obj
 0002:0002f490       ?_Xran@?$basic_string@DU?$char_traits@D@std@@V?$allocator@D@2@@std@@QBEXXZ 00458490 f i messageWindow.obj
 0002:0002f4f0       ?allocate@?$_Wrap_alloc@V?$allocator@D@std@@@std@@QAEPADI@Z 004584f0 f i messageWindow.obj
 0002:0002f550       ?allocate@?$allocator@D@std@@QAEPADI@Z 00458550 f i messageWindow.obj
 0002:0002f5b0       ?assign@?$basic_string@DU?$char_traits@D@std@@V?$allocator@D@2@@std@@QAEAAV12@ABV12@II@Z 004585b0 f i messageWindow.obj
 0002:0002f6c0       ?assign@?$basic_string@DU?$char_traits@D@std@@V?$allocator@D@2@@std@@QAEAAV12@PBD@Z 004586c0 f i messageWindow.obj
 0002:0002f750       ?assign@?$basic_string@DU?$char_traits@D@std@@V?$allocator@D@2@@std@@QAEAAV12@PBDI@Z 00458750 f i messageWindow.obj
 0002:0002f850       ?assign@?$char_traits@D@std@@SAXAADABD@Z 00458850 f i messageWindow.obj
 0002:0002f890       ?begin@?$list@IV?$allocator@I@std@@@std@@QAE?AV?$_List_iterator@V?$_List_val@U?$_List_simple_types@I@std@@@std@@@2@XZ 00458890 f i messageWindow.obj
 0002:0002f900       ?begin@?$list@IV?$allocator@I@std@@@std@@QBE?AV?$_List_const_iterator@V?$_List_val@U?$_List_simple_types@I@std@@@std@@@2@XZ 00458900 f i messageWindow.obj
 0002:0002f970       ?begin@?$list@VclientIPC@@V?$allocator@VclientIPC@@@std@@@std@@QAE?AV?$_List_iterator@V?$_List_val@U?$_List_simple_types@VclientIPC@@@std@@@std@@@2@XZ 00458970 f i messageWindow.obj
 0002:0002f9e0       ?category@error_code@std@@QBEABVerror_category@2@XZ 004589e0 f i messageWindow.obj
 0002:0002fa20       ?category@error_condition@std@@QBEABVerror_category@2@XZ 00458a20 f i messageWindow.obj
 0002:0002fa60       ?clear@?$list@VclientIPC@@V?$allocator@VclientIPC@@@std@@@std@@QAEXXZ 00458a60 f i messageWindow.obj
 0002:0002fb60       ?copy@?$char_traits@D@std@@SAPADPADPBDI@Z 00458b60 f i messageWindow.obj
 0002:0002fbe0       ?deallocate@?$_Wrap_alloc@V?$allocator@D@std@@@std@@QAEXPADI@Z 00458be0 f i messageWindow.obj
 0002:0002fc40       ?deallocate@?$allocator@D@std@@QAEXPADI@Z 00458c40 f i messageWindow.obj
 0002:0002fca0       ?default_error_condition@_System_error_category@std@@UBE?AVerror_condition@2@H@Z 00458ca0 f i messageWindow.obj
 0002:0002fd50       ?default_error_condition@error_category@std@@UBE?AVerror_condition@2@H@Z 00458d50 f i messageWindow.obj
 0002:0002fdb0       ?end@?$list@IV?$allocator@I@std@@@std@@QAE?AV?$_List_iterator@V?$_List_val@U?$_List_simple_types@I@std@@@std@@@2@XZ 00458db0 f i messageWindow.obj
 0002:0002fe20       ?end@?$list@IV?$allocator@I@std@@@std@@QBE?AV?$_List_const_iterator@V?$_List_val@U?$_List_simple_types@I@std@@@std@@@2@XZ 00458e20 f i messageWindow.obj
 0002:0002fe90       ?end@?$list@VclientIPC@@V?$allocator@VclientIPC@@@std@@@std@@QAE?AV?$_List_iterator@V?$_List_val@U?$_List_simple_types@VclientIPC@@@std@@@std@@@2@XZ 00458e90 f i messageWindow.obj
 0002:0002ff00       ?equivalent@error_category@std@@UBE_NABVerror_code@2@H@Z 00458f00 f i messageWindow.obj
 0002:0002ffa0       ?equivalent@error_category@std@@UBE_NHABVerror_condition@2@@Z 00458fa0 f i messageWindow.obj
 0002:00030020       ?erase@?$basic_string@DU?$char_traits@D@std@@V?$allocator@D@2@@std@@QAEAAV12@I@Z 00459020 f i messageWindow.obj
 0002:000300a0       ?erase@?$basic_string@DU?$char_traits@D@std@@V?$allocator@D@2@@std@@QAEAAV12@II@Z 004590a0 f i messageWindow.obj
 0002:00030180       ?erase@?$list@VclientIPC@@V?$allocator@VclientIPC@@@std@@@std@@QAE?AV?$_List_iterator@V?$_List_val@U?$_List_simple_types@VclientIPC@@@std@@@std@@@2@V?$_List_const_iterator@V?$_List_val@U?$_List_simple_types@VclientIPC@@@std@@@std@@@2@@Z 00459180 f i messageWindow.obj
 0002:000302c0       ?find@?$_Tree@V?$_Tset_traits@HU?$less@H@std@@V?$allocator@H@2@$0A@@std@@@std@@QAE?AV?$_Tree_const_iterator@V?$_Tree_val@U?$_Tree_simple_types@H@std@@@std@@@2@ABH@Z 004592c0 f i messageWindow.obj
 0002:000305d0       ?generic_category@std@@YAABVerror_category@1@XZ 004595d0 f i messageWindow.obj
 0002:00030610       ?length@?$char_traits@D@std@@SAIPBD@Z 00459610 f i messageWindow.obj
 0002:00030690       ?lower_bound@?$_Tree@V?$_Tset_traits@HU?$less@H@std@@V?$allocator@H@2@$0A@@std@@@std@@QAE?AV?$_Tree_const_iterator@V?$_Tree_val@U?$_Tree_simple_types@H@std@@@std@@@2@ABH@Z 00459690 f i messageWindow.obj
 0002:00030720       ?max_size@?$_Wrap_alloc@V?$allocator@D@std@@@std@@QBEIXZ 00459720 f i messageWindow.obj
 0002:00030780       ?max_size@?$allocator@D@std@@QBEIXZ 00459780 f i messageWindow.obj
 0002:000307c0       ?max_size@?$allocator_traits@V?$allocator@D@std@@@std@@SAIABV?$allocator@D@2@@Z 004597c0 f i messageWindow.obj
 0002:00030810       ?max_size@?$basic_string@DU?$char_traits@D@std@@V?$allocator@D@2@@std@@QBEIXZ 00459810 f i messageWindow.obj
 0002:000308b0       ?message@_Generic_error_category@std@@UBE?AV?$basic_string@DU?$char_traits@D@std@@V?$allocator@D@2@@2@H@Z 004598b0 f i messageWindow.obj
 0002:00030970       ?message@_Iostream_error_category@std@@UBE?AV?$basic_string@DU?$char_traits@D@std@@V?$allocator@D@2@@2@H@Z 00459970 f i messageWindow.obj
 0002:00030a30       ?message@_System_error_category@std@@UBE?AV?$basic_string@DU?$char_traits@D@std@@V?$allocator@D@2@@2@H@Z 00459a30 f i messageWindow.obj
 0002:00030af0       ?metaObject@messageWindow@@UBEPAVQMetaObject@@XZ 00459af0 f i messageWindow.obj
 0002:00030b40       ?move@?$char_traits@D@std@@SAPADPADPBDI@Z 00459b40 f i messageWindow.obj
 0002:00030bd0       ?name@_Generic_error_category@std@@UBEPBDXZ 00459bd0 f i messageWindow.obj
 0002:00030c10       ?name@_Iostream_error_category@std@@UBEPBDXZ 00459c10 f i messageWindow.obj
 0002:00030c50       ?name@_System_error_category@std@@UBEPBDXZ 00459c50 f i messageWindow.obj
 0002:00030c90       ?pointer_to@?$pointer_traits@PAVclientIPC@@@std@@SAPAVclientIPC@@AAV3@@Z 00459c90 f i messageWindow.obj
 0002:00030ce0       ?pointer_to@?$pointer_traits@PBVclientIPC@@@std@@SAPBVclientIPC@@ABV3@@Z 00459ce0 f i messageWindow.obj
 0002:00030d30       ?push_front@?$list@IV?$allocator@I@std@@@std@@QAEXABI@Z 00459d30 f i messageWindow.obj
 0002:00030db0       ?push_front@?$list@VclientIPC@@V?$allocator@VclientIPC@@@std@@@std@@QAEX$$QAVclientIPC@@@Z 00459db0 f i messageWindow.obj
 0002:00030e40       ?select_on_container_copy_construction@?$_Wrap_alloc@V?$allocator@U?$_List_node@IPAX@std@@@std@@@std@@QBE?AU12@XZ 00459e40 f i messageWindow.obj
 0002:00030eb0       ?select_on_container_copy_construction@?$allocator@U?$_List_node@IPAX@std@@@std@@QBE?AV12@XZ 00459eb0 f i messageWindow.obj
 0002:00030f10       ?select_on_container_copy_construction@?$allocator_traits@V?$allocator@U?$_List_node@IPAX@std@@@std@@@std@@SA?AV?$allocator@U?$_List_node@IPAX@std@@@2@ABV32@@Z 00459f10 f i messageWindow.obj
 0002:00030f70       ?size@?$_Tree@V?$_Tset_traits@HU?$less@H@std@@V?$allocator@H@2@$0A@@std@@@std@@QBEIXZ 00459f70 f i messageWindow.obj
 0002:00030fb0       ?size@?$basic_string@DU?$char_traits@D@std@@V?$allocator@D@2@@std@@QBEIXZ 00459fb0 f i messageWindow.obj
 0002:00030ff0       ?size@?$list@VclientIPC@@V?$allocator@VclientIPC@@@std@@@std@@QBEIXZ 00459ff0 f i messageWindow.obj
 0002:00031030       ?system_category@std@@YAABVerror_category@1@XZ 0045a030 f i messageWindow.obj
 0002:00031070       ?value@error_code@std@@QBEHXZ 0045a070 f i messageWindow.obj
 0002:000310b0       ?value@error_condition@std@@QBEHXZ 0045a0b0 f i messageWindow.obj
 0002:000310f0       ?className@aboutDialog@@UBEPBDXZ 0045a0f0 f   moc_aboutdialog.obj
 0002:00031120       ?qt_cast@aboutDialog@@UAEPAXPBD@Z 0045a120 f   moc_aboutdialog.obj
 0002:000311a0       ?qt_invoke@aboutDialog@@UAE_NHPAUQUObject@@@Z 0045a1a0 f   moc_aboutdialog.obj
 0002:00031240       ?qt_emit@aboutDialog@@UAE_NHPAUQUObject@@@Z 0045a240 f   moc_aboutdialog.obj
 0002:000312a0       ?qt_property@aboutDialog@@UAE_NHHPAVQVariant@@@Z 0045a2a0 f   moc_aboutdialog.obj
 0002:00031300       ?qt_static_property@aboutDialog@@SA_NPAVQObject@@HHPAVQVariant@@@Z 0045a300 f   moc_aboutdialog.obj
 0002:00031330       ?staticMetaObject@aboutDialog@@SAPAVQMetaObject@@XZ 0045a330 f   moc_aboutdialog.obj
 0002:000313e0       ?tr@aboutDialog@@SA?AVQString@@PBD0@Z 0045a3e0 f   moc_aboutdialog.obj
 0002:000314a0       ?trUtf8@aboutDialog@@SA?AVQString@@PBD0@Z 0045a4a0 f   moc_aboutdialog.obj
 0002:00031670       ?className@aboutDialogImpl@@UBEPBDXZ 0045a670 f   moc_aboutdialogimpl.obj
 0002:000316a0       ?qt_cast@aboutDialogImpl@@UAEPAXPBD@Z 0045a6a0 f   moc_aboutdialogimpl.obj
 0002:00031710       ?qt_invoke@aboutDialogImpl@@UAE_NHPAUQUObject@@@Z 0045a710 f   moc_aboutdialogimpl.obj
 0002:00031760       ?qt_emit@aboutDialogImpl@@UAE_NHPAUQUObject@@@Z 0045a760 f   moc_aboutdialogimpl.obj
 0002:000317b0       ?qt_property@aboutDialogImpl@@UAE_NHHPAVQVariant@@@Z 0045a7b0 f   moc_aboutdialogimpl.obj
 0002:00031800       ?qt_static_property@aboutDialogImpl@@SA_NPAVQObject@@HHPAVQVariant@@@Z 0045a800 f   moc_aboutdialogimpl.obj
 0002:00031830       ?staticMetaObject@aboutDialogImpl@@SAPAVQMetaObject@@XZ 0045a830 f   moc_aboutdialogimpl.obj
 0002:000318d0       ?tr@aboutDialogImpl@@SA?AVQString@@PBD0@Z 0045a8d0 f   moc_aboutdialogimpl.obj
 0002:00031990       ?trUtf8@aboutDialogImpl@@SA?AVQString@@PBD0@Z 0045a990 f   moc_aboutdialogimpl.obj
 0002:00031b40       ?className@bncslink32MainWindow@@UBEPBDXZ 0045ab40 f   moc_bncslink32mainwindow.obj
 0002:00031b70       ?qt_cast@bncslink32MainWindow@@UAEPAXPBD@Z 0045ab70 f   moc_bncslink32mainwindow.obj
 0002:00031bf0       ?qt_invoke@bncslink32MainWindow@@UAE_NHPAUQUObject@@@Z 0045abf0 f   moc_bncslink32mainwindow.obj
 0002:00031c90       ?qt_emit@bncslink32MainWindow@@UAE_NHPAUQUObject@@@Z 0045ac90 f   moc_bncslink32mainwindow.obj
 0002:00031cf0       ?qt_property@bncslink32MainWindow@@UAE_NHHPAVQVariant@@@Z 0045acf0 f   moc_bncslink32mainwindow.obj
 0002:00031d50       ?qt_static_property@bncslink32MainWindow@@SA_NPAVQObject@@HHPAVQVariant@@@Z 0045ad50 f   moc_bncslink32mainwindow.obj
 0002:00031d80       ?staticMetaObject@bncslink32MainWindow@@SAPAVQMetaObject@@XZ 0045ad80 f   moc_bncslink32mainwindow.obj
 0002:00031e30       ?tr@bncslink32MainWindow@@SA?AVQString@@PBD0@Z 0045ae30 f   moc_bncslink32mainwindow.obj
 0002:00031ef0       ?trUtf8@bncslink32MainWindow@@SA?AVQString@@PBD0@Z 0045aef0 f   moc_bncslink32mainwindow.obj
 0002:000320c0       ?className@bncslink32MainWindowImpl@@UBEPBDXZ 0045b0c0 f   moc_bncslink32mainwindowimpl.obj
 0002:000320f0       ?qt_cast@bncslink32MainWindowImpl@@UAEPAXPBD@Z 0045b0f0 f   moc_bncslink32mainwindowimpl.obj
 0002:00032160       ?qt_invoke@bncslink32MainWindowImpl@@UAE_NHPAUQUObject@@@Z 0045b160 f   moc_bncslink32mainwindowimpl.obj
 0002:00032330       ?qt_emit@bncslink32MainWindowImpl@@UAE_NHPAUQUObject@@@Z 0045b330 f   moc_bncslink32mainwindowimpl.obj
 0002:00032380       ?qt_property@bncslink32MainWindowImpl@@UAE_NHHPAVQVariant@@@Z 0045b380 f   moc_bncslink32mainwindowimpl.obj
 0002:000323d0       ?qt_static_property@bncslink32MainWindowImpl@@SA_NPAVQObject@@HHPAVQVariant@@@Z 0045b3d0 f   moc_bncslink32mainwindowimpl.obj
 0002:00032400       ?staticMetaObject@bncslink32MainWindowImpl@@SAPAVQMetaObject@@XZ 0045b400 f   moc_bncslink32mainwindowimpl.obj
 0002:00032600       ?tr@bncslink32MainWindowImpl@@SA?AVQString@@PBD0@Z 0045b600 f   moc_bncslink32mainwindowimpl.obj
 0002:000326c0       ?trUtf8@bncslink32MainWindowImpl@@SA?AVQString@@PBD0@Z 0045b6c0 f   moc_bncslink32mainwindowimpl.obj
 0002:00032920       ?className@fabianClient@@UBEPBDXZ 0045b920 f   moc_fabianClient.obj
 0002:00032950       ?qt_cast@fabianClient@@UAEPAXPBD@Z 0045b950 f   moc_fabianClient.obj
 0002:000329d0       ?qt_invoke@fabianClient@@UAE_NHPAUQUObject@@@Z 0045b9d0 f   moc_fabianClient.obj
 0002:00033140       ?qt_emit@fabianClient@@UAE_NHPAUQUObject@@@Z 0045c140 f   moc_fabianClient.obj
 0002:000334e0       ?qt_property@fabianClient@@UAE_NHHPAVQVariant@@@Z 0045c4e0 f   moc_fabianClient.obj
 0002:00033540       ?qt_static_property@fabianClient@@SA_NPAVQObject@@HHPAVQVariant@@@Z 0045c540 f   moc_fabianClient.obj
 0002:00033570       ?staticMetaObject@fabianClient@@SAPAVQMetaObject@@XZ 0045c570 f   moc_fabianClient.obj
 0002:000341d0       ?tr@fabianClient@@SA?AVQString@@PBD0@Z 0045d1d0 f   moc_fabianClient.obj
 0002:00034290       ?trUtf8@fabianClient@@SA?AVQString@@PBD0@Z 0045d290 f   moc_fabianClient.obj
 0002:00034350       ?routerRevertive@fabianClient@@IAEXIIH@Z 0045d350 f   moc_fabianClient.obj
 0002:00034500       ?infoRevertive@fabianClient@@IAEXIIABVQString@@@Z 0045d500 f   moc_fabianClient.obj
 0002:000346b0       ?gpiRevertive@fabianClient@@IAEXII_N@Z 0045d6b0 f   moc_fabianClient.obj
 0002:00034860       ?connected@fabianClient@@IAEX_N@Z 0045d860 f   moc_fabianClient.obj
 0002:000348d0       ?log@fabianClient@@IAEXABVQString@@@Z 0045d8d0 f   moc_fabianClient.obj
 0002:000349a0       ?logError@fabianClient@@IAEXABVQString@@@Z 0045d9a0 f   moc_fabianClient.obj
 0002:00034a70       ?routerName@fabianClient@@IAEXIIIABVQString@@@Z 0045da70 f   moc_fabianClient.obj
 0002:00034c40       ?databaseChange@fabianClient@@IAEXIIIABVQString@@@Z 0045dc40 f   moc_fabianClient.obj
 0002:00035740       ?className@messageWindow@@UBEPBDXZ 0045e740 f   moc_messageWindow.obj
 0002:00035770       ?qt_cast@messageWindow@@UAEPAXPBD@Z 0045e770 f   moc_messageWindow.obj
 0002:000357f0       ?qt_invoke@messageWindow@@UAE_NHPAUQUObject@@@Z 0045e7f0 f   moc_messageWindow.obj
 0002:00035b50       ?qt_emit@messageWindow@@UAE_NHPAUQUObject@@@Z 0045eb50 f   moc_messageWindow.obj
 0002:00036230       ?qt_property@messageWindow@@UAE_NHHPAVQVariant@@@Z 0045f230 f   moc_messageWindow.obj
 0002:00036290       ?qt_static_property@messageWindow@@SA_NPAVQObject@@HHPAVQVariant@@@Z 0045f290 f   moc_messageWindow.obj
 0002:000362c0       ?staticMetaObject@messageWindow@@SAPAVQMetaObject@@XZ 0045f2c0 f   moc_messageWindow.obj
 0002:00036e50       ?tr@messageWindow@@SA?AVQString@@PBD0@Z 0045fe50 f   moc_messageWindow.obj
 0002:00036f10       ?trUtf8@messageWindow@@SA?AVQString@@PBD0@Z 0045ff10 f   moc_messageWindow.obj
 0002:00036fd0       ?infoWrite@messageWindow@@IAEXIIABVQString@@@Z 0045ffd0 f   moc_messageWindow.obj
 0002:00037180       ?infoPoll@messageWindow@@IAEXIII@Z 00460180 f   moc_messageWindow.obj
 0002:00037330       ?infoLock@messageWindow@@IAEXIII_N@Z 00460330 f   moc_messageWindow.obj
 0002:00037500       ?gpiSwitch@messageWindow@@IAEXII_N@Z 00460500 f   moc_messageWindow.obj
 0002:000376b0       ?gpiPoll@messageWindow@@IAEXIII@Z 004606b0 f   moc_messageWindow.obj
 0002:00037860       ?gpiLock@messageWindow@@IAEXIII_N@Z 00460860 f   moc_messageWindow.obj
 0002:00037a30       ?routerCrosspoint@messageWindow@@IAEXIIIABVQString@@@Z 00460a30 f   moc_messageWindow.obj
 0002:00037c00       ?routerPoll@messageWindow@@IAEXIII@Z 00460c00 f   moc_messageWindow.obj
 0002:00037db0       ?routerLock@messageWindow@@IAEXIII_N@Z 00460db0 f   moc_messageWindow.obj
 0002:00037f80       ?routerModify@messageWindow@@IAEXIIIABVQString@@_N@Z 00460f80 f   moc_messageWindow.obj
 0002:00038170       ?reg@messageWindow@@IAEXIII@Z 00461170 f   moc_messageWindow.obj
 0002:00038320       ?unreg@messageWindow@@IAEXI@Z 00461320 f   moc_messageWindow.obj
 0002:00038480       ?log@messageWindow@@IAEXABVQString@@@Z 00461480 f   moc_messageWindow.obj
 0002:00038550       ?logError@messageWindow@@IAEXABVQString@@@Z 00461550 f   moc_messageWindow.obj
 0002:000391d0       ??0singleReg@@IAE@XZ       004621d0 f   singleReg.obj
 0002:00039230       ??0singleReg@@QAE@VclientIPC@@H@Z 00462230 f   singleReg.obj
 0002:000392d0       ??1singleReg@@UAE@XZ       004622d0 f   singleReg.obj
 0002:00039330       ?addRegistration@singleReg@@QAEXHH@Z 00462330 f   singleReg.obj
 0002:00039400       ?removeAllRegistration@singleReg@@QAEXXZ 00462400 f   singleReg.obj
 0002:00039450       ?removeRegistration@singleReg@@QAEXHH@Z 00462450 f   singleReg.obj
 0002:00039520       ?isRegistered@singleReg@@QBE_NH@Z 00462520 f   singleReg.obj
 0002:000395c0       ?hasAnyRegistrations@singleReg@@QBE_NXZ 004625c0 f   singleReg.obj
 0002:00039620       ?client@singleReg@@QBE?AVclientIPC@@XZ 00462620 f   singleReg.obj
 0002:00039660       ?device@singleReg@@QBEHXZ  00462660 f   singleReg.obj
 0002:00039690       ?minIndex@singleReg@@QBEHXZ 00462690 f   singleReg.obj
 0002:00039730       ?maxIndex@singleReg@@QBEHXZ 00462730 f   singleReg.obj
 0002:00039950       ??0clientIPC@@QAE@XZ       00462950 f i singleReg.obj
 0002:00039990       ??_EsingleReg@@UAEPAXI@Z   00462990 f i singleReg.obj
 0002:00039990       ??_GsingleReg@@UAEPAXI@Z   00462990 f i singleReg.obj
 0002:00039a00       ??0databaseMgr@@QAE@PBD@Z  00462a00 f   databasedb_vs2013:databaseMgr.obj
 0002:00039aa0       ??0databaseMgr@@QAE@XZ     00462aa0 f   databasedb_vs2013:databaseMgr.obj
 0002:00039c10       ??1databaseMgr@@UAE@XZ     00462c10 f   databasedb_vs2013:databaseMgr.obj
 0002:00039ca0       ?setPath@databaseMgr@@QAEXPBD@Z 00462ca0 f   databasedb_vs2013:databaseMgr.obj
 0002:00039d70       ?getName@databaseMgr@@QAEPBDHHH@Z 00462d70 f   databasedb_vs2013:databaseMgr.obj
 0002:00039df0       ?getName@databaseMgr@@QAE_NHHHPADH@Z 00462df0 f   databasedb_vs2013:databaseMgr.obj
 0002:00039eb0       ?getIndex@databaseMgr@@QAEHHHPBDHH@Z 00462eb0 f   databasedb_vs2013:databaseMgr.obj
 0002:00039f20       ?getIndex@databaseMgr@@QAEHHHPBD_N1@Z 00462f20 f   databasedb_vs2013:databaseMgr.obj
 0002:00039f90       ?setName@databaseMgr@@QAE_NHHHPBD_NPA_N@Z 00462f90 f   databasedb_vs2013:databaseMgr.obj
 0002:0003a010       ?exists@databaseMgr@@QAE_NHHHH@Z 00463010 f   databasedb_vs2013:databaseMgr.obj
 0002:0003a0c0       ?numLoaded@databaseMgr@@QAEHXZ 004630c0 f   databasedb_vs2013:databaseMgr.obj
 0002:0003a110       ?path@databaseMgr@@QAEPBDXZ 00463110 f   databasedb_vs2013:databaseMgr.obj
 0002:0003a140       ?createDatabase@databaseMgr@@QAE_NPBDHHHHHHHHHHH@Z 00463140 f   databasedb_vs2013:databaseMgr.obj
 0002:0003a450       ?size@databaseMgr@@QAEHHH@Z 00463450 f   databasedb_vs2013:databaseMgr.obj
 0002:0003a550       ?exists@databaseMgr@@QAEHHH@Z 00463550 f   databasedb_vs2013:databaseMgr.obj
 0002:0003a5b0       ?clear@databaseMgr@@QAEXH@Z 004635b0 f   databasedb_vs2013:databaseMgr.obj
 0002:0003a8a0       ?dump@databaseMgr@@QAE_NXZ 004638a0 f   databasedb_vs2013:databaseMgr.obj
 0002:0003ab60       ?loadDump@databaseMgr@@QAE_NHH@Z 00463b60 f   databasedb_vs2013:databaseMgr.obj
 0002:0003ad00       ?doCreate@databaseMgr@@AAEPAVdatabase@@HH@Z 00463d00 f   databasedb_vs2013:databaseMgr.obj
 0002:0003add0       ?WritePrivateProfileInt@databaseMgr@@AAEHPBD0H0@Z 00463dd0 f   databasedb_vs2013:databaseMgr.obj
 0002:0003b3b0       ??$?0AAV?$_Tree_iterator@V?$_Tree_val@U?$_Tree_simple_types@U?$pair@$$CBHPAVdatabase@@@std@@@std@@@std@@@std@@_NX@?$pair@V?$_Tree_iterator@V?$_Tree_val@U?$_Tree_simple_types@U?$pair@$$CBHPAVdatabase@@@std@@@std@@@std@@@std@@_N@std@@QAE@AAV?$_Tree_iterator@V?$_Tree_val@U?$_Tree_simple_types@U?$pair@$$CBHPAVdatabase@@@std@@@std@@@std@@@1@$$QA_N@Z 004643b0 f i databasedb_vs2013:databaseMgr.obj
 0002:0003b480       ??$?0HAAPAVdatabase@@X@?$pair@HPAVdatabase@@@std@@QAE@$$QAHAAPAVdatabase@@@Z 00464480 f i databasedb_vs2013:databaseMgr.obj
 0002:0003b500       ??$?0HPAVdatabase@@X@?$pair@$$CBHPAVdatabase@@@std@@QAE@$$QAU?$pair@HPAVdatabase@@@1@@Z 00464500 f i databasedb_vs2013:databaseMgr.obj
 0002:0003b580       ??$?0U?$_Tree_node@U?$pair@$$CBHPAVdatabase@@@std@@PAX@std@@@?$allocator@U_Container_proxy@std@@@std@@QAE@ABV?$allocator@U?$_Tree_node@U?$pair@$$CBHPAVdatabase@@@std@@PAX@std@@@1@@Z 00464580 f i databasedb_vs2013:databaseMgr.obj
 0002:0003b5c0       ??$?0U?$_Wrap_alloc@V?$allocator@U?$_Tree_node@U?$pair@$$CBHPAVdatabase@@@std@@PAX@std@@@std@@@std@@@?$_Wrap_alloc@V?$allocator@U_Container_proxy@std@@@std@@@std@@QAE@ABU?$_Wrap_alloc@V?$allocator@U?$_Tree_node@U?$pair@$$CBHPAVdatabase@@@std@@PAX@std@@@std@@@1@@Z 004645c0 f i databasedb_vs2013:databaseMgr.obj
 0002:0003b620       ??$?0V?$_Tree_iterator@V?$_Tree_val@U?$_Tree_simple_types@U?$pair@$$CBHPAVdatabase@@@std@@@std@@@std@@@std@@_NX@?$pair@V?$_Tree_iterator@V?$_Tree_val@U?$_Tree_simple_types@U?$pair@$$CBHPAVdatabase@@@std@@@std@@@std@@@std@@_N@std@@QAE@$$QAV?$_Tree_iterator@V?$_Tree_val@U?$_Tree_simple_types@U?$pair@$$CBHPAVdatabase@@@std@@@std@@@std@@@1@$$QA_N@Z 00464620 f i databasedb_vs2013:databaseMgr.obj
 0002:0003b6f0       ??$_Allocate@U?$_Tree_node@U?$pair@$$CBHPAVdatabase@@@std@@PAX@std@@@std@@YAPAU?$_Tree_node@U?$pair@$$CBHPAVdatabase@@@std@@PAX@0@IPAU10@@Z 004646f0 f i databasedb_vs2013:databaseMgr.obj
 0002:0003b780       ??$_Buynode@U?$pair@HPAVdatabase@@@std@@@?$_Tree_buy@U?$pair@$$CBHPAVdatabase@@@std@@V?$allocator@U?$pair@$$CBHPAVdatabase@@@std@@@2@@std@@QAEPAU?$_Tree_node@U?$pair@$$CBHPAVdatabase@@@std@@PAX@1@$$QAU?$pair@HPAVdatabase@@@1@@Z 00464780 f i databasedb_vs2013:databaseMgr.obj
 0002:0003b8f0       ??$_Buynode_if_nil@AAU?$pair@$$CBHPAVdatabase@@@std@@@?$_Tree@V?$_Tmap_traits@HPAVdatabase@@U?$less@H@std@@V?$allocator@U?$pair@$$CBHPAVdatabase@@@std@@@3@$0A@@std@@@std@@IAEPAU?$_Tree_node@U?$pair@$$CBHPAVdatabase@@@std@@PAX@1@PAU21@AAU?$pair@$$CBHPAVdatabase@@@1@@Z 004648f0 f i databasedb_vs2013:databaseMgr.obj
 0002:0003b930       ??$_Insert_at@AAU?$pair@$$CBHPAVdatabase@@@std@@PAU?$_Tree_node@U?$pair@$$CBHPAVdatabase@@@std@@PAX@2@@?$_Tree@V?$_Tmap_traits@HPAVdatabase@@U?$less@H@std@@V?$allocator@U?$pair@$$CBHPAVdatabase@@@std@@@3@$0A@@std@@@std@@IAE?AV?$_Tree_iterator@V?$_Tree_val@U?$_Tree_simple_types@U?$pair@$$CBHPAVdatabase@@@std@@@std@@@std@@@1@_NPAU?$_Tree_node@U?$pair@$$CBHPAVdatabase@@@std@@PAX@1@AAU?$pair@$$CBHPAVdatabase@@@1@1@Z 00464930 f i databasedb_vs2013:databaseMgr.obj
 0002:0003bec0       ??$_Insert_nohint@AAU?$pair@$$CBHPAVdatabase@@@std@@PAU?$_Tree_node@U?$pair@$$CBHPAVdatabase@@@std@@PAX@2@@?$_Tree@V?$_Tmap_traits@HPAVdatabase@@U?$less@H@std@@V?$allocator@U?$pair@$$CBHPAVdatabase@@@std@@@3@$0A@@std@@@std@@IAE?AU?$pair@V?$_Tree_iterator@V?$_Tree_val@U?$_Tree_simple_types@U?$pair@$$CBHPAVdatabase@@@std@@@std@@@std@@@std@@_N@1@_NAAU?$pair@$$CBHPAVdatabase@@@1@PAU?$_Tree_node@U?$pair@$$CBHPAVdatabase@@@std@@PAX@1@@Z 00464ec0 f i databasedb_vs2013:databaseMgr.obj
 0002:0003c600       ??$_Kfn@$$CBHPAVdatabase@@@?$_Tmap_traits@HPAVdatabase@@U?$less@H@std@@V?$allocator@U?$pair@$$CBHPAVdatabase@@@std@@@3@$0A@@std@@SAABHABU?$pair@$$CBHPAVdatabase@@@1@@Z 00465600 f i databasedb_vs2013:databaseMgr.obj
 0002:0003c640       ??$addressof@$$CBU?$pair@$$CBHPAVdatabase@@@std@@@std@@YAPBU?$pair@$$CBHPAVdatabase@@@0@ABU10@@Z 00465640 f i databasedb_vs2013:databaseMgr.obj
 0002:0003c680       ??$addressof@PAU?$_Tree_node@U?$pair@$$CBHPAVdatabase@@@std@@PAX@std@@@std@@YAPAPAU?$_Tree_node@U?$pair@$$CBHPAVdatabase@@@std@@PAX@0@AAPAU10@@Z 00465680 f i databasedb_vs2013:databaseMgr.obj
 0002:0003c6c0       ??$addressof@U?$pair@$$CBHPAVdatabase@@@std@@@std@@YAPAU?$pair@$$CBHPAVdatabase@@@0@AAU10@@Z 004656c0 f i databasedb_vs2013:databaseMgr.obj
 0002:0003c700       ??$construct@PAU?$_Tree_node@U?$pair@$$CBHPAVdatabase@@@std@@PAX@std@@AAPAU12@@?$_Wrap_alloc@V?$allocator@U?$_Tree_node@U?$pair@$$CBHPAVdatabase@@@std@@PAX@std@@@std@@@std@@QAEXPAPAU?$_Tree_node@U?$pair@$$CBHPAVdatabase@@@std@@PAX@1@AAPAU21@@Z 00465700 f i databasedb_vs2013:databaseMgr.obj
 0002:0003c770       ??$construct@PAU?$_Tree_node@U?$pair@$$CBHPAVdatabase@@@std@@PAX@std@@AAPAU12@@?$allocator@U?$_Tree_node@U?$pair@$$CBHPAVdatabase@@@std@@PAX@std@@@std@@QAEXPAPAU?$_Tree_node@U?$pair@$$CBHPAVdatabase@@@std@@PAX@1@AAPAU21@@Z 00465770 f i databasedb_vs2013:databaseMgr.obj
 0002:0003c870       ??$construct@PAU?$_Tree_node@U?$pair@$$CBHPAVdatabase@@@std@@PAX@std@@AAPAU12@@?$allocator_traits@V?$allocator@U?$_Tree_node@U?$pair@$$CBHPAVdatabase@@@std@@PAX@std@@@std@@@std@@SAXAAV?$allocator@U?$_Tree_node@U?$pair@$$CBHPAVdatabase@@@std@@PAX@std@@@1@PAPAU?$_Tree_node@U?$pair@$$CBHPAVdatabase@@@std@@PAX@1@AAPAU31@@Z 00465870 f i databasedb_vs2013:databaseMgr.obj
 0002:0003c8d0       ??$construct@U?$pair@$$CBHPAVdatabase@@@std@@U?$pair@HPAVdatabase@@@2@@?$_Wrap_alloc@V?$allocator@U?$_Tree_node@U?$pair@$$CBHPAVdatabase@@@std@@PAX@std@@@std@@@std@@QAEXPAU?$pair@$$CBHPAVdatabase@@@1@$$QAU?$pair@HPAVdatabase@@@1@@Z 004658d0 f i databasedb_vs2013:databaseMgr.obj
 0002:0003c940       ??$construct@U?$pair@$$CBHPAVdatabase@@@std@@U?$pair@HPAVdatabase@@@2@@?$allocator@U?$_Tree_node@U?$pair@$$CBHPAVdatabase@@@std@@PAX@std@@@std@@QAEXPAU?$pair@$$CBHPAVdatabase@@@1@$$QAU?$pair@HPAVdatabase@@@1@@Z 00465940 f i databasedb_vs2013:databaseMgr.obj
 0002:0003ca40       ??$construct@U?$pair@$$CBHPAVdatabase@@@std@@U?$pair@HPAVdatabase@@@2@@?$allocator_traits@V?$allocator@U?$_Tree_node@U?$pair@$$CBHPAVdatabase@@@std@@PAX@std@@@std@@@std@@SAXAAV?$allocator@U?$_Tree_node@U?$pair@$$CBHPAVdatabase@@@std@@PAX@std@@@1@PAU?$pair@$$CBHPAVdatabase@@@1@$$QAU?$pair@HPAVdatabase@@@1@@Z 00465a40 f i databasedb_vs2013:databaseMgr.obj
 0002:0003caa0       ??$destroy@PAU?$_Tree_node@U?$pair@$$CBHPAVdatabase@@@std@@PAX@std@@@?$_Wrap_alloc@V?$allocator@U?$_Tree_node@U?$pair@$$CBHPAVdatabase@@@std@@PAX@std@@@std@@@std@@QAEXPAPAU?$_Tree_node@U?$pair@$$CBHPAVdatabase@@@std@@PAX@1@@Z 00465aa0 f i databasedb_vs2013:databaseMgr.obj
 0002:0003cb00       ??$destroy@PAU?$_Tree_node@U?$pair@$$CBHPAVdatabase@@@std@@PAX@std@@@?$allocator@U?$_Tree_node@U?$pair@$$CBHPAVdatabase@@@std@@PAX@std@@@std@@QAEXPAPAU?$_Tree_node@U?$pair@$$CBHPAVdatabase@@@std@@PAX@1@@Z 00465b00 f i databasedb_vs2013:databaseMgr.obj
 0002:0003cb40       ??$destroy@PAU?$_Tree_node@U?$pair@$$CBHPAVdatabase@@@std@@PAX@std@@@?$allocator_traits@V?$allocator@U?$_Tree_node@U?$pair@$$CBHPAVdatabase@@@std@@PAX@std@@@std@@@std@@SAXAAV?$allocator@U?$_Tree_node@U?$pair@$$CBHPAVdatabase@@@std@@PAX@std@@@1@PAPAU?$_Tree_node@U?$pair@$$CBHPAVdatabase@@@std@@PAX@1@@Z 00465b40 f i databasedb_vs2013:databaseMgr.obj
 0002:0003cb90       ??$destroy@U?$pair@$$CBHPAVdatabase@@@std@@@?$_Wrap_alloc@V?$allocator@U?$_Tree_node@U?$pair@$$CBHPAVdatabase@@@std@@PAX@std@@@std@@@std@@QAEXPAU?$pair@$$CBHPAVdatabase@@@1@@Z 00465b90 f i databasedb_vs2013:databaseMgr.obj
 0002:0003cbf0       ??$destroy@U?$pair@$$CBHPAVdatabase@@@std@@@?$allocator@U?$_Tree_node@U?$pair@$$CBHPAVdatabase@@@std@@PAX@std@@@std@@QAEXPAU?$pair@$$CBHPAVdatabase@@@1@@Z 00465bf0 f i databasedb_vs2013:databaseMgr.obj
 0002:0003cc30       ??$destroy@U?$pair@$$CBHPAVdatabase@@@std@@@?$allocator_traits@V?$allocator@U?$_Tree_node@U?$pair@$$CBHPAVdatabase@@@std@@PAX@std@@@std@@@std@@SAXAAV?$allocator@U?$_Tree_node@U?$pair@$$CBHPAVdatabase@@@std@@PAX@std@@@1@PAU?$pair@$$CBHPAVdatabase@@@1@@Z 00465c30 f i databasedb_vs2013:databaseMgr.obj
 0002:0003cc80       ??$forward@AAPAU?$_Tree_node@U?$pair@$$CBHPAVdatabase@@@std@@PAX@std@@@std@@YAAAPAU?$_Tree_node@U?$pair@$$CBHPAVdatabase@@@std@@PAX@0@AAPAU10@@Z 00465c80 f i databasedb_vs2013:databaseMgr.obj
 0002:0003ccc0       ??$forward@AAPAVdatabase@@@std@@YAAAPAVdatabase@@AAPAV1@@Z 00465cc0 f i databasedb_vs2013:databaseMgr.obj
 0002:0003cd00       ??$forward@AAU?$pair@$$CBHPAVdatabase@@@std@@@std@@YAAAU?$pair@$$CBHPAVdatabase@@@0@AAU10@@Z 00465d00 f i databasedb_vs2013:databaseMgr.obj
 0002:0003cd40       ??$forward@AAV?$_Tree_iterator@V?$_Tree_val@U?$_Tree_simple_types@U?$pair@$$CBHPAVdatabase@@@std@@@std@@@std@@@std@@@std@@YAAAV?$_Tree_iterator@V?$_Tree_val@U?$_Tree_simple_types@U?$pair@$$CBHPAVdatabase@@@std@@@std@@@std@@@0@AAV10@@Z 00465d40 f i databasedb_vs2013:databaseMgr.obj
 0002:0003cd80       ??$forward@H@std@@YA$$QAHAAH@Z 00465d80 f i databasedb_vs2013:databaseMgr.obj
 0002:0003cdc0       ??$forward@PAVdatabase@@@std@@YA$$QAPAVdatabase@@AAPAV1@@Z 00465dc0 f i databasedb_vs2013:databaseMgr.obj
 0002:0003ce00       ??$forward@U?$pair@HPAVdatabase@@@std@@@std@@YA$$QAU?$pair@HPAVdatabase@@@0@AAU10@@Z 00465e00 f i databasedb_vs2013:databaseMgr.obj
 0002:0003ce40       ??$forward@V?$_Tree_iterator@V?$_Tree_val@U?$_Tree_simple_types@U?$pair@$$CBHPAVdatabase@@@std@@@std@@@std@@@std@@@std@@YA$$QAV?$_Tree_iterator@V?$_Tree_val@U?$_Tree_simple_types@U?$pair@$$CBHPAVdatabase@@@std@@@std@@@std@@@0@AAV10@@Z 00465e40 f i databasedb_vs2013:databaseMgr.obj
 0002:0003ce80       ??$insert@U?$pair@HPAVdatabase@@@std@@@?$_Tree@V?$_Tmap_traits@HPAVdatabase@@U?$less@H@std@@V?$allocator@U?$pair@$$CBHPAVdatabase@@@std@@@3@$0A@@std@@@std@@QAE?AU?$pair@V?$_Tree_iterator@V?$_Tree_val@U?$_Tree_simple_types@U?$pair@$$CBHPAVdatabase@@@std@@@std@@@std@@@std@@_N@1@$$QAU?$pair@HPAVdatabase@@@1@@Z 00465e80 f i databasedb_vs2013:databaseMgr.obj
 0002:0003cf30       ??0?$_Iterator012@Ubidirectional_iterator_tag@std@@U?$pair@$$CBHPAVdatabase@@@2@HPBU32@ABU32@U_Iterator_base12@2@@std@@QAE@ABU01@@Z 00465f30 f i databasedb_vs2013:databaseMgr.obj
 0002:0003cf90       ??0?$_Iterator012@Ubidirectional_iterator_tag@std@@U?$pair@$$CBHPAVdatabase@@@2@HPBU32@ABU32@U_Iterator_base12@2@@std@@QAE@XZ 00465f90 f i databasedb_vs2013:databaseMgr.obj
 0002:0003cff0       ??0?$_Tree@V?$_Tmap_traits@HPAVdatabase@@U?$less@H@std@@V?$allocator@U?$pair@$$CBHPAVdatabase@@@std@@@3@$0A@@std@@@std@@QAE@ABU?$less@H@1@ABV?$allocator@U?$pair@$$CBHPAVdatabase@@@std@@@1@@Z 00465ff0 f i databasedb_vs2013:databaseMgr.obj
 0002:0003d050       ??0?$_Tree_alloc@$0A@U?$_Tree_base_types@U?$pair@$$CBHPAVdatabase@@@std@@V?$allocator@U?$pair@$$CBHPAVdatabase@@@std@@@2@@std@@@std@@QAE@ABV?$allocator@U?$pair@$$CBHPAVdatabase@@@std@@@1@@Z 00466050 f i databasedb_vs2013:databaseMgr.obj
 0002:0003d150       ??0?$_Tree_buy@U?$pair@$$CBHPAVdatabase@@@std@@V?$allocator@U?$pair@$$CBHPAVdatabase@@@std@@@2@@std@@QAE@ABV?$allocator@U?$pair@$$CBHPAVdatabase@@@std@@@1@@Z 00466150 f i databasedb_vs2013:databaseMgr.obj
 0002:0003d1b0       ??0?$_Tree_comp@$0A@V?$_Tmap_traits@HPAVdatabase@@U?$less@H@std@@V?$allocator@U?$pair@$$CBHPAVdatabase@@@std@@@3@$0A@@std@@@std@@QAE@ABU?$less@H@1@ABV?$allocator@U?$pair@$$CBHPAVdatabase@@@std@@@1@@Z 004661b0 f i databasedb_vs2013:databaseMgr.obj
 0002:0003d210       ??0?$_Tree_const_iterator@V?$_Tree_val@U?$_Tree_simple_types@U?$pair@$$CBHPAVdatabase@@@std@@@std@@@std@@@std@@QAE@ABV01@@Z 00466210 f i databasedb_vs2013:databaseMgr.obj
 0002:0003d270       ??0?$_Tree_const_iterator@V?$_Tree_val@U?$_Tree_simple_types@U?$pair@$$CBHPAVdatabase@@@std@@@std@@@std@@@std@@QAE@PAU?$_Tree_node@U?$pair@$$CBHPAVdatabase@@@std@@PAX@1@PBV?$_Tree_val@U?$_Tree_simple_types@U?$pair@$$CBHPAVdatabase@@@std@@@std@@@1@@Z 00466270 f i databasedb_vs2013:databaseMgr.obj
 0002:0003d2d0       ??0?$_Tree_iterator@V?$_Tree_val@U?$_Tree_simple_types@U?$pair@$$CBHPAVdatabase@@@std@@@std@@@std@@@std@@QAE@ABV01@@Z 004662d0 f i databasedb_vs2013:databaseMgr.obj
 0002:0003d330       ??0?$_Tree_iterator@V?$_Tree_val@U?$_Tree_simple_types@U?$pair@$$CBHPAVdatabase@@@std@@@std@@@std@@@std@@QAE@PAU?$_Tree_node@U?$pair@$$CBHPAVdatabase@@@std@@PAX@1@PBV?$_Tree_val@U?$_Tree_simple_types@U?$pair@$$CBHPAVdatabase@@@std@@@std@@@1@@Z 00466330 f i databasedb_vs2013:databaseMgr.obj
 0002:0003d390       ??0?$_Tree_unchecked_const_iterator@V?$_Tree_val@U?$_Tree_simple_types@U?$pair@$$CBHPAVdatabase@@@std@@@std@@@std@@U_Iterator_base12@2@@std@@QAE@ABV01@@Z 00466390 f i databasedb_vs2013:databaseMgr.obj
 0002:0003d400       ??0?$_Tree_unchecked_const_iterator@V?$_Tree_val@U?$_Tree_simple_types@U?$pair@$$CBHPAVdatabase@@@std@@@std@@@std@@U_Iterator_base12@2@@std@@QAE@PAU?$_Tree_node@U?$pair@$$CBHPAVdatabase@@@std@@PAX@1@PBV?$_Tree_val@U?$_Tree_simple_types@U?$pair@$$CBHPAVdatabase@@@std@@@std@@@1@@Z 00466400 f i databasedb_vs2013:databaseMgr.obj
 0002:0003d4c0       ??0?$_Tree_val@U?$_Tree_simple_types@U?$pair@$$CBHPAVdatabase@@@std@@@std@@@std@@QAE@XZ 004664c0 f i databasedb_vs2013:databaseMgr.obj
 0002:0003d540       ??0?$_Wrap_alloc@V?$allocator@U?$_Tree_node@U?$pair@$$CBHPAVdatabase@@@std@@PAX@std@@@std@@@std@@QAE@XZ 00466540 f i databasedb_vs2013:databaseMgr.obj
 0002:0003d5a0       ??0?$allocator@U?$_Tree_node@U?$pair@$$CBHPAVdatabase@@@std@@PAX@std@@@std@@QAE@XZ 004665a0 f i databasedb_vs2013:databaseMgr.obj
 0002:0003d5e0       ??0?$allocator@U?$pair@$$CBHPAVdatabase@@@std@@@std@@QAE@XZ 004665e0 f i databasedb_vs2013:databaseMgr.obj
 0002:0003d620       ??0?$map@HPAVdatabase@@U?$less@H@std@@V?$allocator@U?$pair@$$CBHPAVdatabase@@@std@@@3@@std@@QAE@XZ 00466620 f i databasedb_vs2013:databaseMgr.obj
 0002:0003d690       ??1?$_Iterator012@Ubidirectional_iterator_tag@std@@U?$pair@$$CBHPAVdatabase@@@2@HPBU32@ABU32@U_Iterator_base12@2@@std@@QAE@XZ 00466690 f i databasedb_vs2013:databaseMgr.obj
 0002:0003d6e0       ??1?$_Tree@V?$_Tmap_traits@HPAVdatabase@@U?$less@H@std@@V?$allocator@U?$pair@$$CBHPAVdatabase@@@std@@@3@$0A@@std@@@std@@QAE@XZ 004666e0 f i databasedb_vs2013:databaseMgr.obj
 0002:0003d740       ??1?$_Tree_alloc@$0A@U?$_Tree_base_types@U?$pair@$$CBHPAVdatabase@@@std@@V?$allocator@U?$pair@$$CBHPAVdatabase@@@std@@@2@@std@@@std@@QAE@XZ 00466740 f i databasedb_vs2013:databaseMgr.obj
 0002:0003d7b0       ??1?$_Tree_buy@U?$pair@$$CBHPAVdatabase@@@std@@V?$allocator@U?$pair@$$CBHPAVdatabase@@@std@@@2@@std@@QAE@XZ 004667b0 f i databasedb_vs2013:databaseMgr.obj
 0002:0003d800       ??1?$_Tree_comp@$0A@V?$_Tmap_traits@HPAVdatabase@@U?$less@H@std@@V?$allocator@U?$pair@$$CBHPAVdatabase@@@std@@@3@$0A@@std@@@std@@QAE@XZ 00466800 f i databasedb_vs2013:databaseMgr.obj
 0002:0003d850       ??1?$_Tree_const_iterator@V?$_Tree_val@U?$_Tree_simple_types@U?$pair@$$CBHPAVdatabase@@@std@@@std@@@std@@@std@@QAE@XZ 00466850 f i databasedb_vs2013:databaseMgr.obj
 0002:0003d8a0       ??1?$_Tree_iterator@V?$_Tree_val@U?$_Tree_simple_types@U?$pair@$$CBHPAVdatabase@@@std@@@std@@@std@@@std@@QAE@XZ 004668a0 f i databasedb_vs2013:databaseMgr.obj
 0002:0003d8f0       ??1?$_Tree_unchecked_const_iterator@V?$_Tree_val@U?$_Tree_simple_types@U?$pair@$$CBHPAVdatabase@@@std@@@std@@@std@@U_Iterator_base12@2@@std@@QAE@XZ 004668f0 f i databasedb_vs2013:databaseMgr.obj
 0002:0003d940       ??1?$_Tree_val@U?$_Tree_simple_types@U?$pair@$$CBHPAVdatabase@@@std@@@std@@@std@@QAE@XZ 00466940 f i databasedb_vs2013:databaseMgr.obj
 0002:0003d9a0       ??1?$map@HPAVdatabase@@U?$less@H@std@@V?$allocator@U?$pair@$$CBHPAVdatabase@@@std@@@3@@std@@QAE@XZ 004669a0 f i databasedb_vs2013:databaseMgr.obj
 0002:0003d9f0       ??1?$pair@V?$_Tree_iterator@V?$_Tree_val@U?$_Tree_simple_types@U?$pair@$$CBHPAVdatabase@@@std@@@std@@@std@@@std@@_N@std@@QAE@XZ 004669f0 f i databasedb_vs2013:databaseMgr.obj
 0002:0003da40       ??4?$_Iterator012@Ubidirectional_iterator_tag@std@@U?$pair@$$CBHPAVdatabase@@@2@HPBU32@ABU32@U_Iterator_base12@2@@std@@QAEAAU01@ABU01@@Z 00466a40 f i databasedb_vs2013:databaseMgr.obj
 0002:0003daa0       ??4?$_Tree_const_iterator@V?$_Tree_val@U?$_Tree_simple_types@U?$pair@$$CBHPAVdatabase@@@std@@@std@@@std@@@std@@QAEAAV01@ABV01@@Z 00466aa0 f i databasedb_vs2013:databaseMgr.obj
 0002:0003db00       ??4?$_Tree_iterator@V?$_Tree_val@U?$_Tree_simple_types@U?$pair@$$CBHPAVdatabase@@@std@@@std@@@std@@@std@@QAEAAV01@ABV01@@Z 00466b00 f i databasedb_vs2013:databaseMgr.obj
 0002:0003db60       ??4?$_Tree_unchecked_const_iterator@V?$_Tree_val@U?$_Tree_simple_types@U?$pair@$$CBHPAVdatabase@@@std@@@std@@@std@@U_Iterator_base12@2@@std@@QAEAAV01@ABV01@@Z 00466b60 f i databasedb_vs2013:databaseMgr.obj
 0002:0003dbd0       ??8?$_Tree_const_iterator@V?$_Tree_val@U?$_Tree_simple_types@U?$pair@$$CBHPAVdatabase@@@std@@@std@@@std@@@std@@QBE_NABV01@@Z 00466bd0 f i databasedb_vs2013:databaseMgr.obj
 0002:0003dd30       ??9?$_Tree_const_iterator@V?$_Tree_val@U?$_Tree_simple_types@U?$pair@$$CBHPAVdatabase@@@std@@@std@@@std@@@std@@QBE_NABV01@@Z 00466d30 f i databasedb_vs2013:databaseMgr.obj
 0002:0003ddc0       ??C?$_Tree_const_iterator@V?$_Tree_val@U?$_Tree_simple_types@U?$pair@$$CBHPAVdatabase@@@std@@@std@@@std@@@std@@QBEPBU?$pair@$$CBHPAVdatabase@@@1@XZ 00466dc0 f i databasedb_vs2013:databaseMgr.obj
 0002:0003de20       ??C?$_Tree_iterator@V?$_Tree_val@U?$_Tree_simple_types@U?$pair@$$CBHPAVdatabase@@@std@@@std@@@std@@@std@@QBEPAU?$pair@$$CBHPAVdatabase@@@1@XZ 00466e20 f i databasedb_vs2013:databaseMgr.obj
 0002:0003de80       ??D?$_Tree_const_iterator@V?$_Tree_val@U?$_Tree_simple_types@U?$pair@$$CBHPAVdatabase@@@std@@@std@@@std@@@std@@QBEABU?$pair@$$CBHPAVdatabase@@@1@XZ 00466e80 f i databasedb_vs2013:databaseMgr.obj
 0002:0003dfc0       ??D?$_Tree_iterator@V?$_Tree_val@U?$_Tree_simple_types@U?$pair@$$CBHPAVdatabase@@@std@@@std@@@std@@@std@@QBEAAU?$pair@$$CBHPAVdatabase@@@1@XZ 00466fc0 f i databasedb_vs2013:databaseMgr.obj
 0002:0003e010       ??E?$_Tree_const_iterator@V?$_Tree_val@U?$_Tree_simple_types@U?$pair@$$CBHPAVdatabase@@@std@@@std@@@std@@@std@@QAE?AV01@H@Z 00467010 f i databasedb_vs2013:databaseMgr.obj
 0002:0003e130       ??E?$_Tree_const_iterator@V?$_Tree_val@U?$_Tree_simple_types@U?$pair@$$CBHPAVdatabase@@@std@@@std@@@std@@@std@@QAEAAV01@XZ 00467130 f i databasedb_vs2013:databaseMgr.obj
 0002:0003e270       ??E?$_Tree_iterator@V?$_Tree_val@U?$_Tree_simple_types@U?$pair@$$CBHPAVdatabase@@@std@@@std@@@std@@@std@@QAEAAV01@XZ 00467270 f i databasedb_vs2013:databaseMgr.obj
 0002:0003e2d0       ??E?$_Tree_unchecked_const_iterator@V?$_Tree_val@U?$_Tree_simple_types@U?$pair@$$CBHPAVdatabase@@@std@@@std@@@std@@U_Iterator_base12@2@@std@@QAEAAV01@XZ 004672d0 f i databasedb_vs2013:databaseMgr.obj
 0002:0003e400       ??F?$_Tree_const_iterator@V?$_Tree_val@U?$_Tree_simple_types@U?$pair@$$CBHPAVdatabase@@@std@@@std@@@std@@@std@@QAEAAV01@XZ 00467400 f i databasedb_vs2013:databaseMgr.obj
 0002:0003e5e0       ??F?$_Tree_iterator@V?$_Tree_val@U?$_Tree_simple_types@U?$pair@$$CBHPAVdatabase@@@std@@@std@@@std@@@std@@QAEAAV01@XZ 004675e0 f i databasedb_vs2013:databaseMgr.obj
 0002:0003e640       ??F?$_Tree_unchecked_const_iterator@V?$_Tree_val@U?$_Tree_simple_types@U?$pair@$$CBHPAVdatabase@@@std@@@std@@@std@@U_Iterator_base12@2@@std@@QAEAAV01@XZ 00467640 f i databasedb_vs2013:databaseMgr.obj
 0002:0003e7a0       ??_GdatabaseMgr@@UAEPAXI@Z 004677a0 f i databasedb_vs2013:databaseMgr.obj
 0002:0003e7a0       ??_EdatabaseMgr@@UAEPAXI@Z 004677a0 f i databasedb_vs2013:databaseMgr.obj
 0002:0003e810       ?_Alloc_proxy@?$_Tree_alloc@$0A@U?$_Tree_base_types@U?$pair@$$CBHPAVdatabase@@@std@@V?$allocator@U?$pair@$$CBHPAVdatabase@@@std@@@2@@std@@@std@@QAEXXZ 00467810 f i databasedb_vs2013:databaseMgr.obj
 0002:0003e8f0       ?_Buyheadnode@?$_Tree_alloc@$0A@U?$_Tree_base_types@U?$pair@$$CBHPAVdatabase@@@std@@V?$allocator@U?$pair@$$CBHPAVdatabase@@@std@@@2@@std@@@std@@QAEPAU?$_Tree_node@U?$pair@$$CBHPAVdatabase@@@std@@PAX@2@XZ 004678f0 f i databasedb_vs2013:databaseMgr.obj
 0002:0003eb50       ?_Buynode0@?$_Tree_buy@U?$pair@$$CBHPAVdatabase@@@std@@V?$allocator@U?$pair@$$CBHPAVdatabase@@@std@@@2@@std@@QAEPAU?$_Tree_node@U?$pair@$$CBHPAVdatabase@@@std@@PAX@2@XZ 00467b50 f i databasedb_vs2013:databaseMgr.obj
 0002:0003ed60       ?_Color@?$_Tree_val@U?$_Tree_simple_types@U?$pair@$$CBHPAVdatabase@@@std@@@std@@@std@@SAAADPAU?$_Tree_node@U?$pair@$$CBHPAVdatabase@@@std@@PAX@2@@Z 00467d60 f i databasedb_vs2013:databaseMgr.obj
 0002:0003eda0       ?_Destroy_if_not_nil@?$_Tree@V?$_Tmap_traits@HPAVdatabase@@U?$less@H@std@@V?$allocator@U?$pair@$$CBHPAVdatabase@@@std@@@3@$0A@@std@@@std@@IAEXPAU?$_Tree_node@U?$pair@$$CBHPAVdatabase@@@std@@PAX@2@@Z 00467da0 f i databasedb_vs2013:databaseMgr.obj
 0002:0003ee50       ?_Erase@?$_Tree@V?$_Tmap_traits@HPAVdatabase@@U?$less@H@std@@V?$allocator@U?$pair@$$CBHPAVdatabase@@@std@@@3@$0A@@std@@@std@@IAEXPAU?$_Tree_node@U?$pair@$$CBHPAVdatabase@@@std@@PAX@2@@Z 00467e50 f i databasedb_vs2013:databaseMgr.obj
 0002:0003ef60       ?_Free_proxy@?$_Tree_alloc@$0A@U?$_Tree_base_types@U?$pair@$$CBHPAVdatabase@@@std@@V?$allocator@U?$pair@$$CBHPAVdatabase@@@std@@@2@@std@@@std@@QAEXXZ 00467f60 f i databasedb_vs2013:databaseMgr.obj
 0002:0003f050       ?_Freeheadnode@?$_Tree_alloc@$0A@U?$_Tree_base_types@U?$pair@$$CBHPAVdatabase@@@std@@V?$allocator@U?$pair@$$CBHPAVdatabase@@@std@@@2@@std@@@std@@QAEXPAU?$_Tree_node@U?$pair@$$CBHPAVdatabase@@@std@@PAX@2@@Z 00468050 f i databasedb_vs2013:databaseMgr.obj
 0002:0003f160       ?_Freenode0@?$_Tree_buy@U?$pair@$$CBHPAVdatabase@@@std@@V?$allocator@U?$pair@$$CBHPAVdatabase@@@std@@@2@@std@@QAEXPAU?$_Tree_node@U?$pair@$$CBHPAVdatabase@@@std@@PAX@2@@Z 00468160 f i databasedb_vs2013:databaseMgr.obj
 0002:0003f270       ?_Getal@?$_Tree_alloc@$0A@U?$_Tree_base_types@U?$pair@$$CBHPAVdatabase@@@std@@V?$allocator@U?$pair@$$CBHPAVdatabase@@@std@@@2@@std@@@std@@QBE?AU?$_Wrap_alloc@V?$allocator@U?$_Tree_node@U?$pair@$$CBHPAVdatabase@@@std@@PAX@std@@@std@@@2@XZ 00468270 f i databasedb_vs2013:databaseMgr.obj
 0002:0003f2d0       ?_Getcomp@?$_Tree_comp@$0A@V?$_Tmap_traits@HPAVdatabase@@U?$less@H@std@@V?$allocator@U?$pair@$$CBHPAVdatabase@@@std@@@3@$0A@@std@@@std@@QBE?AU?$less@H@2@XZ 004682d0 f i databasedb_vs2013:databaseMgr.obj
 0002:0003f310       ?_Isnil@?$_Tree_val@U?$_Tree_simple_types@U?$pair@$$CBHPAVdatabase@@@std@@@std@@@std@@SAAADPAU?$_Tree_node@U?$pair@$$CBHPAVdatabase@@@std@@PAX@2@@Z 00468310 f i databasedb_vs2013:databaseMgr.obj
 0002:0003f350       ?_Key@?$_Tree@V?$_Tmap_traits@HPAVdatabase@@U?$less@H@std@@V?$allocator@U?$pair@$$CBHPAVdatabase@@@std@@@3@$0A@@std@@@std@@IBEABHPAU?$_Tree_node@U?$pair@$$CBHPAVdatabase@@@std@@PAX@2@@Z 00468350 f i databasedb_vs2013:databaseMgr.obj
 0002:0003f3c0       ?_Kfn@?$_Tree@V?$_Tmap_traits@HPAVdatabase@@U?$less@H@std@@V?$allocator@U?$pair@$$CBHPAVdatabase@@@std@@@3@$0A@@std@@@std@@IBEABHABU?$pair@$$CBHPAVdatabase@@@2@@Z 004683c0 f i databasedb_vs2013:databaseMgr.obj
 0002:0003f420       ?_Lbound@?$_Tree@V?$_Tmap_traits@HPAVdatabase@@U?$less@H@std@@V?$allocator@U?$pair@$$CBHPAVdatabase@@@std@@@3@$0A@@std@@@std@@IAEPAU?$_Tree_node@U?$pair@$$CBHPAVdatabase@@@std@@PAX@2@ABH@Z 00468420 f i databasedb_vs2013:databaseMgr.obj
 0002:0003f530       ?_Left@?$_Tree_val@U?$_Tree_simple_types@U?$pair@$$CBHPAVdatabase@@@std@@@std@@@std@@SAAAPAU?$_Tree_node@U?$pair@$$CBHPAVdatabase@@@std@@PAX@2@PAU32@@Z 00468530 f i databasedb_vs2013:databaseMgr.obj
 0002:0003f570       ?_Lmost@?$_Tree@V?$_Tmap_traits@HPAVdatabase@@U?$less@H@std@@V?$allocator@U?$pair@$$CBHPAVdatabase@@@std@@@3@$0A@@std@@@std@@IBEAAPAU?$_Tree_node@U?$pair@$$CBHPAVdatabase@@@std@@PAX@2@XZ 00468570 f i databasedb_vs2013:databaseMgr.obj
 0002:0003f5d0       ?_Lrotate@?$_Tree@V?$_Tmap_traits@HPAVdatabase@@U?$less@H@std@@V?$allocator@U?$pair@$$CBHPAVdatabase@@@std@@@3@$0A@@std@@@std@@IAEXPAU?$_Tree_node@U?$pair@$$CBHPAVdatabase@@@std@@PAX@2@@Z 004685d0 f i databasedb_vs2013:databaseMgr.obj
 0002:0003f780       ?_Max@?$_Tree_val@U?$_Tree_simple_types@U?$pair@$$CBHPAVdatabase@@@std@@@std@@@std@@SAPAU?$_Tree_node@U?$pair@$$CBHPAVdatabase@@@std@@PAX@2@PAU32@@Z 00468780 f i databasedb_vs2013:databaseMgr.obj
 0002:0003f800       ?_Min@?$_Tree_val@U?$_Tree_simple_types@U?$pair@$$CBHPAVdatabase@@@std@@@std@@@std@@SAPAU?$_Tree_node@U?$pair@$$CBHPAVdatabase@@@std@@PAX@2@PAU32@@Z 00468800 f i databasedb_vs2013:databaseMgr.obj
 0002:0003f880       ?_Mynode@?$_Tree_unchecked_const_iterator@V?$_Tree_val@U?$_Tree_simple_types@U?$pair@$$CBHPAVdatabase@@@std@@@std@@@std@@U_Iterator_base12@2@@std@@QBEPAU?$_Tree_node@U?$pair@$$CBHPAVdatabase@@@std@@PAX@2@XZ 00468880 f i databasedb_vs2013:databaseMgr.obj
 0002:0003f8c0       ?_Myval@?$_Tree_val@U?$_Tree_simple_types@U?$pair@$$CBHPAVdatabase@@@std@@@std@@@std@@SAAAU?$pair@$$CBHPAVdatabase@@@2@PAU?$_Tree_node@U?$pair@$$CBHPAVdatabase@@@std@@PAX@2@@Z 004688c0 f i databasedb_vs2013:databaseMgr.obj
 0002:0003f900       ?_Orphan_ptr@?$_Tree@V?$_Tmap_traits@HPAVdatabase@@U?$less@H@std@@V?$allocator@U?$pair@$$CBHPAVdatabase@@@std@@@3@$0A@@std@@@std@@IBEXAAV12@PAU?$_Tree_node@U?$pair@$$CBHPAVdatabase@@@std@@PAX@2@@Z 00468900 f i databasedb_vs2013:databaseMgr.obj
 0002:0003fa90       ?_Parent@?$_Tree_val@U?$_Tree_simple_types@U?$pair@$$CBHPAVdatabase@@@std@@@std@@@std@@SAAAPAU?$_Tree_node@U?$pair@$$CBHPAVdatabase@@@std@@PAX@2@PAU32@@Z 00468a90 f i databasedb_vs2013:databaseMgr.obj
 0002:0003fad0       ?_Right@?$_Tree_val@U?$_Tree_simple_types@U?$pair@$$CBHPAVdatabase@@@std@@@std@@@std@@SAAAPAU?$_Tree_node@U?$pair@$$CBHPAVdatabase@@@std@@PAX@2@PAU32@@Z 00468ad0 f i databasedb_vs2013:databaseMgr.obj
 0002:0003fb10       ?_Rmost@?$_Tree@V?$_Tmap_traits@HPAVdatabase@@U?$less@H@std@@V?$allocator@U?$pair@$$CBHPAVdatabase@@@std@@@3@$0A@@std@@@std@@IBEAAPAU?$_Tree_node@U?$pair@$$CBHPAVdatabase@@@std@@PAX@2@XZ 00468b10 f i databasedb_vs2013:databaseMgr.obj
 0002:0003fb70       ?_Root@?$_Tree@V?$_Tmap_traits@HPAVdatabase@@U?$less@H@std@@V?$allocator@U?$pair@$$CBHPAVdatabase@@@std@@@3@$0A@@std@@@std@@IBEAAPAU?$_Tree_node@U?$pair@$$CBHPAVdatabase@@@std@@PAX@2@XZ 00468b70 f i databasedb_vs2013:databaseMgr.obj
 0002:0003fbd0       ?_Rrotate@?$_Tree@V?$_Tmap_traits@HPAVdatabase@@U?$less@H@std@@V?$allocator@U?$pair@$$CBHPAVdatabase@@@std@@@3@$0A@@std@@@std@@IAEXPAU?$_Tree_node@U?$pair@$$CBHPAVdatabase@@@std@@PAX@2@@Z 00468bd0 f i databasedb_vs2013:databaseMgr.obj
 0002:0003fd80       ?_Tidy@?$_Tree@V?$_Tmap_traits@HPAVdatabase@@U?$less@H@std@@V?$allocator@U?$pair@$$CBHPAVdatabase@@@std@@@3@$0A@@std@@@std@@IAEXXZ 00468d80 f i databasedb_vs2013:databaseMgr.obj
 0002:0003ff10       ?allocate@?$_Wrap_alloc@V?$allocator@U?$_Tree_node@U?$pair@$$CBHPAVdatabase@@@std@@PAX@std@@@std@@@std@@QAEPAU?$_Tree_node@U?$pair@$$CBHPAVdatabase@@@std@@PAX@2@I@Z 00468f10 f i databasedb_vs2013:databaseMgr.obj
 0002:0003ff70       ?allocate@?$allocator@U?$_Tree_node@U?$pair@$$CBHPAVdatabase@@@std@@PAX@std@@@std@@QAEPAU?$_Tree_node@U?$pair@$$CBHPAVdatabase@@@std@@PAX@2@I@Z 00468f70 f i databasedb_vs2013:databaseMgr.obj
 0002:0003ffd0       ?begin@?$_Tree@V?$_Tmap_traits@HPAVdatabase@@U?$less@H@std@@V?$allocator@U?$pair@$$CBHPAVdatabase@@@std@@@3@$0A@@std@@@std@@QAE?AV?$_Tree_iterator@V?$_Tree_val@U?$_Tree_simple_types@U?$pair@$$CBHPAVdatabase@@@std@@@std@@@std@@@2@XZ 00468fd0 f i databasedb_vs2013:databaseMgr.obj
 0002:00040040       ?clear@?$_Tree@V?$_Tmap_traits@HPAVdatabase@@U?$less@H@std@@V?$allocator@U?$pair@$$CBHPAVdatabase@@@std@@@3@$0A@@std@@@std@@QAEXXZ 00469040 f i databasedb_vs2013:databaseMgr.obj
 0002:00040100       ?deallocate@?$_Wrap_alloc@V?$allocator@U?$_Tree_node@U?$pair@$$CBHPAVdatabase@@@std@@PAX@std@@@std@@@std@@QAEXPAU?$_Tree_node@U?$pair@$$CBHPAVdatabase@@@std@@PAX@2@I@Z 00469100 f i databasedb_vs2013:databaseMgr.obj
 0002:00040160       ?deallocate@?$allocator@U?$_Tree_node@U?$pair@$$CBHPAVdatabase@@@std@@PAX@std@@@std@@QAEXPAU?$_Tree_node@U?$pair@$$CBHPAVdatabase@@@std@@PAX@2@I@Z 00469160 f i databasedb_vs2013:databaseMgr.obj
 0002:000401c0       ?end@?$_Tree@V?$_Tmap_traits@HPAVdatabase@@U?$less@H@std@@V?$allocator@U?$pair@$$CBHPAVdatabase@@@std@@@3@$0A@@std@@@std@@QAE?AV?$_Tree_iterator@V?$_Tree_val@U?$_Tree_simple_types@U?$pair@$$CBHPAVdatabase@@@std@@@std@@@std@@@2@XZ 004691c0 f i databasedb_vs2013:databaseMgr.obj
 0002:00040230       ?erase@?$_Tree@V?$_Tmap_traits@HPAVdatabase@@U?$less@H@std@@V?$allocator@U?$pair@$$CBHPAVdatabase@@@std@@@3@$0A@@std@@@std@@QAE?AV?$_Tree_iterator@V?$_Tree_val@U?$_Tree_simple_types@U?$pair@$$CBHPAVdatabase@@@std@@@std@@@std@@@2@V?$_Tree_const_iterator@V?$_Tree_val@U?$_Tree_simple_types@U?$pair@$$CBHPAVdatabase@@@std@@@std@@@std@@@2@0@Z 00469230 f i databasedb_vs2013:databaseMgr.obj
 0002:00040550       ?erase@?$_Tree@V?$_Tmap_traits@HPAVdatabase@@U?$less@H@std@@V?$allocator@U?$pair@$$CBHPAVdatabase@@@std@@@3@$0A@@std@@@std@@QAE?AV?$_Tree_iterator@V?$_Tree_val@U?$_Tree_simple_types@U?$pair@$$CBHPAVdatabase@@@std@@@std@@@std@@@2@V?$_Tree_const_iterator@V?$_Tree_val@U?$_Tree_simple_types@U?$pair@$$CBHPAVdatabase@@@std@@@std@@@std@@@2@@Z 00469550 f i databasedb_vs2013:databaseMgr.obj
 0002:00040fd0       ?find@?$_Tree@V?$_Tmap_traits@HPAVdatabase@@U?$less@H@std@@V?$allocator@U?$pair@$$CBHPAVdatabase@@@std@@@3@$0A@@std@@@std@@QAE?AV?$_Tree_iterator@V?$_Tree_val@U?$_Tree_simple_types@U?$pair@$$CBHPAVdatabase@@@std@@@std@@@std@@@2@ABH@Z 00469fd0 f i databasedb_vs2013:databaseMgr.obj
 0002:000412e0       ?getDatabaseObject@databaseMgr@@AAEPAVdatabase@@HH_N@Z 0046a2e0 f i databasedb_vs2013:databaseMgr.obj
 0002:00041550       ?lower_bound@?$_Tree@V?$_Tmap_traits@HPAVdatabase@@U?$less@H@std@@V?$allocator@U?$pair@$$CBHPAVdatabase@@@std@@@3@$0A@@std@@@std@@QAE?AV?$_Tree_iterator@V?$_Tree_val@U?$_Tree_simple_types@U?$pair@$$CBHPAVdatabase@@@std@@@std@@@std@@@2@ABH@Z 0046a550 f i databasedb_vs2013:databaseMgr.obj
 0002:000415e0       ?max_size@?$_Tree@V?$_Tmap_traits@HPAVdatabase@@U?$less@H@std@@V?$allocator@U?$pair@$$CBHPAVdatabase@@@std@@@3@$0A@@std@@@std@@QBEIXZ 0046a5e0 f i databasedb_vs2013:databaseMgr.obj
 0002:00041640       ?max_size@?$_Wrap_alloc@V?$allocator@U?$_Tree_node@U?$pair@$$CBHPAVdatabase@@@std@@PAX@std@@@std@@@std@@QBEIXZ 0046a640 f i databasedb_vs2013:databaseMgr.obj
 0002:000416a0       ?max_size@?$allocator@U?$_Tree_node@U?$pair@$$CBHPAVdatabase@@@std@@PAX@std@@@std@@QBEIXZ 0046a6a0 f i databasedb_vs2013:databaseMgr.obj
 0002:000416e0       ?max_size@?$allocator_traits@V?$allocator@U?$_Tree_node@U?$pair@$$CBHPAVdatabase@@@std@@PAX@std@@@std@@@std@@SAIABV?$allocator@U?$_Tree_node@U?$pair@$$CBHPAVdatabase@@@std@@PAX@std@@@2@@Z 0046a6e0 f i databasedb_vs2013:databaseMgr.obj
 0002:00041730       ?pointer_to@?$pointer_traits@PAU?$pair@$$CBHPAVdatabase@@@std@@@std@@SAPAU?$pair@$$CBHPAVdatabase@@@2@AAU32@@Z 0046a730 f i databasedb_vs2013:databaseMgr.obj
 0002:00041780       ?pointer_to@?$pointer_traits@PBU?$pair@$$CBHPAVdatabase@@@std@@@std@@SAPBU?$pair@$$CBHPAVdatabase@@@2@ABU32@@Z 0046a780 f i databasedb_vs2013:databaseMgr.obj
 0002:000417d0       ?size@?$_Tree@V?$_Tmap_traits@HPAVdatabase@@U?$less@H@std@@V?$allocator@U?$pair@$$CBHPAVdatabase@@@std@@@3@$0A@@std@@@std@@QBEIXZ 0046a7d0 f i databasedb_vs2013:databaseMgr.obj
 0002:00041810       ??0database@@QAE@PBDHH@Z   0046a810 f   databasedb_vs2013:database.obj
 0002:000418e0       ?getName@database@@QAEPBDH@Z 0046a8e0 f   databasedb_vs2013:database.obj
 0002:00041a80       ?getName@database@@QAE_NHPADH@Z 0046aa80 f   databasedb_vs2013:database.obj
 0002:00041c70       ?setName@database@@QAE_NHPBD_NPA_N@Z 0046ac70 f   databasedb_vs2013:database.obj
 0002:000420c0       ?getIndex@database@@QAEHPBDHH@Z 0046b0c0 f   databasedb_vs2013:database.obj
 0002:00042360       ?getIndex@database@@QAEHPBD_N1@Z 0046b360 f   databasedb_vs2013:database.obj
 0002:000425f0       ?size@database@@QAEHXZ     0046b5f0 f   databasedb_vs2013:database.obj
 0002:00042640       ?exists@database@@QAE_NH@Z 0046b640 f   databasedb_vs2013:database.obj
 0002:000427c0       ?dump@database@@QAE_NPBD@Z 0046b7c0 f   databasedb_vs2013:database.obj
 0002:00042a70       ?loadDump@database@@QAE_NPBD@Z 0046ba70 f   databasedb_vs2013:database.obj
 0002:00042d70       ?load@database@@AAEXPBDHH@Z 0046bd70 f   databasedb_vs2013:database.obj
 0002:00043ba0       ??$?0AAHAAPBDX@?$pair@HV?$basic_string@DU?$char_traits@D@std@@V?$allocator@D@2@@std@@@std@@QAE@AAHAAPBD@Z 0046cba0 f i databasedb_vs2013:database.obj
 0002:00043c30       ??$?0AAHV?$basic_string@DU?$char_traits@D@std@@V?$allocator@D@2@@std@@X@?$pair@HV?$basic_string@DU?$char_traits@D@std@@V?$allocator@D@2@@std@@@std@@QAE@AAH$$QAV?$basic_string@DU?$char_traits@D@std@@V?$allocator@D@2@@1@@Z 0046cc30 f i databasedb_vs2013:database.obj
 0002:00043cb0       ??$?0AAV?$_Tree_iterator@V?$_Tree_val@U?$_Tree_simple_types@U?$pair@$$CBHV?$basic_string@DU?$char_traits@D@std@@V?$allocator@D@2@@std@@@std@@@std@@@std@@@std@@_NX@?$pair@V?$_Tree_iterator@V?$_Tree_val@U?$_Tree_simple_types@U?$pair@$$CBHV?$basic_string@DU?$char_traits@D@std@@V?$allocator@D@2@@std@@@std@@@std@@@std@@@std@@_N@std@@QAE@AAV?$_Tree_iterator@V?$_Tree_val@U?$_Tree_simple_types@U?$pair@$$CBHV?$basic_string@DU?$char_traits@D@std@@V?$allocator@D@2@@std@@@std@@@std@@@std@@@1@$$QA_N@Z 0046ccb0 f i databasedb_vs2013:database.obj
 0002:00043d80       ??$?0HV?$basic_string@DU?$char_traits@D@std@@V?$allocator@D@2@@std@@X@?$pair@$$CBHV?$basic_string@DU?$char_traits@D@std@@V?$allocator@D@2@@std@@@std@@QAE@$$QAU?$pair@HV?$basic_string@DU?$char_traits@D@std@@V?$allocator@D@2@@std@@@1@@Z 0046cd80 f i databasedb_vs2013:database.obj
 0002:00043e10       ??$?0U?$_Tree_node@U?$pair@$$CBHV?$basic_string@DU?$char_traits@D@std@@V?$allocator@D@2@@std@@@std@@PAX@std@@@?$allocator@U_Container_proxy@std@@@std@@QAE@ABV?$allocator@U?$_Tree_node@U?$pair@$$CBHV?$basic_string@DU?$char_traits@D@std@@V?$allocator@D@2@@std@@@std@@PAX@std@@@1@@Z 0046ce10 f i databasedb_vs2013:database.obj
 0002:00043e50       ??$?0U?$_Wrap_alloc@V?$allocator@U?$_Tree_node@U?$pair@$$CBHV?$basic_string@DU?$char_traits@D@std@@V?$allocator@D@2@@std@@@std@@PAX@std@@@std@@@std@@@?$_Wrap_alloc@V?$allocator@U_Container_proxy@std@@@std@@@std@@QAE@ABU?$_Wrap_alloc@V?$allocator@U?$_Tree_node@U?$pair@$$CBHV?$basic_string@DU?$char_traits@D@std@@V?$allocator@D@2@@std@@@std@@PAX@std@@@std@@@1@@Z 0046ce50 f i databasedb_vs2013:database.obj
 0002:00043eb0       ??$?0V?$_Tree_iterator@V?$_Tree_val@U?$_Tree_simple_types@U?$pair@$$CBHV?$basic_string@DU?$char_traits@D@std@@V?$allocator@D@2@@std@@@std@@@std@@@std@@@std@@_NX@?$pair@V?$_Tree_iterator@V?$_Tree_val@U?$_Tree_simple_types@U?$pair@$$CBHV?$basic_string@DU?$char_traits@D@std@@V?$allocator@D@2@@std@@@std@@@std@@@std@@@std@@_N@std@@QAE@$$QAV?$_Tree_iterator@V?$_Tree_val@U?$_Tree_simple_types@U?$pair@$$CBHV?$basic_string@DU?$char_traits@D@std@@V?$allocator@D@2@@std@@@std@@@std@@@std@@@1@$$QA_N@Z 0046ceb0 f i databasedb_vs2013:database.obj
 0002:00043f80       ??$?8DU?$char_traits@D@std@@V?$allocator@D@1@@std@@YA_NABV?$basic_string@DU?$char_traits@D@std@@V?$allocator@D@2@@0@PBD@Z 0046cf80 f i databasedb_vs2013:database.obj
 0002:00044000       ??$?8DU?$char_traits@D@std@@V?$allocator@D@1@@std@@YA_NPBDABV?$basic_string@DU?$char_traits@D@std@@V?$allocator@D@2@@0@@Z 0046d000 f i databasedb_vs2013:database.obj
 0002:00044080       ??$?9DU?$char_traits@D@std@@V?$allocator@D@1@@std@@YA_NPBDABV?$basic_string@DU?$char_traits@D@std@@V?$allocator@D@2@@0@@Z 0046d080 f i databasedb_vs2013:database.obj
 0002:00044100       ??$_Allocate@U?$_Tree_node@U?$pair@$$CBHV?$basic_string@DU?$char_traits@D@std@@V?$allocator@D@2@@std@@@std@@PAX@std@@@std@@YAPAU?$_Tree_node@U?$pair@$$CBHV?$basic_string@DU?$char_traits@D@std@@V?$allocator@D@2@@std@@@std@@PAX@0@IPAU10@@Z 0046d100 f i databasedb_vs2013:database.obj
 0002:00044190       ??$_Buynode@U?$pair@HV?$basic_string@DU?$char_traits@D@std@@V?$allocator@D@2@@std@@@std@@@?$_Tree_buy@U?$pair@$$CBHV?$basic_string@DU?$char_traits@D@std@@V?$allocator@D@2@@std@@@std@@V?$allocator@U?$pair@$$CBHV?$basic_string@DU?$char_traits@D@std@@V?$allocator@D@2@@std@@@std@@@2@@std@@QAEPAU?$_Tree_node@U?$pair@$$CBHV?$basic_string@DU?$char_traits@D@std@@V?$allocator@D@2@@std@@@std@@PAX@1@$$QAU?$pair@HV?$basic_string@DU?$char_traits@D@std@@V?$allocator@D@2@@std@@@1@@Z 0046d190 f i databasedb_vs2013:database.obj
 0002:00044300       ??$_Buynode_if_nil@AAU?$pair@$$CBHV?$basic_string@DU?$char_traits@D@std@@V?$allocator@D@2@@std@@@std@@@?$_Tree@V?$_Tmap_traits@HV?$basic_string@DU?$char_traits@D@std@@V?$allocator@D@2@@std@@U?$less@H@2@V?$allocator@U?$pair@$$CBHV?$basic_string@DU?$char_traits@D@std@@V?$allocator@D@2@@std@@@std@@@2@$0A@@std@@@std@@IAEPAU?$_Tree_node@U?$pair@$$CBHV?$basic_string@DU?$char_traits@D@std@@V?$allocator@D@2@@std@@@std@@PAX@1@PAU21@AAU?$pair@$$CBHV?$basic_string@DU?$char_traits@D@std@@V?$allocator@D@2@@std@@@1@@Z 0046d300 f i databasedb_vs2013:database.obj
 0002:00044340       ??$_Insert_at@AAU?$pair@$$CBHV?$basic_string@DU?$char_traits@D@std@@V?$allocator@D@2@@std@@@std@@PAU?$_Tree_node@U?$pair@$$CBHV?$basic_string@DU?$char_traits@D@std@@V?$allocator@D@2@@std@@@std@@PAX@2@@?$_Tree@V?$_Tmap_traits@HV?$basic_string@DU?$char_traits@D@std@@V?$allocator@D@2@@std@@U?$less@H@2@V?$allocator@U?$pair@$$CBHV?$basic_string@DU?$char_traits@D@std@@V?$allocator@D@2@@std@@@std@@@2@$0A@@std@@@std@@IAE?AV?$_Tree_iterator@V?$_Tree_val@U?$_Tree_simple_types@U?$pair@$$CBHV?$basic_string@DU?$char_traits@D@std@@V?$allocator@D@2@@std@@@std@@@std@@@std@@@1@_NPAU?$_Tree_node@U?$pair@$$CBHV?$basic_string@DU?$char_traits@D@std@@V?$allocator@D@2@@std@@@std@@PAX@1@AAU?$pair@$$CBHV?$basic_string@DU?$char_traits@D@std@@V?$allocator@D@2@@std@@@1@1@Z 0046d340 f i databasedb_vs2013:database.obj
 0002:000448d0       ??$_Insert_nohint@AAU?$pair@$$CBHV?$basic_string@DU?$char_traits@D@std@@V?$allocator@D@2@@std@@@std@@PAU?$_Tree_node@U?$pair@$$CBHV?$basic_string@DU?$char_traits@D@std@@V?$allocator@D@2@@std@@@std@@PAX@2@@?$_Tree@V?$_Tmap_traits@HV?$basic_string@DU?$char_traits@D@std@@V?$allocator@D@2@@std@@U?$less@H@2@V?$allocator@U?$pair@$$CBHV?$basic_string@DU?$char_traits@D@std@@V?$allocator@D@2@@std@@@std@@@2@$0A@@std@@@std@@IAE?AU?$pair@V?$_Tree_iterator@V?$_Tree_val@U?$_Tree_simple_types@U?$pair@$$CBHV?$basic_string@DU?$char_traits@D@std@@V?$allocator@D@2@@std@@@std@@@std@@@std@@@std@@_N@1@_NAAU?$pair@$$CBHV?$basic_string@DU?$char_traits@D@std@@V?$allocator@D@2@@std@@@1@PAU?$_Tree_node@U?$pair@$$CBHV?$basic_string@DU?$char_traits@D@std@@V?$allocator@D@2@@std@@@std@@PAX@1@@Z 0046d8d0 f i databasedb_vs2013:database.obj
 0002:00045010       ??$_Kfn@$$CBHV?$basic_string@DU?$char_traits@D@std@@V?$allocator@D@2@@std@@@?$_Tmap_traits@HV?$basic_string@DU?$char_traits@D@std@@V?$allocator@D@2@@std@@U?$less@H@2@V?$allocator@U?$pair@$$CBHV?$basic_string@DU?$char_traits@D@std@@V?$allocator@D@2@@std@@@std@@@2@$0A@@std@@SAABHABU?$pair@$$CBHV?$basic_string@DU?$char_traits@D@std@@V?$allocator@D@2@@std@@@1@@Z 0046e010 f i databasedb_vs2013:database.obj
 0002:00045050       ??$addressof@$$CBU?$pair@$$CBHV?$basic_string@DU?$char_traits@D@std@@V?$allocator@D@2@@std@@@std@@@std@@YAPBU?$pair@$$CBHV?$basic_string@DU?$char_traits@D@std@@V?$allocator@D@2@@std@@@0@ABU10@@Z 0046e050 f i databasedb_vs2013:database.obj
 0002:00045090       ??$addressof@PAU?$_Tree_node@U?$pair@$$CBHV?$basic_string@DU?$char_traits@D@std@@V?$allocator@D@2@@std@@@std@@PAX@std@@@std@@YAPAPAU?$_Tree_node@U?$pair@$$CBHV?$basic_string@DU?$char_traits@D@std@@V?$allocator@D@2@@std@@@std@@PAX@0@AAPAU10@@Z 0046e090 f i databasedb_vs2013:database.obj
 0002:000450d0       ??$addressof@U?$pair@$$CBHV?$basic_string@DU?$char_traits@D@std@@V?$allocator@D@2@@std@@@std@@@std@@YAPAU?$pair@$$CBHV?$basic_string@DU?$char_traits@D@std@@V?$allocator@D@2@@std@@@0@AAU10@@Z 0046e0d0 f i databasedb_vs2013:database.obj
 0002:00045110       ??$construct@PAU?$_Tree_node@U?$pair@$$CBHV?$basic_string@DU?$char_traits@D@std@@V?$allocator@D@2@@std@@@std@@PAX@std@@AAPAU12@@?$_Wrap_alloc@V?$allocator@U?$_Tree_node@U?$pair@$$CBHV?$basic_string@DU?$char_traits@D@std@@V?$allocator@D@2@@std@@@std@@PAX@std@@@std@@@std@@QAEXPAPAU?$_Tree_node@U?$pair@$$CBHV?$basic_string@DU?$char_traits@D@std@@V?$allocator@D@2@@std@@@std@@PAX@1@AAPAU21@@Z 0046e110 f i databasedb_vs2013:database.obj
 0002:00045180       ??$construct@PAU?$_Tree_node@U?$pair@$$CBHV?$basic_string@DU?$char_traits@D@std@@V?$allocator@D@2@@std@@@std@@PAX@std@@AAPAU12@@?$allocator@U?$_Tree_node@U?$pair@$$CBHV?$basic_string@DU?$char_traits@D@std@@V?$allocator@D@2@@std@@@std@@PAX@std@@@std@@QAEXPAPAU?$_Tree_node@U?$pair@$$CBHV?$basic_string@DU?$char_traits@D@std@@V?$allocator@D@2@@std@@@std@@PAX@1@AAPAU21@@Z 0046e180 f i databasedb_vs2013:database.obj
 0002:00045280       ??$construct@PAU?$_Tree_node@U?$pair@$$CBHV?$basic_string@DU?$char_traits@D@std@@V?$allocator@D@2@@std@@@std@@PAX@std@@AAPAU12@@?$allocator_traits@V?$allocator@U?$_Tree_node@U?$pair@$$CBHV?$basic_string@DU?$char_traits@D@std@@V?$allocator@D@2@@std@@@std@@PAX@std@@@std@@@std@@SAXAAV?$allocator@U?$_Tree_node@U?$pair@$$CBHV?$basic_string@DU?$char_traits@D@std@@V?$allocator@D@2@@std@@@std@@PAX@std@@@1@PAPAU?$_Tree_node@U?$pair@$$CBHV?$basic_string@DU?$char_traits@D@std@@V?$allocator@D@2@@std@@@std@@PAX@1@AAPAU31@@Z 0046e280 f i databasedb_vs2013:database.obj
 0002:000452e0       ??$construct@U?$pair@$$CBHV?$basic_string@DU?$char_traits@D@std@@V?$allocator@D@2@@std@@@std@@U?$pair@HV?$basic_string@DU?$char_traits@D@std@@V?$allocator@D@2@@std@@@2@@?$_Wrap_alloc@V?$allocator@U?$_Tree_node@U?$pair@$$CBHV?$basic_string@DU?$char_traits@D@std@@V?$allocator@D@2@@std@@@std@@PAX@std@@@std@@@std@@QAEXPAU?$pair@$$CBHV?$basic_string@DU?$char_traits@D@std@@V?$allocator@D@2@@std@@@1@$$QAU?$pair@HV?$basic_string@DU?$char_traits@D@std@@V?$allocator@D@2@@std@@@1@@Z 0046e2e0 f i databasedb_vs2013:database.obj
 0002:00045350       ??$construct@U?$pair@$$CBHV?$basic_string@DU?$char_traits@D@std@@V?$allocator@D@2@@std@@@std@@U?$pair@HV?$basic_string@DU?$char_traits@D@std@@V?$allocator@D@2@@std@@@2@@?$allocator@U?$_Tree_node@U?$pair@$$CBHV?$basic_string@DU?$char_traits@D@std@@V?$allocator@D@2@@std@@@std@@PAX@std@@@std@@QAEXPAU?$pair@$$CBHV?$basic_string@DU?$char_traits@D@std@@V?$allocator@D@2@@std@@@1@$$QAU?$pair@HV?$basic_string@DU?$char_traits@D@std@@V?$allocator@D@2@@std@@@1@@Z 0046e350 f i databasedb_vs2013:database.obj
 0002:00045450       ??$construct@U?$pair@$$CBHV?$basic_string@DU?$char_traits@D@std@@V?$allocator@D@2@@std@@@std@@U?$pair@HV?$basic_string@DU?$char_traits@D@std@@V?$allocator@D@2@@std@@@2@@?$allocator_traits@V?$allocator@U?$_Tree_node@U?$pair@$$CBHV?$basic_string@DU?$char_traits@D@std@@V?$allocator@D@2@@std@@@std@@PAX@std@@@std@@@std@@SAXAAV?$allocator@U?$_Tree_node@U?$pair@$$CBHV?$basic_string@DU?$char_traits@D@std@@V?$allocator@D@2@@std@@@std@@PAX@std@@@1@PAU?$pair@$$CBHV?$basic_string@DU?$char_traits@D@std@@V?$allocator@D@2@@std@@@1@$$QAU?$pair@HV?$basic_string@DU?$char_traits@D@std@@V?$allocator@D@2@@std@@@1@@Z 0046e450 f i databasedb_vs2013:database.obj
 0002:000454b0       ??$destroy@PAU?$_Tree_node@U?$pair@$$CBHV?$basic_string@DU?$char_traits@D@std@@V?$allocator@D@2@@std@@@std@@PAX@std@@@?$_Wrap_alloc@V?$allocator@U?$_Tree_node@U?$pair@$$CBHV?$basic_string@DU?$char_traits@D@std@@V?$allocator@D@2@@std@@@std@@PAX@std@@@std@@@std@@QAEXPAPAU?$_Tree_node@U?$pair@$$CBHV?$basic_string@DU?$char_traits@D@std@@V?$allocator@D@2@@std@@@std@@PAX@1@@Z 0046e4b0 f i databasedb_vs2013:database.obj
 0002:00045510       ??$destroy@PAU?$_Tree_node@U?$pair@$$CBHV?$basic_string@DU?$char_traits@D@std@@V?$allocator@D@2@@std@@@std@@PAX@std@@@?$allocator@U?$_Tree_node@U?$pair@$$CBHV?$basic_string@DU?$char_traits@D@std@@V?$allocator@D@2@@std@@@std@@PAX@std@@@std@@QAEXPAPAU?$_Tree_node@U?$pair@$$CBHV?$basic_string@DU?$char_traits@D@std@@V?$allocator@D@2@@std@@@std@@PAX@1@@Z 0046e510 f i databasedb_vs2013:database.obj
 0002:00045550       ??$destroy@PAU?$_Tree_node@U?$pair@$$CBHV?$basic_string@DU?$char_traits@D@std@@V?$allocator@D@2@@std@@@std@@PAX@std@@@?$allocator_traits@V?$allocator@U?$_Tree_node@U?$pair@$$CBHV?$basic_string@DU?$char_traits@D@std@@V?$allocator@D@2@@std@@@std@@PAX@std@@@std@@@std@@SAXAAV?$allocator@U?$_Tree_node@U?$pair@$$CBHV?$basic_string@DU?$char_traits@D@std@@V?$allocator@D@2@@std@@@std@@PAX@std@@@1@PAPAU?$_Tree_node@U?$pair@$$CBHV?$basic_string@DU?$char_traits@D@std@@V?$allocator@D@2@@std@@@std@@PAX@1@@Z 0046e550 f i databasedb_vs2013:database.obj
 0002:000455a0       ??$destroy@U?$pair@$$CBHV?$basic_string@DU?$char_traits@D@std@@V?$allocator@D@2@@std@@@std@@@?$_Wrap_alloc@V?$allocator@U?$_Tree_node@U?$pair@$$CBHV?$basic_string@DU?$char_traits@D@std@@V?$allocator@D@2@@std@@@std@@PAX@std@@@std@@@std@@QAEXPAU?$pair@$$CBHV?$basic_string@DU?$char_traits@D@std@@V?$allocator@D@2@@std@@@1@@Z 0046e5a0 f i databasedb_vs2013:database.obj
 0002:00045600       ??$destroy@U?$pair@$$CBHV?$basic_string@DU?$char_traits@D@std@@V?$allocator@D@2@@std@@@std@@@?$allocator@U?$_Tree_node@U?$pair@$$CBHV?$basic_string@DU?$char_traits@D@std@@V?$allocator@D@2@@std@@@std@@PAX@std@@@std@@QAEXPAU?$pair@$$CBHV?$basic_string@DU?$char_traits@D@std@@V?$allocator@D@2@@std@@@1@@Z 0046e600 f i databasedb_vs2013:database.obj
 0002:00045660       ??$destroy@U?$pair@$$CBHV?$basic_string@DU?$char_traits@D@std@@V?$allocator@D@2@@std@@@std@@@?$allocator_traits@V?$allocator@U?$_Tree_node@U?$pair@$$CBHV?$basic_string@DU?$char_traits@D@std@@V?$allocator@D@2@@std@@@std@@PAX@std@@@std@@@std@@SAXAAV?$allocator@U?$_Tree_node@U?$pair@$$CBHV?$basic_string@DU?$char_traits@D@std@@V?$allocator@D@2@@std@@@std@@PAX@std@@@1@PAU?$pair@$$CBHV?$basic_string@DU?$char_traits@D@std@@V?$allocator@D@2@@std@@@1@@Z 0046e660 f i databasedb_vs2013:database.obj
 0002:000456b0       ??$forward@AAPAU?$_Tree_node@U?$pair@$$CBHV?$basic_string@DU?$char_traits@D@std@@V?$allocator@D@2@@std@@@std@@PAX@std@@@std@@YAAAPAU?$_Tree_node@U?$pair@$$CBHV?$basic_string@DU?$char_traits@D@std@@V?$allocator@D@2@@std@@@std@@PAX@0@AAPAU10@@Z 0046e6b0 f i databasedb_vs2013:database.obj
 0002:000456f0       ??$forward@AAPBD@std@@YAAAPBDAAPBD@Z 0046e6f0 f i databasedb_vs2013:database.obj
 0002:00045730       ??$forward@AAU?$pair@$$CBHV?$basic_string@DU?$char_traits@D@std@@V?$allocator@D@2@@std@@@std@@@std@@YAAAU?$pair@$$CBHV?$basic_string@DU?$char_traits@D@std@@V?$allocator@D@2@@std@@@0@AAU10@@Z 0046e730 f i databasedb_vs2013:database.obj
 0002:00045770       ??$forward@AAV?$_Tree_iterator@V?$_Tree_val@U?$_Tree_simple_types@U?$pair@$$CBHV?$basic_string@DU?$char_traits@D@std@@V?$allocator@D@2@@std@@@std@@@std@@@std@@@std@@@std@@YAAAV?$_Tree_iterator@V?$_Tree_val@U?$_Tree_simple_types@U?$pair@$$CBHV?$basic_string@DU?$char_traits@D@std@@V?$allocator@D@2@@std@@@std@@@std@@@std@@@0@AAV10@@Z 0046e770 f i databasedb_vs2013:database.obj
 0002:000457b0       ??$forward@U?$pair@HV?$basic_string@DU?$char_traits@D@std@@V?$allocator@D@2@@std@@@std@@@std@@YA$$QAU?$pair@HV?$basic_string@DU?$char_traits@D@std@@V?$allocator@D@2@@std@@@0@AAU10@@Z 0046e7b0 f i databasedb_vs2013:database.obj
 0002:000457f0       ??$forward@V?$_Tree_iterator@V?$_Tree_val@U?$_Tree_simple_types@U?$pair@$$CBHV?$basic_string@DU?$char_traits@D@std@@V?$allocator@D@2@@std@@@std@@@std@@@std@@@std@@@std@@YA$$QAV?$_Tree_iterator@V?$_Tree_val@U?$_Tree_simple_types@U?$pair@$$CBHV?$basic_string@DU?$char_traits@D@std@@V?$allocator@D@2@@std@@@std@@@std@@@std@@@0@AAV10@@Z 0046e7f0 f i databasedb_vs2013:database.obj
 0002:00045830       ??$forward@V?$basic_string@DU?$char_traits@D@std@@V?$allocator@D@2@@std@@@std@@YA$$QAV?$basic_string@DU?$char_traits@D@std@@V?$allocator@D@2@@0@AAV10@@Z 0046e830 f i databasedb_vs2013:database.obj
 0002:00045870       ??$insert@U?$pair@HV?$basic_string@DU?$char_traits@D@std@@V?$allocator@D@2@@std@@@std@@@?$_Tree@V?$_Tmap_traits@HV?$basic_string@DU?$char_traits@D@std@@V?$allocator@D@2@@std@@U?$less@H@2@V?$allocator@U?$pair@$$CBHV?$basic_string@DU?$char_traits@D@std@@V?$allocator@D@2@@std@@@std@@@2@$0A@@std@@@std@@QAE?AU?$pair@V?$_Tree_iterator@V?$_Tree_val@U?$_Tree_simple_types@U?$pair@$$CBHV?$basic_string@DU?$char_traits@D@std@@V?$allocator@D@2@@std@@@std@@@std@@@std@@@std@@_N@1@$$QAU?$pair@HV?$basic_string@DU?$char_traits@D@std@@V?$allocator@D@2@@std@@@1@@Z 0046e870 f i databasedb_vs2013:database.obj
 0002:00045920       ??0?$_Iterator012@Ubidirectional_iterator_tag@std@@U?$pair@$$CBHV?$basic_string@DU?$char_traits@D@std@@V?$allocator@D@2@@std@@@2@HPBU32@ABU32@U_Iterator_base12@2@@std@@QAE@ABU01@@Z 0046e920 f i databasedb_vs2013:database.obj
 0002:00045980       ??0?$_Iterator012@Ubidirectional_iterator_tag@std@@U?$pair@$$CBHV?$basic_string@DU?$char_traits@D@std@@V?$allocator@D@2@@std@@@2@HPBU32@ABU32@U_Iterator_base12@2@@std@@QAE@XZ 0046e980 f i databasedb_vs2013:database.obj
 0002:000459e0       ??0?$_Tree@V?$_Tmap_traits@HV?$basic_string@DU?$char_traits@D@std@@V?$allocator@D@2@@std@@U?$less@H@2@V?$allocator@U?$pair@$$CBHV?$basic_string@DU?$char_traits@D@std@@V?$allocator@D@2@@std@@@std@@@2@$0A@@std@@@std@@QAE@ABU?$less@H@1@ABV?$allocator@U?$pair@$$CBHV?$basic_string@DU?$char_traits@D@std@@V?$allocator@D@2@@std@@@std@@@1@@Z 0046e9e0 f i databasedb_vs2013:database.obj
 0002:00045a40       ??0?$_Tree_alloc@$0A@U?$_Tree_base_types@U?$pair@$$CBHV?$basic_string@DU?$char_traits@D@std@@V?$allocator@D@2@@std@@@std@@V?$allocator@U?$pair@$$CBHV?$basic_string@DU?$char_traits@D@std@@V?$allocator@D@2@@std@@@std@@@2@@std@@@std@@QAE@ABV?$allocator@U?$pair@$$CBHV?$basic_string@DU?$char_traits@D@std@@V?$allocator@D@2@@std@@@std@@@1@@Z 0046ea40 f i databasedb_vs2013:database.obj
 0002:00045b40       ??0?$_Tree_buy@U?$pair@$$CBHV?$basic_string@DU?$char_traits@D@std@@V?$allocator@D@2@@std@@@std@@V?$allocator@U?$pair@$$CBHV?$basic_string@DU?$char_traits@D@std@@V?$allocator@D@2@@std@@@std@@@2@@std@@QAE@ABV?$allocator@U?$pair@$$CBHV?$basic_string@DU?$char_traits@D@std@@V?$allocator@D@2@@std@@@std@@@1@@Z 0046eb40 f i databasedb_vs2013:database.obj
 0002:00045ba0       ??0?$_Tree_comp@$0A@V?$_Tmap_traits@HV?$basic_string@DU?$char_traits@D@std@@V?$allocator@D@2@@std@@U?$less@H@2@V?$allocator@U?$pair@$$CBHV?$basic_string@DU?$char_traits@D@std@@V?$allocator@D@2@@std@@@std@@@2@$0A@@std@@@std@@QAE@ABU?$less@H@1@ABV?$allocator@U?$pair@$$CBHV?$basic_string@DU?$char_traits@D@std@@V?$allocator@D@2@@std@@@std@@@1@@Z 0046eba0 f i databasedb_vs2013:database.obj
 0002:00045c00       ??0?$_Tree_const_iterator@V?$_Tree_val@U?$_Tree_simple_types@U?$pair@$$CBHV?$basic_string@DU?$char_traits@D@std@@V?$allocator@D@2@@std@@@std@@@std@@@std@@@std@@QAE@ABV01@@Z 0046ec00 f i databasedb_vs2013:database.obj
 0002:00045c60       ??0?$_Tree_const_iterator@V?$_Tree_val@U?$_Tree_simple_types@U?$pair@$$CBHV?$basic_string@DU?$char_traits@D@std@@V?$allocator@D@2@@std@@@std@@@std@@@std@@@std@@QAE@PAU?$_Tree_node@U?$pair@$$CBHV?$basic_string@DU?$char_traits@D@std@@V?$allocator@D@2@@std@@@std@@PAX@1@PBV?$_Tree_val@U?$_Tree_simple_types@U?$pair@$$CBHV?$basic_string@DU?$char_traits@D@std@@V?$allocator@D@2@@std@@@std@@@std@@@1@@Z 0046ec60 f i databasedb_vs2013:database.obj
 0002:00045cc0       ??0?$_Tree_const_iterator@V?$_Tree_val@U?$_Tree_simple_types@U?$pair@$$CBHV?$basic_string@DU?$char_traits@D@std@@V?$allocator@D@2@@std@@@std@@@std@@@std@@@std@@QAE@XZ 0046ecc0 f i databasedb_vs2013:database.obj
 0002:00045d20       ??0?$_Tree_iterator@V?$_Tree_val@U?$_Tree_simple_types@U?$pair@$$CBHV?$basic_string@DU?$char_traits@D@std@@V?$allocator@D@2@@std@@@std@@@std@@@std@@@std@@QAE@ABV01@@Z 0046ed20 f i databasedb_vs2013:database.obj
 0002:00045d80       ??0?$_Tree_iterator@V?$_Tree_val@U?$_Tree_simple_types@U?$pair@$$CBHV?$basic_string@DU?$char_traits@D@std@@V?$allocator@D@2@@std@@@std@@@std@@@std@@@std@@QAE@PAU?$_Tree_node@U?$pair@$$CBHV?$basic_string@DU?$char_traits@D@std@@V?$allocator@D@2@@std@@@std@@PAX@1@PBV?$_Tree_val@U?$_Tree_simple_types@U?$pair@$$CBHV?$basic_string@DU?$char_traits@D@std@@V?$allocator@D@2@@std@@@std@@@std@@@1@@Z 0046ed80 f i databasedb_vs2013:database.obj
 0002:00045de0       ??0?$_Tree_iterator@V?$_Tree_val@U?$_Tree_simple_types@U?$pair@$$CBHV?$basic_string@DU?$char_traits@D@std@@V?$allocator@D@2@@std@@@std@@@std@@@std@@@std@@QAE@XZ 0046ede0 f i databasedb_vs2013:database.obj
 0002:00045e40       ??0?$_Tree_unchecked_const_iterator@V?$_Tree_val@U?$_Tree_simple_types@U?$pair@$$CBHV?$basic_string@DU?$char_traits@D@std@@V?$allocator@D@2@@std@@@std@@@std@@@std@@U_Iterator_base12@2@@std@@QAE@ABV01@@Z 0046ee40 f i databasedb_vs2013:database.obj
 0002:00045eb0       ??0?$_Tree_unchecked_const_iterator@V?$_Tree_val@U?$_Tree_simple_types@U?$pair@$$CBHV?$basic_string@DU?$char_traits@D@std@@V?$allocator@D@2@@std@@@std@@@std@@@std@@U_Iterator_base12@2@@std@@QAE@PAU?$_Tree_node@U?$pair@$$CBHV?$basic_string@DU?$char_traits@D@std@@V?$allocator@D@2@@std@@@std@@PAX@1@PBV?$_Tree_val@U?$_Tree_simple_types@U?$pair@$$CBHV?$basic_string@DU?$char_traits@D@std@@V?$allocator@D@2@@std@@@std@@@std@@@1@@Z 0046eeb0 f i databasedb_vs2013:database.obj
 0002:00045f70       ??0?$_Tree_unchecked_const_iterator@V?$_Tree_val@U?$_Tree_simple_types@U?$pair@$$CBHV?$basic_string@DU?$char_traits@D@std@@V?$allocator@D@2@@std@@@std@@@std@@@std@@U_Iterator_base12@2@@std@@QAE@XZ 0046ef70 f i databasedb_vs2013:database.obj
 0002:00045fd0       ??0?$_Tree_val@U?$_Tree_simple_types@U?$pair@$$CBHV?$basic_string@DU?$char_traits@D@std@@V?$allocator@D@2@@std@@@std@@@std@@@std@@QAE@XZ 0046efd0 f i databasedb_vs2013:database.obj
 0002:00046050       ??0?$_Wrap_alloc@V?$allocator@U?$_Tree_node@U?$pair@$$CBHV?$basic_string@DU?$char_traits@D@std@@V?$allocator@D@2@@std@@@std@@PAX@std@@@std@@@std@@QAE@XZ 0046f050 f i databasedb_vs2013:database.obj
 0002:000460b0       ??0?$allocator@U?$_Tree_node@U?$pair@$$CBHV?$basic_string@DU?$char_traits@D@std@@V?$allocator@D@2@@std@@@std@@PAX@std@@@std@@QAE@XZ 0046f0b0 f i databasedb_vs2013:database.obj
 0002:000460f0       ??0?$allocator@U?$pair@$$CBHV?$basic_string@DU?$char_traits@D@std@@V?$allocator@D@2@@std@@@std@@@std@@QAE@XZ 0046f0f0 f i databasedb_vs2013:database.obj
 0002:00046130       ??0?$basic_string@DU?$char_traits@D@std@@V?$allocator@D@2@@std@@QAE@$$QAV01@@Z 0046f130 f i databasedb_vs2013:database.obj
 0002:000461d0       ??0?$basic_string@DU?$char_traits@D@std@@V?$allocator@D@2@@std@@QAE@XZ 0046f1d0 f i databasedb_vs2013:database.obj
 0002:00046290       ??0?$map@HV?$basic_string@DU?$char_traits@D@std@@V?$allocator@D@2@@std@@U?$less@H@2@V?$allocator@U?$pair@$$CBHV?$basic_string@DU?$char_traits@D@std@@V?$allocator@D@2@@std@@@std@@@2@@std@@QAE@XZ 0046f290 f i databasedb_vs2013:database.obj
 0002:00046300       ??1?$_Iterator012@Ubidirectional_iterator_tag@std@@U?$pair@$$CBHV?$basic_string@DU?$char_traits@D@std@@V?$allocator@D@2@@std@@@2@HPBU32@ABU32@U_Iterator_base12@2@@std@@QAE@XZ 0046f300 f i databasedb_vs2013:database.obj
 0002:00046350       ??1?$_Tree@V?$_Tmap_traits@HV?$basic_string@DU?$char_traits@D@std@@V?$allocator@D@2@@std@@U?$less@H@2@V?$allocator@U?$pair@$$CBHV?$basic_string@DU?$char_traits@D@std@@V?$allocator@D@2@@std@@@std@@@2@$0A@@std@@@std@@QAE@XZ 0046f350 f i databasedb_vs2013:database.obj
 0002:000463b0       ??1?$_Tree_alloc@$0A@U?$_Tree_base_types@U?$pair@$$CBHV?$basic_string@DU?$char_traits@D@std@@V?$allocator@D@2@@std@@@std@@V?$allocator@U?$pair@$$CBHV?$basic_string@DU?$char_traits@D@std@@V?$allocator@D@2@@std@@@std@@@2@@std@@@std@@QAE@XZ 0046f3b0 f i databasedb_vs2013:database.obj
 0002:00046420       ??1?$_Tree_buy@U?$pair@$$CBHV?$basic_string@DU?$char_traits@D@std@@V?$allocator@D@2@@std@@@std@@V?$allocator@U?$pair@$$CBHV?$basic_string@DU?$char_traits@D@std@@V?$allocator@D@2@@std@@@std@@@2@@std@@QAE@XZ 0046f420 f i databasedb_vs2013:database.obj
 0002:00046470       ??1?$_Tree_comp@$0A@V?$_Tmap_traits@HV?$basic_string@DU?$char_traits@D@std@@V?$allocator@D@2@@std@@U?$less@H@2@V?$allocator@U?$pair@$$CBHV?$basic_string@DU?$char_traits@D@std@@V?$allocator@D@2@@std@@@std@@@2@$0A@@std@@@std@@QAE@XZ 0046f470 f i databasedb_vs2013:database.obj
 0002:000464c0       ??1?$_Tree_const_iterator@V?$_Tree_val@U?$_Tree_simple_types@U?$pair@$$CBHV?$basic_string@DU?$char_traits@D@std@@V?$allocator@D@2@@std@@@std@@@std@@@std@@@std@@QAE@XZ 0046f4c0 f i databasedb_vs2013:database.obj
 0002:00046510       ??1?$_Tree_iterator@V?$_Tree_val@U?$_Tree_simple_types@U?$pair@$$CBHV?$basic_string@DU?$char_traits@D@std@@V?$allocator@D@2@@std@@@std@@@std@@@std@@@std@@QAE@XZ 0046f510 f i databasedb_vs2013:database.obj
 0002:00046560       ??1?$_Tree_unchecked_const_iterator@V?$_Tree_val@U?$_Tree_simple_types@U?$pair@$$CBHV?$basic_string@DU?$char_traits@D@std@@V?$allocator@D@2@@std@@@std@@@std@@@std@@U_Iterator_base12@2@@std@@QAE@XZ 0046f560 f i databasedb_vs2013:database.obj
 0002:000465b0       ??1?$_Tree_val@U?$_Tree_simple_types@U?$pair@$$CBHV?$basic_string@DU?$char_traits@D@std@@V?$allocator@D@2@@std@@@std@@@std@@@std@@QAE@XZ 0046f5b0 f i databasedb_vs2013:database.obj
 0002:00046610       ??1?$basic_string@DU?$char_traits@D@std@@V?$allocator@D@2@@std@@QAE@XZ 0046f610 f i databasedb_vs2013:database.obj
 0002:00046670       ??1?$map@HV?$basic_string@DU?$char_traits@D@std@@V?$allocator@D@2@@std@@U?$less@H@2@V?$allocator@U?$pair@$$CBHV?$basic_string@DU?$char_traits@D@std@@V?$allocator@D@2@@std@@@std@@@2@@std@@QAE@XZ 0046f670 f i databasedb_vs2013:database.obj
 0002:000466c0       ??1?$pair@$$CBHV?$basic_string@DU?$char_traits@D@std@@V?$allocator@D@2@@std@@@std@@QAE@XZ 0046f6c0 f i databasedb_vs2013:database.obj
 0002:00046720       ??1?$pair@HV?$basic_string@DU?$char_traits@D@std@@V?$allocator@D@2@@std@@@std@@QAE@XZ 0046f720 f i databasedb_vs2013:database.obj
 0002:00046780       ??1?$pair@V?$_Tree_iterator@V?$_Tree_val@U?$_Tree_simple_types@U?$pair@$$CBHV?$basic_string@DU?$char_traits@D@std@@V?$allocator@D@2@@std@@@std@@@std@@@std@@@std@@_N@std@@QAE@XZ 0046f780 f i databasedb_vs2013:database.obj
 0002:000467d0       ??1database@@UAE@XZ        0046f7d0 f i databasedb_vs2013:database.obj
 0002:00046840       ??4?$_Iterator012@Ubidirectional_iterator_tag@std@@U?$pair@$$CBHV?$basic_string@DU?$char_traits@D@std@@V?$allocator@D@2@@std@@@2@HPBU32@ABU32@U_Iterator_base12@2@@std@@QAEAAU01@ABU01@@Z 0046f840 f i databasedb_vs2013:database.obj
 0002:000468a0       ??4?$_Tree_const_iterator@V?$_Tree_val@U?$_Tree_simple_types@U?$pair@$$CBHV?$basic_string@DU?$char_traits@D@std@@V?$allocator@D@2@@std@@@std@@@std@@@std@@@std@@QAEAAV01@ABV01@@Z 0046f8a0 f i databasedb_vs2013:database.obj
 0002:00046900       ??4?$_Tree_iterator@V?$_Tree_val@U?$_Tree_simple_types@U?$pair@$$CBHV?$basic_string@DU?$char_traits@D@std@@V?$allocator@D@2@@std@@@std@@@std@@@std@@@std@@QAEAAV01@ABV01@@Z 0046f900 f i databasedb_vs2013:database.obj
 0002:00046960       ??4?$_Tree_unchecked_const_iterator@V?$_Tree_val@U?$_Tree_simple_types@U?$pair@$$CBHV?$basic_string@DU?$char_traits@D@std@@V?$allocator@D@2@@std@@@std@@@std@@@std@@U_Iterator_base12@2@@std@@QAEAAV01@ABV01@@Z 0046f960 f i databasedb_vs2013:database.obj
 0002:000469d0       ??4?$basic_string@DU?$char_traits@D@std@@V?$allocator@D@2@@std@@QAEAAV01@PBD@Z 0046f9d0 f i databasedb_vs2013:database.obj
 0002:00046a30       ??8?$_Tree_const_iterator@V?$_Tree_val@U?$_Tree_simple_types@U?$pair@$$CBHV?$basic_string@DU?$char_traits@D@std@@V?$allocator@D@2@@std@@@std@@@std@@@std@@@std@@QBE_NABV01@@Z 0046fa30 f i databasedb_vs2013:database.obj
 0002:00046b90       ??9?$_Tree_const_iterator@V?$_Tree_val@U?$_Tree_simple_types@U?$pair@$$CBHV?$basic_string@DU?$char_traits@D@std@@V?$allocator@D@2@@std@@@std@@@std@@@std@@@std@@QBE_NABV01@@Z 0046fb90 f i databasedb_vs2013:database.obj
 0002:00046c20       ??C?$_Tree_const_iterator@V?$_Tree_val@U?$_Tree_simple_types@U?$pair@$$CBHV?$basic_string@DU?$char_traits@D@std@@V?$allocator@D@2@@std@@@std@@@std@@@std@@@std@@QBEPBU?$pair@$$CBHV?$basic_string@DU?$char_traits@D@std@@V?$allocator@D@2@@std@@@1@XZ 0046fc20 f i databasedb_vs2013:database.obj
 0002:00046c80       ??C?$_Tree_iterator@V?$_Tree_val@U?$_Tree_simple_types@U?$pair@$$CBHV?$basic_string@DU?$char_traits@D@std@@V?$allocator@D@2@@std@@@std@@@std@@@std@@@std@@QBEPAU?$pair@$$CBHV?$basic_string@DU?$char_traits@D@std@@V?$allocator@D@2@@std@@@1@XZ 0046fc80 f i databasedb_vs2013:database.obj
 0002:00046ce0       ??D?$_Tree_const_iterator@V?$_Tree_val@U?$_Tree_simple_types@U?$pair@$$CBHV?$basic_string@DU?$char_traits@D@std@@V?$allocator@D@2@@std@@@std@@@std@@@std@@@std@@QBEABU?$pair@$$CBHV?$basic_string@DU?$char_traits@D@std@@V?$allocator@D@2@@std@@@1@XZ 0046fce0 f i databasedb_vs2013:database.obj
 0002:00046e20       ??D?$_Tree_iterator@V?$_Tree_val@U?$_Tree_simple_types@U?$pair@$$CBHV?$basic_string@DU?$char_traits@D@std@@V?$allocator@D@2@@std@@@std@@@std@@@std@@@std@@QBEAAU?$pair@$$CBHV?$basic_string@DU?$char_traits@D@std@@V?$allocator@D@2@@std@@@1@XZ 0046fe20 f i databasedb_vs2013:database.obj
 0002:00046e70       ??E?$_Tree_const_iterator@V?$_Tree_val@U?$_Tree_simple_types@U?$pair@$$CBHV?$basic_string@DU?$char_traits@D@std@@V?$allocator@D@2@@std@@@std@@@std@@@std@@@std@@QAE?AV01@H@Z 0046fe70 f i databasedb_vs2013:database.obj
 0002:00046f90       ??E?$_Tree_const_iterator@V?$_Tree_val@U?$_Tree_simple_types@U?$pair@$$CBHV?$basic_string@DU?$char_traits@D@std@@V?$allocator@D@2@@std@@@std@@@std@@@std@@@std@@QAEAAV01@XZ 0046ff90 f i databasedb_vs2013:database.obj
 0002:000470d0       ??E?$_Tree_iterator@V?$_Tree_val@U?$_Tree_simple_types@U?$pair@$$CBHV?$basic_string@DU?$char_traits@D@std@@V?$allocator@D@2@@std@@@std@@@std@@@std@@@std@@QAEAAV01@XZ 004700d0 f i databasedb_vs2013:database.obj
 0002:00047130       ??E?$_Tree_unchecked_const_iterator@V?$_Tree_val@U?$_Tree_simple_types@U?$pair@$$CBHV?$basic_string@DU?$char_traits@D@std@@V?$allocator@D@2@@std@@@std@@@std@@@std@@U_Iterator_base12@2@@std@@QAEAAV01@XZ 00470130 f i databasedb_vs2013:database.obj
 0002:00047260       ??F?$_Tree_const_iterator@V?$_Tree_val@U?$_Tree_simple_types@U?$pair@$$CBHV?$basic_string@DU?$char_traits@D@std@@V?$allocator@D@2@@std@@@std@@@std@@@std@@@std@@QAEAAV01@XZ 00470260 f i databasedb_vs2013:database.obj
 0002:00047440       ??F?$_Tree_iterator@V?$_Tree_val@U?$_Tree_simple_types@U?$pair@$$CBHV?$basic_string@DU?$char_traits@D@std@@V?$allocator@D@2@@std@@@std@@@std@@@std@@@std@@QAEAAV01@XZ 00470440 f i databasedb_vs2013:database.obj
 0002:000474a0       ??F?$_Tree_unchecked_const_iterator@V?$_Tree_val@U?$_Tree_simple_types@U?$pair@$$CBHV?$basic_string@DU?$char_traits@D@std@@V?$allocator@D@2@@std@@@std@@@std@@@std@@U_Iterator_base12@2@@std@@QAEAAV01@XZ 004704a0 f i databasedb_vs2013:database.obj
 0002:00047600       ??_G?$pair@$$CBHV?$basic_string@DU?$char_traits@D@std@@V?$allocator@D@2@@std@@@std@@QAEPAXI@Z 00470600 f i databasedb_vs2013:database.obj
 0002:00047670       ??_Edatabase@@UAEPAXI@Z    00470670 f i databasedb_vs2013:database.obj
 0002:00047670       ??_Gdatabase@@UAEPAXI@Z    00470670 f i databasedb_vs2013:database.obj
 0002:000476e0       ?_Alloc_proxy@?$_Tree_alloc@$0A@U?$_Tree_base_types@U?$pair@$$CBHV?$basic_string@DU?$char_traits@D@std@@V?$allocator@D@2@@std@@@std@@V?$allocator@U?$pair@$$CBHV?$basic_string@DU?$char_traits@D@std@@V?$allocator@D@2@@std@@@std@@@2@@std@@@std@@QAEXXZ 004706e0 f i databasedb_vs2013:database.obj
 0002:000477c0       ?_Assign_rv@?$basic_string@DU?$char_traits@D@std@@V?$allocator@D@2@@std@@QAEX$$QAV12@@Z 004707c0 f i databasedb_vs2013:database.obj
 0002:000478b0       ?_Buyheadnode@?$_Tree_alloc@$0A@U?$_Tree_base_types@U?$pair@$$CBHV?$basic_string@DU?$char_traits@D@std@@V?$allocator@D@2@@std@@@std@@V?$allocator@U?$pair@$$CBHV?$basic_string@DU?$char_traits@D@std@@V?$allocator@D@2@@std@@@std@@@2@@std@@@std@@QAEPAU?$_Tree_node@U?$pair@$$CBHV?$basic_string@DU?$char_traits@D@std@@V?$allocator@D@2@@std@@@std@@PAX@2@XZ 004708b0 f i databasedb_vs2013:database.obj
 0002:00047b10       ?_Buynode0@?$_Tree_buy@U?$pair@$$CBHV?$basic_string@DU?$char_traits@D@std@@V?$allocator@D@2@@std@@@std@@V?$allocator@U?$pair@$$CBHV?$basic_string@DU?$char_traits@D@std@@V?$allocator@D@2@@std@@@std@@@2@@std@@QAEPAU?$_Tree_node@U?$pair@$$CBHV?$basic_string@DU?$char_traits@D@std@@V?$allocator@D@2@@std@@@std@@PAX@2@XZ 00470b10 f i databasedb_vs2013:database.obj
 0002:00047d20       ?_Color@?$_Tree_val@U?$_Tree_simple_types@U?$pair@$$CBHV?$basic_string@DU?$char_traits@D@std@@V?$allocator@D@2@@std@@@std@@@std@@@std@@SAAADPAU?$_Tree_node@U?$pair@$$CBHV?$basic_string@DU?$char_traits@D@std@@V?$allocator@D@2@@std@@@std@@PAX@2@@Z 00470d20 f i databasedb_vs2013:database.obj
 0002:00047d60       ?_Destroy_if_not_nil@?$_Tree@V?$_Tmap_traits@HV?$basic_string@DU?$char_traits@D@std@@V?$allocator@D@2@@std@@U?$less@H@2@V?$allocator@U?$pair@$$CBHV?$basic_string@DU?$char_traits@D@std@@V?$allocator@D@2@@std@@@std@@@2@$0A@@std@@@std@@IAEXPAU?$_Tree_node@U?$pair@$$CBHV?$basic_string@DU?$char_traits@D@std@@V?$allocator@D@2@@std@@@std@@PAX@2@@Z 00470d60 f i databasedb_vs2013:database.obj
 0002:00047e10       ?_Erase@?$_Tree@V?$_Tmap_traits@HV?$basic_string@DU?$char_traits@D@std@@V?$allocator@D@2@@std@@U?$less@H@2@V?$allocator@U?$pair@$$CBHV?$basic_string@DU?$char_traits@D@std@@V?$allocator@D@2@@std@@@std@@@2@$0A@@std@@@std@@IAEXPAU?$_Tree_node@U?$pair@$$CBHV?$basic_string@DU?$char_traits@D@std@@V?$allocator@D@2@@std@@@std@@PAX@2@@Z 00470e10 f i databasedb_vs2013:database.obj
 0002:00047f20       ?_Free_proxy@?$_Tree_alloc@$0A@U?$_Tree_base_types@U?$pair@$$CBHV?$basic_string@DU?$char_traits@D@std@@V?$allocator@D@2@@std@@@std@@V?$allocator@U?$pair@$$CBHV?$basic_string@DU?$char_traits@D@std@@V?$allocator@D@2@@std@@@std@@@2@@std@@@std@@QAEXXZ 00470f20 f i databasedb_vs2013:database.obj
 0002:00048010       ?_Freeheadnode@?$_Tree_alloc@$0A@U?$_Tree_base_types@U?$pair@$$CBHV?$basic_string@DU?$char_traits@D@std@@V?$allocator@D@2@@std@@@std@@V?$allocator@U?$pair@$$CBHV?$basic_string@DU?$char_traits@D@std@@V?$allocator@D@2@@std@@@std@@@2@@std@@@std@@QAEXPAU?$_Tree_node@U?$pair@$$CBHV?$basic_string@DU?$char_traits@D@std@@V?$allocator@D@2@@std@@@std@@PAX@2@@Z 00471010 f i databasedb_vs2013:database.obj
 0002:00048120       ?_Freenode0@?$_Tree_buy@U?$pair@$$CBHV?$basic_string@DU?$char_traits@D@std@@V?$allocator@D@2@@std@@@std@@V?$allocator@U?$pair@$$CBHV?$basic_string@DU?$char_traits@D@std@@V?$allocator@D@2@@std@@@std@@@2@@std@@QAEXPAU?$_Tree_node@U?$pair@$$CBHV?$basic_string@DU?$char_traits@D@std@@V?$allocator@D@2@@std@@@std@@PAX@2@@Z 00471120 f i databasedb_vs2013:database.obj
 0002:00048230       ?_Getal@?$_Tree_alloc@$0A@U?$_Tree_base_types@U?$pair@$$CBHV?$basic_string@DU?$char_traits@D@std@@V?$allocator@D@2@@std@@@std@@V?$allocator@U?$pair@$$CBHV?$basic_string@DU?$char_traits@D@std@@V?$allocator@D@2@@std@@@std@@@2@@std@@@std@@QBE?AU?$_Wrap_alloc@V?$allocator@U?$_Tree_node@U?$pair@$$CBHV?$basic_string@DU?$char_traits@D@std@@V?$allocator@D@2@@std@@@std@@PAX@std@@@std@@@2@XZ 00471230 f i databasedb_vs2013:database.obj
 0002:00048290       ?_Getcomp@?$_Tree_comp@$0A@V?$_Tmap_traits@HV?$basic_string@DU?$char_traits@D@std@@V?$allocator@D@2@@std@@U?$less@H@2@V?$allocator@U?$pair@$$CBHV?$basic_string@DU?$char_traits@D@std@@V?$allocator@D@2@@std@@@std@@@2@$0A@@std@@@std@@QBE?AU?$less@H@2@XZ 00471290 f i databasedb_vs2013:database.obj
 0002:000482d0       ?_Isnil@?$_Tree_val@U?$_Tree_simple_types@U?$pair@$$CBHV?$basic_string@DU?$char_traits@D@std@@V?$allocator@D@2@@std@@@std@@@std@@@std@@SAAADPAU?$_Tree_node@U?$pair@$$CBHV?$basic_string@DU?$char_traits@D@std@@V?$allocator@D@2@@std@@@std@@PAX@2@@Z 004712d0 f i databasedb_vs2013:database.obj
 0002:00048310       ?_Key@?$_Tree@V?$_Tmap_traits@HV?$basic_string@DU?$char_traits@D@std@@V?$allocator@D@2@@std@@U?$less@H@2@V?$allocator@U?$pair@$$CBHV?$basic_string@DU?$char_traits@D@std@@V?$allocator@D@2@@std@@@std@@@2@$0A@@std@@@std@@IBEABHPAU?$_Tree_node@U?$pair@$$CBHV?$basic_string@DU?$char_traits@D@std@@V?$allocator@D@2@@std@@@std@@PAX@2@@Z 00471310 f i databasedb_vs2013:database.obj
 0002:00048380       ?_Kfn@?$_Tree@V?$_Tmap_traits@HV?$basic_string@DU?$char_traits@D@std@@V?$allocator@D@2@@std@@U?$less@H@2@V?$allocator@U?$pair@$$CBHV?$basic_string@DU?$char_traits@D@std@@V?$allocator@D@2@@std@@@std@@@2@$0A@@std@@@std@@IBEABHABU?$pair@$$CBHV?$basic_string@DU?$char_traits@D@std@@V?$allocator@D@2@@std@@@2@@Z 00471380 f i databasedb_vs2013:database.obj
 0002:000483e0       ?_Lbound@?$_Tree@V?$_Tmap_traits@HV?$basic_string@DU?$char_traits@D@std@@V?$allocator@D@2@@std@@U?$less@H@2@V?$allocator@U?$pair@$$CBHV?$basic_string@DU?$char_traits@D@std@@V?$allocator@D@2@@std@@@std@@@2@$0A@@std@@@std@@IAEPAU?$_Tree_node@U?$pair@$$CBHV?$basic_string@DU?$char_traits@D@std@@V?$allocator@D@2@@std@@@std@@PAX@2@ABH@Z 004713e0 f i databasedb_vs2013:database.obj
 0002:000484f0       ?_Left@?$_Tree_val@U?$_Tree_simple_types@U?$pair@$$CBHV?$basic_string@DU?$char_traits@D@std@@V?$allocator@D@2@@std@@@std@@@std@@@std@@SAAAPAU?$_Tree_node@U?$pair@$$CBHV?$basic_string@DU?$char_traits@D@std@@V?$allocator@D@2@@std@@@std@@PAX@2@PAU32@@Z 004714f0 f i databasedb_vs2013:database.obj
 0002:00048530       ?_Lmost@?$_Tree@V?$_Tmap_traits@HV?$basic_string@DU?$char_traits@D@std@@V?$allocator@D@2@@std@@U?$less@H@2@V?$allocator@U?$pair@$$CBHV?$basic_string@DU?$char_traits@D@std@@V?$allocator@D@2@@std@@@std@@@2@$0A@@std@@@std@@IBEAAPAU?$_Tree_node@U?$pair@$$CBHV?$basic_string@DU?$char_traits@D@std@@V?$allocator@D@2@@std@@@std@@PAX@2@XZ 00471530 f i databasedb_vs2013:database.obj
 0002:00048590       ?_Lrotate@?$_Tree@V?$_Tmap_traits@HV?$basic_string@DU?$char_traits@D@std@@V?$allocator@D@2@@std@@U?$less@H@2@V?$allocator@U?$pair@$$CBHV?$basic_string@DU?$char_traits@D@std@@V?$allocator@D@2@@std@@@std@@@2@$0A@@std@@@std@@IAEXPAU?$_Tree_node@U?$pair@$$CBHV?$basic_string@DU?$char_traits@D@std@@V?$allocator@D@2@@std@@@std@@PAX@2@@Z 00471590 f i databasedb_vs2013:database.obj
 0002:00048740       ?_Max@?$_Tree_val@U?$_Tree_simple_types@U?$pair@$$CBHV?$basic_string@DU?$char_traits@D@std@@V?$allocator@D@2@@std@@@std@@@std@@@std@@SAPAU?$_Tree_node@U?$pair@$$CBHV?$basic_string@DU?$char_traits@D@std@@V?$allocator@D@2@@std@@@std@@PAX@2@PAU32@@Z 00471740 f i databasedb_vs2013:database.obj
 0002:000487c0       ?_Min@?$_Tree_val@U?$_Tree_simple_types@U?$pair@$$CBHV?$basic_string@DU?$char_traits@D@std@@V?$allocator@D@2@@std@@@std@@@std@@@std@@SAPAU?$_Tree_node@U?$pair@$$CBHV?$basic_string@DU?$char_traits@D@std@@V?$allocator@D@2@@std@@@std@@PAX@2@PAU32@@Z 004717c0 f i databasedb_vs2013:database.obj
 0002:00048840       ?_Mynode@?$_Tree_unchecked_const_iterator@V?$_Tree_val@U?$_Tree_simple_types@U?$pair@$$CBHV?$basic_string@DU?$char_traits@D@std@@V?$allocator@D@2@@std@@@std@@@std@@@std@@U_Iterator_base12@2@@std@@QBEPAU?$_Tree_node@U?$pair@$$CBHV?$basic_string@DU?$char_traits@D@std@@V?$allocator@D@2@@std@@@std@@PAX@2@XZ 00471840 f i databasedb_vs2013:database.obj
 0002:00048880       ?_Myval@?$_Tree_val@U?$_Tree_simple_types@U?$pair@$$CBHV?$basic_string@DU?$char_traits@D@std@@V?$allocator@D@2@@std@@@std@@@std@@@std@@SAAAU?$pair@$$CBHV?$basic_string@DU?$char_traits@D@std@@V?$allocator@D@2@@std@@@2@PAU?$_Tree_node@U?$pair@$$CBHV?$basic_string@DU?$char_traits@D@std@@V?$allocator@D@2@@std@@@std@@PAX@2@@Z 00471880 f i databasedb_vs2013:database.obj
 0002:000488c0       ?_Orphan_ptr@?$_Tree@V?$_Tmap_traits@HV?$basic_string@DU?$char_traits@D@std@@V?$allocator@D@2@@std@@U?$less@H@2@V?$allocator@U?$pair@$$CBHV?$basic_string@DU?$char_traits@D@std@@V?$allocator@D@2@@std@@@std@@@2@$0A@@std@@@std@@IBEXAAV12@PAU?$_Tree_node@U?$pair@$$CBHV?$basic_string@DU?$char_traits@D@std@@V?$allocator@D@2@@std@@@std@@PAX@2@@Z 004718c0 f i databasedb_vs2013:database.obj
 0002:00048a50       ?_Parent@?$_Tree_val@U?$_Tree_simple_types@U?$pair@$$CBHV?$basic_string@DU?$char_traits@D@std@@V?$allocator@D@2@@std@@@std@@@std@@@std@@SAAAPAU?$_Tree_node@U?$pair@$$CBHV?$basic_string@DU?$char_traits@D@std@@V?$allocator@D@2@@std@@@std@@PAX@2@PAU32@@Z 00471a50 f i databasedb_vs2013:database.obj
 0002:00048a90       ?_Right@?$_Tree_val@U?$_Tree_simple_types@U?$pair@$$CBHV?$basic_string@DU?$char_traits@D@std@@V?$allocator@D@2@@std@@@std@@@std@@@std@@SAAAPAU?$_Tree_node@U?$pair@$$CBHV?$basic_string@DU?$char_traits@D@std@@V?$allocator@D@2@@std@@@std@@PAX@2@PAU32@@Z 00471a90 f i databasedb_vs2013:database.obj
 0002:00048ad0       ?_Rmost@?$_Tree@V?$_Tmap_traits@HV?$basic_string@DU?$char_traits@D@std@@V?$allocator@D@2@@std@@U?$less@H@2@V?$allocator@U?$pair@$$CBHV?$basic_string@DU?$char_traits@D@std@@V?$allocator@D@2@@std@@@std@@@2@$0A@@std@@@std@@IBEAAPAU?$_Tree_node@U?$pair@$$CBHV?$basic_string@DU?$char_traits@D@std@@V?$allocator@D@2@@std@@@std@@PAX@2@XZ 00471ad0 f i databasedb_vs2013:database.obj
 0002:00048b30       ?_Root@?$_Tree@V?$_Tmap_traits@HV?$basic_string@DU?$char_traits@D@std@@V?$allocator@D@2@@std@@U?$less@H@2@V?$allocator@U?$pair@$$CBHV?$basic_string@DU?$char_traits@D@std@@V?$allocator@D@2@@std@@@std@@@2@$0A@@std@@@std@@IBEAAPAU?$_Tree_node@U?$pair@$$CBHV?$basic_string@DU?$char_traits@D@std@@V?$allocator@D@2@@std@@@std@@PAX@2@XZ 00471b30 f i databasedb_vs2013:database.obj
 0002:00048b90       ?_Rrotate@?$_Tree@V?$_Tmap_traits@HV?$basic_string@DU?$char_traits@D@std@@V?$allocator@D@2@@std@@U?$less@H@2@V?$allocator@U?$pair@$$CBHV?$basic_string@DU?$char_traits@D@std@@V?$allocator@D@2@@std@@@std@@@2@$0A@@std@@@std@@IAEXPAU?$_Tree_node@U?$pair@$$CBHV?$basic_string@DU?$char_traits@D@std@@V?$allocator@D@2@@std@@@std@@PAX@2@@Z 00471b90 f i databasedb_vs2013:database.obj
 0002:00048d40       ?_Tidy@?$_Tree@V?$_Tmap_traits@HV?$basic_string@DU?$char_traits@D@std@@V?$allocator@D@2@@std@@U?$less@H@2@V?$allocator@U?$pair@$$CBHV?$basic_string@DU?$char_traits@D@std@@V?$allocator@D@2@@std@@@std@@@2@$0A@@std@@@std@@IAEXXZ 00471d40 f i databasedb_vs2013:database.obj
 0002:00048ed0       ?allocate@?$_Wrap_alloc@V?$allocator@U?$_Tree_node@U?$pair@$$CBHV?$basic_string@DU?$char_traits@D@std@@V?$allocator@D@2@@std@@@std@@PAX@std@@@std@@@std@@QAEPAU?$_Tree_node@U?$pair@$$CBHV?$basic_string@DU?$char_traits@D@std@@V?$allocator@D@2@@std@@@std@@PAX@2@I@Z 00471ed0 f i databasedb_vs2013:database.obj
 0002:00048f30       ?allocate@?$allocator@U?$_Tree_node@U?$pair@$$CBHV?$basic_string@DU?$char_traits@D@std@@V?$allocator@D@2@@std@@@std@@PAX@std@@@std@@QAEPAU?$_Tree_node@U?$pair@$$CBHV?$basic_string@DU?$char_traits@D@std@@V?$allocator@D@2@@std@@@std@@PAX@2@I@Z 00471f30 f i databasedb_vs2013:database.obj
 0002:00048f90       ?begin@?$_Tree@V?$_Tmap_traits@HV?$basic_string@DU?$char_traits@D@std@@V?$allocator@D@2@@std@@U?$less@H@2@V?$allocator@U?$pair@$$CBHV?$basic_string@DU?$char_traits@D@std@@V?$allocator@D@2@@std@@@std@@@2@$0A@@std@@@std@@QAE?AV?$_Tree_iterator@V?$_Tree_val@U?$_Tree_simple_types@U?$pair@$$CBHV?$basic_string@DU?$char_traits@D@std@@V?$allocator@D@2@@std@@@std@@@std@@@std@@@2@XZ 00471f90 f i databasedb_vs2013:database.obj
 0002:00049000       ?c_str@?$basic_string@DU?$char_traits@D@std@@V?$allocator@D@2@@std@@QBEPBDXZ 00472000 f i databasedb_vs2013:database.obj
 0002:00049050       ?clear@?$_Tree@V?$_Tmap_traits@HV?$basic_string@DU?$char_traits@D@std@@V?$allocator@D@2@@std@@U?$less@H@2@V?$allocator@U?$pair@$$CBHV?$basic_string@DU?$char_traits@D@std@@V?$allocator@D@2@@std@@@std@@@2@$0A@@std@@@std@@QAEXXZ 00472050 f i databasedb_vs2013:database.obj
 0002:00049110       ?compare@?$basic_string@DU?$char_traits@D@std@@V?$allocator@D@2@@std@@QBEHIIPBDI@Z 00472110 f i databasedb_vs2013:database.obj
 0002:00049280       ?compare@?$basic_string@DU?$char_traits@D@std@@V?$allocator@D@2@@std@@QBEHPBD@Z 00472280 f i databasedb_vs2013:database.obj
 0002:00049310       ?compare@?$char_traits@D@std@@SAHPBD0I@Z 00472310 f i databasedb_vs2013:database.obj
 0002:00049390       ?deallocate@?$_Wrap_alloc@V?$allocator@U?$_Tree_node@U?$pair@$$CBHV?$basic_string@DU?$char_traits@D@std@@V?$allocator@D@2@@std@@@std@@PAX@std@@@std@@@std@@QAEXPAU?$_Tree_node@U?$pair@$$CBHV?$basic_string@DU?$char_traits@D@std@@V?$allocator@D@2@@std@@@std@@PAX@2@I@Z 00472390 f i databasedb_vs2013:database.obj
 0002:000493f0       ?deallocate@?$allocator@U?$_Tree_node@U?$pair@$$CBHV?$basic_string@DU?$char_traits@D@std@@V?$allocator@D@2@@std@@@std@@PAX@std@@@std@@QAEXPAU?$_Tree_node@U?$pair@$$CBHV?$basic_string@DU?$char_traits@D@std@@V?$allocator@D@2@@std@@@std@@PAX@2@I@Z 004723f0 f i databasedb_vs2013:database.obj
 0002:00049450       ?end@?$_Tree@V?$_Tmap_traits@HV?$basic_string@DU?$char_traits@D@std@@V?$allocator@D@2@@std@@U?$less@H@2@V?$allocator@U?$pair@$$CBHV?$basic_string@DU?$char_traits@D@std@@V?$allocator@D@2@@std@@@std@@@2@$0A@@std@@@std@@QAE?AV?$_Tree_iterator@V?$_Tree_val@U?$_Tree_simple_types@U?$pair@$$CBHV?$basic_string@DU?$char_traits@D@std@@V?$allocator@D@2@@std@@@std@@@std@@@std@@@2@XZ 00472450 f i databasedb_vs2013:database.obj
 0002:000494c0       ?erase@?$_Tree@V?$_Tmap_traits@HV?$basic_string@DU?$char_traits@D@std@@V?$allocator@D@2@@std@@U?$less@H@2@V?$allocator@U?$pair@$$CBHV?$basic_string@DU?$char_traits@D@std@@V?$allocator@D@2@@std@@@std@@@2@$0A@@std@@@std@@QAE?AV?$_Tree_iterator@V?$_Tree_val@U?$_Tree_simple_types@U?$pair@$$CBHV?$basic_string@DU?$char_traits@D@std@@V?$allocator@D@2@@std@@@std@@@std@@@std@@@2@V?$_Tree_const_iterator@V?$_Tree_val@U?$_Tree_simple_types@U?$pair@$$CBHV?$basic_string@DU?$char_traits@D@std@@V?$allocator@D@2@@std@@@std@@@std@@@std@@@2@0@Z 004724c0 f i databasedb_vs2013:database.obj
 0002:000497e0       ?erase@?$_Tree@V?$_Tmap_traits@HV?$basic_string@DU?$char_traits@D@std@@V?$allocator@D@2@@std@@U?$less@H@2@V?$allocator@U?$pair@$$CBHV?$basic_string@DU?$char_traits@D@std@@V?$allocator@D@2@@std@@@std@@@2@$0A@@std@@@std@@QAE?AV?$_Tree_iterator@V?$_Tree_val@U?$_Tree_simple_types@U?$pair@$$CBHV?$basic_string@DU?$char_traits@D@std@@V?$allocator@D@2@@std@@@std@@@std@@@std@@@2@V?$_Tree_const_iterator@V?$_Tree_val@U?$_Tree_simple_types@U?$pair@$$CBHV?$basic_string@DU?$char_traits@D@std@@V?$allocator@D@2@@std@@@std@@@std@@@std@@@2@@Z 004727e0 f i databasedb_vs2013:database.obj
 0002:0004a260       ?find@?$_Tree@V?$_Tmap_traits@HV?$basic_string@DU?$char_traits@D@std@@V?$allocator@D@2@@std@@U?$less@H@2@V?$allocator@U?$pair@$$CBHV?$basic_string@DU?$char_traits@D@std@@V?$allocator@D@2@@std@@@std@@@2@$0A@@std@@@std@@QAE?AV?$_Tree_iterator@V?$_Tree_val@U?$_Tree_simple_types@U?$pair@$$CBHV?$basic_string@DU?$char_traits@D@std@@V?$allocator@D@2@@std@@@std@@@std@@@std@@@2@ABH@Z 00473260 f i databasedb_vs2013:database.obj
 0002:0004a570       ?length@?$basic_string@DU?$char_traits@D@std@@V?$allocator@D@2@@std@@QBEIXZ 00473570 f i databasedb_vs2013:database.obj
 0002:0004a5b0       ?lower_bound@?$_Tree@V?$_Tmap_traits@HV?$basic_string@DU?$char_traits@D@std@@V?$allocator@D@2@@std@@U?$less@H@2@V?$allocator@U?$pair@$$CBHV?$basic_string@DU?$char_traits@D@std@@V?$allocator@D@2@@std@@@std@@@2@$0A@@std@@@std@@QAE?AV?$_Tree_iterator@V?$_Tree_val@U?$_Tree_simple_types@U?$pair@$$CBHV?$basic_string@DU?$char_traits@D@std@@V?$allocator@D@2@@std@@@std@@@std@@@std@@@2@ABH@Z 004735b0 f i databasedb_vs2013:database.obj
 0002:0004a640       ?max_size@?$_Tree@V?$_Tmap_traits@HV?$basic_string@DU?$char_traits@D@std@@V?$allocator@D@2@@std@@U?$less@H@2@V?$allocator@U?$pair@$$CBHV?$basic_string@DU?$char_traits@D@std@@V?$allocator@D@2@@std@@@std@@@2@$0A@@std@@@std@@QBEIXZ 00473640 f i databasedb_vs2013:database.obj
 0002:0004a6a0       ?max_size@?$_Wrap_alloc@V?$allocator@U?$_Tree_node@U?$pair@$$CBHV?$basic_string@DU?$char_traits@D@std@@V?$allocator@D@2@@std@@@std@@PAX@std@@@std@@@std@@QBEIXZ 004736a0 f i databasedb_vs2013:database.obj
 0002:0004a700       ?max_size@?$allocator@U?$_Tree_node@U?$pair@$$CBHV?$basic_string@DU?$char_traits@D@std@@V?$allocator@D@2@@std@@@std@@PAX@std@@@std@@QBEIXZ 00473700 f i databasedb_vs2013:database.obj
 0002:0004a740       ?max_size@?$allocator_traits@V?$allocator@U?$_Tree_node@U?$pair@$$CBHV?$basic_string@DU?$char_traits@D@std@@V?$allocator@D@2@@std@@@std@@PAX@std@@@std@@@std@@SAIABV?$allocator@U?$_Tree_node@U?$pair@$$CBHV?$basic_string@DU?$char_traits@D@std@@V?$allocator@D@2@@std@@@std@@PAX@std@@@2@@Z 00473740 f i databasedb_vs2013:database.obj
 0002:0004a790       ?pointer_to@?$pointer_traits@PAU?$pair@$$CBHV?$basic_string@DU?$char_traits@D@std@@V?$allocator@D@2@@std@@@std@@@std@@SAPAU?$pair@$$CBHV?$basic_string@DU?$char_traits@D@std@@V?$allocator@D@2@@std@@@2@AAU32@@Z 00473790 f i databasedb_vs2013:database.obj
 0002:0004a7e0       ?pointer_to@?$pointer_traits@PBU?$pair@$$CBHV?$basic_string@DU?$char_traits@D@std@@V?$allocator@D@2@@std@@@std@@@std@@SAPBU?$pair@$$CBHV?$basic_string@DU?$char_traits@D@std@@V?$allocator@D@2@@std@@@2@ABU32@@Z 004737e0 f i databasedb_vs2013:database.obj
 0002:0004a830       ?size@?$_Tree@V?$_Tmap_traits@HV?$basic_string@DU?$char_traits@D@std@@V?$allocator@D@2@@std@@U?$less@H@2@V?$allocator@U?$pair@$$CBHV?$basic_string@DU?$char_traits@D@std@@V?$allocator@D@2@@std@@@std@@@2@$0A@@std@@@std@@QBEIXZ 00473830 f i databasedb_vs2013:database.obj
 0002:0004a870       ?strchr@@YAPADPADH@Z       00473870 f i databasedb_vs2013:database.obj
 0002:0004a8d0       ??0decodeBNCSString@@QAE@PBDD@Z 004738d0 f   decodeCaptionStringdb:decodeBNCSString.obj
 0002:0004a930       ??0decodeBNCSString@@QAE@ABV0@@Z 00473930 f   decodeCaptionStringdb:decodeBNCSString.obj
 0002:0004a9b0       ??1decodeBNCSString@@UAE@XZ 004739b0 f   decodeCaptionStringdb:decodeBNCSString.obj
 0002:0004aa70       ??_GdecodeBNCSString@@UAEPAXI@Z 00473a70 f i decodeCaptionStringdb:decodeBNCSString.obj
 0002:0004aa70       ??_EdecodeBNCSString@@UAEPAXI@Z 00473a70 f i decodeCaptionStringdb:decodeBNCSString.obj
 0002:0004aae0       ?split@decodeBNCSString@@AAEXPBD@Z 00473ae0 f i decodeCaptionStringdb:decodeBNCSString.obj
 0002:0004ae60       _BNCS32RxMessage           00473e60 f   bncsif32:BNCSIF32.dll
 0002:0004ae66       _BNCS32TxMessage           00473e66 f   bncsif32:BNCSIF32.dll
 0002:0004ae70       ??0cBncsVersion@@QAE@PBD@Z 00473e70 f   BncsVersionInfo:cBncsVersion.obj
 0002:0004b610       ??1cBncsVersion@@UAE@XZ    00474610 f   BncsVersionInfo:cBncsVersion.obj
 0002:0004b720       ??_EcBncsVersion@@UAEPAXI@Z 00474720 f i BncsVersionInfo:cBncsVersion.obj
 0002:0004b720       ??_GcBncsVersion@@UAEPAXI@Z 00474720 f i BncsVersionInfo:cBncsVersion.obj
 0002:0004b750       ?strpbrk@@YAPADPADPBD@Z    00474750 f i BncsVersionInfo:cBncsVersion.obj
 0002:0004b760       _BNCS32ReceiveMessage      00474760 f   bncswm32:BncsWM32.obj
 0002:0004b900       _BNCS32SendMessage         00474900 f   bncswm32:BncsWM32.obj
 0002:0004ba0a       _htonl@4                   00474a0a f   wsock32:WSOCK32.dll
 0002:0004ba10       _gethostbyname@4           00474a10 f   wsock32:WSOCK32.dll
 0002:0004ba16       ??1QString@@QAE@XZ         00474a16 f   qt-mt323:qt-mt323.dll
 0002:0004ba1c       ??0QSize@@QAE@HH@Z         00474a1c f   qt-mt323:qt-mt323.dll
 0002:0004ba22       ?expandedTo@QSize@@QBE?AV1@ABV1@@Z 00474a22 f   qt-mt323:qt-mt323.dll
 0002:0004ba28       ??0QColor@@QAE@HHH@Z       00474a28 f   qt-mt323:qt-mt323.dll
 0002:0004ba2e       ??0QPixmap@@QAE@QAPBD@Z    00474a2e f   qt-mt323:qt-mt323.dll
 0002:0004ba34       ??1QPixmap@@UAE@XZ         00474a34 f   qt-mt323:qt-mt323.dll
 0002:0004ba3a       ?connect@QObject@@SA_NPBV1@PBD01@Z 00474a3a f   qt-mt323:qt-mt323.dll
 0002:0004ba40       ??0QSizePolicy@@QAE@W4SizeType@0@0EE_N@Z 00474a40 f   qt-mt323:qt-mt323.dll
 0002:0004ba46       ?hasHeightForWidth@QSizePolicy@@QBE_NXZ 00474a46 f   qt-mt323:qt-mt323.dll
 0002:0004ba4c       ?setName@QWidget@@UAEXPBD@Z 00474a4c f   qt-mt323:qt-mt323.dll
 0002:0004ba52       ?setMinimumSize@QWidget@@QAEXABVQSize@@@Z 00474a52 f   qt-mt323:qt-mt323.dll
 0002:0004ba58       ?clearWState@QWidget@@IAEXI@Z 00474a58 f   qt-mt323:qt-mt323.dll
 0002:0004ba5e       ??0QDialog@@QAE@PAVQWidget@@PBD_NI@Z 00474a5e f   qt-mt323:qt-mt323.dll
 0002:0004ba64       ??1QDialog@@UAE@XZ         00474a64 f   qt-mt323:qt-mt323.dll
 0002:0004ba6a       ?resize@QDialog@@QAEXABVQSize@@@Z 00474a6a f   qt-mt323:qt-mt323.dll
 0002:0004ba70       ?minimumSizeHint@QDialog@@UBE?AVQSize@@XZ 00474a70 f   qt-mt323:qt-mt323.dll
 0002:0004ba76       ?setSizeGripEnabled@QDialog@@QAEX_N@Z 00474a76 f   qt-mt323:qt-mt323.dll
 0002:0004ba7c       ??0QPushButton@@QAE@PAVQWidget@@PBD@Z 00474a7c f   qt-mt323:qt-mt323.dll
 0002:0004ba82       ??1QPushButton@@UAE@XZ     00474a82 f   qt-mt323:qt-mt323.dll
 0002:0004ba88       ??0QFrame@@QAE@PAVQWidget@@PBDI@Z 00474a88 f   qt-mt323:qt-mt323.dll
 0002:0004ba8e       ?setFrameShape@QFrame@@QAEXW4Shape@1@@Z 00474a8e f   qt-mt323:qt-mt323.dll
 0002:0004ba94       ?setFrameShadow@QFrame@@QAEXW4Shadow@1@@Z 00474a94 f   qt-mt323:qt-mt323.dll
 0002:0004ba9a       ??1QFrame@@UAE@XZ          00474a9a f   qt-mt323:qt-mt323.dll
 0002:0004baa0       ??0QLabel@@QAE@PAVQWidget@@PBDI@Z 00474aa0 f   qt-mt323:qt-mt323.dll
 0002:0004baa6       ??1QLabel@@UAE@XZ          00474aa6 f   qt-mt323:qt-mt323.dll
 0002:0004baac       ?setScaledContents@QLabel@@QAEX_N@Z 00474aac f   qt-mt323:qt-mt323.dll
 0002:0004bab2       ??0QSpacerItem@@QAE@HHW4SizeType@QSizePolicy@@0@Z 00474ab2 f   qt-mt323:qt-mt323.dll
 0002:0004bab8       ??1QSpacerItem@@UAE@XZ     00474ab8 f   qt-mt323:qt-mt323.dll
 0002:0004babe       ?setResizeMode@QLayout@@QAEXW4ResizeMode@1@@Z 00474abe f   qt-mt323:qt-mt323.dll
 0002:0004bac4       ?addWidget@QBoxLayout@@QAEXPAVQWidget@@HH@Z 00474ac4 f   qt-mt323:qt-mt323.dll
 0002:0004baca       ?addLayout@QBoxLayout@@QAEXPAVQLayout@@H@Z 00474aca f   qt-mt323:qt-mt323.dll
 0002:0004bad0       ??0QHBoxLayout@@QAE@PAVQWidget@@HHPBD@Z 00474ad0 f   qt-mt323:qt-mt323.dll
 0002:0004bad6       ??1QHBoxLayout@@UAE@XZ     00474ad6 f   qt-mt323:qt-mt323.dll
 0002:0004badc       ??0QVBoxLayout@@QAE@PAVQWidget@@HHPBD@Z 00474adc f   qt-mt323:qt-mt323.dll
 0002:0004bae2       ??1QVBoxLayout@@UAE@XZ     00474ae2 f   qt-mt323:qt-mt323.dll
 0002:0004bae8       ?accept@QDialog@@MAEXXZ    00474ae8 f   qt-mt323:qt-mt323.dll
 0002:0004baee       ?addItem@QBoxLayout@@UAEXPAVQLayoutItem@@@Z 00474aee f   qt-mt323:qt-mt323.dll
 0002:0004baf4       ?adjustSize@QWidget@@UAEXXZ 00474af4 f   qt-mt323:qt-mt323.dll
 0002:0004bafa       ?checkConnectArgs@QObject@@MAE_NPBDPBV1@0@Z 00474afa f   qt-mt323:qt-mt323.dll
 0002:0004bb00       ?childEvent@QLayout@@MAEXPAVQChildEvent@@@Z 00474b00 f   qt-mt323:qt-mt323.dll
 0002:0004bb06       ?childEvent@QObject@@MAEXPAVQChildEvent@@@Z 00474b06 f   qt-mt323:qt-mt323.dll
 0002:0004bb0c       ?className@QFrame@@UBEPBDXZ 00474b0c f   qt-mt323:qt-mt323.dll
 0002:0004bb12       ?className@QHBoxLayout@@UBEPBDXZ 00474b12 f   qt-mt323:qt-mt323.dll
 0002:0004bb18       ?className@QLabel@@UBEPBDXZ 00474b18 f   qt-mt323:qt-mt323.dll
 0002:0004bb1e       ?className@QPushButton@@UBEPBDXZ 00474b1e f   qt-mt323:qt-mt323.dll
 0002:0004bb24       ?className@QVBoxLayout@@UBEPBDXZ 00474b24 f   qt-mt323:qt-mt323.dll
 0002:0004bb2a       ?close@QWidget@@UAE_N_N@Z  00474b2a f   qt-mt323:qt-mt323.dll
 0002:0004bb30       ?closeEvent@QDialog@@MAEXPAVQCloseEvent@@@Z 00474b30 f   qt-mt323:qt-mt323.dll
 0002:0004bb36       ?closeEvent@QWidget@@MAEXPAVQCloseEvent@@@Z 00474b36 f   qt-mt323:qt-mt323.dll
 0002:0004bb3c       ?cmd@QPaintDevice@@MAE_NHPAVQPainter@@PATQPDevCmdParam@@@Z 00474b3c f   qt-mt323:qt-mt323.dll
 0002:0004bb42       ?connectNotify@QObject@@MAEXPBD@Z 00474b42 f   qt-mt323:qt-mt323.dll
 0002:0004bb48       ?contextMenuEvent@QDialog@@MAEXPAVQContextMenuEvent@@@Z 00474b48 f   qt-mt323:qt-mt323.dll
 0002:0004bb4e       ?contextMenuEvent@QWidget@@MAEXPAVQContextMenuEvent@@@Z 00474b4e f   qt-mt323:qt-mt323.dll
 0002:0004bb54       ?create@QWidget@@MAEXPAUHWND__@@_N1@Z 00474b54 f   qt-mt323:qt-mt323.dll
 0002:0004bb5a       ?customEvent@QObject@@MAEXPAVQCustomEvent@@@Z 00474b5a f   qt-mt323:qt-mt323.dll
 0002:0004bb60       ?customWhatsThis@QWidget@@UBE_NXZ 00474b60 f   qt-mt323:qt-mt323.dll
 0002:0004bb66       ?destroy@QWidget@@MAEX_N0@Z 00474b66 f   qt-mt323:qt-mt323.dll
 0002:0004bb6c       ?disconnectNotify@QObject@@MAEXPBD@Z 00474b6c f   qt-mt323:qt-mt323.dll
 0002:0004bb72       ?done@QDialog@@MAEXH@Z     00474b72 f   qt-mt323:qt-mt323.dll
 0002:0004bb78       ?dragEnterEvent@QWidget@@MAEXPAVQDragEnterEvent@@@Z 00474b78 f   qt-mt323:qt-mt323.dll
 0002:0004bb7e       ?dragLeaveEvent@QWidget@@MAEXPAVQDragLeaveEvent@@@Z 00474b7e f   qt-mt323:qt-mt323.dll
 0002:0004bb84       ?dragMoveEvent@QWidget@@MAEXPAVQDragMoveEvent@@@Z 00474b84 f   qt-mt323:qt-mt323.dll
 0002:0004bb8a       ?drawButton@QPushButton@@MAEXPAVQPainter@@@Z 00474b8a f   qt-mt323:qt-mt323.dll
 0002:0004bb90       ?drawButtonLabel@QPushButton@@MAEXPAVQPainter@@@Z 00474b90 f   qt-mt323:qt-mt323.dll
 0002:0004bb96       ?drawContents@QFrame@@MAEXPAVQPainter@@@Z 00474b96 f   qt-mt323:qt-mt323.dll
 0002:0004bb9c       ?drawContents@QLabel@@MAEXPAVQPainter@@@Z 00474b9c f   qt-mt323:qt-mt323.dll
 0002:0004bba2       ?drawFrame@QFrame@@MAEXPAVQPainter@@@Z 00474ba2 f   qt-mt323:qt-mt323.dll
 0002:0004bba8       ?dropEvent@QWidget@@MAEXPAVQDropEvent@@@Z 00474ba8 f   qt-mt323:qt-mt323.dll
 0002:0004bbae       ?enabledChange@QButton@@MAEX_N@Z 00474bae f   qt-mt323:qt-mt323.dll
 0002:0004bbb4       ?enabledChange@QWidget@@MAEX_N@Z 00474bb4 f   qt-mt323:qt-mt323.dll
 0002:0004bbba       ?enterEvent@QWidget@@MAEXPAVQEvent@@@Z 00474bba f   qt-mt323:qt-mt323.dll
 0002:0004bbc0       ?event@QObject@@UAE_NPAVQEvent@@@Z 00474bc0 f   qt-mt323:qt-mt323.dll
 0002:0004bbc6       ?event@QWidget@@MAE_NPAVQEvent@@@Z 00474bc6 f   qt-mt323:qt-mt323.dll
 0002:0004bbcc       ?eventFilter@QDialog@@MAE_NPAVQObject@@PAVQEvent@@@Z 00474bcc f   qt-mt323:qt-mt323.dll
 0002:0004bbd2       ?eventFilter@QLayout@@MAE_NPAVQObject@@PAVQEvent@@@Z 00474bd2 f   qt-mt323:qt-mt323.dll
 0002:0004bbd8       ?eventFilter@QObject@@UAE_NPAV1@PAVQEvent@@@Z 00474bd8 f   qt-mt323:qt-mt323.dll
 0002:0004bbde       ?expanding@QBoxLayout@@UBE?AW4ExpandData@QSizePolicy@@XZ 00474bde f   qt-mt323:qt-mt323.dll
 0002:0004bbe4       ?expanding@QSpacerItem@@UBE?AW4ExpandData@QSizePolicy@@XZ 00474be4 f   qt-mt323:qt-mt323.dll
 0002:0004bbea       ?focusInEvent@QPushButton@@MAEXPAVQFocusEvent@@@Z 00474bea f   qt-mt323:qt-mt323.dll
 0002:0004bbf0       ?focusInEvent@QWidget@@MAEXPAVQFocusEvent@@@Z 00474bf0 f   qt-mt323:qt-mt323.dll
 0002:0004bbf6       ?focusNextPrevChild@QWidget@@MAE_N_N@Z 00474bf6 f   qt-mt323:qt-mt323.dll
 0002:0004bbfc       ?focusOutEvent@QPushButton@@MAEXPAVQFocusEvent@@@Z 00474bfc f   qt-mt323:qt-mt323.dll
 0002:0004bc02       ?focusOutEvent@QWidget@@MAEXPAVQFocusEvent@@@Z 00474c02 f   qt-mt323:qt-mt323.dll
 0002:0004bc08       ?fontChange@QLabel@@MAEXABVQFont@@@Z 00474c08 f   qt-mt323:qt-mt323.dll
 0002:0004bc0e       ?fontChange@QWidget@@MAEXABVQFont@@@Z 00474c0e f   qt-mt323:qt-mt323.dll
 0002:0004bc14       ?fontInf@QPaintDevice@@MBEHPAVQFont@@H@Z 00474c14 f   qt-mt323:qt-mt323.dll
 0002:0004bc1a       ?fontMet@QPaintDevice@@MBEHPAVQFont@@HPBDH@Z 00474c1a f   qt-mt323:qt-mt323.dll
 0002:0004bc20       ?frameChanged@QFrame@@MAEXXZ 00474c20 f   qt-mt323:qt-mt323.dll
 0002:0004bc26       ?geometry@QLayout@@UBE?AVQRect@@XZ 00474c26 f   qt-mt323:qt-mt323.dll
 0002:0004bc2c       ?geometry@QSpacerItem@@UBE?AVQRect@@XZ 00474c2c f   qt-mt323:qt-mt323.dll
 0002:0004bc32       ?handle@QPaintDevice@@UBEPAUHDC__@@XZ 00474c32 f   qt-mt323:qt-mt323.dll
 0002:0004bc38       ?hasHeightForWidth@QBoxLayout@@UBE_NXZ 00474c38 f   qt-mt323:qt-mt323.dll
 0002:0004bc3e       ?hasHeightForWidth@QLayoutItem@@UBE_NXZ 00474c3e f   qt-mt323:qt-mt323.dll
 0002:0004bc44       ?heightForWidth@QBoxLayout@@UBEHH@Z 00474c44 f   qt-mt323:qt-mt323.dll
 0002:0004bc4a       ?heightForWidth@QLabel@@UBEHH@Z 00474c4a f   qt-mt323:qt-mt323.dll
 0002:0004bc50       ?heightForWidth@QLayoutItem@@UBEHH@Z 00474c50 f   qt-mt323:qt-mt323.dll
 0002:0004bc56       ?heightForWidth@QWidget@@UBEHH@Z 00474c56 f   qt-mt323:qt-mt323.dll
 0002:0004bc5c       ?hide@QDialog@@UAEXXZ      00474c5c f   qt-mt323:qt-mt323.dll
 0002:0004bc62       ?hide@QWidget@@UAEXXZ      00474c62 f   qt-mt323:qt-mt323.dll
 0002:0004bc68       ?hideEvent@QWidget@@MAEXPAVQHideEvent@@@Z 00474c68 f   qt-mt323:qt-mt323.dll
 0002:0004bc6e       ?hitButton@QButton@@MBE_NABVQPoint@@@Z 00474c6e f   qt-mt323:qt-mt323.dll
 0002:0004bc74       ?imComposeEvent@QWidget@@MAEXPAVQIMEvent@@@Z 00474c74 f   qt-mt323:qt-mt323.dll
 0002:0004bc7a       ?imEndEvent@QWidget@@MAEXPAVQIMEvent@@@Z 00474c7a f   qt-mt323:qt-mt323.dll
 0002:0004bc80       ?imStartEvent@QWidget@@MAEXPAVQIMEvent@@@Z 00474c80 f   qt-mt323:qt-mt323.dll
 0002:0004bc86       ?insertChild@QObject@@UAEXPAV1@@Z 00474c86 f   qt-mt323:qt-mt323.dll
 0002:0004bc8c       ?invalidate@QBoxLayout@@UAEXXZ 00474c8c f   qt-mt323:qt-mt323.dll
 0002:0004bc92       ?invalidate@QLayoutItem@@UAEXXZ 00474c92 f   qt-mt323:qt-mt323.dll
 0002:0004bc98       ?isEmpty@QLayout@@UBE_NXZ  00474c98 f   qt-mt323:qt-mt323.dll
 0002:0004bc9e       ?isEmpty@QSpacerItem@@UBE_NXZ 00474c9e f   qt-mt323:qt-mt323.dll
 0002:0004bca4       ?iterator@QBoxLayout@@UAE?AVQLayoutIterator@@XZ 00474ca4 f   qt-mt323:qt-mt323.dll
 0002:0004bcaa       ?iterator@QLayoutItem@@UAE?AVQLayoutIterator@@XZ 00474caa f   qt-mt323:qt-mt323.dll
 0002:0004bcb0       ?keyPressEvent@QButton@@MAEXPAVQKeyEvent@@@Z 00474cb0 f   qt-mt323:qt-mt323.dll
 0002:0004bcb6       ?keyPressEvent@QDialog@@MAEXPAVQKeyEvent@@@Z 00474cb6 f   qt-mt323:qt-mt323.dll
 0002:0004bcbc       ?keyPressEvent@QWidget@@MAEXPAVQKeyEvent@@@Z 00474cbc f   qt-mt323:qt-mt323.dll
 0002:0004bcc2       ?keyReleaseEvent@QButton@@MAEXPAVQKeyEvent@@@Z 00474cc2 f   qt-mt323:qt-mt323.dll
 0002:0004bcc8       ?keyReleaseEvent@QWidget@@MAEXPAVQKeyEvent@@@Z 00474cc8 f   qt-mt323:qt-mt323.dll
 0002:0004bcce       ?layout@QLayout@@UAEPAV1@XZ 00474cce f   qt-mt323:qt-mt323.dll
 0002:0004bcd4       ?layout@QLayoutItem@@UAEPAVQLayout@@XZ 00474cd4 f   qt-mt323:qt-mt323.dll
 0002:0004bcda       ?leaveEvent@QWidget@@MAEXPAVQEvent@@@Z 00474cda f   qt-mt323:qt-mt323.dll
 0002:0004bce0       ?maximumSize@QBoxLayout@@UBE?AVQSize@@XZ 00474ce0 f   qt-mt323:qt-mt323.dll
 0002:0004bce6       ?maximumSize@QSpacerItem@@UBE?AVQSize@@XZ 00474ce6 f   qt-mt323:qt-mt323.dll
 0002:0004bcec       ?metaObject@QFrame@@UBEPAVQMetaObject@@XZ 00474cec f   qt-mt323:qt-mt323.dll
 0002:0004bcf2       ?metaObject@QHBoxLayout@@UBEPAVQMetaObject@@XZ 00474cf2 f   qt-mt323:qt-mt323.dll
 0002:0004bcf8       ?metaObject@QLabel@@UBEPAVQMetaObject@@XZ 00474cf8 f   qt-mt323:qt-mt323.dll
 0002:0004bcfe       ?metaObject@QPushButton@@UBEPAVQMetaObject@@XZ 00474cfe f   qt-mt323:qt-mt323.dll
 0002:0004bd04       ?metaObject@QVBoxLayout@@UBEPAVQMetaObject@@XZ 00474d04 f   qt-mt323:qt-mt323.dll
 0002:0004bd0a       ?metric@QWidget@@MBEHH@Z   00474d0a f   qt-mt323:qt-mt323.dll
 0002:0004bd10       ?minimumSize@QBoxLayout@@UBE?AVQSize@@XZ 00474d10 f   qt-mt323:qt-mt323.dll
 0002:0004bd16       ?minimumSize@QSpacerItem@@UBE?AVQSize@@XZ 00474d16 f   qt-mt323:qt-mt323.dll
 0002:0004bd1c       ?minimumSizeHint@QLabel@@UBE?AVQSize@@XZ 00474d1c f   qt-mt323:qt-mt323.dll
 0002:0004bd22       ?minimumSizeHint@QWidget@@UBE?AVQSize@@XZ 00474d22 f   qt-mt323:qt-mt323.dll
 0002:0004bd28       ?mouseDoubleClickEvent@QWidget@@MAEXPAVQMouseEvent@@@Z 00474d28 f   qt-mt323:qt-mt323.dll
 0002:0004bd2e       ?mouseMoveEvent@QButton@@MAEXPAVQMouseEvent@@@Z 00474d2e f   qt-mt323:qt-mt323.dll
 0002:0004bd34       ?mouseMoveEvent@QWidget@@MAEXPAVQMouseEvent@@@Z 00474d34 f   qt-mt323:qt-mt323.dll
 0002:0004bd3a       ?mousePressEvent@QButton@@MAEXPAVQMouseEvent@@@Z 00474d3a f   qt-mt323:qt-mt323.dll
 0002:0004bd40       ?mousePressEvent@QWidget@@MAEXPAVQMouseEvent@@@Z 00474d40 f   qt-mt323:qt-mt323.dll
 0002:0004bd46       ?mouseReleaseEvent@QButton@@MAEXPAVQMouseEvent@@@Z 00474d46 f   qt-mt323:qt-mt323.dll
 0002:0004bd4c       ?mouseReleaseEvent@QWidget@@MAEXPAVQMouseEvent@@@Z 00474d4c f   qt-mt323:qt-mt323.dll
 0002:0004bd52       ?move@QDialog@@UAEXHH@Z    00474d52 f   qt-mt323:qt-mt323.dll
 0002:0004bd58       ?move@QPushButton@@UAEXHH@Z 00474d58 f   qt-mt323:qt-mt323.dll
 0002:0004bd5e       ?move@QWidget@@UAEXHH@Z    00474d5e f   qt-mt323:qt-mt323.dll
 0002:0004bd64       ?moveEvent@QWidget@@MAEXPAVQMoveEvent@@@Z 00474d64 f   qt-mt323:qt-mt323.dll
 0002:0004bd6a       ?paintEvent@QButton@@MAEXPAVQPaintEvent@@@Z 00474d6a f   qt-mt323:qt-mt323.dll
 0002:0004bd70       ?paintEvent@QFrame@@MAEXPAVQPaintEvent@@@Z 00474d70 f   qt-mt323:qt-mt323.dll
 0002:0004bd76       ?paintEvent@QWidget@@MAEXPAVQPaintEvent@@@Z 00474d76 f   qt-mt323:qt-mt323.dll
 0002:0004bd7c       ?paletteChange@QWidget@@MAEXABVQPalette@@@Z 00474d7c f   qt-mt323:qt-mt323.dll
 0002:0004bd82       ?polish@QWidget@@UAEXXZ    00474d82 f   qt-mt323:qt-mt323.dll
 0002:0004bd88       ?property@QObject@@UBE?AVQVariant@@PBD@Z 00474d88 f   qt-mt323:qt-mt323.dll
 0002:0004bd8e       ?qt_cast@QFrame@@UAEPAXPBD@Z 00474d8e f   qt-mt323:qt-mt323.dll
 0002:0004bd94       ?qt_cast@QHBoxLayout@@UAEPAXPBD@Z 00474d94 f   qt-mt323:qt-mt323.dll
 0002:0004bd9a       ?qt_cast@QLabel@@UAEPAXPBD@Z 00474d9a f   qt-mt323:qt-mt323.dll
 0002:0004bda0       ?qt_cast@QPushButton@@UAEPAXPBD@Z 00474da0 f   qt-mt323:qt-mt323.dll
 0002:0004bda6       ?qt_cast@QVBoxLayout@@UAEPAXPBD@Z 00474da6 f   qt-mt323:qt-mt323.dll
 0002:0004bdac       ?qt_emit@QFrame@@UAE_NHPAUQUObject@@@Z 00474dac f   qt-mt323:qt-mt323.dll
 0002:0004bdb2       ?qt_emit@QHBoxLayout@@UAE_NHPAUQUObject@@@Z 00474db2 f   qt-mt323:qt-mt323.dll
 0002:0004bdb8       ?qt_emit@QLabel@@UAE_NHPAUQUObject@@@Z 00474db8 f   qt-mt323:qt-mt323.dll
 0002:0004bdbe       ?qt_emit@QPushButton@@UAE_NHPAUQUObject@@@Z 00474dbe f   qt-mt323:qt-mt323.dll
 0002:0004bdc4       ?qt_emit@QVBoxLayout@@UAE_NHPAUQUObject@@@Z 00474dc4 f   qt-mt323:qt-mt323.dll
 0002:0004bdca       ?qt_invoke@QFrame@@UAE_NHPAUQUObject@@@Z 00474dca f   qt-mt323:qt-mt323.dll
 0002:0004bdd0       ?qt_invoke@QHBoxLayout@@UAE_NHPAUQUObject@@@Z 00474dd0 f   qt-mt323:qt-mt323.dll
 0002:0004bdd6       ?qt_invoke@QLabel@@UAE_NHPAUQUObject@@@Z 00474dd6 f   qt-mt323:qt-mt323.dll
 0002:0004bddc       ?qt_invoke@QPushButton@@UAE_NHPAUQUObject@@@Z 00474ddc f   qt-mt323:qt-mt323.dll
 0002:0004bde2       ?qt_invoke@QVBoxLayout@@UAE_NHPAUQUObject@@@Z 00474de2 f   qt-mt323:qt-mt323.dll
 0002:0004bde8       ?qt_property@QFrame@@UAE_NHHPAVQVariant@@@Z 00474de8 f   qt-mt323:qt-mt323.dll
 0002:0004bdee       ?qt_property@QHBoxLayout@@UAE_NHHPAVQVariant@@@Z 00474dee f   qt-mt323:qt-mt323.dll
 0002:0004bdf4       ?qt_property@QLabel@@UAE_NHHPAVQVariant@@@Z 00474df4 f   qt-mt323:qt-mt323.dll
 0002:0004bdfa       ?qt_property@QPushButton@@UAE_NHHPAVQVariant@@@Z 00474dfa f   qt-mt323:qt-mt323.dll
 0002:0004be00       ?qt_property@QVBoxLayout@@UAE_NHHPAVQVariant@@@Z 00474e00 f   qt-mt323:qt-mt323.dll
 0002:0004be06       ?reject@QDialog@@MAEXXZ    00474e06 f   qt-mt323:qt-mt323.dll
 0002:0004be0c       ?removeChild@QObject@@UAEXPAV1@@Z 00474e0c f   qt-mt323:qt-mt323.dll
 0002:0004be12       ?reparent@QWidget@@UAEXPAV1@IABVQPoint@@_N@Z 00474e12 f   qt-mt323:qt-mt323.dll
 0002:0004be18       ?resize@QDialog@@UAEXHH@Z  00474e18 f   qt-mt323:qt-mt323.dll
 0002:0004be1e       ?resize@QPushButton@@UAEXHH@Z 00474e1e f   qt-mt323:qt-mt323.dll
 0002:0004be24       ?resize@QWidget@@UAEXHH@Z  00474e24 f   qt-mt323:qt-mt323.dll
 0002:0004be2a       ?resizeEvent@QDialog@@MAEXPAVQResizeEvent@@@Z 00474e2a f   qt-mt323:qt-mt323.dll
 0002:0004be30       ?resizeEvent@QFrame@@MAEXPAVQResizeEvent@@@Z 00474e30 f   qt-mt323:qt-mt323.dll
 0002:0004be36       ?resizeEvent@QLabel@@MAEXPAVQResizeEvent@@@Z 00474e36 f   qt-mt323:qt-mt323.dll
 0002:0004be3c       ?resizeEvent@QPushButton@@MAEXPAVQResizeEvent@@@Z 00474e3c f   qt-mt323:qt-mt323.dll
 0002:0004be42       ?resolution@QPaintDevice@@UBEHXZ 00474e42 f   qt-mt323:qt-mt323.dll
 0002:0004be48       ?setAccel@QButton@@UAEXABVQKeySequence@@@Z 00474e48 f   qt-mt323:qt-mt323.dll
 0002:0004be4e       ?setAcceptDrops@QWidget@@UAEX_N@Z 00474e4e f   qt-mt323:qt-mt323.dll
 0002:0004be54       ?setActiveWindow@QWidget@@UAEXXZ 00474e54 f   qt-mt323:qt-mt323.dll
 0002:0004be5a       ?setAlignment@QLabel@@UAEXH@Z 00474e5a f   qt-mt323:qt-mt323.dll
 0002:0004be60       ?setAlignment@QLayoutItem@@UAEXH@Z 00474e60 f   qt-mt323:qt-mt323.dll
 0002:0004be66       ?setAutoAdd@QLayout@@UAEX_N@Z 00474e66 f   qt-mt323:qt-mt323.dll
 0002:0004be6c       ?setAutoDefault@QPushButton@@UAEX_N@Z 00474e6c f   qt-mt323:qt-mt323.dll
 0002:0004be72       ?setAutoMask@QWidget@@UAEX_N@Z 00474e72 f   qt-mt323:qt-mt323.dll
 0002:0004be78       ?setAutoRepeat@QButton@@UAEX_N@Z 00474e78 f   qt-mt323:qt-mt323.dll
 0002:0004be7e       ?setAutoResize@QLabel@@UAEX_N@Z 00474e7e f   qt-mt323:qt-mt323.dll
 0002:0004be84       ?setBackgroundColor@QWidget@@UAEXABVQColor@@@Z 00474e84 f   qt-mt323:qt-mt323.dll
 0002:0004be8a       ?setBackgroundMode@QWidget@@UAEXW4BackgroundMode@Qt@@@Z 00474e8a f   qt-mt323:qt-mt323.dll
 0002:0004be90       ?setBackgroundOrigin@QWidget@@UAEXW4BackgroundOrigin@1@@Z 00474e90 f   qt-mt323:qt-mt323.dll
 0002:0004be96       ?setBackgroundPixmap@QWidget@@UAEXABVQPixmap@@@Z 00474e96 f   qt-mt323:qt-mt323.dll
 0002:0004be9c       ?setBuddy@QLabel@@UAEXPAVQWidget@@@Z 00474e9c f   qt-mt323:qt-mt323.dll
 0002:0004bea2       ?setCaption@QWidget@@UAEXABVQString@@@Z 00474ea2 f   qt-mt323:qt-mt323.dll
 0002:0004bea8       ?setCursor@QWidget@@UAEXABVQCursor@@@Z 00474ea8 f   qt-mt323:qt-mt323.dll
 0002:0004beae       ?setDefault@QPushButton@@UAEX_N@Z 00474eae f   qt-mt323:qt-mt323.dll
 0002:0004beb4       ?setDown@QButton@@UAEX_N@Z 00474eb4 f   qt-mt323:qt-mt323.dll
 0002:0004beba       ?setEnabled@QWidget@@UAEX_N@Z 00474eba f   qt-mt323:qt-mt323.dll
 0002:0004bec0       ?setEraseColor@QWidget@@UAEXABVQColor@@@Z 00474ec0 f   qt-mt323:qt-mt323.dll
 0002:0004bec6       ?setErasePixmap@QWidget@@UAEXABVQPixmap@@@Z 00474ec6 f   qt-mt323:qt-mt323.dll
 0002:0004becc       ?setFocus@QWidget@@UAEXXZ  00474ecc f   qt-mt323:qt-mt323.dll
 0002:0004bed2       ?setFocusPolicy@QWidget@@UAEXW4FocusPolicy@1@@Z 00474ed2 f   qt-mt323:qt-mt323.dll
 0002:0004bed8       ?setFocusProxy@QWidget@@UAEXPAV1@@Z 00474ed8 f   qt-mt323:qt-mt323.dll
 0002:0004bede       ?setFont@QLabel@@UAEXABVQFont@@@Z 00474ede f   qt-mt323:qt-mt323.dll
 0002:0004bee4       ?setFont@QWidget@@UAEXABVQFont@@@Z 00474ee4 f   qt-mt323:qt-mt323.dll
 0002:0004beea       ?setFrameRect@QFrame@@UAEXABVQRect@@@Z 00474eea f   qt-mt323:qt-mt323.dll
 0002:0004bef0       ?setFrameStyle@QFrame@@UAEXH@Z 00474ef0 f   qt-mt323:qt-mt323.dll
 0002:0004bef6       ?setGeometry@QBoxLayout@@UAEXABVQRect@@@Z 00474ef6 f   qt-mt323:qt-mt323.dll
 0002:0004befc       ?setGeometry@QDialog@@UAEXABVQRect@@@Z 00474efc f   qt-mt323:qt-mt323.dll
 0002:0004bf02       ?setGeometry@QDialog@@UAEXHHHH@Z 00474f02 f   qt-mt323:qt-mt323.dll
 0002:0004bf08       ?setGeometry@QPushButton@@UAEXABVQRect@@@Z 00474f08 f   qt-mt323:qt-mt323.dll
 0002:0004bf0e       ?setGeometry@QPushButton@@UAEXHHHH@Z 00474f0e f   qt-mt323:qt-mt323.dll
 0002:0004bf14       ?setGeometry@QSpacerItem@@UAEXABVQRect@@@Z 00474f14 f   qt-mt323:qt-mt323.dll
 0002:0004bf1a       ?setGeometry@QWidget@@UAEXABVQRect@@@Z 00474f1a f   qt-mt323:qt-mt323.dll
 0002:0004bf20       ?setGeometry@QWidget@@UAEXHHHH@Z 00474f20 f   qt-mt323:qt-mt323.dll
 0002:0004bf26       ?setGroup@QButton@@EAEXPAVQButtonGroup@@@Z 00474f26 f   qt-mt323:qt-mt323.dll
 0002:0004bf2c       ?setIcon@QWidget@@UAEXABVQPixmap@@@Z 00474f2c f   qt-mt323:qt-mt323.dll
 0002:0004bf32       ?setIconText@QWidget@@UAEXABVQString@@@Z 00474f32 f   qt-mt323:qt-mt323.dll
 0002:0004bf38       ?setIsMenuButton@QPushButton@@UAEX_N@Z 00474f38 f   qt-mt323:qt-mt323.dll
 0002:0004bf3e       ?setKeyCompression@QWidget@@MAEX_N@Z 00474f3e f   qt-mt323:qt-mt323.dll
 0002:0004bf44       ?setLineWidth@QFrame@@UAEXH@Z 00474f44 f   qt-mt323:qt-mt323.dll
 0002:0004bf4a       ?setMargin@QFrame@@UAEXH@Z 00474f4a f   qt-mt323:qt-mt323.dll
 0002:0004bf50       ?setMargin@QLayout@@UAEXH@Z 00474f50 f   qt-mt323:qt-mt323.dll
 0002:0004bf56       ?setMask@QWidget@@UAEXABVQBitmap@@@Z 00474f56 f   qt-mt323:qt-mt323.dll
 0002:0004bf5c       ?setMask@QWidget@@UAEXABVQRegion@@@Z 00474f5c f   qt-mt323:qt-mt323.dll
 0002:0004bf62       ?setMaximumSize@QWidget@@UAEXHH@Z 00474f62 f   qt-mt323:qt-mt323.dll
 0002:0004bf68       ?setMenuBar@QLayout@@UAEXPAVQMenuBar@@@Z 00474f68 f   qt-mt323:qt-mt323.dll
 0002:0004bf6e       ?setMicroFocusHint@QWidget@@MAEXHHHH_NPAVQFont@@@Z 00474f6e f   qt-mt323:qt-mt323.dll
 0002:0004bf74       ?setMidLineWidth@QFrame@@UAEXH@Z 00474f74 f   qt-mt323:qt-mt323.dll
 0002:0004bf7a       ?setMinimumSize@QWidget@@UAEXHH@Z 00474f7a f   qt-mt323:qt-mt323.dll
 0002:0004bf80       ?setMouseTracking@QWidget@@UAEX_N@Z 00474f80 f   qt-mt323:qt-mt323.dll
 0002:0004bf86       ?setMovie@QLabel@@UAEXABVQMovie@@@Z 00474f86 f   qt-mt323:qt-mt323.dll
 0002:0004bf8c       ?setName@QObject@@UAEXPBD@Z 00474f8c f   qt-mt323:qt-mt323.dll
 0002:0004bf92       ?setNum@QLabel@@UAEXH@Z    00474f92 f   qt-mt323:qt-mt323.dll
 0002:0004bf98       ?setNum@QLabel@@UAEXN@Z    00474f98 f   qt-mt323:qt-mt323.dll
 0002:0004bf9e       ?setOn@QPushButton@@UAEX_N@Z 00474f9e f   qt-mt323:qt-mt323.dll
 0002:0004bfa4       ?setPalette@QWidget@@UAEXABVQPalette@@@Z 00474fa4 f   qt-mt323:qt-mt323.dll
 0002:0004bfaa       ?setPaletteBackgroundColor@QWidget@@UAEXABVQColor@@@Z 00474faa f   qt-mt323:qt-mt323.dll
 0002:0004bfb0       ?setPaletteBackgroundPixmap@QWidget@@UAEXABVQPixmap@@@Z 00474fb0 f   qt-mt323:qt-mt323.dll
 0002:0004bfb6       ?setPicture@QLabel@@UAEXABVQPicture@@@Z 00474fb6 f   qt-mt323:qt-mt323.dll
 0002:0004bfbc       ?setPixmap@QButton@@UAEXABVQPixmap@@@Z 00474fbc f   qt-mt323:qt-mt323.dll
 0002:0004bfc2       ?setPixmap@QLabel@@UAEXABVQPixmap@@@Z 00474fc2 f   qt-mt323:qt-mt323.dll
 0002:0004bfc8       ?setProperty@QObject@@UAE_NPBDABVQVariant@@@Z 00474fc8 f   qt-mt323:qt-mt323.dll
 0002:0004bfce       ?setResolution@QPaintDevice@@UAEXH@Z 00474fce f   qt-mt323:qt-mt323.dll
 0002:0004bfd4       ?setSizeIncrement@QWidget@@UAEXHH@Z 00474fd4 f   qt-mt323:qt-mt323.dll
 0002:0004bfda       ?setSizePolicy@QWidget@@UAEXVQSizePolicy@@@Z 00474fda f   qt-mt323:qt-mt323.dll
 0002:0004bfe0       ?setSpacing@QLayout@@UAEXH@Z 00474fe0 f   qt-mt323:qt-mt323.dll
 0002:0004bfe6       ?setState@QButton@@MAEXW4ToggleState@1@@Z 00474fe6 f   qt-mt323:qt-mt323.dll
 0002:0004bfec       ?setText@QButton@@UAEXABVQString@@@Z 00474fec f   qt-mt323:qt-mt323.dll
 0002:0004bff2       ?setText@QLabel@@UAEXABVQString@@@Z 00474ff2 f   qt-mt323:qt-mt323.dll
 0002:0004bff8       ?setToggleType@QButton@@MAEXW4ToggleType@1@@Z 00474ff8 f   qt-mt323:qt-mt323.dll
 0002:0004bffe       ?setUpdatesEnabled@QWidget@@UAEX_N@Z 00474ffe f   qt-mt323:qt-mt323.dll
 0002:0004c004       ?setWFlags@QWidget@@MAEXI@Z 00475004 f   qt-mt323:qt-mt323.dll
 0002:0004c00a       ?setWState@QWidget@@MAEXI@Z 0047500a f   qt-mt323:qt-mt323.dll
 0002:0004c010       ?show@QDialog@@UAEXXZ      00475010 f   qt-mt323:qt-mt323.dll
 0002:0004c016       ?show@QWidget@@UAEXXZ      00475016 f   qt-mt323:qt-mt323.dll
 0002:0004c01c       ?showEvent@QWidget@@MAEXPAVQShowEvent@@@Z 0047501c f   qt-mt323:qt-mt323.dll
 0002:0004c022       ?showMaximized@QWidget@@UAEXXZ 00475022 f   qt-mt323:qt-mt323.dll
 0002:0004c028       ?showMinimized@QWidget@@UAEXXZ 00475028 f   qt-mt323:qt-mt323.dll
 0002:0004c02e       ?showNormal@QWidget@@UAEXXZ 0047502e f   qt-mt323:qt-mt323.dll
 0002:0004c034       ?sizeHint@QBoxLayout@@UBE?AVQSize@@XZ 00475034 f   qt-mt323:qt-mt323.dll
 0002:0004c03a       ?sizeHint@QDialog@@UBE?AVQSize@@XZ 0047503a f   qt-mt323:qt-mt323.dll
 0002:0004c040       ?sizeHint@QFrame@@UBE?AVQSize@@XZ 00475040 f   qt-mt323:qt-mt323.dll
 0002:0004c046       ?sizeHint@QLabel@@UBE?AVQSize@@XZ 00475046 f   qt-mt323:qt-mt323.dll
 0002:0004c04c       ?sizeHint@QPushButton@@UBE?AVQSize@@XZ 0047504c f   qt-mt323:qt-mt323.dll
 0002:0004c052       ?sizeHint@QSpacerItem@@UBE?AVQSize@@XZ 00475052 f   qt-mt323:qt-mt323.dll
 0002:0004c058       ?sizePolicy@QWidget@@UBE?AVQSizePolicy@@XZ 00475058 f   qt-mt323:qt-mt323.dll
 0002:0004c05e       ?spacerItem@QLayoutItem@@UAEPAVQSpacerItem@@XZ 0047505e f   qt-mt323:qt-mt323.dll
 0002:0004c064       ?spacerItem@QSpacerItem@@UAEPAV1@XZ 00475064 f   qt-mt323:qt-mt323.dll
 0002:0004c06a       ?styleChange@QFrame@@MAEXAAVQStyle@@@Z 0047506a f   qt-mt323:qt-mt323.dll
 0002:0004c070       ?styleChange@QWidget@@MAEXAAVQStyle@@@Z 00475070 f   qt-mt323:qt-mt323.dll
 0002:0004c076       ?tabletEvent@QWidget@@MAEXPAVQTabletEvent@@@Z 00475076 f   qt-mt323:qt-mt323.dll
 0002:0004c07c       ?timerEvent@QObject@@MAEXPAVQTimerEvent@@@Z 0047507c f   qt-mt323:qt-mt323.dll
 0002:0004c082       ?unsetCursor@QWidget@@UAEXXZ 00475082 f   qt-mt323:qt-mt323.dll
 0002:0004c088       ?updateMask@QPushButton@@MAEXXZ 00475088 f   qt-mt323:qt-mt323.dll
 0002:0004c08e       ?updateMask@QWidget@@MAEXXZ 0047508e f   qt-mt323:qt-mt323.dll
 0002:0004c094       ?wheelEvent@QWidget@@MAEXPAVQWheelEvent@@@Z 00475094 f   qt-mt323:qt-mt323.dll
 0002:0004c09a       ?widget@QLayoutItem@@UAEPAVQWidget@@XZ 0047509a f   qt-mt323:qt-mt323.dll
 0002:0004c0a0       ?winEvent@QWidget@@MAE_NPAUtagMSG@@@Z 004750a0 f   qt-mt323:qt-mt323.dll
 0002:0004c0a6       ?windowActivationChange@QWidget@@MAEX_N@Z 004750a6 f   qt-mt323:qt-mt323.dll
 0002:0004c0ac       ??0QString@@QAE@PBD@Z      004750ac f   qt-mt323:qt-mt323.dll
 0002:0004c0b2       ?arg@QString@@QBE?AV1@ABV1@H@Z 004750b2 f   qt-mt323:qt-mt323.dll
 0002:0004c0b8       ?argv@QApplication@@QBEPAPADXZ 004750b8 f   qt-mt323:qt-mt323.dll
 0002:0004c0be       ??0QWidget@@QAE@PAV0@PBDI@Z 004750be f   qt-mt323:qt-mt323.dll
 0002:0004c0c4       ??1QWidget@@UAE@XZ         004750c4 f   qt-mt323:qt-mt323.dll
 0002:0004c0ca       ?resize@QWidget@@QAEXABVQSize@@@Z 004750ca f   qt-mt323:qt-mt323.dll
 0002:0004c0d0       ??0QMainWindow@@QAE@PAVQWidget@@PBDI@Z 004750d0 f   qt-mt323:qt-mt323.dll
 0002:0004c0d6       ??1QMainWindow@@UAE@XZ     004750d6 f   qt-mt323:qt-mt323.dll
 0002:0004c0dc       ?statusBar@QMainWindow@@QBEPAVQStatusBar@@XZ 004750dc f   qt-mt323:qt-mt323.dll
 0002:0004c0e2       ?setCentralWidget@QMainWindow@@UAEXPAVQWidget@@@Z 004750e2 f   qt-mt323:qt-mt323.dll
 0002:0004c0e8       ?centralWidget@QMainWindow@@QBEPAVQWidget@@XZ 004750e8 f   qt-mt323:qt-mt323.dll
 0002:0004c0ee       ?minimumSizeHint@QMainWindow@@UBE?AVQSize@@XZ 004750ee f   qt-mt323:qt-mt323.dll
 0002:0004c0f4       ??0QKeySequence@@QAE@ABVQString@@@Z 004750f4 f   qt-mt323:qt-mt323.dll
 0002:0004c0fa       ??1QKeySequence@@QAE@XZ    004750fa f   qt-mt323:qt-mt323.dll
 0002:0004c100       ??0QTextEdit@@QAE@PAVQWidget@@PBD@Z 00475100 f   qt-mt323:qt-mt323.dll
 0002:0004c106       ??1QTextEdit@@UAE@XZ       00475106 f   qt-mt323:qt-mt323.dll
 0002:0004c10c       ??0QGridLayout@@QAE@PAVQWidget@@HHHHPBD@Z 0047510c f   qt-mt323:qt-mt323.dll
 0002:0004c112       ??1QGridLayout@@UAE@XZ     00475112 f   qt-mt323:qt-mt323.dll
 0002:0004c118       ?addWidget@QGridLayout@@QAEXPAVQWidget@@HHH@Z 00475118 f   qt-mt323:qt-mt323.dll
 0002:0004c11e       ??0QAction@@QAE@PAVQObject@@PBD@Z 0047511e f   qt-mt323:qt-mt323.dll
 0002:0004c124       ??1QAction@@UAE@XZ         00475124 f   qt-mt323:qt-mt323.dll
 0002:0004c12a       ?setText@QMenuItem@@QAEXABVQString@@@Z 0047512a f   qt-mt323:qt-mt323.dll
 0002:0004c130       ?insertItem@QMenuData@@QAEHABVQString@@PAVQPopupMenu@@HH@Z 00475130 f   qt-mt323:qt-mt323.dll
 0002:0004c136       ?findItem@QMenuData@@QBEPAVQMenuItem@@H@Z 00475136 f   qt-mt323:qt-mt323.dll
 0002:0004c13c       ??0QPopupMenu@@QAE@PAVQWidget@@PBD@Z 0047513c f   qt-mt323:qt-mt323.dll
 0002:0004c142       ??1QPopupMenu@@UAE@XZ      00475142 f   qt-mt323:qt-mt323.dll
 0002:0004c148       ??0QMenuBar@@QAE@PAVQWidget@@PBD@Z 00475148 f   qt-mt323:qt-mt323.dll
 0002:0004c14e       ??1QMenuBar@@UAE@XZ        0047514e f   qt-mt323:qt-mt323.dll
 0002:0004c154       ?activateItemAt@QMenuBar@@UAEXH@Z 00475154 f   qt-mt323:qt-mt323.dll
 0002:0004c15a       ?activateItemAt@QPopupMenu@@UAEXH@Z 0047515a f   qt-mt323:qt-mt323.dll
 0002:0004c160       ?addChild@QScrollView@@UAEXPAVQWidget@@HH@Z 00475160 f   qt-mt323:qt-mt323.dll
 0002:0004c166       ?addDockWindow@QMainWindow@@UAEXPAVQDockWindow@@ABVQString@@W4Dock@Qt@@_N@Z 00475166 f   qt-mt323:qt-mt323.dll
 0002:0004c16c       ?addDockWindow@QMainWindow@@UAEXPAVQDockWindow@@W4Dock@Qt@@_N@Z 0047516c f   qt-mt323:qt-mt323.dll
 0002:0004c172       ?addItem@QGridLayout@@UAEXPAVQLayoutItem@@@Z 00475172 f   qt-mt323:qt-mt323.dll
 0002:0004c178       ?addTo@QAction@@UAE_NPAVQWidget@@@Z 00475178 f   qt-mt323:qt-mt323.dll
 0002:0004c17e       ?addedTo@QAction@@MAEXHPAVQPopupMenu@@@Z 0047517e f   qt-mt323:qt-mt323.dll
 0002:0004c184       ?addedTo@QAction@@MAEXPAVQWidget@@0@Z 00475184 f   qt-mt323:qt-mt323.dll
 0002:0004c18a       ?append@QTextEdit@@UAEXABVQString@@@Z 0047518a f   qt-mt323:qt-mt323.dll
 0002:0004c190       ?childEvent@QMainWindow@@MAEXPAVQChildEvent@@@Z 00475190 f   qt-mt323:qt-mt323.dll
 0002:0004c196       ?className@QAction@@UBEPBDXZ 00475196 f   qt-mt323:qt-mt323.dll
 0002:0004c19c       ?className@QGridLayout@@UBEPBDXZ 0047519c f   qt-mt323:qt-mt323.dll
 0002:0004c1a2       ?className@QMenuBar@@UBEPBDXZ 004751a2 f   qt-mt323:qt-mt323.dll
 0002:0004c1a8       ?className@QPopupMenu@@UBEPBDXZ 004751a8 f   qt-mt323:qt-mt323.dll
 0002:0004c1ae       ?className@QTextEdit@@UBEPBDXZ 004751ae f   qt-mt323:qt-mt323.dll
 0002:0004c1b4       ?className@QWidget@@UBEPBDXZ 004751b4 f   qt-mt323:qt-mt323.dll
 0002:0004c1ba       ?clear@QTextEdit@@UAEXXZ   004751ba f   qt-mt323:qt-mt323.dll
 0002:0004c1c0       ?clearParagraphBackground@QTextEdit@@UAEXH@Z 004751c0 f   qt-mt323:qt-mt323.dll
 0002:0004c1c6       ?closeEvent@QPopupMenu@@MAEXPAVQCloseEvent@@@Z 004751c6 f   qt-mt323:qt-mt323.dll
 0002:0004c1cc       ?contentsContextMenuEvent@QTextEdit@@MAEXPAVQContextMenuEvent@@@Z 004751cc f   qt-mt323:qt-mt323.dll
 0002:0004c1d2       ?contentsDragEnterEvent@QTextEdit@@MAEXPAVQDragEnterEvent@@@Z 004751d2 f   qt-mt323:qt-mt323.dll
 0002:0004c1d8       ?contentsDragLeaveEvent@QTextEdit@@MAEXPAVQDragLeaveEvent@@@Z 004751d8 f   qt-mt323:qt-mt323.dll
 0002:0004c1de       ?contentsDragMoveEvent@QTextEdit@@MAEXPAVQDragMoveEvent@@@Z 004751de f   qt-mt323:qt-mt323.dll
 0002:0004c1e4       ?contentsDropEvent@QTextEdit@@MAEXPAVQDropEvent@@@Z 004751e4 f   qt-mt323:qt-mt323.dll
 0002:0004c1ea       ?contentsMouseDoubleClickEvent@QTextEdit@@MAEXPAVQMouseEvent@@@Z 004751ea f   qt-mt323:qt-mt323.dll
 0002:0004c1f0       ?contentsMouseMoveEvent@QTextEdit@@MAEXPAVQMouseEvent@@@Z 004751f0 f   qt-mt323:qt-mt323.dll
 0002:0004c1f6       ?contentsMousePressEvent@QTextEdit@@MAEXPAVQMouseEvent@@@Z 004751f6 f   qt-mt323:qt-mt323.dll
 0002:0004c1fc       ?contentsMouseReleaseEvent@QTextEdit@@MAEXPAVQMouseEvent@@@Z 004751fc f   qt-mt323:qt-mt323.dll
 0002:0004c202       ?contentsWheelEvent@QTextEdit@@MAEXPAVQWheelEvent@@@Z 00475202 f   qt-mt323:qt-mt323.dll
 0002:0004c208       ?contextMenuEvent@QScrollView@@MAEXPAVQContextMenuEvent@@@Z 00475208 f   qt-mt323:qt-mt323.dll
 0002:0004c20e       ?copy@QTextEdit@@UAEXXZ    0047520e f   qt-mt323:qt-mt323.dll
 0002:0004c214       ?createPopupMenu@QTextEdit@@MAEPAVQPopupMenu@@ABVQPoint@@@Z 00475214 f   qt-mt323:qt-mt323.dll
 0002:0004c21a       ?createPopupMenu@QTextEdit@@MAEPAVQPopupMenu@@XZ 0047521a f   qt-mt323:qt-mt323.dll
 0002:0004c220       ?customWhatsThis@QMenuBar@@UBE_NXZ 00475220 f   qt-mt323:qt-mt323.dll
 0002:0004c226       ?customWhatsThis@QPopupMenu@@UBE_NXZ 00475226 f   qt-mt323:qt-mt323.dll
 0002:0004c22c       ?customize@QMainWindow@@UAEXXZ 0047522c f   qt-mt323:qt-mt323.dll
 0002:0004c232       ?cut@QTextEdit@@UAEXXZ     00475232 f   qt-mt323:qt-mt323.dll
 0002:0004c238       ?del@QTextEdit@@UAEXXZ     00475238 f   qt-mt323:qt-mt323.dll
 0002:0004c23e       ?doChangeInterval@QTextEdit@@MAEXXZ 0047523e f   qt-mt323:qt-mt323.dll
 0002:0004c244       ?doKeyboardAction@QTextEdit@@UAEXW4KeyboardAction@1@@Z 00475244 f   qt-mt323:qt-mt323.dll
 0002:0004c24a       ?dockingArea@QMainWindow@@UAEPAVQDockArea@@ABVQPoint@@@Z 0047524a f   qt-mt323:qt-mt323.dll
 0002:0004c250       ?drawContents@QMenuBar@@MAEXPAVQPainter@@@Z 00475250 f   qt-mt323:qt-mt323.dll
 0002:0004c256       ?drawContents@QPopupMenu@@MAEXPAVQPainter@@@Z 00475256 f   qt-mt323:qt-mt323.dll
 0002:0004c25c       ?drawContents@QTextEdit@@EAEXPAVQPainter@@@Z 0047525c f   qt-mt323:qt-mt323.dll
 0002:0004c262       ?drawContents@QTextEdit@@MAEXPAVQPainter@@HHHH@Z 00475262 f   qt-mt323:qt-mt323.dll
 0002:0004c268       ?drawContentsOffset@QScrollView@@MAEXPAVQPainter@@HHHHHH@Z 00475268 f   qt-mt323:qt-mt323.dll
 0002:0004c26e       ?emitHighlighted@QTextEdit@@EAEXABVQString@@@Z 0047526e f   qt-mt323:qt-mt323.dll
 0002:0004c274       ?emitLinkClicked@QTextEdit@@EAEXABVQString@@@Z 00475274 f   qt-mt323:qt-mt323.dll
 0002:0004c27a       ?enabledChange@QPopupMenu@@MAEX_N@Z 0047527a f   qt-mt323:qt-mt323.dll
 0002:0004c280       ?ensureCursorVisible@QTextEdit@@UAEXXZ 00475280 f   qt-mt323:qt-mt323.dll
 0002:0004c286       ?event@QMainWindow@@MAE_NPAVQEvent@@@Z 00475286 f   qt-mt323:qt-mt323.dll
 0002:0004c28c       ?event@QTextEdit@@MAE_NPAVQEvent@@@Z 0047528c f   qt-mt323:qt-mt323.dll
 0002:0004c292       ?eventFilter@QMainWindow@@UAE_NPAVQObject@@PAVQEvent@@@Z 00475292 f   qt-mt323:qt-mt323.dll
 0002:0004c298       ?eventFilter@QMenuBar@@UAE_NPAVQObject@@PAVQEvent@@@Z 00475298 f   qt-mt323:qt-mt323.dll
 0002:0004c29e       ?eventFilter@QTextEdit@@UAE_NPAVQObject@@PAVQEvent@@@Z 0047529e f   qt-mt323:qt-mt323.dll
 0002:0004c2a4       ?expanding@QGridLayout@@UBE?AW4ExpandData@QSizePolicy@@XZ 004752a4 f   qt-mt323:qt-mt323.dll
 0002:0004c2aa       ?find@QTextEdit@@UAE_NABVQString@@_N11PAH2@Z 004752aa f   qt-mt323:qt-mt323.dll
 0002:0004c2b0       ?focusInEvent@QMenuBar@@MAEXPAVQFocusEvent@@@Z 004752b0 f   qt-mt323:qt-mt323.dll
 0002:0004c2b6       ?focusInEvent@QPopupMenu@@MAEXPAVQFocusEvent@@@Z 004752b6 f   qt-mt323:qt-mt323.dll
 0002:0004c2bc       ?focusNextPrevChild@QPopupMenu@@MAE_N_N@Z 004752bc f   qt-mt323:qt-mt323.dll
 0002:0004c2c2       ?focusNextPrevChild@QTextEdit@@MAE_N_N@Z 004752c2 f   qt-mt323:qt-mt323.dll
 0002:0004c2c8       ?focusOutEvent@QMenuBar@@MAEXPAVQFocusEvent@@@Z 004752c8 f   qt-mt323:qt-mt323.dll
 0002:0004c2ce       ?focusOutEvent@QPopupMenu@@MAEXPAVQFocusEvent@@@Z 004752ce f   qt-mt323:qt-mt323.dll
 0002:0004c2d4       ?fontChange@QMenuBar@@MAEXABVQFont@@@Z 004752d4 f   qt-mt323:qt-mt323.dll
 0002:0004c2da       ?fontChange@QScrollView@@MAEXABVQFont@@@Z 004752da f   qt-mt323:qt-mt323.dll
 0002:0004c2e0       ?frameChanged@QMenuBar@@EAEXXZ 004752e0 f   qt-mt323:qt-mt323.dll
 0002:0004c2e6       ?frameChanged@QPopupMenu@@EAEXXZ 004752e6 f   qt-mt323:qt-mt323.dll
 0002:0004c2ec       ?frameChanged@QScrollView@@MAEXXZ 004752ec f   qt-mt323:qt-mt323.dll
 0002:0004c2f2       ?getFormat@QTextEdit@@UAE_NHHPAVQFont@@PAVQColor@@PAW4VerticalAlignment@1@@Z 004752f2 f   qt-mt323:qt-mt323.dll
 0002:0004c2f8       ?getParagraphFormat@QTextEdit@@UAE_NHPAVQFont@@PAVQColor@@PAW4VerticalAlignment@1@PAHPAW4DisplayMode@QStyleSheetItem@@PAW4ListStyle@6@3@Z 004752f8 f   qt-mt323:qt-mt323.dll
 0002:0004c2fe       ?hasHeightForWidth@QGridLayout@@UBE_NXZ 004752fe f   qt-mt323:qt-mt323.dll
 0002:0004c304       ?heightForWidth@QGridLayout@@UBEHH@Z 00475304 f   qt-mt323:qt-mt323.dll
 0002:0004c30a       ?heightForWidth@QMenuBar@@UBEHH@Z 0047530a f   qt-mt323:qt-mt323.dll
 0002:0004c310       ?heightForWidth@QTextEdit@@UBEHH@Z 00475310 f   qt-mt323:qt-mt323.dll
 0002:0004c316       ?hide@QMainWindow@@UAEXXZ  00475316 f   qt-mt323:qt-mt323.dll
 0002:0004c31c       ?hide@QMenuBar@@UAEXXZ     0047531c f   qt-mt323:qt-mt323.dll
 0002:0004c322       ?hide@QPopupMenu@@UAEXXZ   00475322 f   qt-mt323:qt-mt323.dll
 0002:0004c328       ?imComposeEvent@QTextEdit@@MAEXPAVQIMEvent@@@Z 00475328 f   qt-mt323:qt-mt323.dll
 0002:0004c32e       ?imEndEvent@QTextEdit@@MAEXPAVQIMEvent@@@Z 0047532e f   qt-mt323:qt-mt323.dll
 0002:0004c334       ?imStartEvent@QTextEdit@@MAEXPAVQIMEvent@@@Z 00475334 f   qt-mt323:qt-mt323.dll
 0002:0004c33a       ?indent@QTextEdit@@UAEXXZ  0047533a f   qt-mt323:qt-mt323.dll
 0002:0004c340       ?insert@QTextEdit@@UAEXABVQString@@_N11@Z 00475340 f   qt-mt323:qt-mt323.dll
 0002:0004c346       ?insertAt@QTextEdit@@UAEXABVQString@@HH@Z 00475346 f   qt-mt323:qt-mt323.dll
 0002:0004c34c       ?insertParagraph@QTextEdit@@UAEXABVQString@@H@Z 0047534c f   qt-mt323:qt-mt323.dll
 0002:0004c352       ?invalidate@QGridLayout@@UAEXXZ 00475352 f   qt-mt323:qt-mt323.dll
 0002:0004c358       ?isCustomizable@QMainWindow@@UBE_NXZ 00475358 f   qt-mt323:qt-mt323.dll
 0002:0004c35e       ?iterator@QGridLayout@@UAE?AVQLayoutIterator@@XZ 0047535e f   qt-mt323:qt-mt323.dll
 0002:0004c364       ?keyPressEvent@QMenuBar@@MAEXPAVQKeyEvent@@@Z 00475364 f   qt-mt323:qt-mt323.dll
 0002:0004c36a       ?keyPressEvent@QPopupMenu@@MAEXPAVQKeyEvent@@@Z 0047536a f   qt-mt323:qt-mt323.dll
 0002:0004c370       ?keyPressEvent@QTextEdit@@MAEXPAVQKeyEvent@@@Z 00475370 f   qt-mt323:qt-mt323.dll
 0002:0004c376       ?leaveEvent@QMenuBar@@MAEXPAVQEvent@@@Z 00475376 f   qt-mt323:qt-mt323.dll
 0002:0004c37c       ?leaveEvent@QPopupMenu@@MAEXPAVQEvent@@@Z 0047537c f   qt-mt323:qt-mt323.dll
 0002:0004c382       ?linksEnabled@QTextEdit@@EBE_NXZ 00475382 f   qt-mt323:qt-mt323.dll
 0002:0004c388       ?maximumSize@QGridLayout@@UBE?AVQSize@@XZ 00475388 f   qt-mt323:qt-mt323.dll
 0002:0004c38e       ?menuContentsChanged@QMenuBar@@MAEXXZ 0047538e f   qt-mt323:qt-mt323.dll
 0002:0004c394       ?menuContentsChanged@QPopupMenu@@EAEXXZ 00475394 f   qt-mt323:qt-mt323.dll
 0002:0004c39a       ?menuDelPopup@QMenuBar@@EAEXPAVQPopupMenu@@@Z 0047539a f   qt-mt323:qt-mt323.dll
 0002:0004c3a0       ?menuDelPopup@QPopupMenu@@EAEXPAV1@@Z 004753a0 f   qt-mt323:qt-mt323.dll
 0002:0004c3a6       ?menuInsPopup@QMenuBar@@EAEXPAVQPopupMenu@@@Z 004753a6 f   qt-mt323:qt-mt323.dll
 0002:0004c3ac       ?menuInsPopup@QPopupMenu@@EAEXPAV1@@Z 004753ac f   qt-mt323:qt-mt323.dll
 0002:0004c3b2       ?menuStateChanged@QMenuBar@@MAEXXZ 004753b2 f   qt-mt323:qt-mt323.dll
 0002:0004c3b8       ?menuStateChanged@QPopupMenu@@EAEXXZ 004753b8 f   qt-mt323:qt-mt323.dll
 0002:0004c3be       ?metaObject@QAction@@UBEPAVQMetaObject@@XZ 004753be f   qt-mt323:qt-mt323.dll
 0002:0004c3c4       ?metaObject@QGridLayout@@UBEPAVQMetaObject@@XZ 004753c4 f   qt-mt323:qt-mt323.dll
 0002:0004c3ca       ?metaObject@QMenuBar@@UBEPAVQMetaObject@@XZ 004753ca f   qt-mt323:qt-mt323.dll
 0002:0004c3d0       ?metaObject@QPopupMenu@@UBEPAVQMetaObject@@XZ 004753d0 f   qt-mt323:qt-mt323.dll
 0002:0004c3d6       ?metaObject@QTextEdit@@UBEPAVQMetaObject@@XZ 004753d6 f   qt-mt323:qt-mt323.dll
 0002:0004c3dc       ?metaObject@QWidget@@UBEPAVQMetaObject@@XZ 004753dc f   qt-mt323:qt-mt323.dll
 0002:0004c3e2       ?minimumSize@QGridLayout@@UBE?AVQSize@@XZ 004753e2 f   qt-mt323:qt-mt323.dll
 0002:0004c3e8       ?minimumSizeHint@QMenuBar@@UBE?AVQSize@@XZ 004753e8 f   qt-mt323:qt-mt323.dll
 0002:0004c3ee       ?minimumSizeHint@QScrollView@@UBE?AVQSize@@XZ 004753ee f   qt-mt323:qt-mt323.dll
 0002:0004c3f4       ?mouseDoubleClickEvent@QScrollView@@MAEXPAVQMouseEvent@@@Z 004753f4 f   qt-mt323:qt-mt323.dll
 0002:0004c3fa       ?mouseMoveEvent@QMenuBar@@MAEXPAVQMouseEvent@@@Z 004753fa f   qt-mt323:qt-mt323.dll
 0002:0004c400       ?mouseMoveEvent@QPopupMenu@@MAEXPAVQMouseEvent@@@Z 00475400 f   qt-mt323:qt-mt323.dll
 0002:0004c406       ?mouseMoveEvent@QScrollView@@MAEXPAVQMouseEvent@@@Z 00475406 f   qt-mt323:qt-mt323.dll
 0002:0004c40c       ?mousePressEvent@QMenuBar@@MAEXPAVQMouseEvent@@@Z 0047540c f   qt-mt323:qt-mt323.dll
 0002:0004c412       ?mousePressEvent@QPopupMenu@@MAEXPAVQMouseEvent@@@Z 00475412 f   qt-mt323:qt-mt323.dll
 0002:0004c418       ?mousePressEvent@QScrollView@@MAEXPAVQMouseEvent@@@Z 00475418 f   qt-mt323:qt-mt323.dll
 0002:0004c41e       ?mouseReleaseEvent@QMenuBar@@MAEXPAVQMouseEvent@@@Z 0047541e f   qt-mt323:qt-mt323.dll
 0002:0004c424       ?mouseReleaseEvent@QPopupMenu@@MAEXPAVQMouseEvent@@@Z 00475424 f   qt-mt323:qt-mt323.dll
 0002:0004c42a       ?mouseReleaseEvent@QScrollView@@MAEXPAVQMouseEvent@@@Z 0047542a f   qt-mt323:qt-mt323.dll
 0002:0004c430       ?moveChild@QScrollView@@UAEXPAVQWidget@@HH@Z 00475430 f   qt-mt323:qt-mt323.dll
 0002:0004c436       ?moveCursor@QTextEdit@@UAEXW4CursorAction@1@_N@Z 00475436 f   qt-mt323:qt-mt323.dll
 0002:0004c43c       ?moveDockWindow@QMainWindow@@UAEXPAVQDockWindow@@W4Dock@Qt@@@Z 0047543c f   qt-mt323:qt-mt323.dll
 0002:0004c442       ?moveDockWindow@QMainWindow@@UAEXPAVQDockWindow@@W4Dock@Qt@@_NHH@Z 00475442 f   qt-mt323:qt-mt323.dll
 0002:0004c448       ?paintEvent@QMainWindow@@MAEXPAVQPaintEvent@@@Z 00475448 f   qt-mt323:qt-mt323.dll
 0002:0004c44e       ?paintEvent@QPopupMenu@@MAEXPAVQPaintEvent@@@Z 0047544e f   qt-mt323:qt-mt323.dll
 0002:0004c454       ?paste@QTextEdit@@UAEXXZ   00475454 f   qt-mt323:qt-mt323.dll
 0002:0004c45a       ?pasteSubType@QTextEdit@@UAEXABVQCString@@@Z 0047545a f   qt-mt323:qt-mt323.dll
 0002:0004c460       ?placeCursor@QTextEdit@@UAEXABVQPoint@@PAVQTextCursor@@@Z 00475460 f   qt-mt323:qt-mt323.dll
 0002:0004c466       ?polish@QTextEdit@@UAEXXZ  00475466 f   qt-mt323:qt-mt323.dll
 0002:0004c46c       ?qt_cast@QAction@@UAEPAXPBD@Z 0047546c f   qt-mt323:qt-mt323.dll
 0002:0004c472       ?qt_cast@QGridLayout@@UAEPAXPBD@Z 00475472 f   qt-mt323:qt-mt323.dll
 0002:0004c478       ?qt_cast@QMenuBar@@UAEPAXPBD@Z 00475478 f   qt-mt323:qt-mt323.dll
 0002:0004c47e       ?qt_cast@QPopupMenu@@UAEPAXPBD@Z 0047547e f   qt-mt323:qt-mt323.dll
 0002:0004c484       ?qt_cast@QTextEdit@@UAEPAXPBD@Z 00475484 f   qt-mt323:qt-mt323.dll
 0002:0004c48a       ?qt_cast@QWidget@@UAEPAXPBD@Z 0047548a f   qt-mt323:qt-mt323.dll
 0002:0004c490       ?qt_emit@QAction@@UAE_NHPAUQUObject@@@Z 00475490 f   qt-mt323:qt-mt323.dll
 0002:0004c496       ?qt_emit@QGridLayout@@UAE_NHPAUQUObject@@@Z 00475496 f   qt-mt323:qt-mt323.dll
 0002:0004c49c       ?qt_emit@QMenuBar@@UAE_NHPAUQUObject@@@Z 0047549c f   qt-mt323:qt-mt323.dll
 0002:0004c4a2       ?qt_emit@QPopupMenu@@UAE_NHPAUQUObject@@@Z 004754a2 f   qt-mt323:qt-mt323.dll
 0002:0004c4a8       ?qt_emit@QTextEdit@@UAE_NHPAUQUObject@@@Z 004754a8 f   qt-mt323:qt-mt323.dll
 0002:0004c4ae       ?qt_emit@QWidget@@UAE_NHPAUQUObject@@@Z 004754ae f   qt-mt323:qt-mt323.dll
 0002:0004c4b4       ?qt_invoke@QAction@@UAE_NHPAUQUObject@@@Z 004754b4 f   qt-mt323:qt-mt323.dll
 0002:0004c4ba       ?qt_invoke@QGridLayout@@UAE_NHPAUQUObject@@@Z 004754ba f   qt-mt323:qt-mt323.dll
 0002:0004c4c0       ?qt_invoke@QMenuBar@@UAE_NHPAUQUObject@@@Z 004754c0 f   qt-mt323:qt-mt323.dll
 0002:0004c4c6       ?qt_invoke@QPopupMenu@@UAE_NHPAUQUObject@@@Z 004754c6 f   qt-mt323:qt-mt323.dll
 0002:0004c4cc       ?qt_invoke@QTextEdit@@UAE_NHPAUQUObject@@@Z 004754cc f   qt-mt323:qt-mt323.dll
 0002:0004c4d2       ?qt_invoke@QWidget@@UAE_NHPAUQUObject@@@Z 004754d2 f   qt-mt323:qt-mt323.dll
 0002:0004c4d8       ?qt_property@QAction@@UAE_NHHPAVQVariant@@@Z 004754d8 f   qt-mt323:qt-mt323.dll
 0002:0004c4de       ?qt_property@QGridLayout@@UAE_NHHPAVQVariant@@@Z 004754de f   qt-mt323:qt-mt323.dll
 0002:0004c4e4       ?qt_property@QMenuBar@@UAE_NHHPAVQVariant@@@Z 004754e4 f   qt-mt323:qt-mt323.dll
 0002:0004c4ea       ?qt_property@QPopupMenu@@UAE_NHHPAVQVariant@@@Z 004754ea f   qt-mt323:qt-mt323.dll
 0002:0004c4f0       ?qt_property@QTextEdit@@UAE_NHHPAVQVariant@@@Z 004754f0 f   qt-mt323:qt-mt323.dll
 0002:0004c4f6       ?qt_property@QWidget@@UAE_NHHPAVQVariant@@@Z 004754f6 f   qt-mt323:qt-mt323.dll
 0002:0004c4fc       ?redo@QTextEdit@@UAEXXZ    004754fc f   qt-mt323:qt-mt323.dll
 0002:0004c502       ?removeChild@QScrollView@@UAEXPAVQObject@@@Z 00475502 f   qt-mt323:qt-mt323.dll
 0002:0004c508       ?removeDockWindow@QMainWindow@@UAEXPAVQDockWindow@@@Z 00475508 f   qt-mt323:qt-mt323.dll
 0002:0004c50e       ?removeFrom@QAction@@UAE_NPAVQWidget@@@Z 0047550e f   qt-mt323:qt-mt323.dll
 0002:0004c514       ?removeParagraph@QTextEdit@@UAEXH@Z 00475514 f   qt-mt323:qt-mt323.dll
 0002:0004c51a       ?removeSelectedText@QTextEdit@@UAEXH@Z 0047551a f   qt-mt323:qt-mt323.dll
 0002:0004c520       ?removeSelection@QTextEdit@@UAEXH@Z 00475520 f   qt-mt323:qt-mt323.dll
 0002:0004c526       ?resetFormat@QTextEdit@@UAEXXZ 00475526 f   qt-mt323:qt-mt323.dll
 0002:0004c52c       ?resize@QScrollView@@UAEXHH@Z 0047552c f   qt-mt323:qt-mt323.dll
 0002:0004c532       ?resizeContents@QScrollView@@UAEXHH@Z 00475532 f   qt-mt323:qt-mt323.dll
 0002:0004c538       ?resizeEvent@QMenuBar@@MAEXPAVQResizeEvent@@@Z 00475538 f   qt-mt323:qt-mt323.dll
 0002:0004c53e       ?resizeEvent@QTextEdit@@MAEXPAVQResizeEvent@@@Z 0047553e f   qt-mt323:qt-mt323.dll
 0002:0004c544       ?resizeEvent@QWidget@@MAEXPAVQResizeEvent@@@Z 00475544 f   qt-mt323:qt-mt323.dll
 0002:0004c54a       ?scrollToAnchor@QTextEdit@@UAEXABVQString@@@Z 0047554a f   qt-mt323:qt-mt323.dll
 0002:0004c550       ?scrollToBottom@QTextEdit@@UAEXXZ 00475550 f   qt-mt323:qt-mt323.dll
 0002:0004c556       ?selectAll@QTextEdit@@UAEX_N@Z 00475556 f   qt-mt323:qt-mt323.dll
 0002:0004c55c       ?setAccel@QAction@@UAEXABVQKeySequence@@@Z 0047555c f   qt-mt323:qt-mt323.dll
 0002:0004c562       ?setActiveItem@QPopupMenu@@UAEXH@Z 00475562 f   qt-mt323:qt-mt323.dll
 0002:0004c568       ?setAlignment@QTextEdit@@UAEXH@Z 00475568 f   qt-mt323:qt-mt323.dll
 0002:0004c56e       ?setAppropriate@QMainWindow@@UAEXPAVQDockWindow@@_N@Z 0047556e f   qt-mt323:qt-mt323.dll
 0002:0004c574       ?setBold@QTextEdit@@UAEX_N@Z 00475574 f   qt-mt323:qt-mt323.dll
 0002:0004c57a       ?setCheckable@QPopupMenu@@UAEX_N@Z 0047557a f   qt-mt323:qt-mt323.dll
 0002:0004c580       ?setColStretch@QGridLayout@@UAEXHH@Z 00475580 f   qt-mt323:qt-mt323.dll
 0002:0004c586       ?setColor@QTextEdit@@UAEXABVQColor@@@Z 00475586 f   qt-mt323:qt-mt323.dll
 0002:0004c58c       ?setContentsPos@QScrollView@@UAEXHH@Z 0047558c f   qt-mt323:qt-mt323.dll
 0002:0004c592       ?setCornerWidget@QScrollView@@UAEXPAVQWidget@@@Z 00475592 f   qt-mt323:qt-mt323.dll
 0002:0004c598       ?setCurrentFont@QTextEdit@@UAEXABVQFont@@@Z 00475598 f   qt-mt323:qt-mt323.dll
 0002:0004c59e       ?setCursorPosition@QTextEdit@@UAEXHH@Z 0047559e f   qt-mt323:qt-mt323.dll
 0002:0004c5a4       ?setDockEnabled@QMainWindow@@UAEXPAVQDockWindow@@W4Dock@Qt@@_N@Z 004755a4 f   qt-mt323:qt-mt323.dll
 0002:0004c5aa       ?setDockEnabled@QMainWindow@@UAEXW4Dock@Qt@@_N@Z 004755aa f   qt-mt323:qt-mt323.dll
 0002:0004c5b0       ?setDockMenuEnabled@QMainWindow@@UAEX_N@Z 004755b0 f   qt-mt323:qt-mt323.dll
 0002:0004c5b6       ?setDockWindowsMovable@QMainWindow@@UAEX_N@Z 004755b6 f   qt-mt323:qt-mt323.dll
 0002:0004c5bc       ?setDragAutoScroll@QScrollView@@UAEX_N@Z 004755bc f   qt-mt323:qt-mt323.dll
 0002:0004c5c2       ?setEnabled@QAction@@UAEX_N@Z 004755c2 f   qt-mt323:qt-mt323.dll
 0002:0004c5c8       ?setEnabled@QTextEdit@@UAEX_N@Z 004755c8 f   qt-mt323:qt-mt323.dll
 0002:0004c5ce       ?setFamily@QTextEdit@@UAEXABVQString@@@Z 004755ce f   qt-mt323:qt-mt323.dll
 0002:0004c5d4       ?setFirstItemActive@QPopupMenu@@EAEXXZ 004755d4 f   qt-mt323:qt-mt323.dll
 0002:0004c5da       ?setFont@QPopupMenu@@UAEXABVQFont@@@Z 004755da f   qt-mt323:qt-mt323.dll
 0002:0004c5e0       ?setFont@QTextEdit@@UAEXABVQFont@@@Z 004755e0 f   qt-mt323:qt-mt323.dll
 0002:0004c5e6       ?setFormat@QTextEdit@@UAEXPAVQTextFormat@@H@Z 004755e6 f   qt-mt323:qt-mt323.dll
 0002:0004c5ec       ?setGeometry@QGridLayout@@UAEXABVQRect@@@Z 004755ec f   qt-mt323:qt-mt323.dll
 0002:0004c5f2       ?setHBarGeometry@QScrollView@@MAEXAAVQScrollBar@@HHHH@Z 004755f2 f   qt-mt323:qt-mt323.dll
 0002:0004c5f8       ?setHScrollBarMode@QScrollView@@UAEXW4ScrollBarMode@1@@Z 004755f8 f   qt-mt323:qt-mt323.dll
 0002:0004c5fe       ?setIconSet@QAction@@UAEXABVQIconSet@@@Z 004755fe f   qt-mt323:qt-mt323.dll
 0002:0004c604       ?setId@QMenuData@@UAEXHH@Z 00475604 f   qt-mt323:qt-mt323.dll
 0002:0004c60a       ?setItalic@QTextEdit@@UAEX_N@Z 0047560a f   qt-mt323:qt-mt323.dll
 0002:0004c610       ?setLinkUnderline@QTextEdit@@UAEX_N@Z 00475610 f   qt-mt323:qt-mt323.dll
 0002:0004c616       ?setMargins@QScrollView@@MAEXHHHH@Z 00475616 f   qt-mt323:qt-mt323.dll
 0002:0004c61c       ?setMenuBar@QMainWindow@@EAEXPAVQMenuBar@@@Z 0047561c f   qt-mt323:qt-mt323.dll
 0002:0004c622       ?setMenuText@QAction@@UAEXABVQString@@@Z 00475622 f   qt-mt323:qt-mt323.dll
 0002:0004c628       ?setMimeSourceFactory@QTextEdit@@UAEXPAVQMimeSourceFactory@@@Z 00475628 f   qt-mt323:qt-mt323.dll
 0002:0004c62e       ?setModified@QTextEdit@@UAEX_N@Z 0047562e f   qt-mt323:qt-mt323.dll
 0002:0004c634       ?setOn@QAction@@UAEX_N@Z   00475634 f   qt-mt323:qt-mt323.dll
 0002:0004c63a       ?setOpaqueMoving@QMainWindow@@UAEX_N@Z 0047563a f   qt-mt323:qt-mt323.dll
 0002:0004c640       ?setOverwriteMode@QTextEdit@@UAEX_N@Z 00475640 f   qt-mt323:qt-mt323.dll
 0002:0004c646       ?setPalette@QTextEdit@@UAEXABVQPalette@@@Z 00475646 f   qt-mt323:qt-mt323.dll
 0002:0004c64c       ?setPaper@QTextEdit@@UAEXABVQBrush@@@Z 0047564c f   qt-mt323:qt-mt323.dll
 0002:0004c652       ?setParagType@QTextEdit@@UAEXW4DisplayMode@QStyleSheetItem@@W4ListStyle@3@@Z 00475652 f   qt-mt323:qt-mt323.dll
 0002:0004c658       ?setParagraphBackgroundColor@QTextEdit@@UAEXHABVQColor@@@Z 00475658 f   qt-mt323:qt-mt323.dll
 0002:0004c65e       ?setPointSize@QTextEdit@@UAEXH@Z 0047565e f   qt-mt323:qt-mt323.dll
 0002:0004c664       ?setReadOnly@QTextEdit@@UAEX_N@Z 00475664 f   qt-mt323:qt-mt323.dll
 0002:0004c66a       ?setResizePolicy@QScrollView@@UAEXW4ResizePolicy@1@@Z 0047566a f   qt-mt323:qt-mt323.dll
 0002:0004c670       ?setRightJustification@QMainWindow@@UAEX_N@Z 00475670 f   qt-mt323:qt-mt323.dll
 0002:0004c676       ?setRowStretch@QGridLayout@@UAEXHH@Z 00475676 f   qt-mt323:qt-mt323.dll
 0002:0004c67c       ?setSelection@QTextEdit@@UAEXHHHHH@Z 0047567c f   qt-mt323:qt-mt323.dll
 0002:0004c682       ?setSelectionAttributes@QTextEdit@@UAEXHABVQColor@@_N@Z 00475682 f   qt-mt323:qt-mt323.dll
 0002:0004c688       ?setSeparator@QMenuBar@@UAEXW4Separator@1@@Z 00475688 f   qt-mt323:qt-mt323.dll
 0002:0004c68e       ?setStatusBar@QMainWindow@@EAEXPAVQStatusBar@@@Z 0047568e f   qt-mt323:qt-mt323.dll
 0002:0004c694       ?setStatusTip@QAction@@UAEXABVQString@@@Z 00475694 f   qt-mt323:qt-mt323.dll
 0002:0004c69a       ?setStyleSheet@QTextEdit@@UAEXPAVQStyleSheet@@@Z 0047569a f   qt-mt323:qt-mt323.dll
 0002:0004c6a0       ?setTabStopWidth@QTextEdit@@UAEXH@Z 004756a0 f   qt-mt323:qt-mt323.dll
 0002:0004c6a6       ?setText@QAction@@UAEXABVQString@@@Z 004756a6 f   qt-mt323:qt-mt323.dll
 0002:0004c6ac       ?setText@QTextEdit@@UAEXABVQString@@0@Z 004756ac f   qt-mt323:qt-mt323.dll
 0002:0004c6b2       ?setTextFormat@QTextEdit@@UAEXW4TextFormat@Qt@@@Z 004756b2 f   qt-mt323:qt-mt323.dll
 0002:0004c6b8       ?setToggleAction@QAction@@UAEX_N@Z 004756b8 f   qt-mt323:qt-mt323.dll
 0002:0004c6be       ?setToolTip@QAction@@UAEXABVQString@@@Z 004756be f   qt-mt323:qt-mt323.dll
 0002:0004c6c4       ?setToolTipGroup@QMainWindow@@EAEXPAVQToolTipGroup@@@Z 004756c4 f   qt-mt323:qt-mt323.dll
 0002:0004c6ca       ?setUnderline@QTextEdit@@UAEX_N@Z 004756ca f   qt-mt323:qt-mt323.dll
 0002:0004c6d0       ?setUndoDepth@QTextEdit@@UAEXH@Z 004756d0 f   qt-mt323:qt-mt323.dll
 0002:0004c6d6       ?setUndoRedoEnabled@QTextEdit@@UAEX_N@Z 004756d6 f   qt-mt323:qt-mt323.dll
 0002:0004c6dc       ?setUpLayout@QMainWindow@@MAEXXZ 004756dc f   qt-mt323:qt-mt323.dll
 0002:0004c6e2       ?setUsesBigPixmaps@QMainWindow@@UAEX_N@Z 004756e2 f   qt-mt323:qt-mt323.dll
 0002:0004c6e8       ?setUsesTextLabel@QMainWindow@@UAEX_N@Z 004756e8 f   qt-mt323:qt-mt323.dll
 0002:0004c6ee       ?setVBarGeometry@QScrollView@@MAEXAAVQScrollBar@@HHHH@Z 004756ee f   qt-mt323:qt-mt323.dll
 0002:0004c6f4       ?setVScrollBarMode@QScrollView@@UAEXW4ScrollBarMode@1@@Z 004756f4 f   qt-mt323:qt-mt323.dll
 0002:0004c6fa       ?setVerticalAlignment@QTextEdit@@UAEXW4VerticalAlignment@1@@Z 004756fa f   qt-mt323:qt-mt323.dll
 0002:0004c700       ?setWhatsThis@QAction@@UAEXABVQString@@@Z 00475700 f   qt-mt323:qt-mt323.dll
 0002:0004c706       ?setWordWrap@QTextEdit@@UAEXW4WordWrap@1@@Z 00475706 f   qt-mt323:qt-mt323.dll
 0002:0004c70c       ?setWrapColumnOrWidth@QTextEdit@@UAEXH@Z 0047570c f   qt-mt323:qt-mt323.dll
 0002:0004c712       ?setWrapPolicy@QTextEdit@@UAEXW4WrapPolicy@1@@Z 00475712 f   qt-mt323:qt-mt323.dll
 0002:0004c718       ?show@QMainWindow@@UAEXXZ  00475718 f   qt-mt323:qt-mt323.dll
 0002:0004c71e       ?show@QMenuBar@@UAEXXZ     0047571e f   qt-mt323:qt-mt323.dll
 0002:0004c724       ?show@QPopupMenu@@UAEXXZ   00475724 f   qt-mt323:qt-mt323.dll
 0002:0004c72a       ?show@QScrollView@@UAEXXZ  0047572a f   qt-mt323:qt-mt323.dll
 0002:0004c730       ?showDockMenu@QMainWindow@@MAE_NABVQPoint@@@Z 00475730 f   qt-mt323:qt-mt323.dll
 0002:0004c736       ?sizeHint@QGridLayout@@UBE?AVQSize@@XZ 00475736 f   qt-mt323:qt-mt323.dll
 0002:0004c73c       ?sizeHint@QMainWindow@@UBE?AVQSize@@XZ 0047573c f   qt-mt323:qt-mt323.dll
 0002:0004c742       ?sizeHint@QMenuBar@@UBE?AVQSize@@XZ 00475742 f   qt-mt323:qt-mt323.dll
 0002:0004c748       ?sizeHint@QPopupMenu@@UBE?AVQSize@@XZ 00475748 f   qt-mt323:qt-mt323.dll
 0002:0004c74e       ?sizeHint@QTextEdit@@UBE?AVQSize@@XZ 0047574e f   qt-mt323:qt-mt323.dll
 0002:0004c754       ?sizeHint@QWidget@@UBE?AVQSize@@XZ 00475754 f   qt-mt323:qt-mt323.dll
 0002:0004c75a       ?styleChange@QMainWindow@@MAEXAAVQStyle@@@Z 0047575a f   qt-mt323:qt-mt323.dll
 0002:0004c760       ?styleChange@QMenuBar@@MAEXAAVQStyle@@@Z 00475760 f   qt-mt323:qt-mt323.dll
 0002:0004c766       ?styleChange@QPopupMenu@@MAEXAAVQStyle@@@Z 00475766 f   qt-mt323:qt-mt323.dll
 0002:0004c76c       ?styleChange@QScrollView@@UAEXAAVQStyle@@@Z 0047576c f   qt-mt323:qt-mt323.dll
 0002:0004c772       ?sync@QTextEdit@@UAEXXZ    00475772 f   qt-mt323:qt-mt323.dll
 0002:0004c778       ?timerEvent@QPopupMenu@@MAEXPAVQTimerEvent@@@Z 00475778 f   qt-mt323:qt-mt323.dll
 0002:0004c77e       ?undo@QTextEdit@@UAEXXZ    0047577e f   qt-mt323:qt-mt323.dll
 0002:0004c784       ?updateItem@QMenuBar@@UAEXH@Z 00475784 f   qt-mt323:qt-mt323.dll
 0002:0004c78a       ?updateItem@QPopupMenu@@UAEXH@Z 0047578a f   qt-mt323:qt-mt323.dll
 0002:0004c790       ?viewportContextMenuEvent@QScrollView@@MAEXPAVQContextMenuEvent@@@Z 00475790 f   qt-mt323:qt-mt323.dll
 0002:0004c796       ?viewportDragEnterEvent@QScrollView@@MAEXPAVQDragEnterEvent@@@Z 00475796 f   qt-mt323:qt-mt323.dll
 0002:0004c79c       ?viewportDragLeaveEvent@QScrollView@@MAEXPAVQDragLeaveEvent@@@Z 0047579c f   qt-mt323:qt-mt323.dll
 0002:0004c7a2       ?viewportDragMoveEvent@QScrollView@@MAEXPAVQDragMoveEvent@@@Z 004757a2 f   qt-mt323:qt-mt323.dll
 0002:0004c7a8       ?viewportDropEvent@QScrollView@@MAEXPAVQDropEvent@@@Z 004757a8 f   qt-mt323:qt-mt323.dll
 0002:0004c7ae       ?viewportMouseDoubleClickEvent@QScrollView@@MAEXPAVQMouseEvent@@@Z 004757ae f   qt-mt323:qt-mt323.dll
 0002:0004c7b4       ?viewportMouseMoveEvent@QScrollView@@MAEXPAVQMouseEvent@@@Z 004757b4 f   qt-mt323:qt-mt323.dll
 0002:0004c7ba       ?viewportMousePressEvent@QScrollView@@MAEXPAVQMouseEvent@@@Z 004757ba f   qt-mt323:qt-mt323.dll
 0002:0004c7c0       ?viewportMouseReleaseEvent@QScrollView@@MAEXPAVQMouseEvent@@@Z 004757c0 f   qt-mt323:qt-mt323.dll
 0002:0004c7c6       ?viewportPaintEvent@QScrollView@@MAEXPAVQPaintEvent@@@Z 004757c6 f   qt-mt323:qt-mt323.dll
 0002:0004c7cc       ?viewportResizeEvent@QTextEdit@@MAEXPAVQResizeEvent@@@Z 004757cc f   qt-mt323:qt-mt323.dll
 0002:0004c7d2       ?viewportWheelEvent@QScrollView@@MAEXPAVQWheelEvent@@@Z 004757d2 f   qt-mt323:qt-mt323.dll
 0002:0004c7d8       ?whatsThis@QMainWindow@@UAEXXZ 004757d8 f   qt-mt323:qt-mt323.dll
 0002:0004c7de       ?wheelEvent@QScrollView@@MAEXPAVQWheelEvent@@@Z 004757de f   qt-mt323:qt-mt323.dll
 0002:0004c7e4       ?windowActivationChange@QTextEdit@@MAEX_N@Z 004757e4 f   qt-mt323:qt-mt323.dll
 0002:0004c7ea       ?zoomIn@QTextEdit@@UAEXH@Z 004757ea f   qt-mt323:qt-mt323.dll
 0002:0004c7f0       ?zoomIn@QTextEdit@@UAEXXZ  004757f0 f   qt-mt323:qt-mt323.dll
 0002:0004c7f6       ?zoomOut@QTextEdit@@UAEXH@Z 004757f6 f   qt-mt323:qt-mt323.dll
 0002:0004c7fc       ?zoomOut@QTextEdit@@UAEXXZ 004757fc f   qt-mt323:qt-mt323.dll
 0002:0004c802       ?zoomTo@QTextEdit@@UAEXH@Z 00475802 f   qt-mt323:qt-mt323.dll
 0002:0004c808       ??0QChar@@QAE@D@Z          00475808 f   qt-mt323:qt-mt323.dll
 0002:0004c80e       ??0QString@@QAE@XZ         0047580e f   qt-mt323:qt-mt323.dll
 0002:0004c814       ??4QString@@QAEAAV0@ABV0@@Z 00475814 f   qt-mt323:qt-mt323.dll
 0002:0004c81a       ?arg@QString@@QBE?AV1@HHH@Z 0047581a f   qt-mt323:qt-mt323.dll
 0002:0004c820       ?arg@QString@@QBE?AV1@IHH@Z 00475820 f   qt-mt323:qt-mt323.dll
 0002:0004c826       ?mid@QString@@QBE?AV1@II@Z 00475826 f   qt-mt323:qt-mt323.dll
 0002:0004c82c       ?rightJustify@QString@@QBE?AV1@IVQChar@@_N@Z 0047582c f   qt-mt323:qt-mt323.dll
 0002:0004c832       ?toInt@QString@@QBEHPA_NH@Z 00475832 f   qt-mt323:qt-mt323.dll
 0002:0004c838       ?latin1@QString@@QBEPBDXZ  00475838 f   qt-mt323:qt-mt323.dll
 0002:0004c83e       ??BQString@@QBEPBDXZ       0047583e f   qt-mt323:qt-mt323.dll
 0002:0004c844       ??H@YA?BVQString@@ABV0@0@Z 00475844 f   qt-mt323:qt-mt323.dll
 0002:0004c84a       ??H@YA?BVQString@@ABV0@PBD@Z 0047584a f   qt-mt323:qt-mt323.dll
 0002:0004c850       ??H@YA?BVQString@@PBDABV0@@Z 00475850 f   qt-mt323:qt-mt323.dll
 0002:0004c856       ??9?$QValueListIterator@VQString@@@@QBE_NABV0@@Z 00475856 f   qt-mt323:qt-mt323.dll
 0002:0004c85c       ??D?$QValueListIterator@VQString@@@@QAEAAVQString@@XZ 0047585c f   qt-mt323:qt-mt323.dll
 0002:0004c862       ??E?$QValueListIterator@VQString@@@@QAEAAV0@XZ 00475862 f   qt-mt323:qt-mt323.dll
 0002:0004c868       ?begin@?$QValueList@VQString@@@@QAE?AV?$QValueListIterator@VQString@@@@XZ 00475868 f   qt-mt323:qt-mt323.dll
 0002:0004c86e       ?end@?$QValueList@VQString@@@@QAE?AV?$QValueListIterator@VQString@@@@XZ 0047586e f   qt-mt323:qt-mt323.dll
 0002:0004c874       ?count@QGList@@UBEIXZ      00475874 f   qt-mt323:qt-mt323.dll
 0002:0004c87a       ??0QGList@@IAE@XZ          0047587a f   qt-mt323:qt-mt323.dll
 0002:0004c880       ??1QGList@@MAE@XZ          00475880 f   qt-mt323:qt-mt323.dll
 0002:0004c886       ?append@QGList@@IAEXPAX@Z  00475886 f   qt-mt323:qt-mt323.dll
 0002:0004c88c       ?takeFirst@QGList@@IAEPAXXZ 0047588c f   qt-mt323:qt-mt323.dll
 0002:0004c892       ?clear@QGList@@MAEXXZ      00475892 f   qt-mt323:qt-mt323.dll
 0002:0004c898       ??1QStringList@@QAE@XZ     00475898 f   qt-mt323:qt-mt323.dll
 0002:0004c89e       ?startTimer@QObject@@QAEHH@Z 0047589e f   qt-mt323:qt-mt323.dll
 0002:0004c8a4       ?disconnect@QObject@@SA_NPBV1@PBD01@Z 004758a4 f   qt-mt323:qt-mt323.dll
 0002:0004c8aa       ?winId@QWidget@@QBEPAUHWND__@@XZ 004758aa f   qt-mt323:qt-mt323.dll
 0002:0004c8b0       ?close@QWidget@@QAE_NXZ    004758b0 f   qt-mt323:qt-mt323.dll
 0002:0004c8b6       ??0QFile@@QAE@ABVQString@@@Z 004758b6 f   qt-mt323:qt-mt323.dll
 0002:0004c8bc       ??1QFile@@UAE@XZ           004758bc f   qt-mt323:qt-mt323.dll
 0002:0004c8c2       ?exists@QFile@@SA_NABVQString@@@Z 004758c2 f   qt-mt323:qt-mt323.dll
 0002:0004c8c8       ?open@QFile@@UAE_NH@Z      004758c8 f   qt-mt323:qt-mt323.dll
 0002:0004c8ce       ?readBlock@QFile@@UAEJPADK@Z 004758ce f   qt-mt323:qt-mt323.dll
 0002:0004c8d4       ?writeBlock@QFile@@UAEJPBDK@Z 004758d4 f   qt-mt323:qt-mt323.dll
 0002:0004c8da       ??OQDateTime@@QBE_NABV0@@Z 004758da f   qt-mt323:qt-mt323.dll
 0002:0004c8e0       ??0QFileInfo@@QAE@ABVQString@@@Z 004758e0 f   qt-mt323:qt-mt323.dll
 0002:0004c8e6       ??1QFileInfo@@QAE@XZ       004758e6 f   qt-mt323:qt-mt323.dll
 0002:0004c8ec       ?baseName@QFileInfo@@QBE?AVQString@@_N@Z 004758ec f   qt-mt323:qt-mt323.dll
 0002:0004c8f2       ?lastModified@QFileInfo@@QBE?AVQDateTime@@XZ 004758f2 f   qt-mt323:qt-mt323.dll
 0002:0004c8f8       ??0QDir@@QAE@XZ            004758f8 f   qt-mt323:qt-mt323.dll
 0002:0004c8fe       ??0QDir@@QAE@ABVQString@@0HH@Z 004758fe f   qt-mt323:qt-mt323.dll
 0002:0004c904       ??1QDir@@UAE@XZ            00475904 f   qt-mt323:qt-mt323.dll
 0002:0004c90a       ?absPath@QDir@@UBE?AVQString@@XZ 0047590a f   qt-mt323:qt-mt323.dll
 0002:0004c910       ?entryList@QDir@@UBE?AVQStringList@@ABVQString@@HH@Z 00475910 f   qt-mt323:qt-mt323.dll
 0002:0004c916       ?rename@QDir@@UAE_NABVQString@@0_N@Z 00475916 f   qt-mt323:qt-mt323.dll
 0002:0004c91c       ??0QProcess@@QAE@PAVQObject@@PBD@Z 0047591c f   qt-mt323:qt-mt323.dll
 0002:0004c922       ??1QProcess@@UAE@XZ        00475922 f   qt-mt323:qt-mt323.dll
 0002:0004c928       ?tryTerminate@QProcess@@QBEXXZ 00475928 f   qt-mt323:qt-mt323.dll
 0002:0004c92e       ?setMaxLogLines@QTextEdit@@QAEXH@Z 0047592e f   qt-mt323:qt-mt323.dll
 0002:0004c934       ?exec@QDialog@@QAEHXZ      00475934 f   qt-mt323:qt-mt323.dll
 0002:0004c93a       ?information@QMessageBox@@SAHPAVQWidget@@ABVQString@@1111HH@Z 0047593a f   qt-mt323:qt-mt323.dll
 0002:0004c940       ??0QKeySequence@@QAE@H@Z   00475940 f   qt-mt323:qt-mt323.dll
 0002:0004c946       ?compareItems@QGList@@MAEHPAX0@Z 00475946 f   qt-mt323:qt-mt323.dll
 0002:0004c94c       ?newItem@QPtrCollection@@MAEPAXPAX@Z 0047594c f   qt-mt323:qt-mt323.dll
 0002:0004c952       ?read@QGList@@MAEAAVQDataStream@@AAV2@AAPAX@Z 00475952 f   qt-mt323:qt-mt323.dll
 0002:0004c958       ?write@QGList@@MBEAAVQDataStream@@AAV2@PAX@Z 00475958 f   qt-mt323:qt-mt323.dll
 0002:0004c95e       ?qDebug@@YAXPBDZZ          0047595e f   qt-mt323:qt-mt323.dll
 0002:0004c964       ??4QString@@QAEAAV0@PBD@Z  00475964 f   qt-mt323:qt-mt323.dll
 0002:0004c96a       ?length@QString@@QBEIXZ    0047596a f   qt-mt323:qt-mt323.dll
 0002:0004c970       ?arg@QString@@QBE?AV1@DH@Z 00475970 f   qt-mt323:qt-mt323.dll
 0002:0004c976       ?sprintf@QString@@QAAAAV1@PBDZZ 00475976 f   qt-mt323:qt-mt323.dll
 0002:0004c97c       ?contains@QString@@QBEHD_N@Z 0047597c f   qt-mt323:qt-mt323.dll
 0002:0004c982       ?remove@QString@@QAEAAV1@PBD@Z 00475982 f   qt-mt323:qt-mt323.dll
 0002:0004c988       ??YQString@@QAEAAV0@ABV0@@Z 00475988 f   qt-mt323:qt-mt323.dll
 0002:0004c98e       ?ascii@QString@@QBEPBDXZ   0047598e f   qt-mt323:qt-mt323.dll
 0002:0004c994       ?startsWith@QString@@QBE_NABV1@@Z 00475994 f   qt-mt323:qt-mt323.dll
 0002:0004c99a       ??8@YA_NABVQString@@PBD@Z  0047599a f   qt-mt323:qt-mt323.dll
 0002:0004c9a0       ??0QHostAddress@@QAE@I@Z   004759a0 f   qt-mt323:qt-mt323.dll
 0002:0004c9a6       ??1QHostAddress@@UAE@XZ    004759a6 f   qt-mt323:qt-mt323.dll
 0002:0004c9ac       ?toString@QHostAddress@@QBE?AVQString@@XZ 004759ac f   qt-mt323:qt-mt323.dll
 0002:0004c9b2       ??0QSocket@@QAE@PAVQObject@@PBD@Z 004759b2 f   qt-mt323:qt-mt323.dll
 0002:0004c9b8       ??1QSocket@@UAE@XZ         004759b8 f   qt-mt323:qt-mt323.dll
 0002:0004c9be       ?canReadLine@QSocket@@QBE_NXZ 004759be f   qt-mt323:qt-mt323.dll
 0002:0004c9c4       ?at@QSocket@@UAE_NK@Z      004759c4 f   qt-mt323:qt-mt323.dll
 0002:0004c9ca       ?at@QSocket@@UBEKXZ        004759ca f   qt-mt323:qt-mt323.dll
 0002:0004c9d0       ?atEnd@QSocket@@UBE_NXZ    004759d0 f   qt-mt323:qt-mt323.dll
 0002:0004c9d6       ?close@QSocket@@UAEXXZ     004759d6 f   qt-mt323:qt-mt323.dll
 0002:0004c9dc       ?connectToHost@QSocket@@UAEXABVQString@@G@Z 004759dc f   qt-mt323:qt-mt323.dll
 0002:0004c9e2       ?flush@QSocket@@UAEXXZ     004759e2 f   qt-mt323:qt-mt323.dll
 0002:0004c9e8       ?getch@QSocket@@UAEHXZ     004759e8 f   qt-mt323:qt-mt323.dll
 0002:0004c9ee       ?open@QSocket@@UAE_NH@Z    004759ee f   qt-mt323:qt-mt323.dll
 0002:0004c9f4       ?putch@QSocket@@UAEHH@Z    004759f4 f   qt-mt323:qt-mt323.dll
 0002:0004c9fa       ?readAll@QIODevice@@UAE?AV?$QMemArray@D@@XZ 004759fa f   qt-mt323:qt-mt323.dll
 0002:0004ca00       ?readBlock@QSocket@@UAEJPADK@Z 00475a00 f   qt-mt323:qt-mt323.dll
 0002:0004ca06       ?readLine@QSocket@@UAE?AVQString@@XZ 00475a06 f   qt-mt323:qt-mt323.dll
 0002:0004ca0c       ?readLine@QSocket@@UAEJPADK@Z 00475a0c f   qt-mt323:qt-mt323.dll
 0002:0004ca12       ?setSocket@QSocket@@UAEXH@Z 00475a12 f   qt-mt323:qt-mt323.dll
 0002:0004ca18       ?setSocketDevice@QSocket@@UAEXPAVQSocketDevice@@@Z 00475a18 f   qt-mt323:qt-mt323.dll
 0002:0004ca1e       ?size@QSocket@@UBEKXZ      00475a1e f   qt-mt323:qt-mt323.dll
 0002:0004ca24       ?sn_read@QSocket@@MAEX_N@Z 00475a24 f   qt-mt323:qt-mt323.dll
 0002:0004ca2a       ?sn_write@QSocket@@MAEXXZ  00475a2a f   qt-mt323:qt-mt323.dll
 0002:0004ca30       ?ungetch@QSocket@@UAEHH@Z  00475a30 f   qt-mt323:qt-mt323.dll
 0002:0004ca36       ?writeBlock@QSocket@@UAEJPBDK@Z 00475a36 f   qt-mt323:qt-mt323.dll
 0002:0004ca3c       ??0QApplication@@QAE@AAHPAPAD@Z 00475a3c f   qt-mt323:qt-mt323.dll
 0002:0004ca42       ??1QApplication@@UAE@XZ    00475a42 f   qt-mt323:qt-mt323.dll
 0002:0004ca48       ?setMainWidget@QApplication@@UAEXPAVQWidget@@@Z 00475a48 f   qt-mt323:qt-mt323.dll
 0002:0004ca4e       ?exec@QApplication@@QAEHXZ 00475a4e f   qt-mt323:qt-mt323.dll
 0002:0004ca54       ??9@YA_NABVQString@@0@Z    00475a54 f   qt-mt323:qt-mt323.dll
 0002:0004ca5a       ??A?$QValueList@VQString@@@@QAEAAVQString@@I@Z 00475a5a f   qt-mt323:qt-mt323.dll
 0002:0004ca60       ?count@?$QValueList@VQString@@@@QBEIXZ 00475a60 f   qt-mt323:qt-mt323.dll
 0002:0004ca66       ?type@QEvent@@QBE?AW4Type@1@XZ 00475a66 f   qt-mt323:qt-mt323.dll
 0002:0004ca6c       ??0QCustomEvent@@QAE@H@Z   00475a6c f   qt-mt323:qt-mt323.dll
 0002:0004ca72       ??1QCustomEvent@@UAE@XZ    00475a72 f   qt-mt323:qt-mt323.dll
 0002:0004ca78       ??0QObject@@QAE@PAV0@PBD@Z 00475a78 f   qt-mt323:qt-mt323.dll
 0002:0004ca7e       ??1QObject@@UAE@XZ         00475a7e f   qt-mt323:qt-mt323.dll
 0002:0004ca84       ?split@QStringList@@SA?AV1@ABVQString@@0_N@Z 00475a84 f   qt-mt323:qt-mt323.dll
 0002:0004ca8a       ?split@QStringList@@SA?AV1@ABVQChar@@ABVQString@@_N@Z 00475a8a f   qt-mt323:qt-mt323.dll
 0002:0004ca90       ?postEvent@QApplication@@SAXPAVQObject@@PAVQEvent@@@Z 00475a90 f   qt-mt323:qt-mt323.dll
 0002:0004ca96       ?qstrcmp@@YAHPBD0@Z        00475a96 f   qt-mt323:qt-mt323.dll
 0002:0004ca9c       ?fromLatin1@QString@@SA?AV1@PBDH@Z 00475a9c f   qt-mt323:qt-mt323.dll
 0002:0004caa2       ?fromUtf8@QString@@SA?AV1@PBDH@Z 00475aa2 f   qt-mt323:qt-mt323.dll
 0002:0004caa8       ?qt_cast@QDialog@@UAEPAXPBD@Z 00475aa8 f   qt-mt323:qt-mt323.dll
 0002:0004caae       ?qt_invoke@QDialog@@UAE_NHPAUQUObject@@@Z 00475aae f   qt-mt323:qt-mt323.dll
 0002:0004cab4       ?qt_emit@QDialog@@UAE_NHPAUQUObject@@@Z 00475ab4 f   qt-mt323:qt-mt323.dll
 0002:0004caba       ?qt_property@QDialog@@UAE_NHHPAVQVariant@@@Z 00475aba f   qt-mt323:qt-mt323.dll
 0002:0004cac0       ?staticMetaObject@QDialog@@SAPAVQMetaObject@@XZ 00475ac0 f   qt-mt323:qt-mt323.dll
 0002:0004cac6       ?slotOffset@QMetaObject@@QBEHXZ 00475ac6 f   qt-mt323:qt-mt323.dll
 0002:0004cacc       ?new_metaobject@QMetaObject@@SAPAV1@PBDPAV1@QBUQMetaData@@H2HQBVQMetaProperty@@HQBUQMetaEnum@@HQBUQClassInfo@@H@Z 00475acc f   qt-mt323:qt-mt323.dll
 0002:0004cad2       ??0QMetaObjectCleanUp@@QAE@PBDP6APAVQMetaObject@@XZ@Z 00475ad2 f   qt-mt323:qt-mt323.dll
 0002:0004cad8       ??1QMetaObjectCleanUp@@QAE@XZ 00475ad8 f   qt-mt323:qt-mt323.dll
 0002:0004cade       ?setMetaObject@QMetaObjectCleanUp@@QAEXAAPAVQMetaObject@@@Z 00475ade f   qt-mt323:qt-mt323.dll
 0002:0004cae4       ?translate@QApplication@@QBE?AVQString@@PBD00W4Encoding@1@@Z 00475ae4 f   qt-mt323:qt-mt323.dll
 0002:0004caea       ?qt_cast@QMainWindow@@UAEPAXPBD@Z 00475aea f   qt-mt323:qt-mt323.dll
 0002:0004caf0       ?qt_invoke@QMainWindow@@UAE_NHPAUQUObject@@@Z 00475af0 f   qt-mt323:qt-mt323.dll
 0002:0004caf6       ?qt_emit@QMainWindow@@UAE_NHPAUQUObject@@@Z 00475af6 f   qt-mt323:qt-mt323.dll
 0002:0004cafc       ?qt_property@QMainWindow@@UAE_NHHPAVQVariant@@@Z 00475afc f   qt-mt323:qt-mt323.dll
 0002:0004cb02       ?staticMetaObject@QMainWindow@@SAPAVQMetaObject@@XZ 00475b02 f   qt-mt323:qt-mt323.dll
 0002:0004cb08       ?get@QUType_ptr@@QAEAAPAXPAUQUObject@@@Z 00475b08 f   qt-mt323:qt-mt323.dll
 0002:0004cb0e       ?get@QUType_bool@@QAEAA_NPAUQUObject@@@Z 00475b0e f   qt-mt323:qt-mt323.dll
 0002:0004cb14       ?get@QUType_QString@@QAEAAVQString@@PAUQUObject@@@Z 00475b14 f   qt-mt323:qt-mt323.dll
 0002:0004cb1a       ??0QString@@QAE@ABV0@@Z    00475b1a f   qt-mt323:qt-mt323.dll
 0002:0004cb20       ?signalsBlocked@QObject@@QBE_NXZ 00475b20 f   qt-mt323:qt-mt323.dll
 0002:0004cb26       ?receivers@QObject@@IBEPAVQConnectionList@@H@Z 00475b26 f   qt-mt323:qt-mt323.dll
 0002:0004cb2c       ?activate_signal@QObject@@IAEXHVQString@@@Z 00475b2c f   qt-mt323:qt-mt323.dll
 0002:0004cb32       ?activate_signal_bool@QObject@@IAEXH_N@Z 00475b32 f   qt-mt323:qt-mt323.dll
 0002:0004cb38       ?activate_signal@QObject@@IAEXPAVQConnectionList@@PAUQUObject@@@Z 00475b38 f   qt-mt323:qt-mt323.dll
 0002:0004cb3e       ?qt_cast@QSocket@@UAEPAXPBD@Z 00475b3e f   qt-mt323:qt-mt323.dll
 0002:0004cb44       ?qt_invoke@QSocket@@UAE_NHPAUQUObject@@@Z 00475b44 f   qt-mt323:qt-mt323.dll
 0002:0004cb4a       ?qt_emit@QSocket@@UAE_NHPAUQUObject@@@Z 00475b4a f   qt-mt323:qt-mt323.dll
 0002:0004cb50       ?qt_property@QSocket@@UAE_NHHPAVQVariant@@@Z 00475b50 f   qt-mt323:qt-mt323.dll
 0002:0004cb56       ?staticMetaObject@QSocket@@SAPAVQMetaObject@@XZ 00475b56 f   qt-mt323:qt-mt323.dll
 0002:0004cb5c       ?signalOffset@QMetaObject@@QBEHXZ 00475b5c f   qt-mt323:qt-mt323.dll
 0002:0004cb62       ??0QUObject@@QAE@XZ        00475b62 f   qt-mt323:qt-mt323.dll
 0002:0004cb68       ??1QUObject@@QAE@XZ        00475b68 f   qt-mt323:qt-mt323.dll
 0002:0004cb6e       ?set@QUType_ptr@@QAEXPAUQUObject@@PBX@Z 00475b6e f   qt-mt323:qt-mt323.dll
 0002:0004cb74       ?set@QUType_bool@@QAEXPAUQUObject@@_N@Z 00475b74 f   qt-mt323:qt-mt323.dll
 0002:0004cb7a       ?set@QUType_int@@QAEXPAUQUObject@@H@Z 00475b7a f   qt-mt323:qt-mt323.dll
 0002:0004cb80       ?get@QUType_int@@QAEAAHPAUQUObject@@@Z 00475b80 f   qt-mt323:qt-mt323.dll
 0002:0004cb86       ?set@QUType_QString@@QAEXPAUQUObject@@ABVQString@@@Z 00475b86 f   qt-mt323:qt-mt323.dll
 0002:0004cb8c       ?qt_cast@QObject@@UAEPAXPBD@Z 00475b8c f   qt-mt323:qt-mt323.dll
 0002:0004cb92       ?qt_invoke@QObject@@UAE_NHPAUQUObject@@@Z 00475b92 f   qt-mt323:qt-mt323.dll
 0002:0004cb98       ?qt_emit@QObject@@UAE_NHPAUQUObject@@@Z 00475b98 f   qt-mt323:qt-mt323.dll
 0002:0004cb9e       ?qt_property@QObject@@UAE_NHHPAVQVariant@@@Z 00475b9e f   qt-mt323:qt-mt323.dll
 0002:0004cba4       ?staticMetaObject@QObject@@SAPAVQMetaObject@@XZ 00475ba4 f   qt-mt323:qt-mt323.dll
 0002:0004cbaa       _GetWindowsDirectoryA@8    00475baa f   kernel32:KERNEL32.dll
 0002:0004cbb0       _GetModuleFileNameA@12     00475bb0 f   kernel32:KERNEL32.dll
 0002:0004cbb6       _GetPrivateProfileIntA@16  00475bb6 f   kernel32:KERNEL32.dll
 0002:0004cbbc       _GetPrivateProfileStringA@24 00475bbc f   kernel32:KERNEL32.dll
 0002:0004cbc2       _WritePrivateProfileStringA@16 00475bc2 f   kernel32:KERNEL32.dll
 0002:0004cbc8       _OutputDebugStringA@4      00475bc8 f   kernel32:KERNEL32.dll
 0002:0004cbce       _GetProcAddress@8          00475bce f   kernel32:KERNEL32.dll
 0002:0004cbd4       _LoadLibraryA@4            00475bd4 f   kernel32:KERNEL32.dll
 0002:0004cbda       _lstrcpynA@12              00475bda f   kernel32:KERNEL32.dll
 0002:0004cbe0       _GetWindowLongA@8          00475be0 f   user32:USER32.dll
 0002:0004cbe6       _SendMessageA@16           00475be6 f   user32:USER32.dll
 0002:0004cbec       _DefWindowProcA@16         00475bec f   user32:USER32.dll
 0002:0004cbf2       _RegisterClassExA@4        00475bf2 f   user32:USER32.dll
 0002:0004cbf8       _CreateWindowExA@48        00475bf8 f   user32:USER32.dll
 0002:0004cbfe       _DestroyWindow@4           00475bfe f   user32:USER32.dll
 0002:0004cc04       _SetWindowLongA@12         00475c04 f   user32:USER32.dll
 0002:0004cc0a       _wsprintfA                 00475c0a f   user32:USER32.dll
 0002:0004cc10       _RegCloseKey@4             00475c10 f   advapi32:ADVAPI32.dll
 0002:0004cc16       _RegQueryValueExA@24       00475c16 f   advapi32:ADVAPI32.dll
 0002:0004cc1c       _RegOpenKeyExA@20          00475c1c f   advapi32:ADVAPI32.dll
 0002:0004cc22       ??2@YAPAXI@Z               00475c22 f   MSVCRTD:MSVCR120D.dll
 0002:0004cc28       ??3@YAXPAX@Z               00475c28 f   MSVCRTD:MSVCR120D.dll
 0002:0004cc30       @__security_check_cookie@4 00475c30 f   MSVCRTD:secchk.obj
 0002:0004cc50       @_RTC_AllocaHelper@12      00475c50 f   MSVCRTD:stack.obj
 0002:0004cc90       @_RTC_CheckStackVars2@12   00475c90 f   MSVCRTD:stack.obj
 0002:0004cda0       @_RTC_CheckStackVars@8     00475da0 f   MSVCRTD:stack.obj
 0002:0004ce10       __RTC_CheckEsp             00475e10 f   MSVCRTD:stack.obj
 0002:0004ce40       __RTC_InitBase             00475e40 f   MSVCRTD:init.obj
 0002:0004ce80       __RTC_Shutdown             00475e80 f   MSVCRTD:init.obj
 0002:0004ce98       ___CxxFrameHandler3        00475e98 f   MSVCRTD:MSVCR120D.dll
 0002:0004cea0       ??0type_info@@AAE@ABV0@@Z  00475ea0 f   MSVCRTD:ti_inst.obj
 0002:0004cec0       ??4type_info@@AAEAAV0@ABV0@@Z 00475ec0 f   MSVCRTD:ti_inst.obj
 0002:0004cee0       ??_Etype_info@@UAEPAXI@Z   00475ee0 f i MSVCRTD:ti_inst.obj
 0002:0004cf64       __invalid_parameter        00475f64 f   MSVCRTD:MSVCR120D.dll
 0002:0004cf6a       _strcpy                    00475f6a f   MSVCRTD:MSVCR120D.dll
 0002:0004cf70       _strcat                    00475f70 f   MSVCRTD:MSVCR120D.dll
 0002:0004cf76       _strlen                    00475f76 f   MSVCRTD:MSVCR120D.dll
 0002:0004cf7c       __strlwr                   00475f7c f   MSVCRTD:MSVCR120D.dll
 0002:0004cf82       _strstr                    00475f82 f   MSVCRTD:MSVCR120D.dll
 0002:0004cf88       _sprintf                   00475f88 f   MSVCRTD:MSVCR120D.dll
 0002:0004cf8e       _getenv                    00475f8e f   MSVCRTD:MSVCR120D.dll
 0002:0004cf94       __putenv                   00475f94 f   MSVCRTD:MSVCR120D.dll
 0002:0004cf9a       __hypot                    00475f9a f   MSVCRTD:MSVCR120D.dll
 0002:0004cfa0       ??_V@YAXPAX@Z              00475fa0 f   MSVCRTD:MSVCR120D.dll
 0002:0004cfa6       ??_U@YAPAXI@Z              00475fa6 f   MSVCRTD:MSVCR120D.dll
 0002:0004cfac       __CrtDbgReportW            00475fac f   MSVCRTD:MSVCR120D.dll
 0002:0004cfb2       __CxxThrowException@8      00475fb2 f   MSVCRTD:MSVCR120D.dll
 0002:0004cfc0       __alloca_probe             00475fc0 f   MSVCRTD:chkstk.obj
 0002:0004cfc0       __chkstk                   00475fc0 f   MSVCRTD:chkstk.obj
 0002:0004d000       _strcmp                    00476000 f   MSVCRTD:MSVCR120D.dll
 0002:0004d006       _atoi                      00476006 f   MSVCRTD:MSVCR120D.dll
 0002:0004d00c       __purecall                 0047600c f   MSVCRTD:MSVCR120D.dll
 0002:0004d020       ___atonexitinit            00476020 f   MSVCRTD:atonexit.obj
 0002:0004d100       __onexit                   00476100 f   MSVCRTD:atonexit.obj
 0002:0004d240       _atexit                    00476240 f   MSVCRTD:atonexit.obj
 0002:0004d276       _memcpy                    00476276 f   MSVCRTD:MSVCR120D.dll
 0002:0004d27c       _memset                    0047627c f   MSVCRTD:MSVCR120D.dll
 0002:0004d282       _memmove                   00476282 f   MSVCRTD:MSVCR120D.dll
 0002:0004d288       __stricmp                  00476288 f   MSVCRTD:MSVCR120D.dll
 0002:0004d290       ??_L@YGXPAXIHP6EX0@Z1@Z    00476290 f   MSVCRTD:ehvecctr.obj
 0002:0004d370       ??_M@YGXPAXIHP6EX0@Z@Z     00476370 f   MSVCRTD:ehvecdtr.obj
 0002:0004d490       ?__ArrayUnwind@@YGXPAXIHP6EX0@Z@Z 00476490 f   MSVCRTD:ehvecdtr.obj
 0002:0004d660       _NtCurrentTeb              00476660 f i MSVCRTD:crtexew.obj
 0002:0004d670       _WinMainCRTStartup         00476670 f   MSVCRTD:crtexew.obj
 0002:0004dad2       _strncpy                   00476ad2 f   MSVCRTD:MSVCR120D.dll
 0002:0004dae0       ___raise_securityfailure   00476ae0 f   MSVCRTD:gs_report.obj
 0002:0004db40       ___report_gsfailure        00476b40 f   MSVCRTD:gs_report.obj
 0002:0004dc90       ___report_rangecheckfailure 00476c90 f   MSVCRTD:gs_report.obj
 0002:0004dca0       ___report_securityfailure  00476ca0 f   MSVCRTD:gs_report.obj
 0002:0004ddb0       ___report_securityfailureEx 00476db0 f   MSVCRTD:gs_report.obj
 0002:0004df1e       _memcmp                    00476f1e f   MSVCRTD:MSVCR120D.dll
 0002:0004df24       _strchr                    00476f24 f   MSVCRTD:MSVCR120D.dll
 0002:0004df2a       _strncmp                   00476f2a f   MSVCRTD:MSVCR120D.dll
 0002:0004df30       _fclose                    00476f30 f   MSVCRTD:MSVCR120D.dll
 0002:0004df36       _fgets                     00476f36 f   MSVCRTD:MSVCR120D.dll
 0002:0004df3c       _fopen                     00476f3c f   MSVCRTD:MSVCR120D.dll
 0002:0004df42       _fopen_s                   00476f42 f   MSVCRTD:MSVCR120D.dll
 0002:0004df48       _fputs                     00476f48 f   MSVCRTD:MSVCR120D.dll
 0002:0004df4e       _strpbrk                   00476f4e f   MSVCRTD:MSVCR120D.dll
 0002:0004df54       _free                      00476f54 f   MSVCRTD:MSVCR120D.dll
 0002:0004df5a       _malloc                    00476f5a f   MSVCRTD:MSVCR120D.dll
 0002:0004df60       _sscanf                    00476f60 f   MSVCRTD:MSVCR120D.dll
 0002:0004e110       ?_RTC_AllocaFailure@@YAXPAXPAU_RTC_ALLOCA_NODE@@H@Z 00477110 f   MSVCRTD:error.obj
 0002:0004e2f0       ?_RTC_Failure@@YAXPAXH@Z   004772f0 f   MSVCRTD:error.obj
 0002:0004e360       ?_RTC_StackFailure@@YAXPAXPBD@Z 00477360 f   MSVCRTD:error.obj
 0002:0004e7c0       __RTC_UninitUse            004777c0 f   MSVCRTD:error.obj
 0002:0004e8f0       ?_RTC_GetErrorFunc@@YAP6AHHPBDH00ZZPBX@Z 004778f0 f   MSVCRTD:userapi.obj
 0002:0004e900       ?_RTC_GetErrorFuncW@@YAP6AHHPB_WH00ZZPBX@Z 00477900 f   MSVCRTD:userapi.obj
 0002:0004e910       __RTC_GetErrDesc           00477910 f   MSVCRTD:userapi.obj
 0002:0004e930       __RTC_NumErrors            00477930 f   MSVCRTD:userapi.obj
 0002:0004e940       __RTC_SetErrorFunc         00477940 f   MSVCRTD:userapi.obj
 0002:0004e970       __RTC_SetErrorFuncW        00477970 f   MSVCRTD:userapi.obj
 0002:0004e9a0       __RTC_SetErrorType         004779a0 f   MSVCRTD:userapi.obj
 0002:0004e9cc       __CRT_RTC_INITW            004779cc f   MSVCRTD:MSVCR120D.dll
 0002:0004e9d2       ??1type_info@@UAE@XZ       004779d2 f   MSVCRTD:MSVCR120D.dll
 0002:0004e9d8       __lock                     004779d8 f   MSVCRTD:MSVCR120D.dll
 0002:0004e9de       __unlock                   004779de f   MSVCRTD:MSVCR120D.dll
 0002:0004e9e4       __calloc_dbg               004779e4 f   MSVCRTD:MSVCR120D.dll
 0002:0004e9ea       ___dllonexit               004779ea f   MSVCRTD:MSVCR120D.dll
 0002:0004e9f0       __except_handler4          004779f0 f   MSVCRTD:chandler4gs.obj
 0002:0004ea20       ?terminate@@YAXXZ          00477a20 f   MSVCRTD:MSVCR120D.dll
 0002:0004ea30       ?__CxxUnhandledExceptionFilter@@YGJPAU_EXCEPTION_POINTERS@@@Z 00477a30 f   MSVCRTD:unhandld.obj
 0002:0004eab0       ___CxxSetUnhandledExceptionFilter 00477ab0 f   MSVCRTD:unhandld.obj
 0002:0004eaca       __XcptFilter               00477aca f   MSVCRTD:MSVCR120D.dll
 0002:0004ead0       ___crtGetShowWindowMode    00477ad0 f   MSVCRTD:MSVCR120D.dll
 0002:0004ead6       __amsg_exit                00477ad6 f   MSVCRTD:MSVCR120D.dll
 0002:0004eae0       __setargv                  00477ae0 f   MSVCRTD:dllargv.obj
 0002:0004eae8       ___getmainargs             00477ae8 f   MSVCRTD:MSVCR120D.dll
 0002:0004eaee       ___set_app_type            00477aee f   MSVCRTD:MSVCR120D.dll
 0002:0004eaf4       __CrtSetCheckCount         00477af4 f   MSVCRTD:MSVCR120D.dll
 0002:0004eb00       __FindPESection            00477b00 f   MSVCRTD:pesect.obj
 0002:0004eb90       __IsNonwritableInCurrentImage 00477b90 f   MSVCRTD:pesect.obj
 0002:0004ed10       __ValidateImageBase        00477d10 f   MSVCRTD:pesect.obj
 0002:0004ed84       _exit                      00477d84 f   MSVCRTD:MSVCR120D.dll
 0002:0004ed8a       __exit                     00477d8a f   MSVCRTD:MSVCR120D.dll
 0002:0004ed90       __cexit                    00477d90 f   MSVCRTD:MSVCR120D.dll
 0002:0004eda0       ___security_init_cookie    00477da0 f   MSVCRTD:gs_support.obj
 0002:0004eec0       __matherr                  00477ec0 f   MSVCRTD:merr.obj
 0002:0004eec8       __ismbblead                00477ec8 f   MSVCRTD:MSVCR120D.dll
 0002:0004eed0       __RTC_Initialize           00477ed0 f   MSVCRTD:initsect.obj
 0002:0004ef00       __RTC_Terminate            00477f00 f   MSVCRTD:initsect.obj
 0002:0004ef2e       __configthreadlocale       00477f2e f   MSVCRTD:MSVCR120D.dll
 0002:0004ef40       __invoke_watson_if_error   00477f40 f i MSVCRTD:fp8.obj
 0002:0004ef70       __setdefaultprecision      00477f70 f   MSVCRTD:fp8.obj
 0002:0004efb2       ___setusermatherr          00477fb2 f   MSVCRTD:MSVCR120D.dll
 0002:0004efb8       __initterm_e               00477fb8 f   MSVCRTD:MSVCR120D.dll
 0002:0004efbe       __initterm                 00477fbe f   MSVCRTD:MSVCR120D.dll
 0002:0004efc4       __crt_debugger_hook        00477fc4 f   MSVCRTD:MSVCR120D.dll
 0002:0004efca       ___crtUnhandledException   00477fca f   MSVCRTD:MSVCR120D.dll
 0002:0004efd0       ___crtTerminateProcess     00477fd0 f   MSVCRTD:MSVCR120D.dll
 0002:0004f540       ?_RTC_GetSrcLine@@YAHPAEPA_WKPAH1K@Z 00478540 f   MSVCRTD:pdblkup.obj
 0002:0004f89a       __except_handler4_common   0047889a f   MSVCRTD:MSVCR120D.dll
 0002:0004f8a0       ___crtSetUnhandledExceptionFilter 004788a0 f   MSVCRTD:MSVCR120D.dll
 0002:0004f8a6       __invoke_watson            004788a6 f   MSVCRTD:MSVCR120D.dll
 0002:0004f8ac       __controlfp_s              004788ac f   MSVCRTD:MSVCR120D.dll
 0002:0004f8b2       _wcscpy_s                  004788b2 f   MSVCRTD:MSVCR120D.dll
 0002:0004f8b8       __wmakepath_s              004788b8 f   MSVCRTD:MSVCR120D.dll
 0002:0004f8be       __wsplitpath_s             004788be f   MSVCRTD:MSVCR120D.dll
 0002:0004f8c4       ??0_Lockit@std@@QAE@H@Z    004788c4 f   msvcprtd:MSVCP120D.dll
 0002:0004f8ca       ??1_Lockit@std@@QAE@XZ     004788ca f   msvcprtd:MSVCP120D.dll
 0002:0004f8d0       ?_Debug_message@std@@YAXPB_W0I@Z 004788d0 f   msvcprtd:MSVCP120D.dll
 0002:0004f8d6       ??0_Container_base12@std@@QAE@XZ 004788d6 f   msvcprtd:MSVCP120D.dll
 0002:0004f8dc       ??1_Container_base12@std@@QAE@XZ 004788dc f   msvcprtd:MSVCP120D.dll
 0002:0004f8e2       ?_Getpfirst@_Container_base12@std@@QBEPAPAU_Iterator_base12@2@XZ 004788e2 f   msvcprtd:MSVCP120D.dll
 0002:0004f8e8       ?_Orphan_all@_Container_base12@std@@QAEXXZ 004788e8 f   msvcprtd:MSVCP120D.dll
 0002:0004f8ee       ?_Xbad_alloc@std@@YAXXZ    004788ee f   msvcprtd:MSVCP120D.dll
 0002:0004f8f4       ?_Xlength_error@std@@YAXPBD@Z 004788f4 f   msvcprtd:MSVCP120D.dll
 0002:0004f8fa       ?_Xout_of_range@std@@YAXPBD@Z 004788fa f   msvcprtd:MSVCP120D.dll
 0002:0004f900       ??0id@locale@std@@QAE@I@Z  00478900 f   msvcprtd:MSVCP120D.dll
 0002:0004f906       ?_Syserror_map@std@@YAPBDH@Z 00478906 f   msvcprtd:MSVCP120D.dll
 0002:0004f90c       ?_Winerror_map@std@@YAPBDH@Z 0047890c f   msvcprtd:MSVCP120D.dll
 0002:0004f912       _GetFileVersionInfoSizeA@8 00478912 f   version:VERSION.dll
 0002:0004f918       _GetFileVersionInfoA@16    00478918 f   version:VERSION.dll
 0002:0004f91e       _VerQueryValueA@16         0047891e f   version:VERSION.dll
 0002:0004f924       _EncodePointer@4           00478924 f   kernel32:KERNEL32.dll
 0002:0004f92a       _DecodePointer@4           0047892a f   kernel32:KERNEL32.dll
 0002:0004f930       _IsDebuggerPresent@0       00478930 f   kernel32:KERNEL32.dll
 0002:0004f936       _IsProcessorFeaturePresent@4 00478936 f   kernel32:KERNEL32.dll
 0002:0004f93c       _RaiseException@16         0047893c f   kernel32:KERNEL32.dll
 0002:0004f942       _GetLastError@0            00478942 f   kernel32:KERNEL32.dll
 0002:0004f948       _LoadLibraryExW@12         00478948 f   kernel32:KERNEL32.dll
 0002:0004f94e       _MultiByteToWideChar@24    0047894e f   kernel32:KERNEL32.dll
 0002:0004f954       _WideCharToMultiByte@32    00478954 f   kernel32:KERNEL32.dll
 0002:0004f95a       _QueryPerformanceCounter@4 0047895a f   kernel32:KERNEL32.dll
 0002:0004f960       _GetCurrentProcessId@0     00478960 f   kernel32:KERNEL32.dll
 0002:0004f966       _GetCurrentThreadId@0      00478966 f   kernel32:KERNEL32.dll
 0002:0004f96c       _GetSystemTimeAsFileTime@4 0047896c f   kernel32:KERNEL32.dll
 0002:0004f972       _HeapAlloc@12              00478972 f   kernel32:KERNEL32.dll
 0002:0004f978       _HeapFree@12               00478978 f   kernel32:KERNEL32.dll
 0002:0004f97e       _GetProcessHeap@0          0047897e f   kernel32:KERNEL32.dll
 0002:0004f984       _VirtualQuery@12           00478984 f   kernel32:KERNEL32.dll
 0002:0004f98a       _FreeLibrary@4             0047898a f   kernel32:KERNEL32.dll
 0002:0004f990       _GetModuleFileNameW@12     00478990 f   kernel32:KERNEL32.dll
 0002:0004f996       _GetModuleHandleW@4        00478996 f   kernel32:KERNEL32.dll
 0002:0004f99c       ?deleteData@QGArray@@MAEXPAUarray_data@1@@Z 0047899c f   qt-mt323:qt-mt323.dll
 0002:0004f9a2       ?newData@QGArray@@MAEPAUarray_data@1@XZ 004789a2 f   qt-mt323:qt-mt323.dll
 0002:0004f9a8       ??1QGArray@@MAE@XZ         004789a8 f   qt-mt323:qt-mt323.dll
 0002:0004f9ae       ?qWinMain@@YAXPAUHINSTANCE__@@0PADHAAHAAV?$QMemArray@PAD@@@Z 004789ae f   qt-mt323:qt-mt323.dll
 0002:0004f9b4       ??0QGArray@@IAE@H@Z        004789b4 f   qt-mt323:qt-mt323.dll
 0002:0004f9ba       ?duplicate@QGArray@@IAEAAV1@ABV1@@Z 004789ba f   qt-mt323:qt-mt323.dll
 0003:00000000       ___xc_a                    00482000     MSVCRTD:cinitexe.obj
 0003:000003b8       ___xc_z                    004823b8     MSVCRTD:cinitexe.obj
 0003:000004bc       ___xi_a                    004824bc     MSVCRTD:cinitexe.obj
 0003:000008cc       ___xi_z                    004828cc     MSVCRTD:cinitexe.obj
 0003:00000dd8       ??_C@_0N@HMMNGOFM@472?5186?516?51?$AA@ 00482dd8     aboutdialog.obj
 0003:00000de8       ??_C@_0M@CDBIHIAN@d?5c?5?$CD0006cb?$AA@ 00482de8     aboutdialog.obj
 0003:00000df8       ??_C@_0M@HAKOJFNB@k?5c?5?$CD1217ce?$AA@ 00482df8     aboutdialog.obj
 0003:00000e08       ??_C@_0M@IMFNDIGH@e?5c?5?$CD2328d2?$AA@ 00482e08     aboutdialog.obj
 0003:00000e18       ??_C@_0M@EAAEPBJN@i?5c?5?$CD3438d5?$AA@ 00482e18     aboutdialog.obj
 0003:00000e28       ??_C@_0M@HDHDKEKA@h?5c?5?$CD4549d9?$AA@ 00482e28     aboutdialog.obj
 0003:00000e38       ??_C@_0M@CNKCHKKL@l?5c?5?$CD5659dc?$AA@ 00482e38     aboutdialog.obj
 0003:00000e48       ??_C@_0M@OEGMGCMP@f?5c?5?$CD676ae0?$AA@ 00482e48     aboutdialog.obj
 0003:00000e58       ??_C@_0M@LBLJHIMN@n?5c?5?$CD787be3?$AA@ 00482e58     aboutdialog.obj
 0003:00000e68       ??_C@_0M@ONCFLJPL@c?5c?5?$CD898be6?$AA@ 00482e68     aboutdialog.obj
 0003:00000e78       ??_C@_0M@EAAMPBPM@b?5c?5?$CD9a9cea?$AA@ 00482e78     aboutdialog.obj
 0003:00000e88       ??_C@_0M@NBCCMLLM@m?5c?5?$CDabaced?$AA@ 00482e88     aboutdialog.obj
 0003:00000e98       ??_C@_0M@NOFMLPME@g?5c?5?$CDbcbdf1?$AA@ 00482e98     aboutdialog.obj
 0003:00000ea8       ??_C@_0M@HCLIJLLI@a?5c?5?$CDcdcef4?$AA@ 00482ea8     aboutdialog.obj
 0003:00000eb8       ??_C@_0M@BDEEEBIB@j?5c?5?$CDdedef8?$AA@ 00482eb8     aboutdialog.obj
 0003:00000ec8       ??_C@_0M@PBOMIGHK@?$CD?5c?5?$CDefeffb?$AA@ 00482ec8     aboutdialog.obj
 0003:00000ed8       ??_C@_0M@HNGHCCNN@?4?5c?5?$CDffffff?$AA@ 00482ed8     aboutdialog.obj
 0003:00000ee8       ??_C@_0BNJ@MHKEBIKA@?4?4?4?4?4?4?4?4?4?4?4?4?4?4?4?4?4?4?4?4?4?4?4?4?4?4?4?4?4?4?4?4@ 00482ee8     aboutdialog.obj
 0003:00001120       ??_C@_0BNJ@KFOKFGLH@?4?4?4?4?4?4?4?4?4?4?4?4?4?4?4?4?4?4?4?4?4?4?4?4?4?4?4?4?4?4?4?4@ 00483120     aboutdialog.obj
 0003:00001358       ??_C@_0BNJ@KKIOFNNE@?4?4?4?4?4?4?4?4?4?4?4?4?4?4?4?4?4?4?4?4?4?4?4?4dddddddd@ 00483358     aboutdialog.obj
 0003:00001590       ??_C@_0BNJ@BPKIOFMG@?4?4?4?4?4?4?4?4?4?4?4?4?4?4?4?4?4?4?4?4?4?4?4?4dddddddd@ 00483590     aboutdialog.obj
 0003:000017c8       ??_C@_0BNJ@NAOIAFBF@?4?4?4?4?4?4?4?4?4?4?4?4?4?4?4?4?4?4?4?4?4?4?4?4dddddddd@ 004837c8     aboutdialog.obj
 0003:00001a00       ??_C@_0BNJ@BBMJKFG@?4?4?4?4?4?4?4?4?4?4?4?4?4?4?4?4?4?4?4?4?4?4?4?4dddddddd@ 00483a00     aboutdialog.obj
 0003:00001c38       ??_C@_0BNJ@GBJNMCAN@?4?4?4?4?4?4?4?4?4?4?4?4?4?4?4?4?4?4?4?4?4?4?4?4dddddddd@ 00483c38     aboutdialog.obj
 0003:00001e70       ??_C@_0BNJ@OFAPEJLD@?4?4?4?4?4?4?4?4?4?4?4?4?4?4?4?4?4?4?4?4?4?4?4?4dddddddd@ 00483e70     aboutdialog.obj
 0003:000020a8       ??_C@_0BNJ@NFDNMEPK@?4?4?4?4?4?4?4?4?4?4?4?4?4?4?4?4?4?4?4?4?4?4?4?4dddddddd@ 004840a8     aboutdialog.obj
 0003:000022e0       ??_C@_0BNJ@OKMNKAIO@?4?4?4?4?4?4?4?4?4?4?4?4?4?4?4?4?4?4?4?4?4?4?4?4dddddddd@ 004842e0     aboutdialog.obj
 0003:00002518       ??_C@_0BNJ@FIMINPPB@?4?4?4?4?4?4?4?4?4?4?4?4?4?4?4?4?4?4?4?4?4?4?4?4dddddddd@ 00484518     aboutdialog.obj
 0003:00002750       ??_C@_0BNJ@MCBAPMDK@?4?4?4?4?4?4?4?4?4?4?4?4?4?4?4?4?4?4?4?4?4?4?4?4dddddddd@ 00484750     aboutdialog.obj
 0003:00002988       ??_C@_0BNJ@GJJHPMOC@?4?4?4?4?4?4?4?4?4?4?4?4?4?4?4?4?4?4?4?4?4?4?4?4dddddddd@ 00484988     aboutdialog.obj
 0003:00002bc0       ??_C@_0BNJ@HOPPMPBB@?4?4?4?4?4?4?4?4?4?4?4?4?4?4?4?4?4?4?4?4?4?4?4?4dddddddd@ 00484bc0     aboutdialog.obj
 0003:00002df8       ??_C@_0BNJ@HFAGPPDA@?4?4?4?4?4?4?4?4?4?4?4?4?4?4?4?4?4?4?4?4?4?4?4?4dddddddd@ 00484df8     aboutdialog.obj
 0003:00003030       ??_C@_0BNJ@KLNJFCFF@?4?4?4?4?4?4?4?4?4?4?4?4?4?4?4?4?4?4?4?4?4?4?4?4dddddddd@ 00485030     aboutdialog.obj
 0003:00003268       ??_C@_0BNJ@PKDJHEGG@?4?4?4?4?4?4?4?4?4?4?4?4?4?4?4?4?4?4?4?4?4?4?4?4dddddddd@ 00485268     aboutdialog.obj
 0003:000034a0       ??_C@_0BNJ@LJCDNEGH@?4?4?4?4?4?4?4?4?4?4?4?4?4?4?4?4?4?4?4?4?4?4?4?4dddddddd@ 004854a0     aboutdialog.obj
 0003:000036d8       ??_C@_0BNJ@CJBGEFPN@?4?4?4?4?4?4?4?4?4?4?4?4?4?4?4?4?4?4?4?4?4?4?4?4dddddddd@ 004856d8     aboutdialog.obj
 0003:00003910       ??_C@_0BNJ@EOPNFINI@?4?4?4?4?4?4?4?4?4?4?4?4?4?4?4?4?4?4?4?4?4?4?4?4dddddddd@ 00485910     aboutdialog.obj
 0003:00003b48       ??_C@_0BNJ@EMGAFMEE@?4?4?4?4?4?4?4?4?4?4?4?4?4?4?4?4?4?4?4?4?4?4?4?4dddddddd@ 00485b48     aboutdialog.obj
 0003:00003d80       ??_C@_0BNJ@HDPBKKAC@?4?4?4?4?4?4?4?4?4?4?4?4?4?4?4?4?4?4?4?4?4?4?4?4dddddddd@ 00485d80     aboutdialog.obj
 0003:00003fb8       ??_C@_0BNJ@CIBFKGCE@?4?4?4?4?4?4?4?4?4?4?4?4?4?4?4?4?4?4?4?4?4?4?4?4dddddddd@ 00485fb8     aboutdialog.obj
 0003:000041f0       ??_C@_0BNJ@CJPKHOMF@?4?4?4?4?4?4?4?4?4?4?4?4?4?4?4?4?4?4?4?4?4?4?4?4dddddddd@ 004861f0     aboutdialog.obj
 0003:00004428       ??_C@_0BNJ@NEIGFPJN@?4?4?4?4?4?4?4?4?4?4?4?4?4?4?4?4?4?4?4?4?4?4?4?4dddddddd@ 00486428     aboutdialog.obj
 0003:00004660       ??_C@_0BNJ@DJLBKMOA@?4?4?4?4?4?4?4?4?4?4?4?4?4?4?4?4?4?4?4?4?4?4?4?4dddddddd@ 00486660     aboutdialog.obj
 0003:00004898       ??_C@_0BNJ@MBDAENAK@?4?4?4?4?4?4?4?4?4?4?4?4?4?4?4?4?4?4?4?4?4?4?4?4dddddddd@ 00486898     aboutdialog.obj
 0003:00004ad0       ??_C@_0BNJ@BHHFDOKC@?4?4?4?4?4?4?4?4?4?4?4?4?4?4?4?4?4?4?4?4?4?4?4?4dddddddd@ 00486ad0     aboutdialog.obj
 0003:00004d08       ??_C@_0BNJ@NFDPBIBK@?4?4?4?4?4?4?4?4?4?4?4?4?4?4?4?4?4?4?4?4?4?4?4?4dddddddd@ 00486d08     aboutdialog.obj
 0003:00004f40       ??_C@_0BNJ@IOFPGKAK@?4?4?4?4?4?4?4?4?4?4?4?4?4?4?4?4?4?4?4?4?4?4?4?4dddddddd@ 00486f40     aboutdialog.obj
 0003:00005178       ??_C@_0BNJ@HHOOKMIM@?4?4?4?4?4?4?4?4?4?4?4?4?4?4?4?4?4?4?4?4?4?4?4?4dddddddd@ 00487178     aboutdialog.obj
 0003:000053b0       ??_C@_0BNJ@FDIMFOAI@?4?4?4?4?4?4?4?4?4?4?4?4?4?4?4?4?4?4?4?4?4?4?4?4dddddddd@ 004873b0     aboutdialog.obj
 0003:000055e8       ??_C@_0BNJ@BKKCNJNC@?4?4?4?4?4?4?4?4?4?4?4?4?4?4?4?4?4?4?4?4?4?4?4?4dddddddd@ 004875e8     aboutdialog.obj
 0003:00005820       ??_C@_0BNJ@EOHHENAP@?4?4?4?4?4?4?4?4?4?4?4?4?4?4?4?4?4?4?4?4?4?4?4?4dddddddd@ 00487820     aboutdialog.obj
 0003:00005a58       ??_C@_0BNJ@DMHLPAMM@?4?4?4?4?4?4?4?4?4?4?4?4?4?4?4?4?4?4?4?4?4?4?4?4dddddddd@ 00487a58     aboutdialog.obj
 0003:00005c90       ??_C@_0BNJ@HIAALGCI@?4?4?4?4?4?4?4?4?4?4?4?4?4?4?4?4?4?4?4?4?4?4?4?4dddddddd@ 00487c90     aboutdialog.obj
 0003:00005ec8       ??_C@_0BNJ@EIMJCJGC@?4?4?4?4?4?4?4?4?4?4?4?4?4?4?4?4?4?4?4?4?4?4?4?4dddddddd@ 00487ec8     aboutdialog.obj
 0003:00006100       ??_C@_0BNJ@BKKOAGHJ@?4?4?4?4?4?4?4?4?4?4?4?4?4?4?4?4?4?4?4?4?4?4?4?4dddddddd@ 00488100     aboutdialog.obj
 0003:00006338       ??_C@_0BNJ@OJPKKIKH@?4?4?4?4?4?4?4?4?4?4?4?4?4?4?4?4?4?4?4?4?4?4?4?4dddddddd@ 00488338     aboutdialog.obj
 0003:00006570       ??_C@_0BNJ@JHOHHLNE@?4?4?4?4?4?4?4?4?4?4?4?4?4?4?4?4?4?4?4?4?4?4?4?4dddddddd@ 00488570     aboutdialog.obj
 0003:000067a8       ??_C@_0BNJ@NAOIOOBI@?4?4?4?4?4?4?4?4?4?4?4?4?4?4?4?4?4?4?4?4?4?4?4?4dddddddd@ 004887a8     aboutdialog.obj
 0003:000069e0       ??_C@_0BNJ@DGEJAGHC@?4?4?4?4?4?4?4?4?4?4?4?4?4?4?4?4?4?4?4?4?4?4?4?4dddddddd@ 004889e0     aboutdialog.obj
 0003:00006c18       ??_C@_0BNJ@BJMAAFKP@?4?4?4?4?4?4?4?4?4?4?4?4?4?4?4?4?4?4?4?4?4?4?4?4dddddddd@ 00488c18     aboutdialog.obj
 0003:00006e50       ??_C@_0BNJ@JBEHHAGJ@?4?4?4?4?4?4?4?4?4?4?4?4?4?4?4?4?4?4?4?4?4?4?4?4dddddddd@ 00488e50     aboutdialog.obj
 0003:00007088       ??_C@_0BNJ@FIHLBFJG@?4?4?4?4?4?4?4?4?4?4?4?4?4?4?4?4?4?4?4?4?4?4?4?4dddddddd@ 00489088     aboutdialog.obj
 0003:000072c0       ??_C@_0BNJ@PGGFGAKF@?4?4?4?4?4?4?4?4?4?4?4?4?4?4?4?4?4?4?4?4?4?4?4?4dddddddd@ 004892c0     aboutdialog.obj
 0003:000074f8       ??_C@_0BNJ@DNHMDNJB@?4?4?4?4?4?4?4?4?4?4?4?4?4?4?4?4?4?4?4?4?4?4?4?4dddddddd@ 004894f8     aboutdialog.obj
 0003:00007730       ??_C@_0BNJ@BGJJLEKE@?4?4?4?4?4?4?4?4?4?4?4?4?4?4?4?4?4?4?4?4?4?4?4?4dddddddd@ 00489730     aboutdialog.obj
 0003:00007968       ??_C@_0BNJ@EBKFELKM@?4?4?4?4?4?4?4?4?4?4?4?4?4?4?4?4?4?4?4?4?4?4?4?4dddddddd@ 00489968     aboutdialog.obj
 0003:00007ba0       ??_C@_0BNJ@FDIIKADA@?4?4?4?4?4?4?4?4?4?4?4?4?4?4?4?4?4?4?4?4?4?4?4?4dddddddd@ 00489ba0     aboutdialog.obj
 0003:00007dd8       ??_C@_0BNJ@BFILGBIH@?4?4?4?4?4?4?4?4?4?4?4?4?4?4?4?4?4?4?4?4?4?4?4?4dddddddd@ 00489dd8     aboutdialog.obj
 0003:00008010       ??_C@_0BNJ@JPOGDNJL@?4?4?4?4?4?4?4?4?4?4?4?4?4?4?4?4?4?4?4?4?4?4?4?4dddddddd@ 0048a010     aboutdialog.obj
 0003:00008248       ??_C@_0BNJ@NLAJJFPF@?4?4?4?4?4?4?4?4?4?4?4?4?4?4?4?4?4?4?4?4?4?4?4?4dddddddd@ 0048a248     aboutdialog.obj
 0003:00008480       ??_C@_0BNJ@BAJOAPKP@?4?4?4?4?4?4?4?4?4?4?4?4?4?4?4?4?4?4?4?4?4?4?4?4dddddddd@ 0048a480     aboutdialog.obj
 0003:000086b8       ??_C@_0BNJ@GFCPILBB@?4?4?4?4?4?4?4?4?4?4?4?4?4?4?4?4?4?4?4?4?4?4?4?4dddddddd@ 0048a6b8     aboutdialog.obj
 0003:000088f0       ??_C@_0BNJ@DNIBFDOO@?4?4?4?4?4?4?4?4?4?4?4?4?4?4?4?4?4?4?4?4?4?4?4?4dddddddd@ 0048a8f0     aboutdialog.obj
 0003:00008b28       ??_C@_0BNJ@GIKGMBEF@?4?4?4?4?4?4?4?4?4?4?4?4?4?4?4?4?4?4?4?4?4?4?4?4dddddddd@ 0048ab28     aboutdialog.obj
 0003:00008d60       ??_C@_0BNJ@MGBOGDEI@?4?4?4?4?4?4?4?4?4?4?4?4?4?4?4?4?4?4?4?4?4?4?4?4dddddddd@ 0048ad60     aboutdialog.obj
 0003:00008f98       ??_C@_0BNJ@PPBEMCAM@?4?4?4?4?4?4?4?4?4?4?4?4?4?4?4?4?4?4?4?4?4?4?4?4dddddddd@ 0048af98     aboutdialog.obj
 0003:000091d0       ??_C@_0BNJ@GAAFBCLK@?4?4?4?4?4?4?4?4?4?4?4?4?4?4?4?4?4?4?4?4?4?4?4?4dddddddd@ 0048b1d0     aboutdialog.obj
 0003:00009408       ??_C@_0BNJ@FIGCBFGN@?4?4?4?4?4?4?4?4?4?4?4?4?4?4?4?4?4?4?4?4?4?4?4?4dddddddd@ 0048b408     aboutdialog.obj
 0003:00009640       ??_C@_0BNJ@BFDFGCGI@?4?4?4?4?4?4?4?4?4?4?4?4?4?4?4?4?4?4?4?4?4?4?4?4dddddddd@ 0048b640     aboutdialog.obj
 0003:00009878       ??_C@_0BNJ@HJDOMHAI@?4?4?4?4?4?4?4?4?4?4?4?4?4?4?4?4?4?4?4?4?4?4?4?4dddddddd@ 0048b878     aboutdialog.obj
 0003:00009ab0       ??_C@_0BNJ@FBPILCCP@?4?4?4?4?4?4?4?4?4?4?4?4?4?4?4?4?4?4?4?4?4?4?4?4dddddddd@ 0048bab0     aboutdialog.obj
 0003:00009ce8       ??_C@_0BNJ@CNIHMNLG@?4?4?4?4?4?4?4?4?4?4?4?4?4?4?4?4?4?4?4?4?4?4?4?4dddddddd@ 0048bce8     aboutdialog.obj
 0003:00009f20       ??_C@_0BNJ@LBEANDFJ@?4?4?4?4?4?4?4?4?4?4?4?4?4?4?4?4?4?4?4?4?4?4?4?4dddddddd@ 0048bf20     aboutdialog.obj
 0003:0000a158       ??_C@_0BNJ@NMHCHPCG@?4?4?4?4?4?4?4?4?4?4?4?4?4?4?4?4?4?4?4?4?4?4?4?4dddddddd@ 0048c158     aboutdialog.obj
 0003:0000a390       ??_C@_0BNJ@KBCIHNEL@?4?4?4?4?4?4?4?4?4?4?4?4?4?4?4?4?4?4?4?4?4?4?4?4dddddddd@ 0048c390     aboutdialog.obj
 0003:0000a5c8       ??_C@_0BNJ@MOGAIIJP@?4?4?4?4?4?4?4?4?4?4?4?4?4?4?4?4?4?4?4?4?4?4?4?4dddddddd@ 0048c5c8     aboutdialog.obj
 0003:0000a800       ??_C@_0BNJ@EHIOMCPB@?4?4?4?4?4?4?4?4?4?4?4?4?4?4?4?4?4?4?4?4?4?4?4?4dddddddd@ 0048c800     aboutdialog.obj
 0003:0000aa38       ??_C@_0BNJ@KOHDGFGC@?4?4?4?4?4?4?4?4?4?4?4?4?4?4?4?4?4?4?4?4?4?4?4?4dddddddd@ 0048ca38     aboutdialog.obj
 0003:0000ac70       ??_C@_0BNJ@PCKLADBD@?4?4?4?4?4?4?4?4?4?4?4?4?4?4?4?4?4?4?4?4?4?4?4?4dddddddd@ 0048cc70     aboutdialog.obj
 0003:0000aea8       ??_C@_0BNJ@JDPDCEPC@?4?4?4?4?4?4?4?4?4?4?4?4?4?4?4?4?4?4?4?4?4?4?4?4dddddddd@ 0048cea8     aboutdialog.obj
 0003:0000b0e0       ??_C@_0BNJ@JJFDAEGI@?4?4?4?4?4?4?4?4?4?4?4?4?4?4?4?4?4?4?4?4?4?4?4?4dddddddd@ 0048d0e0     aboutdialog.obj
 0003:0000b318       ??_C@_0BNJ@EFGPGEBG@?4?4?4?4?4?4?4?4?4?4?4?4?4?4?4?4?4?4?4?4?4?4?4?4dddddddd@ 0048d318     aboutdialog.obj
 0003:0000b550       ??_C@_0BNJ@HPBEIBP@?4?4?4?4?4?4?4?4?4?4?4?4?4?4?4?4?4?4?4?4?4?4?4?4dddddddd@ 0048d550     aboutdialog.obj
 0003:0000b788       ??_C@_0BNJ@MKNBEOB@?4?4?4?4?4?4?4?4?4?4?4?4?4?4?4?4?4?4?4?4?4?4?4?4dddddddd@ 0048d788     aboutdialog.obj
 0003:0000b9c0       ??_C@_0BNJ@NMFLEAAE@?4?4?4?4?4?4?4?4?4?4?4?4?4?4?4?4?4?4?4?4?4?4?4?4dddddddd@ 0048d9c0     aboutdialog.obj
 0003:0000bbf8       ??_C@_0BNJ@DNHEFDL@?4?4?4?4?4?4?4?4?4?4?4?4?4?4?4?4?4?4?4?4?4?4?4?4dddddddd@ 0048dbf8     aboutdialog.obj
 0003:0000be30       ??_C@_0BNJ@PMGDHJKM@?4?4?4?4?4?4?4?4?4?4?4?4?4?4?4?4?4?4?4?4?4?4?4?4dddddddd@ 0048de30     aboutdialog.obj
 0003:0000c068       ??_C@_0BNJ@PEBLGNIP@?4?4?4?4?4?4?4?4?4?4?4?4?4?4?4?4?4?4?4?4?4?4?4?4dddddddd@ 0048e068     aboutdialog.obj
 0003:0000c2a0       ??_C@_0BNJ@GDDDLKEO@?4?4?4?4?4?4?4?4?4?4?4?4?4?4?4?4?4?4?4?4?4?4?4?4dddddddd@ 0048e2a0     aboutdialog.obj
 0003:0000c4d8       ??_C@_0BNJ@BKLDPIII@?4?4?4?4?4?4?4?4?4?4?4?4?4?4?4?4?4?4?4?4?4?4?4?4dddddddd@ 0048e4d8     aboutdialog.obj
 0003:0000c710       ??_C@_0BNJ@NGHGPIOJ@?4?4?4?4?4?4?4?4?4?4?4?4?4?4?4?4?4?4?4?4?4?4?4?4dddddddd@ 0048e710     aboutdialog.obj
 0003:0000c948       ??_C@_0BNJ@MADLDKGJ@?4?4?4?4?4?4?4?4?4?4?4?4?4?4?4?4?4?4?4?4?4?4?4?4dddddddd@ 0048e948     aboutdialog.obj
 0003:0000cb80       ??_C@_0BNJ@ODJGHNDA@?4?4?4?4?4?4?4?4?4?4?4?4?4?4?4?4?4?4?4?4?4?4?4?4dddddddd@ 0048eb80     aboutdialog.obj
 0003:0000cdb8       ??_C@_0BNJ@OCLMFGEJ@?4?4?4?4?4?4?4?4?4?4?4?4?4?4?4?4?4?4?4?4?4?4?4?4dddddddd@ 0048edb8     aboutdialog.obj
 0003:0000cff0       ??_C@_0BNJ@GMCCKMDC@?4?4?4?4?4?4?4?4?4?4?4?4?4?4?4?4?4?4?4?4?4?4?4?4dddddddd@ 0048eff0     aboutdialog.obj
 0003:0000d228       ??_C@_0BNJ@IGINEEIB@?4?4?4?4?4?4?4?4?4?4?4?4?4?4?4?4?4?4?4?4?4?4?4?4dddddddd@ 0048f228     aboutdialog.obj
 0003:0000d460       ??_C@_0BNJ@LFPPKPOH@?4?4?4?4?4?4?4?4?4?4?4?4?4?4?4?4?4?4?4?4?4?4?4?4dddddddd@ 0048f460     aboutdialog.obj
 0003:0000d698       ??_C@_0BNJ@EOKCFJFK@?4?4?4?4?4?4?4?4?4?4?4?4?4?4?4?4?4?4?4?4?4?4?4?4dddddddd@ 0048f698     aboutdialog.obj
 0003:0000d8d0       ??_C@_0BNJ@FBECGOLN@?4?4?4?4?4?4?4?4?4?4?4?4?4?4?4?4?4?4?4?4?4?4?4?4dddddddd@ 0048f8d0     aboutdialog.obj
 0003:0000db08       ??_C@_0BNJ@IAOPPCMO@?4?4?4?4?4?4?4?4?4?4?4?4?4?4?4?4?4?4?4?4?4?4?4?4dddddddd@ 0048fb08     aboutdialog.obj
 0003:0000dd40       ??_C@_0BNJ@LLHPNDOO@?4?4?4?4?4?4?4?4?4?4?4?4?4?4?4?4?4?4?4?4?4?4?4?4dddddddd@ 0048fd40     aboutdialog.obj
 0003:0000df78       ??_C@_0BNJ@DDGIJHJA@?4?4?4?4?4?4?4?4?4?4?4?4?4?4?4?4?4?4?4?4?4?4?4?4dddddddd@ 0048ff78     aboutdialog.obj
 0003:0000e1b0       ??_C@_0BNJ@KOEKOKFA@?4?4?4?4?4?4?4?4?4?4?4?4?4?4?4?4?4?4?4?4?4?4?4?4dddddddd@ 004901b0     aboutdialog.obj
 0003:0000e3e8       ??_C@_0BNJ@DMANDGOO@?4?4?4?4?4?4?4?4?4?4?4?4?4?4?4?4?4?4?4?4?4?4?4?4dddddddd@ 004903e8     aboutdialog.obj
 0003:0000e620       ??_C@_0BNJ@JDOJKGAC@?4?4?4?4?4?4?4?4?4?4?4?4?4?4?4?4?4?4?4?4?4?4?4?4dddddddd@ 00490620     aboutdialog.obj
 0003:0000e858       ??_C@_0BNJ@PGMECJOP@?4?4?4?4?4?4?4?4?4?4?4?4?4?4?4?4?4?4?4?4?4?4?4?4dddddddd@ 00490858     aboutdialog.obj
 0003:0000ea90       ??_C@_0BNJ@OLHIBOPE@?4?4?4?4?4?4?4?4?4?4?4?4?4?4?4?4?4?4?4?4?4?4?4?4dddddddd@ 00490a90     aboutdialog.obj
 0003:0000ecc8       ??_C@_0BNJ@CKMFLFDM@?4?4?4?4?4?4?4?4?4?4?4?4?4?4?4?4?4?4?4?4?4?4?4?4dddddddd@ 00490cc8     aboutdialog.obj
 0003:0000ef00       ??_C@_0BNJ@EMBEMHKE@?4?4?4?4?4?4?4?4?4?4?4?4?4?4?4?4?4?4?4?4?4?4?4?4dddddddd@ 00490f00     aboutdialog.obj
 0003:0000f138       ??_C@_0BNJ@HGKIGAAE@?4?4?4?4?4?4?4?4?4?4?4?4?4?4?4?4?4?4?4?4?4?4?4?4dddddddd@ 00491138     aboutdialog.obj
 0003:0000f370       ??_C@_0BNJ@KNCMFCOE@?4?4?4?4?4?4?4?4?4?4?4?4?4?4?4?4?4?4?4?4?4?4?4?4dddddddd@ 00491370     aboutdialog.obj
 0003:0000f5a8       ??_C@_0BNJ@DLLAJJMD@?4?4?4?4?4?4?4?4?4?4?4?4?4?4?4?4?4?4?4?4?4?4?4?4dddddddd@ 004915a8     aboutdialog.obj
 0003:0000f7e0       ??_C@_0BNJ@DOLMHGNB@?4?4?4?4?4?4?4?4?4?4?4?4?4?4?4?4?4?4?4?4?4?4?4?4dddddddd@ 004917e0     aboutdialog.obj
 0003:0000fa18       ??_C@_0BNJ@IJIECGCH@?4?4?4?4?4?4?4?4?4?4?4?4?4?4?4?4?4?4?4?4?4?4?4?4dddddddd@ 00491a18     aboutdialog.obj
 0003:0000fc50       ??_C@_0BNJ@ICFMHOJC@?4?4?4?4?4?4?4?4?4?4?4?4?4?4?4?4?4?4?4?4?4?4?4?4dddddddd@ 00491c50     aboutdialog.obj
 0003:0000fe88       ??_C@_0BNJ@LCDHBDNB@?4?4?4?4?4?4?4?4?4?4?4?4?4?4?4?4?4?4?4?4?4?4?4?4dddddddd@ 00491e88     aboutdialog.obj
 0003:000100c0       ??_C@_0BNJ@BKDPOBIO@?4?4?4?4?4?4?4?4?4?4?4?4?4?4?4?4?4?4?4?4?4?4?4?4dddddddd@ 004920c0     aboutdialog.obj
 0003:000102f8       ??_C@_0BNJ@IBOKKEEM@?4?4?4?4?4?4?4?4?4?4?4?4?4?4?4?4?4?4?4?4?4?4?4?4dddddddd@ 004922f8     aboutdialog.obj
 0003:00010530       ??_C@_0BNJ@FBBCNOCM@?4?4?4?4?4?4?4?4?4?4?4?4?4?4?4?4?4?4?4?4?4?4?4?4dddddddd@ 00492530     aboutdialog.obj
 0003:00010768       ??_C@_0BNJ@ODMLBCKP@?4?4?4?4?4?4?4?4?4?4?4?4?4?4?4?4?4?4?4?4?4?4?4?4dddddddd@ 00492768     aboutdialog.obj
 0003:000109a0       ??_C@_0BNJ@HLAEOBJH@?4?4?4?4?4?4?4?4?4?4?4?4?4?4?4?4?4?4?4?4?4?4?4?4dddddddd@ 004929a0     aboutdialog.obj
 0003:00010bd8       ??_C@_0BNJ@BACPMNDI@?4?4?4?4?4?4?4?4?4?4?4?4?4?4?4?4?4?4?4?4?4?4?4?4dddddddd@ 00492bd8     aboutdialog.obj
 0003:00010e10       ??_C@_0BNJ@PCDGGKFJ@?4?4?4?4?4?4?4?4?4?4?4?4?4?4?4?4?4?4?4?4?4?4?4?4dddddddd@ 00492e10     aboutdialog.obj
 0003:00011048       ??_C@_0BNJ@HJKHIOJE@?4?4?4?4?4?4?4?4?4?4?4?4?4?4?4?4?4?4?4?4?4?4?4?4dddddddd@ 00493048     aboutdialog.obj
 0003:00011280       ??_C@_0BNJ@HABMGLI@?4?4?4?4?4?4?4?4?4?4?4?4?4?4?4?4?4?4?4?4?4?4?4?4dddddddd@ 00493280     aboutdialog.obj
 0003:000114b8       ??_C@_0BNJ@BHLELBBM@?4?4?4?4?4?4?4?4?4?4?4?4?4?4?4?4?4?4?4?4?4?4?4?4dddddddd@ 004934b8     aboutdialog.obj
 0003:000116f0       ??_C@_0BNJ@EJCAEEGN@?4?4?4?4?4?4?4?4?4?4?4?4?4?4?4?4?4?4?4?4?4?4?4?4dddddddd@ 004936f0     aboutdialog.obj
 0003:00011928       ??_C@_0BNJ@MGHCNEDH@?4?4?4?4?4?4?4?4?4?4?4?4?4?4?4?4?4?4?4?4?4?4?4?4dddddddd@ 00493928     aboutdialog.obj
 0003:00011b60       ??_C@_0BNJ@CABNPFCD@?4?4?4?4?4?4?4?4?4?4?4?4?4?4?4?4?4?4?4?4?4?4?4?4dddddddd@ 00493b60     aboutdialog.obj
 0003:00011d98       ??_C@_0BNJ@HPAKPMJD@?4?4?4?4?4?4?4?4?4?4?4?4?4?4?4?4?4?4?4?4?4?4?4?4dddddddd@ 00493d98     aboutdialog.obj
 0003:00011fd0       ??_C@_0BNJ@NFMLGILC@?4?4?4?4?4?4?4?4?4?4?4?4?4?4?4?4?4?4?4?4?4?4?4?4dddddddd@ 00493fd0     aboutdialog.obj
 0003:0001220c       ??_7aboutDialog@@6BQObject@@@ 0049420c     aboutdialog.obj
 0003:0001242c       ??_7aboutDialog@@6BQPaintDevice@@@ 0049442c     aboutdialog.obj
 0003:0001245c       ??_SQPushButton@@6BQObject@@@ 0049445c     aboutdialog.obj
 0003:000126b0       ??_SQPushButton@@6BQPaintDevice@@@ 004946b0     aboutdialog.obj
 0003:000126dc       ??_SQFrame@@6BQObject@@@   004946dc     aboutdialog.obj
 0003:00012910       ??_SQFrame@@6BQPaintDevice@@@ 00494910     aboutdialog.obj
 0003:0001293c       ??_SQLabel@@6BQObject@@@   0049493c     aboutdialog.obj
 0003:00012b98       ??_SQLabel@@6BQPaintDevice@@@ 00494b98     aboutdialog.obj
 0003:00012bc4       ??_SQSpacerItem@@6B@       00494bc4     aboutdialog.obj
 0003:00012c1c       ??_SQHBoxLayout@@6BQObject@@@ 00494c1c     aboutdialog.obj
 0003:00012c9c       ??_SQHBoxLayout@@6BQLayoutItem@@@ 00494c9c     aboutdialog.obj
 0003:00012cf4       ??_SQVBoxLayout@@6BQObject@@@ 00494cf4     aboutdialog.obj
 0003:00012d74       ??_SQVBoxLayout@@6BQLayoutItem@@@ 00494d74     aboutdialog.obj
 0003:00012dc4       ??_C@_0M@KOINBIMA@aboutDialog?$AA@ 00494dc4     aboutdialog.obj
 0003:00012dd4       ??_C@_0BC@EDEAGMCL@aboutDialogLayout?$AA@ 00494dd4     aboutdialog.obj
 0003:00012dec       ??_C@_06BLHGOIEM@frame3?$AA@ 00494dec     aboutdialog.obj
 0003:00012df4       ??_C@_0N@PAPEEFII@frame3Layout?$AA@ 00494df4     aboutdialog.obj
 0003:00012e04       ??_C@_0N@FAKNHOHJ@pixmapLabel1?$AA@ 00494e04     aboutdialog.obj
 0003:00012e14       ??_C@_0L@INJINICK@textLabel2?$AA@ 00494e14     aboutdialog.obj
 0003:00012e24       ??_C@_0L@KGLFILOJ@textLabel1?$AA@ 00494e24     aboutdialog.obj
 0003:00012e34       ??_C@_07DHCFJLGA@Layout1?$AA@ 00494e34     aboutdialog.obj
 0003:00012e40       ??_C@_08DKBDHOFF@buttonOk?$AA@ 00494e40     aboutdialog.obj
 0003:00012e4c       ??_C@_09DMINLBG@1accept?$CI?$CJ?$AA@ 00494e4c     aboutdialog.obj
 0003:00012e58       ??_C@_0L@OELOHDKG@2clicked?$CI?$CJ?$AA@ 00494e58     aboutdialog.obj
 0003:00012e68       ??_C@_0BB@HHDPAHJF@About?5V3BNCSLink?$AA@ 00494e68     aboutdialog.obj
 0003:00012e80       ??_C@_0GG@FKNMDBEH@?$DMh1?$DOBNCS?5Link?$DM?1h1?$DO?6?6?$DMh3?$DOV1?40?40?41@ 00494e80     aboutdialog.obj
 0003:00012efc       ??_C@_03DDKJIMDC@?$CGOK?$AA@ 00494efc     aboutdialog.obj
 0003:00012f04       ??_7aboutDialogImpl@@6BQObject@@@ 00494f04     aboutdialogimpl.obj
 0003:00013124       ??_7aboutDialogImpl@@6BQPaintDevice@@@ 00495124     aboutdialogimpl.obj
 0003:0001314c       ??_C@_0DG@DJAMGOCD@?$DMh1?$DOV3?5BNCS?5Link?$DM?1h1?$DO?$DMh3?$DOVersion@ 0049514c     aboutdialogimpl.obj
 0003:00013194       ??_SQWidget@@6BQObject@@@  00495194     bncslink32mainwindow.obj
 0003:000133a0       ??_SQWidget@@6BQPaintDevice@@@ 004953a0     bncslink32mainwindow.obj
 0003:000133cc       ??_7bncslink32MainWindow@@6BQObject@@@ 004953cc     bncslink32mainwindow.obj
 0003:00013650       ??_7bncslink32MainWindow@@6BQPaintDevice@@@ 00495650     bncslink32mainwindow.obj
 0003:0001367c       ??_SQTextEdit@@6BQObject@@@ 0049567c     bncslink32mainwindow.obj
 0003:00013aac       ??_SQTextEdit@@6BQPaintDevice@@@ 00495aac     bncslink32mainwindow.obj
 0003:00013adc       ??_SQGridLayout@@6BQObject@@@ 00495adc     bncslink32mainwindow.obj
 0003:00013b64       ??_SQGridLayout@@6BQLayoutItem@@@ 00495b64     bncslink32mainwindow.obj
 0003:00013bbc       ??_SQAction@@6B@           00495bbc     bncslink32mainwindow.obj
 0003:00013c64       ??_SQPopupMenu@@6BQObject@@@ 00495c64     bncslink32mainwindow.obj
 0003:00013ea4       ??_SQPopupMenu@@6BQPaintDevice@@@ 00495ea4     bncslink32mainwindow.obj
 0003:00013ed0       ??_SQPopupMenu@@6B@        00495ed0     bncslink32mainwindow.obj
 0003:00013efc       ??_SQMenuBar@@6BQObject@@@ 00495efc     bncslink32mainwindow.obj
 0003:00014134       ??_SQMenuBar@@6BQPaintDevice@@@ 00496134     bncslink32mainwindow.obj
 0003:00014160       ??_SQMenuBar@@6B@          00496160     bncslink32mainwindow.obj
 0003:00014188       ??_C@_0BF@KGHCDMOE@bncslink32MainWindow?$AA@ 00496188     bncslink32mainwindow.obj
 0003:000141a4       ??_C@_0BC@LHPKNN@qt_central_widget?$AA@ 004961a4     bncslink32mainwindow.obj
 0003:000141bc       ??_C@_0BL@DLCKPFIG@bncslink32MainWindowLayout?$AA@ 004961bc     bncslink32mainwindow.obj
 0003:000141dc       ??_C@_07KKDPDMDC@layout5?$AA@ 004961dc     bncslink32mainwindow.obj
 0003:000141e8       ??_C@_07LDCEANHD@layout4?$AA@ 004961e8     bncslink32mainwindow.obj
 0003:000141f4       ??_C@_0BF@NNKOKGLE@databasesLoadedCount?$AA@ 004961f4     bncslink32mainwindow.obj
 0003:00014210       ??_C@_0P@IKOBPDDP@textLabel1_2_2?$AA@ 00496210     bncslink32mainwindow.obj
 0003:00014224       ??_C@_0BB@OPOBAPMG@textLabel1_2_2_3?$AA@ 00496224     bncslink32mainwindow.obj
 0003:00014238       ??_C@_0BB@PGPKDOIH@textLabel1_2_2_2?$AA@ 00496238     bncslink32mainwindow.obj
 0003:0001424c       ??_C@_07LDHHEKIH@dcCount?$AA@ 0049624c     bncslink32mainwindow.obj
 0003:00014258       ??_C@_0BJ@EOACHNNN@textLabel1_2_2_2_2_2_2_2?$AA@ 00496258     bncslink32mainwindow.obj
 0003:00014278       ??_C@_0M@KADNLMFP@clientCount?$AA@ 00496278     bncslink32mainwindow.obj
 0003:00014288       ??_C@_0N@HPEGIJEE@textLabel1_2?$AA@ 00496288     bncslink32mainwindow.obj
 0003:00014298       ??_C@_0BH@LDOILBBC@textLabel1_2_2_2_2_2_2?$AA@ 00496298     bncslink32mainwindow.obj
 0003:000142b4       ??_C@_0BF@IOAHENMK@textLabel1_2_2_2_2_2?$AA@ 004962b4     bncslink32mainwindow.obj
 0003:000142d0       ??_C@_0BD@DPDDNICB@textLabel1_2_2_2_2?$AA@ 004962d0     bncslink32mainwindow.obj
 0003:000142e8       ??_C@_08CLHBFKJG@rcCCount?$AA@ 004962e8     bncslink32mainwindow.obj
 0003:000142f4       ??_C@_0O@JPDKEIAH@devicesCached?$AA@ 004962f4     bncslink32mainwindow.obj
 0003:00014304       ??_C@_0BC@IMPKIAAA@registrationCount?$AA@ 00496304     bncslink32mainwindow.obj
 0003:0001431c       ??_C@_07KKBFLDJI@txCount?$AA@ 0049631c     bncslink32mainwindow.obj
 0003:00014328       ??_C@_07GMHKLKBP@rxCount?$AA@ 00496328     bncslink32mainwindow.obj
 0003:00014334       ??_C@_0BJ@FHBJEMJM@textLabel1_2_2_2_2_2_2_3?$AA@ 00496334     bncslink32mainwindow.obj
 0003:00014354       ??_C@_07GIHEBDOL@rnCount?$AA@ 00496354     bncslink32mainwindow.obj
 0003:00014360       ??_C@_07IBBCGPPB@layout6?$AA@ 00496360     bncslink32mainwindow.obj
 0003:0001436c       ??_C@_09HCBNDNHI@textEdit1?$AA@ 0049636c     bncslink32mainwindow.obj
 0003:00014378       ??_C@_0P@NCFAOFGG@menuExitAction?$AA@ 00496378     bncslink32mainwindow.obj
 0003:0001438c       ??_C@_0BA@LLFKJKGK@helpAboutAction?$AA@ 0049638c     bncslink32mainwindow.obj
 0003:000143a0       ??_C@_0BD@FAEOOPPO@helpContentsAction?$AA@ 004963a0     bncslink32mainwindow.obj
 0003:000143b8       ??_C@_0O@BBEEFPOD@MenuBarEditor?$AA@ 004963b8     bncslink32mainwindow.obj
 0003:000143c8       ??_C@_00CNPNBAHC@?$AA@     004963c8     bncslink32mainwindow.obj
 0003:000143cc       ??_C@_08LPOBGBL@1close?$CI?$CJ?$AA@ 004963cc     bncslink32mainwindow.obj
 0003:000143d8       ??_C@_0N@KCMOKDBB@2activated?$CI?$CJ?$AA@ 004963d8     bncslink32mainwindow.obj
 0003:000143e8       ??_C@_0L@KLFANHCL@V3BNCSLink?$AA@ 004963e8     bncslink32mainwindow.obj
 0003:000143f8       ??_C@_01GBGANLPD@0?$AA@    004963f8     bncslink32mainwindow.obj
 0003:000143fc       ??_C@_0BH@DKBDLDOK@Revertives?$DMbr?$DOReceived?$AA@ 004963fc     bncslink32mainwindow.obj
 0003:00014418       ??_C@_0BE@NKOOAHOE@Database?$DMbr?$DOChanges?$AA@ 00496418     bncslink32mainwindow.obj
 0003:00014430       ??_C@_0BO@GFNGDDHA@Revertives?$DMbr?$DOsent?5to?5clients?$AA@ 00496430     bncslink32mainwindow.obj
 0003:00014454       ??_C@_0BE@OBCOMKL@Databases?$DMbr?$DOLoaded?$AA@ 00496454     bncslink32mainwindow.obj
 0003:0001446c       ??_C@_0BI@HPIDJLPD@Commands?$DMbr?$DOTransmitted?$AA@ 0049646c     bncslink32mainwindow.obj
 0003:00014488       ??_C@_0BH@KNNFEBED@Total?$DMbr?$DORegistrations?$AA@ 00496488     bncslink32mainwindow.obj
 0003:000144a4       ??_C@_07IDODAPCP@Clients?$AA@ 004964a4     bncslink32mainwindow.obj
 0003:000144b0       ??_C@_0BO@DGBADMNA@Database?$DMbr?$DOUpdates?5?$CIstartup?$CJ?$AA@ 004964b0     bncslink32mainwindow.obj
 0003:000144d4       ??_C@_0BC@MGDDFFBE@Devices?$DMbr?$DOCached?$AA@ 004964d4     bncslink32mainwindow.obj
 0003:000144f0       ??_C@_0EG@FIGFIGD@?$DMp?5align?$DN?$CCright?$CC?$DO?$DMfont?5size?$DN?$CC?91?$CC@ 004964f0     bncslink32mainwindow.obj
 0003:00014544       ??_C@_05PNPHNLAJ@E?$CGxit?$AA@ 00496544     bncslink32mainwindow.obj
 0003:0001454c       ??_C@_06JDCECANP@?$CGAbout?$AA@ 0049654c     bncslink32mainwindow.obj
 0003:00014554       ??_C@_09CGBJIDBA@?$CGContents?$AA@ 00496554     bncslink32mainwindow.obj
 0003:00014560       ??_C@_05FHBCAALB@?$CGFile?$AA@ 00496560     bncslink32mainwindow.obj
 0003:00014568       ??_C@_05JFEBOHHM@?$CGHelp?$AA@ 00496568     bncslink32mainwindow.obj
 0003:00014570       ??_C@_0N@HBEBHFOI@32?532?5130?52?5?$AA@ 00496570     bncslink32mainwindowimpl.obj
 0003:00014580       ??_C@_0N@PKNIIFCM@?5?5?5c?5?$CD6C0000?$AA@ 00496580     bncslink32mainwindowimpl.obj
 0003:00014590       ??_C@_0N@EKCGHFAH@?4?5?5c?5?$CD7A0101?$AA@ 00496590     bncslink32mainwindowimpl.obj
 0003:000145a0       ??_C@_0N@IPKGENCC@X?5?5c?5?$CD7E0A0A?$AA@ 004965a0     bncslink32mainwindowimpl.obj
 0003:000145b0       ??_C@_0N@LJKEOBG@o?5?5c?5?$CD7F1111?$AA@ 004965b0     bncslink32mainwindowimpl.obj
 0003:000145c0       ??_C@_0N@IIEGPMNL@O?5?5c?5?$CD830000?$AA@ 004965c0     bncslink32mainwindowimpl.obj
 0003:000145d0       ??_C@_0N@CHNFMEFD@?$CL?5?5c?5?$CD8B0101?$AA@ 004965d0     bncslink32mainwindowimpl.obj
 0003:000145e0       ??_C@_0N@ENPAADNM@?$EA?5?5c?5?$CD810D0D?$AA@ 004965e0     bncslink32mainwindowimpl.obj
 0003:000145f0       ??_C@_0N@JKCKBFDM@?$CD?5?5c?5?$CD920404?$AA@ 004965f0     bncslink32mainwindowimpl.obj
 0003:00014600       ??_C@_0N@GDBNBEJ@$?5?5c?5?$CD940B0B?$AA@ 00496600     bncslink32mainwindowimpl.obj
 0003:00014610       ??_C@_0N@PDHJGMOE@?$CF?5?5c?5?$CD9A0D0D?$AA@ 00496610     bncslink32mainwindowimpl.obj
 0003:00014620       ??_C@_0N@EBKJDMH@?$CG?5?5c?5?$CD831313?$AA@ 00496620     bncslink32mainwindowimpl.obj
 0003:00014630       ??_C@_0N@KNFOEGGP@?$CK?5?5c?5?$CD851B1B?$AA@ 00496630     bncslink32mainwindowimpl.obj
 0003:00014640       ??_C@_0N@HJBDKDBH@?$DN?5?5c?5?$CD881C1C?$AA@ 00496640     bncslink32mainwindowimpl.obj
 0003:00014650       ??_C@_0N@OPCBHMDF@?9?5?5c?5?$CD9C1212?$AA@ 00496650     bncslink32mainwindowimpl.obj
 0003:00014660       ??_C@_0N@PMPJMJGG@?$DL?5?5c?5?$CDBA0000?$AA@ 00496660     bncslink32mainwindowimpl.obj
 0003:00014670       ??_C@_0N@BJPOBNGJ@?3?5?5c?5?$CDA31616?$AA@ 00496670     bncslink32mainwindowimpl.obj
 0003:00014680       ??_C@_0N@GLEMMMHO@?$DO?5?5c?5?$CDA41B1B?$AA@ 00496680     bncslink32mainwindowimpl.obj
 0003:00014690       ??_C@_0N@JHMJLLMH@?0?5?5c?5?$CDAA1D1D?$AA@ 00496690     bncslink32mainwindowimpl.obj
 0003:000146a0       ??_C@_0N@FEDFNFKE@?$DM?5?5c?5?$CD872323?$AA@ 004966a0     bncslink32mainwindowimpl.obj
 0003:000146b0       ??_C@_0N@DLMHNBPC@1?5?5c?5?$CD8B2525?$AA@ 004966b0     bncslink32mainwindowimpl.obj
 0003:000146c0       ??_C@_0N@MGMCCJDF@2?5?5c?5?$CD8D2B2B?$AA@ 004966c0     bncslink32mainwindowimpl.obj
 0003:000146d0       ??_C@_0N@JFPNJPCM@3?5?5c?5?$CD912D2D?$AA@ 004966d0     bncslink32mainwindowimpl.obj
 0003:000146e0       ??_C@_0N@FDENMNAO@4?5?5c?5?$CD8F3232?$AA@ 004966e0     bncslink32mainwindowimpl.obj
 0003:000146f0       ??_C@_0N@NCOENFGJ@5?5?5c?5?$CD933333?$AA@ 004966f0     bncslink32mainwindowimpl.obj
 0003:00014700       ??_C@_0N@FMNANFPE@6?5?5c?5?$CD953B3B?$AA@ 00496700     bncslink32mainwindowimpl.obj
 0003:00014710       ??_C@_0N@HMGPGDFL@7?5?5c?5?$CD9B3F3F?$AA@ 00496710     bncslink32mainwindowimpl.obj
 0003:00014720       ??_C@_0N@GAMKFFKF@8?5?5c?5?$CDAD2323?$AA@ 00496720     bncslink32mainwindowimpl.obj
 0003:00014730       ??_C@_0N@GCDBBEDC@9?5?5c?5?$CDB42B2B?$AA@ 00496730     bncslink32mainwindowimpl.obj
 0003:00014740       ??_C@_0N@PIJNFLCA@0?5?5c?5?$CDB92C2C?$AA@ 00496740     bncslink32mainwindowimpl.obj
 0003:00014750       ??_C@_0N@IBMBHEOB@q?5?5c?5?$CDBB3333?$AA@ 00496750     bncslink32mainwindowimpl.obj
 0003:00014760       ??_C@_0N@HICBECOO@w?5?5c?5?$CDBE3C3C?$AA@ 00496760     bncslink32mainwindowimpl.obj
 0003:00014770       ??_C@_0N@DJFBLGME@e?5?5c?5?$CDC50000?$AA@ 00496770     bncslink32mainwindowimpl.obj
 0003:00014780       ??_C@_0N@PLAHBLIH@r?5?5c?5?$CDCE0000?$AA@ 00496780     bncslink32mainwindowimpl.obj
 0003:00014790       ??_C@_0N@FNELIMC@t?5?5c?5?$CDDA0000?$AA@ 00496790     bncslink32mainwindowimpl.obj
 0003:000147a0       ??_C@_0N@FLIDFNIL@y?5?5c?5?$CDEB0303?$AA@ 004967a0     bncslink32mainwindowimpl.obj
 0003:000147b0       ??_C@_0N@IFDJDNBK@u?5?5c?5?$CDEB0C0C?$AA@ 004967b0     bncslink32mainwindowimpl.obj
 0003:000147c0       ??_C@_0N@IGCNJFKB@i?5?5c?5?$CDF30101?$AA@ 004967c0     bncslink32mainwindowimpl.obj
 0003:000147d0       ??_C@_0N@GIMENHEP@p?5?5c?5?$CDFE0101?$AA@ 004967d0     bncslink32mainwindowimpl.obj
 0003:000147e0       ??_C@_0N@DLPNNLA@a?5?5c?5?$CDF70A0A?$AA@ 004967e0     bncslink32mainwindowimpl.obj
 0003:000147f0       ??_C@_0N@JFMBCPII@s?5?5c?5?$CDFC0F0F?$AA@ 004967f0     bncslink32mainwindowimpl.obj
 0003:00014800       ??_C@_0N@FHNKOOND@d?5?5c?5?$CDE71111?$AA@ 00496800     bncslink32mainwindowimpl.obj
 0003:00014810       ??_C@_0N@DPAKLOEG@f?5?5c?5?$CDEC1313?$AA@ 00496810     bncslink32mainwindowimpl.obj
 0003:00014820       ??_C@_0N@GEPEBGAD@g?5?5c?5?$CDF41212?$AA@ 00496820     bncslink32mainwindowimpl.obj
 0003:00014830       ??_C@_0N@PEAEKIGL@h?5?5c?5?$CDFC1313?$AA@ 00496830     bncslink32mainwindowimpl.obj
 0003:00014840       ??_C@_0N@NAFIMEEK@j?5?5c?5?$CDFC1C1C?$AA@ 00496840     bncslink32mainwindowimpl.obj
 0003:00014850       ??_C@_0N@ECOAONPK@k?5?5c?5?$CDCB3737?$AA@ 00496850     bncslink32mainwindowimpl.obj
 0003:00014860       ??_C@_0N@NFNJCEEO@l?5?5c?5?$CDC43A3A?$AA@ 00496860     bncslink32mainwindowimpl.obj
 0003:00014870       ??_C@_0N@EPCDMKDJ@z?5?5c?5?$CDCC3C3C?$AA@ 00496870     bncslink32mainwindowimpl.obj
 0003:00014880       ??_C@_0N@FJJHGHMC@x?5?5c?5?$CDD23E3E?$AA@ 00496880     bncslink32mainwindowimpl.obj
 0003:00014890       ??_C@_0N@GCNOINIL@c?5?5c?5?$CDFC2828?$AA@ 00496890     bncslink32mainwindowimpl.obj
 0003:000148a0       ??_C@_0N@HLMMKOPA@v?5?5c?5?$CDFB3535?$AA@ 004968a0     bncslink32mainwindowimpl.obj
 0003:000148b0       ??_C@_0N@OJDHILGI@b?5?5c?5?$CD884848?$AA@ 004968b0     bncslink32mainwindowimpl.obj
 0003:000148c0       ??_C@_0N@LBPOIDBM@n?5?5c?5?$CD974242?$AA@ 004968c0     bncslink32mainwindowimpl.obj
 0003:000148d0       ??_C@_0N@PGHMCFIE@m?5?5c?5?$CD9B4343?$AA@ 004968d0     bncslink32mainwindowimpl.obj
 0003:000148e0       ??_C@_0N@BMAHIHKD@M?5?5c?5?$CD9E4C4C?$AA@ 004968e0     bncslink32mainwindowimpl.obj
 0003:000148f0       ??_C@_0N@GGNCAHOP@N?5?5c?5?$CD8D5454?$AA@ 004968f0     bncslink32mainwindowimpl.obj
 0003:00014900       ??_C@_0N@HEEDIDAN@B?5?5c?5?$CDA14C4C?$AA@ 00496900     bncslink32mainwindowimpl.obj
 0003:00014910       ??_C@_0N@JAEOAAJG@V?5?5c?5?$CDAE4C4C?$AA@ 00496910     bncslink32mainwindowimpl.obj
 0003:00014920       ??_C@_0N@MLFODJLJ@C?5?5c?5?$CDB04A4A?$AA@ 00496920     bncslink32mainwindowimpl.obj
 0003:00014930       ??_C@_0N@OIKJLHI@Z?5?5c?5?$CDA35252?$AA@ 00496930     bncslink32mainwindowimpl.obj
 0003:00014940       ??_C@_0N@ICNFBJHN@A?5?5c?5?$CDA75B5B?$AA@ 00496940     bncslink32mainwindowimpl.obj
 0003:00014950       ??_C@_0N@LOBCMFOC@S?5?5c?5?$CDA95E5E?$AA@ 00496950     bncslink32mainwindowimpl.obj
 0003:00014960       ??_C@_0N@COFKIEHA@D?5?5c?5?$CD8D6B6B?$AA@ 00496960     bncslink32mainwindowimpl.obj
 0003:00014970       ??_C@_0N@JJEOCJG@F?5?5c?5?$CD987C7C?$AA@ 00496970     bncslink32mainwindowimpl.obj
 0003:00014980       ??_C@_0N@BCMCMCLA@G?5?5c?5?$CDAC6363?$AA@ 00496980     bncslink32mainwindowimpl.obj
 0003:00014990       ??_C@_0N@LJEAPFFF@H?5?5c?5?$CDAF6A6A?$AA@ 00496990     bncslink32mainwindowimpl.obj
 0003:000149a0       ??_C@_0N@CLOJFGP@J?5?5c?5?$CDB06767?$AA@ 004969a0     bncslink32mainwindowimpl.obj
 0003:000149b0       ??_C@_0N@DNOOGGNI@K?5?5c?5?$CDB26C6C?$AA@ 004969b0     bncslink32mainwindowimpl.obj
 0003:000149c0       ??_C@_0N@HGFJLDHJ@L?5?5c?5?$CDB47171?$AA@ 004969c0     bncslink32mainwindowimpl.obj
 0003:000149d0       ??_C@_0N@PNLAMCFN@P?5?5c?5?$CDB87676?$AA@ 004969d0     bncslink32mainwindowimpl.obj
 0003:000149e0       ??_C@_0N@IKHEFFKC@I?5?5c?5?$CDB67878?$AA@ 004969e0     bncslink32mainwindowimpl.obj
 0003:000149f0       ??_C@_0N@OFCINENA@U?5?5c?5?$CDBB7B7B?$AA@ 004969f0     bncslink32mainwindowimpl.obj
 0003:00014a00       ??_C@_0N@JGGFDCGI@Y?5?5c?5?$CDCD4040?$AA@ 00496a00     bncslink32mainwindowimpl.obj
 0003:00014a10       ??_C@_0N@OJMHADLC@T?5?5c?5?$CDD34444?$AA@ 00496a10     bncslink32mainwindowimpl.obj
 0003:00014a20       ??_C@_0N@JHPHNKKM@R?5?5c?5?$CDDA4646?$AA@ 00496a20     bncslink32mainwindowimpl.obj
 0003:00014a30       ??_C@_0N@JHFPELMO@E?5?5c?5?$CDD64949?$AA@ 00496a30     bncslink32mainwindowimpl.obj
 0003:00014a40       ??_C@_0N@MJLJBFKJ@W?5?5c?5?$CDDC4C4C?$AA@ 00496a40     bncslink32mainwindowimpl.obj
 0003:00014a50       ??_C@_0N@FPJIBJIN@Q?5?5c?5?$CDDE5151?$AA@ 00496a50     bncslink32mainwindowimpl.obj
 0003:00014a60       ??_C@_0N@MGJAJLHK@?$CB?5?5c?5?$CDE24E4E?$AA@ 00496a60     bncslink32mainwindowimpl.obj
 0003:00014a70       ??_C@_0N@OHDGFGOK@?$HO?5?5c?5?$CDE45454?$AA@ 00496a70     bncslink32mainwindowimpl.obj
 0003:00014a80       ??_C@_0N@EJHBFIOF@?$FO?5?5c?5?$CDE95555?$AA@ 00496a80     bncslink32mainwindowimpl.obj
 0003:00014a90       ??_C@_0N@BOBFJLAP@?1?5?5c?5?$CDE55858?$AA@ 00496a90     bncslink32mainwindowimpl.obj
 0003:00014aa0       ??_C@_0N@GPEPKCAP@?$CI?5?5c?5?$CDEC5B5B?$AA@ 00496aa0     bncslink32mainwindowimpl.obj
 0003:00014ab0       ??_C@_0N@LGOKDFIH@?$CJ?5?5c?5?$CDF15D5D?$AA@ 00496ab0     bncslink32mainwindowimpl.obj
 0003:00014ac0       ??_C@_0N@NGONGNDL@_?5?5c?5?$CDD36565?$AA@ 00496ac0     bncslink32mainwindowimpl.obj
 0003:00014ad0       ??_C@_0N@FMGBAOME@?$GA?5?5c?5?$CDDC6464?$AA@ 00496ad0     bncslink32mainwindowimpl.obj
 0003:00014ae0       ??_C@_0N@MMODPAGI@?8?5?5c?5?$CDED6060?$AA@ 00496ae0     bncslink32mainwindowimpl.obj
 0003:00014af0       ??_C@_0N@JNIMKPMF@?$FN?5?5c?5?$CDF46464?$AA@ 00496af0     bncslink32mainwindowimpl.obj
 0003:00014b00       ??_C@_0N@FGOHCIFK@?$FL?5?5c?5?$CD8A8787?$AA@ 00496b00     bncslink32mainwindowimpl.obj
 0003:00014b10       ??_C@_0M@BCBBIKNB@?$HL?5?5c?5gray59?$AA@ 00496b10     bncslink32mainwindowimpl.obj
 0003:00014b20       ??_C@_0N@IBMNLIOP@?$HN?5?5c?5?$CD9D9B9B?$AA@ 00496b20     bncslink32mainwindowimpl.obj
 0003:00014b30       ??_C@_0N@LJKHIHAM@?$HM?5?5c?5?$CDBD8484?$AA@ 00496b30     bncslink32mainwindowimpl.obj
 0003:00014b40       ??_C@_0N@MCIINAMC@?5?4?5c?5?$CDB68989?$AA@ 00496b40     bncslink32mainwindowimpl.obj
 0003:00014b50       ??_C@_0N@HOIEHALI@?4?4?5c?5?$CDBD8989?$AA@ 00496b50     bncslink32mainwindowimpl.obj
 0003:00014b60       ??_C@_0N@IAKNDJID@X?4?5c?5?$CDBF9393?$AA@ 00496b60     bncslink32mainwindowimpl.obj
 0003:00014b70       ??_C@_0N@BOOFPGEF@o?4?5c?5?$CDA4A3A3?$AA@ 00496b70     bncslink32mainwindowimpl.obj
 0003:00014b80       ??_C@_0N@PKALPMDN@O?4?5c?5?$CDA9A7A7?$AA@ 00496b80     bncslink32mainwindowimpl.obj
 0003:00014b90       ??_C@_0N@FLANGMOK@?$CL?4?5c?5?$CDABABAB?$AA@ 00496b90     bncslink32mainwindowimpl.obj
 0003:00014ba0       ??_C@_0N@EGIIJNGO@?$EA?4?5c?5?$CDB5B5B5?$AA@ 00496ba0     bncslink32mainwindowimpl.obj
 0003:00014bb0       ??_C@_0N@HFAAGBJD@?$CD?4?5c?5?$CDBBBBBB?$AA@ 00496bb0     bncslink32mainwindowimpl.obj
 0003:00014bc0       ??_C@_0N@FPCAHBOM@$?4?5c?5?$CDC18585?$AA@ 00496bc0     bncslink32mainwindowimpl.obj
 0003:00014bd0       ??_C@_0N@OFEKBIOK@?$CF?4?5c?5?$CDC48C8C?$AA@ 00496bd0     bncslink32mainwindowimpl.obj
 0003:00014be0       ??_C@_0N@LIBNEEMA@?$CG?4?5c?5?$CDC49191?$AA@ 00496be0     bncslink32mainwindowimpl.obj
 0003:00014bf0       ??_C@_0N@GHODLJOO@?$CK?4?5c?5?$CDCB9393?$AA@ 00496bf0     bncslink32mainwindowimpl.obj
 0003:00014c00       ??_C@_0N@MBINNLNE@?$DN?4?5c?5?$CDC79898?$AA@ 00496c00     bncslink32mainwindowimpl.obj
 0003:00014c10       ??_C@_0N@PLPIHNJL@?9?4?5c?5?$CDCD9E9E?$AA@ 00496c10     bncslink32mainwindowimpl.obj
 0003:00014c20       ??_C@_0N@CFFAHKLA@?$DL?4?5c?5?$CDD29B9B?$AA@ 00496c20     bncslink32mainwindowimpl.obj
 0003:00014c30       ??_C@_0N@DAMIAMHL@?3?4?5c?5?$CDF18383?$AA@ 00496c30     bncslink32mainwindowimpl.obj
 0003:00014c40       ??_C@_0N@GPNMPIHE@?$DO?4?5c?5?$CDCDA0A0?$AA@ 00496c40     bncslink32mainwindowimpl.obj
 0003:00014c50       ??_C@_0N@JJGNCPIF@?0?4?5c?5?$CDD6A1A1?$AA@ 00496c50     bncslink32mainwindowimpl.obj
 0003:00014c60       ??_C@_0N@DHDCGJNJ@?$DM?4?5c?5?$CDD9A5A5?$AA@ 00496c60     bncslink32mainwindowimpl.obj
 0003:00014c70       ??_C@_0N@EHBDFNNF@1?4?5c?5?$CDD3ABAB?$AA@ 00496c70     bncslink32mainwindowimpl.obj
 0003:00014c80       ??_C@_0N@OCMJCEGB@2?4?5c?5?$CDD8B4B4?$AA@ 00496c80     bncslink32mainwindowimpl.obj
 0003:00014c90       ??_C@_0N@GJILCBNG@3?4?5c?5?$CDDCBBBB?$AA@ 00496c90     bncslink32mainwindowimpl.obj
 0003:00014ca0       ??_C@_0N@MMOLEGMO@4?4?5c?5?$CDC4C4C4?$AA@ 00496ca0     bncslink32mainwindowimpl.obj
 0003:00014cb0       ??_C@_0N@DAGLIDAC@5?4?5c?5?$CDCCCBCB?$AA@ 00496cb0     bncslink32mainwindowimpl.obj
 0003:00014cc0       ??_C@_0N@FMMLJJJL@6?4?5c?5?$CDDFC2C2?$AA@ 00496cc0     bncslink32mainwindowimpl.obj
 0003:00014cd0       ??_C@_0N@DOJNOBL@7?4?5c?5?$CDD4D4D4?$AA@ 00496cd0     bncslink32mainwindowimpl.obj
 0003:00014ce0       ??_C@_0N@MONDMEMC@8?4?5c?5?$CDDBDBDB?$AA@ 00496ce0     bncslink32mainwindowimpl.obj
 0003:00014cf0       ??_C@_0N@CAOFCIDA@9?4?5c?5?$CDE1C6C6?$AA@ 00496cf0     bncslink32mainwindowimpl.obj
 0003:00014d00       ??_C@_0N@HOCLCAKP@0?4?5c?5?$CDE6D0D0?$AA@ 00496d00     bncslink32mainwindowimpl.obj
 0003:00014d10       ??_C@_0N@NKIBPLIG@q?4?5c?5?$CDEAD7D7?$AA@ 00496d10     bncslink32mainwindowimpl.obj
 0003:00014d20       ??_C@_0N@CELBAHID@w?4?5c?5?$CDE4E4E4?$AA@ 00496d20     bncslink32mainwindowimpl.obj
 0003:00014d30       ??_C@_0N@HAFLFOHP@e?4?5c?5?$CDECECEC?$AA@ 00496d30     bncslink32mainwindowimpl.obj
 0003:00014d40       ??_C@_0N@FILLDPLO@r?4?5c?5?$CDF1E4E4?$AA@ 00496d40     bncslink32mainwindowimpl.obj
 0003:00014d50       ??_C@_0N@KBFLAJLB@t?4?5c?5?$CDF6EDED?$AA@ 00496d50     bncslink32mainwindowimpl.obj
 0003:00014d60       ??_C@_0M@CCNONKOD@y?4?5c?5gray96?$AA@ 00496d60     bncslink32mainwindowimpl.obj
 0003:00014d70       ??_C@_0N@FOOLNBHM@u?4?5c?5?$CDF9F3F3?$AA@ 00496d70     bncslink32mainwindowimpl.obj
 0003:00014d80       ??_C@_0N@IEILKMFE@i?4?5c?5?$CDFFFFFF?$AA@ 00496d80     bncslink32mainwindowimpl.obj
 0003:00014d90       ??_C@_09DKMOACIN@p?4?5c?5None?$AA@ 00496d90     bncslink32mainwindowimpl.obj
 0003:00014da0       ??_C@_0EB@FIMNJBND@p?4p?4p?4p?4p?4p?4?3?4?$FN?5?$FN?5?$CJ?5?$FN?5?$CJ?5?$FN?5?$CJ?5?$FN?5?$CJ?5@ 00496da0     bncslink32mainwindowimpl.obj
 0003:00014df0       ??_C@_0EB@MMLAHJJH@p?4p?4p?4p?4p?4?3?4v?5s?5f?5u?5a?5y?5y?5f?5u?5y?5@ 00496df0     bncslink32mainwindowimpl.obj
 0003:00014e40       ??_C@_0EB@NMBFEMPN@p?4p?4p?4p?4?3?4c?5h?5?9?5?$EA?5?$CG?5?$EA?5?$EA?5?$EA?5?$CG?5?$CG?5?$EA?5@ 00496e40     bncslink32mainwindowimpl.obj
 0003:00014e90       ??_C@_0EB@OHJKDHPM@p?4p?4p?4?3?4j?5a?5?9?5X?5?4?5?$CG?5?$CG?5?4?5?$CG?5?$CG?5?$CG?5?$CG?5@ 00496e90     bncslink32mainwindowimpl.obj
 0003:00014ee0       ??_C@_0EB@EFKLHNIE@p?4p?4?3?4j?5i?5?9?5?$CG?5?$CG?5?$CG?5?$CG?5?4?5?4?5?$CG?5?$EA?5?$CG?5?$CG?5@ 00496ee0     bncslink32mainwindowimpl.obj
 0003:00014f30       ??_C@_0EB@LLJLCKBL@p?4?3?4h?5i?5?$CD?5?$CG?5?$CG?5X?5?$CG?5?$CG?5?$CG?5?$EA?5?$CG?5X?5?$EA?5?$CG?5@ 00496f30     bncslink32mainwindowimpl.obj
 0003:00014f80       ??_C@_0EB@JCBIAMPE@?3?4h?5y?5?$CL?5X?5?$CG?5?$EA?5?4?5?4?5?$CG?5?$CG?5?$EA?5?$CG?5?4?5?4?5?$CG?5@ 00496f80     bncslink32mainwindowimpl.obj
 0003:00014fd0       ??_C@_0EB@FEJIEHHG@?$FN?5p?5?$CL?5?4?5?$EA?5?$CG?5?$EA?5X?5?$EA?5?$CG?5?$EA?5?$CG?5?$CG?5?4?5?4?5?$CG?5@ 00496fd0     bncslink32mainwindowimpl.obj
 0003:00015020       ??_C@_0EB@OMOLFIHF@?$FN?5i?5?4?5?4?5?$EA?5?$CG?5?$CG?5?$CG?5?$EA?5X?5?4?5?$CG?55?5X?5?4?5X?5@ 00497020     bncslink32mainwindowimpl.obj
 0003:00015070       ??_C@_0EB@EBHLMPNN@?$FN?5i?5?4?5?4?5?4?5?4?5?4?5?4?5?4?5?4?5?4?53?5i?4L?5?4?5?4?5@ 00497070     bncslink32mainwindowimpl.obj
 0003:000150c0       ??_C@_0EB@FJIMCNKG@?$FN?5i?5?4?5L?5t?4X?5?4?5?4?5?4?5?4?5?4?5m?5i?4?$CG?4?4?5?4?5@ 004970c0     bncslink32mainwindowimpl.obj
 0003:00015110       ??_C@_0EB@LHOJONPD@?$FN?5i?5?4?5U?5i?4X?5?4?5?4?5?4?5?4?5?4?5?$EA?5?9?42?5?4?5?4?5@ 00497110     bncslink32mainwindowimpl.obj
 0003:00015160       ??_C@_0EB@ILKNOEI@?$FN?5i?5?4?5U?5i?4X?5?4?5?4?5?4?5?4?51?55?55?5?$CK?5?4?5?4?5@ 00497160     bncslink32mainwindowimpl.obj
 0003:000151b0       ??_C@_0EB@OJOFGOBN@?$FN?5i?5?4?5I?5i?4X?5?4?5?4?5?4?5?4?56?4i?4i?4U?5?4?5?4?5@ 004971b0     bncslink32mainwindowimpl.obj
 0003:00015200       ??_C@_0EB@GONAALNJ@?$FN?5i?5X?5I?5i?4X?5?4?5?4?5?4?5?4?5G?5?$CF?4i?4U?5?4?5?4?5@ 00497200     bncslink32mainwindowimpl.obj
 0003:00015250       ??_C@_0EB@COLKAMAO@?$FN?5i?5?4?5I?5i?4X?5?4?5?4?5?4?5?4?5?4?5X?5i?4U?5?4?5?4?5@ 00497250     bncslink32mainwindowimpl.obj
 0003:000152a0       ??_C@_0EB@KAPHNBFL@?8?5i?5?4?5U?5i?4X?5?4?5?4?5?4?5?4?5?4?5X?5i?4U?5?4?5?4?5@ 004972a0     bncslink32mainwindowimpl.obj
 0003:000152f0       ??_C@_0EB@FMBOHCJP@?8?5i?5?4?5P?5i?4X?5?4?5?4?5?4?5?4?5?4?5?4?5i?4I?5?4?5?4?5@ 004972f0     bncslink32mainwindowimpl.obj
 0003:00015340       ??_C@_0EB@FNEHLOEE@?$CI?5i?5?4?5U?5i?4X?5?4?5?4?5?4?5?4?5?4?5X?5i?4U?5?4?5?4?5@ 00497340     bncslink32mainwindowimpl.obj
 0003:00015390       ??_C@_0EB@PMNHILMP@?$CI?5i?5?4?5U?5i?4X?5?4?5?4?5?4?5?4?5?4?5X?5i?4U?5?4?5?4?5@ 00497390     bncslink32mainwindowimpl.obj
 0003:000153e0       ??_C@_0EB@EONOFPCH@?1?5i?5?4?5I?5i?41?41?41?47?5?4?5L?5I?5i?43?4I?51?5@ 004973e0     bncslink32mainwindowimpl.obj
 0003:00015430       ??_C@_0EB@OLDBFAAP@Q?5i?5?4?5U?5i?4i?4i?4i?4G?5?4?5i?4i?4i?4i?4i?4M?5@ 00497430     bncslink32mainwindowimpl.obj
 0003:00015480       ??_C@_0EB@OCKEPDGH@Q?5i?5?4?5?$DM?5m?5m?5m?5n?5?$DM?5?4?5m?5B?5Z?5Z?5Z?54?5@ 00497480     bncslink32mainwindowimpl.obj
 0003:000154d0       ??_C@_0EB@CAOEIDFG@W?5i?5?4?5?4?5?4?5?4?5X?5X?5X?5o?5?$CG?5?$CK?5?$CK?5?$DM?52?54?5@ 004974d0     bncslink32mainwindowimpl.obj
 0003:00015520       ??_C@_0EB@LBNHLJPJ@W?5i?5?4?5?4?5X?5X?5o?5o?5o?52?52?5o?54?56?54?56?5@ 00497520     bncslink32mainwindowimpl.obj
 0003:00015570       ??_C@_0EB@KMCONLIC@E?5i?5X?5X?5X?5o?5o?5?$CK?5o?52?54?5b?5?$HN?5o?4D?5M?5@ 00497570     bncslink32mainwindowimpl.obj
 0003:000155c0       ??_C@_0EB@GHOFPPDF@T?5i?5o?5o?5o?5?$DM?52?52?52?54?56?5N?54?47?4?$FL?5G?5@ 004975c0     bncslink32mainwindowimpl.obj
 0003:00015610       ??_C@_0EB@PLGIKGHD@Y?5f?5?$FL?5?$HN?5?$HN?5?$HN?5?$HN?5?$HN?5o?4o?4O?4?$CL?47?47?4?$EA?4?$EA?4@ 00497610     bncslink32mainwindowimpl.obj
 0003:00015660       ??_C@_0EB@MFJBJLIO@Y?5d?5?$CL?44?45?45?45?45?45?47?47?48?48?48?48?4w?4@ 00497660     bncslink32mainwindowimpl.obj
 0003:000156b0       ??_C@_0EB@LAJHINIO@z?5d?5?$HL?5?$CL?4?$CL?4?$EA?4?$EA?4?$EA?4?$EA?4?$CD?4?$CD?4?$CD?44?44?45?45?4@ 004976b0     bncslink32mainwindowimpl.obj
 0003:00015700       ??_C@_0EB@FEFNLEJG@l?5p?5d?5d?5d?5d?5d?5d?5d?5d?5f?5f?5f?5f?5f?5f?5@ 00497700     bncslink32mainwindowimpl.obj
 0003:00015750       ??_C@_0EB@PMFOFMIB@V?5w?5q?5q?59?59?59?58?58?58?58?5?9?5?9?5?9?5?9?5$?5@ 00497750     bncslink32mainwindowimpl.obj
 0003:000157a4       ??_7listRouterCmd@@6B@     004977a4     bncslink32mainwindowimpl.obj
 0003:000157b0       ??_C@_1JA@EKKHPHED@?$AAc?$AA?3?$AA?2?$AAp?$AAr?$AAo?$AAg?$AAr?$AAa?$AAm?$AA?5?$AAf?$AAi?$AAl?$AAe?$AAs?$AA?5?$AA?$CI?$AAx?$AA8?$AA6?$AA?$CJ?$AA?2?$AAm?$AAi?$AAc?$AAr?$AAo?$AAs?$AAo?$AAf?$AAt@ 004977b0     bncslink32mainwindowimpl.obj
 0003:0001585c       ??_C@_1DC@POOIKBAO@?$AAI?$AAT?$AAE?$AAR?$AAA?$AAT?$AAO?$AAR?$AA?5?$AAL?$AAI?$AAS?$AAT?$AA?5?$AAC?$AAO?$AAR?$AAR?$AAU?$AAP?$AAT?$AAE?$AAD?$AA?$CB?$AA?$AA@ 0049785c     bncslink32mainwindowimpl.obj
 0003:0001589c       ??_7?$QPtrQueue@VlistRouterCmd@@@@6B@ 0049789c     bncslink32mainwindowimpl.obj
 0003:000158c8       ??_7bncslink32MainWindowImpl@@6BQObject@@@ 004978c8     bncslink32mainwindowimpl.obj
 0003:00015b4c       ??_7bncslink32MainWindowImpl@@6BQPaintDevice@@@ 00497b4c     bncslink32mainwindowimpl.obj
 0003:00015b74       ??_C@_0L@IBIBMCEH@1doAbout?$CI?$CJ?$AA@ 00497b74     bncslink32mainwindowimpl.obj
 0003:00015b84       ??_C@_09PJDIALKE@1doHelp?$CI?$CJ?$AA@ 00497b84     bncslink32mainwindowimpl.obj
 0003:00015b90       ??_C@_04HMIIHGGM@Path?$AA@ 00497b90     bncslink32mainwindowimpl.obj
 0003:00015b98       ??_C@_05LKEMKFAG@Panel?$AA@ 00497b98     bncslink32mainwindowimpl.obj
 0003:00015ba0       ??_C@_0BH@JAKLOKKA@1applcorePanelExited?$CI?$CJ?$AA@ 00497ba0     bncslink32mainwindowimpl.obj
 0003:00015bbc       ??_C@_0BB@PLPOOLEO@2processExited?$CI?$CJ?$AA@ 00497bbc     bncslink32mainwindowimpl.obj
 0003:00015bd0       ??_C@_0BI@MGAFIKFB@1log?$CI?5const?5QString?5?$CG?5?$CJ?$AA@ 00497bd0     bncslink32mainwindowimpl.obj
 0003:00015bec       ??_C@_0BI@JOBLCDHJ@2log?$CI?5const?5QString?5?$CG?5?$CJ?$AA@ 00497bec     bncslink32mainwindowimpl.obj
 0003:00015c08       ??_C@_0BN@CBMJMEAO@1logError?$CI?5const?5QString?5?$CG?5?$CJ?$AA@ 00497c08     bncslink32mainwindowimpl.obj
 0003:00015c2c       ??_C@_0BN@IEMBKPGC@2logError?$CI?5const?5QString?5?$CG?5?$CJ?$AA@ 00497c2c     bncslink32mainwindowimpl.obj
 0003:00015c50       ??_C@_07EODJIPPN@Address?$AA@ 00497c50     bncslink32mainwindowimpl.obj
 0003:00015c5c       ??_C@_06LGMEBDBC@Server?$AA@ 00497c5c     bncslink32mainwindowimpl.obj
 0003:00015c64       ??_C@_0L@DBMOFBHA@AltAddress?$AA@ 00497c64     bncslink32mainwindowimpl.obj
 0003:00015c74       ??_C@_04HOKNCALA@Port?$AA@ 00497c74     bncslink32mainwindowimpl.obj
 0003:00015c7c       ??_C@_07OEDPKDPB@AltPort?$AA@ 00497c7c     bncslink32mainwindowimpl.obj
 0003:00015c88       ??_C@_08KAFEAHEM@UserName?$AA@ 00497c88     bncslink32mainwindowimpl.obj
 0003:00015c94       ??_C@_05DHEMANOL@Login?$AA@ 00497c94     bncslink32mainwindowimpl.obj
 0003:00015c9c       ??_C@_08FJIAHGMM@Password?$AA@ 00497c9c     bncslink32mainwindowimpl.obj
 0003:00015ca8       ??_C@_0M@GHALFOCF@ControlPass?$AA@ 00497ca8     bncslink32mainwindowimpl.obj
 0003:00015cb8       ??_C@_0BJ@KKNADDFF@1fabianConnected?$CI?5bool?5?$CJ?$AA@ 00497cb8     bncslink32mainwindowimpl.obj
 0003:00015cd8       ??_C@_0BD@DMOIIKIB@2connected?$CI?5bool?5?$CJ?$AA@ 00497cd8     bncslink32mainwindowimpl.obj
 0003:00015cf0       ??_C@_0DH@DEFHDLPF@1routerCrosspoint?$CI?5UINT?0?5UINT?0?5U@ 00497cf0     bncslink32mainwindowimpl.obj
 0003:00015d34       ??_C@_0DG@KIHMNAJG@2routerCrosspoint?$CI?5UINT?0?5UINT?0?5U@ 00497d34     bncslink32mainwindowimpl.obj
 0003:00015d74       ??_C@_0CF@EEJPDFHM@1routerLock?$CI?5UINT?0?5UINT?0?5UINT?0?5b@ 00497d74     bncslink32mainwindowimpl.obj
 0003:00015da0       ??_C@_0CF@BOPOAKBM@2routerLock?$CI?5UINT?0?5UINT?0?5UINT?0?5b@ 00497da0     bncslink32mainwindowimpl.obj
 0003:00015dcc       ??_C@_0BP@KNFOCBDE@1routerPoll?$CI?5UINT?0?5UINT?0?5UINT?$CJ?$AA@ 00497dcc     bncslink32mainwindowimpl.obj
 0003:00015df4       ??_C@_0BP@LOHGBIEH@2routerPoll?$CI?5UINT?0?5UINT?0?5UINT?$CJ?$AA@ 00497df4     bncslink32mainwindowimpl.obj
 0003:00015e1c       ??_C@_0DJ@KILEHBGG@1routerModify?$CI?5UINT?0?5UINT?0?5UINT?0@ 00497e1c     bncslink32mainwindowimpl.obj
 0003:00015e60       ??_C@_0DJ@IBELAHMK@2routerModify?$CI?5UINT?0?5UINT?0?5UINT?0@ 00497e60     bncslink32mainwindowimpl.obj
 0003:00015ea4       ??_C@_0BP@JFCDCGDM@1gpiSwitch?$CI?5UINT?0?5UINT?0?5bool?5?$CJ?$AA@ 00497ea4     bncslink32mainwindowimpl.obj
 0003:00015ecc       ??_C@_0BO@ELLNLIPF@2gpiSwitch?$CI?5UINT?0?5UINT?0?5bool?$CJ?$AA@ 00497ecc     bncslink32mainwindowimpl.obj
 0003:00015ef0       ??_C@_0CC@BOEDBOOC@1gpiLock?$CI?5UINT?0?5UINT?0?5UINT?0?5bool@ 00497ef0     bncslink32mainwindowimpl.obj
 0003:00015f18       ??_C@_0CC@HDMFONLI@2gpiLock?$CI?5UINT?0?5UINT?0?5UINT?0?5bool@ 00497f18     bncslink32mainwindowimpl.obj
 0003:00015f40       ??_C@_0BM@OIPEFAI@1gpiPoll?$CI?5UINT?0?5UINT?0?5UINT?$CJ?$AA@ 00497f40     bncslink32mainwindowimpl.obj
 0003:00015f64       ??_C@_0BM@MFBECCP@2gpiPoll?$CI?5UINT?0?5UINT?0?5UINT?$CJ?$AA@ 00497f64     bncslink32mainwindowimpl.obj
 0003:00015f88       ??_C@_0CK@ILMEGABA@1infoWrite?$CI?5UINT?0?5UINT?0?5const?5QS@ 00497f88     bncslink32mainwindowimpl.obj
 0003:00015fbc       ??_C@_0CJ@KOBGONN@2infoWrite?$CI?5UINT?0?5UINT?0?5const?5QS@ 00497fbc     bncslink32mainwindowimpl.obj
 0003:00015ff0       ??_C@_0CD@CNAGBECO@1infoLock?$CI?5UINT?0?5UINT?0?5UINT?0?5boo@ 00497ff0     bncslink32mainwindowimpl.obj
 0003:0001601c       ??_C@_0CD@KGNFCKDH@2infoLock?$CI?5UINT?0?5UINT?0?5UINT?0?5boo@ 0049801c     bncslink32mainwindowimpl.obj
 0003:00016048       ??_C@_0BN@JPFCOGHB@1infoPoll?$CI?5UINT?0?5UINT?0?5UINT?$CJ?$AA@ 00498048     bncslink32mainwindowimpl.obj
 0003:0001606c       ??_C@_0BN@DKFKINBN@2infoPoll?$CI?5UINT?0?5UINT?0?5UINT?$CJ?$AA@ 0049806c     bncslink32mainwindowimpl.obj
 0003:00016090       ??_C@_0BI@JNGGLAHD@1reg?$CI?5UINT?0?5UINT?0?5UINT?$CJ?$AA@ 00498090     bncslink32mainwindowimpl.obj
 0003:000160ac       ??_C@_0BI@MFHIBJFL@2reg?$CI?5UINT?0?5UINT?0?5UINT?$CJ?$AA@ 004980ac     bncslink32mainwindowimpl.obj
 0003:000160c8       ??_C@_0O@GPBBEOJK@1unreg?$CI?5UINT?$CJ?$AA@ 004980c8     bncslink32mainwindowimpl.obj
 0003:000160d8       ??_C@_0O@BDHAGLEB@2unreg?$CI?5UINT?$CJ?$AA@ 004980d8     bncslink32mainwindowimpl.obj
 0003:000160e8       ??_C@_0CD@JLAJELNG@1routerRevertive?$CI?5UINT?0?5UINT?0?5in@ 004980e8     bncslink32mainwindowimpl.obj
 0003:00016114       ??_C@_0CD@BANKHFMP@2routerRevertive?$CI?5UINT?0?5UINT?0?5in@ 00498114     bncslink32mainwindowimpl.obj
 0003:00016140       ??_C@_0CN@KLIBBCNH@1infoRevertive?$CI?5UINT?0?5UINT?0?5cons@ 00498140     bncslink32mainwindowimpl.obj
 0003:00016178       ??_C@_0CO@NDNBMOLE@2infoRevertive?$CI?5UINT?0?5UINT?0?5cons@ 00498178     bncslink32mainwindowimpl.obj
 0003:000161b0       ??_C@_0CC@GCBKBKNO@1gpiRevertive?$CI?5UINT?0?5UINT?0?5bool?5@ 004981b0     bncslink32mainwindowimpl.obj
 0003:000161d8       ??_C@_0CB@PGAJDGM@2gpiRevertive?$CI?5UINT?0?5UINT?0?5bool?$CJ@ 004981d8     bncslink32mainwindowimpl.obj
 0003:00016200       ??_C@_0DF@BBJBBPOM@1databaseChange?$CI?5UINT?0?5UINT?0?5UIN@ 00498200     bncslink32mainwindowimpl.obj
 0003:00016240       ??_C@_0DF@JCPIMPCP@2databaseChange?$CI?5UINT?0?5UINT?0?5UIN@ 00498240     bncslink32mainwindowimpl.obj
 0003:00016280       ??_C@_0DB@EMIIFEC@1routerName?$CI?5UINT?0?5UINT?0?5UINT?0?5c@ 00498280     bncslink32mainwindowimpl.obj
 0003:000162bc       ??_C@_0DB@EOFBPCDG@2routerName?$CI?5UINT?0?5UINT?0?5UINT?0?5c@ 004982bc     bncslink32mainwindowimpl.obj
 0003:000162f8       ??_C@_0BB@LDFCHELL@UpdateFromFabian?$AA@ 004982f8     bncslink32mainwindowimpl.obj
 0003:0001630c       ??_C@_08HDBDMMBI@Database?$AA@ 0049830c     bncslink32mainwindowimpl.obj
 0003:00016318       ??_C@_0BK@LBAEKIAG@CloseBNCSLinkOnPanelClose?$AA@ 00498318     bncslink32mainwindowimpl.obj
 0003:00016338       ??_C@_04DDFEFHOJ@Help?$AA@ 00498338     bncslink32mainwindowimpl.obj
 0003:00016340       ??_C@_02PNHBFOHM@Ok?$AA@   00498340     bncslink32mainwindowimpl.obj
 0003:00016344       ??_C@_0BB@FCLDIOHF@Could?5not?5start?5?$AA@ 00498344     bncslink32mainwindowimpl.obj
 0003:00016358       ??_C@_0BF@FJGHCED@V3BNCSLink?3?5Oh?5dear?$CB?$AA@ 00498358     bncslink32mainwindowimpl.obj
 0003:00016374       ??_C@_0BP@PGOGBCNB@No?5Connection?5to?5remote?5server?$AA@ 00498374     bncslink32mainwindowimpl.obj
 0003:0001639c       ??_C@_07HNEBHIML@?$DM?1font?$DO?$AA@ 0049839c     bncslink32mainwindowimpl.obj
 0003:000163a8       ??_C@_0BD@CGLNOBCN@?$DMfont?5color?$DN?$CCred?$CC?$DO?$AA@ 004983a8     bncslink32mainwindowimpl.obj
 0003:000163c0       ??_C@_0M@ELBHBLGC@bncs_cc?4dll?$AA@ 004983c0     bncslink32mainwindowimpl.obj
 0003:000163d0       ??_C@_0L@CBNGBLIF@bwcc32?4dll?$AA@ 004983d0     bncslink32mainwindowimpl.obj
 0003:000163e0       ??_C@_02CAHBHFGK@?4?1?$AA@ 004983e0     bncslink32mainwindowimpl.obj
 0003:000163e4       ??_C@_0O@BFEMNBLJ@bncs_cc?$DP?$DP?4dll?$AA@ 004983e4     bncslink32mainwindowimpl.obj
 0003:000163f4       ??_C@_0BD@FFAKGAPP@c?3?2bncs_config?4ini?$AA@ 004983f4     bncslink32mainwindowimpl.obj
 0003:0001640c       ??_C@_06KIMFAMMH@WINDIR?$AA@ 0049840c     bncslink32mainwindowimpl.obj
 0003:00016414       ??_C@_0L@LGPNDKFG@SystemPath?$AA@ 00498414     bncslink32mainwindowimpl.obj
 0003:00016424       ??_C@_06LLCHJONG@Config?$AA@ 00498424     bncslink32mainwindowimpl.obj
 0003:0001642c       ??_C@_05KOLKDEPN@?$CF1?1?$CF2?$AA@ 0049842c     bncslink32mainwindowimpl.obj
 0003:00016434       ??_C@_02PIGFKFFE@?$CF1?$AA@ 00498434     bncslink32mainwindowimpl.obj
 0003:00016438       ??_C@_04BJBPLFHE@?4bak?$AA@ 00498438     bncslink32mainwindowimpl.obj
 0003:00016440       ??_C@_01KMDKNFGN@?1?$AA@   00498440     bncslink32mainwindowimpl.obj
 0003:00016448       ??_C@_0HA@MAAGPJDN@Windows?5copy?5of?5custom?5control?5?$CF@ 00498448     bncslink32mainwindowimpl.obj
 0003:000164d0       ??_C@_0BL@JGCCDFDA@Moving?5local?5file?5?$CF1?5to?5?$CF2?$AA@ 004984d0     bncslink32mainwindowimpl.obj
 0003:000164f0       ??_C@_0BJ@NPGEELID@Can?8t?5open?5master?5file?3?5?$AA@ 004984f0     bncslink32mainwindowimpl.obj
 0003:00016510       ??_C@_0BI@LOEADDFG@Can?8t?5open?5slave?5file?3?5?$AA@ 00498510     bncslink32mainwindowimpl.obj
 0003:0001652c       ??_C@_01LFCBOECM@?4?$AA@   0049852c     bncslink32mainwindowimpl.obj
 0003:00016530       ??_C@_0L@DHJBNFFA@ConfigPath?$AA@ 00498530     bncslink32mainwindowimpl.obj
 0003:00016540       ??_C@_0M@OAOKKMLA@Environment?$AA@ 00498540     bncslink32mainwindowimpl.obj
 0003:00016550       ??_C@_0CB@CDPIBHNK@Config?5?$CIDEV_xxx?4INI?$CJ?5file?5path?3?5@ 00498550     bncslink32mainwindowimpl.obj
 0003:00016578       ??_C@_0M@MBCGCMKA@dev_?$DP?$DP?$DP?4db?$CK?$AA@ 00498578     bncslink32mainwindowimpl.obj
 0003:00016588       ??_C@_04IPBPFFEL@Load?$AA@ 00498588     bncslink32mainwindowimpl.obj
 0003:00016590       ??_C@_0L@NAAOOCLD@dev_?$CF1?4ini?$AA@ 00498590     bncslink32mainwindowimpl.obj
 0003:000165a0       ??_C@_0BA@DJIIFJIC@DatabaseSize_?$CF1?$AA@ 004985a0     bncslink32mainwindowimpl.obj
 0003:000165b4       ??_C@_0DH@LLNAAHHB@Checking?5databases?5for?5device?5?$CF1@ 004985b4     bncslink32mainwindowimpl.obj
 0003:000165f8       ??_C@_0DN@FBPJCCGH@Databases?5are?5now?5up?5to?5date?5wit@ 004985f8     bncslink32mainwindowimpl.obj
 0003:00016644       ??_C@_0L@BCFCBKLG@?$CF1?2csi?4ini?$AA@ 00498644     bncslink32mainwindowimpl.obj
 0003:00016654       ??_C@_0M@CILGCIDH@Workstation?$AA@ 00498654     bncslink32mainwindowimpl.obj
 0003:00016664       ??_C@_07BGDMAJAE@Network?$AA@ 00498664     bncslink32mainwindowimpl.obj
 0003:00016670       ??_C@_0DG@JBDBBMGK@Creating?5a?5default?5workstation?5n@ 00498670     bncslink32mainwindowimpl.obj
 0003:000166b0       ??_C@_01HIHLOKLC@1?$AA@    004986b0     bncslink32mainwindowimpl.obj
 0003:000166b4       ??_C@_04JLMDILM@?4exe?$AA@ 004986b4     bncslink32mainwindowimpl.obj
 0003:000166bc       ??_C@_04PICIEOBI@?4chm?$AA@ 004986bc     bncslink32mainwindowimpl.obj
 0003:000166c4       ??_C@_0BB@JMGMNEKD@SetV4Environment?$AA@ 004986c4     bncslink32mainwindowimpl.obj
 0003:000166d8       ??_C@_02GPIGINON@c?3?$AA@  004986d8     bncslink32mainwindowimpl.obj
 0003:000166dc       ??_C@_07JBEBLGDD@CC_ROOT?$AA@ 004986dc     bncslink32mainwindowimpl.obj
 0003:000166e8       ??_C@_04EPFFPDLD@bncs?$AA@ 004986e8     bncslink32mainwindowimpl.obj
 0003:000166f0       ??_C@_09DDAHAMBK@CC_SYSTEM?$AA@ 004986f0     bncslink32mainwindowimpl.obj
 0003:000166fc       ??_C@_0P@PKHJHOPF@CC_WORKSTATION?$AA@ 004986fc     bncslink32mainwindowimpl.obj
 0003:00016710       ??_C@_0L@KNLMKNCC@CC_ROOT?$DN?$CFs?$AA@ 00498710     bncslink32mainwindowimpl.obj
 0003:00016720       ??_C@_0N@BLLFHCHI@CC_SYSTEM?$DN?$CFs?$AA@ 00498720     bncslink32mainwindowimpl.obj
 0003:00016730       ??_C@_0BC@BGDMCGPF@CC_WORKSTATION?$DN?$CFd?$AA@ 00498730     bncslink32mainwindowimpl.obj
 0003:00016748       ??_C@_04HBHDLLBA@PATH?$AA@ 00498748     bncslink32mainwindowimpl.obj
 0003:00016750       ??_C@_0BK@CJPFGFE@PATH?$DN?$CFs?2?$CFs?2windows?2lib?$DL?$CFs?$AA@ 00498750     bncslink32mainwindowimpl.obj
 0003:00016770       ??_C@_1IK@HBAODOLH@?$AAc?$AA?3?$AA?2?$AAp?$AAr?$AAo?$AAg?$AAr?$AAa?$AAm?$AA?5?$AAf?$AAi?$AAl?$AAe?$AAs?$AA?5?$AA?$CI?$AAx?$AA8?$AA6?$AA?$CJ?$AA?2?$AAm?$AAi?$AAc?$AAr?$AAo?$AAs?$AAo?$AAf?$AAt@ 00498770     bncslink32mainwindowimpl.obj
 0003:00016818       ??_C@_1EK@PPDBPCAN@?$AAm?$AAa?$AAp?$AA?1?$AAs?$AAe?$AAt?$AA?5?$AAe?$AAr?$AAa?$AAs?$AAe?$AA?5?$AAi?$AAt?$AAe?$AAr?$AAa?$AAt?$AAo?$AAr?$AA?5?$AAo?$AAu?$AAt?$AAs?$AAi?$AAd?$AAe?$AA?5?$AAr@ 00498818     bncslink32mainwindowimpl.obj
 0003:00016870       ??_C@_1DO@CFEEPGGJ@?$AAm?$AAa?$AAp?$AA?1?$AAs?$AAe?$AAt?$AA?5?$AAi?$AAt?$AAe?$AAr?$AAa?$AAt?$AAo?$AAr?$AAs?$AA?5?$AAi?$AAn?$AAc?$AAo?$AAm?$AAp?$AAa?$AAt?$AAi?$AAb?$AAl?$AAe?$AA?$AA@ 00498870     bncslink32mainwindowimpl.obj
 0003:000168bc       ??_C@_0CI@FNPHFCCM@Standard?5C?$CL?$CL?5Libraries?5Invalid?5A@ 004988bc     bncslink32mainwindowimpl.obj
 0003:000168f0       ??_C@_1FO@GJIHNDLM@?$AA?$CC?$AAS?$AAt?$AAa?$AAn?$AAd?$AAa?$AAr?$AAd?$AA?5?$AAC?$AA?$CL?$AA?$CL?$AA?5?$AAL?$AAi?$AAb?$AAr?$AAa?$AAr?$AAi?$AAe?$AAs?$AA?5?$AAI?$AAn?$AAv?$AAa?$AAl?$AAi?$AAd?$AA?5@ 004988f0     bncslink32mainwindowimpl.obj
 0003:00016960       ??_C@_15GANGMFKL@?$AA?$CF?$AAs?$AA?$AA@ 00498960     bncslink32mainwindowimpl.obj
 0003:00016968       ??_C@_1MI@NPLPGBJO@?$AAs?$AAt?$AAd?$AA?3?$AA?3?$AA_?$AAT?$AAr?$AAe?$AAe?$AA_?$AAc?$AAo?$AAn?$AAs?$AAt?$AA_?$AAi?$AAt?$AAe?$AAr?$AAa?$AAt?$AAo?$AAr?$AA?$DM?$AAc?$AAl?$AAa?$AAs?$AAs?$AA?5@ 00498968     bncslink32mainwindowimpl.obj
 0003:00016a58       ??_C@_1CG@JNLFBNGN@?$AA?$CC?$AAi?$AAn?$AAv?$AAa?$AAl?$AAi?$AAd?$AA?5?$AAa?$AAr?$AAg?$AAu?$AAm?$AAe?$AAn?$AAt?$AA?$CC?$AA?$AA@ 00498a58     bncslink32mainwindowimpl.obj
 0003:00016a88       ??_C@_1EG@EHJFMBHJ@?$AAm?$AAa?$AAp?$AA?1?$AAs?$AAe?$AAt?$AA?5?$AAi?$AAt?$AAe?$AAr?$AAa?$AAt?$AAo?$AAr?$AA?5?$AAn?$AAo?$AAt?$AA?5?$AAi?$AAn?$AAc?$AAr?$AAe?$AAm?$AAe?$AAn?$AAt?$AAa?$AAb@ 00498a88     bncslink32mainwindowimpl.obj
 0003:00016adc       ??_C@_0CE@OFMIGAMM@Standard?5C?$CL?$CL?5Libraries?5Out?5of?5Ra@ 00498adc     bncslink32mainwindowimpl.obj
 0003:00016b08       ??_C@_1FG@IBPIFFN@?$AA?$CC?$AAS?$AAt?$AAa?$AAn?$AAd?$AAa?$AAr?$AAd?$AA?5?$AAC?$AA?$CL?$AA?$CL?$AA?5?$AAL?$AAi?$AAb?$AAr?$AAa?$AAr?$AAi?$AAe?$AAs?$AA?5?$AAO?$AAu?$AAt?$AA?5?$AAo?$AAf?$AA?5?$AAR@ 00498b08     bncslink32mainwindowimpl.obj
 0003:00016b70       ??_C@_1MI@HPECIIFL@?$AAs?$AAt?$AAd?$AA?3?$AA?3?$AA_?$AAT?$AAr?$AAe?$AAe?$AA_?$AAc?$AAo?$AAn?$AAs?$AAt?$AA_?$AAi?$AAt?$AAe?$AAr?$AAa?$AAt?$AAo?$AAr?$AA?$DM?$AAc?$AAl?$AAa?$AAs?$AAs?$AA?5@ 00498b70     bncslink32mainwindowimpl.obj
 0003:00016c60       ??_C@_1BO@MEPPHOO@?$AA?$CC?$AAo?$AAu?$AAt?$AA?5?$AAo?$AAf?$AA?5?$AAr?$AAa?$AAn?$AAg?$AAe?$AA?$CC?$AA?$AA@ 00498c60     bncslink32mainwindowimpl.obj
 0003:00016c88       ??_C@_1EG@OKCGOALM@?$AAm?$AAa?$AAp?$AA?1?$AAs?$AAe?$AAt?$AA?5?$AAi?$AAt?$AAe?$AAr?$AAa?$AAt?$AAo?$AAr?$AA?5?$AAn?$AAo?$AAt?$AA?5?$AAd?$AAe?$AAc?$AAr?$AAe?$AAm?$AAe?$AAn?$AAt?$AAa?$AAb@ 00498c88     bncslink32mainwindowimpl.obj
 0003:00016ce0       ??_C@_1MI@IMHADEJK@?$AAs?$AAt?$AAd?$AA?3?$AA?3?$AA_?$AAT?$AAr?$AAe?$AAe?$AA_?$AAc?$AAo?$AAn?$AAs?$AAt?$AA_?$AAi?$AAt?$AAe?$AAr?$AAa?$AAt?$AAo?$AAr?$AA?$DM?$AAc?$AAl?$AAa?$AAs?$AAs?$AA?5@ 00498ce0     bncslink32mainwindowimpl.obj
 0003:00016dd0       ??_C@_1CE@IGJMOCCK@?$AAi?$AAn?$AAv?$AAa?$AAl?$AAi?$AAd?$AA?5?$AAo?$AAp?$AAe?$AAr?$AAa?$AAt?$AAo?$AAr?$AA?$DM?$AA?$AA@ 00498dd0     bncslink32mainwindowimpl.obj
 0003:00016dfc       ??_C@_0BE@JONHPENG@map?1set?$DMT?$DO?5too?5long?$AA@ 00498dfc     bncslink32mainwindowimpl.obj
 0003:00016e18       ??_7clientsRegistration@@6B@ 00498e18     clientsRegistration.obj
 0003:00016e20       ??_C@_1II@JJNHCLOG@?$AAc?$AA?3?$AA?2?$AAp?$AAr?$AAo?$AAg?$AAr?$AAa?$AAm?$AA?5?$AAf?$AAi?$AAl?$AAe?$AAs?$AA?5?$AA?$CI?$AAx?$AA8?$AA6?$AA?$CJ?$AA?2?$AAm?$AAi?$AAc?$AAr?$AAo?$AAs?$AAo?$AAf?$AAt@ 00498e20     clientsRegistration.obj
 0003:00016ec8       ??_C@_1EC@HILJLMMC@?$AAl?$AAi?$AAs?$AAt?$AA?5?$AAi?$AAt?$AAe?$AAr?$AAa?$AAt?$AAo?$AAr?$AA?5?$AAn?$AAo?$AAt?$AA?5?$AAd?$AAe?$AAr?$AAe?$AAf?$AAe?$AAr?$AAe?$AAn?$AAc?$AAa?$AAb?$AAl?$AAe@ 00498ec8     clientsRegistration.obj
 0003:00016f18       ??_C@_1OC@NFNAHEGO@?$AAs?$AAt?$AAd?$AA?3?$AA?3?$AA_?$AAL?$AAi?$AAs?$AAt?$AA_?$AAc?$AAo?$AAn?$AAs?$AAt?$AA_?$AAi?$AAt?$AAe?$AAr?$AAa?$AAt?$AAo?$AAr?$AA?$DM?$AAc?$AAl?$AAa?$AAs?$AAs?$AA?5@ 00498f18     clientsRegistration.obj
 0003:00017028       ??_C@_1EA@DOGAGKDH@?$AAl?$AAi?$AAs?$AAt?$AA?5?$AAi?$AAt?$AAe?$AAr?$AAa?$AAt?$AAo?$AAr?$AA?5?$AAn?$AAo?$AAt?$AA?5?$AAi?$AAn?$AAc?$AAr?$AAe?$AAm?$AAe?$AAn?$AAt?$AAa?$AAb?$AAl?$AAe?$AA?$AA@ 00499028     clientsRegistration.obj
 0003:00017078       ??_C@_1OE@BAHJNNEG@?$AAs?$AAt?$AAd?$AA?3?$AA?3?$AA_?$AAL?$AAi?$AAs?$AAt?$AA_?$AAc?$AAo?$AAn?$AAs?$AAt?$AA_?$AAi?$AAt?$AAe?$AAr?$AAa?$AAt?$AAo?$AAr?$AA?$DM?$AAc?$AAl?$AAa?$AAs?$AAs?$AA?5@ 00499078     clientsRegistration.obj
 0003:00017190       ??_C@_1EE@BBMFLDOC@?$AAl?$AAi?$AAs?$AAt?$AA?5?$AAe?$AAr?$AAa?$AAs?$AAe?$AA?5?$AAi?$AAt?$AAe?$AAr?$AAa?$AAt?$AAo?$AAr?$AA?5?$AAo?$AAu?$AAt?$AAs?$AAi?$AAd?$AAe?$AA?5?$AAr?$AAa?$AAn?$AAg@ 00499190     clientsRegistration.obj
 0003:000171e4       ??_C@_1DI@MDELDGPI@?$AAl?$AAi?$AAs?$AAt?$AA?5?$AAi?$AAt?$AAe?$AAr?$AAa?$AAt?$AAo?$AAr?$AAs?$AA?5?$AAi?$AAn?$AAc?$AAo?$AAm?$AAp?$AAa?$AAt?$AAi?$AAb?$AAl?$AAe?$AA?$AA@ 004991e4     clientsRegistration.obj
 0003:00017228       ??_C@_1OE@LAIEDEID@?$AAs?$AAt?$AAd?$AA?3?$AA?3?$AA_?$AAL?$AAi?$AAs?$AAt?$AA_?$AAc?$AAo?$AAn?$AAs?$AAt?$AA_?$AAi?$AAt?$AAe?$AAr?$AAa?$AAt?$AAo?$AAr?$AA?$DM?$AAc?$AAl?$AAa?$AAs?$AAs?$AA?5@ 00499228     clientsRegistration.obj
 0003:0001733c       ??_C@_0BB@MOGOBHAF@list?$DMT?$DO?5too?5long?$AA@ 0049933c     clientsRegistration.obj
 0003:00017350       ??_C@_0CC@PINEBBIG@AREALLYREALLYLONGANDUNLIKELYENTR@ 00499350     config.obj
 0003:00017378       ??_C@_0P@DJAAIAML@?4?2bncslink?4ini?$AA@ 00499378     config.obj
 0003:00017390       ??_7fabianClient@@6BQObject@@@ 00499390     fabianClient.obj
 0003:00017414       ??_7fabianClient@@6BQIODevice@@@ 00499414     fabianClient.obj
 0003:0001745c       ??_C@_0BD@FFBMDFLI@1socketConnected?$CI?$CJ?$AA@ 0049945c     fabianClient.obj
 0003:00017474       ??_C@_0N@HFKJPEEA@2connected?$CI?$CJ?$AA@ 00499474     fabianClient.obj
 0003:00017484       ??_C@_0BK@ICKOECJP@1socketConnectionClosed?$CI?$CJ?$AA@ 00499484     fabianClient.obj
 0003:000174a4       ??_C@_0BE@HHJONDGK@2connectionClosed?$CI?$CJ?$AA@ 004994a4     fabianClient.obj
 0003:000174bc       ??_C@_0BD@FMCBOAMA@1socketReadyRead?$CI?$CJ?$AA@ 004994bc     fabianClient.obj
 0003:000174d4       ??_C@_0N@HMJECBDI@2readyRead?$CI?$CJ?$AA@ 004994d4     fabianClient.obj
 0003:000174e4       ??_C@_0BC@GKLAGANH@1socketError?$CIint?$CJ?$AA@ 004994e4     fabianClient.obj
 0003:000174fc       ??_C@_0O@JDCHBGJK@2error?$CI?5int?5?$CJ?$AA@ 004994fc     fabianClient.obj
 0003:0001750c       ??_C@_0L@LIGHCAPP@connected?$CB?$AA@ 0049950c     fabianClient.obj
 0003:0001751c       ??_C@_0O@DOMIBFGF@ARR?5?$CFd?5?$CFd?5?$CFd?$AN?$AA@ 0049951c     fabianClient.obj
 0003:0001752c       ??_C@_07DLLOOOIG@ARU?5?$CFd?$AN?$AA@ 0049952c     fabianClient.obj
 0003:00017538       ??_C@_0BD@DEFPDNNH@ARC?5?$CFd?5?$CFd?5?$CFd?5?8?$CFs?8?$AN?$AA@ 00499538     fabianClient.obj
 0003:00017550       ??_C@_01LIIJDEN@?$AN?$AA@  00499550     fabianClient.obj
 0003:00017554       ??_C@_01EEMJAFIK@?6?$AA@   00499554     fabianClient.obj
 0003:00017558       ??_C@_04MHPGGAEO@ARR?5?$AA@ 00499558     fabianClient.obj
 0003:00017560       ??_C@_04KADBMHOD@AGR?5?$AA@ 00499560     fabianClient.obj
 0003:00017568       ??_C@_04EAOOLANA@AIR?5?$AA@ 00499568     fabianClient.obj
 0003:00017570       ??_C@_04NCMKDKFK@ARN?5?$AA@ 00499570     fabianClient.obj
 0003:00017578       ??_C@_04KPGAKBEK@ADC?5?$AA@ 00499578     fabianClient.obj
 0003:00017580       ??_C@_04DCHGMGIO@ERR?5?$AA@ 00499580     fabianClient.obj
 0003:00017588       ??_C@_08OOAGBOBG@Ready?4?4?4?$AA@ 00499588     fabianClient.obj
 0003:00017594       ??_C@_0BH@KCKDPFLM@Control?5access?5granted?$AA@ 00499594     fabianClient.obj
 0003:000175b0       ??_C@_06BCEGKJIE@Login?3?$AA@ 004995b0     fabianClient.obj
 0003:000175b8       ??_C@_04MIDAANL@sun?5?$AA@ 004995b8     fabianClient.obj
 0003:000175c0       ??_C@_04BKDLIOKB@sup?5?$AA@ 004995c0     fabianClient.obj
 0003:000175c8       ??_C@_04EFLJDII@suc?5?$AA@ 004995c8     fabianClient.obj
 0003:000175d0       ??_C@_06IENJLKJL@sue?50?$AN?$AA@ 004995d0     fabianClient.obj
 0003:000175d8       ??_C@_03LBPJDMB@RUT?$AA@   004995d8     fabianClient.obj
 0003:000175dc       ??_C@_04EPFCJJA@rur?$AN?$AA@ 004995dc     fabianClient.obj
 0003:000175e4       ??_C@_0BH@BNODLNAM@connection?5was?5refused?$AA@ 004995e4     fabianClient.obj
 0003:00017600       ??_C@_0BD@BKPIIHNH@host?5was?5not?5found?$AA@ 00499600     fabianClient.obj
 0003:00017618       ??_C@_0CE@KHCONGLE@Connecting?5to?5alternative?5addres@ 00499618     fabianClient.obj
 0003:00017644       ??_C@_0CB@NGHNMIGB@if?5a?5read?5from?5the?5socket?5failed@ 00499644     fabianClient.obj
 0003:0001766c       ??_C@_0O@KOKBPEME@Socket?5error?5?$AA@ 0049966c     fabianClient.obj
 0003:0001767c       ??_C@_0BN@GBADJMDJ@Connecting?5to?5main?5address?3?5?$AA@ 0049967c     fabianClient.obj
 0003:000176a0       ??_C@_0BA@MNNDMOCA@AIW?5?$CFd?5?8?$CFs?8?5?$CFd?$AN?$AA@ 004996a0     fabianClient.obj
 0003:000176b4       ??_C@_0O@IBDNJCID@AIP?5?$CFd?5?$CFd?5?$CFd?$AN?$AA@ 004996b4     fabianClient.obj
 0003:000176c4       ??_C@_0BB@KNDGJOHC@AIL?5?$CFd?5?$CFd?5?$CFd?5?$CFd?$AN?$AA@ 004996c4     fabianClient.obj
 0003:000176d8       ??_C@_0O@MEFEMMD@AGS?5?$CFd?5?$CFd?5?$CFd?$AN?$AA@ 004996d8     fabianClient.obj
 0003:000176e8       ??_C@_0O@HLNLJODD@AGP?5?$CFd?5?$CFd?5?$CFd?$AN?$AA@ 004996e8     fabianClient.obj
 0003:000176f8       ??_C@_0BB@INLEGINJ@AGL?5?$CFd?5?$CFd?5?$CFd?5?$CFd?$AN?$AA@ 004996f8     fabianClient.obj
 0003:0001770c       ??_C@_0O@NCPDILPK@ARP?5?$CFd?5?$CFd?5?$CFd?$AN?$AA@ 0049970c     fabianClient.obj
 0003:0001771c       ??_C@_0BB@BBMKILFB@ARL?5?$CFd?5?$CFd?5?$CFd?5?$CFd?$AN?$AA@ 0049971c     fabianClient.obj
 0003:00017730       ??_C@_0BB@HOHOMEFO@ALR?5?$CFd?5?$CFd?5?$CFd?5?$CFd?$AN?$AA@ 00499730     fabianClient.obj
 0003:00017744       ??_C@_0BG@FEMPMFDF@ARM?5?$CFd?5?$CFd?5?$CFd?5?8?$CFs?8?5?$CFd?$AN?$AA@ 00499744     fabianClient.obj
 0003:00017764       ??_7messageWindow@@6B@     00499764     messageWindow.obj
 0003:000177c8       ??_7error_category@std@@6B@ 004997c8     messageWindow.obj
 0003:000177ec       ??_7_Generic_error_category@std@@6B@ 004997ec     messageWindow.obj
 0003:0001780c       ??_C@_07DCLBNMLN@generic?$AA@ 0049980c     messageWindow.obj
 0003:00017818       ??_C@_0O@BFJCFAAK@unknown?5error?$AA@ 00499818     messageWindow.obj
 0003:0001782c       ??_7_Iostream_error_category@std@@6B@ 0049982c     messageWindow.obj
 0003:0001784c       ??_C@_08LLGCOLLL@iostream?$AA@ 0049984c     messageWindow.obj
 0003:00017858       ??_C@_0BG@PADBLCHM@iostream?5stream?5error?$AA@ 00499858     messageWindow.obj
 0003:00017878       ??_7_System_error_category@std@@6B@ 00499878     messageWindow.obj
 0003:00017898       ??_C@_06FHFOAHML@system?$AA@ 00499898     messageWindow.obj
 0003:000178a4       ??_7cachePoll@@6B@         004998a4     messageWindow.obj
 0003:000178ac       ??_C@_0L@HGEKLAKO@bncslink32?$AA@ 004998ac     messageWindow.obj
 0003:000178bc       ??_C@_0M@FPBKNPFP@CacheEnable?$AA@ 004998bc     messageWindow.obj
 0003:000178cc       ??_C@_05BEHOCFPE@Cache?$AA@ 004998cc     messageWindow.obj
 0003:000178d4       ??_C@_0CC@FDDFLMAP@could?5not?5create?5messaging?5Windo@ 004998d4     messageWindow.obj
 0003:000178fc       ??_C@_02MIBFNKDD@DG?$AA@   004998fc     messageWindow.obj
 0003:00017900       ??_C@_05HOPBAMFM@?9?5?9?5?9?$AA@ 00499900     messageWindow.obj
 0003:00017908       ??_C@_0DC@MDHGMHEC@BBC_GETCACHEDDATA?3?5wrong?5number?5@ 00499908     messageWindow.obj
 0003:00017944       ??_C@_02FGJGPHLN@DI?$AA@   00499944     messageWindow.obj
 0003:00017948       ??_C@_0DD@EIPKKHED@BBC_GETCACHEDINDEX?3?5wrong?5number@ 00499948     messageWindow.obj
 0003:00017988       ??_C@_0BA@NJMCIGOH@?$CF03d?52?50?5?$CFd?5?$CFd?5?$AA@ 00499988     messageWindow.obj
 0003:0001799c       ??_C@_03FFMPJLOG@?$CF1?0?$AA@ 0049999c     messageWindow.obj
 0003:000179a0       ??_C@_0N@DJGNLGNB@?$CF03d?50?50?50?50?$AA@ 004999a0     messageWindow.obj
 0003:000179b0       ??_C@_02LENCMAPF@RC?$AA@   004999b0     messageWindow.obj
 0003:000179b4       ??_C@_0DI@COJNKAFB@Write?5locally?5disabled?5for?5devic@ 004999b4     messageWindow.obj
 0003:000179f8       ??_C@_02DDEKNMDK@RL?$AA@   004999f8     messageWindow.obj
 0003:000179fc       ??_C@_02NFDNIBGH@RP?$AA@   004999fc     messageWindow.obj
 0003:00017a00       ??_C@_02CKFBONHL@RM?$AA@   00499a00     messageWindow.obj
 0003:00017a04       ??_C@_0CF@DPALEBMN@Router?5command?5?$CC?$CF1?$CC?5is?5not?5suppo@ 00499a04     messageWindow.obj
 0003:00017a30       ??_C@_02IKAPFLDB@IW?$AA@   00499a30     messageWindow.obj
 0003:00017a34       ??_C@_02CDDJJAKL@IL?$AA@   00499a34     messageWindow.obj
 0003:00017a38       ??_C@_02MFEOMNPG@IP?$AA@   00499a38     messageWindow.obj
 0003:00017a3c       ??_C@_0CJ@GNKFJLMF@Infodriver?5command?5?$CC?$CF1?$CC?5is?5not?5s@ 00499a3c     messageWindow.obj
 0003:00017a70       ??_C@_02OEPNLDDP@GS?$AA@   00499a70     messageWindow.obj
 0003:00017a74       ??_C@_02CJKHLNKB@GL?$AA@   00499a74     messageWindow.obj
 0003:00017a78       ??_C@_02MPNAOAPM@GP?$AA@   00499a78     messageWindow.obj
 0003:00017a7c       ??_C@_0CC@JGLIJPKF@GPI?5command?5?$CC?$CF1?$CC?5is?5not?5supporte@ 00499a7c     messageWindow.obj
 0003:00017aa4       ??_C@_0BB@PMDBAAKK@RR?5?$CFd?5?$CFd?5?$CFd?5?8?$CFs?8?$AA@ 00499aa4     messageWindow.obj
 0003:00017ab8       ??_C@_0BB@FOOKINMN@IR?5?$CFd?5?$CFd?5?$CFd?5?8?$CFs?8?$AA@ 00499ab8     messageWindow.obj
 0003:00017acc       ??_C@_0BB@GKHMAKO@GR?5?$CFd?5?$CFd?5?$CFd?5?8?$CFd?8?$AA@ 00499acc     messageWindow.obj
 0003:00017ae0       ??_C@_0EH@JJFFBBNG@Synch?8ing?5name?5change?5device?5?$CF1?5@ 00499ae0     messageWindow.obj
 0003:00017b38       ??_C@_0DD@CBNKOCMN@Name?5change?5device?5?$CF1?5database?5?$CF@ 00499b38     messageWindow.obj
 0003:00017b78       ??_C@_03NIFPGLBG@ALL?$AA@  00499b78     messageWindow.obj
 0003:00017b7c       ??_C@_0BC@ELLNNELC@DeviceWriteEnable?$AA@ 00499b7c     messageWindow.obj
 0003:00017b94       ??_C@_01IHBHIGKO@?0?$AA@   00499b94     messageWindow.obj
 0003:00017b98       ??_C@_0BB@BPMOHFFL@GR?5?$CFd?5?$CFd?5?$CFd?5?8?$CFs?8?$AA@ 00499b98     messageWindow.obj
 0003:00017bb0       ??_C@_1IO@JLPDPDPD@?$AAc?$AA?3?$AA?2?$AAp?$AAr?$AAo?$AAg?$AAr?$AAa?$AAm?$AA?5?$AAf?$AAi?$AAl?$AAe?$AAs?$AA?5?$AA?$CI?$AAx?$AA8?$AA6?$AA?$CJ?$AA?2?$AAm?$AAi?$AAc?$AAr?$AAo?$AAs?$AAo?$AAf?$AAt@ 00499bb0     messageWindow.obj
 0003:00017c60       ??_C@_1NO@KEJEJHFO@?$AAs?$AAt?$AAd?$AA?3?$AA?3?$AA_?$AAL?$AAi?$AAs?$AAt?$AA_?$AAc?$AAo?$AAn?$AAs?$AAt?$AA_?$AAi?$AAt?$AAe?$AAr?$AAa?$AAt?$AAo?$AAr?$AA?$DM?$AAc?$AAl?$AAa?$AAs?$AAs?$AA?5@ 00499c60     messageWindow.obj
 0003:00017d70       ??_C@_1OA@PGDMCJDD@?$AAs?$AAt?$AAd?$AA?3?$AA?3?$AA_?$AAL?$AAi?$AAs?$AAt?$AA_?$AAc?$AAo?$AAn?$AAs?$AAt?$AA_?$AAi?$AAt?$AAe?$AAr?$AAa?$AAt?$AAo?$AAr?$AA?$DM?$AAc?$AAl?$AAa?$AAs?$AAs?$AA?5@ 00499d70     messageWindow.obj
 0003:00017e80       ??_C@_1EI@FHEHNNNM@?$AAm?$AAa?$AAp?$AA?1?$AAs?$AAe?$AAt?$AA?5?$AAi?$AAt?$AAe?$AAr?$AAa?$AAt?$AAo?$AAr?$AA?5?$AAn?$AAo?$AAt?$AA?5?$AAd?$AAe?$AAr?$AAe?$AAf?$AAe?$AAr?$AAe?$AAn?$AAc?$AAa@ 00499e80     messageWindow.obj
 0003:00017ed8       ??_C@_1MG@EJJEEIDE@?$AAs?$AAt?$AAd?$AA?3?$AA?3?$AA_?$AAT?$AAr?$AAe?$AAe?$AA_?$AAc?$AAo?$AAn?$AAs?$AAt?$AA_?$AAi?$AAt?$AAe?$AAr?$AAa?$AAt?$AAo?$AAr?$AA?$DM?$AAc?$AAl?$AAa?$AAs?$AAs?$AA?5@ 00499ed8     messageWindow.obj
 0003:00017fc8       ??_C@_1OA@FGMBMAPG@?$AAs?$AAt?$AAd?$AA?3?$AA?3?$AA_?$AAL?$AAi?$AAs?$AAt?$AA_?$AAc?$AAo?$AAn?$AAs?$AAt?$AA_?$AAi?$AAt?$AAe?$AAr?$AAa?$AAt?$AAo?$AAr?$AA?$DM?$AAc?$AAl?$AAa?$AAs?$AAs?$AA?5@ 00499fc8     messageWindow.obj
 0003:000180d8       ??_C@_1NI@OANDBABG@?$AAs?$AAt?$AAd?$AA?3?$AA?3?$AA_?$AAL?$AAi?$AAs?$AAt?$AA_?$AAc?$AAo?$AAn?$AAs?$AAt?$AA_?$AAi?$AAt?$AAe?$AAr?$AAa?$AAt?$AAo?$AAr?$AA?$DM?$AAc?$AAl?$AAa?$AAs?$AAs?$AA?5@ 0049a0d8     messageWindow.obj
 0003:000181e0       ??_C@_1NK@LNEALOPK@?$AAs?$AAt?$AAd?$AA?3?$AA?3?$AA_?$AAL?$AAi?$AAs?$AAt?$AA_?$AAc?$AAo?$AAn?$AAs?$AAt?$AA_?$AAi?$AAt?$AAe?$AAr?$AAa?$AAt?$AAo?$AAr?$AA?$DM?$AAc?$AAl?$AAa?$AAs?$AAs?$AA?5@ 0049a1e0     messageWindow.obj
 0003:000182e8       ??_C@_1NK@BNLNFHDP@?$AAs?$AAt?$AAd?$AA?3?$AA?3?$AA_?$AAL?$AAi?$AAs?$AAt?$AA_?$AAc?$AAo?$AAn?$AAs?$AAt?$AA_?$AAi?$AAt?$AAe?$AAr?$AAa?$AAt?$AAo?$AAr?$AA?$DM?$AAc?$AAl?$AAa?$AAs?$AAs?$AA?5@ 0049a2e8     messageWindow.obj
 0003:000183f0       ??_C@_0BA@JFNIOLAK@string?5too?5long?$AA@ 0049a3f0     messageWindow.obj
 0003:00018404       ??_C@_0BI@CFPLBAOH@invalid?5string?5position?$AA@ 0049a404     messageWindow.obj
 0003:00018420       ??_C@_1CK@EOPGIILJ@?$AAi?$AAn?$AAv?$AAa?$AAl?$AAi?$AAd?$AA?5?$AAn?$AAu?$AAl?$AAl?$AA?5?$AAp?$AAo?$AAi?$AAn?$AAt?$AAe?$AAr?$AA?$AA@ 0049a420     messageWindow.obj
 0003:00018458       ??_C@_1EG@BPNHNPIG@?$AAl?$AAi?$AAs?$AAt?$AA?5?$AAi?$AAn?$AAs?$AAe?$AAr?$AAt?$AA?5?$AAi?$AAt?$AAe?$AAr?$AAa?$AAt?$AAo?$AAr?$AA?5?$AAo?$AAu?$AAt?$AAs?$AAi?$AAd?$AAe?$AA?5?$AAr?$AAa?$AAn@ 0049a458     messageWindow.obj
 0003:000184b0       ??_C@_1EA@JDNDELPC@?$AAl?$AAi?$AAs?$AAt?$AA?5?$AAi?$AAt?$AAe?$AAr?$AAa?$AAt?$AAo?$AAr?$AA?5?$AAn?$AAo?$AAt?$AA?5?$AAd?$AAe?$AAc?$AAr?$AAe?$AAm?$AAe?$AAn?$AAt?$AAa?$AAb?$AAl?$AAe?$AA?$AA@ 0049a4b0     messageWindow.obj
 0003:00018500       ??_C@_1NK@EOHCACDL@?$AAs?$AAt?$AAd?$AA?3?$AA?3?$AA_?$AAL?$AAi?$AAs?$AAt?$AA_?$AAc?$AAo?$AAn?$AAs?$AAt?$AA_?$AAi?$AAt?$AAe?$AAr?$AAa?$AAt?$AAo?$AAr?$AA?$DM?$AAc?$AAl?$AAa?$AAs?$AAs?$AA?5@ 0049a500     messageWindow.obj
 0003:00018624       ??_C@_0P@DMEOIADN@languageChange?$AA@ 0049a624     moc_aboutdialog.obj
 0003:00018638       ??_C@_0BB@PFEIHPGD@languageChange?$CI?$CJ?$AA@ 0049a638     moc_aboutdialog.obj
 0003:0001864c       ??_C@_0BA@NKCNCNDK@aboutDialogImpl?$AA@ 0049a64c     moc_aboutdialogimpl.obj
 0003:0001867c       ??_C@_09JGOMOAGJ@connected?$AA@ 0049a67c     moc_bncslink32mainwindowimpl.obj
 0003:00018758       ??_C@_0BA@BCBFLMJJ@fabianConnected?$AA@ 0049a758     moc_bncslink32mainwindowimpl.obj
 0003:0001876c       ??_C@_06CHPEJBOD@device?$AA@ 0049a76c     moc_bncslink32mainwindowimpl.obj
 0003:00018774       ??_C@_0L@CDEMJNHL@routerName?$AA@ 0049a774     moc_bncslink32mainwindowimpl.obj
 0003:00018784       ??_C@_0BE@MOPPACGD@applcorePanelExited?$AA@ 0049a784     moc_bncslink32mainwindowimpl.obj
 0003:0001879c       ??_C@_07OOFILOCD@doAbout?$AA@ 0049a79c     moc_bncslink32mainwindowimpl.obj
 0003:000187a8       ??_C@_06OOEBKKPD@doHelp?$AA@ 0049a7a8     moc_bncslink32mainwindowimpl.obj
 0003:000187b0       ??_C@_03MGHMBJCF@log?$AA@  0049a7b0     moc_bncslink32mainwindowimpl.obj
 0003:000187b4       ??_C@_03GLPMCEFE@msg?$AA@  0049a7b4     moc_bncslink32mainwindowimpl.obj
 0003:000187b8       ??_C@_08KHEIIOJD@logError?$AA@ 0049a7b8     moc_bncslink32mainwindowimpl.obj
 0003:000187c4       ??_C@_0BG@FDPJABOB@fabianConnected?$CIbool?$CJ?$AA@ 0049a7c4     moc_bncslink32mainwindowimpl.obj
 0003:000187e0       ??_C@_0CK@HKNFFAAO@routerName?$CIUINT?0UINT?0UINT?0const?5@ 0049a7e0     moc_bncslink32mainwindowimpl.obj
 0003:00018814       ??_C@_0BG@NCMGBPAE@applcorePanelExited?$CI?$CJ?$AA@ 0049a814     moc_bncslink32mainwindowimpl.obj
 0003:00018830       ??_C@_09OAGIIPAB@doAbout?$CI?$CJ?$AA@ 0049a830     moc_bncslink32mainwindowimpl.obj
 0003:0001883c       ??_C@_08HLIKJOHK@doHelp?$CI?$CJ?$AA@ 0049a83c     moc_bncslink32mainwindowimpl.obj
 0003:00018848       ??_C@_0BE@JEKAGJIC@log?$CIconst?5QString?$CG?$CJ?$AA@ 0049a848     moc_bncslink32mainwindowimpl.obj
 0003:00018860       ??_C@_0BJ@JKCPAAOL@logError?$CIconst?5QString?$CG?$CJ?$AA@ 0049a860     moc_bncslink32mainwindowimpl.obj
 0003:00018880       ??_C@_0BJ@FHMGIOCP@bncslink32MainWindowImpl?$AA@ 0049a880     moc_bncslink32mainwindowimpl.obj
 0003:000188a0       ??_C@_04ILOBGHHE@UINT?$AA@ 0049a8a0     moc_bncslink32mainwindowimpl.obj
 0003:000188a8       ??_C@_08PBOCEOLL@database?$AA@ 0049a8a8     moc_bncslink32mainwindowimpl.obj
 0003:000188b4       ??_C@_05FKHKFDID@index?$AA@ 0049a8b4     moc_bncslink32mainwindowimpl.obj
 0003:000188bc       ??_C@_04MEMAJGDJ@name?$AA@ 0049a8bc     moc_bncslink32mainwindowimpl.obj
 0003:00018b98       ??_C@_03HLCNLMFP@reg?$AA@  0049ab98     moc_fabianClient.obj
 0003:00018b9c       ??_C@_05JGEGJHLO@unreg?$AA@ 0049ab9c     moc_fabianClient.obj
 0003:00018ba4       ??_C@_09FBJJBLDC@infoWrite?$AA@ 0049aba4     moc_fabianClient.obj
 0003:00018bb0       ??_C@_08OOEAJEAG@infoPoll?$AA@ 0049abb0     moc_fabianClient.obj
 0003:00018bbc       ??_C@_08PENDPHP@infoLock?$AA@ 0049abbc     moc_fabianClient.obj
 0003:00018bc8       ??_C@_09IDJJIILH@gpiSwitch?$AA@ 0049abc8     moc_fabianClient.obj
 0003:00018bd4       ??_C@_07FALDDJPM@gpiPoll?$AA@ 0049abd4     moc_fabianClient.obj
 0003:00018be0       ??_C@_07LBLOJCIF@gpiLock?$AA@ 0049abe0     moc_fabianClient.obj
 0003:00018bec       ??_C@_0BB@LCGBKDOD@routerCrosspoint?$AA@ 0049abec     moc_fabianClient.obj
 0003:00018c00       ??_C@_0L@MMEDBCNF@routerPoll?$AA@ 0049ac00     moc_fabianClient.obj
 0003:00018c10       ??_C@_0L@CNEOLJKM@routerLock?$AA@ 0049ac10     moc_fabianClient.obj
 0003:00018c20       ??_C@_0L@MJOCAKPG@listRouter?$AA@ 0049ac20     moc_fabianClient.obj
 0003:00018c30       ??_C@_0N@LMPGLPIB@routerModify?$AA@ 0049ac30     moc_fabianClient.obj
 0003:00018c40       ??_C@_0BA@NBBELEGJ@socketConnected?$AA@ 0049ac40     moc_fabianClient.obj
 0003:00018c54       ??_C@_0BH@OOEFJDHC@socketConnectionClosed?$AA@ 0049ac54     moc_fabianClient.obj
 0003:00018c70       ??_C@_0BA@PGPPFCDD@socketReadyRead?$AA@ 0049ac70     moc_fabianClient.obj
 0003:00018c84       ??_C@_03JIDPIAJI@err?$AA@  0049ac84     moc_fabianClient.obj
 0003:00018c88       ??_C@_0M@DDCLCFIJ@socketError?$AA@ 0049ac88     moc_fabianClient.obj
 0003:00018c98       ??_C@_0BE@MHCKEPCH@reg?$CIUINT?0UINT?0UINT?$CJ?$AA@ 0049ac98     moc_fabianClient.obj
 0003:00018cb0       ??_C@_0M@KFMNKIKI@unreg?$CIUINT?$CJ?$AA@ 0049acb0     moc_fabianClient.obj
 0003:00018cc0       ??_C@_0CE@DBGICAFK@infoWrite?$CIUINT?0UINT?0const?5QStrin@ 0049acc0     moc_fabianClient.obj
 0003:00018cec       ??_C@_0BJ@KHCBLECI@infoPoll?$CIUINT?0UINT?0UINT?$CJ?$AA@ 0049acec     moc_fabianClient.obj
 0003:00018d0c       ??_C@_0BO@JBIDODBM@infoLock?$CIUINT?0UINT?0UINT?0bool?$CJ?$AA@ 0049ad0c     moc_fabianClient.obj
 0003:00018d30       ??_C@_0BK@IDMCELNI@gpiSwitch?$CIUINT?0UINT?0bool?$CJ?$AA@ 0049ad30     moc_fabianClient.obj
 0003:00018d50       ??_C@_0BI@KCMNFBDE@gpiPoll?$CIUINT?0UINT?0UINT?$CJ?$AA@ 0049ad50     moc_fabianClient.obj
 0003:00018d6c       ??_C@_0BN@ILNPFBE@gpiLock?$CIUINT?0UINT?0UINT?0bool?$CJ?$AA@ 0049ad6c     moc_fabianClient.obj
 0003:00018d90       ??_C@_0DA@FBOFDKHE@routerCrosspoint?$CIUINT?0UINT?0UINT?0@ 0049ad90     moc_fabianClient.obj
 0003:00018dcc       ??_C@_0BL@NJHDNKGG@routerPoll?$CIUINT?0UINT?0UINT?$CJ?$AA@ 0049adcc     moc_fabianClient.obj
 0003:00018dec       ??_C@_0CA@HDDNCLKC@routerLock?$CIUINT?0UINT?0UINT?0bool?$CJ?$AA@ 0049adec     moc_fabianClient.obj
 0003:00018e14       ??_C@_0CA@EIDAFMEK@listRouter?$CIUINT?0UINT?0UINT?0UINT?$CJ?$AA@ 0049ae14     moc_fabianClient.obj
 0003:00018e3c       ??_C@_0DB@NFHGNDAD@routerModify?$CIUINT?0UINT?0UINT?0cons@ 0049ae3c     moc_fabianClient.obj
 0003:00018e78       ??_C@_0BC@KCLPONM@socketConnected?$CI?$CJ?$AA@ 0049ae78     moc_fabianClient.obj
 0003:00018e90       ??_C@_0BJ@GBHLPHM@socketConnectionClosed?$CI?$CJ?$AA@ 0049ae90     moc_fabianClient.obj
 0003:00018eb0       ??_C@_0BC@DBGCLKE@socketReadyRead?$CI?$CJ?$AA@ 0049aeb0     moc_fabianClient.obj
 0003:00018ec8       ??_C@_0BB@FIPDAMOO@socketError?$CIint?$CJ?$AA@ 0049aec8     moc_fabianClient.obj
 0003:00018edc       ??_C@_0BA@DMOCPDJ@routerRevertive?$AA@ 0049aedc     moc_fabianClient.obj
 0003:00018ef0       ??_C@_0O@KAFNDLCO@infoRevertive?$AA@ 0049aef0     moc_fabianClient.obj
 0003:00018f00       ??_C@_0N@NABMPMLF@gpiRevertive?$AA@ 0049af00     moc_fabianClient.obj
 0003:00018f10       ??_C@_0P@OEEDOLJD@databaseChange?$AA@ 0049af10     moc_fabianClient.obj
 0003:00018f24       ??_C@_0BP@JNHNKNCD@routerRevertive?$CIUINT?0UINT?0int?$CJ?$AA@ 0049af24     moc_fabianClient.obj
 0003:00018f4c       ??_C@_0CI@MAHAFEEM@infoRevertive?$CIUINT?0UINT?0const?5QS@ 0049af4c     moc_fabianClient.obj
 0003:00018f7c       ??_C@_0BN@DLNCALEE@gpiRevertive?$CIUINT?0UINT?0bool?$CJ?$AA@ 0049af7c     moc_fabianClient.obj
 0003:00018fa0       ??_C@_0BA@KGNKNAED@connected?$CIbool?$CJ?$AA@ 0049afa0     moc_fabianClient.obj
 0003:00018fb4       ??_C@_0CO@PEMLENFC@databaseChange?$CIUINT?0UINT?0UINT?0co@ 0049afb4     moc_fabianClient.obj
 0003:00018fec       ??_C@_0N@NNEMFDKE@fabianClient?$AA@ 0049afec     moc_fabianClient.obj
 0003:00018ffc       ??_C@_05FAGFPHJG@start?$AA@ 0049affc     moc_fabianClient.obj
 0003:00019004       ??_C@_03JBJLGPFL@end?$AA@  0049b004     moc_fabianClient.obj
 0003:00019008       ??_C@_05MFEJDJP@value?$AA@ 0049b008     moc_fabianClient.obj
 0003:00019010       ??_C@_04MKMCLCOO@lock?$AA@ 0049b010     moc_fabianClient.obj
 0003:00019018       ??_C@_05HDBKIDE@state?$AA@ 0049b018     moc_fabianClient.obj
 0003:00019020       ??_C@_04EEHDLEKF@dest?$AA@ 0049b020     moc_fabianClient.obj
 0003:00019028       ??_C@_06OEKOLKIL@source?$AA@ 0049b028     moc_fabianClient.obj
 0003:00019030       ??_C@_04LFLEPBN@mask?$AA@  0049b030     moc_fabianClient.obj
 0003:00019038       ??_C@_02BIKLEMDE@db?$AA@   0049b038     moc_fabianClient.obj
 0003:0001903c       ??_C@_09FAOKBLNK@sendTally?$AA@ 0049b03c     moc_fabianClient.obj
 0003:00019288       ??_C@_0N@JJGBHJEO@writeEnabled?$AA@ 0049b288     moc_messageWindow.obj
 0003:00019298       ??_C@_0BC@KLPINEEK@writeEnabled?$CIint?$CJ?$AA@ 0049b298     moc_messageWindow.obj
 0003:000192b0       ??_C@_0O@NELNBJPC@messageWindow?$AA@ 0049b2b0     moc_messageWindow.obj
 0003:000192c4       ??_7singleReg@@6B@         0049b2c4     singleReg.obj
 0003:000192cc       ??_C@_02DPKJAMEF@?$CFd?$AA@ 0049b2cc     databasedb_vs2013:databaseMgr.obj
 0003:000192d4       ??_7databaseMgr@@6B@       0049b2d4     databasedb_vs2013:databaseMgr.obj
 0003:000192dc       ??_C@_0BE@PHFFEGCA@?$CFs?2?$CFs?2config?2system?$AA@ 0049b2dc     databasedb_vs2013:databaseMgr.obj
 0003:000192f4       ??_C@_03JMFMNIFM@?9?9?9?$AA@ 0049b2f4     databasedb_vs2013:databaseMgr.obj
 0003:000192f8       ??_C@_03HDCFNBIM@?$CB?$CB?$CB?$AA@ 0049b2f8     databasedb_vs2013:databaseMgr.obj
 0003:000192fc       ??_C@_0BA@MNCCGPDL@?$CFs?2dev_?$CF03d?4ini?$AA@ 0049b2fc     databasedb_vs2013:databaseMgr.obj
 0003:00019310       ??_C@_09KJFGGFMG@Device?5?$CFd?$AA@ 0049b310     databasedb_vs2013:databaseMgr.obj
 0003:0001931c       ??_C@_04FABLJDN@Name?$AA@  0049b31c     databasedb_vs2013:databaseMgr.obj
 0003:00019324       ??_C@_06OIEJKIHP@Device?$AA@ 0049b324     databasedb_vs2013:databaseMgr.obj
 0003:0001932c       ??_C@_0BA@BPJACOFK@DatabaseFile_?$CFd?$AA@ 0049b32c     databasedb_vs2013:databaseMgr.obj
 0003:00019340       ??_C@_0BA@JEKJJHOL@dev_?$CF03d?4db?$CF04d?$AA@ 0049b340     databasedb_vs2013:databaseMgr.obj
 0003:00019354       ??_C@_0P@ONIBKGMN@DatabaseSize_0?$AA@ 0049b354     databasedb_vs2013:databaseMgr.obj
 0003:00019368       ??_C@_0P@PEJKJHIM@DatabaseSize_1?$AA@ 0049b368     databasedb_vs2013:databaseMgr.obj
 0003:0001937c       ??_C@_0P@NPLHMEEP@DatabaseSize_2?$AA@ 0049b37c     databasedb_vs2013:databaseMgr.obj
 0003:00019390       ??_C@_0P@MGKMPFAO@DatabaseSize_3?$AA@ 0049b390     databasedb_vs2013:databaseMgr.obj
 0003:000193a4       ??_C@_0P@IJONGDMJ@DatabaseSize_4?$AA@ 0049b3a4     databasedb_vs2013:databaseMgr.obj
 0003:000193b8       ??_C@_0P@JAPGFCII@DatabaseSize_5?$AA@ 0049b3b8     databasedb_vs2013:databaseMgr.obj
 0003:000193cc       ??_C@_0P@LLNLABEL@DatabaseSize_6?$AA@ 0049b3cc     databasedb_vs2013:databaseMgr.obj
 0003:000193e0       ??_C@_0P@KCMADAAK@DatabaseSize_7?$AA@ 0049b3e0     databasedb_vs2013:databaseMgr.obj
 0003:000193f4       ??_C@_0P@CFFICMMF@DatabaseSize_8?$AA@ 0049b3f4     databasedb_vs2013:databaseMgr.obj
 0003:00019408       ??_C@_0P@DMEDBNIE@DatabaseSize_9?$AA@ 0049b408     databasedb_vs2013:databaseMgr.obj
 0003:0001941c       ??_C@_0BA@POEEPAJD@DatabaseSize_?$CFd?$AA@ 0049b41c     databasedb_vs2013:databaseMgr.obj
 0003:00019430       ??_C@_0L@DNMHFEPG@?$CFs?2?$CFs?2data?$AA@ 0049b430     databasedb_vs2013:databaseMgr.obj
 0003:00019440       ??_C@_0BN@CDBCPLJ@path?5to?5databaseMgr?5dump?5is?3?$AA@ 0049b440     databasedb_vs2013:databaseMgr.obj
 0003:00019468       ??_C@_1BBO@GEEHCEOG@?$AAs?$AAt?$AAd?$AA?3?$AA?3?$AA_?$AAT?$AAr?$AAe?$AAe?$AA_?$AAc?$AAo?$AAn?$AAs?$AAt?$AA_?$AAi?$AAt?$AAe?$AAr?$AAa?$AAt?$AAo?$AAr?$AA?$DM?$AAc?$AAl?$AAa?$AAs?$AAs?$AA?5@ 0049b468     databasedb_vs2013:databaseMgr.obj
 0003:000195c0       ??_C@_1BBM@PCJOLFCG@?$AAs?$AAt?$AAd?$AA?3?$AA?3?$AA_?$AAT?$AAr?$AAe?$AAe?$AA_?$AAc?$AAo?$AAn?$AAs?$AAt?$AA_?$AAi?$AAt?$AAe?$AAr?$AAa?$AAt?$AAo?$AAr?$AA?$DM?$AAc?$AAl?$AAa?$AAs?$AAs?$AA?5@ 0049b5c0     databasedb_vs2013:databaseMgr.obj
 0003:00019718       ??_C@_1BBO@MELKMNCD@?$AAs?$AAt?$AAd?$AA?3?$AA?3?$AA_?$AAT?$AAr?$AAe?$AAe?$AA_?$AAc?$AAo?$AAn?$AAs?$AAt?$AA_?$AAi?$AAt?$AAe?$AAr?$AAa?$AAt?$AAo?$AAr?$AA?$DM?$AAc?$AAl?$AAa?$AAs?$AAs?$AA?5@ 0049b718     databasedb_vs2013:databaseMgr.obj
 0003:00019870       ??_C@_1BBO@DHIIHBOC@?$AAs?$AAt?$AAd?$AA?3?$AA?3?$AA_?$AAT?$AAr?$AAe?$AAe?$AA_?$AAc?$AAo?$AAn?$AAs?$AAt?$AA_?$AAi?$AAt?$AAe?$AAr?$AAa?$AAt?$AAo?$AAr?$AA?$DM?$AAc?$AAl?$AAa?$AAs?$AAs?$AA?5@ 0049b870     databasedb_vs2013:databaseMgr.obj
 0003:000199cc       ??_7database@@6B@          0049b9cc     databasedb_vs2013:database.obj
 0003:000199d4       ??_C@_0BN@EOGGJMBF@database?3?3load?5?9?5Can?8t?5find?5?$AA@ 0049b9d4     databasedb_vs2013:database.obj
 0003:000199f8       ??_C@_0BD@EHJDLHKE@?5setting?5in?5file?3?5?$AA@ 0049b9f8     databasedb_vs2013:database.obj
 0003:00019a10       ??_C@_0BJ@FGPGKDMA@?4?5Does?5this?5file?5exist?$DP?6?$AA@ 0049ba10     databasedb_vs2013:database.obj
 0003:00019a30       ??_C@_05BMGBEOOC@?$CFs?2?$CFs?$AA@ 0049ba30     databasedb_vs2013:database.obj
 0003:00019a38       ??_C@_01KDCPPGHE@r?$AA@    0049ba38     databasedb_vs2013:database.obj
 0003:00019a3c       ??_C@_0L@PNKOEJPL@?$FLDatabase_?$AA@ 0049ba3c     databasedb_vs2013:database.obj
 0003:00019a4c       ??_C@_0CD@HAOBKGHO@database?3?3load?5?9?5can?8t?5open?5file@ 0049ba4c     databasedb_vs2013:database.obj
 0003:00019a78       ??_C@_0M@FNLNBOHL@Database_?$CFd?$AA@ 0049ba78     databasedb_vs2013:database.obj
 0003:00019a88       ??_C@_04OCCELDNI@?$CF04d?$AA@ 0049ba88     databasedb_vs2013:database.obj
 0003:00019a90       ??_C@_01BJJEKLCA@?$CC?$AA@ 0049ba90     databasedb_vs2013:database.obj
 0003:00019a94       ??_C@_0BE@LBLKBJAO@?$CFs?2dev_?$CF03d?4?$CFd?4dump?$AA@ 0049ba94     databasedb_vs2013:database.obj
 0003:00019aac       ??_C@_02CHHAKFFB@w?$CL?$AA@ 0049baac     databasedb_vs2013:database.obj
 0003:00019ab0       ??_C@_06FDPGNIHM@?$CFd?0?$CFs?6?$AA@ 0049bab0     databasedb_vs2013:database.obj
 0003:00019ab8       ??_C@_0CO@KHOPDBPJ@database?3?5can?8t?5open?5file?5?$CIfilen@ 0049bab8     databasedb_vs2013:database.obj
 0003:00019af0       ??_C@_1BKO@BHAKMAAJ@?$AAs?$AAt?$AAd?$AA?3?$AA?3?$AA_?$AAT?$AAr?$AAe?$AAe?$AA_?$AAc?$AAo?$AAn?$AAs?$AAt?$AA_?$AAi?$AAt?$AAe?$AAr?$AAa?$AAt?$AAo?$AAr?$AA?$DM?$AAc?$AAl?$AAa?$AAs?$AAs?$AA?5@ 0049baf0     databasedb_vs2013:database.obj
 0003:00019cf8       ??_C@_1BKO@LHPHCJMM@?$AAs?$AAt?$AAd?$AA?3?$AA?3?$AA_?$AAT?$AAr?$AAe?$AAe?$AA_?$AAc?$AAo?$AAn?$AAs?$AAt?$AA_?$AAi?$AAt?$AAe?$AAr?$AAa?$AAt?$AAo?$AAr?$AA?$DM?$AAc?$AAl?$AAa?$AAs?$AAs?$AA?5@ 0049bcf8     databasedb_vs2013:database.obj
 0003:00019f00       ??_C@_1BKM@NHEBIPM@?$AAs?$AAt?$AAd?$AA?3?$AA?3?$AA_?$AAT?$AAr?$AAe?$AAe?$AA_?$AAc?$AAo?$AAn?$AAs?$AAt?$AA_?$AAi?$AAt?$AAe?$AAr?$AAa?$AAt?$AAo?$AAr?$AA?$DM?$AAc?$AAl?$AAa?$AAs?$AAs?$AA?5@ 0049bf00     databasedb_vs2013:database.obj
 0003:0001a108       ??_C@_1BKO@OEDIHMMI@?$AAs?$AAt?$AAd?$AA?3?$AA?3?$AA_?$AAT?$AAr?$AAe?$AAe?$AA_?$AAc?$AAo?$AAn?$AAs?$AAt?$AA_?$AAi?$AAt?$AAe?$AAr?$AAa?$AAt?$AAo?$AAr?$AA?$DM?$AAc?$AAl?$AAa?$AAs?$AAs?$AA?5@ 0049c108     databasedb_vs2013:database.obj
 0003:0001a310       ??_7decodeBNCSString@@6B@  0049c310     decodeCaptionStringdb:decodeBNCSString.obj
 0003:0001a318       ??_C@_0BB@DPGIINKI@copy?5con?5BNCSstr?$AA@ 0049c318     decodeCaptionStringdb:decodeBNCSString.obj
 0003:0001a38c       ??_C@_00A@?$AA@            0049c38c     htmlhelp:init.obj
 0003:0001a394       ??_7cBncsVersion@@6B@      0049c394     BncsVersionInfo:cBncsVersion.obj
 0003:0001a39c       ??_C@_0BJ@KPNNKBCP@?2VarFileInfo?2Translation?$AA@ 0049c39c     BncsVersionInfo:cBncsVersion.obj
 0003:0001a3bc       ??_C@_08EAKGLGNO@?$CF04X?$CF04X?$AA@ 0049c3bc     BncsVersionInfo:cBncsVersion.obj
 0003:0001a3c8       ??_C@_0BP@OKGDDKKJ@?2StringFileInfo?2?$CFs?2FileVersion?$AA@ 0049c3c8     BncsVersionInfo:cBncsVersion.obj
 0003:0001a3f0       ??_C@_0CD@DNOFBAPJ@?2StringFileInfo?2?$CFs?2FileDescripti@ 0049c3f0     BncsVersionInfo:cBncsVersion.obj
 0003:0001a41c       ??_C@_0BM@HLKDAPDC@?2StringFileInfo?2?$CFs?2Comments?$AA@ 0049c41c     BncsVersionInfo:cBncsVersion.obj
 0003:0001a440       ??_C@_0CA@EHAODNDK@?2StringFileInfo?2?$CFs?2InternalName?$AA@ 0049c440     BncsVersionInfo:cBncsVersion.obj
 0003:0001a468       ??_C@_0BP@MGNIHEJF@?2StringFileInfo?2?$CFs?2ProductName?$AA@ 0049c468     BncsVersionInfo:cBncsVersion.obj
 0003:0001a490       ??_C@_0BP@IFNEMNK@?2StringFileInfo?2?$CFs?2CompanyName?$AA@ 0049c490     BncsVersionInfo:cBncsVersion.obj
 0003:0001a4b8       ??_C@_0CC@BENIJKPI@?2StringFileInfo?2?$CFs?2LegalCopyrigh@ 0049c4b8     BncsVersionInfo:cBncsVersion.obj
 0003:0001a4e0       ??_C@_0CC@IAGJDCJF@?2StringFileInfo?2?$CFs?2ProductVersio@ 0049c4e0     BncsVersionInfo:cBncsVersion.obj
 0003:0001a508       ??_C@_0CD@CHCCGCCP@?2StringFileInfo?2?$CFs?2LegalTradeMar@ 0049c508     BncsVersionInfo:cBncsVersion.obj
 0003:0001a534       ??_C@_0CA@GODGGLFO@?2StringFileInfo?2?$CFs?2PrivateBuild?$AA@ 0049c534     BncsVersionInfo:cBncsVersion.obj
 0003:0001a55c       ??_C@_0CE@NLHFPOLE@?2StringFileInfo?2?$CFs?2OriginalFileN@ 0049c55c     BncsVersionInfo:cBncsVersion.obj
 0003:0001a588       ??_C@_0CA@OOEBJJOA@?2StringFileInfo?2?$CFs?2SpecialBuild?$AA@ 0049c588     BncsVersionInfo:cBncsVersion.obj
 0003:0001a5b0       ??_C@_05CLMJGDKL@?$CF08lx?$AA@ 0049c5b0     bncswm32:BncsWM32.obj
 0003:0001a5b7       ?value@?$integral_constant@_N$0A@@std@@2_NB 0049c5b7     MSVCRTD:ti_inst.obj
 0003:0001a5b8       ?value@?$integral_constant@_N$00@std@@2_NB 0049c5b8     MSVCRTD:ti_inst.obj
 0003:0001a5c0       ??_7type_info@@6B@         0049c5c0     MSVCRTD:ti_inst.obj
 0003:0001a5c8       ??_C@_1MC@KPMPFEII@?$AA?$CI?$AA_?$AA_?$AAo?$AAn?$AAe?$AAx?$AAi?$AAt?$AAb?$AAe?$AAg?$AAi?$AAn?$AA?5?$AA?$CB?$AA?$DN?$AA?5?$AAN?$AAU?$AAL?$AAL?$AA?5?$AA?$CG?$AA?$CG?$AA?5?$AA_?$AA_?$AAo?$AAn?$AAe?$AAx@ 0049c5c8     MSVCRTD:atonexit.obj
 0003:0001a6b0       ??_C@_1FK@IGIDCAPD@?$AAf?$AA?3?$AA?2?$AAd?$AAd?$AA?2?$AAv?$AAc?$AAt?$AAo?$AAo?$AAl?$AAs?$AA?2?$AAc?$AAr?$AAt?$AA?2?$AAc?$AAr?$AAt?$AAw?$AA3?$AA2?$AA?2?$AAd?$AAl?$AAl?$AAs?$AAt?$AAu?$AAf@ 0049c6b0     MSVCRTD:atonexit.obj
 0003:0001a71c       ??_C@_0CN@LMJJPMEG@f?3?2dd?2vctools?2crt?2crtw32?2dllstuf@ 0049c71c     MSVCRTD:atonexit.obj
 0003:0001a758       ??_C@_1FA@DALEHHGL@?$AA_?$AA_?$AAn?$AAa?$AAt?$AAi?$AAv?$AAe?$AA_?$AAs?$AAt?$AAa?$AAr?$AAt?$AAu?$AAp?$AA_?$AAs?$AAt?$AAa?$AAt?$AAe?$AA?5?$AA?$DN?$AA?$DN?$AA?5?$AA_?$AA_?$AAi?$AAn?$AAi?$AAt@ 0049c758     MSVCRTD:crtexew.obj
 0003:0001a7b8       ??_C@_1FG@DKNDLLJO@?$AAf?$AA?3?$AA?2?$AAd?$AAd?$AA?2?$AAv?$AAc?$AAt?$AAo?$AAo?$AAl?$AAs?$AA?2?$AAc?$AAr?$AAt?$AA?2?$AAc?$AAr?$AAt?$AAw?$AA3?$AA2?$AA?2?$AAd?$AAl?$AAl?$AAs?$AAt?$AAu?$AAf@ 0049c7b8     MSVCRTD:crtexew.obj
 0003:0001a8e8       ??_C@_0NN@NGPKDKPD@The?5value?5of?5ESP?5was?5not?5properl@ 0049c8e8     MSVCRTD:error.obj
 0003:0001a9f8       ??_C@_0BBN@GPMLNJCF@A?5cast?5to?5a?5smaller?5data?5type?5ha@ 0049c9f8     MSVCRTD:error.obj
 0003:0001ab50       ??_C@_0BN@FFOINMNJ@Stack?5memory?5was?5corrupted?6?$AN?$AA@ 0049cb50     MSVCRTD:error.obj
 0003:0001ab74       ??_C@_0DG@HKJMLLLP@A?5local?5variable?5was?5used?5before@ 0049cb74     MSVCRTD:error.obj
 0003:0001abb4       ??_C@_0CM@NGINOKPC@Stack?5memory?5around?5_alloca?5was?5@ 0049cbb4     MSVCRTD:error.obj
 0003:0001abe8       ??_C@_0BO@GNIAFIKK@Unknown?5Runtime?5Check?5Error?6?$AN?$AA@ 0049cbe8     MSVCRTD:error.obj
 0003:0001ac10       ??_C@_1GM@OLMCBDMB@?$AAR?$AAu?$AAn?$AAt?$AAi?$AAm?$AAe?$AA?5?$AAC?$AAh?$AAe?$AAc?$AAk?$AA?5?$AAE?$AAr?$AAr?$AAo?$AAr?$AA?4?$AA?6?$AA?$AN?$AA?5?$AAU?$AAn?$AAa?$AAb?$AAl?$AAe?$AA?5?$AAt?$AAo@ 0049cc10     MSVCRTD:error.obj
 0003:0001ac98       ??_C@_1EA@NFKNIFJP@?$AAR?$AAu?$AAn?$AA?9?$AAT?$AAi?$AAm?$AAe?$AA?5?$AAC?$AAh?$AAe?$AAc?$AAk?$AA?5?$AAF?$AAa?$AAi?$AAl?$AAu?$AAr?$AAe?$AA?5?$AA?$CD?$AA?$CF?$AAd?$AA?5?$AA?9?$AA?5?$AA?$CF?$AAs?$AA?$AA@ 0049cc98     MSVCRTD:error.obj
 0003:0001ace4       ??_C@_0BB@PFFGGCJP@Unknown?5Filename?$AA@ 0049cce4     MSVCRTD:error.obj
 0003:0001acf8       ??_C@_0BE@GNBOBNCK@Unknown?5Module?5Name?$AA@ 0049ccf8     MSVCRTD:error.obj
 0003:0001ad10       ??_C@_0CA@IODNCDPG@Run?9Time?5Check?5Failure?5?$CD?$CFd?5?9?5?$CFs?$AA@ 0049cd10     MSVCRTD:error.obj
 0003:0001ad38       ??_C@_0CG@IAFNJNEE@Stack?5corrupted?5near?5unknown?5var@ 0049cd38     MSVCRTD:error.obj
 0003:0001ad68       ??_C@_05MKKEDADM@?$CF?42X?5?$AA@ 0049cd68     MSVCRTD:error.obj
 0003:0001ad70       ??_C@_1BG@OILDLIOJ@?$AAu?$AAs?$AAe?$AAr?$AA3?$AA2?$AA?4?$AAd?$AAl?$AAl?$AA?$AA@ 0049cd70     MSVCRTD:error.obj
 0003:0001ad8c       ??_C@_09FOPFMPEJ@wsprintfA?$AA@ 0049cd8c     MSVCRTD:error.obj
 0003:0001ad98       ??_C@_0EJ@LJKNEOLN@Stack?5area?5around?5_alloca?5memory@ 0049cd98     MSVCRTD:error.obj
 0003:0001adf0       ??_C@_08OMAHNMHJ@?6Data?3?5?$DM?$AA@ 0049cdf0     MSVCRTD:error.obj
 0003:0001adfc       ??_C@_0CK@DKGBICFE@?6Allocation?5number?5within?5this?5f@ 0049cdfc     MSVCRTD:error.obj
 0003:0001ae30       ??_C@_07DFDJCKFN@?6Size?3?5?$AA@ 0049ce30     MSVCRTD:error.obj
 0003:0001ae3c       ??_C@_0N@MHFFIMFG@?6Address?3?50x?$AA@ 0049ce3c     MSVCRTD:error.obj
 0003:0001ae50       ??_C@_0EI@CLEPFNGI@Stack?5area?5around?5_alloca?5memory@ 0049ce50     MSVCRTD:error.obj
 0003:0001aea8       ??_C@_0BC@KIBAILCI@?$CFs?$CFs?$CFp?$CFs?$CFld?$CFs?$CFd?$CFs?$AA@ 0049cea8     MSVCRTD:error.obj
 0003:0001aec0       ??_C@_02LLMPMKNF@?$DO?5?$AA@ 0049cec0     MSVCRTD:error.obj
 0003:0001aec4       ??_C@_08KJEDNCKC@?$CFs?$CFs?$CFs?$CFs?$AA@ 0049cec4     MSVCRTD:error.obj
 0003:0001aed0       ??_C@_0DE@OHJBPMBP@A?5variable?5is?5being?5used?5without@ 0049ced0     MSVCRTD:error.obj
 0003:0001af28       ??_C@_0BJ@HEGAHDFO@Stack?5pointer?5corruption?$AA@ 0049cf28     MSVCRTD:userapi.obj
 0003:0001af48       ??_C@_0CK@FEGOIOPB@Cast?5to?5smaller?5type?5causing?5los@ 0049cf48     MSVCRTD:userapi.obj
 0003:0001af7c       ??_C@_0BI@CIGMDCBH@Stack?5memory?5corruption?$AA@ 0049cf7c     MSVCRTD:userapi.obj
 0003:0001af98       ??_C@_0CK@CNLNOEPB@Local?5variable?5used?5before?5initi@ 0049cf98     MSVCRTD:userapi.obj
 0003:0001afcc       ??_C@_0BP@OGBCLIBO@Stack?5around?5_alloca?5corrupted?$AA@ 0049cfcc     MSVCRTD:userapi.obj
 0003:0001aff4       ?ProcessDetach@NativeDll@<CrtImplementationDetails>@@0IB 0049cff4     MSVCRTD:unhandld.obj
 0003:0001aff8       ?ProcessAttach@NativeDll@<CrtImplementationDetails>@@0IB 0049cff8     MSVCRTD:unhandld.obj
 0003:0001affc       ?ThreadAttach@NativeDll@<CrtImplementationDetails>@@0IB 0049cffc     MSVCRTD:unhandld.obj
 0003:0001b000       ?ThreadDetach@NativeDll@<CrtImplementationDetails>@@0IB 0049d000     MSVCRTD:unhandld.obj
 0003:0001b004       ?ProcessVerifier@NativeDll@<CrtImplementationDetails>@@0IB 0049d004     MSVCRTD:unhandld.obj
 0003:0001b008       ??_C@_1FI@JJOJLGLE@?$AAf?$AA?3?$AA?2?$AAd?$AAd?$AA?2?$AAv?$AAc?$AAt?$AAo?$AAo?$AAl?$AAs?$AA?2?$AAc?$AAr?$AAt?$AA?2?$AAc?$AAr?$AAt?$AAw?$AA3?$AA2?$AA?2?$AAs?$AAt?$AAa?$AAr?$AAt?$AAu?$AAp@ 0049d008     MSVCRTD:fp8.obj
 0003:0001b074       ??_C@_1CK@JMKHCBEI@?$AA_?$AAs?$AAe?$AAt?$AAd?$AAe?$AAf?$AAa?$AAu?$AAl?$AAt?$AAp?$AAr?$AAe?$AAc?$AAi?$AAs?$AAi?$AAo?$AAn?$AA?$AA@ 0049d074     MSVCRTD:fp8.obj
 0003:0001b0a8       ??_C@_1GE@KOCFNGPB@?$AA_?$AAc?$AAo?$AAn?$AAt?$AAr?$AAo?$AAl?$AAf?$AAp?$AA_?$AAs?$AA?$CI?$AA?$CI?$AA?$CI?$AAv?$AAo?$AAi?$AAd?$AA?5?$AA?$CK?$AA?$CJ?$AA0?$AA?$CJ?$AA?0?$AA?5?$AA0?$AAx?$AA0?$AA0?$AA0?$AA1@ 0049d0a8     MSVCRTD:fp8.obj
 0003:0001b16c       ?LocalIdBitWidth@CrossScopeId@CodeViewInfo@@2IB 0049d16c     MSVCRTD:pdblkup.obj
 0003:0001b170       ?IdScopeBitWidth@CrossScopeId@CodeViewInfo@@2IB 0049d170     MSVCRTD:pdblkup.obj
 0003:0001b174       ?StartCrossScopeId@CrossScopeId@CodeViewInfo@@2IB 0049d174     MSVCRTD:pdblkup.obj
 0003:0001b178       ?LocalIdMask@CrossScopeId@CodeViewInfo@@2IB 0049d178     MSVCRTD:pdblkup.obj
 0003:0001b17c       ?ScopeIdMask@CrossScopeId@CodeViewInfo@@2IB 0049d17c     MSVCRTD:pdblkup.obj
 0003:0001b180       ?MaxLocalId@CrossScopeId@CodeViewInfo@@2IB 0049d180     MSVCRTD:pdblkup.obj
 0003:0001b184       ?MaxScopeId@CrossScopeId@CodeViewInfo@@2IB 0049d184     MSVCRTD:pdblkup.obj
 0003:0001b188       ??_C@_1BK@GAEMIDIL@?$AAA?$AAD?$AAV?$AAA?$AAP?$AAI?$AA3?$AA2?$AA?4?$AAD?$AAL?$AAL?$AA?$AA@ 0049d188     MSVCRTD:pdblkup.obj
 0003:0001b1a8       ??_C@_0O@COHOBMLB@RegOpenKeyExW?$AA@ 0049d1a8     MSVCRTD:pdblkup.obj
 0003:0001b1b8       ??_C@_0BB@GLNAEDBD@RegQueryValueExW?$AA@ 0049d1b8     MSVCRTD:pdblkup.obj
 0003:0001b1cc       ??_C@_0M@HLOHPNFA@RegCloseKey?$AA@ 0049d1cc     MSVCRTD:pdblkup.obj
 0003:0001b1e0       ??_C@_1FM@EGIBBNPP@?$AAS?$AAO?$AAF?$AAT?$AAW?$AAA?$AAR?$AAE?$AA?2?$AAM?$AAi?$AAc?$AAr?$AAo?$AAs?$AAo?$AAf?$AAt?$AA?2?$AAV?$AAi?$AAs?$AAu?$AAa?$AAl?$AAS?$AAt?$AAu?$AAd?$AAi?$AAo?$AA?2@ 0049d1e0     MSVCRTD:pdblkup.obj
 0003:0001b250       ??_C@_1BG@EABPBLLF@?$AAP?$AAr?$AAo?$AAd?$AAu?$AAc?$AAt?$AAD?$AAi?$AAr?$AA?$AA@ 0049d250     MSVCRTD:pdblkup.obj
 0003:0001b290       ??_C@_1BC@EOIMGOME@?$AAM?$AAS?$AAP?$AAD?$AAB?$AA1?$AA2?$AA0?$AA?$AA@ 0049d290     MSVCRTD:pdblkup.obj
 0003:0001b2a8       ??_C@_0BB@KCIACLNC@PDBOpenValidate5?$AA@ 0049d2a8     MSVCRTD:pdblkup.obj
 0003:0001b2bc       ??_7?$QMemArray@PAD@@6B@   0049d2bc     qtmain:qtmain_win.obj
 0003:0001b2d0       __load_config_used         0049d2d0     MSVCRTD:loadcfg.obj
 0003:0001b830       ??_R4QPushButton@@6BQObject@@@ 0049d830     aboutdialog.obj
 0003:0001b848       ??_R3QPushButton@@8        0049d848     aboutdialog.obj
 0003:0001b85c       ??_R2QPushButton@@8        0049d85c     aboutdialog.obj
 0003:0001b87c       ??_R1A@?0A@EA@QPushButton@@8 0049d87c     aboutdialog.obj
 0003:0001b8a0       ??_R1A@?0A@EA@QButton@@8   0049d8a0     aboutdialog.obj
 0003:0001b8c4       ??_R3QButton@@8            0049d8c4     aboutdialog.obj
 0003:0001b8d8       ??_R2QButton@@8            0049d8d8     aboutdialog.obj
 0003:0001b8f4       ??_R1A@?0A@EA@QWidget@@8   0049d8f4     aboutdialog.obj
 0003:0001b918       ??_R3QWidget@@8            0049d918     aboutdialog.obj
 0003:0001b92c       ??_R2QWidget@@8            0049d92c     aboutdialog.obj
 0003:0001b940       ??_R1A@?0A@EA@QObject@@8   0049d940     aboutdialog.obj
 0003:0001b964       ??_R3QObject@@8            0049d964     aboutdialog.obj
 0003:0001b978       ??_R2QObject@@8            0049d978     aboutdialog.obj
 0003:0001b984       ??_R13?0A@EA@Qt@@8         0049d984     aboutdialog.obj
 0003:0001b9a8       ??_R3Qt@@8                 0049d9a8     aboutdialog.obj
 0003:0001b9bc       ??_R2Qt@@8                 0049d9bc     aboutdialog.obj
 0003:0001b9c4       ??_R1A@?0A@EA@Qt@@8        0049d9c4     aboutdialog.obj
 0003:0001b9e8       ??_R1CI@?0A@EA@QPaintDevice@@8 0049d9e8     aboutdialog.obj
 0003:0001ba0c       ??_R3QPaintDevice@@8       0049da0c     aboutdialog.obj
 0003:0001ba20       ??_R2QPaintDevice@@8       0049da20     aboutdialog.obj
 0003:0001ba28       ??_R1A@?0A@EA@QPaintDevice@@8 0049da28     aboutdialog.obj
 0003:0001ba4c       ??_R4QPushButton@@6BQPaintDevice@@@ 0049da4c     aboutdialog.obj
 0003:0001ba64       ??_R4QVBoxLayout@@6BQObject@@@ 0049da64     aboutdialog.obj
 0003:0001ba7c       ??_R3QVBoxLayout@@8        0049da7c     aboutdialog.obj
 0003:0001ba90       ??_R2QVBoxLayout@@8        0049da90     aboutdialog.obj
 0003:0001bab0       ??_R1A@?0A@EA@QVBoxLayout@@8 0049dab0     aboutdialog.obj
 0003:0001bad4       ??_R1A@?0A@EA@QBoxLayout@@8 0049dad4     aboutdialog.obj
 0003:0001baf8       ??_R3QBoxLayout@@8         0049daf8     aboutdialog.obj
 0003:0001bb0c       ??_R2QBoxLayout@@8         0049db0c     aboutdialog.obj
 0003:0001bb28       ??_R1A@?0A@EA@QLayout@@8   0049db28     aboutdialog.obj
 0003:0001bb4c       ??_R3QLayout@@8            0049db4c     aboutdialog.obj
 0003:0001bb60       ??_R2QLayout@@8            0049db60     aboutdialog.obj
 0003:0001bb74       ??_R1CI@?0A@EA@QLayoutItem@@8 0049db74     aboutdialog.obj
 0003:0001bb98       ??_R3QLayoutItem@@8        0049db98     aboutdialog.obj
 0003:0001bbac       ??_R2QLayoutItem@@8        0049dbac     aboutdialog.obj
 0003:0001bbb4       ??_R1A@?0A@EA@QLayoutItem@@8 0049dbb4     aboutdialog.obj
 0003:0001bbd8       ??_R4QVBoxLayout@@6BQLayoutItem@@@ 0049dbd8     aboutdialog.obj
 0003:0001bbf0       ??_R4QHBoxLayout@@6BQObject@@@ 0049dbf0     aboutdialog.obj
 0003:0001bc08       ??_R3QHBoxLayout@@8        0049dc08     aboutdialog.obj
 0003:0001bc1c       ??_R2QHBoxLayout@@8        0049dc1c     aboutdialog.obj
 0003:0001bc3c       ??_R1A@?0A@EA@QHBoxLayout@@8 0049dc3c     aboutdialog.obj
 0003:0001bc60       ??_R4QHBoxLayout@@6BQLayoutItem@@@ 0049dc60     aboutdialog.obj
 0003:0001bc78       ??_R4QFrame@@6BQObject@@@  0049dc78     aboutdialog.obj
 0003:0001bc90       ??_R3QFrame@@8             0049dc90     aboutdialog.obj
 0003:0001bca4       ??_R2QFrame@@8             0049dca4     aboutdialog.obj
 0003:0001bcc0       ??_R1A@?0A@EA@QFrame@@8    0049dcc0     aboutdialog.obj
 0003:0001bce4       ??_R4QFrame@@6BQPaintDevice@@@ 0049dce4     aboutdialog.obj
 0003:0001bcfc       ??_R4QLabel@@6BQObject@@@  0049dcfc     aboutdialog.obj
 0003:0001bd14       ??_R3QLabel@@8             0049dd14     aboutdialog.obj
 0003:0001bd28       ??_R2QLabel@@8             0049dd28     aboutdialog.obj
 0003:0001bd48       ??_R1A@?0A@EA@QLabel@@8    0049dd48     aboutdialog.obj
 0003:0001bd6c       ??_R4QLabel@@6BQPaintDevice@@@ 0049dd6c     aboutdialog.obj
 0003:0001bd84       ??_R4aboutDialog@@6BQObject@@@ 0049dd84     aboutdialog.obj
 0003:0001bd9c       ??_R3aboutDialog@@8        0049dd9c     aboutdialog.obj
 0003:0001bdb0       ??_R2aboutDialog@@8        0049ddb0     aboutdialog.obj
 0003:0001bdd0       ??_R1A@?0A@EA@aboutDialog@@8 0049ddd0     aboutdialog.obj
 0003:0001bdf4       ??_R1A@?0A@EA@QDialog@@8   0049ddf4     aboutdialog.obj
 0003:0001be18       ??_R3QDialog@@8            0049de18     aboutdialog.obj
 0003:0001be2c       ??_R2QDialog@@8            0049de2c     aboutdialog.obj
 0003:0001be48       ??_R4aboutDialog@@6BQPaintDevice@@@ 0049de48     aboutdialog.obj
 0003:0001be60       ??_R4QSpacerItem@@6B@      0049de60     aboutdialog.obj
 0003:0001be78       ??_R3QSpacerItem@@8        0049de78     aboutdialog.obj
 0003:0001be8c       ??_R2QSpacerItem@@8        0049de8c     aboutdialog.obj
 0003:0001be98       ??_R1A@?0A@EA@QSpacerItem@@8 0049de98     aboutdialog.obj
 0003:0001bebc       ??_R4aboutDialogImpl@@6BQObject@@@ 0049debc     aboutdialogimpl.obj
 0003:0001bed4       ??_R3aboutDialogImpl@@8    0049ded4     aboutdialogimpl.obj
 0003:0001bee8       ??_R2aboutDialogImpl@@8    0049dee8     aboutdialogimpl.obj
 0003:0001bf0c       ??_R1A@?0A@EA@aboutDialogImpl@@8 0049df0c     aboutdialogimpl.obj
 0003:0001bf30       ??_R4aboutDialogImpl@@6BQPaintDevice@@@ 0049df30     aboutdialogimpl.obj
 0003:0001bf48       ??_R4QWidget@@6BQObject@@@ 0049df48     bncslink32mainwindow.obj
 0003:0001bf60       ??_R4QWidget@@6BQPaintDevice@@@ 0049df60     bncslink32mainwindow.obj
 0003:0001bf78       ??_R4QMenuBar@@6BQObject@@@ 0049df78     bncslink32mainwindow.obj
 0003:0001bf90       ??_R3QMenuBar@@8           0049df90     bncslink32mainwindow.obj
 0003:0001bfa4       ??_R2QMenuBar@@8           0049dfa4     bncslink32mainwindow.obj
 0003:0001bfc8       ??_R1A@?0A@EA@QMenuBar@@8  0049dfc8     bncslink32mainwindow.obj
 0003:0001bfec       ??_R1IM@?0A@EA@QMenuData@@8 0049dfec     bncslink32mainwindow.obj
 0003:0001c010       ??_R3QMenuData@@8          0049e010     bncslink32mainwindow.obj
 0003:0001c024       ??_R2QMenuData@@8          0049e024     bncslink32mainwindow.obj
 0003:0001c02c       ??_R1A@?0A@EA@QMenuData@@8 0049e02c     bncslink32mainwindow.obj
 0003:0001c050       ??_R4QMenuBar@@6BQPaintDevice@@@ 0049e050     bncslink32mainwindow.obj
 0003:0001c068       ??_R4QMenuBar@@6B@         0049e068     bncslink32mainwindow.obj
 0003:0001c080       ??_R4QPopupMenu@@6BQObject@@@ 0049e080     bncslink32mainwindow.obj
 0003:0001c098       ??_R3QPopupMenu@@8         0049e098     bncslink32mainwindow.obj
 0003:0001c0ac       ??_R2QPopupMenu@@8         0049e0ac     bncslink32mainwindow.obj
 0003:0001c0d0       ??_R1A@?0A@EA@QPopupMenu@@8 0049e0d0     bncslink32mainwindow.obj
 0003:0001c0f4       ??_R4QPopupMenu@@6BQPaintDevice@@@ 0049e0f4     bncslink32mainwindow.obj
 0003:0001c10c       ??_R4QPopupMenu@@6B@       0049e10c     bncslink32mainwindow.obj
 0003:0001c124       ??_R4QGridLayout@@6BQObject@@@ 0049e124     bncslink32mainwindow.obj
 0003:0001c13c       ??_R3QGridLayout@@8        0049e13c     bncslink32mainwindow.obj
 0003:0001c150       ??_R2QGridLayout@@8        0049e150     bncslink32mainwindow.obj
 0003:0001c16c       ??_R1A@?0A@EA@QGridLayout@@8 0049e16c     bncslink32mainwindow.obj
 0003:0001c190       ??_R4QGridLayout@@6BQLayoutItem@@@ 0049e190     bncslink32mainwindow.obj
 0003:0001c1a8       ??_R4QAction@@6B@          0049e1a8     bncslink32mainwindow.obj
 0003:0001c1c0       ??_R3QAction@@8            0049e1c0     bncslink32mainwindow.obj
 0003:0001c1d4       ??_R2QAction@@8            0049e1d4     bncslink32mainwindow.obj
 0003:0001c1e4       ??_R1A@?0A@EA@QAction@@8   0049e1e4     bncslink32mainwindow.obj
 0003:0001c208       ??_R4QTextEdit@@6BQObject@@@ 0049e208     bncslink32mainwindow.obj
 0003:0001c220       ??_R3QTextEdit@@8          0049e220     bncslink32mainwindow.obj
 0003:0001c234       ??_R2QTextEdit@@8          0049e234     bncslink32mainwindow.obj
 0003:0001c258       ??_R1A@?0A@EA@QTextEdit@@8 0049e258     bncslink32mainwindow.obj
 0003:0001c27c       ??_R1A@?0A@EA@QScrollView@@8 0049e27c     bncslink32mainwindow.obj
 0003:0001c2a0       ??_R3QScrollView@@8        0049e2a0     bncslink32mainwindow.obj
 0003:0001c2b4       ??_R2QScrollView@@8        0049e2b4     bncslink32mainwindow.obj
 0003:0001c2d4       ??_R4QTextEdit@@6BQPaintDevice@@@ 0049e2d4     bncslink32mainwindow.obj
 0003:0001c2ec       ??_R4bncslink32MainWindow@@6BQObject@@@ 0049e2ec     bncslink32mainwindow.obj
 0003:0001c304       ??_R3bncslink32MainWindow@@8 0049e304     bncslink32mainwindow.obj
 0003:0001c318       ??_R2bncslink32MainWindow@@8 0049e318     bncslink32mainwindow.obj
 0003:0001c338       ??_R1A@?0A@EA@bncslink32MainWindow@@8 0049e338     bncslink32mainwindow.obj
 0003:0001c35c       ??_R1A@?0A@EA@QMainWindow@@8 0049e35c     bncslink32mainwindow.obj
 0003:0001c380       ??_R3QMainWindow@@8        0049e380     bncslink32mainwindow.obj
 0003:0001c394       ??_R2QMainWindow@@8        0049e394     bncslink32mainwindow.obj
 0003:0001c3b0       ??_R4bncslink32MainWindow@@6BQPaintDevice@@@ 0049e3b0     bncslink32mainwindow.obj
 0003:0001c3c8       ??_R1A@?0A@EA@QGList@@8    0049e3c8     bncslink32mainwindowimpl.obj
 0003:0001c3ec       ??_R3QGList@@8             0049e3ec     bncslink32mainwindowimpl.obj
 0003:0001c400       ??_R2QGList@@8             0049e400     bncslink32mainwindowimpl.obj
 0003:0001c40c       ??_R1A@?0A@EA@QPtrCollection@@8 0049e40c     bncslink32mainwindowimpl.obj
 0003:0001c430       ??_R3QPtrCollection@@8     0049e430     bncslink32mainwindowimpl.obj
 0003:0001c444       ??_R2QPtrCollection@@8     0049e444     bncslink32mainwindowimpl.obj
 0003:0001c44c       ??_R1A@?0A@EN@QGList@@8    0049e44c     bncslink32mainwindowimpl.obj
 0003:0001c470       ??_R1A@?0A@EJ@QPtrCollection@@8 0049e470     bncslink32mainwindowimpl.obj
 0003:0001c494       ??_R4listRouterCmd@@6B@    0049e494     bncslink32mainwindowimpl.obj
 0003:0001c4ac       ??_R3listRouterCmd@@8      0049e4ac     bncslink32mainwindowimpl.obj
 0003:0001c4c0       ??_R2listRouterCmd@@8      0049e4c0     bncslink32mainwindowimpl.obj
 0003:0001c4c8       ??_R1A@?0A@EA@listRouterCmd@@8 0049e4c8     bncslink32mainwindowimpl.obj
 0003:0001c4ec       ??_R4bncslink32MainWindowImpl@@6BQObject@@@ 0049e4ec     bncslink32mainwindowimpl.obj
 0003:0001c504       ??_R3bncslink32MainWindowImpl@@8 0049e504     bncslink32mainwindowimpl.obj
 0003:0001c518       ??_R2bncslink32MainWindowImpl@@8 0049e518     bncslink32mainwindowimpl.obj
 0003:0001c53c       ??_R1A@?0A@EA@bncslink32MainWindowImpl@@8 0049e53c     bncslink32mainwindowimpl.obj
 0003:0001c560       ??_R4bncslink32MainWindowImpl@@6BQPaintDevice@@@ 0049e560     bncslink32mainwindowimpl.obj
 0003:0001c578       ??_R4?$QPtrQueue@VlistRouterCmd@@@@6B@ 0049e578     bncslink32mainwindowimpl.obj
 0003:0001c590       ??_R3?$QPtrQueue@VlistRouterCmd@@@@8 0049e590     bncslink32mainwindowimpl.obj
 0003:0001c5a4       ??_R2?$QPtrQueue@VlistRouterCmd@@@@8 0049e5a4     bncslink32mainwindowimpl.obj
 0003:0001c5b4       ??_R1A@?0A@EA@?$QPtrQueue@VlistRouterCmd@@@@8 0049e5b4     bncslink32mainwindowimpl.obj
 0003:0001c5d8       ??_R4clientsRegistration@@6B@ 0049e5d8     clientsRegistration.obj
 0003:0001c5f0       ??_R3clientsRegistration@@8 0049e5f0     clientsRegistration.obj
 0003:0001c604       ??_R2clientsRegistration@@8 0049e604     clientsRegistration.obj
 0003:0001c60c       ??_R1A@?0A@EA@clientsRegistration@@8 0049e60c     clientsRegistration.obj
 0003:0001c630       ??_R4fabianClient@@6BQObject@@@ 0049e630     fabianClient.obj
 0003:0001c648       ??_R3fabianClient@@8       0049e648     fabianClient.obj
 0003:0001c65c       ??_R2fabianClient@@8       0049e65c     fabianClient.obj
 0003:0001c678       ??_R1A@?0A@EA@fabianClient@@8 0049e678     fabianClient.obj
 0003:0001c69c       ??_R1A@?0A@EA@QSocket@@8   0049e69c     fabianClient.obj
 0003:0001c6c0       ??_R3QSocket@@8            0049e6c0     fabianClient.obj
 0003:0001c6d4       ??_R2QSocket@@8            0049e6d4     fabianClient.obj
 0003:0001c6e8       ??_R1CI@?0A@EA@QIODevice@@8 0049e6e8     fabianClient.obj
 0003:0001c70c       ??_R3QIODevice@@8          0049e70c     fabianClient.obj
 0003:0001c720       ??_R2QIODevice@@8          0049e720     fabianClient.obj
 0003:0001c728       ??_R1A@?0A@EA@QIODevice@@8 0049e728     fabianClient.obj
 0003:0001c74c       ??_R4fabianClient@@6BQIODevice@@@ 0049e74c     fabianClient.obj
 0003:0001c764       ??_R4messageWindow@@6B@    0049e764     messageWindow.obj
 0003:0001c77c       ??_R3messageWindow@@8      0049e77c     messageWindow.obj
 0003:0001c790       ??_R2messageWindow@@8      0049e790     messageWindow.obj
 0003:0001c7a0       ??_R1A@?0A@EA@messageWindow@@8 0049e7a0     messageWindow.obj
 0003:0001c7c4       ??_R4error_category@std@@6B@ 0049e7c4     messageWindow.obj
 0003:0001c7dc       ??_R3error_category@std@@8 0049e7dc     messageWindow.obj
 0003:0001c7f0       ??_R2error_category@std@@8 0049e7f0     messageWindow.obj
 0003:0001c7f8       ??_R1A@?0A@EA@error_category@std@@8 0049e7f8     messageWindow.obj
 0003:0001c81c       ??_R4_Generic_error_category@std@@6B@ 0049e81c     messageWindow.obj
 0003:0001c834       ??_R3_Generic_error_category@std@@8 0049e834     messageWindow.obj
 0003:0001c848       ??_R2_Generic_error_category@std@@8 0049e848     messageWindow.obj
 0003:0001c854       ??_R1A@?0A@EA@_Generic_error_category@std@@8 0049e854     messageWindow.obj
 0003:0001c878       ??_R4_Iostream_error_category@std@@6B@ 0049e878     messageWindow.obj
 0003:0001c890       ??_R3_Iostream_error_category@std@@8 0049e890     messageWindow.obj
 0003:0001c8a4       ??_R2_Iostream_error_category@std@@8 0049e8a4     messageWindow.obj
 0003:0001c8b4       ??_R1A@?0A@EA@_Iostream_error_category@std@@8 0049e8b4     messageWindow.obj
 0003:0001c8d8       ??_R4_System_error_category@std@@6B@ 0049e8d8     messageWindow.obj
 0003:0001c8f0       ??_R3_System_error_category@std@@8 0049e8f0     messageWindow.obj
 0003:0001c904       ??_R2_System_error_category@std@@8 0049e904     messageWindow.obj
 0003:0001c914       ??_R1A@?0A@EA@_System_error_category@std@@8 0049e914     messageWindow.obj
 0003:0001c938       ??_R4cachePoll@@6B@        0049e938     messageWindow.obj
 0003:0001c950       ??_R3cachePoll@@8          0049e950     messageWindow.obj
 0003:0001c964       ??_R2cachePoll@@8          0049e964     messageWindow.obj
 0003:0001c978       ??_R1A@?0A@EA@cachePoll@@8 0049e978     messageWindow.obj
 0003:0001c99c       ??_R1A@?0A@EA@QCustomEvent@@8 0049e99c     messageWindow.obj
 0003:0001c9c0       ??_R3QCustomEvent@@8       0049e9c0     messageWindow.obj
 0003:0001c9d4       ??_R2QCustomEvent@@8       0049e9d4     messageWindow.obj
 0003:0001c9e4       ??_R1A@?0A@EA@QEvent@@8    0049e9e4     messageWindow.obj
 0003:0001ca08       ??_R3QEvent@@8             0049ea08     messageWindow.obj
 0003:0001ca1c       ??_R2QEvent@@8             0049ea1c     messageWindow.obj
 0003:0001ca28       ??_R4singleReg@@6B@        0049ea28     singleReg.obj
 0003:0001ca40       ??_R3singleReg@@8          0049ea40     singleReg.obj
 0003:0001ca54       ??_R2singleReg@@8          0049ea54     singleReg.obj
 0003:0001ca5c       ??_R1A@?0A@EA@singleReg@@8 0049ea5c     singleReg.obj
 0003:0001ca80       ??_R4databaseMgr@@6B@      0049ea80     databasedb_vs2013:databaseMgr.obj
 0003:0001ca98       ??_R3databaseMgr@@8        0049ea98     databasedb_vs2013:databaseMgr.obj
 0003:0001caac       ??_R2databaseMgr@@8        0049eaac     databasedb_vs2013:databaseMgr.obj
 0003:0001cab4       ??_R1A@?0A@EA@databaseMgr@@8 0049eab4     databasedb_vs2013:databaseMgr.obj
 0003:0001cad8       ??_R4database@@6B@         0049ead8     databasedb_vs2013:database.obj
 0003:0001caf0       ??_R3database@@8           0049eaf0     databasedb_vs2013:database.obj
 0003:0001cb04       ??_R2database@@8           0049eb04     databasedb_vs2013:database.obj
 0003:0001cb0c       ??_R1A@?0A@EA@database@@8  0049eb0c     databasedb_vs2013:database.obj
 0003:0001cb30       ??_R4decodeBNCSString@@6B@ 0049eb30     decodeCaptionStringdb:decodeBNCSString.obj
 0003:0001cb48       ??_R3decodeBNCSString@@8   0049eb48     decodeCaptionStringdb:decodeBNCSString.obj
 0003:0001cb5c       ??_R2decodeBNCSString@@8   0049eb5c     decodeCaptionStringdb:decodeBNCSString.obj
 0003:0001cb64       ??_R1A@?0A@EA@decodeBNCSString@@8 0049eb64     decodeCaptionStringdb:decodeBNCSString.obj
 0003:0001cb88       ??_R4cBncsVersion@@6B@     0049eb88     BncsVersionInfo:cBncsVersion.obj
 0003:0001cba0       ??_R3cBncsVersion@@8       0049eba0     BncsVersionInfo:cBncsVersion.obj
 0003:0001cbb4       ??_R2cBncsVersion@@8       0049ebb4     BncsVersionInfo:cBncsVersion.obj
 0003:0001cbbc       ??_R1A@?0A@EA@cBncsVersion@@8 0049ebbc     BncsVersionInfo:cBncsVersion.obj
 0003:0001cbe0       ??_R4type_info@@6B@        0049ebe0     MSVCRTD:ti_inst.obj
 0003:0001cbf8       ??_R3type_info@@8          0049ebf8     MSVCRTD:ti_inst.obj
 0003:0001cc0c       ??_R2type_info@@8          0049ec0c     MSVCRTD:ti_inst.obj
 0003:0001cc14       ??_R1A@?0A@EA@type_info@@8 0049ec14     MSVCRTD:ti_inst.obj
 0003:0001cdac       ___rtc_iaa                 0049edac     MSVCRTD:initsect.obj
 0003:0001d00c       ___rtc_izz                 0049f00c     MSVCRTD:initsect.obj
 0003:0001d110       ___rtc_taa                 0049f110     MSVCRTD:initsect.obj
 0003:0001d370       ___rtc_tzz                 0049f370     MSVCRTD:initsect.obj
 0004:000007fc       ___security_cookie         004a47fc     MSVCRTD:gs_cookie.obj
 0004:00000800       ___security_cookie_complement 004a4800     MSVCRTD:gs_cookie.obj
 0004:00000810       ?_RTC_ErrorLevels@@3PAHA   004a4810     MSVCRTD:error.obj
 0004:00000828       ___defaultmatherr          004a4828     MSVCRTD:merr.obj
 0004:0000082c       ___globallocalestatus      004a482c     MSVCRTD:xthdloc.obj
 0004:00000830       ___native_dllmain_reason   004a4830     MSVCRTD:natstart.obj
 0004:00000940       ??_R0?AVQPushButton@@@8    004a4940     aboutdialog.obj
 0004:00000960       ??_R0?AVQButton@@@8        004a4960     aboutdialog.obj
 0004:0000097c       ??_R0?AVQWidget@@@8        004a497c     aboutdialog.obj
 0004:00000998       ??_R0?AVQObject@@@8        004a4998     aboutdialog.obj
 0004:000009b4       ??_R0?AVQt@@@8             004a49b4     aboutdialog.obj
 0004:000009c8       ??_R0?AVQPaintDevice@@@8   004a49c8     aboutdialog.obj
 0004:000009e8       ??_R0?AVQVBoxLayout@@@8    004a49e8     aboutdialog.obj
 0004:00000a08       ??_R0?AVQBoxLayout@@@8     004a4a08     aboutdialog.obj
 0004:00000a28       ??_R0?AVQLayout@@@8        004a4a28     aboutdialog.obj
 0004:00000a44       ??_R0?AVQLayoutItem@@@8    004a4a44     aboutdialog.obj
 0004:00000a64       ??_R0?AVQHBoxLayout@@@8    004a4a64     aboutdialog.obj
 0004:00000a84       ??_R0?AVQFrame@@@8         004a4a84     aboutdialog.obj
 0004:00000aa0       ??_R0?AVQLabel@@@8         004a4aa0     aboutdialog.obj
 0004:00000abc       ??_R0?AVaboutDialog@@@8    004a4abc     aboutdialog.obj
 0004:00000adc       ??_R0?AVQDialog@@@8        004a4adc     aboutdialog.obj
 0004:00000af8       ??_R0?AVQSpacerItem@@@8    004a4af8     aboutdialog.obj
 0004:00000b18       ??_R0?AVaboutDialogImpl@@@8 004a4b18     aboutdialogimpl.obj
 0004:00000b3c       ??_R0?AVQMenuBar@@@8       004a4b3c     bncslink32mainwindow.obj
 0004:00000b58       ??_R0?AVQMenuData@@@8      004a4b58     bncslink32mainwindow.obj
 0004:00000b74       ??_R0?AVQPopupMenu@@@8     004a4b74     bncslink32mainwindow.obj
 0004:00000b94       ??_R0?AVQGridLayout@@@8    004a4b94     bncslink32mainwindow.obj
 0004:00000bb4       ??_R0?AVQAction@@@8        004a4bb4     bncslink32mainwindow.obj
 0004:00000bd0       ??_R0?AVQTextEdit@@@8      004a4bd0     bncslink32mainwindow.obj
 0004:00000bec       ??_R0?AVQScrollView@@@8    004a4bec     bncslink32mainwindow.obj
 0004:00000c0c       ??_R0?AVbncslink32MainWindow@@@8 004a4c0c     bncslink32mainwindow.obj
 0004:00000c38       ??_R0?AVQMainWindow@@@8    004a4c38     bncslink32mainwindow.obj
 0004:00000c58       ??_R0?AVQGList@@@8         004a4c58     bncslink32mainwindowimpl.obj
 0004:00000c74       ??_R0?AVQPtrCollection@@@8 004a4c74     bncslink32mainwindowimpl.obj
 0004:00000c98       ??_R0?AVlistRouterCmd@@@8  004a4c98     bncslink32mainwindowimpl.obj
 0004:00000cbc       ??_R0?AVbncslink32MainWindowImpl@@@8 004a4cbc     bncslink32mainwindowimpl.obj
 0004:00000cec       ??_R0?AV?$QPtrQueue@VlistRouterCmd@@@@@8 004a4cec     bncslink32mainwindowimpl.obj
 0004:00000d20       ??_R0?AVclientsRegistration@@@8 004a4d20     clientsRegistration.obj
 0004:00000d48       ??_R0?AVfabianClient@@@8   004a4d48     fabianClient.obj
 0004:00000d68       ??_R0?AVQSocket@@@8        004a4d68     fabianClient.obj
 0004:00000d84       ??_R0?AVQIODevice@@@8      004a4d84     fabianClient.obj
 0004:00000da0       ??_R0?AVmessageWindow@@@8  004a4da0     messageWindow.obj
 0004:00000dc4       ??_R0?AVerror_category@std@@@8 004a4dc4     messageWindow.obj
 0004:00000dec       ??_R0?AV_Generic_error_category@std@@@8 004a4dec     messageWindow.obj
 0004:00000e20       ??_R0?AV_Iostream_error_category@std@@@8 004a4e20     messageWindow.obj
 0004:00000e54       ??_R0?AV_System_error_category@std@@@8 004a4e54     messageWindow.obj
 0004:00000e88       ??_R0?AVcachePoll@@@8      004a4e88     messageWindow.obj
 0004:00000ea4       ??_R0?AVQCustomEvent@@@8   004a4ea4     messageWindow.obj
 0004:00000ec4       ??_R0?AVQEvent@@@8         004a4ec4     messageWindow.obj
 0004:00000ee0       ??_R0?AVsingleReg@@@8      004a4ee0     singleReg.obj
 0004:00000efc       ??_R0?AVdatabaseMgr@@@8    004a4efc     databasedb_vs2013:databaseMgr.obj
 0004:00000f1c       ??_R0?AVdatabase@@@8       004a4f1c     databasedb_vs2013:database.obj
 0004:00000f38       ??_R0?AVdecodeBNCSString@@@8 004a4f38     decodeCaptionStringdb:decodeBNCSString.obj
 0004:00000f60       ??_R0?AVcBncsVersion@@@8   004a4f60     BncsVersionInfo:cBncsVersion.obj
 0004:00000f80       ??_R0?AVtype_info@@@8      004a4f80     MSVCRTD:ti_inst.obj
 0004:000010cc       ?_Generic_object@?$_Error_objects@H@std@@2V_Generic_error_category@2@A 004a50cc     messageWindow.obj
 0004:000010d0       ?_Iostream_object@?$_Error_objects@H@std@@2V_Iostream_error_category@2@A 004a50d0     messageWindow.obj
 0004:000010d4       ?_System_object@?$_Error_objects@H@std@@2V_System_error_category@2@A 004a50d4     messageWindow.obj
 0004:000010d8       ?id@?$num_put@DV?$back_insert_iterator@V?$basic_string@DU?$char_traits@D@std@@V?$allocator@D@2@@std@@@std@@@std@@2V0locale@2@A 004a50d8     messageWindow.obj
 0004:000010dc       ?id@?$num_put@_WV?$back_insert_iterator@V?$basic_string@_WU?$char_traits@_W@std@@V?$allocator@_W@2@@std@@@std@@@std@@2V0locale@2@A 004a50dc     messageWindow.obj
 0004:000010e0       ?metaObj@aboutDialog@@0PAVQMetaObject@@A 004a50e0     moc_aboutdialog.obj
 0004:000010ec       ?metaObj@aboutDialogImpl@@0PAVQMetaObject@@A 004a50ec     moc_aboutdialogimpl.obj
 0004:000010f8       ?metaObj@bncslink32MainWindow@@0PAVQMetaObject@@A 004a50f8     moc_bncslink32mainwindow.obj
 0004:00001114       ?metaObj@bncslink32MainWindowImpl@@0PAVQMetaObject@@A 004a5114     moc_bncslink32mainwindowimpl.obj
 0004:00001130       ?metaObj@fabianClient@@0PAVQMetaObject@@A 004a5130     moc_fabianClient.obj
 0004:000015e8       ?metaObj@messageWindow@@0PAVQMetaObject@@A 004a55e8     moc_messageWindow.obj
 0004:000016d8       ?pHtmlHelpW@@3P6GPAUHWND__@@PAU1@PBGIK@ZA 004a56d8     htmlhelp:init.obj
 0004:000016dc       ?pHtmlHelpA@@3P6GPAUHWND__@@PAU1@PBDIK@ZA 004a56dc     htmlhelp:init.obj
 0004:00001d80       ?wsprintffp@@3P6AHPADPBDZZA 004a5d80     MSVCRTD:error.obj
 0004:00001d90       __commode                  004a5d90     MSVCRTD:xncommod.obj
 0004:00001d94       __dowildcard               004a5d94     MSVCRTD:wildcard.obj
 0004:00001d98       __newmode                  004a5d98     MSVCRTD:_newmode.obj
 0004:00001d9c       __fmode                    004a5d9c     MSVCRTD:xtxtmode.obj
 0004:00001da8       ___native_startup_lock     004a5da8     <common>
 0004:00001db8       ___native_startup_state    004a5db8     <common>
 0004:00001dbc       ___dyn_tls_init_callback   004a5dbc     <common>
 0004:00001dcc       ___onexitend               004a5dcc     <common>
 0004:00001ddc       ___onexitbegin             004a5ddc     <common>
 0005:00000000       __imp__RegOpenKeyExA@20    004a6000     advapi32:ADVAPI32.dll
 0005:00000004       __imp__RegQueryValueExA@24 004a6004     advapi32:ADVAPI32.dll
 0005:00000008       __imp__RegCloseKey@4       004a6008     advapi32:ADVAPI32.dll
 0005:0000000c       \177ADVAPI32_NULL_THUNK_DATA 004a600c     advapi32:ADVAPI32.dll
 0005:00000038       __imp__BNCS32TxMessage     004a6038     bncsif32:BNCSIF32.dll
 0005:0000003c       __imp__BNCS32RxMessage     004a603c     bncsif32:BNCSIF32.dll
 0005:00000040       \177BNCSIF32_NULL_THUNK_DATA 004a6040     bncsif32:BNCSIF32.dll
 0005:0000006c       __imp__HeapFree@12         004a606c     kernel32:KERNEL32.dll
 0005:00000070       __imp__HeapAlloc@12        004a6070     kernel32:KERNEL32.dll
 0005:00000074       __imp__GetSystemTimeAsFileTime@4 004a6074     kernel32:KERNEL32.dll
 0005:00000078       __imp__GetCurrentThreadId@0 004a6078     kernel32:KERNEL32.dll
 0005:0000007c       __imp__GetCurrentProcessId@0 004a607c     kernel32:KERNEL32.dll
 0005:00000080       __imp__QueryPerformanceCounter@4 004a6080     kernel32:KERNEL32.dll
 0005:00000084       __imp__GetProcessHeap@0    004a6084     kernel32:KERNEL32.dll
 0005:00000088       __imp__MultiByteToWideChar@24 004a6088     kernel32:KERNEL32.dll
 0005:0000008c       __imp__LoadLibraryExW@12   004a608c     kernel32:KERNEL32.dll
 0005:00000090       __imp__GetLastError@0      004a6090     kernel32:KERNEL32.dll
 0005:00000094       __imp__RaiseException@16   004a6094     kernel32:KERNEL32.dll
 0005:00000098       __imp__IsProcessorFeaturePresent@4 004a6098     kernel32:KERNEL32.dll
 0005:0000009c       __imp__IsDebuggerPresent@0 004a609c     kernel32:KERNEL32.dll
 0005:000000a0       __imp__DecodePointer@4     004a60a0     kernel32:KERNEL32.dll
 0005:000000a4       __imp__EncodePointer@4     004a60a4     kernel32:KERNEL32.dll
 0005:000000a8       __imp__VirtualQuery@12     004a60a8     kernel32:KERNEL32.dll
 0005:000000ac       __imp__FreeLibrary@4       004a60ac     kernel32:KERNEL32.dll
 0005:000000b0       __imp__GetModuleFileNameW@12 004a60b0     kernel32:KERNEL32.dll
 0005:000000b4       __imp__WideCharToMultiByte@32 004a60b4     kernel32:KERNEL32.dll
 0005:000000b8       __imp__lstrcpynA@12        004a60b8     kernel32:KERNEL32.dll
 0005:000000bc       __imp__LoadLibraryA@4      004a60bc     kernel32:KERNEL32.dll
 0005:000000c0       __imp__GetProcAddress@8    004a60c0     kernel32:KERNEL32.dll
 0005:000000c4       __imp__OutputDebugStringA@4 004a60c4     kernel32:KERNEL32.dll
 0005:000000c8       __imp__WritePrivateProfileStringA@16 004a60c8     kernel32:KERNEL32.dll
 0005:000000cc       __imp__GetPrivateProfileStringA@24 004a60cc     kernel32:KERNEL32.dll
 0005:000000d0       __imp__GetPrivateProfileIntA@16 004a60d0     kernel32:KERNEL32.dll
 0005:000000d4       __imp__GetModuleFileNameA@12 004a60d4     kernel32:KERNEL32.dll
 0005:000000d8       __imp__GetWindowsDirectoryA@8 004a60d8     kernel32:KERNEL32.dll
 0005:000000dc       __imp__GetModuleHandleW@4  004a60dc     kernel32:KERNEL32.dll
 0005:000000e0       \177KERNEL32_NULL_THUNK_DATA 004a60e0     kernel32:KERNEL32.dll
 0005:00000120       __imp_?_Xout_of_range@std@@YAXPBD@Z 004a6120     msvcprtd:MSVCP120D.dll
 0005:00000124       __imp_??1_Lockit@std@@QAE@XZ 004a6124     msvcprtd:MSVCP120D.dll
 0005:00000128       __imp_?_Debug_message@std@@YAXPB_W0I@Z 004a6128     msvcprtd:MSVCP120D.dll
 0005:0000012c       __imp_??0_Container_base12@std@@QAE@XZ 004a612c     msvcprtd:MSVCP120D.dll
 0005:00000130       __imp_??1_Container_base12@std@@QAE@XZ 004a6130     msvcprtd:MSVCP120D.dll
 0005:00000134       __imp_?_Getpfirst@_Container_base12@std@@QBEPAPAU_Iterator_base12@2@XZ 004a6134     msvcprtd:MSVCP120D.dll
 0005:00000138       __imp_?_Winerror_map@std@@YAPBDH@Z 004a6138     msvcprtd:MSVCP120D.dll
 0005:0000013c       __imp_?_Syserror_map@std@@YAPBDH@Z 004a613c     msvcprtd:MSVCP120D.dll
 0005:00000140       __imp_??0id@locale@std@@QAE@I@Z 004a6140     msvcprtd:MSVCP120D.dll
 0005:00000144       __imp_??0_Lockit@std@@QAE@H@Z 004a6144     msvcprtd:MSVCP120D.dll
 0005:00000148       __imp_?_Xlength_error@std@@YAXPBD@Z 004a6148     msvcprtd:MSVCP120D.dll
 0005:0000014c       __imp_?_Xbad_alloc@std@@YAXXZ 004a614c     msvcprtd:MSVCP120D.dll
 0005:00000150       __imp_?_Orphan_all@_Container_base12@std@@QAEXXZ 004a6150     msvcprtd:MSVCP120D.dll
 0005:00000154       \177MSVCP120D_NULL_THUNK_DATA 004a6154     msvcprtd:MSVCP120D.dll
 0005:00000188       __imp__strcpy              004a6188     MSVCRTD:MSVCR120D.dll
 0005:0000018c       __imp___invalid_parameter  004a618c     MSVCRTD:MSVCR120D.dll
 0005:00000190       __imp____CxxFrameHandler3  004a6190     MSVCRTD:MSVCR120D.dll
 0005:00000194       __imp_??3@YAXPAX@Z         004a6194     MSVCRTD:MSVCR120D.dll
 0005:00000198       __imp___calloc_dbg         004a6198     MSVCRTD:MSVCR120D.dll
 0005:0000019c       __imp__strcat              004a619c     MSVCRTD:MSVCR120D.dll
 0005:000001a0       __imp___wsplitpath_s       004a61a0     MSVCRTD:MSVCR120D.dll
 0005:000001a4       __imp___wmakepath_s        004a61a4     MSVCRTD:MSVCR120D.dll
 0005:000001a8       __imp__wcscpy_s            004a61a8     MSVCRTD:MSVCR120D.dll
 0005:000001ac       __imp___controlfp_s        004a61ac     MSVCRTD:MSVCR120D.dll
 0005:000001b0       __imp___invoke_watson      004a61b0     MSVCRTD:MSVCR120D.dll
 0005:000001b4       __imp____crtSetUnhandledExceptionFilter 004a61b4     MSVCRTD:MSVCR120D.dll
 0005:000001b8       __imp___except_handler4_common 004a61b8     MSVCRTD:MSVCR120D.dll
 0005:000001bc       __imp____crtTerminateProcess 004a61bc     MSVCRTD:MSVCR120D.dll
 0005:000001c0       __imp____crtUnhandledException 004a61c0     MSVCRTD:MSVCR120D.dll
 0005:000001c4       __imp___crt_debugger_hook  004a61c4     MSVCRTD:MSVCR120D.dll
 0005:000001c8       __imp___commode            004a61c8     MSVCRTD:MSVCR120D.dll
 0005:000001cc       __imp___fmode              004a61cc     MSVCRTD:MSVCR120D.dll
 0005:000001d0       __imp___acmdln             004a61d0     MSVCRTD:MSVCR120D.dll
 0005:000001d4       __imp___initterm           004a61d4     MSVCRTD:MSVCR120D.dll
 0005:000001d8       __imp___initterm_e         004a61d8     MSVCRTD:MSVCR120D.dll
 0005:000001dc       __imp____setusermatherr    004a61dc     MSVCRTD:MSVCR120D.dll
 0005:000001e0       __imp___configthreadlocale 004a61e0     MSVCRTD:MSVCR120D.dll
 0005:000001e4       __imp___ismbblead          004a61e4     MSVCRTD:MSVCR120D.dll
 0005:000001e8       __imp___cexit              004a61e8     MSVCRTD:MSVCR120D.dll
 0005:000001ec       __imp___exit               004a61ec     MSVCRTD:MSVCR120D.dll
 0005:000001f0       __imp__exit                004a61f0     MSVCRTD:MSVCR120D.dll
 0005:000001f4       __imp___CrtSetCheckCount   004a61f4     MSVCRTD:MSVCR120D.dll
 0005:000001f8       __imp____set_app_type      004a61f8     MSVCRTD:MSVCR120D.dll
 0005:000001fc       __imp____getmainargs       004a61fc     MSVCRTD:MSVCR120D.dll
 0005:00000200       __imp___amsg_exit          004a6200     MSVCRTD:MSVCR120D.dll
 0005:00000204       __imp____crtGetShowWindowMode 004a6204     MSVCRTD:MSVCR120D.dll
 0005:00000208       __imp___XcptFilter         004a6208     MSVCRTD:MSVCR120D.dll
 0005:0000020c       __imp_?terminate@@YAXXZ    004a620c     MSVCRTD:MSVCR120D.dll
 0005:00000210       __imp___onexit             004a6210     MSVCRTD:MSVCR120D.dll
 0005:00000214       __imp____dllonexit         004a6214     MSVCRTD:MSVCR120D.dll
 0005:00000218       __imp__strlen              004a6218     MSVCRTD:MSVCR120D.dll
 0005:0000021c       __imp___unlock             004a621c     MSVCRTD:MSVCR120D.dll
 0005:00000220       __imp___lock               004a6220     MSVCRTD:MSVCR120D.dll
 0005:00000224       __imp_??1type_info@@UAE@XZ 004a6224     MSVCRTD:MSVCR120D.dll
 0005:00000228       __imp___CRT_RTC_INITW      004a6228     MSVCRTD:MSVCR120D.dll
 0005:0000022c       __imp__sscanf              004a622c     MSVCRTD:MSVCR120D.dll
 0005:00000230       __imp__malloc              004a6230     MSVCRTD:MSVCR120D.dll
 0005:00000234       __imp__free                004a6234     MSVCRTD:MSVCR120D.dll
 0005:00000238       __imp__strpbrk             004a6238     MSVCRTD:MSVCR120D.dll
 0005:0000023c       __imp__fputs               004a623c     MSVCRTD:MSVCR120D.dll
 0005:00000240       __imp__fopen_s             004a6240     MSVCRTD:MSVCR120D.dll
 0005:00000244       __imp__fopen               004a6244     MSVCRTD:MSVCR120D.dll
 0005:00000248       __imp__fgets               004a6248     MSVCRTD:MSVCR120D.dll
 0005:0000024c       __imp__fclose              004a624c     MSVCRTD:MSVCR120D.dll
 0005:00000250       __imp__strncmp             004a6250     MSVCRTD:MSVCR120D.dll
 0005:00000254       __imp__strchr              004a6254     MSVCRTD:MSVCR120D.dll
 0005:00000258       __imp__memcmp              004a6258     MSVCRTD:MSVCR120D.dll
 0005:0000025c       __imp__strncpy             004a625c     MSVCRTD:MSVCR120D.dll
 0005:00000260       __imp___stricmp            004a6260     MSVCRTD:MSVCR120D.dll
 0005:00000264       __imp__memmove             004a6264     MSVCRTD:MSVCR120D.dll
 0005:00000268       __imp__memset              004a6268     MSVCRTD:MSVCR120D.dll
 0005:0000026c       __imp__memcpy              004a626c     MSVCRTD:MSVCR120D.dll
 0005:00000270       __imp___purecall           004a6270     MSVCRTD:MSVCR120D.dll
 0005:00000274       __imp__atoi                004a6274     MSVCRTD:MSVCR120D.dll
 0005:00000278       __imp__strcmp              004a6278     MSVCRTD:MSVCR120D.dll
 0005:0000027c       __imp___CxxThrowException@8 004a627c     MSVCRTD:MSVCR120D.dll
 0005:00000280       __imp___CrtDbgReportW      004a6280     MSVCRTD:MSVCR120D.dll
 0005:00000284       __imp_??_U@YAPAXI@Z        004a6284     MSVCRTD:MSVCR120D.dll
 0005:00000288       __imp_??_V@YAXPAX@Z        004a6288     MSVCRTD:MSVCR120D.dll
 0005:0000028c       __imp___hypot              004a628c     MSVCRTD:MSVCR120D.dll
 0005:00000290       __imp___putenv             004a6290     MSVCRTD:MSVCR120D.dll
 0005:00000294       __imp__getenv              004a6294     MSVCRTD:MSVCR120D.dll
 0005:00000298       __imp__sprintf             004a6298     MSVCRTD:MSVCR120D.dll
 0005:0000029c       __imp__strstr              004a629c     MSVCRTD:MSVCR120D.dll
 0005:000002a0       __imp___strlwr             004a62a0     MSVCRTD:MSVCR120D.dll
 0005:000002a4       __imp_??2@YAPAXI@Z         004a62a4     MSVCRTD:MSVCR120D.dll
 0005:000002a8       \177MSVCR120D_NULL_THUNK_DATA 004a62a8     MSVCRTD:MSVCR120D.dll
 0005:0000030c       __imp__CreateWindowExA@48  004a630c     user32:USER32.dll
 0005:00000310       __imp__RegisterClassExA@4  004a6310     user32:USER32.dll
 0005:00000314       __imp__DefWindowProcA@16   004a6314     user32:USER32.dll
 0005:00000318       __imp__SendMessageA@16     004a6318     user32:USER32.dll
 0005:0000031c       __imp__DestroyWindow@4     004a631c     user32:USER32.dll
 0005:00000320       __imp__GetWindowLongA@8    004a6320     user32:USER32.dll
 0005:00000324       __imp__wsprintfA           004a6324     user32:USER32.dll
 0005:00000328       __imp__SetWindowLongA@12   004a6328     user32:USER32.dll
 0005:0000032c       \177USER32_NULL_THUNK_DATA 004a632c     user32:USER32.dll
 0005:0000035c       __imp__GetFileVersionInfoA@16 004a635c     version:VERSION.dll
 0005:00000360       __imp__VerQueryValueA@16   004a6360     version:VERSION.dll
 0005:00000364       __imp__GetFileVersionInfoSizeA@8 004a6364     version:VERSION.dll
 0005:00000368       \177VERSION_NULL_THUNK_DATA 004a6368     version:VERSION.dll
 0005:00000394       __imp__htonl@4             004a6394     wsock32:WSOCK32.dll
 0005:00000398       __imp__gethostbyname@4     004a6398     wsock32:WSOCK32.dll
 0005:0000039c       \177WSOCK32_NULL_THUNK_DATA 004a639c     wsock32:WSOCK32.dll
 0005:000003c8       __imp_?mousePressEvent@QButton@@MAEXPAVQMouseEvent@@@Z 004a63c8     qt-mt323:qt-mt323.dll
 0005:000003cc       __imp_?mousePressEvent@QWidget@@MAEXPAVQMouseEvent@@@Z 004a63cc     qt-mt323:qt-mt323.dll
 0005:000003d0       __imp_?mouseReleaseEvent@QButton@@MAEXPAVQMouseEvent@@@Z 004a63d0     qt-mt323:qt-mt323.dll
 0005:000003d4       __imp_?mouseReleaseEvent@QWidget@@MAEXPAVQMouseEvent@@@Z 004a63d4     qt-mt323:qt-mt323.dll
 0005:000003d8       __imp_?move@QDialog@@UAEXHH@Z 004a63d8     qt-mt323:qt-mt323.dll
 0005:000003dc       __imp_?move@QPushButton@@UAEXHH@Z 004a63dc     qt-mt323:qt-mt323.dll
 0005:000003e0       __imp_?move@QWidget@@UAEXHH@Z 004a63e0     qt-mt323:qt-mt323.dll
 0005:000003e4       __imp_?moveEvent@QWidget@@MAEXPAVQMoveEvent@@@Z 004a63e4     qt-mt323:qt-mt323.dll
 0005:000003e8       __imp_?paintEvent@QButton@@MAEXPAVQPaintEvent@@@Z 004a63e8     qt-mt323:qt-mt323.dll
 0005:000003ec       __imp_?paintEvent@QFrame@@MAEXPAVQPaintEvent@@@Z 004a63ec     qt-mt323:qt-mt323.dll
 0005:000003f0       __imp_?paintEvent@QWidget@@MAEXPAVQPaintEvent@@@Z 004a63f0     qt-mt323:qt-mt323.dll
 0005:000003f4       __imp_?paletteChange@QWidget@@MAEXABVQPalette@@@Z 004a63f4     qt-mt323:qt-mt323.dll
 0005:000003f8       __imp_?polish@QWidget@@UAEXXZ 004a63f8     qt-mt323:qt-mt323.dll
 0005:000003fc       __imp_?property@QObject@@UBE?AVQVariant@@PBD@Z 004a63fc     qt-mt323:qt-mt323.dll
 0005:00000400       __imp_?qt_cast@QFrame@@UAEPAXPBD@Z 004a6400     qt-mt323:qt-mt323.dll
 0005:00000404       __imp_?qt_cast@QHBoxLayout@@UAEPAXPBD@Z 004a6404     qt-mt323:qt-mt323.dll
 0005:00000408       __imp_?qt_cast@QLabel@@UAEPAXPBD@Z 004a6408     qt-mt323:qt-mt323.dll
 0005:0000040c       __imp_?qt_cast@QPushButton@@UAEPAXPBD@Z 004a640c     qt-mt323:qt-mt323.dll
 0005:00000410       __imp_?qt_cast@QVBoxLayout@@UAEPAXPBD@Z 004a6410     qt-mt323:qt-mt323.dll
 0005:00000414       __imp_?qt_emit@QFrame@@UAE_NHPAUQUObject@@@Z 004a6414     qt-mt323:qt-mt323.dll
 0005:00000418       __imp_?qt_emit@QHBoxLayout@@UAE_NHPAUQUObject@@@Z 004a6418     qt-mt323:qt-mt323.dll
 0005:0000041c       __imp_?qt_emit@QLabel@@UAE_NHPAUQUObject@@@Z 004a641c     qt-mt323:qt-mt323.dll
 0005:00000420       __imp_?qt_emit@QPushButton@@UAE_NHPAUQUObject@@@Z 004a6420     qt-mt323:qt-mt323.dll
 0005:00000424       __imp_?qt_emit@QVBoxLayout@@UAE_NHPAUQUObject@@@Z 004a6424     qt-mt323:qt-mt323.dll
 0005:00000428       __imp_?qt_invoke@QFrame@@UAE_NHPAUQUObject@@@Z 004a6428     qt-mt323:qt-mt323.dll
 0005:0000042c       __imp_?qt_invoke@QHBoxLayout@@UAE_NHPAUQUObject@@@Z 004a642c     qt-mt323:qt-mt323.dll
 0005:00000430       __imp_?qt_invoke@QLabel@@UAE_NHPAUQUObject@@@Z 004a6430     qt-mt323:qt-mt323.dll
 0005:00000434       __imp_?qt_invoke@QPushButton@@UAE_NHPAUQUObject@@@Z 004a6434     qt-mt323:qt-mt323.dll
 0005:00000438       __imp_?qt_invoke@QVBoxLayout@@UAE_NHPAUQUObject@@@Z 004a6438     qt-mt323:qt-mt323.dll
 0005:0000043c       __imp_?qt_property@QFrame@@UAE_NHHPAVQVariant@@@Z 004a643c     qt-mt323:qt-mt323.dll
 0005:00000440       __imp_?qt_property@QHBoxLayout@@UAE_NHHPAVQVariant@@@Z 004a6440     qt-mt323:qt-mt323.dll
 0005:00000444       __imp_?qt_property@QLabel@@UAE_NHHPAVQVariant@@@Z 004a6444     qt-mt323:qt-mt323.dll
 0005:00000448       __imp_?qt_property@QPushButton@@UAE_NHHPAVQVariant@@@Z 004a6448     qt-mt323:qt-mt323.dll
 0005:0000044c       __imp_?qt_property@QVBoxLayout@@UAE_NHHPAVQVariant@@@Z 004a644c     qt-mt323:qt-mt323.dll
 0005:00000450       __imp_?reject@QDialog@@MAEXXZ 004a6450     qt-mt323:qt-mt323.dll
 0005:00000454       __imp_?removeChild@QObject@@UAEXPAV1@@Z 004a6454     qt-mt323:qt-mt323.dll
 0005:00000458       __imp_?reparent@QWidget@@UAEXPAV1@IABVQPoint@@_N@Z 004a6458     qt-mt323:qt-mt323.dll
 0005:0000045c       __imp_?resize@QDialog@@UAEXHH@Z 004a645c     qt-mt323:qt-mt323.dll
 0005:00000460       __imp_?resize@QPushButton@@UAEXHH@Z 004a6460     qt-mt323:qt-mt323.dll
 0005:00000464       __imp_?resize@QWidget@@UAEXHH@Z 004a6464     qt-mt323:qt-mt323.dll
 0005:00000468       __imp_?resizeEvent@QDialog@@MAEXPAVQResizeEvent@@@Z 004a6468     qt-mt323:qt-mt323.dll
 0005:0000046c       __imp_?resizeEvent@QFrame@@MAEXPAVQResizeEvent@@@Z 004a646c     qt-mt323:qt-mt323.dll
 0005:00000470       __imp_?resizeEvent@QLabel@@MAEXPAVQResizeEvent@@@Z 004a6470     qt-mt323:qt-mt323.dll
 0005:00000474       __imp_?resizeEvent@QPushButton@@MAEXPAVQResizeEvent@@@Z 004a6474     qt-mt323:qt-mt323.dll
 0005:00000478       __imp_?resolution@QPaintDevice@@UBEHXZ 004a6478     qt-mt323:qt-mt323.dll
 0005:0000047c       __imp_?setAccel@QButton@@UAEXABVQKeySequence@@@Z 004a647c     qt-mt323:qt-mt323.dll
 0005:00000480       __imp_?setAcceptDrops@QWidget@@UAEX_N@Z 004a6480     qt-mt323:qt-mt323.dll
 0005:00000484       __imp_?setActiveWindow@QWidget@@UAEXXZ 004a6484     qt-mt323:qt-mt323.dll
 0005:00000488       __imp_?setAlignment@QLabel@@UAEXH@Z 004a6488     qt-mt323:qt-mt323.dll
 0005:0000048c       __imp_?setAlignment@QLayoutItem@@UAEXH@Z 004a648c     qt-mt323:qt-mt323.dll
 0005:00000490       __imp_?setAutoAdd@QLayout@@UAEX_N@Z 004a6490     qt-mt323:qt-mt323.dll
 0005:00000494       __imp_?setAutoDefault@QPushButton@@UAEX_N@Z 004a6494     qt-mt323:qt-mt323.dll
 0005:00000498       __imp_?setAutoMask@QWidget@@UAEX_N@Z 004a6498     qt-mt323:qt-mt323.dll
 0005:0000049c       __imp_?setAutoRepeat@QButton@@UAEX_N@Z 004a649c     qt-mt323:qt-mt323.dll
 0005:000004a0       __imp_?setAutoResize@QLabel@@UAEX_N@Z 004a64a0     qt-mt323:qt-mt323.dll
 0005:000004a4       __imp_?setBackgroundColor@QWidget@@UAEXABVQColor@@@Z 004a64a4     qt-mt323:qt-mt323.dll
 0005:000004a8       __imp_?setBackgroundMode@QWidget@@UAEXW4BackgroundMode@Qt@@@Z 004a64a8     qt-mt323:qt-mt323.dll
 0005:000004ac       __imp_?setBackgroundOrigin@QWidget@@UAEXW4BackgroundOrigin@1@@Z 004a64ac     qt-mt323:qt-mt323.dll
 0005:000004b0       __imp_?setBackgroundPixmap@QWidget@@UAEXABVQPixmap@@@Z 004a64b0     qt-mt323:qt-mt323.dll
 0005:000004b4       __imp_?setBuddy@QLabel@@UAEXPAVQWidget@@@Z 004a64b4     qt-mt323:qt-mt323.dll
 0005:000004b8       __imp_?setCaption@QWidget@@UAEXABVQString@@@Z 004a64b8     qt-mt323:qt-mt323.dll
 0005:000004bc       __imp_?setCursor@QWidget@@UAEXABVQCursor@@@Z 004a64bc     qt-mt323:qt-mt323.dll
 0005:000004c0       __imp_?setDefault@QPushButton@@UAEX_N@Z 004a64c0     qt-mt323:qt-mt323.dll
 0005:000004c4       __imp_?setDown@QButton@@UAEX_N@Z 004a64c4     qt-mt323:qt-mt323.dll
 0005:000004c8       __imp_?setEnabled@QWidget@@UAEX_N@Z 004a64c8     qt-mt323:qt-mt323.dll
 0005:000004cc       __imp_?setEraseColor@QWidget@@UAEXABVQColor@@@Z 004a64cc     qt-mt323:qt-mt323.dll
 0005:000004d0       __imp_?setErasePixmap@QWidget@@UAEXABVQPixmap@@@Z 004a64d0     qt-mt323:qt-mt323.dll
 0005:000004d4       __imp_?setFocus@QWidget@@UAEXXZ 004a64d4     qt-mt323:qt-mt323.dll
 0005:000004d8       __imp_?setFocusPolicy@QWidget@@UAEXW4FocusPolicy@1@@Z 004a64d8     qt-mt323:qt-mt323.dll
 0005:000004dc       __imp_?setFocusProxy@QWidget@@UAEXPAV1@@Z 004a64dc     qt-mt323:qt-mt323.dll
 0005:000004e0       __imp_?setFont@QLabel@@UAEXABVQFont@@@Z 004a64e0     qt-mt323:qt-mt323.dll
 0005:000004e4       __imp_?setFont@QWidget@@UAEXABVQFont@@@Z 004a64e4     qt-mt323:qt-mt323.dll
 0005:000004e8       __imp_?setFrameRect@QFrame@@UAEXABVQRect@@@Z 004a64e8     qt-mt323:qt-mt323.dll
 0005:000004ec       __imp_?setFrameStyle@QFrame@@UAEXH@Z 004a64ec     qt-mt323:qt-mt323.dll
 0005:000004f0       __imp_?setGeometry@QBoxLayout@@UAEXABVQRect@@@Z 004a64f0     qt-mt323:qt-mt323.dll
 0005:000004f4       __imp_?setGeometry@QDialog@@UAEXABVQRect@@@Z 004a64f4     qt-mt323:qt-mt323.dll
 0005:000004f8       __imp_?setGeometry@QDialog@@UAEXHHHH@Z 004a64f8     qt-mt323:qt-mt323.dll
 0005:000004fc       __imp_?setGeometry@QPushButton@@UAEXABVQRect@@@Z 004a64fc     qt-mt323:qt-mt323.dll
 0005:00000500       __imp_?setGeometry@QPushButton@@UAEXHHHH@Z 004a6500     qt-mt323:qt-mt323.dll
 0005:00000504       __imp_?setGeometry@QSpacerItem@@UAEXABVQRect@@@Z 004a6504     qt-mt323:qt-mt323.dll
 0005:00000508       __imp_?setGeometry@QWidget@@UAEXABVQRect@@@Z 004a6508     qt-mt323:qt-mt323.dll
 0005:0000050c       __imp_?setGeometry@QWidget@@UAEXHHHH@Z 004a650c     qt-mt323:qt-mt323.dll
 0005:00000510       __imp_?setGroup@QButton@@EAEXPAVQButtonGroup@@@Z 004a6510     qt-mt323:qt-mt323.dll
 0005:00000514       __imp_?setIcon@QWidget@@UAEXABVQPixmap@@@Z 004a6514     qt-mt323:qt-mt323.dll
 0005:00000518       __imp_?setIconText@QWidget@@UAEXABVQString@@@Z 004a6518     qt-mt323:qt-mt323.dll
 0005:0000051c       __imp_?setIsMenuButton@QPushButton@@UAEX_N@Z 004a651c     qt-mt323:qt-mt323.dll
 0005:00000520       __imp_?setKeyCompression@QWidget@@MAEX_N@Z 004a6520     qt-mt323:qt-mt323.dll
 0005:00000524       __imp_?setLineWidth@QFrame@@UAEXH@Z 004a6524     qt-mt323:qt-mt323.dll
 0005:00000528       __imp_?setMargin@QFrame@@UAEXH@Z 004a6528     qt-mt323:qt-mt323.dll
 0005:0000052c       __imp_?setMargin@QLayout@@UAEXH@Z 004a652c     qt-mt323:qt-mt323.dll
 0005:00000530       __imp_?setMask@QWidget@@UAEXABVQBitmap@@@Z 004a6530     qt-mt323:qt-mt323.dll
 0005:00000534       __imp_?setMask@QWidget@@UAEXABVQRegion@@@Z 004a6534     qt-mt323:qt-mt323.dll
 0005:00000538       __imp_?setMaximumSize@QWidget@@UAEXHH@Z 004a6538     qt-mt323:qt-mt323.dll
 0005:0000053c       __imp_?setMenuBar@QLayout@@UAEXPAVQMenuBar@@@Z 004a653c     qt-mt323:qt-mt323.dll
 0005:00000540       __imp_?setMicroFocusHint@QWidget@@MAEXHHHH_NPAVQFont@@@Z 004a6540     qt-mt323:qt-mt323.dll
 0005:00000544       __imp_?setMidLineWidth@QFrame@@UAEXH@Z 004a6544     qt-mt323:qt-mt323.dll
 0005:00000548       __imp_?setMinimumSize@QWidget@@UAEXHH@Z 004a6548     qt-mt323:qt-mt323.dll
 0005:0000054c       __imp_?setMouseTracking@QWidget@@UAEX_N@Z 004a654c     qt-mt323:qt-mt323.dll
 0005:00000550       __imp_?setMovie@QLabel@@UAEXABVQMovie@@@Z 004a6550     qt-mt323:qt-mt323.dll
 0005:00000554       __imp_?setName@QObject@@UAEXPBD@Z 004a6554     qt-mt323:qt-mt323.dll
 0005:00000558       __imp_?setNum@QLabel@@UAEXH@Z 004a6558     qt-mt323:qt-mt323.dll
 0005:0000055c       __imp_?setNum@QLabel@@UAEXN@Z 004a655c     qt-mt323:qt-mt323.dll
 0005:00000560       __imp_?setOn@QPushButton@@UAEX_N@Z 004a6560     qt-mt323:qt-mt323.dll
 0005:00000564       __imp_?setPalette@QWidget@@UAEXABVQPalette@@@Z 004a6564     qt-mt323:qt-mt323.dll
 0005:00000568       __imp_?setPaletteBackgroundColor@QWidget@@UAEXABVQColor@@@Z 004a6568     qt-mt323:qt-mt323.dll
 0005:0000056c       __imp_?setPaletteBackgroundPixmap@QWidget@@UAEXABVQPixmap@@@Z 004a656c     qt-mt323:qt-mt323.dll
 0005:00000570       __imp_?setPicture@QLabel@@UAEXABVQPicture@@@Z 004a6570     qt-mt323:qt-mt323.dll
 0005:00000574       __imp_?setPixmap@QButton@@UAEXABVQPixmap@@@Z 004a6574     qt-mt323:qt-mt323.dll
 0005:00000578       __imp_?setPixmap@QLabel@@UAEXABVQPixmap@@@Z 004a6578     qt-mt323:qt-mt323.dll
 0005:0000057c       __imp_?setProperty@QObject@@UAE_NPBDABVQVariant@@@Z 004a657c     qt-mt323:qt-mt323.dll
 0005:00000580       __imp_?setResolution@QPaintDevice@@UAEXH@Z 004a6580     qt-mt323:qt-mt323.dll
 0005:00000584       __imp_?setSizeIncrement@QWidget@@UAEXHH@Z 004a6584     qt-mt323:qt-mt323.dll
 0005:00000588       __imp_?setSizePolicy@QWidget@@UAEXVQSizePolicy@@@Z 004a6588     qt-mt323:qt-mt323.dll
 0005:0000058c       __imp_?setSpacing@QLayout@@UAEXH@Z 004a658c     qt-mt323:qt-mt323.dll
 0005:00000590       __imp_?setState@QButton@@MAEXW4ToggleState@1@@Z 004a6590     qt-mt323:qt-mt323.dll
 0005:00000594       __imp_?setText@QButton@@UAEXABVQString@@@Z 004a6594     qt-mt323:qt-mt323.dll
 0005:00000598       __imp_?setText@QLabel@@UAEXABVQString@@@Z 004a6598     qt-mt323:qt-mt323.dll
 0005:0000059c       __imp_?setToggleType@QButton@@MAEXW4ToggleType@1@@Z 004a659c     qt-mt323:qt-mt323.dll
 0005:000005a0       __imp_?setUpdatesEnabled@QWidget@@UAEX_N@Z 004a65a0     qt-mt323:qt-mt323.dll
 0005:000005a4       __imp_?setWFlags@QWidget@@MAEXI@Z 004a65a4     qt-mt323:qt-mt323.dll
 0005:000005a8       __imp_?setWState@QWidget@@MAEXI@Z 004a65a8     qt-mt323:qt-mt323.dll
 0005:000005ac       __imp_?show@QDialog@@UAEXXZ 004a65ac     qt-mt323:qt-mt323.dll
 0005:000005b0       __imp_?show@QWidget@@UAEXXZ 004a65b0     qt-mt323:qt-mt323.dll
 0005:000005b4       __imp_?showEvent@QWidget@@MAEXPAVQShowEvent@@@Z 004a65b4     qt-mt323:qt-mt323.dll
 0005:000005b8       __imp_?showMaximized@QWidget@@UAEXXZ 004a65b8     qt-mt323:qt-mt323.dll
 0005:000005bc       __imp_?showMinimized@QWidget@@UAEXXZ 004a65bc     qt-mt323:qt-mt323.dll
 0005:000005c0       __imp_?showNormal@QWidget@@UAEXXZ 004a65c0     qt-mt323:qt-mt323.dll
 0005:000005c4       __imp_?sizeHint@QBoxLayout@@UBE?AVQSize@@XZ 004a65c4     qt-mt323:qt-mt323.dll
 0005:000005c8       __imp_?sizeHint@QDialog@@UBE?AVQSize@@XZ 004a65c8     qt-mt323:qt-mt323.dll
 0005:000005cc       __imp_?sizeHint@QFrame@@UBE?AVQSize@@XZ 004a65cc     qt-mt323:qt-mt323.dll
 0005:000005d0       __imp_?sizeHint@QLabel@@UBE?AVQSize@@XZ 004a65d0     qt-mt323:qt-mt323.dll
 0005:000005d4       __imp_?sizeHint@QPushButton@@UBE?AVQSize@@XZ 004a65d4     qt-mt323:qt-mt323.dll
 0005:000005d8       __imp_?sizeHint@QSpacerItem@@UBE?AVQSize@@XZ 004a65d8     qt-mt323:qt-mt323.dll
 0005:000005dc       __imp_?sizePolicy@QWidget@@UBE?AVQSizePolicy@@XZ 004a65dc     qt-mt323:qt-mt323.dll
 0005:000005e0       __imp_?spacerItem@QLayoutItem@@UAEPAVQSpacerItem@@XZ 004a65e0     qt-mt323:qt-mt323.dll
 0005:000005e4       __imp_?spacerItem@QSpacerItem@@UAEPAV1@XZ 004a65e4     qt-mt323:qt-mt323.dll
 0005:000005e8       __imp_?styleChange@QFrame@@MAEXAAVQStyle@@@Z 004a65e8     qt-mt323:qt-mt323.dll
 0005:000005ec       __imp_?styleChange@QWidget@@MAEXAAVQStyle@@@Z 004a65ec     qt-mt323:qt-mt323.dll
 0005:000005f0       __imp_?tabletEvent@QWidget@@MAEXPAVQTabletEvent@@@Z 004a65f0     qt-mt323:qt-mt323.dll
 0005:000005f4       __imp_?timerEvent@QObject@@MAEXPAVQTimerEvent@@@Z 004a65f4     qt-mt323:qt-mt323.dll
 0005:000005f8       __imp_?unsetCursor@QWidget@@UAEXXZ 004a65f8     qt-mt323:qt-mt323.dll
 0005:000005fc       __imp_?updateMask@QPushButton@@MAEXXZ 004a65fc     qt-mt323:qt-mt323.dll
 0005:00000600       __imp_?updateMask@QWidget@@MAEXXZ 004a6600     qt-mt323:qt-mt323.dll
 0005:00000604       __imp_?wheelEvent@QWidget@@MAEXPAVQWheelEvent@@@Z 004a6604     qt-mt323:qt-mt323.dll
 0005:00000608       __imp_?widget@QLayoutItem@@UAEPAVQWidget@@XZ 004a6608     qt-mt323:qt-mt323.dll
 0005:0000060c       __imp_?winEvent@QWidget@@MAE_NPAUtagMSG@@@Z 004a660c     qt-mt323:qt-mt323.dll
 0005:00000610       __imp_?windowActivationChange@QWidget@@MAEX_N@Z 004a6610     qt-mt323:qt-mt323.dll
 0005:00000614       __imp_?null@QString@@2V1@A 004a6614     qt-mt323:qt-mt323.dll
 0005:00000618       __imp_??0QString@@QAE@PBD@Z 004a6618     qt-mt323:qt-mt323.dll
 0005:0000061c       __imp_?arg@QString@@QBE?AV1@ABV1@H@Z 004a661c     qt-mt323:qt-mt323.dll
 0005:00000620       __imp_?argv@QApplication@@QBEPAPADXZ 004a6620     qt-mt323:qt-mt323.dll
 0005:00000624       __imp_?qApp@@3PAVQApplication@@A 004a6624     qt-mt323:qt-mt323.dll
 0005:00000628       __imp_??0QWidget@@QAE@PAV0@PBDI@Z 004a6628     qt-mt323:qt-mt323.dll
 0005:0000062c       __imp_??1QWidget@@UAE@XZ   004a662c     qt-mt323:qt-mt323.dll
 0005:00000630       __imp_?resize@QWidget@@QAEXABVQSize@@@Z 004a6630     qt-mt323:qt-mt323.dll
 0005:00000634       __imp_??0QMainWindow@@QAE@PAVQWidget@@PBDI@Z 004a6634     qt-mt323:qt-mt323.dll
 0005:00000638       __imp_??1QMainWindow@@UAE@XZ 004a6638     qt-mt323:qt-mt323.dll
 0005:0000063c       __imp_?statusBar@QMainWindow@@QBEPAVQStatusBar@@XZ 004a663c     qt-mt323:qt-mt323.dll
 0005:00000640       __imp_?setCentralWidget@QMainWindow@@UAEXPAVQWidget@@@Z 004a6640     qt-mt323:qt-mt323.dll
 0005:00000644       __imp_?centralWidget@QMainWindow@@QBEPAVQWidget@@XZ 004a6644     qt-mt323:qt-mt323.dll
 0005:00000648       __imp_?minimumSizeHint@QMainWindow@@UBE?AVQSize@@XZ 004a6648     qt-mt323:qt-mt323.dll
 0005:0000064c       __imp_??0QKeySequence@@QAE@ABVQString@@@Z 004a664c     qt-mt323:qt-mt323.dll
 0005:00000650       __imp_??1QKeySequence@@QAE@XZ 004a6650     qt-mt323:qt-mt323.dll
 0005:00000654       __imp_??0QTextEdit@@QAE@PAVQWidget@@PBD@Z 004a6654     qt-mt323:qt-mt323.dll
 0005:00000658       __imp_??1QTextEdit@@UAE@XZ 004a6658     qt-mt323:qt-mt323.dll
 0005:0000065c       __imp_??0QGridLayout@@QAE@PAVQWidget@@HHHHPBD@Z 004a665c     qt-mt323:qt-mt323.dll
 0005:00000660       __imp_??1QGridLayout@@UAE@XZ 004a6660     qt-mt323:qt-mt323.dll
 0005:00000664       __imp_?addWidget@QGridLayout@@QAEXPAVQWidget@@HHH@Z 004a6664     qt-mt323:qt-mt323.dll
 0005:00000668       __imp_??0QAction@@QAE@PAVQObject@@PBD@Z 004a6668     qt-mt323:qt-mt323.dll
 0005:0000066c       __imp_??1QAction@@UAE@XZ   004a666c     qt-mt323:qt-mt323.dll
 0005:00000670       __imp_?setText@QMenuItem@@QAEXABVQString@@@Z 004a6670     qt-mt323:qt-mt323.dll
 0005:00000674       __imp_?insertItem@QMenuData@@QAEHABVQString@@PAVQPopupMenu@@HH@Z 004a6674     qt-mt323:qt-mt323.dll
 0005:00000678       __imp_?findItem@QMenuData@@QBEPAVQMenuItem@@H@Z 004a6678     qt-mt323:qt-mt323.dll
 0005:0000067c       __imp_??0QPopupMenu@@QAE@PAVQWidget@@PBD@Z 004a667c     qt-mt323:qt-mt323.dll
 0005:00000680       __imp_??1QPopupMenu@@UAE@XZ 004a6680     qt-mt323:qt-mt323.dll
 0005:00000684       __imp_??0QMenuBar@@QAE@PAVQWidget@@PBD@Z 004a6684     qt-mt323:qt-mt323.dll
 0005:00000688       __imp_??1QMenuBar@@UAE@XZ  004a6688     qt-mt323:qt-mt323.dll
 0005:0000068c       __imp_?activateItemAt@QMenuBar@@UAEXH@Z 004a668c     qt-mt323:qt-mt323.dll
 0005:00000690       __imp_?activateItemAt@QPopupMenu@@UAEXH@Z 004a6690     qt-mt323:qt-mt323.dll
 0005:00000694       __imp_?addChild@QScrollView@@UAEXPAVQWidget@@HH@Z 004a6694     qt-mt323:qt-mt323.dll
 0005:00000698       __imp_?addDockWindow@QMainWindow@@UAEXPAVQDockWindow@@ABVQString@@W4Dock@Qt@@_N@Z 004a6698     qt-mt323:qt-mt323.dll
 0005:0000069c       __imp_?addDockWindow@QMainWindow@@UAEXPAVQDockWindow@@W4Dock@Qt@@_N@Z 004a669c     qt-mt323:qt-mt323.dll
 0005:000006a0       __imp_?addItem@QGridLayout@@UAEXPAVQLayoutItem@@@Z 004a66a0     qt-mt323:qt-mt323.dll
 0005:000006a4       __imp_?addTo@QAction@@UAE_NPAVQWidget@@@Z 004a66a4     qt-mt323:qt-mt323.dll
 0005:000006a8       __imp_?addedTo@QAction@@MAEXHPAVQPopupMenu@@@Z 004a66a8     qt-mt323:qt-mt323.dll
 0005:000006ac       __imp_?addedTo@QAction@@MAEXPAVQWidget@@0@Z 004a66ac     qt-mt323:qt-mt323.dll
 0005:000006b0       __imp_?append@QTextEdit@@UAEXABVQString@@@Z 004a66b0     qt-mt323:qt-mt323.dll
 0005:000006b4       __imp_?childEvent@QMainWindow@@MAEXPAVQChildEvent@@@Z 004a66b4     qt-mt323:qt-mt323.dll
 0005:000006b8       __imp_?className@QAction@@UBEPBDXZ 004a66b8     qt-mt323:qt-mt323.dll
 0005:000006bc       __imp_?className@QGridLayout@@UBEPBDXZ 004a66bc     qt-mt323:qt-mt323.dll
 0005:000006c0       __imp_?className@QMenuBar@@UBEPBDXZ 004a66c0     qt-mt323:qt-mt323.dll
 0005:000006c4       __imp_?className@QPopupMenu@@UBEPBDXZ 004a66c4     qt-mt323:qt-mt323.dll
 0005:000006c8       __imp_?className@QTextEdit@@UBEPBDXZ 004a66c8     qt-mt323:qt-mt323.dll
 0005:000006cc       __imp_?className@QWidget@@UBEPBDXZ 004a66cc     qt-mt323:qt-mt323.dll
 0005:000006d0       __imp_?clear@QTextEdit@@UAEXXZ 004a66d0     qt-mt323:qt-mt323.dll
 0005:000006d4       __imp_?clearParagraphBackground@QTextEdit@@UAEXH@Z 004a66d4     qt-mt323:qt-mt323.dll
 0005:000006d8       __imp_?closeEvent@QPopupMenu@@MAEXPAVQCloseEvent@@@Z 004a66d8     qt-mt323:qt-mt323.dll
 0005:000006dc       __imp_?contentsContextMenuEvent@QTextEdit@@MAEXPAVQContextMenuEvent@@@Z 004a66dc     qt-mt323:qt-mt323.dll
 0005:000006e0       __imp_?contentsDragEnterEvent@QTextEdit@@MAEXPAVQDragEnterEvent@@@Z 004a66e0     qt-mt323:qt-mt323.dll
 0005:000006e4       __imp_?contentsDragLeaveEvent@QTextEdit@@MAEXPAVQDragLeaveEvent@@@Z 004a66e4     qt-mt323:qt-mt323.dll
 0005:000006e8       __imp_?contentsDragMoveEvent@QTextEdit@@MAEXPAVQDragMoveEvent@@@Z 004a66e8     qt-mt323:qt-mt323.dll
 0005:000006ec       __imp_?contentsDropEvent@QTextEdit@@MAEXPAVQDropEvent@@@Z 004a66ec     qt-mt323:qt-mt323.dll
 0005:000006f0       __imp_?contentsMouseDoubleClickEvent@QTextEdit@@MAEXPAVQMouseEvent@@@Z 004a66f0     qt-mt323:qt-mt323.dll
 0005:000006f4       __imp_?contentsMouseMoveEvent@QTextEdit@@MAEXPAVQMouseEvent@@@Z 004a66f4     qt-mt323:qt-mt323.dll
 0005:000006f8       __imp_?contentsMousePressEvent@QTextEdit@@MAEXPAVQMouseEvent@@@Z 004a66f8     qt-mt323:qt-mt323.dll
 0005:000006fc       __imp_?contentsMouseReleaseEvent@QTextEdit@@MAEXPAVQMouseEvent@@@Z 004a66fc     qt-mt323:qt-mt323.dll
 0005:00000700       __imp_?contentsWheelEvent@QTextEdit@@MAEXPAVQWheelEvent@@@Z 004a6700     qt-mt323:qt-mt323.dll
 0005:00000704       __imp_?contextMenuEvent@QScrollView@@MAEXPAVQContextMenuEvent@@@Z 004a6704     qt-mt323:qt-mt323.dll
 0005:00000708       __imp_?copy@QTextEdit@@UAEXXZ 004a6708     qt-mt323:qt-mt323.dll
 0005:0000070c       __imp_?createPopupMenu@QTextEdit@@MAEPAVQPopupMenu@@ABVQPoint@@@Z 004a670c     qt-mt323:qt-mt323.dll
 0005:00000710       __imp_?createPopupMenu@QTextEdit@@MAEPAVQPopupMenu@@XZ 004a6710     qt-mt323:qt-mt323.dll
 0005:00000714       __imp_?customWhatsThis@QMenuBar@@UBE_NXZ 004a6714     qt-mt323:qt-mt323.dll
 0005:00000718       __imp_?customWhatsThis@QPopupMenu@@UBE_NXZ 004a6718     qt-mt323:qt-mt323.dll
 0005:0000071c       __imp_?customize@QMainWindow@@UAEXXZ 004a671c     qt-mt323:qt-mt323.dll
 0005:00000720       __imp_?cut@QTextEdit@@UAEXXZ 004a6720     qt-mt323:qt-mt323.dll
 0005:00000724       __imp_?del@QTextEdit@@UAEXXZ 004a6724     qt-mt323:qt-mt323.dll
 0005:00000728       __imp_?doChangeInterval@QTextEdit@@MAEXXZ 004a6728     qt-mt323:qt-mt323.dll
 0005:0000072c       __imp_?doKeyboardAction@QTextEdit@@UAEXW4KeyboardAction@1@@Z 004a672c     qt-mt323:qt-mt323.dll
 0005:00000730       __imp_?dockingArea@QMainWindow@@UAEPAVQDockArea@@ABVQPoint@@@Z 004a6730     qt-mt323:qt-mt323.dll
 0005:00000734       __imp_?drawContents@QMenuBar@@MAEXPAVQPainter@@@Z 004a6734     qt-mt323:qt-mt323.dll
 0005:00000738       __imp_?drawContents@QPopupMenu@@MAEXPAVQPainter@@@Z 004a6738     qt-mt323:qt-mt323.dll
 0005:0000073c       __imp_?drawContents@QTextEdit@@EAEXPAVQPainter@@@Z 004a673c     qt-mt323:qt-mt323.dll
 0005:00000740       __imp_?drawContents@QTextEdit@@MAEXPAVQPainter@@HHHH@Z 004a6740     qt-mt323:qt-mt323.dll
 0005:00000744       __imp_?drawContentsOffset@QScrollView@@MAEXPAVQPainter@@HHHHHH@Z 004a6744     qt-mt323:qt-mt323.dll
 0005:00000748       __imp_?emitHighlighted@QTextEdit@@EAEXABVQString@@@Z 004a6748     qt-mt323:qt-mt323.dll
 0005:0000074c       __imp_?emitLinkClicked@QTextEdit@@EAEXABVQString@@@Z 004a674c     qt-mt323:qt-mt323.dll
 0005:00000750       __imp_?enabledChange@QPopupMenu@@MAEX_N@Z 004a6750     qt-mt323:qt-mt323.dll
 0005:00000754       __imp_?ensureCursorVisible@QTextEdit@@UAEXXZ 004a6754     qt-mt323:qt-mt323.dll
 0005:00000758       __imp_?event@QMainWindow@@MAE_NPAVQEvent@@@Z 004a6758     qt-mt323:qt-mt323.dll
 0005:0000075c       __imp_?event@QTextEdit@@MAE_NPAVQEvent@@@Z 004a675c     qt-mt323:qt-mt323.dll
 0005:00000760       __imp_?eventFilter@QMainWindow@@UAE_NPAVQObject@@PAVQEvent@@@Z 004a6760     qt-mt323:qt-mt323.dll
 0005:00000764       __imp_?eventFilter@QMenuBar@@UAE_NPAVQObject@@PAVQEvent@@@Z 004a6764     qt-mt323:qt-mt323.dll
 0005:00000768       __imp_?eventFilter@QTextEdit@@UAE_NPAVQObject@@PAVQEvent@@@Z 004a6768     qt-mt323:qt-mt323.dll
 0005:0000076c       __imp_?expanding@QGridLayout@@UBE?AW4ExpandData@QSizePolicy@@XZ 004a676c     qt-mt323:qt-mt323.dll
 0005:00000770       __imp_?find@QTextEdit@@UAE_NABVQString@@_N11PAH2@Z 004a6770     qt-mt323:qt-mt323.dll
 0005:00000774       __imp_?focusInEvent@QMenuBar@@MAEXPAVQFocusEvent@@@Z 004a6774     qt-mt323:qt-mt323.dll
 0005:00000778       __imp_?focusInEvent@QPopupMenu@@MAEXPAVQFocusEvent@@@Z 004a6778     qt-mt323:qt-mt323.dll
 0005:0000077c       __imp_?focusNextPrevChild@QPopupMenu@@MAE_N_N@Z 004a677c     qt-mt323:qt-mt323.dll
 0005:00000780       __imp_?focusNextPrevChild@QTextEdit@@MAE_N_N@Z 004a6780     qt-mt323:qt-mt323.dll
 0005:00000784       __imp_?focusOutEvent@QMenuBar@@MAEXPAVQFocusEvent@@@Z 004a6784     qt-mt323:qt-mt323.dll
 0005:00000788       __imp_?focusOutEvent@QPopupMenu@@MAEXPAVQFocusEvent@@@Z 004a6788     qt-mt323:qt-mt323.dll
 0005:0000078c       __imp_?fontChange@QMenuBar@@MAEXABVQFont@@@Z 004a678c     qt-mt323:qt-mt323.dll
 0005:00000790       __imp_?fontChange@QScrollView@@MAEXABVQFont@@@Z 004a6790     qt-mt323:qt-mt323.dll
 0005:00000794       __imp_?frameChanged@QMenuBar@@EAEXXZ 004a6794     qt-mt323:qt-mt323.dll
 0005:00000798       __imp_?frameChanged@QPopupMenu@@EAEXXZ 004a6798     qt-mt323:qt-mt323.dll
 0005:0000079c       __imp_?frameChanged@QScrollView@@MAEXXZ 004a679c     qt-mt323:qt-mt323.dll
 0005:000007a0       __imp_?getFormat@QTextEdit@@UAE_NHHPAVQFont@@PAVQColor@@PAW4VerticalAlignment@1@@Z 004a67a0     qt-mt323:qt-mt323.dll
 0005:000007a4       __imp_?getParagraphFormat@QTextEdit@@UAE_NHPAVQFont@@PAVQColor@@PAW4VerticalAlignment@1@PAHPAW4DisplayMode@QStyleSheetItem@@PAW4ListStyle@6@3@Z 004a67a4     qt-mt323:qt-mt323.dll
 0005:000007a8       __imp_?hasHeightForWidth@QGridLayout@@UBE_NXZ 004a67a8     qt-mt323:qt-mt323.dll
 0005:000007ac       __imp_?heightForWidth@QGridLayout@@UBEHH@Z 004a67ac     qt-mt323:qt-mt323.dll
 0005:000007b0       __imp_?heightForWidth@QMenuBar@@UBEHH@Z 004a67b0     qt-mt323:qt-mt323.dll
 0005:000007b4       __imp_?heightForWidth@QTextEdit@@UBEHH@Z 004a67b4     qt-mt323:qt-mt323.dll
 0005:000007b8       __imp_?hide@QMainWindow@@UAEXXZ 004a67b8     qt-mt323:qt-mt323.dll
 0005:000007bc       __imp_?hide@QMenuBar@@UAEXXZ 004a67bc     qt-mt323:qt-mt323.dll
 0005:000007c0       __imp_?hide@QPopupMenu@@UAEXXZ 004a67c0     qt-mt323:qt-mt323.dll
 0005:000007c4       __imp_?imComposeEvent@QTextEdit@@MAEXPAVQIMEvent@@@Z 004a67c4     qt-mt323:qt-mt323.dll
 0005:000007c8       __imp_?imEndEvent@QTextEdit@@MAEXPAVQIMEvent@@@Z 004a67c8     qt-mt323:qt-mt323.dll
 0005:000007cc       __imp_?imStartEvent@QTextEdit@@MAEXPAVQIMEvent@@@Z 004a67cc     qt-mt323:qt-mt323.dll
 0005:000007d0       __imp_?indent@QTextEdit@@UAEXXZ 004a67d0     qt-mt323:qt-mt323.dll
 0005:000007d4       __imp_?insert@QTextEdit@@UAEXABVQString@@_N11@Z 004a67d4     qt-mt323:qt-mt323.dll
 0005:000007d8       __imp_?insertAt@QTextEdit@@UAEXABVQString@@HH@Z 004a67d8     qt-mt323:qt-mt323.dll
 0005:000007dc       __imp_?insertParagraph@QTextEdit@@UAEXABVQString@@H@Z 004a67dc     qt-mt323:qt-mt323.dll
 0005:000007e0       __imp_?invalidate@QGridLayout@@UAEXXZ 004a67e0     qt-mt323:qt-mt323.dll
 0005:000007e4       __imp_?isCustomizable@QMainWindow@@UBE_NXZ 004a67e4     qt-mt323:qt-mt323.dll
 0005:000007e8       __imp_?iterator@QGridLayout@@UAE?AVQLayoutIterator@@XZ 004a67e8     qt-mt323:qt-mt323.dll
 0005:000007ec       __imp_?keyPressEvent@QMenuBar@@MAEXPAVQKeyEvent@@@Z 004a67ec     qt-mt323:qt-mt323.dll
 0005:000007f0       __imp_?keyPressEvent@QPopupMenu@@MAEXPAVQKeyEvent@@@Z 004a67f0     qt-mt323:qt-mt323.dll
 0005:000007f4       __imp_?keyPressEvent@QTextEdit@@MAEXPAVQKeyEvent@@@Z 004a67f4     qt-mt323:qt-mt323.dll
 0005:000007f8       __imp_?leaveEvent@QMenuBar@@MAEXPAVQEvent@@@Z 004a67f8     qt-mt323:qt-mt323.dll
 0005:000007fc       __imp_?leaveEvent@QPopupMenu@@MAEXPAVQEvent@@@Z 004a67fc     qt-mt323:qt-mt323.dll
 0005:00000800       __imp_?linksEnabled@QTextEdit@@EBE_NXZ 004a6800     qt-mt323:qt-mt323.dll
 0005:00000804       __imp_?maximumSize@QGridLayout@@UBE?AVQSize@@XZ 004a6804     qt-mt323:qt-mt323.dll
 0005:00000808       __imp_?menuContentsChanged@QMenuBar@@MAEXXZ 004a6808     qt-mt323:qt-mt323.dll
 0005:0000080c       __imp_?menuContentsChanged@QPopupMenu@@EAEXXZ 004a680c     qt-mt323:qt-mt323.dll
 0005:00000810       __imp_?menuDelPopup@QMenuBar@@EAEXPAVQPopupMenu@@@Z 004a6810     qt-mt323:qt-mt323.dll
 0005:00000814       __imp_?menuDelPopup@QPopupMenu@@EAEXPAV1@@Z 004a6814     qt-mt323:qt-mt323.dll
 0005:00000818       __imp_?menuInsPopup@QMenuBar@@EAEXPAVQPopupMenu@@@Z 004a6818     qt-mt323:qt-mt323.dll
 0005:0000081c       __imp_?menuInsPopup@QPopupMenu@@EAEXPAV1@@Z 004a681c     qt-mt323:qt-mt323.dll
 0005:00000820       __imp_?menuStateChanged@QMenuBar@@MAEXXZ 004a6820     qt-mt323:qt-mt323.dll
 0005:00000824       __imp_?menuStateChanged@QPopupMenu@@EAEXXZ 004a6824     qt-mt323:qt-mt323.dll
 0005:00000828       __imp_?metaObject@QAction@@UBEPAVQMetaObject@@XZ 004a6828     qt-mt323:qt-mt323.dll
 0005:0000082c       __imp_?metaObject@QGridLayout@@UBEPAVQMetaObject@@XZ 004a682c     qt-mt323:qt-mt323.dll
 0005:00000830       __imp_?metaObject@QMenuBar@@UBEPAVQMetaObject@@XZ 004a6830     qt-mt323:qt-mt323.dll
 0005:00000834       __imp_?metaObject@QPopupMenu@@UBEPAVQMetaObject@@XZ 004a6834     qt-mt323:qt-mt323.dll
 0005:00000838       __imp_?metaObject@QTextEdit@@UBEPAVQMetaObject@@XZ 004a6838     qt-mt323:qt-mt323.dll
 0005:0000083c       __imp_?metaObject@QWidget@@UBEPAVQMetaObject@@XZ 004a683c     qt-mt323:qt-mt323.dll
 0005:00000840       __imp_?minimumSize@QGridLayout@@UBE?AVQSize@@XZ 004a6840     qt-mt323:qt-mt323.dll
 0005:00000844       __imp_?minimumSizeHint@QMenuBar@@UBE?AVQSize@@XZ 004a6844     qt-mt323:qt-mt323.dll
 0005:00000848       __imp_?minimumSizeHint@QScrollView@@UBE?AVQSize@@XZ 004a6848     qt-mt323:qt-mt323.dll
 0005:0000084c       __imp_?mouseDoubleClickEvent@QScrollView@@MAEXPAVQMouseEvent@@@Z 004a684c     qt-mt323:qt-mt323.dll
 0005:00000850       __imp_?mouseMoveEvent@QMenuBar@@MAEXPAVQMouseEvent@@@Z 004a6850     qt-mt323:qt-mt323.dll
 0005:00000854       __imp_?mouseMoveEvent@QPopupMenu@@MAEXPAVQMouseEvent@@@Z 004a6854     qt-mt323:qt-mt323.dll
 0005:00000858       __imp_?mouseMoveEvent@QScrollView@@MAEXPAVQMouseEvent@@@Z 004a6858     qt-mt323:qt-mt323.dll
 0005:0000085c       __imp_?mousePressEvent@QMenuBar@@MAEXPAVQMouseEvent@@@Z 004a685c     qt-mt323:qt-mt323.dll
 0005:00000860       __imp_?mousePressEvent@QPopupMenu@@MAEXPAVQMouseEvent@@@Z 004a6860     qt-mt323:qt-mt323.dll
 0005:00000864       __imp_?mousePressEvent@QScrollView@@MAEXPAVQMouseEvent@@@Z 004a6864     qt-mt323:qt-mt323.dll
 0005:00000868       __imp_?mouseReleaseEvent@QMenuBar@@MAEXPAVQMouseEvent@@@Z 004a6868     qt-mt323:qt-mt323.dll
 0005:0000086c       __imp_?mouseReleaseEvent@QPopupMenu@@MAEXPAVQMouseEvent@@@Z 004a686c     qt-mt323:qt-mt323.dll
 0005:00000870       __imp_?mouseReleaseEvent@QScrollView@@MAEXPAVQMouseEvent@@@Z 004a6870     qt-mt323:qt-mt323.dll
 0005:00000874       __imp_?moveChild@QScrollView@@UAEXPAVQWidget@@HH@Z 004a6874     qt-mt323:qt-mt323.dll
 0005:00000878       __imp_?moveCursor@QTextEdit@@UAEXW4CursorAction@1@_N@Z 004a6878     qt-mt323:qt-mt323.dll
 0005:0000087c       __imp_?moveDockWindow@QMainWindow@@UAEXPAVQDockWindow@@W4Dock@Qt@@@Z 004a687c     qt-mt323:qt-mt323.dll
 0005:00000880       __imp_?moveDockWindow@QMainWindow@@UAEXPAVQDockWindow@@W4Dock@Qt@@_NHH@Z 004a6880     qt-mt323:qt-mt323.dll
 0005:00000884       __imp_?paintEvent@QMainWindow@@MAEXPAVQPaintEvent@@@Z 004a6884     qt-mt323:qt-mt323.dll
 0005:00000888       __imp_?paintEvent@QPopupMenu@@MAEXPAVQPaintEvent@@@Z 004a6888     qt-mt323:qt-mt323.dll
 0005:0000088c       __imp_?paste@QTextEdit@@UAEXXZ 004a688c     qt-mt323:qt-mt323.dll
 0005:00000890       __imp_?pasteSubType@QTextEdit@@UAEXABVQCString@@@Z 004a6890     qt-mt323:qt-mt323.dll
 0005:00000894       __imp_?placeCursor@QTextEdit@@UAEXABVQPoint@@PAVQTextCursor@@@Z 004a6894     qt-mt323:qt-mt323.dll
 0005:00000898       __imp_?addLayout@QBoxLayout@@QAEXPAVQLayout@@H@Z 004a6898     qt-mt323:qt-mt323.dll
 0005:0000089c       __imp_?qt_cast@QAction@@UAEPAXPBD@Z 004a689c     qt-mt323:qt-mt323.dll
 0005:000008a0       __imp_?qt_cast@QGridLayout@@UAEPAXPBD@Z 004a68a0     qt-mt323:qt-mt323.dll
 0005:000008a4       __imp_?qt_cast@QMenuBar@@UAEPAXPBD@Z 004a68a4     qt-mt323:qt-mt323.dll
 0005:000008a8       __imp_?qt_cast@QPopupMenu@@UAEPAXPBD@Z 004a68a8     qt-mt323:qt-mt323.dll
 0005:000008ac       __imp_?qt_cast@QTextEdit@@UAEPAXPBD@Z 004a68ac     qt-mt323:qt-mt323.dll
 0005:000008b0       __imp_?qt_cast@QWidget@@UAEPAXPBD@Z 004a68b0     qt-mt323:qt-mt323.dll
 0005:000008b4       __imp_?qt_emit@QAction@@UAE_NHPAUQUObject@@@Z 004a68b4     qt-mt323:qt-mt323.dll
 0005:000008b8       __imp_?qt_emit@QGridLayout@@UAE_NHPAUQUObject@@@Z 004a68b8     qt-mt323:qt-mt323.dll
 0005:000008bc       __imp_?qt_emit@QMenuBar@@UAE_NHPAUQUObject@@@Z 004a68bc     qt-mt323:qt-mt323.dll
 0005:000008c0       __imp_?qt_emit@QPopupMenu@@UAE_NHPAUQUObject@@@Z 004a68c0     qt-mt323:qt-mt323.dll
 0005:000008c4       __imp_?qt_emit@QTextEdit@@UAE_NHPAUQUObject@@@Z 004a68c4     qt-mt323:qt-mt323.dll
 0005:000008c8       __imp_?qt_emit@QWidget@@UAE_NHPAUQUObject@@@Z 004a68c8     qt-mt323:qt-mt323.dll
 0005:000008cc       __imp_?qt_invoke@QAction@@UAE_NHPAUQUObject@@@Z 004a68cc     qt-mt323:qt-mt323.dll
 0005:000008d0       __imp_?qt_invoke@QGridLayout@@UAE_NHPAUQUObject@@@Z 004a68d0     qt-mt323:qt-mt323.dll
 0005:000008d4       __imp_?qt_invoke@QMenuBar@@UAE_NHPAUQUObject@@@Z 004a68d4     qt-mt323:qt-mt323.dll
 0005:000008d8       __imp_?qt_invoke@QPopupMenu@@UAE_NHPAUQUObject@@@Z 004a68d8     qt-mt323:qt-mt323.dll
 0005:000008dc       __imp_?qt_invoke@QTextEdit@@UAE_NHPAUQUObject@@@Z 004a68dc     qt-mt323:qt-mt323.dll
 0005:000008e0       __imp_?mouseMoveEvent@QWidget@@MAEXPAVQMouseEvent@@@Z 004a68e0     qt-mt323:qt-mt323.dll
 0005:000008e4       __imp_?qt_property@QAction@@UAE_NHHPAVQVariant@@@Z 004a68e4     qt-mt323:qt-mt323.dll
 0005:000008e8       __imp_?qt_property@QGridLayout@@UAE_NHHPAVQVariant@@@Z 004a68e8     qt-mt323:qt-mt323.dll
 0005:000008ec       __imp_?qt_property@QMenuBar@@UAE_NHHPAVQVariant@@@Z 004a68ec     qt-mt323:qt-mt323.dll
 0005:000008f0       __imp_?qt_property@QPopupMenu@@UAE_NHHPAVQVariant@@@Z 004a68f0     qt-mt323:qt-mt323.dll
 0005:000008f4       __imp_?qt_property@QTextEdit@@UAE_NHHPAVQVariant@@@Z 004a68f4     qt-mt323:qt-mt323.dll
 0005:000008f8       __imp_?qt_property@QWidget@@UAE_NHHPAVQVariant@@@Z 004a68f8     qt-mt323:qt-mt323.dll
 0005:000008fc       __imp_?redo@QTextEdit@@UAEXXZ 004a68fc     qt-mt323:qt-mt323.dll
 0005:00000900       __imp_?removeChild@QScrollView@@UAEXPAVQObject@@@Z 004a6900     qt-mt323:qt-mt323.dll
 0005:00000904       __imp_?removeDockWindow@QMainWindow@@UAEXPAVQDockWindow@@@Z 004a6904     qt-mt323:qt-mt323.dll
 0005:00000908       __imp_?removeFrom@QAction@@UAE_NPAVQWidget@@@Z 004a6908     qt-mt323:qt-mt323.dll
 0005:0000090c       __imp_?removeParagraph@QTextEdit@@UAEXH@Z 004a690c     qt-mt323:qt-mt323.dll
 0005:00000910       __imp_?removeSelectedText@QTextEdit@@UAEXH@Z 004a6910     qt-mt323:qt-mt323.dll
 0005:00000914       __imp_?removeSelection@QTextEdit@@UAEXH@Z 004a6914     qt-mt323:qt-mt323.dll
 0005:00000918       __imp_?resetFormat@QTextEdit@@UAEXXZ 004a6918     qt-mt323:qt-mt323.dll
 0005:0000091c       __imp_?resize@QScrollView@@UAEXHH@Z 004a691c     qt-mt323:qt-mt323.dll
 0005:00000920       __imp_?resizeContents@QScrollView@@UAEXHH@Z 004a6920     qt-mt323:qt-mt323.dll
 0005:00000924       __imp_?resizeEvent@QMenuBar@@MAEXPAVQResizeEvent@@@Z 004a6924     qt-mt323:qt-mt323.dll
 0005:00000928       __imp_?resizeEvent@QTextEdit@@MAEXPAVQResizeEvent@@@Z 004a6928     qt-mt323:qt-mt323.dll
 0005:0000092c       __imp_?resizeEvent@QWidget@@MAEXPAVQResizeEvent@@@Z 004a692c     qt-mt323:qt-mt323.dll
 0005:00000930       __imp_?scrollToAnchor@QTextEdit@@UAEXABVQString@@@Z 004a6930     qt-mt323:qt-mt323.dll
 0005:00000934       __imp_?scrollToBottom@QTextEdit@@UAEXXZ 004a6934     qt-mt323:qt-mt323.dll
 0005:00000938       __imp_?selectAll@QTextEdit@@UAEX_N@Z 004a6938     qt-mt323:qt-mt323.dll
 0005:0000093c       __imp_?setAccel@QAction@@UAEXABVQKeySequence@@@Z 004a693c     qt-mt323:qt-mt323.dll
 0005:00000940       __imp_?setActiveItem@QPopupMenu@@UAEXH@Z 004a6940     qt-mt323:qt-mt323.dll
 0005:00000944       __imp_?setAlignment@QTextEdit@@UAEXH@Z 004a6944     qt-mt323:qt-mt323.dll
 0005:00000948       __imp_?setAppropriate@QMainWindow@@UAEXPAVQDockWindow@@_N@Z 004a6948     qt-mt323:qt-mt323.dll
 0005:0000094c       __imp_?setBold@QTextEdit@@UAEX_N@Z 004a694c     qt-mt323:qt-mt323.dll
 0005:00000950       __imp_?setCheckable@QPopupMenu@@UAEX_N@Z 004a6950     qt-mt323:qt-mt323.dll
 0005:00000954       __imp_?setColStretch@QGridLayout@@UAEXHH@Z 004a6954     qt-mt323:qt-mt323.dll
 0005:00000958       __imp_?setColor@QTextEdit@@UAEXABVQColor@@@Z 004a6958     qt-mt323:qt-mt323.dll
 0005:0000095c       __imp_?setContentsPos@QScrollView@@UAEXHH@Z 004a695c     qt-mt323:qt-mt323.dll
 0005:00000960       __imp_?setCornerWidget@QScrollView@@UAEXPAVQWidget@@@Z 004a6960     qt-mt323:qt-mt323.dll
 0005:00000964       __imp_?setCurrentFont@QTextEdit@@UAEXABVQFont@@@Z 004a6964     qt-mt323:qt-mt323.dll
 0005:00000968       __imp_?setCursorPosition@QTextEdit@@UAEXHH@Z 004a6968     qt-mt323:qt-mt323.dll
 0005:0000096c       __imp_?setDockEnabled@QMainWindow@@UAEXPAVQDockWindow@@W4Dock@Qt@@_N@Z 004a696c     qt-mt323:qt-mt323.dll
 0005:00000970       __imp_?setDockEnabled@QMainWindow@@UAEXW4Dock@Qt@@_N@Z 004a6970     qt-mt323:qt-mt323.dll
 0005:00000974       __imp_?setDockMenuEnabled@QMainWindow@@UAEX_N@Z 004a6974     qt-mt323:qt-mt323.dll
 0005:00000978       __imp_?setDockWindowsMovable@QMainWindow@@UAEX_N@Z 004a6978     qt-mt323:qt-mt323.dll
 0005:0000097c       __imp_?setDragAutoScroll@QScrollView@@UAEX_N@Z 004a697c     qt-mt323:qt-mt323.dll
 0005:00000980       __imp_?setEnabled@QAction@@UAEX_N@Z 004a6980     qt-mt323:qt-mt323.dll
 0005:00000984       __imp_?setEnabled@QTextEdit@@UAEX_N@Z 004a6984     qt-mt323:qt-mt323.dll
 0005:00000988       __imp_?setFamily@QTextEdit@@UAEXABVQString@@@Z 004a6988     qt-mt323:qt-mt323.dll
 0005:0000098c       __imp_?setFirstItemActive@QPopupMenu@@EAEXXZ 004a698c     qt-mt323:qt-mt323.dll
 0005:00000990       __imp_?setFont@QPopupMenu@@UAEXABVQFont@@@Z 004a6990     qt-mt323:qt-mt323.dll
 0005:00000994       __imp_?setFont@QTextEdit@@UAEXABVQFont@@@Z 004a6994     qt-mt323:qt-mt323.dll
 0005:00000998       __imp_?setFormat@QTextEdit@@UAEXPAVQTextFormat@@H@Z 004a6998     qt-mt323:qt-mt323.dll
 0005:0000099c       __imp_?setGeometry@QGridLayout@@UAEXABVQRect@@@Z 004a699c     qt-mt323:qt-mt323.dll
 0005:000009a0       __imp_?setHBarGeometry@QScrollView@@MAEXAAVQScrollBar@@HHHH@Z 004a69a0     qt-mt323:qt-mt323.dll
 0005:000009a4       __imp_?setHScrollBarMode@QScrollView@@UAEXW4ScrollBarMode@1@@Z 004a69a4     qt-mt323:qt-mt323.dll
 0005:000009a8       __imp_?setIconSet@QAction@@UAEXABVQIconSet@@@Z 004a69a8     qt-mt323:qt-mt323.dll
 0005:000009ac       __imp_?setId@QMenuData@@UAEXHH@Z 004a69ac     qt-mt323:qt-mt323.dll
 0005:000009b0       __imp_?setItalic@QTextEdit@@UAEX_N@Z 004a69b0     qt-mt323:qt-mt323.dll
 0005:000009b4       __imp_?setLinkUnderline@QTextEdit@@UAEX_N@Z 004a69b4     qt-mt323:qt-mt323.dll
 0005:000009b8       __imp_?setMargins@QScrollView@@MAEXHHHH@Z 004a69b8     qt-mt323:qt-mt323.dll
 0005:000009bc       __imp_?setMenuBar@QMainWindow@@EAEXPAVQMenuBar@@@Z 004a69bc     qt-mt323:qt-mt323.dll
 0005:000009c0       __imp_?setMenuText@QAction@@UAEXABVQString@@@Z 004a69c0     qt-mt323:qt-mt323.dll
 0005:000009c4       __imp_?setMimeSourceFactory@QTextEdit@@UAEXPAVQMimeSourceFactory@@@Z 004a69c4     qt-mt323:qt-mt323.dll
 0005:000009c8       __imp_?setModified@QTextEdit@@UAEX_N@Z 004a69c8     qt-mt323:qt-mt323.dll
 0005:000009cc       __imp_?setOn@QAction@@UAEX_N@Z 004a69cc     qt-mt323:qt-mt323.dll
 0005:000009d0       __imp_?setOpaqueMoving@QMainWindow@@UAEX_N@Z 004a69d0     qt-mt323:qt-mt323.dll
 0005:000009d4       __imp_?setOverwriteMode@QTextEdit@@UAEX_N@Z 004a69d4     qt-mt323:qt-mt323.dll
 0005:000009d8       __imp_?setPalette@QTextEdit@@UAEXABVQPalette@@@Z 004a69d8     qt-mt323:qt-mt323.dll
 0005:000009dc       __imp_?setPaper@QTextEdit@@UAEXABVQBrush@@@Z 004a69dc     qt-mt323:qt-mt323.dll
 0005:000009e0       __imp_?setParagType@QTextEdit@@UAEXW4DisplayMode@QStyleSheetItem@@W4ListStyle@3@@Z 004a69e0     qt-mt323:qt-mt323.dll
 0005:000009e4       __imp_?setParagraphBackgroundColor@QTextEdit@@UAEXHABVQColor@@@Z 004a69e4     qt-mt323:qt-mt323.dll
 0005:000009e8       __imp_?setPointSize@QTextEdit@@UAEXH@Z 004a69e8     qt-mt323:qt-mt323.dll
 0005:000009ec       __imp_?setReadOnly@QTextEdit@@UAEX_N@Z 004a69ec     qt-mt323:qt-mt323.dll
 0005:000009f0       __imp_?setResizePolicy@QScrollView@@UAEXW4ResizePolicy@1@@Z 004a69f0     qt-mt323:qt-mt323.dll
 0005:000009f4       __imp_?setRightJustification@QMainWindow@@UAEX_N@Z 004a69f4     qt-mt323:qt-mt323.dll
 0005:000009f8       __imp_?setRowStretch@QGridLayout@@UAEXHH@Z 004a69f8     qt-mt323:qt-mt323.dll
 0005:000009fc       __imp_?setSelection@QTextEdit@@UAEXHHHHH@Z 004a69fc     qt-mt323:qt-mt323.dll
 0005:00000a00       __imp_?setSelectionAttributes@QTextEdit@@UAEXHABVQColor@@_N@Z 004a6a00     qt-mt323:qt-mt323.dll
 0005:00000a04       __imp_?setSeparator@QMenuBar@@UAEXW4Separator@1@@Z 004a6a04     qt-mt323:qt-mt323.dll
 0005:00000a08       __imp_?setStatusBar@QMainWindow@@EAEXPAVQStatusBar@@@Z 004a6a08     qt-mt323:qt-mt323.dll
 0005:00000a0c       __imp_?setStatusTip@QAction@@UAEXABVQString@@@Z 004a6a0c     qt-mt323:qt-mt323.dll
 0005:00000a10       __imp_?setStyleSheet@QTextEdit@@UAEXPAVQStyleSheet@@@Z 004a6a10     qt-mt323:qt-mt323.dll
 0005:00000a14       __imp_?setTabStopWidth@QTextEdit@@UAEXH@Z 004a6a14     qt-mt323:qt-mt323.dll
 0005:00000a18       __imp_?setText@QAction@@UAEXABVQString@@@Z 004a6a18     qt-mt323:qt-mt323.dll
 0005:00000a1c       __imp_?setText@QTextEdit@@UAEXABVQString@@0@Z 004a6a1c     qt-mt323:qt-mt323.dll
 0005:00000a20       __imp_?setTextFormat@QTextEdit@@UAEXW4TextFormat@Qt@@@Z 004a6a20     qt-mt323:qt-mt323.dll
 0005:00000a24       __imp_?setToggleAction@QAction@@UAEX_N@Z 004a6a24     qt-mt323:qt-mt323.dll
 0005:00000a28       __imp_?setToolTip@QAction@@UAEXABVQString@@@Z 004a6a28     qt-mt323:qt-mt323.dll
 0005:00000a2c       __imp_?setToolTipGroup@QMainWindow@@EAEXPAVQToolTipGroup@@@Z 004a6a2c     qt-mt323:qt-mt323.dll
 0005:00000a30       __imp_?setUnderline@QTextEdit@@UAEX_N@Z 004a6a30     qt-mt323:qt-mt323.dll
 0005:00000a34       __imp_?setUndoDepth@QTextEdit@@UAEXH@Z 004a6a34     qt-mt323:qt-mt323.dll
 0005:00000a38       __imp_?setUndoRedoEnabled@QTextEdit@@UAEX_N@Z 004a6a38     qt-mt323:qt-mt323.dll
 0005:00000a3c       __imp_?setUpLayout@QMainWindow@@MAEXXZ 004a6a3c     qt-mt323:qt-mt323.dll
 0005:00000a40       __imp_?setUsesBigPixmaps@QMainWindow@@UAEX_N@Z 004a6a40     qt-mt323:qt-mt323.dll
 0005:00000a44       __imp_?setUsesTextLabel@QMainWindow@@UAEX_N@Z 004a6a44     qt-mt323:qt-mt323.dll
 0005:00000a48       __imp_?setVBarGeometry@QScrollView@@MAEXAAVQScrollBar@@HHHH@Z 004a6a48     qt-mt323:qt-mt323.dll
 0005:00000a4c       __imp_?setVScrollBarMode@QScrollView@@UAEXW4ScrollBarMode@1@@Z 004a6a4c     qt-mt323:qt-mt323.dll
 0005:00000a50       __imp_?setVerticalAlignment@QTextEdit@@UAEXW4VerticalAlignment@1@@Z 004a6a50     qt-mt323:qt-mt323.dll
 0005:00000a54       __imp_?setWhatsThis@QAction@@UAEXABVQString@@@Z 004a6a54     qt-mt323:qt-mt323.dll
 0005:00000a58       __imp_?setWordWrap@QTextEdit@@UAEXW4WordWrap@1@@Z 004a6a58     qt-mt323:qt-mt323.dll
 0005:00000a5c       __imp_?setWrapColumnOrWidth@QTextEdit@@UAEXH@Z 004a6a5c     qt-mt323:qt-mt323.dll
 0005:00000a60       __imp_?setWrapPolicy@QTextEdit@@UAEXW4WrapPolicy@1@@Z 004a6a60     qt-mt323:qt-mt323.dll
 0005:00000a64       __imp_?show@QMainWindow@@UAEXXZ 004a6a64     qt-mt323:qt-mt323.dll
 0005:00000a68       __imp_?show@QMenuBar@@UAEXXZ 004a6a68     qt-mt323:qt-mt323.dll
 0005:00000a6c       __imp_?show@QPopupMenu@@UAEXXZ 004a6a6c     qt-mt323:qt-mt323.dll
 0005:00000a70       __imp_?show@QScrollView@@UAEXXZ 004a6a70     qt-mt323:qt-mt323.dll
 0005:00000a74       __imp_?showDockMenu@QMainWindow@@MAE_NABVQPoint@@@Z 004a6a74     qt-mt323:qt-mt323.dll
 0005:00000a78       __imp_?sizeHint@QGridLayout@@UBE?AVQSize@@XZ 004a6a78     qt-mt323:qt-mt323.dll
 0005:00000a7c       __imp_?sizeHint@QMainWindow@@UBE?AVQSize@@XZ 004a6a7c     qt-mt323:qt-mt323.dll
 0005:00000a80       __imp_?sizeHint@QMenuBar@@UBE?AVQSize@@XZ 004a6a80     qt-mt323:qt-mt323.dll
 0005:00000a84       __imp_?sizeHint@QPopupMenu@@UBE?AVQSize@@XZ 004a6a84     qt-mt323:qt-mt323.dll
 0005:00000a88       __imp_?sizeHint@QTextEdit@@UBE?AVQSize@@XZ 004a6a88     qt-mt323:qt-mt323.dll
 0005:00000a8c       __imp_?sizeHint@QWidget@@UBE?AVQSize@@XZ 004a6a8c     qt-mt323:qt-mt323.dll
 0005:00000a90       __imp_?styleChange@QMainWindow@@MAEXAAVQStyle@@@Z 004a6a90     qt-mt323:qt-mt323.dll
 0005:00000a94       __imp_?styleChange@QMenuBar@@MAEXAAVQStyle@@@Z 004a6a94     qt-mt323:qt-mt323.dll
 0005:00000a98       __imp_?styleChange@QPopupMenu@@MAEXAAVQStyle@@@Z 004a6a98     qt-mt323:qt-mt323.dll
 0005:00000a9c       __imp_?styleChange@QScrollView@@UAEXAAVQStyle@@@Z 004a6a9c     qt-mt323:qt-mt323.dll
 0005:00000aa0       __imp_?sync@QTextEdit@@UAEXXZ 004a6aa0     qt-mt323:qt-mt323.dll
 0005:00000aa4       __imp_?timerEvent@QPopupMenu@@MAEXPAVQTimerEvent@@@Z 004a6aa4     qt-mt323:qt-mt323.dll
 0005:00000aa8       __imp_?undo@QTextEdit@@UAEXXZ 004a6aa8     qt-mt323:qt-mt323.dll
 0005:00000aac       __imp_?updateItem@QMenuBar@@UAEXH@Z 004a6aac     qt-mt323:qt-mt323.dll
 0005:00000ab0       __imp_?updateItem@QPopupMenu@@UAEXH@Z 004a6ab0     qt-mt323:qt-mt323.dll
 0005:00000ab4       __imp_?viewportContextMenuEvent@QScrollView@@MAEXPAVQContextMenuEvent@@@Z 004a6ab4     qt-mt323:qt-mt323.dll
 0005:00000ab8       __imp_?viewportDragEnterEvent@QScrollView@@MAEXPAVQDragEnterEvent@@@Z 004a6ab8     qt-mt323:qt-mt323.dll
 0005:00000abc       __imp_?viewportDragLeaveEvent@QScrollView@@MAEXPAVQDragLeaveEvent@@@Z 004a6abc     qt-mt323:qt-mt323.dll
 0005:00000ac0       __imp_?viewportDragMoveEvent@QScrollView@@MAEXPAVQDragMoveEvent@@@Z 004a6ac0     qt-mt323:qt-mt323.dll
 0005:00000ac4       __imp_?viewportDropEvent@QScrollView@@MAEXPAVQDropEvent@@@Z 004a6ac4     qt-mt323:qt-mt323.dll
 0005:00000ac8       __imp_?viewportMouseDoubleClickEvent@QScrollView@@MAEXPAVQMouseEvent@@@Z 004a6ac8     qt-mt323:qt-mt323.dll
 0005:00000acc       __imp_?viewportMouseMoveEvent@QScrollView@@MAEXPAVQMouseEvent@@@Z 004a6acc     qt-mt323:qt-mt323.dll
 0005:00000ad0       __imp_?viewportMousePressEvent@QScrollView@@MAEXPAVQMouseEvent@@@Z 004a6ad0     qt-mt323:qt-mt323.dll
 0005:00000ad4       __imp_?viewportMouseReleaseEvent@QScrollView@@MAEXPAVQMouseEvent@@@Z 004a6ad4     qt-mt323:qt-mt323.dll
 0005:00000ad8       __imp_?viewportPaintEvent@QScrollView@@MAEXPAVQPaintEvent@@@Z 004a6ad8     qt-mt323:qt-mt323.dll
 0005:00000adc       __imp_?viewportResizeEvent@QTextEdit@@MAEXPAVQResizeEvent@@@Z 004a6adc     qt-mt323:qt-mt323.dll
 0005:00000ae0       __imp_?viewportWheelEvent@QScrollView@@MAEXPAVQWheelEvent@@@Z 004a6ae0     qt-mt323:qt-mt323.dll
 0005:00000ae4       __imp_?whatsThis@QMainWindow@@UAEXXZ 004a6ae4     qt-mt323:qt-mt323.dll
 0005:00000ae8       __imp_?wheelEvent@QScrollView@@MAEXPAVQWheelEvent@@@Z 004a6ae8     qt-mt323:qt-mt323.dll
 0005:00000aec       __imp_?windowActivationChange@QTextEdit@@MAEX_N@Z 004a6aec     qt-mt323:qt-mt323.dll
 0005:00000af0       __imp_?zoomIn@QTextEdit@@UAEXH@Z 004a6af0     qt-mt323:qt-mt323.dll
 0005:00000af4       __imp_?zoomIn@QTextEdit@@UAEXXZ 004a6af4     qt-mt323:qt-mt323.dll
 0005:00000af8       __imp_?zoomOut@QTextEdit@@UAEXH@Z 004a6af8     qt-mt323:qt-mt323.dll
 0005:00000afc       __imp_?zoomOut@QTextEdit@@UAEXXZ 004a6afc     qt-mt323:qt-mt323.dll
 0005:00000b00       __imp_?zoomTo@QTextEdit@@UAEXH@Z 004a6b00     qt-mt323:qt-mt323.dll
 0005:00000b04       __imp_??0QChar@@QAE@D@Z    004a6b04     qt-mt323:qt-mt323.dll
 0005:00000b08       __imp_??0QString@@QAE@XZ   004a6b08     qt-mt323:qt-mt323.dll
 0005:00000b0c       __imp_??4QString@@QAEAAV0@ABV0@@Z 004a6b0c     qt-mt323:qt-mt323.dll
 0005:00000b10       __imp_?arg@QString@@QBE?AV1@HHH@Z 004a6b10     qt-mt323:qt-mt323.dll
 0005:00000b14       __imp_?arg@QString@@QBE?AV1@IHH@Z 004a6b14     qt-mt323:qt-mt323.dll
 0005:00000b18       __imp_?mid@QString@@QBE?AV1@II@Z 004a6b18     qt-mt323:qt-mt323.dll
 0005:00000b1c       __imp_?rightJustify@QString@@QBE?AV1@IVQChar@@_N@Z 004a6b1c     qt-mt323:qt-mt323.dll
 0005:00000b20       __imp_?toInt@QString@@QBEHPA_NH@Z 004a6b20     qt-mt323:qt-mt323.dll
 0005:00000b24       __imp_?latin1@QString@@QBEPBDXZ 004a6b24     qt-mt323:qt-mt323.dll
 0005:00000b28       __imp_??BQString@@QBEPBDXZ 004a6b28     qt-mt323:qt-mt323.dll
 0005:00000b2c       __imp_??H@YA?BVQString@@ABV0@0@Z 004a6b2c     qt-mt323:qt-mt323.dll
 0005:00000b30       __imp_??H@YA?BVQString@@ABV0@PBD@Z 004a6b30     qt-mt323:qt-mt323.dll
 0005:00000b34       __imp_??H@YA?BVQString@@PBDABV0@@Z 004a6b34     qt-mt323:qt-mt323.dll
 0005:00000b38       __imp_??9?$QValueListIterator@VQString@@@@QBE_NABV0@@Z 004a6b38     qt-mt323:qt-mt323.dll
 0005:00000b3c       __imp_??D?$QValueListIterator@VQString@@@@QAEAAVQString@@XZ 004a6b3c     qt-mt323:qt-mt323.dll
 0005:00000b40       __imp_??E?$QValueListIterator@VQString@@@@QAEAAV0@XZ 004a6b40     qt-mt323:qt-mt323.dll
 0005:00000b44       __imp_?begin@?$QValueList@VQString@@@@QAE?AV?$QValueListIterator@VQString@@@@XZ 004a6b44     qt-mt323:qt-mt323.dll
 0005:00000b48       __imp_?end@?$QValueList@VQString@@@@QAE?AV?$QValueListIterator@VQString@@@@XZ 004a6b48     qt-mt323:qt-mt323.dll
 0005:00000b4c       __imp_?count@QGList@@UBEIXZ 004a6b4c     qt-mt323:qt-mt323.dll
 0005:00000b50       __imp_??0QGList@@IAE@XZ    004a6b50     qt-mt323:qt-mt323.dll
 0005:00000b54       __imp_??1QGList@@MAE@XZ    004a6b54     qt-mt323:qt-mt323.dll
 0005:00000b58       __imp_?append@QGList@@IAEXPAX@Z 004a6b58     qt-mt323:qt-mt323.dll
 0005:00000b5c       __imp_?takeFirst@QGList@@IAEPAXXZ 004a6b5c     qt-mt323:qt-mt323.dll
 0005:00000b60       __imp_?clear@QGList@@MAEXXZ 004a6b60     qt-mt323:qt-mt323.dll
 0005:00000b64       __imp_??1QStringList@@QAE@XZ 004a6b64     qt-mt323:qt-mt323.dll
 0005:00000b68       __imp_?startTimer@QObject@@QAEHH@Z 004a6b68     qt-mt323:qt-mt323.dll
 0005:00000b6c       __imp_?disconnect@QObject@@SA_NPBV1@PBD01@Z 004a6b6c     qt-mt323:qt-mt323.dll
 0005:00000b70       __imp_?winId@QWidget@@QBEPAUHWND__@@XZ 004a6b70     qt-mt323:qt-mt323.dll
 0005:00000b74       __imp_?close@QWidget@@QAE_NXZ 004a6b74     qt-mt323:qt-mt323.dll
 0005:00000b78       __imp_??0QFile@@QAE@ABVQString@@@Z 004a6b78     qt-mt323:qt-mt323.dll
 0005:00000b7c       __imp_??1QFile@@UAE@XZ     004a6b7c     qt-mt323:qt-mt323.dll
 0005:00000b80       __imp_?exists@QFile@@SA_NABVQString@@@Z 004a6b80     qt-mt323:qt-mt323.dll
 0005:00000b84       __imp_?open@QFile@@UAE_NH@Z 004a6b84     qt-mt323:qt-mt323.dll
 0005:00000b88       __imp_?readBlock@QFile@@UAEJPADK@Z 004a6b88     qt-mt323:qt-mt323.dll
 0005:00000b8c       __imp_?writeBlock@QFile@@UAEJPBDK@Z 004a6b8c     qt-mt323:qt-mt323.dll
 0005:00000b90       __imp_??OQDateTime@@QBE_NABV0@@Z 004a6b90     qt-mt323:qt-mt323.dll
 0005:00000b94       __imp_??0QFileInfo@@QAE@ABVQString@@@Z 004a6b94     qt-mt323:qt-mt323.dll
 0005:00000b98       __imp_??1QFileInfo@@QAE@XZ 004a6b98     qt-mt323:qt-mt323.dll
 0005:00000b9c       __imp_?baseName@QFileInfo@@QBE?AVQString@@_N@Z 004a6b9c     qt-mt323:qt-mt323.dll
 0005:00000ba0       __imp_?lastModified@QFileInfo@@QBE?AVQDateTime@@XZ 004a6ba0     qt-mt323:qt-mt323.dll
 0005:00000ba4       __imp_??0QDir@@QAE@XZ      004a6ba4     qt-mt323:qt-mt323.dll
 0005:00000ba8       __imp_??0QDir@@QAE@ABVQString@@0HH@Z 004a6ba8     qt-mt323:qt-mt323.dll
 0005:00000bac       __imp_??1QDir@@UAE@XZ      004a6bac     qt-mt323:qt-mt323.dll
 0005:00000bb0       __imp_?absPath@QDir@@UBE?AVQString@@XZ 004a6bb0     qt-mt323:qt-mt323.dll
 0005:00000bb4       __imp_?entryList@QDir@@UBE?AVQStringList@@ABVQString@@HH@Z 004a6bb4     qt-mt323:qt-mt323.dll
 0005:00000bb8       __imp_?rename@QDir@@UAE_NABVQString@@0_N@Z 004a6bb8     qt-mt323:qt-mt323.dll
 0005:00000bbc       __imp_??0QProcess@@QAE@PAVQObject@@PBD@Z 004a6bbc     qt-mt323:qt-mt323.dll
 0005:00000bc0       __imp_??1QProcess@@UAE@XZ  004a6bc0     qt-mt323:qt-mt323.dll
 0005:00000bc4       __imp_?tryTerminate@QProcess@@QBEXXZ 004a6bc4     qt-mt323:qt-mt323.dll
 0005:00000bc8       __imp_?setMaxLogLines@QTextEdit@@QAEXH@Z 004a6bc8     qt-mt323:qt-mt323.dll
 0005:00000bcc       __imp_?exec@QDialog@@QAEHXZ 004a6bcc     qt-mt323:qt-mt323.dll
 0005:00000bd0       __imp_?information@QMessageBox@@SAHPAVQWidget@@ABVQString@@1111HH@Z 004a6bd0     qt-mt323:qt-mt323.dll
 0005:00000bd4       __imp_??0QKeySequence@@QAE@H@Z 004a6bd4     qt-mt323:qt-mt323.dll
 0005:00000bd8       __imp_?compareItems@QGList@@MAEHPAX0@Z 004a6bd8     qt-mt323:qt-mt323.dll
 0005:00000bdc       __imp_?newItem@QPtrCollection@@MAEPAXPAX@Z 004a6bdc     qt-mt323:qt-mt323.dll
 0005:00000be0       __imp_?read@QGList@@MAEAAVQDataStream@@AAV2@AAPAX@Z 004a6be0     qt-mt323:qt-mt323.dll
 0005:00000be4       __imp_?write@QGList@@MBEAAVQDataStream@@AAV2@PAX@Z 004a6be4     qt-mt323:qt-mt323.dll
 0005:00000be8       __imp_?qDebug@@YAXPBDZZ    004a6be8     qt-mt323:qt-mt323.dll
 0005:00000bec       __imp_??4QString@@QAEAAV0@PBD@Z 004a6bec     qt-mt323:qt-mt323.dll
 0005:00000bf0       __imp_?length@QString@@QBEIXZ 004a6bf0     qt-mt323:qt-mt323.dll
 0005:00000bf4       __imp_?arg@QString@@QBE?AV1@DH@Z 004a6bf4     qt-mt323:qt-mt323.dll
 0005:00000bf8       __imp_?sprintf@QString@@QAAAAV1@PBDZZ 004a6bf8     qt-mt323:qt-mt323.dll
 0005:00000bfc       __imp_?contains@QString@@QBEHD_N@Z 004a6bfc     qt-mt323:qt-mt323.dll
 0005:00000c00       __imp_?remove@QString@@QAEAAV1@PBD@Z 004a6c00     qt-mt323:qt-mt323.dll
 0005:00000c04       __imp_??YQString@@QAEAAV0@ABV0@@Z 004a6c04     qt-mt323:qt-mt323.dll
 0005:00000c08       __imp_?ascii@QString@@QBEPBDXZ 004a6c08     qt-mt323:qt-mt323.dll
 0005:00000c0c       __imp_?startsWith@QString@@QBE_NABV1@@Z 004a6c0c     qt-mt323:qt-mt323.dll
 0005:00000c10       __imp_??8@YA_NABVQString@@PBD@Z 004a6c10     qt-mt323:qt-mt323.dll
 0005:00000c14       __imp_??0QHostAddress@@QAE@I@Z 004a6c14     qt-mt323:qt-mt323.dll
 0005:00000c18       __imp_??1QHostAddress@@UAE@XZ 004a6c18     qt-mt323:qt-mt323.dll
 0005:00000c1c       __imp_?toString@QHostAddress@@QBE?AVQString@@XZ 004a6c1c     qt-mt323:qt-mt323.dll
 0005:00000c20       __imp_??0QSocket@@QAE@PAVQObject@@PBD@Z 004a6c20     qt-mt323:qt-mt323.dll
 0005:00000c24       __imp_??1QSocket@@UAE@XZ   004a6c24     qt-mt323:qt-mt323.dll
 0005:00000c28       __imp_?canReadLine@QSocket@@QBE_NXZ 004a6c28     qt-mt323:qt-mt323.dll
 0005:00000c2c       __imp_?at@QSocket@@UAE_NK@Z 004a6c2c     qt-mt323:qt-mt323.dll
 0005:00000c30       __imp_?at@QSocket@@UBEKXZ  004a6c30     qt-mt323:qt-mt323.dll
 0005:00000c34       __imp_?atEnd@QSocket@@UBE_NXZ 004a6c34     qt-mt323:qt-mt323.dll
 0005:00000c38       __imp_?close@QSocket@@UAEXXZ 004a6c38     qt-mt323:qt-mt323.dll
 0005:00000c3c       __imp_?connectToHost@QSocket@@UAEXABVQString@@G@Z 004a6c3c     qt-mt323:qt-mt323.dll
 0005:00000c40       __imp_?flush@QSocket@@UAEXXZ 004a6c40     qt-mt323:qt-mt323.dll
 0005:00000c44       __imp_?getch@QSocket@@UAEHXZ 004a6c44     qt-mt323:qt-mt323.dll
 0005:00000c48       __imp_?open@QSocket@@UAE_NH@Z 004a6c48     qt-mt323:qt-mt323.dll
 0005:00000c4c       __imp_?putch@QSocket@@UAEHH@Z 004a6c4c     qt-mt323:qt-mt323.dll
 0005:00000c50       __imp_?readAll@QIODevice@@UAE?AV?$QMemArray@D@@XZ 004a6c50     qt-mt323:qt-mt323.dll
 0005:00000c54       __imp_?readBlock@QSocket@@UAEJPADK@Z 004a6c54     qt-mt323:qt-mt323.dll
 0005:00000c58       __imp_?readLine@QSocket@@UAE?AVQString@@XZ 004a6c58     qt-mt323:qt-mt323.dll
 0005:00000c5c       __imp_?readLine@QSocket@@UAEJPADK@Z 004a6c5c     qt-mt323:qt-mt323.dll
 0005:00000c60       __imp_?setSocket@QSocket@@UAEXH@Z 004a6c60     qt-mt323:qt-mt323.dll
 0005:00000c64       __imp_?setSocketDevice@QSocket@@UAEXPAVQSocketDevice@@@Z 004a6c64     qt-mt323:qt-mt323.dll
 0005:00000c68       __imp_?size@QSocket@@UBEKXZ 004a6c68     qt-mt323:qt-mt323.dll
 0005:00000c6c       __imp_?sn_read@QSocket@@MAEX_N@Z 004a6c6c     qt-mt323:qt-mt323.dll
 0005:00000c70       __imp_?sn_write@QSocket@@MAEXXZ 004a6c70     qt-mt323:qt-mt323.dll
 0005:00000c74       __imp_?ungetch@QSocket@@UAEHH@Z 004a6c74     qt-mt323:qt-mt323.dll
 0005:00000c78       __imp_?writeBlock@QSocket@@UAEJPBDK@Z 004a6c78     qt-mt323:qt-mt323.dll
 0005:00000c7c       __imp_??0QApplication@@QAE@AAHPAPAD@Z 004a6c7c     qt-mt323:qt-mt323.dll
 0005:00000c80       __imp_??1QApplication@@UAE@XZ 004a6c80     qt-mt323:qt-mt323.dll
 0005:00000c84       __imp_?setMainWidget@QApplication@@UAEXPAVQWidget@@@Z 004a6c84     qt-mt323:qt-mt323.dll
 0005:00000c88       __imp_?exec@QApplication@@QAEHXZ 004a6c88     qt-mt323:qt-mt323.dll
 0005:00000c8c       __imp_??9@YA_NABVQString@@0@Z 004a6c8c     qt-mt323:qt-mt323.dll
 0005:00000c90       __imp_??A?$QValueList@VQString@@@@QAEAAVQString@@I@Z 004a6c90     qt-mt323:qt-mt323.dll
 0005:00000c94       __imp_?count@?$QValueList@VQString@@@@QBEIXZ 004a6c94     qt-mt323:qt-mt323.dll
 0005:00000c98       __imp_?type@QEvent@@QBE?AW4Type@1@XZ 004a6c98     qt-mt323:qt-mt323.dll
 0005:00000c9c       __imp_??0QCustomEvent@@QAE@H@Z 004a6c9c     qt-mt323:qt-mt323.dll
 0005:00000ca0       __imp_??1QCustomEvent@@UAE@XZ 004a6ca0     qt-mt323:qt-mt323.dll
 0005:00000ca4       __imp_??0QObject@@QAE@PAV0@PBD@Z 004a6ca4     qt-mt323:qt-mt323.dll
 0005:00000ca8       __imp_??1QObject@@UAE@XZ   004a6ca8     qt-mt323:qt-mt323.dll
 0005:00000cac       __imp_?split@QStringList@@SA?AV1@ABVQString@@0_N@Z 004a6cac     qt-mt323:qt-mt323.dll
 0005:00000cb0       __imp_?split@QStringList@@SA?AV1@ABVQChar@@ABVQString@@_N@Z 004a6cb0     qt-mt323:qt-mt323.dll
 0005:00000cb4       __imp_?postEvent@QApplication@@SAXPAVQObject@@PAVQEvent@@@Z 004a6cb4     qt-mt323:qt-mt323.dll
 0005:00000cb8       __imp_?qstrcmp@@YAHPBD0@Z  004a6cb8     qt-mt323:qt-mt323.dll
 0005:00000cbc       __imp_?fromLatin1@QString@@SA?AV1@PBDH@Z 004a6cbc     qt-mt323:qt-mt323.dll
 0005:00000cc0       __imp_?fromUtf8@QString@@SA?AV1@PBDH@Z 004a6cc0     qt-mt323:qt-mt323.dll
 0005:00000cc4       __imp_?qt_cast@QDialog@@UAEPAXPBD@Z 004a6cc4     qt-mt323:qt-mt323.dll
 0005:00000cc8       __imp_?qt_invoke@QDialog@@UAE_NHPAUQUObject@@@Z 004a6cc8     qt-mt323:qt-mt323.dll
 0005:00000ccc       __imp_?qt_emit@QDialog@@UAE_NHPAUQUObject@@@Z 004a6ccc     qt-mt323:qt-mt323.dll
 0005:00000cd0       __imp_?qt_property@QDialog@@UAE_NHHPAVQVariant@@@Z 004a6cd0     qt-mt323:qt-mt323.dll
 0005:00000cd4       __imp_?staticMetaObject@QDialog@@SAPAVQMetaObject@@XZ 004a6cd4     qt-mt323:qt-mt323.dll
 0005:00000cd8       __imp_?slotOffset@QMetaObject@@QBEHXZ 004a6cd8     qt-mt323:qt-mt323.dll
 0005:00000cdc       __imp_?new_metaobject@QMetaObject@@SAPAV1@PBDPAV1@QBUQMetaData@@H2HQBVQMetaProperty@@HQBUQMetaEnum@@HQBUQClassInfo@@H@Z 004a6cdc     qt-mt323:qt-mt323.dll
 0005:00000ce0       __imp_??0QMetaObjectCleanUp@@QAE@PBDP6APAVQMetaObject@@XZ@Z 004a6ce0     qt-mt323:qt-mt323.dll
 0005:00000ce4       __imp_??1QMetaObjectCleanUp@@QAE@XZ 004a6ce4     qt-mt323:qt-mt323.dll
 0005:00000ce8       __imp_?setMetaObject@QMetaObjectCleanUp@@QAEXAAPAVQMetaObject@@@Z 004a6ce8     qt-mt323:qt-mt323.dll
 0005:00000cec       __imp_?translate@QApplication@@QBE?AVQString@@PBD00W4Encoding@1@@Z 004a6cec     qt-mt323:qt-mt323.dll
 0005:00000cf0       __imp_?qt_cast@QMainWindow@@UAEPAXPBD@Z 004a6cf0     qt-mt323:qt-mt323.dll
 0005:00000cf4       __imp_?qt_invoke@QMainWindow@@UAE_NHPAUQUObject@@@Z 004a6cf4     qt-mt323:qt-mt323.dll
 0005:00000cf8       __imp_?qt_emit@QMainWindow@@UAE_NHPAUQUObject@@@Z 004a6cf8     qt-mt323:qt-mt323.dll
 0005:00000cfc       __imp_?qt_property@QMainWindow@@UAE_NHHPAVQVariant@@@Z 004a6cfc     qt-mt323:qt-mt323.dll
 0005:00000d00       __imp_?staticMetaObject@QMainWindow@@SAPAVQMetaObject@@XZ 004a6d00     qt-mt323:qt-mt323.dll
 0005:00000d04       __imp_?get@QUType_ptr@@QAEAAPAXPAUQUObject@@@Z 004a6d04     qt-mt323:qt-mt323.dll
 0005:00000d08       __imp_?get@QUType_bool@@QAEAA_NPAUQUObject@@@Z 004a6d08     qt-mt323:qt-mt323.dll
 0005:00000d0c       __imp_?get@QUType_QString@@QAEAAVQString@@PAUQUObject@@@Z 004a6d0c     qt-mt323:qt-mt323.dll
 0005:00000d10       __imp_?static_QUType_ptr@@3UQUType_ptr@@A 004a6d10     qt-mt323:qt-mt323.dll
 0005:00000d14       __imp_?static_QUType_bool@@3UQUType_bool@@A 004a6d14     qt-mt323:qt-mt323.dll
 0005:00000d18       __imp_?static_QUType_QString@@3UQUType_QString@@A 004a6d18     qt-mt323:qt-mt323.dll
 0005:00000d1c       __imp_??0QString@@QAE@ABV0@@Z 004a6d1c     qt-mt323:qt-mt323.dll
 0005:00000d20       __imp_?signalsBlocked@QObject@@QBE_NXZ 004a6d20     qt-mt323:qt-mt323.dll
 0005:00000d24       __imp_?receivers@QObject@@IBEPAVQConnectionList@@H@Z 004a6d24     qt-mt323:qt-mt323.dll
 0005:00000d28       __imp_?activate_signal@QObject@@IAEXHVQString@@@Z 004a6d28     qt-mt323:qt-mt323.dll
 0005:00000d2c       __imp_?activate_signal_bool@QObject@@IAEXH_N@Z 004a6d2c     qt-mt323:qt-mt323.dll
 0005:00000d30       __imp_?activate_signal@QObject@@IAEXPAVQConnectionList@@PAUQUObject@@@Z 004a6d30     qt-mt323:qt-mt323.dll
 0005:00000d34       __imp_?qt_cast@QSocket@@UAEPAXPBD@Z 004a6d34     qt-mt323:qt-mt323.dll
 0005:00000d38       __imp_?qt_invoke@QSocket@@UAE_NHPAUQUObject@@@Z 004a6d38     qt-mt323:qt-mt323.dll
 0005:00000d3c       __imp_?qt_emit@QSocket@@UAE_NHPAUQUObject@@@Z 004a6d3c     qt-mt323:qt-mt323.dll
 0005:00000d40       __imp_?qt_property@QSocket@@UAE_NHHPAVQVariant@@@Z 004a6d40     qt-mt323:qt-mt323.dll
 0005:00000d44       __imp_?staticMetaObject@QSocket@@SAPAVQMetaObject@@XZ 004a6d44     qt-mt323:qt-mt323.dll
 0005:00000d48       __imp_?signalOffset@QMetaObject@@QBEHXZ 004a6d48     qt-mt323:qt-mt323.dll
 0005:00000d4c       __imp_??0QUObject@@QAE@XZ  004a6d4c     qt-mt323:qt-mt323.dll
 0005:00000d50       __imp_??1QUObject@@QAE@XZ  004a6d50     qt-mt323:qt-mt323.dll
 0005:00000d54       __imp_?set@QUType_ptr@@QAEXPAUQUObject@@PBX@Z 004a6d54     qt-mt323:qt-mt323.dll
 0005:00000d58       __imp_?set@QUType_bool@@QAEXPAUQUObject@@_N@Z 004a6d58     qt-mt323:qt-mt323.dll
 0005:00000d5c       __imp_?set@QUType_int@@QAEXPAUQUObject@@H@Z 004a6d5c     qt-mt323:qt-mt323.dll
 0005:00000d60       __imp_?get@QUType_int@@QAEAAHPAUQUObject@@@Z 004a6d60     qt-mt323:qt-mt323.dll
 0005:00000d64       __imp_?set@QUType_QString@@QAEXPAUQUObject@@ABVQString@@@Z 004a6d64     qt-mt323:qt-mt323.dll
 0005:00000d68       __imp_?static_QUType_int@@3UQUType_int@@A 004a6d68     qt-mt323:qt-mt323.dll
 0005:00000d6c       __imp_?qt_cast@QObject@@UAEPAXPBD@Z 004a6d6c     qt-mt323:qt-mt323.dll
 0005:00000d70       __imp_?qt_invoke@QObject@@UAE_NHPAUQUObject@@@Z 004a6d70     qt-mt323:qt-mt323.dll
 0005:00000d74       __imp_?qt_emit@QObject@@UAE_NHPAUQUObject@@@Z 004a6d74     qt-mt323:qt-mt323.dll
 0005:00000d78       __imp_?qt_property@QObject@@UAE_NHHPAVQVariant@@@Z 004a6d78     qt-mt323:qt-mt323.dll
 0005:00000d7c       __imp_?staticMetaObject@QObject@@SAPAVQMetaObject@@XZ 004a6d7c     qt-mt323:qt-mt323.dll
 0005:00000d80       __imp_?addWidget@QBoxLayout@@QAEXPAVQWidget@@HH@Z 004a6d80     qt-mt323:qt-mt323.dll
 0005:00000d84       __imp_?setResizeMode@QLayout@@QAEXW4ResizeMode@1@@Z 004a6d84     qt-mt323:qt-mt323.dll
 0005:00000d88       __imp_??1QSpacerItem@@UAE@XZ 004a6d88     qt-mt323:qt-mt323.dll
 0005:00000d8c       __imp_??0QSpacerItem@@QAE@HHW4SizeType@QSizePolicy@@0@Z 004a6d8c     qt-mt323:qt-mt323.dll
 0005:00000d90       __imp_?setScaledContents@QLabel@@QAEX_N@Z 004a6d90     qt-mt323:qt-mt323.dll
 0005:00000d94       __imp_??1QLabel@@UAE@XZ    004a6d94     qt-mt323:qt-mt323.dll
 0005:00000d98       __imp_??0QLabel@@QAE@PAVQWidget@@PBDI@Z 004a6d98     qt-mt323:qt-mt323.dll
 0005:00000d9c       __imp_??1QFrame@@UAE@XZ    004a6d9c     qt-mt323:qt-mt323.dll
 0005:00000da0       __imp_?setFrameShadow@QFrame@@QAEXW4Shadow@1@@Z 004a6da0     qt-mt323:qt-mt323.dll
 0005:00000da4       __imp_?setFrameShape@QFrame@@QAEXW4Shape@1@@Z 004a6da4     qt-mt323:qt-mt323.dll
 0005:00000da8       __imp_?mouseMoveEvent@QButton@@MAEXPAVQMouseEvent@@@Z 004a6da8     qt-mt323:qt-mt323.dll
 0005:00000dac       __imp_?mouseDoubleClickEvent@QWidget@@MAEXPAVQMouseEvent@@@Z 004a6dac     qt-mt323:qt-mt323.dll
 0005:00000db0       __imp_?minimumSizeHint@QWidget@@UBE?AVQSize@@XZ 004a6db0     qt-mt323:qt-mt323.dll
 0005:00000db4       __imp_?minimumSizeHint@QLabel@@UBE?AVQSize@@XZ 004a6db4     qt-mt323:qt-mt323.dll
 0005:00000db8       __imp_?minimumSize@QSpacerItem@@UBE?AVQSize@@XZ 004a6db8     qt-mt323:qt-mt323.dll
 0005:00000dbc       __imp_?minimumSize@QBoxLayout@@UBE?AVQSize@@XZ 004a6dbc     qt-mt323:qt-mt323.dll
 0005:00000dc0       __imp_?metric@QWidget@@MBEHH@Z 004a6dc0     qt-mt323:qt-mt323.dll
 0005:00000dc4       __imp_?metaObject@QVBoxLayout@@UBEPAVQMetaObject@@XZ 004a6dc4     qt-mt323:qt-mt323.dll
 0005:00000dc8       __imp_?metaObject@QPushButton@@UBEPAVQMetaObject@@XZ 004a6dc8     qt-mt323:qt-mt323.dll
 0005:00000dcc       __imp_??0QFrame@@QAE@PAVQWidget@@PBDI@Z 004a6dcc     qt-mt323:qt-mt323.dll
 0005:00000dd0       __imp_??1QPushButton@@UAE@XZ 004a6dd0     qt-mt323:qt-mt323.dll
 0005:00000dd4       __imp_??0QPushButton@@QAE@PAVQWidget@@PBD@Z 004a6dd4     qt-mt323:qt-mt323.dll
 0005:00000dd8       __imp_?setSizeGripEnabled@QDialog@@QAEX_N@Z 004a6dd8     qt-mt323:qt-mt323.dll
 0005:00000ddc       __imp_?metaObject@QLabel@@UBEPAVQMetaObject@@XZ 004a6ddc     qt-mt323:qt-mt323.dll
 0005:00000de0       __imp_?metaObject@QHBoxLayout@@UBEPAVQMetaObject@@XZ 004a6de0     qt-mt323:qt-mt323.dll
 0005:00000de4       __imp_?metaObject@QFrame@@UBEPAVQMetaObject@@XZ 004a6de4     qt-mt323:qt-mt323.dll
 0005:00000de8       __imp_?maximumSize@QSpacerItem@@UBE?AVQSize@@XZ 004a6de8     qt-mt323:qt-mt323.dll
 0005:00000dec       __imp_?maximumSize@QBoxLayout@@UBE?AVQSize@@XZ 004a6dec     qt-mt323:qt-mt323.dll
 0005:00000df0       __imp_?leaveEvent@QWidget@@MAEXPAVQEvent@@@Z 004a6df0     qt-mt323:qt-mt323.dll
 0005:00000df4       __imp_?layout@QLayoutItem@@UAEPAVQLayout@@XZ 004a6df4     qt-mt323:qt-mt323.dll
 0005:00000df8       __imp_?layout@QLayout@@UAEPAV1@XZ 004a6df8     qt-mt323:qt-mt323.dll
 0005:00000dfc       __imp_?keyReleaseEvent@QWidget@@MAEXPAVQKeyEvent@@@Z 004a6dfc     qt-mt323:qt-mt323.dll
 0005:00000e00       __imp_?keyReleaseEvent@QButton@@MAEXPAVQKeyEvent@@@Z 004a6e00     qt-mt323:qt-mt323.dll
 0005:00000e04       __imp_?keyPressEvent@QWidget@@MAEXPAVQKeyEvent@@@Z 004a6e04     qt-mt323:qt-mt323.dll
 0005:00000e08       __imp_?keyPressEvent@QDialog@@MAEXPAVQKeyEvent@@@Z 004a6e08     qt-mt323:qt-mt323.dll
 0005:00000e0c       __imp_?keyPressEvent@QButton@@MAEXPAVQKeyEvent@@@Z 004a6e0c     qt-mt323:qt-mt323.dll
 0005:00000e10       __imp_?iterator@QLayoutItem@@UAE?AVQLayoutIterator@@XZ 004a6e10     qt-mt323:qt-mt323.dll
 0005:00000e14       __imp_?iterator@QBoxLayout@@UAE?AVQLayoutIterator@@XZ 004a6e14     qt-mt323:qt-mt323.dll
 0005:00000e18       __imp_?isEmpty@QSpacerItem@@UBE_NXZ 004a6e18     qt-mt323:qt-mt323.dll
 0005:00000e1c       __imp_?isEmpty@QLayout@@UBE_NXZ 004a6e1c     qt-mt323:qt-mt323.dll
 0005:00000e20       __imp_?invalidate@QLayoutItem@@UAEXXZ 004a6e20     qt-mt323:qt-mt323.dll
 0005:00000e24       __imp_?invalidate@QBoxLayout@@UAEXXZ 004a6e24     qt-mt323:qt-mt323.dll
 0005:00000e28       __imp_?insertChild@QObject@@UAEXPAV1@@Z 004a6e28     qt-mt323:qt-mt323.dll
 0005:00000e2c       __imp_?imStartEvent@QWidget@@MAEXPAVQIMEvent@@@Z 004a6e2c     qt-mt323:qt-mt323.dll
 0005:00000e30       __imp_?imEndEvent@QWidget@@MAEXPAVQIMEvent@@@Z 004a6e30     qt-mt323:qt-mt323.dll
 0005:00000e34       __imp_?imComposeEvent@QWidget@@MAEXPAVQIMEvent@@@Z 004a6e34     qt-mt323:qt-mt323.dll
 0005:00000e38       __imp_?hitButton@QButton@@MBE_NABVQPoint@@@Z 004a6e38     qt-mt323:qt-mt323.dll
 0005:00000e3c       __imp_?hideEvent@QWidget@@MAEXPAVQHideEvent@@@Z 004a6e3c     qt-mt323:qt-mt323.dll
 0005:00000e40       __imp_?hide@QWidget@@UAEXXZ 004a6e40     qt-mt323:qt-mt323.dll
 0005:00000e44       __imp_?hide@QDialog@@UAEXXZ 004a6e44     qt-mt323:qt-mt323.dll
 0005:00000e48       __imp_?heightForWidth@QWidget@@UBEHH@Z 004a6e48     qt-mt323:qt-mt323.dll
 0005:00000e4c       __imp_?heightForWidth@QLayoutItem@@UBEHH@Z 004a6e4c     qt-mt323:qt-mt323.dll
 0005:00000e50       __imp_?heightForWidth@QLabel@@UBEHH@Z 004a6e50     qt-mt323:qt-mt323.dll
 0005:00000e54       __imp_?heightForWidth@QBoxLayout@@UBEHH@Z 004a6e54     qt-mt323:qt-mt323.dll
 0005:00000e58       __imp_?hasHeightForWidth@QLayoutItem@@UBE_NXZ 004a6e58     qt-mt323:qt-mt323.dll
 0005:00000e5c       __imp_?hasHeightForWidth@QBoxLayout@@UBE_NXZ 004a6e5c     qt-mt323:qt-mt323.dll
 0005:00000e60       __imp_?handle@QPaintDevice@@UBEPAUHDC__@@XZ 004a6e60     qt-mt323:qt-mt323.dll
 0005:00000e64       __imp_?geometry@QSpacerItem@@UBE?AVQRect@@XZ 004a6e64     qt-mt323:qt-mt323.dll
 0005:00000e68       __imp_?geometry@QLayout@@UBE?AVQRect@@XZ 004a6e68     qt-mt323:qt-mt323.dll
 0005:00000e6c       __imp_?frameChanged@QFrame@@MAEXXZ 004a6e6c     qt-mt323:qt-mt323.dll
 0005:00000e70       __imp_?fontMet@QPaintDevice@@MBEHPAVQFont@@HPBDH@Z 004a6e70     qt-mt323:qt-mt323.dll
 0005:00000e74       __imp_?fontInf@QPaintDevice@@MBEHPAVQFont@@H@Z 004a6e74     qt-mt323:qt-mt323.dll
 0005:00000e78       __imp_?fontChange@QWidget@@MAEXABVQFont@@@Z 004a6e78     qt-mt323:qt-mt323.dll
 0005:00000e7c       __imp_?fontChange@QLabel@@MAEXABVQFont@@@Z 004a6e7c     qt-mt323:qt-mt323.dll
 0005:00000e80       __imp_?focusOutEvent@QWidget@@MAEXPAVQFocusEvent@@@Z 004a6e80     qt-mt323:qt-mt323.dll
 0005:00000e84       __imp_?focusOutEvent@QPushButton@@MAEXPAVQFocusEvent@@@Z 004a6e84     qt-mt323:qt-mt323.dll
 0005:00000e88       __imp_?focusNextPrevChild@QWidget@@MAE_N_N@Z 004a6e88     qt-mt323:qt-mt323.dll
 0005:00000e8c       __imp_?focusInEvent@QWidget@@MAEXPAVQFocusEvent@@@Z 004a6e8c     qt-mt323:qt-mt323.dll
 0005:00000e90       __imp_?focusInEvent@QPushButton@@MAEXPAVQFocusEvent@@@Z 004a6e90     qt-mt323:qt-mt323.dll
 0005:00000e94       __imp_?expanding@QSpacerItem@@UBE?AW4ExpandData@QSizePolicy@@XZ 004a6e94     qt-mt323:qt-mt323.dll
 0005:00000e98       __imp_?expanding@QBoxLayout@@UBE?AW4ExpandData@QSizePolicy@@XZ 004a6e98     qt-mt323:qt-mt323.dll
 0005:00000e9c       __imp_?eventFilter@QObject@@UAE_NPAV1@PAVQEvent@@@Z 004a6e9c     qt-mt323:qt-mt323.dll
 0005:00000ea0       __imp_?eventFilter@QLayout@@MAE_NPAVQObject@@PAVQEvent@@@Z 004a6ea0     qt-mt323:qt-mt323.dll
 0005:00000ea4       __imp_?eventFilter@QDialog@@MAE_NPAVQObject@@PAVQEvent@@@Z 004a6ea4     qt-mt323:qt-mt323.dll
 0005:00000ea8       __imp_?event@QWidget@@MAE_NPAVQEvent@@@Z 004a6ea8     qt-mt323:qt-mt323.dll
 0005:00000eac       __imp_?event@QObject@@UAE_NPAVQEvent@@@Z 004a6eac     qt-mt323:qt-mt323.dll
 0005:00000eb0       __imp_?enterEvent@QWidget@@MAEXPAVQEvent@@@Z 004a6eb0     qt-mt323:qt-mt323.dll
 0005:00000eb4       __imp_?enabledChange@QWidget@@MAEX_N@Z 004a6eb4     qt-mt323:qt-mt323.dll
 0005:00000eb8       __imp_?enabledChange@QButton@@MAEX_N@Z 004a6eb8     qt-mt323:qt-mt323.dll
 0005:00000ebc       __imp_?dropEvent@QWidget@@MAEXPAVQDropEvent@@@Z 004a6ebc     qt-mt323:qt-mt323.dll
 0005:00000ec0       __imp_?drawFrame@QFrame@@MAEXPAVQPainter@@@Z 004a6ec0     qt-mt323:qt-mt323.dll
 0005:00000ec4       __imp_?drawContents@QLabel@@MAEXPAVQPainter@@@Z 004a6ec4     qt-mt323:qt-mt323.dll
 0005:00000ec8       __imp_?drawContents@QFrame@@MAEXPAVQPainter@@@Z 004a6ec8     qt-mt323:qt-mt323.dll
 0005:00000ecc       __imp_?drawButtonLabel@QPushButton@@MAEXPAVQPainter@@@Z 004a6ecc     qt-mt323:qt-mt323.dll
 0005:00000ed0       __imp_?drawButton@QPushButton@@MAEXPAVQPainter@@@Z 004a6ed0     qt-mt323:qt-mt323.dll
 0005:00000ed4       __imp_?dragMoveEvent@QWidget@@MAEXPAVQDragMoveEvent@@@Z 004a6ed4     qt-mt323:qt-mt323.dll
 0005:00000ed8       __imp_?dragLeaveEvent@QWidget@@MAEXPAVQDragLeaveEvent@@@Z 004a6ed8     qt-mt323:qt-mt323.dll
 0005:00000edc       __imp_?dragEnterEvent@QWidget@@MAEXPAVQDragEnterEvent@@@Z 004a6edc     qt-mt323:qt-mt323.dll
 0005:00000ee0       __imp_?done@QDialog@@MAEXH@Z 004a6ee0     qt-mt323:qt-mt323.dll
 0005:00000ee4       __imp_?disconnectNotify@QObject@@MAEXPBD@Z 004a6ee4     qt-mt323:qt-mt323.dll
 0005:00000ee8       __imp_?destroy@QWidget@@MAEX_N0@Z 004a6ee8     qt-mt323:qt-mt323.dll
 0005:00000eec       __imp_?customWhatsThis@QWidget@@UBE_NXZ 004a6eec     qt-mt323:qt-mt323.dll
 0005:00000ef0       __imp_?customEvent@QObject@@MAEXPAVQCustomEvent@@@Z 004a6ef0     qt-mt323:qt-mt323.dll
 0005:00000ef4       __imp_?create@QWidget@@MAEXPAUHWND__@@_N1@Z 004a6ef4     qt-mt323:qt-mt323.dll
 0005:00000ef8       __imp_?contextMenuEvent@QWidget@@MAEXPAVQContextMenuEvent@@@Z 004a6ef8     qt-mt323:qt-mt323.dll
 0005:00000efc       __imp_?contextMenuEvent@QDialog@@MAEXPAVQContextMenuEvent@@@Z 004a6efc     qt-mt323:qt-mt323.dll
 0005:00000f00       __imp_?connectNotify@QObject@@MAEXPBD@Z 004a6f00     qt-mt323:qt-mt323.dll
 0005:00000f04       __imp_?cmd@QPaintDevice@@MAE_NHPAVQPainter@@PATQPDevCmdParam@@@Z 004a6f04     qt-mt323:qt-mt323.dll
 0005:00000f08       __imp_?closeEvent@QWidget@@MAEXPAVQCloseEvent@@@Z 004a6f08     qt-mt323:qt-mt323.dll
 0005:00000f0c       __imp_?closeEvent@QDialog@@MAEXPAVQCloseEvent@@@Z 004a6f0c     qt-mt323:qt-mt323.dll
 0005:00000f10       __imp_?close@QWidget@@UAE_N_N@Z 004a6f10     qt-mt323:qt-mt323.dll
 0005:00000f14       __imp_?className@QVBoxLayout@@UBEPBDXZ 004a6f14     qt-mt323:qt-mt323.dll
 0005:00000f18       __imp_?className@QPushButton@@UBEPBDXZ 004a6f18     qt-mt323:qt-mt323.dll
 0005:00000f1c       __imp_?className@QLabel@@UBEPBDXZ 004a6f1c     qt-mt323:qt-mt323.dll
 0005:00000f20       __imp_?className@QHBoxLayout@@UBEPBDXZ 004a6f20     qt-mt323:qt-mt323.dll
 0005:00000f24       __imp_?className@QFrame@@UBEPBDXZ 004a6f24     qt-mt323:qt-mt323.dll
 0005:00000f28       __imp_?childEvent@QObject@@MAEXPAVQChildEvent@@@Z 004a6f28     qt-mt323:qt-mt323.dll
 0005:00000f2c       __imp_?childEvent@QLayout@@MAEXPAVQChildEvent@@@Z 004a6f2c     qt-mt323:qt-mt323.dll
 0005:00000f30       __imp_?checkConnectArgs@QObject@@MAE_NPBDPBV1@0@Z 004a6f30     qt-mt323:qt-mt323.dll
 0005:00000f34       __imp_?adjustSize@QWidget@@UAEXXZ 004a6f34     qt-mt323:qt-mt323.dll
 0005:00000f38       __imp_?addItem@QBoxLayout@@UAEXPAVQLayoutItem@@@Z 004a6f38     qt-mt323:qt-mt323.dll
 0005:00000f3c       __imp_?accept@QDialog@@MAEXXZ 004a6f3c     qt-mt323:qt-mt323.dll
 0005:00000f40       __imp_??1QVBoxLayout@@UAE@XZ 004a6f40     qt-mt323:qt-mt323.dll
 0005:00000f44       __imp_??0QVBoxLayout@@QAE@PAVQWidget@@HHPBD@Z 004a6f44     qt-mt323:qt-mt323.dll
 0005:00000f48       __imp_?minimumSizeHint@QDialog@@UBE?AVQSize@@XZ 004a6f48     qt-mt323:qt-mt323.dll
 0005:00000f4c       __imp_?resize@QDialog@@QAEXABVQSize@@@Z 004a6f4c     qt-mt323:qt-mt323.dll
 0005:00000f50       __imp_??1QDialog@@UAE@XZ   004a6f50     qt-mt323:qt-mt323.dll
 0005:00000f54       __imp_??0QDialog@@QAE@PAVQWidget@@PBD_NI@Z 004a6f54     qt-mt323:qt-mt323.dll
 0005:00000f58       __imp_?clearWState@QWidget@@IAEXI@Z 004a6f58     qt-mt323:qt-mt323.dll
 0005:00000f5c       __imp_?setMinimumSize@QWidget@@QAEXABVQSize@@@Z 004a6f5c     qt-mt323:qt-mt323.dll
 0005:00000f60       __imp_?setName@QWidget@@UAEXPBD@Z 004a6f60     qt-mt323:qt-mt323.dll
 0005:00000f64       __imp_?hasHeightForWidth@QSizePolicy@@QBE_NXZ 004a6f64     qt-mt323:qt-mt323.dll
 0005:00000f68       __imp_??0QSizePolicy@@QAE@W4SizeType@0@0EE_N@Z 004a6f68     qt-mt323:qt-mt323.dll
 0005:00000f6c       __imp_?connect@QObject@@SA_NPBV1@PBD01@Z 004a6f6c     qt-mt323:qt-mt323.dll
 0005:00000f70       __imp_??1QPixmap@@UAE@XZ   004a6f70     qt-mt323:qt-mt323.dll
 0005:00000f74       __imp_??0QPixmap@@QAE@QAPBD@Z 004a6f74     qt-mt323:qt-mt323.dll
 0005:00000f78       __imp_??0QColor@@QAE@HHH@Z 004a6f78     qt-mt323:qt-mt323.dll
 0005:00000f7c       __imp_?expandedTo@QSize@@QBE?AV1@ABV1@@Z 004a6f7c     qt-mt323:qt-mt323.dll
 0005:00000f80       __imp_??0QSize@@QAE@HH@Z   004a6f80     qt-mt323:qt-mt323.dll
 0005:00000f84       __imp_??1QString@@QAE@XZ   004a6f84     qt-mt323:qt-mt323.dll
 0005:00000f88       __imp_??1QHBoxLayout@@UAE@XZ 004a6f88     qt-mt323:qt-mt323.dll
 0005:00000f8c       __imp_?qt_invoke@QWidget@@UAE_NHPAUQUObject@@@Z 004a6f8c     qt-mt323:qt-mt323.dll
 0005:00000f90       __imp_??0QHBoxLayout@@QAE@PAVQWidget@@HHPBD@Z 004a6f90     qt-mt323:qt-mt323.dll
 0005:00000f94       __imp_?polish@QTextEdit@@UAEXXZ 004a6f94     qt-mt323:qt-mt323.dll
 0005:00000f98       __imp_?deleteData@QGArray@@MAEXPAUarray_data@1@@Z 004a6f98     qt-mt323:qt-mt323.dll
 0005:00000f9c       __imp_?newData@QGArray@@MAEPAUarray_data@1@XZ 004a6f9c     qt-mt323:qt-mt323.dll
 0005:00000fa0       __imp_??1QGArray@@MAE@XZ   004a6fa0     qt-mt323:qt-mt323.dll
 0005:00000fa4       __imp_?qWinMain@@YAXPAUHINSTANCE__@@0PADHAAHAAV?$QMemArray@PAD@@@Z 004a6fa4     qt-mt323:qt-mt323.dll
 0005:00000fa8       __imp_??0QGArray@@IAE@H@Z  004a6fa8     qt-mt323:qt-mt323.dll
 0005:00000fac       __imp_?duplicate@QGArray@@IAEAAV1@ABV1@@Z 004a6fac     qt-mt323:qt-mt323.dll
 0005:00000fb0       __imp_??_7?$QMemArray@H@@6B@ 004a6fb0     qt-mt323:qt-mt323.dll
 0005:00000fb4       __imp_??_7?$QMemArray@_N@@6B@ 004a6fb4     qt-mt323:qt-mt323.dll
 0005:00000fb8       __imp_??_7?$QMemArray@D@@6B@ 004a6fb8     qt-mt323:qt-mt323.dll
 0005:00000fbc       __imp_??_7?$QMemArray@VQPoint@@@@6B@ 004a6fbc     qt-mt323:qt-mt323.dll
 0005:00000fc0       __imp_??_7?$QPtrList@D@@6B@ 004a6fc0     qt-mt323:qt-mt323.dll
