 V3CapLogDB

 Timestamp is 5e9db90e (Mon Apr 20 16:00:30 2020)

 Preferred load address is 00400000

 Start         Length     Name                   Class
 0001:00000000 00017b95H .textbss                DATA
 0002:00000000 0000281aH .text                   CODE
 0002:00002820 00001c8cH .text$di                CODE
 0002:000044b0 0002e41cH .text$mn                CODE
 0002:000328d0 00002877H .text$x                 CODE
 0002:00035150 00001232H .text$yd                CODE
 0003:00000000 00000104H .CRT$XCA                DATA
 0003:00000104 00000104H .CRT$XCAA               DATA
 0003:00000208 000001dfH .CRT$XCU                DATA
 0003:000003e8 00000104H .CRT$XCZ                DATA
 0003:000004ec 00000104H .CRT$XIA                DATA
 0003:000005f0 00000104H .CRT$XIAA               DATA
 0003:000006f4 00000104H .CRT$XIC                DATA
 0003:000007f8 00000104H .CRT$XIY                DATA
 0003:000008fc 00000104H .CRT$XIZ                DATA
 0003:00000a00 00004d15H .rdata                  DATA
 0003:00005718 0000016eH .rdata$debug            DATA
 0003:00005888 0000043cH .rdata$r                DATA
 0003:00005cc4 00000104H .rtc$IAA                DATA
 0003:00005dc8 00000156H .rtc$IMZ                DATA
 0003:00005f20 00000104H .rtc$IZZ                DATA
 0003:00006024 00000104H .rtc$TAA                DATA
 0003:00006128 00000156H .rtc$TMZ                DATA
 0003:00006280 00000104H .rtc$TZZ                DATA
 0003:00006388 000018ebH .xdata$x                DATA
 0003:00007c73 00000000H .edata                  DATA
 0004:00000000 0000027cH .data                   DATA
 0004:0000027c 00000262H .data$r                 DATA
 0004:000004e0 0000dec8H .bss                    DATA
 0005:00000000 000005bcH .idata$5                DATA
 0005:000005bc 000000c8H .idata$2                DATA
 0005:00000684 00000014H .idata$3                DATA
 0005:00000698 000005bcH .idata$4                DATA
 0005:00000c54 000010feH .idata$6                DATA
 0006:00000000 00000400H .rsrc$01                DATA
 0006:00000400 000057f6H .rsrc$02                DATA

  Address         Publics by Value              Rva+Base       Lib:Object

 0000:00000000       ___guard_fids_count        00000000     <absolute>
 0000:00000000       __except_list              00000000     <absolute>
 0000:00000000       ___safe_se_handler_table   00000000     <absolute>
 0000:00000000       ___guard_fids_table        00000000     <absolute>
 0000:00000000       ___guard_flags             00000000     <absolute>
 0000:00000000       ___safe_se_handler_count   00000000     <absolute>
 0000:00009876       __ldused                   00009876     <absolute>
 0000:00009876       __fltused                  00009876     <absolute>
 0000:00000000       ___ImageBase               00400000     <linker-defined>
 0001:00000000       __enc$textbss$begin        00401000     <linker-defined>
 0001:00017b95       __enc$textbss$end          00418b95     <linker-defined>
 0002:00002369       _HtmlHelpA@16              0041b369 f   htmlhelp:init.obj
 0002:0000249e       _HtmlHelpW@16              0041b49e f   htmlhelp:init.obj
 0002:000044b0       _GetBNCSConfigDirectory    0041d4b0 f   bncs_gcd.obj
 0002:00004660       _GetBNCSSystemDirectory    0041d660 f   bncs_gcd.obj
 0002:00004810       _GetBNCSTempDirectory      0041d810 f   bncs_gcd.obj
 0002:000049b0       _GetV4Directory            0041d9b0 f   bncs_gcd.obj
 0002:00004bf0       ?About_AboutDialogProc@@YGJPAUHWND__@@GIJ@Z 0041dbf0 f   MRABOUT.obj
 0002:00004d50       ?About_About@@YAXXZ        0041dd50 f   MRABOUT.obj
 0002:00004db0       ?About_Path@@YAXXZ         0041ddb0 f   MRABOUT.obj
 0002:00004e90       ?DefaultAdaptor_Path@@YAXXZ 0041de90 f   MRABOUT.obj
 0002:00005070       _hypot                     0041e070 f i MRABOUT.obj
 0002:000050f0       ?CSCmd_InfoRevertive@@YAXPAD@Z 0041e0f0 f   Mrcmd.obj
 0002:000053e0       ?CSCmd_GPIRevertive@@YAXPAD@Z 0041e3e0 f   Mrcmd.obj
 0002:00005640       ?CSCmd_NetAttention@@YAXPAD@Z 0041e640 f   Mrcmd.obj
 0002:00005690       ?CSCmd_NetBroken@@YAXPAD@Z 0041e690 f   Mrcmd.obj
 0002:000056e0       ?CSCmd_NetClose@@YAXPAD@Z  0041e6e0 f   Mrcmd.obj
 0002:00005730       ?CSCmd_NetDisable@@YAXPAD@Z 0041e730 f   Mrcmd.obj
 0002:00005780       ?CSCmd_NetEnable@@YAXPAD@Z 0041e780 f   Mrcmd.obj
 0002:000057d0       ?CSCmd_NetInquire@@YAXPAD@Z 0041e7d0 f   Mrcmd.obj
 0002:00005820       ?CSCmd_NetLoopbackTest@@YAXPAD@Z 0041e820 f   Mrcmd.obj
 0002:00005870       ?CSCmd_NetObject@@YAXPAD@Z 0041e870 f   Mrcmd.obj
 0002:000058c0       ?CSCmd_NetRestart@@YAXPAD@Z 0041e8c0 f   Mrcmd.obj
 0002:00005910       ?CSCmd_NetStatus@@YAXPAD@Z 0041e910 f   Mrcmd.obj
 0002:000059a0       ?CSCmd_RtrDatabase@@YAXPAD@Z 0041e9a0 f   Mrcmd.obj
 0002:00005a30       ?CSCmd_RtrRevertive@@YAXPAD@Z 0041ea30 f   Mrcmd.obj
 0002:00005c80       ?CSCmd_TimeService@@YAXPAD@Z 0041ec80 f   Mrcmd.obj
 0002:00005e30       ?CSCmd_UniRevertive@@YAXPADH@Z 0041ee30 f   Mrcmd.obj
 0002:000067c0       ?CSCmd_Heartbeat@@YAXPADH_N@Z 0041f7c0 f   Mrcmd.obj
 0002:00006c30       ?CSCmd_HB@@YAHPBEHK@Z      0041fc30 f   Mrcmd.obj
 0002:00007450       ?MRDialog_DialogProc@@YGJPAUHWND__@@GIJ@Z 00420450 f   mrdialog.obj
 0002:00007640       ?MRDialog_Init@@YAXXZ      00420640 f   mrdialog.obj
 0002:000076d0       ?MRDialog_InitDialog@@YAXXZ 004206d0 f   mrdialog.obj
 0002:00007840       ?MRDialog_Closedown@@YAXXZ 00420840 f   mrdialog.obj
 0002:000078b0       ?MRDialog_LineSelected@@YAXXZ 004208b0 f   mrdialog.obj
 0002:00007940       ?MRDialog_StatusChange@@YAXXZ 00420940 f   mrdialog.obj
 0002:000079e0       ?MRDialog_EnableAll@@YAXH@Z 004209e0 f   mrdialog.obj
 0002:00007a60       ?MRDialog_Update@@YAXXZ    00420a60 f   mrdialog.obj
 0002:00007b90       ?MRDialog_Load@@YAXXZ      00420b90 f   mrdialog.obj
 0002:00007ec0       ?MRDialog_Save@@YAXXZ      00420ec0 f   mrdialog.obj
 0002:00008200       ?IacSup_Init@@YAHXZ        00421200 f   MRIACSUP.obj
 0002:00008920       ?IacSup_NetSend@@YAHPAD0H@Z 00421920 f   MRIACSUP.obj
 0002:00008a00       ?IacSup_ReplaceNCB@@YAHPAU_NCB@@0@Z 00421a00 f   MRIACSUP.obj
 0002:00008a80       ?IacSup_Closedown@@YAXXZ   00421a80 f   MRIACSUP.obj
 0002:00008b00       ?IacSup_NetReset@@YAXXZ    00421b00 f   MRIACSUP.obj
 0002:00008ea0       _WinMain@16                00421ea0 f   Mrmain.obj
 0002:00009180       ?InitMsgwnd@@YAHPAUHINSTANCE__@@@Z 00422180 f   Mrmain.obj
 0002:000097b0       ?MsgwndWndProc@@YGJPAUHWND__@@GIJ@Z 004227b0 f   Mrmain.obj
 0002:0000a8e0       ?ClearKeep@@YAXXZ          004238e0 f   Mrmain.obj
 0002:0000a9a0       ?Main_Init@@YAXXZ          004239a0 f   Mrmain.obj
 0002:0000ae40       ?Main_Closedown@@YAXXZ     00423e40 f   Mrmain.obj
 0002:0000af40       ?Scroll_Init@@YAXPAUHWND__@@@Z 00423f40 f   Mrmain.obj
 0002:0000b0d0       ?SetupScroll@@YAXPAUHWND__@@@Z 004240d0 f   Mrmain.obj
 0002:0000b220       ?MsgwndPaint@@YAXPAUHWND__@@@Z 00424220 f   Mrmain.obj
 0002:0000b930       ?ScrollPrint@@YAXPAUHWND__@@PAD@Z 00424930 f   Mrmain.obj
 0002:0000bc10       ?Main_WM_SIZE@@YAXPAUHWND__@@J@Z 00424c10 f   Mrmain.obj
 0002:0000bc80       ?SaveWinCoordinates@@YAXXZ 00424c80 f   Mrmain.obj
 0002:0000beb0       ?Main_Scroll@@YAXPAUHWND__@@I@Z 00424eb0 f   Mrmain.obj
 0002:0000c140       ?Main_OpenLog@@YAXXZ       00425140 f   Mrmain.obj
 0002:0000c4a0       ?Main_WriteLog@@YAXPAD@Z   004254a0 f   Mrmain.obj
 0002:0000c800       ?Main_CloseLog@@YAXXZ      00425800 f   Mrmain.obj
 0002:0000c8c0       ?Main_ErrorLog@@YAXPAD@Z   004258c0 f   Mrmain.obj
 0002:0000cae0       ?Main_Decode@@YAXPADHH@Z   00425ae0 f   Mrmain.obj
 0002:0000cef0       ?Main_WriteCmds@@YAXPADH@Z 00425ef0 f   Mrmain.obj
 0002:0000d260       ?Main_ToggleCaption@@YAXXZ 00426260 f   Mrmain.obj
 0002:0000d420       ?Main_WatchDog@@YAXXZ      00426420 f   Mrmain.obj
 0002:0000d590       ?Main_Analyse@@YAXXZ       00426590 f   Mrmain.obj
 0002:0000d910       ?Main_WritePacketData@@YAXEPADG@Z 00426910 f   Mrmain.obj
 0002:0000da40       ?Main_EvaluateIsFiltered@@YAXXZ 00426a40 f   Mrmain.obj
 0002:0000dbf0       ?DoHelp@@YAXXZ             00426bf0 f   Mrmain.obj
 0002:0000dd10       ?showAlwaysOnTopSetting@@YAXXZ 00426d10 f   Mrmain.obj
 0002:0000dd90       ?showPacketSerialSetting@@YAXXZ 00426d90 f   Mrmain.obj
 0002:0000de40       ?showURSetting@@YAXXZ      00426e40 f   Mrmain.obj
 0002:0000def0       ?showHeartbeatsSetting@@YAXXZ 00426ef0 f   Mrmain.obj
 0002:0000dfa0       ?showNMessageSetting@@YAXXZ 00426fa0 f   Mrmain.obj
 0002:0000e050       ?showPacketRecoverySetting@@YAXXZ 00427050 f   Mrmain.obj
 0002:0000e110       ?messageRewriterAvailable@@YAXXZ 00427110 f   Mrmain.obj
 0002:0000e2a0       ?enablePacketRecoveryListen@@YAXXZ 004272a0 f   Mrmain.obj
 0002:0000e2d0       ?disablePacketRecoveryListen@@YAXXZ 004272d0 f   Mrmain.obj
 0002:0000e300       ?showMessageRewriterExternalSetting@@YAXXZ 00427300 f   Mrmain.obj
 0002:0000e3c0       ?enableMessageRewriterExternal@@YAXXZ 004273c0 f   Mrmain.obj
 0002:0000e560       ?disableMessageRewriterExternal@@YAXXZ 00427560 f   Mrmain.obj
 0002:0000e5f0       ?editMessageRewriterExternal@@YAXXZ 004275f0 f   Mrmain.obj
 0002:0000e670       ?MainToggleDoubleClick@@YAXXZ 00427670 f   Mrmain.obj
 0002:0000e720       ?IsV4Directory@@YAHXZ      00427720 f   Mrmain.obj
 0002:0000fe10       ?strchr@@YAPADPADH@Z       00428e10 f i Mrmain.obj
 0002:0000fe70       ?strstr@@YAPADPADPBD@Z     00428e70 f i Mrmain.obj
 0002:0000fed0       ?NetMsg_Message@@YAHIJ@Z   00428ed0 f   MRNETMSG.obj
 0002:0000ff40       ?NetMsg_ReceiveDG@@YAXPAU_NCB@@@Z 00428f40 f   MRNETMSG.obj
 0002:00010010       ?NetMsg_SendDG@@YAXPAU_NCB@@@Z 00429010 f   MRNETMSG.obj
 0002:00010080       ?NetMsg_pktRecDecode@@YAXPBEH@Z 00429080 f   MRNETMSG.obj
 0002:00010630       ?Packet_DialogProc@@YGJPAUHWND__@@GIJ@Z 00429630 f   mrpktdlg.obj
 0002:000107e0       ?Packet_Init@@YAXXZ        004297e0 f   mrpktdlg.obj
 0002:00010890       ?Packet_InitDialog@@YAXXZ  00429890 f   mrpktdlg.obj
 0002:00010a20       ?Packet_SelectPacket@@YAXXZ 00429a20 f   mrpktdlg.obj
 0002:00010ae0       ?Packet_SelectNext@@YAXXZ  00429ae0 f   mrpktdlg.obj
 0002:00010b30       ?Packet_SelectPrevious@@YAXXZ 00429b30 f   mrpktdlg.obj
 0002:00010b80       ?Packet_SelectFile@@YAXXZ  00429b80 f   mrpktdlg.obj
 0002:00010e30       ?Packet_Closedown@@YAXXZ   00429e30 f   mrpktdlg.obj
 0002:00010ed0       ?Packet_Display@@YAXXZ     00429ed0 f   mrpktdlg.obj
 0002:00011360       ?Packet_StartReplay@@YAXXZ 0042a360 f   mrpktdlg.obj
 0002:00011520       ?Packet_StopReplay@@YAXXZ  0042a520 f   mrpktdlg.obj
 0002:00011680       ?Packet_ReplayCmds@@YAXXZ  0042a680 f   mrpktdlg.obj
 0002:000117b0       ?Packet_ReplayRevs@@YAXXZ  0042a7b0 f   mrpktdlg.obj
 0002:000118e0       ?Packet_ReplayPackets@@YAXXZ 0042a8e0 f   mrpktdlg.obj
 0002:00011b80       ?Packet_SingleStep@@YAXXZ  0042ab80 f   mrpktdlg.obj
 0002:00012120       ?Prof_Init@@YAXXZ          0042b120 f   MRPROF.obj
 0002:00012cf0       ?Prof_ReadFilter@@YAXPBDPAH@Z 0042bcf0 f   MRPROF.obj
 0002:000131f0       ?Prof_WriteFilter@@YAXPBDPAH@Z 0042c1f0 f   MRPROF.obj
 0002:000138e0       ??$?0AAV?$_Tree_iterator@V?$_Tree_val@U?$_Tree_simple_types@U?$pair@$$CBV?$basic_string@DU?$char_traits@D@std@@V?$allocator@D@2@@std@@V12@@std@@@std@@@std@@@std@@_NX@?$pair@V?$_Tree_iterator@V?$_Tree_val@U?$_Tree_simple_types@U?$pair@$$CBV?$basic_string@DU?$char_traits@D@std@@V?$allocator@D@2@@std@@V12@@std@@@std@@@std@@@std@@_N@std@@QAE@AAV?$_Tree_iterator@V?$_Tree_val@U?$_Tree_simple_types@U?$pair@$$CBV?$basic_string@DU?$char_traits@D@std@@V?$allocator@D@2@@std@@V12@@std@@@std@@@std@@@1@$$QA_N@Z 0042c8e0 f i MRPROF.obj
 0002:000139b0       ??$?0U?$_Tree_node@U?$pair@$$CBV?$basic_string@DU?$char_traits@D@std@@V?$allocator@D@2@@std@@V12@@std@@PAX@std@@@?$allocator@U_Container_proxy@std@@@std@@QAE@ABV?$allocator@U?$_Tree_node@U?$pair@$$CBV?$basic_string@DU?$char_traits@D@std@@V?$allocator@D@2@@std@@V12@@std@@PAX@std@@@1@@Z 0042c9b0 f i MRPROF.obj
 0002:000139f0       ??$?0U?$_Wrap_alloc@V?$allocator@U?$_Tree_node@U?$pair@$$CBV?$basic_string@DU?$char_traits@D@std@@V?$allocator@D@2@@std@@V12@@std@@PAX@std@@@std@@@std@@@?$_Wrap_alloc@V?$allocator@U_Container_proxy@std@@@std@@@std@@QAE@ABU?$_Wrap_alloc@V?$allocator@U?$_Tree_node@U?$pair@$$CBV?$basic_string@DU?$char_traits@D@std@@V?$allocator@D@2@@std@@V12@@std@@PAX@std@@@std@@@1@@Z 0042c9f0 f i MRPROF.obj
 0002:00013a50       ??$?0V?$_Tree_iterator@V?$_Tree_val@U?$_Tree_simple_types@U?$pair@$$CBV?$basic_string@DU?$char_traits@D@std@@V?$allocator@D@2@@std@@V12@@std@@@std@@@std@@@std@@_NX@?$pair@V?$_Tree_iterator@V?$_Tree_val@U?$_Tree_simple_types@U?$pair@$$CBV?$basic_string@DU?$char_traits@D@std@@V?$allocator@D@2@@std@@V12@@std@@@std@@@std@@@std@@_N@std@@QAE@$$QAV?$_Tree_iterator@V?$_Tree_val@U?$_Tree_simple_types@U?$pair@$$CBV?$basic_string@DU?$char_traits@D@std@@V?$allocator@D@2@@std@@V12@@std@@@std@@@std@@@1@$$QA_N@Z 0042ca50 f i MRPROF.obj
 0002:00013b20       ??$?0V?$basic_string@DU?$char_traits@D@std@@V?$allocator@D@2@@std@@V01@X@?$pair@$$CBV?$basic_string@DU?$char_traits@D@std@@V?$allocator@D@2@@std@@V12@@std@@QAE@$$QAU?$pair@V?$basic_string@DU?$char_traits@D@std@@V?$allocator@D@2@@std@@V12@@1@@Z 0042cb20 f i MRPROF.obj
 0002:00013bf0       ??$?0V?$basic_string@DU?$char_traits@D@std@@V?$allocator@D@2@@std@@V01@X@?$pair@V?$basic_string@DU?$char_traits@D@std@@V?$allocator@D@2@@std@@V12@@std@@QAE@$$QAV?$basic_string@DU?$char_traits@D@std@@V?$allocator@D@2@@1@0@Z 0042cbf0 f i MRPROF.obj
 0002:00013cc0       ??$?MDU?$char_traits@D@std@@V?$allocator@D@1@@std@@YA_NABV?$basic_string@DU?$char_traits@D@std@@V?$allocator@D@2@@0@0@Z 0042ccc0 f i MRPROF.obj
 0002:00013d40       ??$_Allocate@D@std@@YAPADIPAD@Z 0042cd40 f i MRPROF.obj
 0002:00013dd0       ??$_Allocate@U?$_Tree_node@U?$pair@$$CBV?$basic_string@DU?$char_traits@D@std@@V?$allocator@D@2@@std@@V12@@std@@PAX@std@@@std@@YAPAU?$_Tree_node@U?$pair@$$CBV?$basic_string@DU?$char_traits@D@std@@V?$allocator@D@2@@std@@V12@@std@@PAX@0@IPAU10@@Z 0042cdd0 f i MRPROF.obj
 0002:00013e60       ??$_Allocate@U_Container_proxy@std@@@std@@YAPAU_Container_proxy@0@IPAU10@@Z 0042ce60 f i MRPROF.obj
 0002:00013f00       ??$_Buynode@U?$pair@V?$basic_string@DU?$char_traits@D@std@@V?$allocator@D@2@@std@@V12@@std@@@?$_Tree_buy@U?$pair@$$CBV?$basic_string@DU?$char_traits@D@std@@V?$allocator@D@2@@std@@V12@@std@@V?$allocator@U?$pair@$$CBV?$basic_string@DU?$char_traits@D@std@@V?$allocator@D@2@@std@@V12@@std@@@2@@std@@QAEPAU?$_Tree_node@U?$pair@$$CBV?$basic_string@DU?$char_traits@D@std@@V?$allocator@D@2@@std@@V12@@std@@PAX@1@$$QAU?$pair@V?$basic_string@DU?$char_traits@D@std@@V?$allocator@D@2@@std@@V12@@1@@Z 0042cf00 f i MRPROF.obj
 0002:00014070       ??$_Buynode_if_nil@AAU?$pair@$$CBV?$basic_string@DU?$char_traits@D@std@@V?$allocator@D@2@@std@@V12@@std@@@?$_Tree@V?$_Tmap_traits@V?$basic_string@DU?$char_traits@D@std@@V?$allocator@D@2@@std@@V12@U?$less@V?$basic_string@DU?$char_traits@D@std@@V?$allocator@D@2@@std@@@2@V?$allocator@U?$pair@$$CBV?$basic_string@DU?$char_traits@D@std@@V?$allocator@D@2@@std@@V12@@std@@@2@$0A@@std@@@std@@IAEPAU?$_Tree_node@U?$pair@$$CBV?$basic_string@DU?$char_traits@D@std@@V?$allocator@D@2@@std@@V12@@std@@PAX@1@PAU21@AAU?$pair@$$CBV?$basic_string@DU?$char_traits@D@std@@V?$allocator@D@2@@std@@V12@@1@@Z 0042d070 f i MRPROF.obj
 0002:000140b0       ??$_Debug_lt_pred@U?$less@V?$basic_string@DU?$char_traits@D@std@@V?$allocator@D@2@@std@@@std@@ABV?$basic_string@DU?$char_traits@D@std@@V?$allocator@D@2@@2@ABV32@@std@@YA_NU?$less@V?$basic_string@DU?$char_traits@D@std@@V?$allocator@D@2@@std@@@0@ABV?$basic_string@DU?$char_traits@D@std@@V?$allocator@D@2@@0@1PB_WI@Z 0042d0b0 f i MRPROF.obj
 0002:00014190       ??$_Debug_pointer@D@std@@YAXPBDPB_WI@Z 0042d190 f i MRPROF.obj
 0002:00014200       ??$_Insert_at@AAU?$pair@$$CBV?$basic_string@DU?$char_traits@D@std@@V?$allocator@D@2@@std@@V12@@std@@PAU?$_Tree_node@U?$pair@$$CBV?$basic_string@DU?$char_traits@D@std@@V?$allocator@D@2@@std@@V12@@std@@PAX@2@@?$_Tree@V?$_Tmap_traits@V?$basic_string@DU?$char_traits@D@std@@V?$allocator@D@2@@std@@V12@U?$less@V?$basic_string@DU?$char_traits@D@std@@V?$allocator@D@2@@std@@@2@V?$allocator@U?$pair@$$CBV?$basic_string@DU?$char_traits@D@std@@V?$allocator@D@2@@std@@V12@@std@@@2@$0A@@std@@@std@@IAE?AV?$_Tree_iterator@V?$_Tree_val@U?$_Tree_simple_types@U?$pair@$$CBV?$basic_string@DU?$char_traits@D@std@@V?$allocator@D@2@@std@@V12@@std@@@std@@@std@@@1@_NPAU?$_Tree_node@U?$pair@$$CBV?$basic_string@DU?$char_traits@D@std@@V?$allocator@D@2@@std@@V12@@std@@PAX@1@AAU?$pair@$$CBV?$basic_string@DU?$char_traits@D@std@@V?$allocator@D@2@@std@@V12@@1@1@Z 0042d200 f i MRPROF.obj
 0002:00014790       ??$_Insert_nohint@AAU?$pair@$$CBV?$basic_string@DU?$char_traits@D@std@@V?$allocator@D@2@@std@@V12@@std@@PAU?$_Tree_node@U?$pair@$$CBV?$basic_string@DU?$char_traits@D@std@@V?$allocator@D@2@@std@@V12@@std@@PAX@2@@?$_Tree@V?$_Tmap_traits@V?$basic_string@DU?$char_traits@D@std@@V?$allocator@D@2@@std@@V12@U?$less@V?$basic_string@DU?$char_traits@D@std@@V?$allocator@D@2@@std@@@2@V?$allocator@U?$pair@$$CBV?$basic_string@DU?$char_traits@D@std@@V?$allocator@D@2@@std@@V12@@std@@@2@$0A@@std@@@std@@IAE?AU?$pair@V?$_Tree_iterator@V?$_Tree_val@U?$_Tree_simple_types@U?$pair@$$CBV?$basic_string@DU?$char_traits@D@std@@V?$allocator@D@2@@std@@V12@@std@@@std@@@std@@@std@@_N@1@_NAAU?$pair@$$CBV?$basic_string@DU?$char_traits@D@std@@V?$allocator@D@2@@std@@V12@@1@PAU?$_Tree_node@U?$pair@$$CBV?$basic_string@DU?$char_traits@D@std@@V?$allocator@D@2@@std@@V12@@std@@PAX@1@@Z 0042d790 f i MRPROF.obj
 0002:00014ed0       ??$_Kfn@$$CBV?$basic_string@DU?$char_traits@D@std@@V?$allocator@D@2@@std@@V12@@?$_Tmap_traits@V?$basic_string@DU?$char_traits@D@std@@V?$allocator@D@2@@std@@V12@U?$less@V?$basic_string@DU?$char_traits@D@std@@V?$allocator@D@2@@std@@@2@V?$allocator@U?$pair@$$CBV?$basic_string@DU?$char_traits@D@std@@V?$allocator@D@2@@std@@V12@@std@@@2@$0A@@std@@SAABV?$basic_string@DU?$char_traits@D@std@@V?$allocator@D@2@@1@ABU?$pair@$$CBV?$basic_string@DU?$char_traits@D@std@@V?$allocator@D@2@@std@@V12@@1@@Z 0042ded0 f i MRPROF.obj
 0002:00014f10       ??$_Move@AAD@std@@YA$$QADAAD@Z 0042df10 f i MRPROF.obj
 0002:00014f50       ??$addressof@D@std@@YAPADAAD@Z 0042df50 f i MRPROF.obj
 0002:00014f90       ??$addressof@PAU?$_Tree_node@U?$pair@$$CBV?$basic_string@DU?$char_traits@D@std@@V?$allocator@D@2@@std@@V12@@std@@PAX@std@@@std@@YAPAPAU?$_Tree_node@U?$pair@$$CBV?$basic_string@DU?$char_traits@D@std@@V?$allocator@D@2@@std@@V12@@std@@PAX@0@AAPAU10@@Z 0042df90 f i MRPROF.obj
 0002:00014fd0       ??$addressof@U?$pair@$$CBV?$basic_string@DU?$char_traits@D@std@@V?$allocator@D@2@@std@@V12@@std@@@std@@YAPAU?$pair@$$CBV?$basic_string@DU?$char_traits@D@std@@V?$allocator@D@2@@std@@V12@@0@AAU10@@Z 0042dfd0 f i MRPROF.obj
 0002:00015010       ??$construct@PADAAPAD@?$_Wrap_alloc@V?$allocator@D@std@@@std@@QAEXPAPADAAPAD@Z 0042e010 f i MRPROF.obj
 0002:00015080       ??$construct@PADAAPAD@?$allocator@D@std@@QAEXPAPADAAPAD@Z 0042e080 f i MRPROF.obj
 0002:00015180       ??$construct@PADAAPAD@?$allocator_traits@V?$allocator@D@std@@@std@@SAXAAV?$allocator@D@1@PAPADAAPAD@Z 0042e180 f i MRPROF.obj
 0002:000151e0       ??$construct@PAU?$_Tree_node@U?$pair@$$CBV?$basic_string@DU?$char_traits@D@std@@V?$allocator@D@2@@std@@V12@@std@@PAX@std@@AAPAU12@@?$_Wrap_alloc@V?$allocator@U?$_Tree_node@U?$pair@$$CBV?$basic_string@DU?$char_traits@D@std@@V?$allocator@D@2@@std@@V12@@std@@PAX@std@@@std@@@std@@QAEXPAPAU?$_Tree_node@U?$pair@$$CBV?$basic_string@DU?$char_traits@D@std@@V?$allocator@D@2@@std@@V12@@std@@PAX@1@AAPAU21@@Z 0042e1e0 f i MRPROF.obj
 0002:00015250       ??$construct@PAU?$_Tree_node@U?$pair@$$CBV?$basic_string@DU?$char_traits@D@std@@V?$allocator@D@2@@std@@V12@@std@@PAX@std@@AAPAU12@@?$allocator@U?$_Tree_node@U?$pair@$$CBV?$basic_string@DU?$char_traits@D@std@@V?$allocator@D@2@@std@@V12@@std@@PAX@std@@@std@@QAEXPAPAU?$_Tree_node@U?$pair@$$CBV?$basic_string@DU?$char_traits@D@std@@V?$allocator@D@2@@std@@V12@@std@@PAX@1@AAPAU21@@Z 0042e250 f i MRPROF.obj
 0002:00015350       ??$construct@PAU?$_Tree_node@U?$pair@$$CBV?$basic_string@DU?$char_traits@D@std@@V?$allocator@D@2@@std@@V12@@std@@PAX@std@@AAPAU12@@?$allocator_traits@V?$allocator@U?$_Tree_node@U?$pair@$$CBV?$basic_string@DU?$char_traits@D@std@@V?$allocator@D@2@@std@@V12@@std@@PAX@std@@@std@@@std@@SAXAAV?$allocator@U?$_Tree_node@U?$pair@$$CBV?$basic_string@DU?$char_traits@D@std@@V?$allocator@D@2@@std@@V12@@std@@PAX@std@@@1@PAPAU?$_Tree_node@U?$pair@$$CBV?$basic_string@DU?$char_traits@D@std@@V?$allocator@D@2@@std@@V12@@std@@PAX@1@AAPAU31@@Z 0042e350 f i MRPROF.obj
 0002:000153b0       ??$construct@U?$pair@$$CBV?$basic_string@DU?$char_traits@D@std@@V?$allocator@D@2@@std@@V12@@std@@U?$pair@V?$basic_string@DU?$char_traits@D@std@@V?$allocator@D@2@@std@@V12@@2@@?$_Wrap_alloc@V?$allocator@U?$_Tree_node@U?$pair@$$CBV?$basic_string@DU?$char_traits@D@std@@V?$allocator@D@2@@std@@V12@@std@@PAX@std@@@std@@@std@@QAEXPAU?$pair@$$CBV?$basic_string@DU?$char_traits@D@std@@V?$allocator@D@2@@std@@V12@@1@$$QAU?$pair@V?$basic_string@DU?$char_traits@D@std@@V?$allocator@D@2@@std@@V12@@1@@Z 0042e3b0 f i MRPROF.obj
 0002:00015420       ??$construct@U?$pair@$$CBV?$basic_string@DU?$char_traits@D@std@@V?$allocator@D@2@@std@@V12@@std@@U?$pair@V?$basic_string@DU?$char_traits@D@std@@V?$allocator@D@2@@std@@V12@@2@@?$allocator@U?$_Tree_node@U?$pair@$$CBV?$basic_string@DU?$char_traits@D@std@@V?$allocator@D@2@@std@@V12@@std@@PAX@std@@@std@@QAEXPAU?$pair@$$CBV?$basic_string@DU?$char_traits@D@std@@V?$allocator@D@2@@std@@V12@@1@$$QAU?$pair@V?$basic_string@DU?$char_traits@D@std@@V?$allocator@D@2@@std@@V12@@1@@Z 0042e420 f i MRPROF.obj
 0002:00015520       ??$construct@U?$pair@$$CBV?$basic_string@DU?$char_traits@D@std@@V?$allocator@D@2@@std@@V12@@std@@U?$pair@V?$basic_string@DU?$char_traits@D@std@@V?$allocator@D@2@@std@@V12@@2@@?$allocator_traits@V?$allocator@U?$_Tree_node@U?$pair@$$CBV?$basic_string@DU?$char_traits@D@std@@V?$allocator@D@2@@std@@V12@@std@@PAX@std@@@std@@@std@@SAXAAV?$allocator@U?$_Tree_node@U?$pair@$$CBV?$basic_string@DU?$char_traits@D@std@@V?$allocator@D@2@@std@@V12@@std@@PAX@std@@@1@PAU?$pair@$$CBV?$basic_string@DU?$char_traits@D@std@@V?$allocator@D@2@@std@@V12@@1@$$QAU?$pair@V?$basic_string@DU?$char_traits@D@std@@V?$allocator@D@2@@std@@V12@@1@@Z 0042e520 f i MRPROF.obj
 0002:00015580       ??$construct@U_Container_proxy@std@@U12@@?$_Wrap_alloc@V?$allocator@U_Container_proxy@std@@@std@@@std@@QAEXPAU_Container_proxy@1@$$QAU21@@Z 0042e580 f i MRPROF.obj
 0002:000155f0       ??$construct@U_Container_proxy@std@@U12@@?$allocator@U_Container_proxy@std@@@std@@QAEXPAU_Container_proxy@1@$$QAU21@@Z 0042e5f0 f i MRPROF.obj
 0002:00015700       ??$construct@U_Container_proxy@std@@U12@@?$allocator_traits@V?$allocator@U_Container_proxy@std@@@std@@@std@@SAXAAV?$allocator@U_Container_proxy@std@@@1@PAU_Container_proxy@1@$$QAU31@@Z 0042e700 f i MRPROF.obj
 0002:00015760       ??$destroy@PAD@?$_Wrap_alloc@V?$allocator@D@std@@@std@@QAEXPAPAD@Z 0042e760 f i MRPROF.obj
 0002:000157c0       ??$destroy@PAD@?$allocator@D@std@@QAEXPAPAD@Z 0042e7c0 f i MRPROF.obj
 0002:00015800       ??$destroy@PAD@?$allocator_traits@V?$allocator@D@std@@@std@@SAXAAV?$allocator@D@1@PAPAD@Z 0042e800 f i MRPROF.obj
 0002:00015850       ??$destroy@PAU?$_Tree_node@U?$pair@$$CBV?$basic_string@DU?$char_traits@D@std@@V?$allocator@D@2@@std@@V12@@std@@PAX@std@@@?$_Wrap_alloc@V?$allocator@U?$_Tree_node@U?$pair@$$CBV?$basic_string@DU?$char_traits@D@std@@V?$allocator@D@2@@std@@V12@@std@@PAX@std@@@std@@@std@@QAEXPAPAU?$_Tree_node@U?$pair@$$CBV?$basic_string@DU?$char_traits@D@std@@V?$allocator@D@2@@std@@V12@@std@@PAX@1@@Z 0042e850 f i MRPROF.obj
 0002:000158b0       ??$destroy@PAU?$_Tree_node@U?$pair@$$CBV?$basic_string@DU?$char_traits@D@std@@V?$allocator@D@2@@std@@V12@@std@@PAX@std@@@?$allocator@U?$_Tree_node@U?$pair@$$CBV?$basic_string@DU?$char_traits@D@std@@V?$allocator@D@2@@std@@V12@@std@@PAX@std@@@std@@QAEXPAPAU?$_Tree_node@U?$pair@$$CBV?$basic_string@DU?$char_traits@D@std@@V?$allocator@D@2@@std@@V12@@std@@PAX@1@@Z 0042e8b0 f i MRPROF.obj
 0002:000158f0       ??$destroy@PAU?$_Tree_node@U?$pair@$$CBV?$basic_string@DU?$char_traits@D@std@@V?$allocator@D@2@@std@@V12@@std@@PAX@std@@@?$allocator_traits@V?$allocator@U?$_Tree_node@U?$pair@$$CBV?$basic_string@DU?$char_traits@D@std@@V?$allocator@D@2@@std@@V12@@std@@PAX@std@@@std@@@std@@SAXAAV?$allocator@U?$_Tree_node@U?$pair@$$CBV?$basic_string@DU?$char_traits@D@std@@V?$allocator@D@2@@std@@V12@@std@@PAX@std@@@1@PAPAU?$_Tree_node@U?$pair@$$CBV?$basic_string@DU?$char_traits@D@std@@V?$allocator@D@2@@std@@V12@@std@@PAX@1@@Z 0042e8f0 f i MRPROF.obj
 0002:00015940       ??$destroy@U?$pair@$$CBV?$basic_string@DU?$char_traits@D@std@@V?$allocator@D@2@@std@@V12@@std@@@?$_Wrap_alloc@V?$allocator@U?$_Tree_node@U?$pair@$$CBV?$basic_string@DU?$char_traits@D@std@@V?$allocator@D@2@@std@@V12@@std@@PAX@std@@@std@@@std@@QAEXPAU?$pair@$$CBV?$basic_string@DU?$char_traits@D@std@@V?$allocator@D@2@@std@@V12@@1@@Z 0042e940 f i MRPROF.obj
 0002:000159a0       ??$destroy@U?$pair@$$CBV?$basic_string@DU?$char_traits@D@std@@V?$allocator@D@2@@std@@V12@@std@@@?$allocator@U?$_Tree_node@U?$pair@$$CBV?$basic_string@DU?$char_traits@D@std@@V?$allocator@D@2@@std@@V12@@std@@PAX@std@@@std@@QAEXPAU?$pair@$$CBV?$basic_string@DU?$char_traits@D@std@@V?$allocator@D@2@@std@@V12@@1@@Z 0042e9a0 f i MRPROF.obj
 0002:00015a00       ??$destroy@U?$pair@$$CBV?$basic_string@DU?$char_traits@D@std@@V?$allocator@D@2@@std@@V12@@std@@@?$allocator_traits@V?$allocator@U?$_Tree_node@U?$pair@$$CBV?$basic_string@DU?$char_traits@D@std@@V?$allocator@D@2@@std@@V12@@std@@PAX@std@@@std@@@std@@SAXAAV?$allocator@U?$_Tree_node@U?$pair@$$CBV?$basic_string@DU?$char_traits@D@std@@V?$allocator@D@2@@std@@V12@@std@@PAX@std@@@1@PAU?$pair@$$CBV?$basic_string@DU?$char_traits@D@std@@V?$allocator@D@2@@std@@V12@@1@@Z 0042ea00 f i MRPROF.obj
 0002:00015a50       ??$destroy@U_Container_proxy@std@@@?$_Wrap_alloc@V?$allocator@U_Container_proxy@std@@@std@@@std@@QAEXPAU_Container_proxy@1@@Z 0042ea50 f i MRPROF.obj
 0002:00015ab0       ??$destroy@U_Container_proxy@std@@@?$allocator@U_Container_proxy@std@@@std@@QAEXPAU_Container_proxy@1@@Z 0042eab0 f i MRPROF.obj
 0002:00015af0       ??$destroy@U_Container_proxy@std@@@?$allocator_traits@V?$allocator@U_Container_proxy@std@@@std@@@std@@SAXAAV?$allocator@U_Container_proxy@std@@@1@PAU_Container_proxy@1@@Z 0042eaf0 f i MRPROF.obj
 0002:00015b40       ??$forward@AAPAD@std@@YAAAPADAAPAD@Z 0042eb40 f i MRPROF.obj
 0002:00015b80       ??$forward@AAPAU?$_Tree_node@U?$pair@$$CBV?$basic_string@DU?$char_traits@D@std@@V?$allocator@D@2@@std@@V12@@std@@PAX@std@@@std@@YAAAPAU?$_Tree_node@U?$pair@$$CBV?$basic_string@DU?$char_traits@D@std@@V?$allocator@D@2@@std@@V12@@std@@PAX@0@AAPAU10@@Z 0042eb80 f i MRPROF.obj
 0002:00015bc0       ??$forward@AAU?$pair@$$CBV?$basic_string@DU?$char_traits@D@std@@V?$allocator@D@2@@std@@V12@@std@@@std@@YAAAU?$pair@$$CBV?$basic_string@DU?$char_traits@D@std@@V?$allocator@D@2@@std@@V12@@0@AAU10@@Z 0042ebc0 f i MRPROF.obj
 0002:00015c00       ??$forward@AAV?$_Tree_iterator@V?$_Tree_val@U?$_Tree_simple_types@U?$pair@$$CBV?$basic_string@DU?$char_traits@D@std@@V?$allocator@D@2@@std@@V12@@std@@@std@@@std@@@std@@@std@@YAAAV?$_Tree_iterator@V?$_Tree_val@U?$_Tree_simple_types@U?$pair@$$CBV?$basic_string@DU?$char_traits@D@std@@V?$allocator@D@2@@std@@V12@@std@@@std@@@std@@@0@AAV10@@Z 0042ec00 f i MRPROF.obj
 0002:00015c40       ??$forward@ABV?$basic_string@DU?$char_traits@D@std@@V?$allocator@D@2@@std@@@std@@YAABV?$basic_string@DU?$char_traits@D@std@@V?$allocator@D@2@@0@ABV10@@Z 0042ec40 f i MRPROF.obj
 0002:00015c80       ??$forward@U?$pair@V?$basic_string@DU?$char_traits@D@std@@V?$allocator@D@2@@std@@V12@@std@@@std@@YA$$QAU?$pair@V?$basic_string@DU?$char_traits@D@std@@V?$allocator@D@2@@std@@V12@@0@AAU10@@Z 0042ec80 f i MRPROF.obj
 0002:00015cc0       ??$forward@U_Container_proxy@std@@@std@@YA$$QAU_Container_proxy@0@AAU10@@Z 0042ecc0 f i MRPROF.obj
 0002:00015d00       ??$forward@V?$_Tree_iterator@V?$_Tree_val@U?$_Tree_simple_types@U?$pair@$$CBV?$basic_string@DU?$char_traits@D@std@@V?$allocator@D@2@@std@@V12@@std@@@std@@@std@@@std@@@std@@YA$$QAV?$_Tree_iterator@V?$_Tree_val@U?$_Tree_simple_types@U?$pair@$$CBV?$basic_string@DU?$char_traits@D@std@@V?$allocator@D@2@@std@@V12@@std@@@std@@@std@@@0@AAV10@@Z 0042ed00 f i MRPROF.obj
 0002:00015d40       ??$forward@V?$basic_string@DU?$char_traits@D@std@@V?$allocator@D@2@@std@@@std@@YA$$QAV?$basic_string@DU?$char_traits@D@std@@V?$allocator@D@2@@0@AAV10@@Z 0042ed40 f i MRPROF.obj
 0002:00015d80       ??$forward@_N@std@@YA$$QA_NAA_N@Z 0042ed80 f i MRPROF.obj
 0002:00015dc0       ??$insert@U?$pair@V?$basic_string@DU?$char_traits@D@std@@V?$allocator@D@2@@std@@V12@@std@@@?$_Tree@V?$_Tmap_traits@V?$basic_string@DU?$char_traits@D@std@@V?$allocator@D@2@@std@@V12@U?$less@V?$basic_string@DU?$char_traits@D@std@@V?$allocator@D@2@@std@@@2@V?$allocator@U?$pair@$$CBV?$basic_string@DU?$char_traits@D@std@@V?$allocator@D@2@@std@@V12@@std@@@2@$0A@@std@@@std@@QAE?AU?$pair@V?$_Tree_iterator@V?$_Tree_val@U?$_Tree_simple_types@U?$pair@$$CBV?$basic_string@DU?$char_traits@D@std@@V?$allocator@D@2@@std@@V12@@std@@@std@@@std@@@std@@_N@1@$$QAU?$pair@V?$basic_string@DU?$char_traits@D@std@@V?$allocator@D@2@@std@@V12@@1@@Z 0042edc0 f i MRPROF.obj
 0002:00015e70       ??$make_pair@V?$basic_string@DU?$char_traits@D@std@@V?$allocator@D@2@@std@@V12@@std@@YA?AU?$pair@V?$basic_string@DU?$char_traits@D@std@@V?$allocator@D@2@@std@@V12@@0@$$QAV?$basic_string@DU?$char_traits@D@std@@V?$allocator@D@2@@0@0@Z 0042ee70 f i MRPROF.obj
 0002:00015f00       ??$swap@D@std@@YAXAAD0@Z   0042ef00 f i MRPROF.obj
 0002:00015fc0       ??0?$_Iterator012@Ubidirectional_iterator_tag@std@@U?$pair@$$CBV?$basic_string@DU?$char_traits@D@std@@V?$allocator@D@2@@std@@V12@@2@HPBU32@ABU32@U_Iterator_base12@2@@std@@QAE@ABU01@@Z 0042efc0 f i MRPROF.obj
 0002:00016020       ??0?$_Iterator012@Ubidirectional_iterator_tag@std@@U?$pair@$$CBV?$basic_string@DU?$char_traits@D@std@@V?$allocator@D@2@@std@@V12@@2@HPBU32@ABU32@U_Iterator_base12@2@@std@@QAE@XZ 0042f020 f i MRPROF.obj
 0002:00016080       ??0?$_String_alloc@$0A@U?$_String_base_types@DV?$allocator@D@std@@@std@@@std@@QAE@ABV?$allocator@D@1@@Z 0042f080 f i MRPROF.obj
 0002:00016130       ??0?$_String_val@U?$_Simple_types@D@std@@@std@@QAE@XZ 0042f130 f i MRPROF.obj
 0002:000161b0       ??0?$_Tree@V?$_Tmap_traits@V?$basic_string@DU?$char_traits@D@std@@V?$allocator@D@2@@std@@V12@U?$less@V?$basic_string@DU?$char_traits@D@std@@V?$allocator@D@2@@std@@@2@V?$allocator@U?$pair@$$CBV?$basic_string@DU?$char_traits@D@std@@V?$allocator@D@2@@std@@V12@@std@@@2@$0A@@std@@@std@@QAE@ABU?$less@V?$basic_string@DU?$char_traits@D@std@@V?$allocator@D@2@@std@@@1@ABV?$allocator@U?$pair@$$CBV?$basic_string@DU?$char_traits@D@std@@V?$allocator@D@2@@std@@V12@@std@@@1@@Z 0042f1b0 f i MRPROF.obj
 0002:00016210       ??0?$_Tree_alloc@$0A@U?$_Tree_base_types@U?$pair@$$CBV?$basic_string@DU?$char_traits@D@std@@V?$allocator@D@2@@std@@V12@@std@@V?$allocator@U?$pair@$$CBV?$basic_string@DU?$char_traits@D@std@@V?$allocator@D@2@@std@@V12@@std@@@2@@std@@@std@@QAE@ABV?$allocator@U?$pair@$$CBV?$basic_string@DU?$char_traits@D@std@@V?$allocator@D@2@@std@@V12@@std@@@1@@Z 0042f210 f i MRPROF.obj
 0002:00016310       ??0?$_Tree_buy@U?$pair@$$CBV?$basic_string@DU?$char_traits@D@std@@V?$allocator@D@2@@std@@V12@@std@@V?$allocator@U?$pair@$$CBV?$basic_string@DU?$char_traits@D@std@@V?$allocator@D@2@@std@@V12@@std@@@2@@std@@QAE@ABV?$allocator@U?$pair@$$CBV?$basic_string@DU?$char_traits@D@std@@V?$allocator@D@2@@std@@V12@@std@@@1@@Z 0042f310 f i MRPROF.obj
 0002:00016370       ??0?$_Tree_comp@$0A@V?$_Tmap_traits@V?$basic_string@DU?$char_traits@D@std@@V?$allocator@D@2@@std@@V12@U?$less@V?$basic_string@DU?$char_traits@D@std@@V?$allocator@D@2@@std@@@2@V?$allocator@U?$pair@$$CBV?$basic_string@DU?$char_traits@D@std@@V?$allocator@D@2@@std@@V12@@std@@@2@$0A@@std@@@std@@QAE@ABU?$less@V?$basic_string@DU?$char_traits@D@std@@V?$allocator@D@2@@std@@@1@ABV?$allocator@U?$pair@$$CBV?$basic_string@DU?$char_traits@D@std@@V?$allocator@D@2@@std@@V12@@std@@@1@@Z 0042f370 f i MRPROF.obj
 0002:000163d0       ??0?$_Tree_const_iterator@V?$_Tree_val@U?$_Tree_simple_types@U?$pair@$$CBV?$basic_string@DU?$char_traits@D@std@@V?$allocator@D@2@@std@@V12@@std@@@std@@@std@@@std@@QAE@ABV01@@Z 0042f3d0 f i MRPROF.obj
 0002:00016430       ??0?$_Tree_const_iterator@V?$_Tree_val@U?$_Tree_simple_types@U?$pair@$$CBV?$basic_string@DU?$char_traits@D@std@@V?$allocator@D@2@@std@@V12@@std@@@std@@@std@@@std@@QAE@PAU?$_Tree_node@U?$pair@$$CBV?$basic_string@DU?$char_traits@D@std@@V?$allocator@D@2@@std@@V12@@std@@PAX@1@PBV?$_Tree_val@U?$_Tree_simple_types@U?$pair@$$CBV?$basic_string@DU?$char_traits@D@std@@V?$allocator@D@2@@std@@V12@@std@@@std@@@1@@Z 0042f430 f i MRPROF.obj
 0002:00016490       ??0?$_Tree_iterator@V?$_Tree_val@U?$_Tree_simple_types@U?$pair@$$CBV?$basic_string@DU?$char_traits@D@std@@V?$allocator@D@2@@std@@V12@@std@@@std@@@std@@@std@@QAE@ABV01@@Z 0042f490 f i MRPROF.obj
 0002:000164f0       ??0?$_Tree_iterator@V?$_Tree_val@U?$_Tree_simple_types@U?$pair@$$CBV?$basic_string@DU?$char_traits@D@std@@V?$allocator@D@2@@std@@V12@@std@@@std@@@std@@@std@@QAE@PAU?$_Tree_node@U?$pair@$$CBV?$basic_string@DU?$char_traits@D@std@@V?$allocator@D@2@@std@@V12@@std@@PAX@1@PBV?$_Tree_val@U?$_Tree_simple_types@U?$pair@$$CBV?$basic_string@DU?$char_traits@D@std@@V?$allocator@D@2@@std@@V12@@std@@@std@@@1@@Z 0042f4f0 f i MRPROF.obj
 0002:00016550       ??0?$_Tree_unchecked_const_iterator@V?$_Tree_val@U?$_Tree_simple_types@U?$pair@$$CBV?$basic_string@DU?$char_traits@D@std@@V?$allocator@D@2@@std@@V12@@std@@@std@@@std@@U_Iterator_base12@2@@std@@QAE@ABV01@@Z 0042f550 f i MRPROF.obj
 0002:000165c0       ??0?$_Tree_unchecked_const_iterator@V?$_Tree_val@U?$_Tree_simple_types@U?$pair@$$CBV?$basic_string@DU?$char_traits@D@std@@V?$allocator@D@2@@std@@V12@@std@@@std@@@std@@U_Iterator_base12@2@@std@@QAE@PAU?$_Tree_node@U?$pair@$$CBV?$basic_string@DU?$char_traits@D@std@@V?$allocator@D@2@@std@@V12@@std@@PAX@1@PBV?$_Tree_val@U?$_Tree_simple_types@U?$pair@$$CBV?$basic_string@DU?$char_traits@D@std@@V?$allocator@D@2@@std@@V12@@std@@@std@@@1@@Z 0042f5c0 f i MRPROF.obj
 0002:00016680       ??0?$_Tree_val@U?$_Tree_simple_types@U?$pair@$$CBV?$basic_string@DU?$char_traits@D@std@@V?$allocator@D@2@@std@@V12@@std@@@std@@@std@@QAE@XZ 0042f680 f i MRPROF.obj
 0002:00016700       ??0?$_Wrap_alloc@V?$allocator@D@std@@@std@@QAE@XZ 0042f700 f i MRPROF.obj
 0002:00016760       ??0?$_Wrap_alloc@V?$allocator@U?$_Tree_node@U?$pair@$$CBV?$basic_string@DU?$char_traits@D@std@@V?$allocator@D@2@@std@@V12@@std@@PAX@std@@@std@@@std@@QAE@XZ 0042f760 f i MRPROF.obj
 0002:000167c0       ??0?$allocator@D@std@@QAE@XZ 0042f7c0 f i MRPROF.obj
 0002:00016800       ??0?$allocator@U?$_Tree_node@U?$pair@$$CBV?$basic_string@DU?$char_traits@D@std@@V?$allocator@D@2@@std@@V12@@std@@PAX@std@@@std@@QAE@XZ 0042f800 f i MRPROF.obj
 0002:00016840       ??0?$allocator@U?$pair@$$CBV?$basic_string@DU?$char_traits@D@std@@V?$allocator@D@2@@std@@V12@@std@@@std@@QAE@XZ 0042f840 f i MRPROF.obj
 0002:00016880       ??0?$allocator@U_Container_proxy@std@@@std@@QAE@XZ 0042f880 f i MRPROF.obj
 0002:000168c0       ??0?$basic_string@DU?$char_traits@D@std@@V?$allocator@D@2@@std@@QAE@$$QAV01@@Z 0042f8c0 f i MRPROF.obj
 0002:00016960       ??0?$basic_string@DU?$char_traits@D@std@@V?$allocator@D@2@@std@@QAE@PBD@Z 0042f960 f i MRPROF.obj
 0002:00016a30       ??0?$map@V?$basic_string@DU?$char_traits@D@std@@V?$allocator@D@2@@std@@V12@U?$less@V?$basic_string@DU?$char_traits@D@std@@V?$allocator@D@2@@std@@@2@V?$allocator@U?$pair@$$CBV?$basic_string@DU?$char_traits@D@std@@V?$allocator@D@2@@std@@V12@@std@@@2@@std@@QAE@XZ 0042fa30 f i MRPROF.obj
 0002:00016aa0       ??0_Container_proxy@std@@QAE@XZ 0042faa0 f i MRPROF.obj
 0002:00016af0       ??0_Generic_error_category@std@@QAE@XZ 0042faf0 f i MRPROF.obj
 0002:00016b50       ??0_Ignore@std@@QAE@XZ     0042fb50 f i MRPROF.obj
 0002:00016b90       ??0_Iostream_error_category@std@@QAE@XZ 0042fb90 f i MRPROF.obj
 0002:00016bf0       ??0_Iterator_base12@std@@QAE@ABU01@@Z 0042fbf0 f i MRPROF.obj
 0002:00016c70       ??0_Iterator_base12@std@@QAE@XZ 0042fc70 f i MRPROF.obj
 0002:00016cc0       ??0_System_error_category@std@@QAE@XZ 0042fcc0 f i MRPROF.obj
 0002:00016d20       ??0error_category@std@@QAE@XZ 0042fd20 f i MRPROF.obj
 0002:00016d70       ??0error_condition@std@@QAE@HABVerror_category@1@@Z 0042fd70 f i MRPROF.obj
 0002:00016dc0       ??1?$_Iterator012@Ubidirectional_iterator_tag@std@@U?$pair@$$CBV?$basic_string@DU?$char_traits@D@std@@V?$allocator@D@2@@std@@V12@@2@HPBU32@ABU32@U_Iterator_base12@2@@std@@QAE@XZ 0042fdc0 f i MRPROF.obj
 0002:00016e10       ??1?$_String_alloc@$0A@U?$_String_base_types@DV?$allocator@D@std@@@std@@@std@@QAE@XZ 0042fe10 f i MRPROF.obj
 0002:00016e70       ??1?$_String_val@U?$_Simple_types@D@std@@@std@@QAE@XZ 0042fe70 f i MRPROF.obj
 0002:00016ed0       ??1?$_Tree@V?$_Tmap_traits@V?$basic_string@DU?$char_traits@D@std@@V?$allocator@D@2@@std@@V12@U?$less@V?$basic_string@DU?$char_traits@D@std@@V?$allocator@D@2@@std@@@2@V?$allocator@U?$pair@$$CBV?$basic_string@DU?$char_traits@D@std@@V?$allocator@D@2@@std@@V12@@std@@@2@$0A@@std@@@std@@QAE@XZ 0042fed0 f i MRPROF.obj
 0002:00016f30       ??1?$_Tree_alloc@$0A@U?$_Tree_base_types@U?$pair@$$CBV?$basic_string@DU?$char_traits@D@std@@V?$allocator@D@2@@std@@V12@@std@@V?$allocator@U?$pair@$$CBV?$basic_string@DU?$char_traits@D@std@@V?$allocator@D@2@@std@@V12@@std@@@2@@std@@@std@@QAE@XZ 0042ff30 f i MRPROF.obj
 0002:00016fa0       ??1?$_Tree_buy@U?$pair@$$CBV?$basic_string@DU?$char_traits@D@std@@V?$allocator@D@2@@std@@V12@@std@@V?$allocator@U?$pair@$$CBV?$basic_string@DU?$char_traits@D@std@@V?$allocator@D@2@@std@@V12@@std@@@2@@std@@QAE@XZ 0042ffa0 f i MRPROF.obj
 0002:00016ff0       ??1?$_Tree_comp@$0A@V?$_Tmap_traits@V?$basic_string@DU?$char_traits@D@std@@V?$allocator@D@2@@std@@V12@U?$less@V?$basic_string@DU?$char_traits@D@std@@V?$allocator@D@2@@std@@@2@V?$allocator@U?$pair@$$CBV?$basic_string@DU?$char_traits@D@std@@V?$allocator@D@2@@std@@V12@@std@@@2@$0A@@std@@@std@@QAE@XZ 0042fff0 f i MRPROF.obj
 0002:00017040       ??1?$_Tree_const_iterator@V?$_Tree_val@U?$_Tree_simple_types@U?$pair@$$CBV?$basic_string@DU?$char_traits@D@std@@V?$allocator@D@2@@std@@V12@@std@@@std@@@std@@@std@@QAE@XZ 00430040 f i MRPROF.obj
 0002:00017090       ??1?$_Tree_iterator@V?$_Tree_val@U?$_Tree_simple_types@U?$pair@$$CBV?$basic_string@DU?$char_traits@D@std@@V?$allocator@D@2@@std@@V12@@std@@@std@@@std@@@std@@QAE@XZ 00430090 f i MRPROF.obj
 0002:000170e0       ??1?$_Tree_unchecked_const_iterator@V?$_Tree_val@U?$_Tree_simple_types@U?$pair@$$CBV?$basic_string@DU?$char_traits@D@std@@V?$allocator@D@2@@std@@V12@@std@@@std@@@std@@U_Iterator_base12@2@@std@@QAE@XZ 004300e0 f i MRPROF.obj
 0002:00017130       ??1?$_Tree_val@U?$_Tree_simple_types@U?$pair@$$CBV?$basic_string@DU?$char_traits@D@std@@V?$allocator@D@2@@std@@V12@@std@@@std@@@std@@QAE@XZ 00430130 f i MRPROF.obj
 0002:00017190       ??1?$basic_string@DU?$char_traits@D@std@@V?$allocator@D@2@@std@@QAE@XZ 00430190 f i MRPROF.obj
 0002:000171f0       ??1?$map@V?$basic_string@DU?$char_traits@D@std@@V?$allocator@D@2@@std@@V12@U?$less@V?$basic_string@DU?$char_traits@D@std@@V?$allocator@D@2@@std@@@2@V?$allocator@U?$pair@$$CBV?$basic_string@DU?$char_traits@D@std@@V?$allocator@D@2@@std@@V12@@std@@@2@@std@@QAE@XZ 004301f0 f i MRPROF.obj
 0002:00017240       ??1?$pair@$$CBV?$basic_string@DU?$char_traits@D@std@@V?$allocator@D@2@@std@@V12@@std@@QAE@XZ 00430240 f i MRPROF.obj
 0002:000172a0       ??1?$pair@V?$_Tree_iterator@V?$_Tree_val@U?$_Tree_simple_types@U?$pair@$$CBV?$basic_string@DU?$char_traits@D@std@@V?$allocator@D@2@@std@@V12@@std@@@std@@@std@@@std@@_N@std@@QAE@XZ 004302a0 f i MRPROF.obj
 0002:000172f0       ??1?$pair@V?$basic_string@DU?$char_traits@D@std@@V?$allocator@D@2@@std@@V12@@std@@QAE@XZ 004302f0 f i MRPROF.obj
 0002:00017350       ??1_Generic_error_category@std@@UAE@XZ 00430350 f i MRPROF.obj
 0002:000173a0       ??1_Iostream_error_category@std@@UAE@XZ 004303a0 f i MRPROF.obj
 0002:000173f0       ??1_Iterator_base12@std@@QAE@XZ 004303f0 f i MRPROF.obj
 0002:000174b0       ??1_System_error_category@std@@UAE@XZ 004304b0 f i MRPROF.obj
 0002:00017500       ??1error_category@std@@UAE@XZ 00430500 f i MRPROF.obj
 0002:00017540       ??2@YAPAXIPAX@Z            00430540 f i MRPROF.obj
 0002:00017580       ??3@YAXPAX0@Z              00430580 f i MRPROF.obj
 0002:000175b0       ??4?$_Iterator012@Ubidirectional_iterator_tag@std@@U?$pair@$$CBV?$basic_string@DU?$char_traits@D@std@@V?$allocator@D@2@@std@@V12@@2@HPBU32@ABU32@U_Iterator_base12@2@@std@@QAEAAU01@ABU01@@Z 004305b0 f i MRPROF.obj
 0002:00017610       ??4?$_Tree_const_iterator@V?$_Tree_val@U?$_Tree_simple_types@U?$pair@$$CBV?$basic_string@DU?$char_traits@D@std@@V?$allocator@D@2@@std@@V12@@std@@@std@@@std@@@std@@QAEAAV01@ABV01@@Z 00430610 f i MRPROF.obj
 0002:00017670       ??4?$_Tree_iterator@V?$_Tree_val@U?$_Tree_simple_types@U?$pair@$$CBV?$basic_string@DU?$char_traits@D@std@@V?$allocator@D@2@@std@@V12@@std@@@std@@@std@@@std@@QAEAAV01@ABV01@@Z 00430670 f i MRPROF.obj
 0002:000176d0       ??4?$_Tree_unchecked_const_iterator@V?$_Tree_val@U?$_Tree_simple_types@U?$pair@$$CBV?$basic_string@DU?$char_traits@D@std@@V?$allocator@D@2@@std@@V12@@std@@@std@@@std@@U_Iterator_base12@2@@std@@QAEAAV01@ABV01@@Z 004306d0 f i MRPROF.obj
 0002:00017740       ??4_Iterator_base12@std@@QAEAAU01@ABU01@@Z 00430740 f i MRPROF.obj
 0002:00017880       ??8?$_Tree_const_iterator@V?$_Tree_val@U?$_Tree_simple_types@U?$pair@$$CBV?$basic_string@DU?$char_traits@D@std@@V?$allocator@D@2@@std@@V12@@std@@@std@@@std@@@std@@QBE_NABV01@@Z 00430880 f i MRPROF.obj
 0002:000179e0       ??8error_category@std@@QBE_NABV01@@Z 004309e0 f i MRPROF.obj
 0002:00017a50       ??8error_condition@std@@QBE_NABV01@@Z 00430a50 f i MRPROF.obj
 0002:00017b00       ??9?$_Tree_const_iterator@V?$_Tree_val@U?$_Tree_simple_types@U?$pair@$$CBV?$basic_string@DU?$char_traits@D@std@@V?$allocator@D@2@@std@@V12@@std@@@std@@@std@@@std@@QBE_NABV01@@Z 00430b00 f i MRPROF.obj
 0002:00017b90       ??C?$_Tree_iterator@V?$_Tree_val@U?$_Tree_simple_types@U?$pair@$$CBV?$basic_string@DU?$char_traits@D@std@@V?$allocator@D@2@@std@@V12@@std@@@std@@@std@@@std@@QBEPAU?$pair@$$CBV?$basic_string@DU?$char_traits@D@std@@V?$allocator@D@2@@std@@V12@@1@XZ 00430b90 f i MRPROF.obj
 0002:00017bf0       ??D?$_Tree_const_iterator@V?$_Tree_val@U?$_Tree_simple_types@U?$pair@$$CBV?$basic_string@DU?$char_traits@D@std@@V?$allocator@D@2@@std@@V12@@std@@@std@@@std@@@std@@QBEABU?$pair@$$CBV?$basic_string@DU?$char_traits@D@std@@V?$allocator@D@2@@std@@V12@@1@XZ 00430bf0 f i MRPROF.obj
 0002:00017d30       ??D?$_Tree_iterator@V?$_Tree_val@U?$_Tree_simple_types@U?$pair@$$CBV?$basic_string@DU?$char_traits@D@std@@V?$allocator@D@2@@std@@V12@@std@@@std@@@std@@@std@@QBEAAU?$pair@$$CBV?$basic_string@DU?$char_traits@D@std@@V?$allocator@D@2@@std@@V12@@1@XZ 00430d30 f i MRPROF.obj
 0002:00017d80       ??E?$_Tree_const_iterator@V?$_Tree_val@U?$_Tree_simple_types@U?$pair@$$CBV?$basic_string@DU?$char_traits@D@std@@V?$allocator@D@2@@std@@V12@@std@@@std@@@std@@@std@@QAE?AV01@H@Z 00430d80 f i MRPROF.obj
 0002:00017ea0       ??E?$_Tree_const_iterator@V?$_Tree_val@U?$_Tree_simple_types@U?$pair@$$CBV?$basic_string@DU?$char_traits@D@std@@V?$allocator@D@2@@std@@V12@@std@@@std@@@std@@@std@@QAEAAV01@XZ 00430ea0 f i MRPROF.obj
 0002:00017fe0       ??E?$_Tree_unchecked_const_iterator@V?$_Tree_val@U?$_Tree_simple_types@U?$pair@$$CBV?$basic_string@DU?$char_traits@D@std@@V?$allocator@D@2@@std@@V12@@std@@@std@@@std@@U_Iterator_base12@2@@std@@QAEAAV01@XZ 00430fe0 f i MRPROF.obj
 0002:00018110       ??F?$_Tree_const_iterator@V?$_Tree_val@U?$_Tree_simple_types@U?$pair@$$CBV?$basic_string@DU?$char_traits@D@std@@V?$allocator@D@2@@std@@V12@@std@@@std@@@std@@@std@@QAEAAV01@XZ 00431110 f i MRPROF.obj
 0002:000182f0       ??F?$_Tree_iterator@V?$_Tree_val@U?$_Tree_simple_types@U?$pair@$$CBV?$basic_string@DU?$char_traits@D@std@@V?$allocator@D@2@@std@@V12@@std@@@std@@@std@@@std@@QAEAAV01@XZ 004312f0 f i MRPROF.obj
 0002:00018350       ??F?$_Tree_unchecked_const_iterator@V?$_Tree_val@U?$_Tree_simple_types@U?$pair@$$CBV?$basic_string@DU?$char_traits@D@std@@V?$allocator@D@2@@std@@V12@@std@@@std@@@std@@U_Iterator_base12@2@@std@@QAEAAV01@XZ 00431350 f i MRPROF.obj
 0002:000184b0       ??R?$less@V?$basic_string@DU?$char_traits@D@std@@V?$allocator@D@2@@std@@@std@@QBE_NABV?$basic_string@DU?$char_traits@D@std@@V?$allocator@D@2@@1@0@Z 004314b0 f i MRPROF.obj
 0002:00018510       ??_G?$pair@$$CBV?$basic_string@DU?$char_traits@D@std@@V?$allocator@D@2@@std@@V12@@std@@QAEPAXI@Z 00431510 f i MRPROF.obj
 0002:00018580       ??_G_Generic_error_category@std@@UAEPAXI@Z 00431580 f i MRPROF.obj
 0002:00018580       ??_E_Generic_error_category@std@@UAEPAXI@Z 00431580 f i MRPROF.obj
 0002:000185f0       ??_E_Iostream_error_category@std@@UAEPAXI@Z 004315f0 f i MRPROF.obj
 0002:000185f0       ??_G_Iostream_error_category@std@@UAEPAXI@Z 004315f0 f i MRPROF.obj
 0002:00018660       ??_E_System_error_category@std@@UAEPAXI@Z 00431660 f i MRPROF.obj
 0002:00018660       ??_G_System_error_category@std@@UAEPAXI@Z 00431660 f i MRPROF.obj
 0002:000186d0       ??_Eerror_category@std@@UAEPAXI@Z 004316d0 f i MRPROF.obj
 0002:000186d0       ??_Gerror_category@std@@UAEPAXI@Z 004316d0 f i MRPROF.obj
 0002:00018740       ?_Adopt@_Iterator_base12@std@@QAEXPBU_Container_base12@2@@Z 00431740 f i MRPROF.obj
 0002:000188f0       ?_Alloc_proxy@?$_String_alloc@$0A@U?$_String_base_types@DV?$allocator@D@std@@@std@@@std@@QAEXXZ 004318f0 f i MRPROF.obj
 0002:000189c0       ?_Alloc_proxy@?$_Tree_alloc@$0A@U?$_Tree_base_types@U?$pair@$$CBV?$basic_string@DU?$char_traits@D@std@@V?$allocator@D@2@@std@@V12@@std@@V?$allocator@U?$pair@$$CBV?$basic_string@DU?$char_traits@D@std@@V?$allocator@D@2@@std@@V12@@std@@@2@@std@@@std@@QAEXXZ 004319c0 f i MRPROF.obj
 0002:00018aa0       ?_Assign_rv@?$basic_string@DU?$char_traits@D@std@@V?$allocator@D@2@@std@@QAEX$$QAV12@@Z 00431aa0 f i MRPROF.obj
 0002:00018b90       ?_Buyheadnode@?$_Tree_alloc@$0A@U?$_Tree_base_types@U?$pair@$$CBV?$basic_string@DU?$char_traits@D@std@@V?$allocator@D@2@@std@@V12@@std@@V?$allocator@U?$pair@$$CBV?$basic_string@DU?$char_traits@D@std@@V?$allocator@D@2@@std@@V12@@std@@@2@@std@@@std@@QAEPAU?$_Tree_node@U?$pair@$$CBV?$basic_string@DU?$char_traits@D@std@@V?$allocator@D@2@@std@@V12@@std@@PAX@2@XZ 00431b90 f i MRPROF.obj
 0002:00018df0       ?_Buynode0@?$_Tree_buy@U?$pair@$$CBV?$basic_string@DU?$char_traits@D@std@@V?$allocator@D@2@@std@@V12@@std@@V?$allocator@U?$pair@$$CBV?$basic_string@DU?$char_traits@D@std@@V?$allocator@D@2@@std@@V12@@std@@@2@@std@@QAEPAU?$_Tree_node@U?$pair@$$CBV?$basic_string@DU?$char_traits@D@std@@V?$allocator@D@2@@std@@V12@@std@@PAX@2@XZ 00431df0 f i MRPROF.obj
 0002:00019000       ?_Clrcont@_Iterator_base12@std@@QAEXXZ 00432000 f i MRPROF.obj
 0002:00019040       ?_Color@?$_Tree_val@U?$_Tree_simple_types@U?$pair@$$CBV?$basic_string@DU?$char_traits@D@std@@V?$allocator@D@2@@std@@V12@@std@@@std@@@std@@SAAADPAU?$_Tree_node@U?$pair@$$CBV?$basic_string@DU?$char_traits@D@std@@V?$allocator@D@2@@std@@V12@@std@@PAX@2@@Z 00432040 f i MRPROF.obj
 0002:00019080       ?_Copy@?$basic_string@DU?$char_traits@D@std@@V?$allocator@D@2@@std@@QAEXII@Z 00432080 f i MRPROF.obj
 0002:00019340       ?_Destroy_if_not_nil@?$_Tree@V?$_Tmap_traits@V?$basic_string@DU?$char_traits@D@std@@V?$allocator@D@2@@std@@V12@U?$less@V?$basic_string@DU?$char_traits@D@std@@V?$allocator@D@2@@std@@@2@V?$allocator@U?$pair@$$CBV?$basic_string@DU?$char_traits@D@std@@V?$allocator@D@2@@std@@V12@@std@@@2@$0A@@std@@@std@@IAEXPAU?$_Tree_node@U?$pair@$$CBV?$basic_string@DU?$char_traits@D@std@@V?$allocator@D@2@@std@@V12@@std@@PAX@2@@Z 00432340 f i MRPROF.obj
 0002:000193f0       ?_Eos@?$basic_string@DU?$char_traits@D@std@@V?$allocator@D@2@@std@@QAEXI@Z 004323f0 f i MRPROF.obj
 0002:00019470       ?_Erase@?$_Tree@V?$_Tmap_traits@V?$basic_string@DU?$char_traits@D@std@@V?$allocator@D@2@@std@@V12@U?$less@V?$basic_string@DU?$char_traits@D@std@@V?$allocator@D@2@@std@@@2@V?$allocator@U?$pair@$$CBV?$basic_string@DU?$char_traits@D@std@@V?$allocator@D@2@@std@@V12@@std@@@2@$0A@@std@@@std@@IAEXPAU?$_Tree_node@U?$pair@$$CBV?$basic_string@DU?$char_traits@D@std@@V?$allocator@D@2@@std@@V12@@std@@PAX@2@@Z 00432470 f i MRPROF.obj
 0002:00019580       ?_Free_proxy@?$_String_alloc@$0A@U?$_String_base_types@DV?$allocator@D@std@@@std@@@std@@QAEXXZ 00432580 f i MRPROF.obj
 0002:00019660       ?_Free_proxy@?$_Tree_alloc@$0A@U?$_Tree_base_types@U?$pair@$$CBV?$basic_string@DU?$char_traits@D@std@@V?$allocator@D@2@@std@@V12@@std@@V?$allocator@U?$pair@$$CBV?$basic_string@DU?$char_traits@D@std@@V?$allocator@D@2@@std@@V12@@std@@@2@@std@@@std@@QAEXXZ 00432660 f i MRPROF.obj
 0002:00019750       ?_Freeheadnode@?$_Tree_alloc@$0A@U?$_Tree_base_types@U?$pair@$$CBV?$basic_string@DU?$char_traits@D@std@@V?$allocator@D@2@@std@@V12@@std@@V?$allocator@U?$pair@$$CBV?$basic_string@DU?$char_traits@D@std@@V?$allocator@D@2@@std@@V12@@std@@@2@@std@@@std@@QAEXPAU?$_Tree_node@U?$pair@$$CBV?$basic_string@DU?$char_traits@D@std@@V?$allocator@D@2@@std@@V12@@std@@PAX@2@@Z 00432750 f i MRPROF.obj
 0002:00019860       ?_Freenode0@?$_Tree_buy@U?$pair@$$CBV?$basic_string@DU?$char_traits@D@std@@V?$allocator@D@2@@std@@V12@@std@@V?$allocator@U?$pair@$$CBV?$basic_string@DU?$char_traits@D@std@@V?$allocator@D@2@@std@@V12@@std@@@2@@std@@QAEXPAU?$_Tree_node@U?$pair@$$CBV?$basic_string@DU?$char_traits@D@std@@V?$allocator@D@2@@std@@V12@@std@@PAX@2@@Z 00432860 f i MRPROF.obj
 0002:00019970       ?_Getal@?$_String_alloc@$0A@U?$_String_base_types@DV?$allocator@D@std@@@std@@@std@@QBE?AU?$_Wrap_alloc@V?$allocator@D@std@@@2@XZ 00432970 f i MRPROF.obj
 0002:000199d0       ?_Getal@?$_Tree_alloc@$0A@U?$_Tree_base_types@U?$pair@$$CBV?$basic_string@DU?$char_traits@D@std@@V?$allocator@D@2@@std@@V12@@std@@V?$allocator@U?$pair@$$CBV?$basic_string@DU?$char_traits@D@std@@V?$allocator@D@2@@std@@V12@@std@@@2@@std@@@std@@QBE?AU?$_Wrap_alloc@V?$allocator@U?$_Tree_node@U?$pair@$$CBV?$basic_string@DU?$char_traits@D@std@@V?$allocator@D@2@@std@@V12@@std@@PAX@std@@@std@@@2@XZ 004329d0 f i MRPROF.obj
 0002:00019a30       ?_Getcomp@?$_Tree_comp@$0A@V?$_Tmap_traits@V?$basic_string@DU?$char_traits@D@std@@V?$allocator@D@2@@std@@V12@U?$less@V?$basic_string@DU?$char_traits@D@std@@V?$allocator@D@2@@std@@@2@V?$allocator@U?$pair@$$CBV?$basic_string@DU?$char_traits@D@std@@V?$allocator@D@2@@std@@V12@@std@@@2@$0A@@std@@@std@@QBE?AU?$less@V?$basic_string@DU?$char_traits@D@std@@V?$allocator@D@2@@std@@@2@XZ 00432a30 f i MRPROF.obj
 0002:00019a70       ?_Getcont@_Iterator_base12@std@@QBEPBU_Container_base12@2@XZ 00432a70 f i MRPROF.obj
 0002:00019ae0       ?_Getpnext@_Iterator_base12@std@@QAEPAPAU12@XZ 00432ae0 f i MRPROF.obj
 0002:00019b20       ?_Grow@?$basic_string@DU?$char_traits@D@std@@V?$allocator@D@2@@std@@QAE_NI_N@Z 00432b20 f i MRPROF.obj
 0002:00019c40       ?_Inside@?$basic_string@DU?$char_traits@D@std@@V?$allocator@D@2@@std@@QAE_NPBD@Z 00432c40 f i MRPROF.obj
 0002:00019cc0       ?_Isnil@?$_Tree_val@U?$_Tree_simple_types@U?$pair@$$CBV?$basic_string@DU?$char_traits@D@std@@V?$allocator@D@2@@std@@V12@@std@@@std@@@std@@SAAADPAU?$_Tree_node@U?$pair@$$CBV?$basic_string@DU?$char_traits@D@std@@V?$allocator@D@2@@std@@V12@@std@@PAX@2@@Z 00432cc0 f i MRPROF.obj
 0002:00019d00       ?_Key@?$_Tree@V?$_Tmap_traits@V?$basic_string@DU?$char_traits@D@std@@V?$allocator@D@2@@std@@V12@U?$less@V?$basic_string@DU?$char_traits@D@std@@V?$allocator@D@2@@std@@@2@V?$allocator@U?$pair@$$CBV?$basic_string@DU?$char_traits@D@std@@V?$allocator@D@2@@std@@V12@@std@@@2@$0A@@std@@@std@@IBEABV?$basic_string@DU?$char_traits@D@std@@V?$allocator@D@2@@2@PAU?$_Tree_node@U?$pair@$$CBV?$basic_string@DU?$char_traits@D@std@@V?$allocator@D@2@@std@@V12@@std@@PAX@2@@Z 00432d00 f i MRPROF.obj
 0002:00019d70       ?_Kfn@?$_Tree@V?$_Tmap_traits@V?$basic_string@DU?$char_traits@D@std@@V?$allocator@D@2@@std@@V12@U?$less@V?$basic_string@DU?$char_traits@D@std@@V?$allocator@D@2@@std@@@2@V?$allocator@U?$pair@$$CBV?$basic_string@DU?$char_traits@D@std@@V?$allocator@D@2@@std@@V12@@std@@@2@$0A@@std@@@std@@IBEABV?$basic_string@DU?$char_traits@D@std@@V?$allocator@D@2@@2@ABU?$pair@$$CBV?$basic_string@DU?$char_traits@D@std@@V?$allocator@D@2@@std@@V12@@2@@Z 00432d70 f i MRPROF.obj
 0002:00019dd0       ?_Lbound@?$_Tree@V?$_Tmap_traits@V?$basic_string@DU?$char_traits@D@std@@V?$allocator@D@2@@std@@V12@U?$less@V?$basic_string@DU?$char_traits@D@std@@V?$allocator@D@2@@std@@@2@V?$allocator@U?$pair@$$CBV?$basic_string@DU?$char_traits@D@std@@V?$allocator@D@2@@std@@V12@@std@@@2@$0A@@std@@@std@@IAEPAU?$_Tree_node@U?$pair@$$CBV?$basic_string@DU?$char_traits@D@std@@V?$allocator@D@2@@std@@V12@@std@@PAX@2@ABV?$basic_string@DU?$char_traits@D@std@@V?$allocator@D@2@@2@@Z 00432dd0 f i MRPROF.obj
 0002:00019ee0       ?_Left@?$_Tree_val@U?$_Tree_simple_types@U?$pair@$$CBV?$basic_string@DU?$char_traits@D@std@@V?$allocator@D@2@@std@@V12@@std@@@std@@@std@@SAAAPAU?$_Tree_node@U?$pair@$$CBV?$basic_string@DU?$char_traits@D@std@@V?$allocator@D@2@@std@@V12@@std@@PAX@2@PAU32@@Z 00432ee0 f i MRPROF.obj
 0002:00019f20       ?_Lmost@?$_Tree@V?$_Tmap_traits@V?$basic_string@DU?$char_traits@D@std@@V?$allocator@D@2@@std@@V12@U?$less@V?$basic_string@DU?$char_traits@D@std@@V?$allocator@D@2@@std@@@2@V?$allocator@U?$pair@$$CBV?$basic_string@DU?$char_traits@D@std@@V?$allocator@D@2@@std@@V12@@std@@@2@$0A@@std@@@std@@IBEAAPAU?$_Tree_node@U?$pair@$$CBV?$basic_string@DU?$char_traits@D@std@@V?$allocator@D@2@@std@@V12@@std@@PAX@2@XZ 00432f20 f i MRPROF.obj
 0002:00019f80       ?_Lrotate@?$_Tree@V?$_Tmap_traits@V?$basic_string@DU?$char_traits@D@std@@V?$allocator@D@2@@std@@V12@U?$less@V?$basic_string@DU?$char_traits@D@std@@V?$allocator@D@2@@std@@@2@V?$allocator@U?$pair@$$CBV?$basic_string@DU?$char_traits@D@std@@V?$allocator@D@2@@std@@V12@@std@@@2@$0A@@std@@@std@@IAEXPAU?$_Tree_node@U?$pair@$$CBV?$basic_string@DU?$char_traits@D@std@@V?$allocator@D@2@@std@@V12@@std@@PAX@2@@Z 00432f80 f i MRPROF.obj
 0002:0001a130       ?_Max@?$_Tree_val@U?$_Tree_simple_types@U?$pair@$$CBV?$basic_string@DU?$char_traits@D@std@@V?$allocator@D@2@@std@@V12@@std@@@std@@@std@@SAPAU?$_Tree_node@U?$pair@$$CBV?$basic_string@DU?$char_traits@D@std@@V?$allocator@D@2@@std@@V12@@std@@PAX@2@PAU32@@Z 00433130 f i MRPROF.obj
 0002:0001a1b0       ?_Min@?$_Tree_val@U?$_Tree_simple_types@U?$pair@$$CBV?$basic_string@DU?$char_traits@D@std@@V?$allocator@D@2@@std@@V12@@std@@@std@@@std@@SAPAU?$_Tree_node@U?$pair@$$CBV?$basic_string@DU?$char_traits@D@std@@V?$allocator@D@2@@std@@V12@@std@@PAX@2@PAU32@@Z 004331b0 f i MRPROF.obj
 0002:0001a230       ?_Mynode@?$_Tree_unchecked_const_iterator@V?$_Tree_val@U?$_Tree_simple_types@U?$pair@$$CBV?$basic_string@DU?$char_traits@D@std@@V?$allocator@D@2@@std@@V12@@std@@@std@@@std@@U_Iterator_base12@2@@std@@QBEPAU?$_Tree_node@U?$pair@$$CBV?$basic_string@DU?$char_traits@D@std@@V?$allocator@D@2@@std@@V12@@std@@PAX@2@XZ 00433230 f i MRPROF.obj
 0002:0001a270       ?_Myptr@?$_String_val@U?$_Simple_types@D@std@@@std@@QAEPADXZ 00433270 f i MRPROF.obj
 0002:0001a300       ?_Myptr@?$_String_val@U?$_Simple_types@D@std@@@std@@QBEPBDXZ 00433300 f i MRPROF.obj
 0002:0001a390       ?_Myval@?$_Tree_val@U?$_Tree_simple_types@U?$pair@$$CBV?$basic_string@DU?$char_traits@D@std@@V?$allocator@D@2@@std@@V12@@std@@@std@@@std@@SAAAU?$pair@$$CBV?$basic_string@DU?$char_traits@D@std@@V?$allocator@D@2@@std@@V12@@2@PAU?$_Tree_node@U?$pair@$$CBV?$basic_string@DU?$char_traits@D@std@@V?$allocator@D@2@@std@@V12@@std@@PAX@2@@Z 00433390 f i MRPROF.obj
 0002:0001a3d0       ?_Orphan_me@_Iterator_base12@std@@QAEXXZ 004333d0 f i MRPROF.obj
 0002:0001a4a0       ?_Orphan_ptr@?$_Tree@V?$_Tmap_traits@V?$basic_string@DU?$char_traits@D@std@@V?$allocator@D@2@@std@@V12@U?$less@V?$basic_string@DU?$char_traits@D@std@@V?$allocator@D@2@@std@@@2@V?$allocator@U?$pair@$$CBV?$basic_string@DU?$char_traits@D@std@@V?$allocator@D@2@@std@@V12@@std@@@2@$0A@@std@@@std@@IBEXAAV12@PAU?$_Tree_node@U?$pair@$$CBV?$basic_string@DU?$char_traits@D@std@@V?$allocator@D@2@@std@@V12@@std@@PAX@2@@Z 004334a0 f i MRPROF.obj
 0002:0001a630       ?_Parent@?$_Tree_val@U?$_Tree_simple_types@U?$pair@$$CBV?$basic_string@DU?$char_traits@D@std@@V?$allocator@D@2@@std@@V12@@std@@@std@@@std@@SAAAPAU?$_Tree_node@U?$pair@$$CBV?$basic_string@DU?$char_traits@D@std@@V?$allocator@D@2@@std@@V12@@std@@PAX@2@PAU32@@Z 00433630 f i MRPROF.obj
 0002:0001a670       ?_Right@?$_Tree_val@U?$_Tree_simple_types@U?$pair@$$CBV?$basic_string@DU?$char_traits@D@std@@V?$allocator@D@2@@std@@V12@@std@@@std@@@std@@SAAAPAU?$_Tree_node@U?$pair@$$CBV?$basic_string@DU?$char_traits@D@std@@V?$allocator@D@2@@std@@V12@@std@@PAX@2@PAU32@@Z 00433670 f i MRPROF.obj
 0002:0001a6b0       ?_Rmost@?$_Tree@V?$_Tmap_traits@V?$basic_string@DU?$char_traits@D@std@@V?$allocator@D@2@@std@@V12@U?$less@V?$basic_string@DU?$char_traits@D@std@@V?$allocator@D@2@@std@@@2@V?$allocator@U?$pair@$$CBV?$basic_string@DU?$char_traits@D@std@@V?$allocator@D@2@@std@@V12@@std@@@2@$0A@@std@@@std@@IBEAAPAU?$_Tree_node@U?$pair@$$CBV?$basic_string@DU?$char_traits@D@std@@V?$allocator@D@2@@std@@V12@@std@@PAX@2@XZ 004336b0 f i MRPROF.obj
 0002:0001a710       ?_Root@?$_Tree@V?$_Tmap_traits@V?$basic_string@DU?$char_traits@D@std@@V?$allocator@D@2@@std@@V12@U?$less@V?$basic_string@DU?$char_traits@D@std@@V?$allocator@D@2@@std@@@2@V?$allocator@U?$pair@$$CBV?$basic_string@DU?$char_traits@D@std@@V?$allocator@D@2@@std@@V12@@std@@@2@$0A@@std@@@std@@IBEAAPAU?$_Tree_node@U?$pair@$$CBV?$basic_string@DU?$char_traits@D@std@@V?$allocator@D@2@@std@@V12@@std@@PAX@2@XZ 00433710 f i MRPROF.obj
 0002:0001a770       ?_Rrotate@?$_Tree@V?$_Tmap_traits@V?$basic_string@DU?$char_traits@D@std@@V?$allocator@D@2@@std@@V12@U?$less@V?$basic_string@DU?$char_traits@D@std@@V?$allocator@D@2@@std@@@2@V?$allocator@U?$pair@$$CBV?$basic_string@DU?$char_traits@D@std@@V?$allocator@D@2@@std@@V12@@std@@@2@$0A@@std@@@std@@IAEXPAU?$_Tree_node@U?$pair@$$CBV?$basic_string@DU?$char_traits@D@std@@V?$allocator@D@2@@std@@V12@@std@@PAX@2@@Z 00433770 f i MRPROF.obj
 0002:0001a920       ?_Tidy@?$_Tree@V?$_Tmap_traits@V?$basic_string@DU?$char_traits@D@std@@V?$allocator@D@2@@std@@V12@U?$less@V?$basic_string@DU?$char_traits@D@std@@V?$allocator@D@2@@std@@@2@V?$allocator@U?$pair@$$CBV?$basic_string@DU?$char_traits@D@std@@V?$allocator@D@2@@std@@V12@@std@@@2@$0A@@std@@@std@@IAEXXZ 00433920 f i MRPROF.obj
 0002:0001aab0       ?_Tidy@?$basic_string@DU?$char_traits@D@std@@V?$allocator@D@2@@std@@QAEX_NI@Z 00433ab0 f i MRPROF.obj
 0002:0001abc0       ?_Xlen@?$basic_string@DU?$char_traits@D@std@@V?$allocator@D@2@@std@@QBEXXZ 00433bc0 f i MRPROF.obj
 0002:0001ac20       ?_Xran@?$basic_string@DU?$char_traits@D@std@@V?$allocator@D@2@@std@@QBEXXZ 00433c20 f i MRPROF.obj
 0002:0001ac80       ?allocate@?$_Wrap_alloc@V?$allocator@D@std@@@std@@QAEPADI@Z 00433c80 f i MRPROF.obj
 0002:0001ace0       ?allocate@?$_Wrap_alloc@V?$allocator@U?$_Tree_node@U?$pair@$$CBV?$basic_string@DU?$char_traits@D@std@@V?$allocator@D@2@@std@@V12@@std@@PAX@std@@@std@@@std@@QAEPAU?$_Tree_node@U?$pair@$$CBV?$basic_string@DU?$char_traits@D@std@@V?$allocator@D@2@@std@@V12@@std@@PAX@2@I@Z 00433ce0 f i MRPROF.obj
 0002:0001ad40       ?allocate@?$_Wrap_alloc@V?$allocator@U_Container_proxy@std@@@std@@@std@@QAEPAU_Container_proxy@2@I@Z 00433d40 f i MRPROF.obj
 0002:0001ada0       ?allocate@?$allocator@D@std@@QAEPADI@Z 00433da0 f i MRPROF.obj
 0002:0001ae00       ?allocate@?$allocator@U?$_Tree_node@U?$pair@$$CBV?$basic_string@DU?$char_traits@D@std@@V?$allocator@D@2@@std@@V12@@std@@PAX@std@@@std@@QAEPAU?$_Tree_node@U?$pair@$$CBV?$basic_string@DU?$char_traits@D@std@@V?$allocator@D@2@@std@@V12@@std@@PAX@2@I@Z 00433e00 f i MRPROF.obj
 0002:0001ae60       ?allocate@?$allocator@U_Container_proxy@std@@@std@@QAEPAU_Container_proxy@2@I@Z 00433e60 f i MRPROF.obj
 0002:0001aec0       ?assign@?$basic_string@DU?$char_traits@D@std@@V?$allocator@D@2@@std@@QAEAAV12@ABV12@II@Z 00433ec0 f i MRPROF.obj
 0002:0001afd0       ?assign@?$basic_string@DU?$char_traits@D@std@@V?$allocator@D@2@@std@@QAEAAV12@PBD@Z 00433fd0 f i MRPROF.obj
 0002:0001b060       ?assign@?$basic_string@DU?$char_traits@D@std@@V?$allocator@D@2@@std@@QAEAAV12@PBDI@Z 00434060 f i MRPROF.obj
 0002:0001b160       ?assign@?$char_traits@D@std@@SAXAADABD@Z 00434160 f i MRPROF.obj
 0002:0001b1a0       ?begin@?$_Tree@V?$_Tmap_traits@V?$basic_string@DU?$char_traits@D@std@@V?$allocator@D@2@@std@@V12@U?$less@V?$basic_string@DU?$char_traits@D@std@@V?$allocator@D@2@@std@@@2@V?$allocator@U?$pair@$$CBV?$basic_string@DU?$char_traits@D@std@@V?$allocator@D@2@@std@@V12@@std@@@2@$0A@@std@@@std@@QAE?AV?$_Tree_iterator@V?$_Tree_val@U?$_Tree_simple_types@U?$pair@$$CBV?$basic_string@DU?$char_traits@D@std@@V?$allocator@D@2@@std@@V12@@std@@@std@@@std@@@2@XZ 004341a0 f i MRPROF.obj
 0002:0001b210       ?c_str@?$basic_string@DU?$char_traits@D@std@@V?$allocator@D@2@@std@@QBEPBDXZ 00434210 f i MRPROF.obj
 0002:0001b260       ?category@error_code@std@@QBEABVerror_category@2@XZ 00434260 f i MRPROF.obj
 0002:0001b2a0       ?category@error_condition@std@@QBEABVerror_category@2@XZ 004342a0 f i MRPROF.obj
 0002:0001b2e0       ?clear@?$_Tree@V?$_Tmap_traits@V?$basic_string@DU?$char_traits@D@std@@V?$allocator@D@2@@std@@V12@U?$less@V?$basic_string@DU?$char_traits@D@std@@V?$allocator@D@2@@std@@@2@V?$allocator@U?$pair@$$CBV?$basic_string@DU?$char_traits@D@std@@V?$allocator@D@2@@std@@V12@@std@@@2@$0A@@std@@@std@@QAEXXZ 004342e0 f i MRPROF.obj
 0002:0001b3a0       ?compare@?$basic_string@DU?$char_traits@D@std@@V?$allocator@D@2@@std@@QBEHABV12@@Z 004343a0 f i MRPROF.obj
 0002:0001b420       ?compare@?$basic_string@DU?$char_traits@D@std@@V?$allocator@D@2@@std@@QBEHIIPBDI@Z 00434420 f i MRPROF.obj
 0002:0001b590       ?compare@?$char_traits@D@std@@SAHPBD0I@Z 00434590 f i MRPROF.obj
 0002:0001b610       ?copy@?$char_traits@D@std@@SAPADPADPBDI@Z 00434610 f i MRPROF.obj
 0002:0001b690       ?deallocate@?$_Wrap_alloc@V?$allocator@D@std@@@std@@QAEXPADI@Z 00434690 f i MRPROF.obj
 0002:0001b6f0       ?deallocate@?$_Wrap_alloc@V?$allocator@U?$_Tree_node@U?$pair@$$CBV?$basic_string@DU?$char_traits@D@std@@V?$allocator@D@2@@std@@V12@@std@@PAX@std@@@std@@@std@@QAEXPAU?$_Tree_node@U?$pair@$$CBV?$basic_string@DU?$char_traits@D@std@@V?$allocator@D@2@@std@@V12@@std@@PAX@2@I@Z 004346f0 f i MRPROF.obj
 0002:0001b750       ?deallocate@?$_Wrap_alloc@V?$allocator@U_Container_proxy@std@@@std@@@std@@QAEXPAU_Container_proxy@2@I@Z 00434750 f i MRPROF.obj
 0002:0001b7b0       ?deallocate@?$allocator@D@std@@QAEXPADI@Z 004347b0 f i MRPROF.obj
 0002:0001b810       ?deallocate@?$allocator@U?$_Tree_node@U?$pair@$$CBV?$basic_string@DU?$char_traits@D@std@@V?$allocator@D@2@@std@@V12@@std@@PAX@std@@@std@@QAEXPAU?$_Tree_node@U?$pair@$$CBV?$basic_string@DU?$char_traits@D@std@@V?$allocator@D@2@@std@@V12@@std@@PAX@2@I@Z 00434810 f i MRPROF.obj
 0002:0001b870       ?deallocate@?$allocator@U_Container_proxy@std@@@std@@QAEXPAU_Container_proxy@2@I@Z 00434870 f i MRPROF.obj
 0002:0001b8d0       ?default_error_condition@_System_error_category@std@@UBE?AVerror_condition@2@H@Z 004348d0 f i MRPROF.obj
 0002:0001b980       ?default_error_condition@error_category@std@@UBE?AVerror_condition@2@H@Z 00434980 f i MRPROF.obj
 0002:0001b9e0       ?end@?$_Tree@V?$_Tmap_traits@V?$basic_string@DU?$char_traits@D@std@@V?$allocator@D@2@@std@@V12@U?$less@V?$basic_string@DU?$char_traits@D@std@@V?$allocator@D@2@@std@@@2@V?$allocator@U?$pair@$$CBV?$basic_string@DU?$char_traits@D@std@@V?$allocator@D@2@@std@@V12@@std@@@2@$0A@@std@@@std@@QAE?AV?$_Tree_iterator@V?$_Tree_val@U?$_Tree_simple_types@U?$pair@$$CBV?$basic_string@DU?$char_traits@D@std@@V?$allocator@D@2@@std@@V12@@std@@@std@@@std@@@2@XZ 004349e0 f i MRPROF.obj
 0002:0001ba50       ?equivalent@error_category@std@@UBE_NABVerror_code@2@H@Z 00434a50 f i MRPROF.obj
 0002:0001baf0       ?equivalent@error_category@std@@UBE_NHABVerror_condition@2@@Z 00434af0 f i MRPROF.obj
 0002:0001bb70       ?erase@?$_Tree@V?$_Tmap_traits@V?$basic_string@DU?$char_traits@D@std@@V?$allocator@D@2@@std@@V12@U?$less@V?$basic_string@DU?$char_traits@D@std@@V?$allocator@D@2@@std@@@2@V?$allocator@U?$pair@$$CBV?$basic_string@DU?$char_traits@D@std@@V?$allocator@D@2@@std@@V12@@std@@@2@$0A@@std@@@std@@QAE?AV?$_Tree_iterator@V?$_Tree_val@U?$_Tree_simple_types@U?$pair@$$CBV?$basic_string@DU?$char_traits@D@std@@V?$allocator@D@2@@std@@V12@@std@@@std@@@std@@@2@V?$_Tree_const_iterator@V?$_Tree_val@U?$_Tree_simple_types@U?$pair@$$CBV?$basic_string@DU?$char_traits@D@std@@V?$allocator@D@2@@std@@V12@@std@@@std@@@std@@@2@0@Z 00434b70 f i MRPROF.obj
 0002:0001be90       ?erase@?$_Tree@V?$_Tmap_traits@V?$basic_string@DU?$char_traits@D@std@@V?$allocator@D@2@@std@@V12@U?$less@V?$basic_string@DU?$char_traits@D@std@@V?$allocator@D@2@@std@@@2@V?$allocator@U?$pair@$$CBV?$basic_string@DU?$char_traits@D@std@@V?$allocator@D@2@@std@@V12@@std@@@2@$0A@@std@@@std@@QAE?AV?$_Tree_iterator@V?$_Tree_val@U?$_Tree_simple_types@U?$pair@$$CBV?$basic_string@DU?$char_traits@D@std@@V?$allocator@D@2@@std@@V12@@std@@@std@@@std@@@2@V?$_Tree_const_iterator@V?$_Tree_val@U?$_Tree_simple_types@U?$pair@$$CBV?$basic_string@DU?$char_traits@D@std@@V?$allocator@D@2@@std@@V12@@std@@@std@@@std@@@2@@Z 00434e90 f i MRPROF.obj
 0002:0001c910       ?erase@?$basic_string@DU?$char_traits@D@std@@V?$allocator@D@2@@std@@QAEAAV12@I@Z 00435910 f i MRPROF.obj
 0002:0001c990       ?erase@?$basic_string@DU?$char_traits@D@std@@V?$allocator@D@2@@std@@QAEAAV12@II@Z 00435990 f i MRPROF.obj
 0002:0001ca70       ?find@?$_Tree@V?$_Tmap_traits@V?$basic_string@DU?$char_traits@D@std@@V?$allocator@D@2@@std@@V12@U?$less@V?$basic_string@DU?$char_traits@D@std@@V?$allocator@D@2@@std@@@2@V?$allocator@U?$pair@$$CBV?$basic_string@DU?$char_traits@D@std@@V?$allocator@D@2@@std@@V12@@std@@@2@$0A@@std@@@std@@QAE?AV?$_Tree_iterator@V?$_Tree_val@U?$_Tree_simple_types@U?$pair@$$CBV?$basic_string@DU?$char_traits@D@std@@V?$allocator@D@2@@std@@V12@@std@@@std@@@std@@@2@ABV?$basic_string@DU?$char_traits@D@std@@V?$allocator@D@2@@2@@Z 00435a70 f i MRPROF.obj
 0002:0001cd80       ?generic_category@std@@YAABVerror_category@1@XZ 00435d80 f i MRPROF.obj
 0002:0001cdc0       ?length@?$char_traits@D@std@@SAIPBD@Z 00435dc0 f i MRPROF.obj
 0002:0001ce40       ?lower_bound@?$_Tree@V?$_Tmap_traits@V?$basic_string@DU?$char_traits@D@std@@V?$allocator@D@2@@std@@V12@U?$less@V?$basic_string@DU?$char_traits@D@std@@V?$allocator@D@2@@std@@@2@V?$allocator@U?$pair@$$CBV?$basic_string@DU?$char_traits@D@std@@V?$allocator@D@2@@std@@V12@@std@@@2@$0A@@std@@@std@@QAE?AV?$_Tree_iterator@V?$_Tree_val@U?$_Tree_simple_types@U?$pair@$$CBV?$basic_string@DU?$char_traits@D@std@@V?$allocator@D@2@@std@@V12@@std@@@std@@@std@@@2@ABV?$basic_string@DU?$char_traits@D@std@@V?$allocator@D@2@@2@@Z 00435e40 f i MRPROF.obj
 0002:0001ced0       ?max_size@?$_Tree@V?$_Tmap_traits@V?$basic_string@DU?$char_traits@D@std@@V?$allocator@D@2@@std@@V12@U?$less@V?$basic_string@DU?$char_traits@D@std@@V?$allocator@D@2@@std@@@2@V?$allocator@U?$pair@$$CBV?$basic_string@DU?$char_traits@D@std@@V?$allocator@D@2@@std@@V12@@std@@@2@$0A@@std@@@std@@QBEIXZ 00435ed0 f i MRPROF.obj
 0002:0001cf30       ?max_size@?$_Wrap_alloc@V?$allocator@D@std@@@std@@QBEIXZ 00435f30 f i MRPROF.obj
 0002:0001cf90       ?max_size@?$_Wrap_alloc@V?$allocator@U?$_Tree_node@U?$pair@$$CBV?$basic_string@DU?$char_traits@D@std@@V?$allocator@D@2@@std@@V12@@std@@PAX@std@@@std@@@std@@QBEIXZ 00435f90 f i MRPROF.obj
 0002:0001cff0       ?max_size@?$allocator@D@std@@QBEIXZ 00435ff0 f i MRPROF.obj
 0002:0001d030       ?max_size@?$allocator@U?$_Tree_node@U?$pair@$$CBV?$basic_string@DU?$char_traits@D@std@@V?$allocator@D@2@@std@@V12@@std@@PAX@std@@@std@@QBEIXZ 00436030 f i MRPROF.obj
 0002:0001d070       ?max_size@?$allocator_traits@V?$allocator@D@std@@@std@@SAIABV?$allocator@D@2@@Z 00436070 f i MRPROF.obj
 0002:0001d0c0       ?max_size@?$allocator_traits@V?$allocator@U?$_Tree_node@U?$pair@$$CBV?$basic_string@DU?$char_traits@D@std@@V?$allocator@D@2@@std@@V12@@std@@PAX@std@@@std@@@std@@SAIABV?$allocator@U?$_Tree_node@U?$pair@$$CBV?$basic_string@DU?$char_traits@D@std@@V?$allocator@D@2@@std@@V12@@std@@PAX@std@@@2@@Z 004360c0 f i MRPROF.obj
 0002:0001d110       ?max_size@?$basic_string@DU?$char_traits@D@std@@V?$allocator@D@2@@std@@QBEIXZ 00436110 f i MRPROF.obj
 0002:0001d1b0       ?message@_Generic_error_category@std@@UBE?AV?$basic_string@DU?$char_traits@D@std@@V?$allocator@D@2@@2@H@Z 004361b0 f i MRPROF.obj
 0002:0001d270       ?message@_Iostream_error_category@std@@UBE?AV?$basic_string@DU?$char_traits@D@std@@V?$allocator@D@2@@2@H@Z 00436270 f i MRPROF.obj
 0002:0001d330       ?message@_System_error_category@std@@UBE?AV?$basic_string@DU?$char_traits@D@std@@V?$allocator@D@2@@2@H@Z 00436330 f i MRPROF.obj
 0002:0001d3f0       ?move@?$char_traits@D@std@@SAPADPADPBDI@Z 004363f0 f i MRPROF.obj
 0002:0001d480       ?name@_Generic_error_category@std@@UBEPBDXZ 00436480 f i MRPROF.obj
 0002:0001d4c0       ?name@_Iostream_error_category@std@@UBEPBDXZ 004364c0 f i MRPROF.obj
 0002:0001d500       ?name@_System_error_category@std@@UBEPBDXZ 00436500 f i MRPROF.obj
 0002:0001d540       ?pointer_to@?$pointer_traits@PAU?$pair@$$CBV?$basic_string@DU?$char_traits@D@std@@V?$allocator@D@2@@std@@V12@@std@@@std@@SAPAU?$pair@$$CBV?$basic_string@DU?$char_traits@D@std@@V?$allocator@D@2@@std@@V12@@2@AAU32@@Z 00436540 f i MRPROF.obj
 0002:0001d590       ?size@?$basic_string@DU?$char_traits@D@std@@V?$allocator@D@2@@std@@QBEIXZ 00436590 f i MRPROF.obj
 0002:0001d5d0       ?system_category@std@@YAABVerror_category@1@XZ 004365d0 f i MRPROF.obj
 0002:0001d610       ?value@error_code@std@@QBEHXZ 00436610 f i MRPROF.obj
 0002:0001d650       ?value@error_condition@std@@QBEHXZ 00436650 f i MRPROF.obj
 0002:0001d690       ?GetArguments@@YAXPADH@Z   00436690 f   MRSUFU.obj
 0002:0001d8c0       ?De_crlf@@YAXPAD@Z         004368c0 f   MRSUFU.obj
 0002:0001d9f0       ??0sizedBuffer@@QAE@XZ     004369f0 f   sizedBuffer.obj
 0002:0001da40       ??0sizedBuffer@@QAE@PBEHH@Z 00436a40 f   sizedBuffer.obj
 0002:0001db00       ??0sizedBuffer@@QAE@ABV0@@Z 00436b00 f   sizedBuffer.obj
 0002:0001db60       ??1sizedBuffer@@UAE@XZ     00436b60 f   sizedBuffer.obj
 0002:0001dbd0       ??0sizedBuffer@@QAE@$$QAV0@@Z 00436bd0 f   sizedBuffer.obj
 0002:0001dc50       ??4sizedBuffer@@QAEAAV0@$$QAV0@@Z 00436c50 f   sizedBuffer.obj
 0002:0001dce0       ?size@sizedBuffer@@QBEHXZ  00436ce0 f   sizedBuffer.obj
 0002:0001dd10       ?data@sizedBuffer@@QBEPBEXZ 00436d10 f   sizedBuffer.obj
 0002:0001dd40       ?ref@sizedBuffer@@QBEHXZ   00436d40 f   sizedBuffer.obj
 0002:0001dd70       ??4sizedBuffer@@QAEAAV0@ABV0@@Z 00436d70 f   sizedBuffer.obj
 0002:0001ddf0       ??8@YA_NABVsizedBuffer@@0@Z 00436df0 f   sizedBuffer.obj
 0002:0001de70       ??AsizedBuffer@@QBEEH@Z    00436e70 f   sizedBuffer.obj
 0002:0001dec0       ?doCopy@sizedBuffer@@AAEXABV1@@Z 00436ec0 f   sizedBuffer.obj
 0002:0001e0f0       ??_GsizedBuffer@@UAEPAXI@Z 004370f0 f i sizedBuffer.obj
 0002:0001e0f0       ??_EsizedBuffer@@UAEPAXI@Z 004370f0 f i sizedBuffer.obj
 0002:0001e160       ?readConfigSection@ccConfig@@SAXABV?$basic_string@DU?$char_traits@D@std@@V?$allocator@D@2@@std@@0AAV?$map@V?$basic_string@DU?$char_traits@D@std@@V?$allocator@D@2@@std@@V12@U?$less@V?$basic_string@DU?$char_traits@D@std@@V?$allocator@D@2@@std@@@2@V?$allocator@U?$pair@$$CBV?$basic_string@DU?$char_traits@D@std@@V?$allocator@D@2@@std@@V12@@std@@@2@@3@@Z 00437160 f   ccConfig.obj
 0002:0001e360       ?readConfigSectionRoot@ccConfig@@SAXABV?$basic_string@DU?$char_traits@D@std@@V?$allocator@D@2@@std@@0AAV?$map@V?$basic_string@DU?$char_traits@D@std@@V?$allocator@D@2@@std@@V12@U?$less@V?$basic_string@DU?$char_traits@D@std@@V?$allocator@D@2@@std@@@2@V?$allocator@U?$pair@$$CBV?$basic_string@DU?$char_traits@D@std@@V?$allocator@D@2@@std@@V12@@std@@@2@@3@@Z 00437360 f   ccConfig.obj
 0002:0001e4a0       ?readConfigSection@ccConfig@@SAXHABV?$basic_string@DU?$char_traits@D@std@@V?$allocator@D@2@@std@@AAV?$map@V?$basic_string@DU?$char_traits@D@std@@V?$allocator@D@2@@std@@V12@U?$less@V?$basic_string@DU?$char_traits@D@std@@V?$allocator@D@2@@std@@@2@V?$allocator@U?$pair@$$CBV?$basic_string@DU?$char_traits@D@std@@V?$allocator@D@2@@std@@V12@@std@@@2@@3@@Z 004374a0 f   ccConfig.obj
 0002:0001e610       ?deleteKeysFromSectionRoot@ccConfig@@SAXABV?$basic_string@DU?$char_traits@D@std@@V?$allocator@D@2@@std@@00@Z 00437610 f   ccConfig.obj
 0002:0001e880       ?writeConfigSection@ccConfig@@SAXABV?$basic_string@DU?$char_traits@D@std@@V?$allocator@D@2@@std@@0ABV?$map@V?$basic_string@DU?$char_traits@D@std@@V?$allocator@D@2@@std@@V12@U?$less@V?$basic_string@DU?$char_traits@D@std@@V?$allocator@D@2@@std@@@2@V?$allocator@U?$pair@$$CBV?$basic_string@DU?$char_traits@D@std@@V?$allocator@D@2@@std@@V12@@std@@@2@@3@@Z 00437880 f   ccConfig.obj
 0002:0001ea80       ?writeConfigSectionRoot@ccConfig@@SAXABV?$basic_string@DU?$char_traits@D@std@@V?$allocator@D@2@@std@@0ABV?$map@V?$basic_string@DU?$char_traits@D@std@@V?$allocator@D@2@@std@@V12@U?$less@V?$basic_string@DU?$char_traits@D@std@@V?$allocator@D@2@@std@@@2@V?$allocator@U?$pair@$$CBV?$basic_string@DU?$char_traits@D@std@@V?$allocator@D@2@@std@@V12@@std@@@2@@3@@Z 00437a80 f   ccConfig.obj
 0002:0001ebc0       ?writeConfigSection@ccConfig@@SAXHABV?$basic_string@DU?$char_traits@D@std@@V?$allocator@D@2@@std@@ABV?$map@V?$basic_string@DU?$char_traits@D@std@@V?$allocator@D@2@@std@@V12@U?$less@V?$basic_string@DU?$char_traits@D@std@@V?$allocator@D@2@@std@@@2@V?$allocator@U?$pair@$$CBV?$basic_string@DU?$char_traits@D@std@@V?$allocator@D@2@@std@@V12@@std@@@2@@3@@Z 00437bc0 f   ccConfig.obj
 0002:0001ed30       ?getString@ccConfig@@SA?AV?$basic_string@DU?$char_traits@D@std@@V?$allocator@D@2@@std@@ABV23@000_N@Z 00437d30 f   ccConfig.obj
 0002:0001ef40       ?getString@ccConfig@@SA?AV?$basic_string@DU?$char_traits@D@std@@V?$allocator@D@2@@std@@HABV23@00_N@Z 00437f40 f   ccConfig.obj
 0002:0001f150       ?setString@ccConfig@@SAXABV?$basic_string@DU?$char_traits@D@std@@V?$allocator@D@2@@std@@000@Z 00438150 f   ccConfig.obj
 0002:0001f2b0       ?setString@ccConfig@@SAXHABV?$basic_string@DU?$char_traits@D@std@@V?$allocator@D@2@@std@@00@Z 004382b0 f   ccConfig.obj
 0002:0001f420       ?getInt@ccConfig@@SAHABV?$basic_string@DU?$char_traits@D@std@@V?$allocator@D@2@@std@@00H_N@Z 00438420 f   ccConfig.obj
 0002:0001f600       ?getInt@ccConfig@@SAHHABV?$basic_string@DU?$char_traits@D@std@@V?$allocator@D@2@@std@@0H_N@Z 00438600 f   ccConfig.obj
 0002:0001f7f0       ?getDevPath@ccConfig@@SA?AV?$basic_string@DU?$char_traits@D@std@@V?$allocator@D@2@@std@@XZ 004387f0 f   ccConfig.obj
 0002:0001fa40       ?getSystem@ccConfig@@SA?AV?$basic_string@DU?$char_traits@D@std@@V?$allocator@D@2@@std@@XZ 00438a40 f   ccConfig.obj
 0002:0001fbc0       ?getDevPath@ccConfig@@SA?AV?$basic_string@DU?$char_traits@D@std@@V?$allocator@D@2@@std@@H@Z 00438bc0 f   ccConfig.obj
 0002:0001fd20       ?getDevPath@ccConfig@@SA?AV?$basic_string@DU?$char_traits@D@std@@V?$allocator@D@2@@std@@ABV23@@Z 00438d20 f   ccConfig.obj
 0002:0001fe50       ?isV4Based@ccConfig@@SA_NXZ 00438e50 f   ccConfig.obj
 0002:0001ff00       ?isV3Based@ccConfig@@SA_NXZ 00438f00 f   ccConfig.obj
 0002:0001ffd0       ?workstation@ccConfig@@SAHXZ 00438fd0 f   ccConfig.obj
 0002:00020260       ?sectionsAbs@ccConfig@@SAXABV?$basic_string@DU?$char_traits@D@std@@V?$allocator@D@2@@std@@AAV?$list@V?$basic_string@DU?$char_traits@D@std@@V?$allocator@D@2@@std@@V?$allocator@V?$basic_string@DU?$char_traits@D@std@@V?$allocator@D@2@@std@@@2@@3@@Z 00439260 f   ccConfig.obj
 0002:00020470       ?sections@ccConfig@@SAXABV?$basic_string@DU?$char_traits@D@std@@V?$allocator@D@2@@std@@AAV?$list@V?$basic_string@DU?$char_traits@D@std@@V?$allocator@D@2@@std@@V?$allocator@V?$basic_string@DU?$char_traits@D@std@@V?$allocator@D@2@@std@@@2@@3@@Z 00439470 f   ccConfig.obj
 0002:00020660       ?sectionsRoot@ccConfig@@SAXABV?$basic_string@DU?$char_traits@D@std@@V?$allocator@D@2@@std@@AAV?$list@V?$basic_string@DU?$char_traits@D@std@@V?$allocator@D@2@@std@@V?$allocator@V?$basic_string@DU?$char_traits@D@std@@V?$allocator@D@2@@std@@@2@@3@@Z 00439660 f   ccConfig.obj
 0002:000207a0       ?sections@ccConfig@@SAXHAAV?$list@V?$basic_string@DU?$char_traits@D@std@@V?$allocator@D@2@@std@@V?$allocator@V?$basic_string@DU?$char_traits@D@std@@V?$allocator@D@2@@std@@@2@@std@@@Z 004397a0 f   ccConfig.obj
 0002:00020910       ?deleteSectionRoot@ccConfig@@SAXABV?$basic_string@DU?$char_traits@D@std@@V?$allocator@D@2@@std@@0@Z 00439910 f   ccConfig.obj
 0002:00020a50       ??0ccConfig@@QAE@XZ        00439a50 f   ccConfig.obj
 0002:00020af0       ??0ccConfig@@QAE@ABV?$basic_string@DU?$char_traits@D@std@@V?$allocator@D@2@@std@@0@Z 00439af0 f   ccConfig.obj
 0002:00020c10       ??0ccConfig@@QAE@HABV?$basic_string@DU?$char_traits@D@std@@V?$allocator@D@2@@std@@@Z 00439c10 f   ccConfig.obj
 0002:00020d30       ??1ccConfig@@UAE@XZ        00439d30 f   ccConfig.obj
 0002:00020da0       ?getString@ccConfig@@QAE?AV?$basic_string@DU?$char_traits@D@std@@V?$allocator@D@2@@std@@ABV23@0_N@Z 00439da0 f   ccConfig.obj
 0002:00020f60       ?setString@ccConfig@@QAEXABV?$basic_string@DU?$char_traits@D@std@@V?$allocator@D@2@@std@@0@Z 00439f60 f   ccConfig.obj
 0002:000210c0       ?getInt@ccConfig@@QAEHABV?$basic_string@DU?$char_traits@D@std@@V?$allocator@D@2@@std@@H_N@Z 0043a0c0 f   ccConfig.obj
 0002:000212a0       ?developerMode@ccConfig@@SA_NXZ 0043a2a0 f   ccConfig.obj
 0002:00021340       ?getLogPath@ccConfig@@SA?AV?$basic_string@DU?$char_traits@D@std@@V?$allocator@D@2@@std@@ABV23@0@Z 0043a340 f   ccConfig.obj
 0002:00021510       ?readConfigSectionAbs@ccConfig@@CAXABV?$basic_string@DU?$char_traits@D@std@@V?$allocator@D@2@@std@@0AAV?$map@V?$basic_string@DU?$char_traits@D@std@@V?$allocator@D@2@@std@@V12@U?$less@V?$basic_string@DU?$char_traits@D@std@@V?$allocator@D@2@@std@@@2@V?$allocator@U?$pair@$$CBV?$basic_string@DU?$char_traits@D@std@@V?$allocator@D@2@@std@@V12@@std@@@2@@3@@Z 0043a510 f   ccConfig.obj
 0002:00021910       ?writeConfigSectionAbs@ccConfig@@CAXABV?$basic_string@DU?$char_traits@D@std@@V?$allocator@D@2@@std@@0ABV?$map@V?$basic_string@DU?$char_traits@D@std@@V?$allocator@D@2@@std@@V12@U?$less@V?$basic_string@DU?$char_traits@D@std@@V?$allocator@D@2@@std@@@2@V?$allocator@U?$pair@$$CBV?$basic_string@DU?$char_traits@D@std@@V?$allocator@D@2@@std@@V12@@std@@@2@@3@@Z 0043a910 f   ccConfig.obj
 0002:00021f10       ?buftolower@ccConfig@@CAPADPAD@Z 0043af10 f   ccConfig.obj
 0002:00021fb0       ?strtolower@ccConfig@@CA?AV?$basic_string@DU?$char_traits@D@std@@V?$allocator@D@2@@std@@ABV23@@Z 0043afb0 f   ccConfig.obj
 0002:00022100       ?find@ccConfig@@AAE?AV?$_Tree_iterator@V?$_Tree_val@U?$_Tree_simple_types@U?$pair@$$CBV?$basic_string@DU?$char_traits@D@std@@V?$allocator@D@2@@std@@V12@@std@@@std@@@std@@@std@@ABV?$basic_string@DU?$char_traits@D@std@@V?$allocator@D@2@@3@@Z 0043b100 f   ccConfig.obj
 0002:000233b0       ??$?0AAV?$basic_string@DU?$char_traits@D@std@@V?$allocator@D@2@@std@@AAV01@X@?$pair@V?$basic_string@DU?$char_traits@D@std@@V?$allocator@D@2@@std@@V12@@std@@QAE@AAV?$basic_string@DU?$char_traits@D@std@@V?$allocator@D@2@@1@0@Z 0043c3b0 f i ccConfig.obj
 0002:00023480       ??$?8DD@std@@YA_NABV?$allocator@D@0@0@Z 0043c480 f i ccConfig.obj
 0002:000234b0       ??$?8DU?$char_traits@D@std@@V?$allocator@D@1@@std@@YA_NABV?$basic_string@DU?$char_traits@D@std@@V?$allocator@D@2@@0@0@Z 0043c4b0 f i ccConfig.obj
 0002:00023530       ??$?8DU?$char_traits@D@std@@V?$allocator@D@1@@std@@YA_NABV?$basic_string@DU?$char_traits@D@std@@V?$allocator@D@2@@0@PBD@Z 0043c530 f i ccConfig.obj
 0002:000235b0       ??$?8V?$allocator@D@std@@V01@@std@@YA_NABU?$_Wrap_alloc@V?$allocator@D@std@@@0@0@Z 0043c5b0 f i ccConfig.obj
 0002:00023620       ??$?9V?$allocator@D@std@@V01@@std@@YA_NABU?$_Wrap_alloc@V?$allocator@D@std@@@0@0@Z 0043c620 f i ccConfig.obj
 0002:000236a0       ??$?HDU?$char_traits@D@std@@V?$allocator@D@1@@std@@YA?AV?$basic_string@DU?$char_traits@D@std@@V?$allocator@D@2@@0@$$QAV10@ABV10@@Z 0043c6a0 f i ccConfig.obj
 0002:00023730       ??$?HDU?$char_traits@D@std@@V?$allocator@D@1@@std@@YA?AV?$basic_string@DU?$char_traits@D@std@@V?$allocator@D@2@@0@$$QAV10@PBD@Z 0043c730 f i ccConfig.obj
 0002:000237c0       ??$?HDU?$char_traits@D@std@@V?$allocator@D@1@@std@@YA?AV?$basic_string@DU?$char_traits@D@std@@V?$allocator@D@2@@0@ABV10@PBD@Z 0043c7c0 f i ccConfig.obj
 0002:00023920       ??$?HDU?$char_traits@D@std@@V?$allocator@D@1@@std@@YA?AV?$basic_string@DU?$char_traits@D@std@@V?$allocator@D@2@@0@PBDABV10@@Z 0043c920 f i ccConfig.obj
 0002:00023a80       ??$_Allocate@U?$_List_node@V?$basic_string@DU?$char_traits@D@std@@V?$allocator@D@2@@std@@PAX@std@@@std@@YAPAU?$_List_node@V?$basic_string@DU?$char_traits@D@std@@V?$allocator@D@2@@std@@PAX@0@IPAU10@@Z 0043ca80 f i ccConfig.obj
 0002:00023b10       ??$_Buynode@V?$basic_string@DU?$char_traits@D@std@@V?$allocator@D@2@@std@@@?$_List_buy@V?$basic_string@DU?$char_traits@D@std@@V?$allocator@D@2@@std@@V?$allocator@V?$basic_string@DU?$char_traits@D@std@@V?$allocator@D@2@@std@@@2@@std@@QAEPAU?$_List_node@V?$basic_string@DU?$char_traits@D@std@@V?$allocator@D@2@@std@@PAX@1@PAU21@0$$QAV?$basic_string@DU?$char_traits@D@std@@V?$allocator@D@2@@1@@Z 0043cb10 f i ccConfig.obj
 0002:00023c80       ??$_Insert@V?$basic_string@DU?$char_traits@D@std@@V?$allocator@D@2@@std@@@?$list@V?$basic_string@DU?$char_traits@D@std@@V?$allocator@D@2@@std@@V?$allocator@V?$basic_string@DU?$char_traits@D@std@@V?$allocator@D@2@@std@@@2@@std@@QAEXV?$_List_unchecked_const_iterator@V?$_List_val@U?$_List_simple_types@V?$basic_string@DU?$char_traits@D@std@@V?$allocator@D@2@@std@@@std@@@std@@U_Iterator_base0@2@@1@$$QAV?$basic_string@DU?$char_traits@D@std@@V?$allocator@D@2@@1@@Z 0043cc80 f i ccConfig.obj
 0002:00023d50       ??$addressof@$$CBU?$pair@$$CBV?$basic_string@DU?$char_traits@D@std@@V?$allocator@D@2@@std@@V12@@std@@@std@@YAPBU?$pair@$$CBV?$basic_string@DU?$char_traits@D@std@@V?$allocator@D@2@@std@@V12@@0@ABU10@@Z 0043cd50 f i ccConfig.obj
 0002:00023d90       ??$addressof@PAU?$_List_node@V?$basic_string@DU?$char_traits@D@std@@V?$allocator@D@2@@std@@PAX@std@@@std@@YAPAPAU?$_List_node@V?$basic_string@DU?$char_traits@D@std@@V?$allocator@D@2@@std@@PAX@0@AAPAU10@@Z 0043cd90 f i ccConfig.obj
 0002:00023dd0       ??$addressof@V?$basic_string@DU?$char_traits@D@std@@V?$allocator@D@2@@std@@@std@@YAPAV?$basic_string@DU?$char_traits@D@std@@V?$allocator@D@2@@0@AAV10@@Z 0043cdd0 f i ccConfig.obj
 0002:00023e10       ??$assign@V?$_String_iterator@V?$_String_val@U?$_Simple_types@D@std@@@std@@@std@@@?$basic_string@DU?$char_traits@D@std@@V?$allocator@D@2@@std@@QAEAAV01@V?$_String_iterator@V?$_String_val@U?$_Simple_types@D@std@@@std@@@1@0@Z 0043ce10 f i ccConfig.obj
 0002:00024030       ??$construct@PAU?$_List_node@V?$basic_string@DU?$char_traits@D@std@@V?$allocator@D@2@@std@@PAX@std@@AAPAU12@@?$_Wrap_alloc@V?$allocator@U?$_List_node@V?$basic_string@DU?$char_traits@D@std@@V?$allocator@D@2@@std@@PAX@std@@@std@@@std@@QAEXPAPAU?$_List_node@V?$basic_string@DU?$char_traits@D@std@@V?$allocator@D@2@@std@@PAX@1@AAPAU21@@Z 0043d030 f i ccConfig.obj
 0002:000240a0       ??$construct@PAU?$_List_node@V?$basic_string@DU?$char_traits@D@std@@V?$allocator@D@2@@std@@PAX@std@@AAPAU12@@?$allocator@U?$_List_node@V?$basic_string@DU?$char_traits@D@std@@V?$allocator@D@2@@std@@PAX@std@@@std@@QAEXPAPAU?$_List_node@V?$basic_string@DU?$char_traits@D@std@@V?$allocator@D@2@@std@@PAX@1@AAPAU21@@Z 0043d0a0 f i ccConfig.obj
 0002:000241a0       ??$construct@PAU?$_List_node@V?$basic_string@DU?$char_traits@D@std@@V?$allocator@D@2@@std@@PAX@std@@AAPAU12@@?$allocator_traits@V?$allocator@U?$_List_node@V?$basic_string@DU?$char_traits@D@std@@V?$allocator@D@2@@std@@PAX@std@@@std@@@std@@SAXAAV?$allocator@U?$_List_node@V?$basic_string@DU?$char_traits@D@std@@V?$allocator@D@2@@std@@PAX@std@@@1@PAPAU?$_List_node@V?$basic_string@DU?$char_traits@D@std@@V?$allocator@D@2@@std@@PAX@1@AAPAU31@@Z 0043d1a0 f i ccConfig.obj
 0002:00024200       ??$construct@V?$basic_string@DU?$char_traits@D@std@@V?$allocator@D@2@@std@@V12@@?$_Wrap_alloc@V?$allocator@U?$_List_node@V?$basic_string@DU?$char_traits@D@std@@V?$allocator@D@2@@std@@PAX@std@@@std@@@std@@QAEXPAV?$basic_string@DU?$char_traits@D@std@@V?$allocator@D@2@@1@$$QAV21@@Z 0043d200 f i ccConfig.obj
 0002:00024270       ??$construct@V?$basic_string@DU?$char_traits@D@std@@V?$allocator@D@2@@std@@V12@@?$allocator@U?$_List_node@V?$basic_string@DU?$char_traits@D@std@@V?$allocator@D@2@@std@@PAX@std@@@std@@QAEXPAV?$basic_string@DU?$char_traits@D@std@@V?$allocator@D@2@@1@$$QAV21@@Z 0043d270 f i ccConfig.obj
 0002:00024370       ??$construct@V?$basic_string@DU?$char_traits@D@std@@V?$allocator@D@2@@std@@V12@@?$allocator_traits@V?$allocator@U?$_List_node@V?$basic_string@DU?$char_traits@D@std@@V?$allocator@D@2@@std@@PAX@std@@@std@@@std@@SAXAAV?$allocator@U?$_List_node@V?$basic_string@DU?$char_traits@D@std@@V?$allocator@D@2@@std@@PAX@std@@@1@PAV?$basic_string@DU?$char_traits@D@std@@V?$allocator@D@2@@1@$$QAV31@@Z 0043d370 f i ccConfig.obj
 0002:000243d0       ??$forward@AAPAU?$_List_node@V?$basic_string@DU?$char_traits@D@std@@V?$allocator@D@2@@std@@PAX@std@@@std@@YAAAPAU?$_List_node@V?$basic_string@DU?$char_traits@D@std@@V?$allocator@D@2@@std@@PAX@0@AAPAU10@@Z 0043d3d0 f i ccConfig.obj
 0002:00024410       ??$forward@AAV?$basic_string@DU?$char_traits@D@std@@V?$allocator@D@2@@std@@@std@@YAAAV?$basic_string@DU?$char_traits@D@std@@V?$allocator@D@2@@0@AAV10@@Z 0043d410 f i ccConfig.obj
 0002:00024450       ??$move@AAV?$basic_string@DU?$char_traits@D@std@@V?$allocator@D@2@@std@@@std@@YA$$QAV?$basic_string@DU?$char_traits@D@std@@V?$allocator@D@2@@0@AAV10@@Z 0043d450 f i ccConfig.obj
 0002:00024490       ??0?$_Iterator012@Urandom_access_iterator_tag@std@@DHPBDABDU_Iterator_base12@2@@std@@QAE@ABU01@@Z 0043d490 f i ccConfig.obj
 0002:000244f0       ??0?$_Iterator012@Urandom_access_iterator_tag@std@@DHPBDABDU_Iterator_base12@2@@std@@QAE@XZ 0043d4f0 f i ccConfig.obj
 0002:00024550       ??0?$_List_unchecked_const_iterator@V?$_List_val@U?$_List_simple_types@V?$basic_string@DU?$char_traits@D@std@@V?$allocator@D@2@@std@@@std@@@std@@U_Iterator_base0@2@@std@@QAE@PAU?$_List_node@V?$basic_string@DU?$char_traits@D@std@@V?$allocator@D@2@@std@@PAX@1@PBV?$_List_val@U?$_List_simple_types@V?$basic_string@DU?$char_traits@D@std@@V?$allocator@D@2@@std@@@std@@@1@@Z 0043d550 f i ccConfig.obj
 0002:000245c0       ??0?$_List_unchecked_iterator@V?$_List_val@U?$_List_simple_types@V?$basic_string@DU?$char_traits@D@std@@V?$allocator@D@2@@std@@@std@@@std@@@std@@QAE@PAU?$_List_node@V?$basic_string@DU?$char_traits@D@std@@V?$allocator@D@2@@std@@PAX@1@PBV?$_List_val@U?$_List_simple_types@V?$basic_string@DU?$char_traits@D@std@@V?$allocator@D@2@@std@@@std@@@1@@Z 0043d5c0 f i ccConfig.obj
 0002:00024620       ??0?$_String_const_iterator@V?$_String_val@U?$_Simple_types@D@std@@@std@@@std@@QAE@ABV01@@Z 0043d620 f i ccConfig.obj
 0002:00024690       ??0?$_String_const_iterator@V?$_String_val@U?$_Simple_types@D@std@@@std@@@std@@QAE@PBDPBU_Container_base12@1@@Z 0043d690 f i ccConfig.obj
 0002:00024750       ??0?$_String_iterator@V?$_String_val@U?$_Simple_types@D@std@@@std@@@std@@QAE@ABV01@@Z 0043d750 f i ccConfig.obj
 0002:000247b0       ??0?$_String_iterator@V?$_String_val@U?$_Simple_types@D@std@@@std@@@std@@QAE@PADPBU_Container_base12@1@@Z 0043d7b0 f i ccConfig.obj
 0002:00024810       ??0?$_Wrap_alloc@V?$allocator@D@std@@@std@@QAE@ABV?$allocator@D@1@@Z 0043d810 f i ccConfig.obj
 0002:00024870       ??0?$_Wrap_alloc@V?$allocator@U?$_List_node@V?$basic_string@DU?$char_traits@D@std@@V?$allocator@D@2@@std@@PAX@std@@@std@@@std@@QAE@XZ 0043d870 f i ccConfig.obj
 0002:000248d0       ??0?$allocator@D@std@@QAE@ABV01@@Z 0043d8d0 f i ccConfig.obj
 0002:00024910       ??0?$allocator@U?$_List_node@V?$basic_string@DU?$char_traits@D@std@@V?$allocator@D@2@@std@@PAX@std@@@std@@QAE@XZ 0043d910 f i ccConfig.obj
 0002:00024950       ??0?$basic_string@DU?$char_traits@D@std@@V?$allocator@D@2@@std@@QAE@ABV01@@Z 0043d950 f i ccConfig.obj
 0002:00024a40       ??0?$basic_string@DU?$char_traits@D@std@@V?$allocator@D@2@@std@@QAE@XZ 0043da40 f i ccConfig.obj
 0002:00024b00       ??1?$_Iterator012@Urandom_access_iterator_tag@std@@DHPBDABDU_Iterator_base12@2@@std@@QAE@XZ 0043db00 f i ccConfig.obj
 0002:00024b50       ??1?$_String_const_iterator@V?$_String_val@U?$_Simple_types@D@std@@@std@@@std@@QAE@XZ 0043db50 f i ccConfig.obj
 0002:00024ba0       ??1?$_String_iterator@V?$_String_val@U?$_Simple_types@D@std@@@std@@@std@@QAE@XZ 0043dba0 f i ccConfig.obj
 0002:00024bf0       ??4?$basic_string@DU?$char_traits@D@std@@V?$allocator@D@2@@std@@QAEAAV01@$$QAV01@@Z 0043dbf0 f i ccConfig.obj
 0002:00024d10       ??4?$basic_string@DU?$char_traits@D@std@@V?$allocator@D@2@@std@@QAEAAV01@ABV01@@Z 0043dd10 f i ccConfig.obj
 0002:00024de0       ??8?$_String_const_iterator@V?$_String_val@U?$_Simple_types@D@std@@@std@@@std@@QBE_NABV01@@Z 0043dde0 f i ccConfig.obj
 0002:00024e70       ??C?$_Tree_const_iterator@V?$_Tree_val@U?$_Tree_simple_types@U?$pair@$$CBV?$basic_string@DU?$char_traits@D@std@@V?$allocator@D@2@@std@@V12@@std@@@std@@@std@@@std@@QBEPBU?$pair@$$CBV?$basic_string@DU?$char_traits@D@std@@V?$allocator@D@2@@std@@V12@@1@XZ 0043de70 f i ccConfig.obj
 0002:00024ed0       ??D?$_String_const_iterator@V?$_String_val@U?$_Simple_types@D@std@@@std@@@std@@QBEABDXZ 0043ded0 f i ccConfig.obj
 0002:00025020       ??D?$_String_iterator@V?$_String_val@U?$_Simple_types@D@std@@@std@@@std@@QBEAADXZ 0043e020 f i ccConfig.obj
 0002:00025070       ??E?$_Tree_iterator@V?$_Tree_val@U?$_Tree_simple_types@U?$pair@$$CBV?$basic_string@DU?$char_traits@D@std@@V?$allocator@D@2@@std@@V12@@std@@@std@@@std@@@std@@QAE?AV01@H@Z 0043e070 f i ccConfig.obj
 0002:00025190       ??E?$_Tree_iterator@V?$_Tree_val@U?$_Tree_simple_types@U?$pair@$$CBV?$basic_string@DU?$char_traits@D@std@@V?$allocator@D@2@@std@@V12@@std@@@std@@@std@@@std@@QAEAAV01@XZ 0043e190 f i ccConfig.obj
 0002:000251f0       ??G?$_String_const_iterator@V?$_String_val@U?$_Simple_types@D@std@@@std@@@std@@QBEHABV01@@Z 0043e1f0 f i ccConfig.obj
 0002:00025260       ??G?$_String_iterator@V?$_String_val@U?$_Simple_types@D@std@@@std@@@std@@QBEHABV?$_String_const_iterator@V?$_String_val@U?$_Simple_types@D@std@@@std@@@1@@Z 0043e260 f i ccConfig.obj
 0002:00025350       ??Y?$basic_string@DU?$char_traits@D@std@@V?$allocator@D@2@@std@@QAEAAV01@ABV01@@Z 0043e350 f i ccConfig.obj
 0002:000253b0       ??Y?$basic_string@DU?$char_traits@D@std@@V?$allocator@D@2@@std@@QAEAAV01@PBD@Z 0043e3b0 f i ccConfig.obj
 0002:00025410       ??_GccConfig@@UAEPAXI@Z    0043e410 f i ccConfig.obj
 0002:00025410       ??_EccConfig@@UAEPAXI@Z    0043e410 f i ccConfig.obj
 0002:00025480       ?_Adopt@_Iterator_base0@std@@QAEXPBX@Z 0043e480 f i ccConfig.obj
 0002:000254c0       ?_Buynode0@?$_List_alloc@$0A@U?$_List_base_types@V?$basic_string@DU?$char_traits@D@std@@V?$allocator@D@2@@std@@V?$allocator@V?$basic_string@DU?$char_traits@D@std@@V?$allocator@D@2@@std@@@2@@std@@@std@@QAEPAU?$_List_node@V?$basic_string@DU?$char_traits@D@std@@V?$allocator@D@2@@std@@PAX@2@PAU32@0@Z 0043e4c0 f i ccConfig.obj
 0002:00025680       ?_Change_alloc@?$_String_alloc@$0A@U?$_String_base_types@DV?$allocator@D@std@@@std@@@std@@QAEXABU?$_Wrap_alloc@V?$allocator@D@std@@@2@@Z 0043e680 f i ccConfig.obj
 0002:000256c0       ?_Compat@?$_String_const_iterator@V?$_String_val@U?$_Simple_types@D@std@@@std@@@std@@QBEXABV12@@Z 0043e6c0 f i ccConfig.obj
 0002:000257e0       ?_Getal@?$_List_alloc@$0A@U?$_List_base_types@V?$basic_string@DU?$char_traits@D@std@@V?$allocator@D@2@@std@@V?$allocator@V?$basic_string@DU?$char_traits@D@std@@V?$allocator@D@2@@std@@@2@@std@@@std@@QBE?AU?$_Wrap_alloc@V?$allocator@U?$_List_node@V?$basic_string@DU?$char_traits@D@std@@V?$allocator@D@2@@std@@PAX@std@@@std@@@2@XZ 0043e7e0 f i ccConfig.obj
 0002:00025840       ?_Incsize@?$list@V?$basic_string@DU?$char_traits@D@std@@V?$allocator@D@2@@std@@V?$allocator@V?$basic_string@DU?$char_traits@D@std@@V?$allocator@D@2@@std@@@2@@std@@QAEXI@Z 0043e840 f i ccConfig.obj
 0002:000258d0       ?_Mynode@?$_List_unchecked_const_iterator@V?$_List_val@U?$_List_simple_types@V?$basic_string@DU?$char_traits@D@std@@V?$allocator@D@2@@std@@@std@@@std@@U_Iterator_base0@2@@std@@QBEPAU?$_List_node@V?$basic_string@DU?$char_traits@D@std@@V?$allocator@D@2@@std@@PAX@2@XZ 0043e8d0 f i ccConfig.obj
 0002:00025910       ?_Myval@?$_List_val@U?$_List_simple_types@V?$basic_string@DU?$char_traits@D@std@@V?$allocator@D@2@@std@@@std@@@std@@SAAAV?$basic_string@DU?$char_traits@D@std@@V?$allocator@D@2@@2@PAU?$_List_node@V?$basic_string@DU?$char_traits@D@std@@V?$allocator@D@2@@std@@PAX@2@@Z 0043e910 f i ccConfig.obj
 0002:00025950       ?_Nextnode@?$_List_val@U?$_List_simple_types@V?$basic_string@DU?$char_traits@D@std@@V?$allocator@D@2@@std@@@std@@@std@@SAAAPAU?$_List_node@V?$basic_string@DU?$char_traits@D@std@@V?$allocator@D@2@@std@@PAX@2@PAU32@@Z 0043e950 f i ccConfig.obj
 0002:00025990       ?_Pdif@?$basic_string@DU?$char_traits@D@std@@V?$allocator@D@2@@std@@SAIV?$_String_const_iterator@V?$_String_val@U?$_Simple_types@D@std@@@std@@@2@0@Z 0043e990 f i ccConfig.obj
 0002:00025a80       ?_Prevnode@?$_List_val@U?$_List_simple_types@V?$basic_string@DU?$char_traits@D@std@@V?$allocator@D@2@@std@@@std@@@std@@SAAAPAU?$_List_node@V?$basic_string@DU?$char_traits@D@std@@V?$allocator@D@2@@std@@PAX@2@PAU32@@Z 0043ea80 f i ccConfig.obj
 0002:00025ac0       ?_Unchecked_end@?$list@V?$basic_string@DU?$char_traits@D@std@@V?$allocator@D@2@@std@@V?$allocator@V?$basic_string@DU?$char_traits@D@std@@V?$allocator@D@2@@std@@@2@@std@@QAE?AV?$_List_unchecked_iterator@V?$_List_val@U?$_List_simple_types@V?$basic_string@DU?$char_traits@D@std@@V?$allocator@D@2@@std@@@std@@@std@@@2@XZ 0043eac0 f i ccConfig.obj
 0002:00025b30       ?allocate@?$_Wrap_alloc@V?$allocator@U?$_List_node@V?$basic_string@DU?$char_traits@D@std@@V?$allocator@D@2@@std@@PAX@std@@@std@@@std@@QAEPAU?$_List_node@V?$basic_string@DU?$char_traits@D@std@@V?$allocator@D@2@@std@@PAX@2@I@Z 0043eb30 f i ccConfig.obj
 0002:00025b90       ?allocate@?$allocator@U?$_List_node@V?$basic_string@DU?$char_traits@D@std@@V?$allocator@D@2@@std@@PAX@std@@@std@@QAEPAU?$_List_node@V?$basic_string@DU?$char_traits@D@std@@V?$allocator@D@2@@std@@PAX@2@I@Z 0043eb90 f i ccConfig.obj
 0002:00025bf0       ?append@?$basic_string@DU?$char_traits@D@std@@V?$allocator@D@2@@std@@QAEAAV12@ABV12@@Z 0043ebf0 f i ccConfig.obj
 0002:00025c50       ?append@?$basic_string@DU?$char_traits@D@std@@V?$allocator@D@2@@std@@QAEAAV12@ABV12@II@Z 0043ec50 f i ccConfig.obj
 0002:00025d70       ?append@?$basic_string@DU?$char_traits@D@std@@V?$allocator@D@2@@std@@QAEAAV12@PBD@Z 0043ed70 f i ccConfig.obj
 0002:00025e00       ?append@?$basic_string@DU?$char_traits@D@std@@V?$allocator@D@2@@std@@QAEAAV12@PBDI@Z 0043ee00 f i ccConfig.obj
 0002:00025f40       ?assign@?$basic_string@DU?$char_traits@D@std@@V?$allocator@D@2@@std@@QAEAAV12@ABV12@@Z 0043ef40 f i ccConfig.obj
 0002:00025fa0       ?begin@?$_Tree@V?$_Tmap_traits@V?$basic_string@DU?$char_traits@D@std@@V?$allocator@D@2@@std@@V12@U?$less@V?$basic_string@DU?$char_traits@D@std@@V?$allocator@D@2@@std@@@2@V?$allocator@U?$pair@$$CBV?$basic_string@DU?$char_traits@D@std@@V?$allocator@D@2@@std@@V12@@std@@@2@$0A@@std@@@std@@QBE?AV?$_Tree_const_iterator@V?$_Tree_val@U?$_Tree_simple_types@U?$pair@$$CBV?$basic_string@DU?$char_traits@D@std@@V?$allocator@D@2@@std@@V12@@std@@@std@@@std@@@2@XZ 0043efa0 f i ccConfig.obj
 0002:00026010       ?begin@?$basic_string@DU?$char_traits@D@std@@V?$allocator@D@2@@std@@QAE?AV?$_String_iterator@V?$_String_val@U?$_Simple_types@D@std@@@std@@@2@XZ 0043f010 f i ccConfig.obj
 0002:00026080       ?compare@?$basic_string@DU?$char_traits@D@std@@V?$allocator@D@2@@std@@QBEHPBD@Z 0043f080 f i ccConfig.obj
 0002:00026110       ?deallocate@?$_Wrap_alloc@V?$allocator@U?$_List_node@V?$basic_string@DU?$char_traits@D@std@@V?$allocator@D@2@@std@@PAX@std@@@std@@@std@@QAEXPAU?$_List_node@V?$basic_string@DU?$char_traits@D@std@@V?$allocator@D@2@@std@@PAX@2@I@Z 0043f110 f i ccConfig.obj
 0002:00026170       ?deallocate@?$allocator@U?$_List_node@V?$basic_string@DU?$char_traits@D@std@@V?$allocator@D@2@@std@@PAX@std@@@std@@QAEXPAU?$_List_node@V?$basic_string@DU?$char_traits@D@std@@V?$allocator@D@2@@std@@PAX@2@I@Z 0043f170 f i ccConfig.obj
 0002:000261d0       ?end@?$_Tree@V?$_Tmap_traits@V?$basic_string@DU?$char_traits@D@std@@V?$allocator@D@2@@std@@V12@U?$less@V?$basic_string@DU?$char_traits@D@std@@V?$allocator@D@2@@std@@@2@V?$allocator@U?$pair@$$CBV?$basic_string@DU?$char_traits@D@std@@V?$allocator@D@2@@std@@V12@@std@@@2@$0A@@std@@@std@@QBE?AV?$_Tree_const_iterator@V?$_Tree_val@U?$_Tree_simple_types@U?$pair@$$CBV?$basic_string@DU?$char_traits@D@std@@V?$allocator@D@2@@std@@V12@@std@@@std@@@std@@@2@XZ 0043f1d0 f i ccConfig.obj
 0002:00026240       ?end@?$basic_string@DU?$char_traits@D@std@@V?$allocator@D@2@@std@@QAE?AV?$_String_iterator@V?$_String_val@U?$_Simple_types@D@std@@@std@@@2@XZ 0043f240 f i ccConfig.obj
 0002:000262b0       ?find@?$basic_string@DU?$char_traits@D@std@@V?$allocator@D@2@@std@@QBEIABV12@I@Z 0043f2b0 f i ccConfig.obj
 0002:00026320       ?find@?$basic_string@DU?$char_traits@D@std@@V?$allocator@D@2@@std@@QBEIPBDII@Z 0043f320 f i ccConfig.obj
 0002:00026480       ?find@?$char_traits@D@std@@SAPBDPBDIABD@Z 0043f480 f i ccConfig.obj
 0002:00026510       ?length@?$basic_string@DU?$char_traits@D@std@@V?$allocator@D@2@@std@@QBEIXZ 0043f510 f i ccConfig.obj
 0002:00026550       ?max_size@?$_Wrap_alloc@V?$allocator@U?$_List_node@V?$basic_string@DU?$char_traits@D@std@@V?$allocator@D@2@@std@@PAX@std@@@std@@@std@@QBEIXZ 0043f550 f i ccConfig.obj
 0002:000265b0       ?max_size@?$allocator@U?$_List_node@V?$basic_string@DU?$char_traits@D@std@@V?$allocator@D@2@@std@@PAX@std@@@std@@QBEIXZ 0043f5b0 f i ccConfig.obj
 0002:000265f0       ?max_size@?$allocator_traits@V?$allocator@U?$_List_node@V?$basic_string@DU?$char_traits@D@std@@V?$allocator@D@2@@std@@PAX@std@@@std@@@std@@SAIABV?$allocator@U?$_List_node@V?$basic_string@DU?$char_traits@D@std@@V?$allocator@D@2@@std@@PAX@std@@@2@@Z 0043f5f0 f i ccConfig.obj
 0002:00026640       ?max_size@?$list@V?$basic_string@DU?$char_traits@D@std@@V?$allocator@D@2@@std@@V?$allocator@V?$basic_string@DU?$char_traits@D@std@@V?$allocator@D@2@@std@@@2@@std@@QBEIXZ 0043f640 f i ccConfig.obj
 0002:000266a0       ?pointer_to@?$pointer_traits@PBU?$pair@$$CBV?$basic_string@DU?$char_traits@D@std@@V?$allocator@D@2@@std@@V12@@std@@@std@@SAPBU?$pair@$$CBV?$basic_string@DU?$char_traits@D@std@@V?$allocator@D@2@@std@@V12@@2@ABU32@@Z 0043f6a0 f i ccConfig.obj
 0002:000266f0       ?push_back@?$list@V?$basic_string@DU?$char_traits@D@std@@V?$allocator@D@2@@std@@V?$allocator@V?$basic_string@DU?$char_traits@D@std@@V?$allocator@D@2@@std@@@2@@std@@QAEX$$QAV?$basic_string@DU?$char_traits@D@std@@V?$allocator@D@2@@2@@Z 0043f6f0 f i ccConfig.obj
 0002:00026780       ?replace@?$basic_string@DU?$char_traits@D@std@@V?$allocator@D@2@@std@@QAEAAV12@IIABV12@II@Z 0043f780 f i ccConfig.obj
 0002:00026b20       ?replace@?$basic_string@DU?$char_traits@D@std@@V?$allocator@D@2@@std@@QAEAAV12@IIPBDI@Z 0043fb20 f i ccConfig.obj
 0002:00026d40       ?replace@?$basic_string@DU?$char_traits@D@std@@V?$allocator@D@2@@std@@QAEAAV12@V?$_String_const_iterator@V?$_String_val@U?$_Simple_types@D@std@@@std@@@2@0V?$_String_iterator@V?$_String_val@U?$_Simple_types@D@std@@@std@@@2@1@Z 0043fd40 f i ccConfig.obj
 0002:000270d0       ?reserve@?$basic_string@DU?$char_traits@D@std@@V?$allocator@D@2@@std@@QAEXI@Z 004400d0 f i ccConfig.obj
 0002:00027170       ?select_on_container_copy_construction@?$_Wrap_alloc@V?$allocator@D@std@@@std@@QBE?AU12@XZ 00440170 f i ccConfig.obj
 0002:000271e0       ?select_on_container_copy_construction@?$allocator@D@std@@QBE?AV12@XZ 004401e0 f i ccConfig.obj
 0002:00027240       ?select_on_container_copy_construction@?$allocator_traits@V?$allocator@D@std@@@std@@SA?AV?$allocator@D@2@ABV32@@Z 00440240 f i ccConfig.obj
 0002:000272a0       ??0cBncsVersion@@QAE@PBD@Z 004402a0 f   bncsversioninfodb:cBncsVersion.obj
 0002:00027b80       ??1cBncsVersion@@UAE@XZ    00440b80 f   bncsversioninfodb:cBncsVersion.obj
 0002:00028060       ??_EcBncsVersion@@UAEPAXI@Z 00441060 f i bncsversioninfodb:cBncsVersion.obj
 0002:00028060       ??_GcBncsVersion@@UAEPAXI@Z 00441060 f i bncsversioninfodb:cBncsVersion.obj
 0002:000280d0       ?strpbrk@@YAPADPADPBD@Z    004410d0 f i bncsversioninfodb:cBncsVersion.obj
 0002:00028122       _GetFileVersionInfoSizeA@8 00441122 f   version:VERSION.dll
 0002:00028128       _GetFileVersionInfoA@16    00441128 f   version:VERSION.dll
 0002:0002812e       _VerQueryValueA@16         0044112e f   version:VERSION.dll
 0002:00028140       _NetCmdCode@8              00441140 f   bbcnb32db_static:BBCNB32.obj
 0002:00028260       _NetRetCode@8              00441260 f   bbcnb32db_static:BBCNB32.obj
 0002:000283c0       _NetVersion@0              004413c0 f   bbcnb32db_static:BBCNB32.obj
 0002:00028400       _PostRoutine@4             00441400 f   bbcnb32db_static:BBCNB32.obj
 0002:00028550       _PostRoutineNCBDGRECV@4    00441550 f   bbcnb32db_static:BBCNB32.obj
 0002:00028870       _NetDebugMode@4            00441870 f   bbcnb32db_static:BBCNB32.obj
 0002:000288a0       _NetSetNameFilter@4        004418a0 f   bbcnb32db_static:BBCNB32.obj
 0002:00028980       _NetODS                    00441980 f   bbcnb32db_static:BBCNB32.obj
 0002:00028a30       _bbcnb32Init               00441a30 f   bbcnb32db_static:BBCNB32.obj
 0002:00028a90       _bbcnb32Cleanup            00441a90 f   bbcnb32db_static:BBCNB32.obj
 0002:00028af0       ?dgMsgQueueSize@@YAHXZ     00441af0 f   bbcnb32db_static:BBCNB32.obj
 0002:00028b60       ?dgMsgQueueNextItem@@YA?AVsizedBuffer@@XZ 00441b60 f   bbcnb32db_static:BBCNB32.obj
 0002:00028c70       ?dumpCurrentThreadId@@YAXXZ 00441c70 f   bbcnb32db_static:BBCNB32.obj
 0002:00028d30       _DllMain@12                00441d30 f   bbcnb32db_static:BBCNB32.obj
 0002:00028da0       ?NetGetErrorString@@YAPADE@Z 00441da0 f   bbcnb32db_static:BBCNB32.obj
 0002:00029150       ??$?0U?$_Wrap_alloc@V?$allocator@VsizedBuffer@@@std@@@std@@@?$_Wrap_alloc@V?$allocator@PAVsizedBuffer@@@std@@@std@@QAE@ABU?$_Wrap_alloc@V?$allocator@VsizedBuffer@@@std@@@1@@Z 00442150 f i bbcnb32db_static:BBCNB32.obj
 0002:000291b0       ??$?0VsizedBuffer@@@?$allocator@PAVsizedBuffer@@@std@@QAE@ABV?$allocator@VsizedBuffer@@@1@@Z 004421b0 f i bbcnb32db_static:BBCNB32.obj
 0002:000291f0       ??$_Allocate@PAVsizedBuffer@@@std@@YAPAPAVsizedBuffer@@IPAPAV1@@Z 004421f0 f i bbcnb32db_static:BBCNB32.obj
 0002:00029290       ??$_Allocate@VsizedBuffer@@@std@@YAPAVsizedBuffer@@IPAV1@@Z 00442290 f i bbcnb32db_static:BBCNB32.obj
 0002:00029330       ??$_Debug_pointer@PAVsizedBuffer@@@std@@YAXPAPAVsizedBuffer@@PB_WI@Z 00442330 f i bbcnb32db_static:BBCNB32.obj
 0002:000293a0       ??$_Debug_range2@PAPAVsizedBuffer@@@std@@YAXPAPAVsizedBuffer@@0PB_WIUrandom_access_iterator_tag@0@@Z 004423a0 f i bbcnb32db_static:BBCNB32.obj
 0002:00029450       ??$_Debug_range@PAPAVsizedBuffer@@@std@@YAXPAPAVsizedBuffer@@0PB_WI@Z 00442450 f i bbcnb32db_static:BBCNB32.obj
 0002:000294d0       ??$_Destroy_range@U?$_Wrap_alloc@V?$allocator@PAVsizedBuffer@@@std@@@std@@@std@@YAXPAPAVsizedBuffer@@0AAU?$_Wrap_alloc@V?$allocator@PAVsizedBuffer@@@std@@@0@@Z 004424d0 f i bbcnb32db_static:BBCNB32.obj
 0002:00029550       ??$_Destroy_range@U?$_Wrap_alloc@V?$allocator@PAVsizedBuffer@@@std@@@std@@@std@@YAXPAPAVsizedBuffer@@0AAU?$_Wrap_alloc@V?$allocator@PAVsizedBuffer@@@std@@@0@U_Scalar_ptr_iterator_tag@0@@Z 00442550 f i bbcnb32db_static:BBCNB32.obj
 0002:00029580       ??$_Fill_n@PAPAVsizedBuffer@@IPAV1@@std@@YAPAPAVsizedBuffer@@PAPAV1@IABQAV1@@Z 00442580 f i bbcnb32db_static:BBCNB32.obj
 0002:000295f0       ??$_Iter_cat@PAPAVsizedBuffer@@@std@@YA?AUrandom_access_iterator_tag@0@ABQAPAVsizedBuffer@@@Z 004425f0 f i bbcnb32db_static:BBCNB32.obj
 0002:00029670       ??$_Ptr_cat@PAVsizedBuffer@@PAV1@@std@@YA?AU_Scalar_ptr_iterator_tag@0@PAPAVsizedBuffer@@0@Z 00442670 f i bbcnb32db_static:BBCNB32.obj
 0002:000296e0       ??$_Rechecked@PAPAVsizedBuffer@@PAPAV1@@std@@YAAAPAPAVsizedBuffer@@AAPAPAV1@PAPAV1@@Z 004426e0 f i bbcnb32db_static:BBCNB32.obj
 0002:00029720       ??$_Unchecked@PAPAVsizedBuffer@@@std@@YAPAPAVsizedBuffer@@PAPAV1@@Z 00442720 f i bbcnb32db_static:BBCNB32.obj
 0002:00029760       ??$_Uninit_copy@PAPAVsizedBuffer@@PAPAV1@U?$_Wrap_alloc@V?$allocator@PAVsizedBuffer@@@std@@@std@@@std@@YAPAPAVsizedBuffer@@PAPAV1@00AAU?$_Wrap_alloc@V?$allocator@PAVsizedBuffer@@@std@@@0@@Z 00442760 f i bbcnb32db_static:BBCNB32.obj
 0002:000297f0       ??$_Uninit_copy@PAVsizedBuffer@@PAV1@@std@@YAPAPAVsizedBuffer@@PAPAV1@00AAU?$_Wrap_alloc@V?$allocator@PAVsizedBuffer@@@std@@@0@U_Scalar_ptr_iterator_tag@0@@Z 004427f0 f i bbcnb32db_static:BBCNB32.obj
 0002:000298b0       ??$_Uninit_def_fill_n@PAVsizedBuffer@@IPAV1@@std@@YAXPAPAVsizedBuffer@@IAAU?$_Wrap_alloc@V?$allocator@PAVsizedBuffer@@@std@@@0@0U_Scalar_ptr_iterator_tag@0@@Z 004428b0 f i bbcnb32db_static:BBCNB32.obj
 0002:00029920       ??$_Uninitialized_copy@PAPAVsizedBuffer@@PAPAV1@U?$_Wrap_alloc@V?$allocator@PAVsizedBuffer@@@std@@@std@@@std@@YAPAPAVsizedBuffer@@PAPAV1@00AAU?$_Wrap_alloc@V?$allocator@PAVsizedBuffer@@@std@@@0@@Z 00442920 f i bbcnb32db_static:BBCNB32.obj
 0002:000299c0       ??$_Uninitialized_default_fill_n@PAPAVsizedBuffer@@IU?$_Wrap_alloc@V?$allocator@PAVsizedBuffer@@@std@@@std@@@std@@YAXPAPAVsizedBuffer@@IAAU?$_Wrap_alloc@V?$allocator@PAVsizedBuffer@@@std@@@0@@Z 004429c0 f i bbcnb32db_static:BBCNB32.obj
 0002:00029a50       ??$_Val_type@PAPAVsizedBuffer@@@std@@YAPAPAVsizedBuffer@@PAPAV1@@Z 00442a50 f i bbcnb32db_static:BBCNB32.obj
 0002:00029a80       ??$construct@VsizedBuffer@@V1@@?$_Wrap_alloc@V?$allocator@VsizedBuffer@@@std@@@std@@QAEXPAVsizedBuffer@@$$QAV2@@Z 00442a80 f i bbcnb32db_static:BBCNB32.obj
 0002:00029af0       ??$construct@VsizedBuffer@@V1@@?$allocator@VsizedBuffer@@@std@@QAEXPAVsizedBuffer@@$$QAV2@@Z 00442af0 f i bbcnb32db_static:BBCNB32.obj
 0002:00029bf0       ??$construct@VsizedBuffer@@V1@@?$allocator_traits@V?$allocator@VsizedBuffer@@@std@@@std@@SAXAAV?$allocator@VsizedBuffer@@@1@PAVsizedBuffer@@$$QAV3@@Z 00442bf0 f i bbcnb32db_static:BBCNB32.obj
 0002:00029c50       ??$destroy@PAVsizedBuffer@@@?$_Wrap_alloc@V?$allocator@VsizedBuffer@@@std@@@std@@QAEXPAPAVsizedBuffer@@@Z 00442c50 f i bbcnb32db_static:BBCNB32.obj
 0002:00029cb0       ??$destroy@PAVsizedBuffer@@@?$allocator@VsizedBuffer@@@std@@QAEXPAPAVsizedBuffer@@@Z 00442cb0 f i bbcnb32db_static:BBCNB32.obj
 0002:00029cf0       ??$destroy@PAVsizedBuffer@@@?$allocator_traits@V?$allocator@VsizedBuffer@@@std@@@std@@SAXAAV?$allocator@VsizedBuffer@@@1@PAPAVsizedBuffer@@@Z 00442cf0 f i bbcnb32db_static:BBCNB32.obj
 0002:00029d40       ??$destroy@VsizedBuffer@@@?$_Wrap_alloc@V?$allocator@VsizedBuffer@@@std@@@std@@QAEXPAVsizedBuffer@@@Z 00442d40 f i bbcnb32db_static:BBCNB32.obj
 0002:00029da0       ??$destroy@VsizedBuffer@@@?$allocator@VsizedBuffer@@@std@@QAEXPAVsizedBuffer@@@Z 00442da0 f i bbcnb32db_static:BBCNB32.obj
 0002:00029e10       ??$destroy@VsizedBuffer@@@?$allocator_traits@V?$allocator@VsizedBuffer@@@std@@@std@@SAXAAV?$allocator@VsizedBuffer@@@1@PAVsizedBuffer@@@Z 00442e10 f i bbcnb32db_static:BBCNB32.obj
 0002:00029e60       ??$forward@VsizedBuffer@@@std@@YA$$QAVsizedBuffer@@AAV1@@Z 00442e60 f i bbcnb32db_static:BBCNB32.obj
 0002:00029ea0       ??$move@AAVsizedBuffer@@@std@@YA$$QAVsizedBuffer@@AAV1@@Z 00442ea0 f i bbcnb32db_static:BBCNB32.obj
 0002:00029ee0       ??0?$_Deque_alloc@$0A@U?$_Deque_base_types@VsizedBuffer@@V?$allocator@VsizedBuffer@@@std@@@std@@@std@@QAE@ABV?$allocator@VsizedBuffer@@@1@@Z 00442ee0 f i bbcnb32db_static:BBCNB32.obj
 0002:00029f90       ??0?$_Deque_const_iterator@V?$_Deque_val@U?$_Deque_simple_types@VsizedBuffer@@@std@@@std@@@std@@QAE@IPBU_Container_base12@1@@Z 00442f90 f i bbcnb32db_static:BBCNB32.obj
 0002:0002a050       ??0?$_Deque_iterator@V?$_Deque_val@U?$_Deque_simple_types@VsizedBuffer@@@std@@@std@@@std@@QAE@IPBU_Container_base12@1@@Z 00443050 f i bbcnb32db_static:BBCNB32.obj
 0002:0002a0b0       ??0?$_Deque_val@U?$_Deque_simple_types@VsizedBuffer@@@std@@@std@@QAE@XZ 004430b0 f i bbcnb32db_static:BBCNB32.obj
 0002:0002a150       ??0?$_Wrap_alloc@V?$allocator@U_Container_proxy@std@@@std@@@std@@QAE@XZ 00443150 f i bbcnb32db_static:BBCNB32.obj
 0002:0002a1b0       ??0?$_Wrap_alloc@V?$allocator@VsizedBuffer@@@std@@@std@@QAE@XZ 004431b0 f i bbcnb32db_static:BBCNB32.obj
 0002:0002a210       ??0?$allocator@VsizedBuffer@@@std@@QAE@XZ 00443210 f i bbcnb32db_static:BBCNB32.obj
 0002:0002a250       ??0?$deque@VsizedBuffer@@V?$allocator@VsizedBuffer@@@std@@@std@@QAE@XZ 00443250 f i bbcnb32db_static:BBCNB32.obj
 0002:0002a2c0       ??0?$queue@VsizedBuffer@@V?$deque@VsizedBuffer@@V?$allocator@VsizedBuffer@@@std@@@std@@@std@@QAE@XZ 004432c0 f i bbcnb32db_static:BBCNB32.obj
 0002:0002a320       ??1?$_Deque_alloc@$0A@U?$_Deque_base_types@VsizedBuffer@@V?$allocator@VsizedBuffer@@@std@@@std@@@std@@QAE@XZ 00443320 f i bbcnb32db_static:BBCNB32.obj
 0002:0002a380       ??1?$_Deque_const_iterator@V?$_Deque_val@U?$_Deque_simple_types@VsizedBuffer@@@std@@@std@@@std@@QAE@XZ 00443380 f i bbcnb32db_static:BBCNB32.obj
 0002:0002a3d0       ??1?$_Deque_iterator@V?$_Deque_val@U?$_Deque_simple_types@VsizedBuffer@@@std@@@std@@@std@@QAE@XZ 004433d0 f i bbcnb32db_static:BBCNB32.obj
 0002:0002a420       ??1?$_Deque_val@U?$_Deque_simple_types@VsizedBuffer@@@std@@@std@@QAE@XZ 00443420 f i bbcnb32db_static:BBCNB32.obj
 0002:0002a480       ??1?$deque@VsizedBuffer@@V?$allocator@VsizedBuffer@@@std@@@std@@QAE@XZ 00443480 f i bbcnb32db_static:BBCNB32.obj
 0002:0002a4e0       ??1?$queue@VsizedBuffer@@V?$deque@VsizedBuffer@@V?$allocator@VsizedBuffer@@@std@@@std@@@std@@QAE@XZ 004434e0 f i bbcnb32db_static:BBCNB32.obj
 0002:0002a530       ??D?$_Deque_const_iterator@V?$_Deque_val@U?$_Deque_simple_types@VsizedBuffer@@@std@@@std@@@std@@QBEABVsizedBuffer@@XZ 00443530 f i bbcnb32db_static:BBCNB32.obj
 0002:0002a6b0       ??D?$_Deque_iterator@V?$_Deque_val@U?$_Deque_simple_types@VsizedBuffer@@@std@@@std@@@std@@QBEAAVsizedBuffer@@XZ 004436b0 f i bbcnb32db_static:BBCNB32.obj
 0002:0002a700       ?_Alloc_proxy@?$_Deque_alloc@$0A@U?$_Deque_base_types@VsizedBuffer@@V?$allocator@VsizedBuffer@@@std@@@std@@@std@@QAEXXZ 00443700 f i bbcnb32db_static:BBCNB32.obj
 0002:0002a7d0       ?_Free_proxy@?$_Deque_alloc@$0A@U?$_Deque_base_types@VsizedBuffer@@V?$allocator@VsizedBuffer@@@std@@@std@@@std@@QAEXXZ 004437d0 f i bbcnb32db_static:BBCNB32.obj
 0002:0002a8b0       ?_Getal@?$_Deque_alloc@$0A@U?$_Deque_base_types@VsizedBuffer@@V?$allocator@VsizedBuffer@@@std@@@std@@@std@@QBE?AU?$_Wrap_alloc@V?$allocator@VsizedBuffer@@@std@@@2@XZ 004438b0 f i bbcnb32db_static:BBCNB32.obj
 0002:0002a910       ?_Getblock@?$_Deque_val@U?$_Deque_simple_types@VsizedBuffer@@@std@@@std@@QBEII@Z 00443910 f i bbcnb32db_static:BBCNB32.obj
 0002:0002a960       ?_Growmap@?$deque@VsizedBuffer@@V?$allocator@VsizedBuffer@@@std@@@std@@IAEXI@Z 00443960 f i bbcnb32db_static:BBCNB32.obj
 0002:0002ac60       ?_Orphan_off@?$deque@VsizedBuffer@@V?$allocator@VsizedBuffer@@@std@@@std@@IBEXI@Z 00443c60 f i bbcnb32db_static:BBCNB32.obj
 0002:0002ae30       ?_Setcont@?$_Deque_const_iterator@V?$_Deque_val@U?$_Deque_simple_types@VsizedBuffer@@@std@@@std@@@std@@QAEXPBV?$_Deque_val@U?$_Deque_simple_types@VsizedBuffer@@@std@@@2@@Z 00443e30 f i bbcnb32db_static:BBCNB32.obj
 0002:0002ae90       ?_Tidy@?$deque@VsizedBuffer@@V?$allocator@VsizedBuffer@@@std@@@std@@IAEXXZ 00443e90 f i bbcnb32db_static:BBCNB32.obj
 0002:0002b020       ?_Xlen@?$deque@VsizedBuffer@@V?$allocator@VsizedBuffer@@@std@@@std@@IBEXXZ 00444020 f i bbcnb32db_static:BBCNB32.obj
 0002:0002b080       ?allocate@?$_Wrap_alloc@V?$allocator@PAVsizedBuffer@@@std@@@std@@QAEPAPAVsizedBuffer@@I@Z 00444080 f i bbcnb32db_static:BBCNB32.obj
 0002:0002b0e0       ?allocate@?$_Wrap_alloc@V?$allocator@VsizedBuffer@@@std@@@std@@QAEPAVsizedBuffer@@I@Z 004440e0 f i bbcnb32db_static:BBCNB32.obj
 0002:0002b140       ?allocate@?$allocator@PAVsizedBuffer@@@std@@QAEPAPAVsizedBuffer@@I@Z 00444140 f i bbcnb32db_static:BBCNB32.obj
 0002:0002b1a0       ?allocate@?$allocator@VsizedBuffer@@@std@@QAEPAVsizedBuffer@@I@Z 004441a0 f i bbcnb32db_static:BBCNB32.obj
 0002:0002b200       ?begin@?$deque@VsizedBuffer@@V?$allocator@VsizedBuffer@@@std@@@std@@QAE?AV?$_Deque_iterator@V?$_Deque_val@U?$_Deque_simple_types@VsizedBuffer@@@std@@@std@@@2@XZ 00444200 f i bbcnb32db_static:BBCNB32.obj
 0002:0002b270       ?deallocate@?$_Wrap_alloc@V?$allocator@PAVsizedBuffer@@@std@@@std@@QAEXPAPAVsizedBuffer@@I@Z 00444270 f i bbcnb32db_static:BBCNB32.obj
 0002:0002b2d0       ?deallocate@?$_Wrap_alloc@V?$allocator@VsizedBuffer@@@std@@@std@@QAEXPAVsizedBuffer@@I@Z 004442d0 f i bbcnb32db_static:BBCNB32.obj
 0002:0002b330       ?deallocate@?$allocator@PAVsizedBuffer@@@std@@QAEXPAPAVsizedBuffer@@I@Z 00444330 f i bbcnb32db_static:BBCNB32.obj
 0002:0002b390       ?deallocate@?$allocator@VsizedBuffer@@@std@@QAEXPAVsizedBuffer@@I@Z 00444390 f i bbcnb32db_static:BBCNB32.obj
 0002:0002b3f0       ?empty@?$deque@VsizedBuffer@@V?$allocator@VsizedBuffer@@@std@@@std@@QBE_NXZ 004443f0 f i bbcnb32db_static:BBCNB32.obj
 0002:0002b460       ?front@?$deque@VsizedBuffer@@V?$allocator@VsizedBuffer@@@std@@@std@@QAEAAVsizedBuffer@@XZ 00444460 f i bbcnb32db_static:BBCNB32.obj
 0002:0002b540       ?front@?$queue@VsizedBuffer@@V?$deque@VsizedBuffer@@V?$allocator@VsizedBuffer@@@std@@@std@@@std@@QAEAAVsizedBuffer@@XZ 00444540 f i bbcnb32db_static:BBCNB32.obj
 0002:0002b590       ?max_size@?$_Wrap_alloc@V?$allocator@VsizedBuffer@@@std@@@std@@QBEIXZ 00444590 f i bbcnb32db_static:BBCNB32.obj
 0002:0002b5f0       ?max_size@?$allocator@VsizedBuffer@@@std@@QBEIXZ 004445f0 f i bbcnb32db_static:BBCNB32.obj
 0002:0002b630       ?max_size@?$allocator_traits@V?$allocator@VsizedBuffer@@@std@@@std@@SAIABV?$allocator@VsizedBuffer@@@2@@Z 00444630 f i bbcnb32db_static:BBCNB32.obj
 0002:0002b680       ?max_size@?$deque@VsizedBuffer@@V?$allocator@VsizedBuffer@@@std@@@std@@QBEIXZ 00444680 f i bbcnb32db_static:BBCNB32.obj
 0002:0002b6e0       ?pop@?$queue@VsizedBuffer@@V?$deque@VsizedBuffer@@V?$allocator@VsizedBuffer@@@std@@@std@@@std@@QAEXXZ 004446e0 f i bbcnb32db_static:BBCNB32.obj
 0002:0002b730       ?pop_back@?$deque@VsizedBuffer@@V?$allocator@VsizedBuffer@@@std@@@std@@QAEXXZ 00444730 f i bbcnb32db_static:BBCNB32.obj
 0002:0002b870       ?pop_front@?$deque@VsizedBuffer@@V?$allocator@VsizedBuffer@@@std@@@std@@QAEXXZ 00444870 f i bbcnb32db_static:BBCNB32.obj
 0002:0002b9c0       ?push@?$queue@VsizedBuffer@@V?$deque@VsizedBuffer@@V?$allocator@VsizedBuffer@@@std@@@std@@@std@@QAEX$$QAVsizedBuffer@@@Z 004449c0 f i bbcnb32db_static:BBCNB32.obj
 0002:0002ba30       ?push_back@?$deque@VsizedBuffer@@V?$allocator@VsizedBuffer@@@std@@@std@@QAEX$$QAVsizedBuffer@@@Z 00444a30 f i bbcnb32db_static:BBCNB32.obj
 0002:0002bbb0       ?size@?$deque@VsizedBuffer@@V?$allocator@VsizedBuffer@@@std@@@std@@QBEIXZ 00444bb0 f i bbcnb32db_static:BBCNB32.obj
 0002:0002bbf0       ?size@?$queue@VsizedBuffer@@V?$deque@VsizedBuffer@@V?$allocator@VsizedBuffer@@@std@@@std@@@std@@QBEIXZ 00444bf0 f i bbcnb32db_static:BBCNB32.obj
 0002:0002bc40       _NetCopyName@8             00444c40 f   bbcnb32db_static:NCBSUFU.obj
 0002:0002bce0       _NetDumpSessionStatus@8    00444ce0 f   bbcnb32db_static:NCBSUFU.obj
 0002:0002c2f0       _NetAllocNcbAndBuf@4       004452f0 f   bbcnb32db_static:NCBALLOC.obj
 0002:0002c370       _NetNcbFree@4              00445370 f   bbcnb32db_static:NCBALLOC.obj
 0002:0002c3f0       _NetAddName@12             004453f0 f   bbcnb32db_static:NCBCALLS.obj
 0002:0002c490       _NetAddGroupName@12        00445490 f   bbcnb32db_static:NCBCALLS.obj
 0002:0002c530       _NetDeleteName@12          00445530 f   bbcnb32db_static:NCBCALLS.obj
 0002:0002c5e0       _NetHangUp@8               004455e0 f   bbcnb32db_static:NCBCALLS.obj
 0002:0002c660       _NetCancel@8               00445660 f   bbcnb32db_static:NCBCALLS.obj
 0002:0002c6e0       _NetReset@12               004456e0 f   bbcnb32db_static:NCBCALLS.obj
 0002:0002c770       _NetAdaptorStatus@20       00445770 f   bbcnb32db_static:NCBCALLS.obj
 0002:0002c840       _NetSessionStatus@20       00445840 f   bbcnb32db_static:NCBCALLS.obj
 0002:0002c930       _NetCall@28                00445930 f   bbcnb32db_static:NCBCALLS.obj
 0002:0002ca10       _NetListen@28              00445a10 f   bbcnb32db_static:NCBCALLS.obj
 0002:0002caf0       _NetSend@24                00445af0 f   bbcnb32db_static:NCBCALLS.obj
 0002:0002cbd0       _NetSendDG@28              00445bd0 f   bbcnb32db_static:NCBCALLS.obj
 0002:0002ccf0       _NetSendBCDG@24            00445cf0 f   bbcnb32db_static:NCBCALLS.obj
 0002:0002cdd0       _NetReceive@20             00445dd0 f   bbcnb32db_static:NCBCALLS.obj
 0002:0002ce90       _NetReceiveAny@20          00445e90 f   bbcnb32db_static:NCBCALLS.obj
 0002:0002cf50       _NetReceiveDG@20           00445f50 f   bbcnb32db_static:NCBCALLS.obj
 0002:0002d010       _NetReceiveBCDG@20         00446010 f   bbcnb32db_static:NCBCALLS.obj
 0002:0002d0d0       ?NetEnumAdaptors@@YGEPAU_LANA_ENUM@@@Z 004460d0 f   bbcnb32db_static:NCBCALLS.obj
 0002:0002d540       ??0bncs_disklog@@QAE@PBDW4filetype@0@000000@Z 00446540 f   bbcnb32db_static:bncs_disklog.obj
 0002:0002d5c0       ??0bncs_disklog@@QAE@PBDW4filetype@0@@Z 004465c0 f   bbcnb32db_static:bncs_disklog.obj
 0002:0002d620       ?write@bncs_disklog@@QAEXPBD00000@Z 00446620 f   bbcnb32db_static:bncs_disklog.obj
 0002:0002d9c0       ??1bncs_disklog@@UAE@XZ    004469c0 f   bbcnb32db_static:bncs_disklog.obj
 0002:0002da10       ?ref@bncs_disklog@@QAEPBDXZ 00446a10 f   bbcnb32db_static:bncs_disklog.obj
 0002:0002da40       ?clear@bncs_disklog@@QAEXXZ 00446a40 f   bbcnb32db_static:bncs_disklog.obj
 0002:0002dac0       ?openLogFile@bncs_disklog@@AAEXPBDW4filetype@1@@Z 00446ac0 f   bbcnb32db_static:bncs_disklog.obj
 0002:0002dea0       ?initVars@bncs_disklog@@AAEXXZ 00446ea0 f   bbcnb32db_static:bncs_disklog.obj
 0002:0002def0       ?createDirectory@bncs_disklog@@AAEXPBD@Z 00446ef0 f   bbcnb32db_static:bncs_disklog.obj
 0002:0002e050       ?cleanup@bncs_disklog@@AAEXXZ 00447050 f   bbcnb32db_static:bncs_disklog.obj
 0002:0002e3c0       ??_Ebncs_disklog@@UAEPAXI@Z 004473c0 f i bbcnb32db_static:bncs_disklog.obj
 0002:0002e3c0       ??_Gbncs_disklog@@UAEPAXI@Z 004473c0 f i bbcnb32db_static:bncs_disklog.obj
 0002:0002e42e       _ntohl@4                   0044742e f   ws2_32:WS2_32.dll
 0002:0002e434       _ntohs@4                   00447434 f   ws2_32:WS2_32.dll
 0002:0002e43a       _GetPrivateProfileStringA@24 0044743a f   kernel32:KERNEL32.dll
 0002:0002e440       _WritePrivateProfileStringA@16 00447440 f   kernel32:KERNEL32.dll
 0002:0002e446       _GetWindowsDirectoryA@8    00447446 f   kernel32:KERNEL32.dll
 0002:0002e44c       _GetLocalTime@4            0044744c f   kernel32:KERNEL32.dll
 0002:0002e452       _SetLocalTime@4            00447452 f   kernel32:KERNEL32.dll
 0002:0002e458       _FreeLibrary@4             00447458 f   kernel32:KERNEL32.dll
 0002:0002e45e       _GetProcAddress@8          0044745e f   kernel32:KERNEL32.dll
 0002:0002e464       _GlobalAlloc@8             00447464 f   kernel32:KERNEL32.dll
 0002:0002e46a       _GlobalLock@4              0044746a f   kernel32:KERNEL32.dll
 0002:0002e470       _GlobalUnlock@4            00447470 f   kernel32:KERNEL32.dll
 0002:0002e476       _GlobalFree@4              00447476 f   kernel32:KERNEL32.dll
 0002:0002e47c       _GetLastError@0            0044747c f   kernel32:KERNEL32.dll
 0002:0002e482       _lstrcpyA@8                00447482 f   kernel32:KERNEL32.dll
 0002:0002e488       _LoadLibraryA@4            00447488 f   kernel32:KERNEL32.dll
 0002:0002e48e       _GetModuleFileNameA@12     0044748e f   kernel32:KERNEL32.dll
 0002:0002e494       _OutputDebugStringA@4      00447494 f   kernel32:KERNEL32.dll
 0002:0002e49a       _IsBadReadPtr@8            0044749a f   kernel32:KERNEL32.dll
 0002:0002e4a0       _GetPrivateProfileIntA@16  004474a0 f   kernel32:KERNEL32.dll
 0002:0002e4a6       _lstrcpynA@12              004474a6 f   kernel32:KERNEL32.dll
 0002:0002e4ac       _GetCurrentThread@0        004474ac f   kernel32:KERNEL32.dll
 0002:0002e4b2       _GetCurrentThreadId@0      004474b2 f   kernel32:KERNEL32.dll
 0002:0002e4b8       _SetThreadPriority@8       004474b8 f   kernel32:KERNEL32.dll
 0002:0002e4be       _ReleaseMutex@4            004474be f   kernel32:KERNEL32.dll
 0002:0002e4c4       _WaitForSingleObject@8     004474c4 f   kernel32:KERNEL32.dll
 0002:0002e4ca       _CloseHandle@4             004474ca f   kernel32:KERNEL32.dll
 0002:0002e4d0       _CreateMutexA@12           004474d0 f   kernel32:KERNEL32.dll
 0002:0002e4d6       _WriteFile@20              004474d6 f   kernel32:KERNEL32.dll
 0002:0002e4dc       _SetEndOfFile@4            004474dc f   kernel32:KERNEL32.dll
 0002:0002e4e2       _SetFilePointer@16         004474e2 f   kernel32:KERNEL32.dll
 0002:0002e4e8       _GetSystemTime@4           004474e8 f   kernel32:KERNEL32.dll
 0002:0002e4ee       _CreateFileA@28            004474ee f   kernel32:KERNEL32.dll
 0002:0002e4f4       _DialogBoxParamA@20        004474f4 f   user32:USER32.dll
 0002:0002e4fa       _EndDialog@8               004474fa f   user32:USER32.dll
 0002:0002e500       _SetDlgItemTextA@12        00447500 f   user32:USER32.dll
 0002:0002e506       _MessageBoxA@16            00447506 f   user32:USER32.dll
 0002:0002e50c       _SendMessageA@16           0044750c f   user32:USER32.dll
 0002:0002e512       _ShowWindow@8              00447512 f   user32:USER32.dll
 0002:0002e518       _CreateDialogParamA@20     00447518 f   user32:USER32.dll
 0002:0002e51e       _GetDlgItem@8              0044751e f   user32:USER32.dll
 0002:0002e524       _SetTimer@16               00447524 f   user32:USER32.dll
 0002:0002e52a       _KillTimer@8               0044752a f   user32:USER32.dll
 0002:0002e530       _GetMessageA@16            00447530 f   user32:USER32.dll
 0002:0002e536       _TranslateMessage@4        00447536 f   user32:USER32.dll
 0002:0002e53c       _DispatchMessageA@4        0044753c f   user32:USER32.dll
 0002:0002e542       _DefWindowProcA@16         00447542 f   user32:USER32.dll
 0002:0002e548       _PostQuitMessage@4         00447548 f   user32:USER32.dll
 0002:0002e54e       _RegisterClassA@4          0044754e f   user32:USER32.dll
 0002:0002e554       _CreateWindowExA@48        00447554 f   user32:USER32.dll
 0002:0002e55a       _DestroyWindow@4           0044755a f   user32:USER32.dll
 0002:0002e560       _SetWindowPos@28           00447560 f   user32:USER32.dll
 0002:0002e566       _OpenClipboard@4           00447566 f   user32:USER32.dll
 0002:0002e56c       _CloseClipboard@0          0044756c f   user32:USER32.dll
 0002:0002e572       _SetClipboardData@8        00447572 f   user32:USER32.dll
 0002:0002e578       _EmptyClipboard@0          00447578 f   user32:USER32.dll
 0002:0002e57e       _GetSystemMetrics@4        0044757e f   user32:USER32.dll
 0002:0002e584       _GetMenu@4                 00447584 f   user32:USER32.dll
 0002:0002e58a       _CheckMenuItem@12          0044758a f   user32:USER32.dll
 0002:0002e590       _EnableMenuItem@12         00447590 f   user32:USER32.dll
 0002:0002e596       _UpdateWindow@4            00447596 f   user32:USER32.dll
 0002:0002e59c       _GetDC@4                   0044759c f   user32:USER32.dll
 0002:0002e5a2       _ReleaseDC@8               004475a2 f   user32:USER32.dll
 0002:0002e5a8       _BeginPaint@8              004475a8 f   user32:USER32.dll
 0002:0002e5ae       _EndPaint@8                004475ae f   user32:USER32.dll
 0002:0002e5b4       _InvalidateRect@12         004475b4 f   user32:USER32.dll
 0002:0002e5ba       _ScrollWindow@20           004475ba f   user32:USER32.dll
 0002:0002e5c0       _SetScrollPos@16           004475c0 f   user32:USER32.dll
 0002:0002e5c6       _SetScrollRange@20         004475c6 f   user32:USER32.dll
 0002:0002e5cc       _SetWindowTextA@8          004475cc f   user32:USER32.dll
 0002:0002e5d2       _GetClientRect@8           004475d2 f   user32:USER32.dll
 0002:0002e5d8       _GetWindowRect@8           004475d8 f   user32:USER32.dll
 0002:0002e5de       _FillRect@12               004475de f   user32:USER32.dll
 0002:0002e5e4       _LoadCursorA@8             004475e4 f   user32:USER32.dll
 0002:0002e5ea       _LoadIconA@8               004475ea f   user32:USER32.dll
 0002:0002e5f0       _GetDlgItemTextA@16        004475f0 f   user32:USER32.dll
 0002:0002e5f6       _EnableWindow@8            004475f6 f   user32:USER32.dll
 0002:0002e5fc       _wsprintfA                 004475fc f   user32:USER32.dll
 0002:0002e602       _PostMessageA@16           00447602 f   user32:USER32.dll
 0002:0002e608       _LoadStringA@16            00447608 f   user32:USER32.dll
 0002:0002e60e       _BitBlt@36                 0044760e f   gdi32:GDI32.dll
 0002:0002e614       _CreateCompatibleBitmap@12 00447614 f   gdi32:GDI32.dll
 0002:0002e61a       _CreateCompatibleDC@4      0044761a f   gdi32:GDI32.dll
 0002:0002e620       _CreateFontIndirectA@4     00447620 f   gdi32:GDI32.dll
 0002:0002e626       _CreateSolidBrush@4        00447626 f   gdi32:GDI32.dll
 0002:0002e62c       _DeleteDC@4                0044762c f   gdi32:GDI32.dll
 0002:0002e632       _DeleteObject@4            00447632 f   gdi32:GDI32.dll
 0002:0002e638       _SelectObject@8            00447638 f   gdi32:GDI32.dll
 0002:0002e63e       _SetBkColor@8              0044763e f   gdi32:GDI32.dll
 0002:0002e644       _SetTextColor@8            00447644 f   gdi32:GDI32.dll
 0002:0002e64a       _GetTextMetricsA@8         0044764a f   gdi32:GDI32.dll
 0002:0002e650       _TextOutA@20               00447650 f   gdi32:GDI32.dll
 0002:0002e656       _GetOpenFileNameA@4        00447656 f   comdlg32:COMDLG32.dll
 0002:0002e65c       _RegCloseKey@4             0044765c f   advapi32:ADVAPI32.dll
 0002:0002e662       _RegQueryValueExA@24       00447662 f   advapi32:ADVAPI32.dll
 0002:0002e668       _RegOpenKeyExA@20          00447668 f   advapi32:ADVAPI32.dll
 0002:0002e66e       _strcat                    0044766e f   MSVCRTD:MSVCR120D.dll
 0002:0002e674       _strcmp                    00447674 f   MSVCRTD:MSVCR120D.dll
 0002:0002e67a       _strlen                    0044767a f   MSVCRTD:MSVCR120D.dll
 0002:0002e680       _strncpy                   00447680 f   MSVCRTD:MSVCR120D.dll
 0002:0002e686       _getenv                    00447686 f   MSVCRTD:MSVCR120D.dll
 0002:0002e68c       _sprintf                   0044768c f   MSVCRTD:MSVCR120D.dll
 0002:0002e6a0       @_RTC_AllocaHelper@12      004476a0 f   MSVCRTD:stack.obj
 0002:0002e6e0       @_RTC_CheckStackVars2@12   004476e0 f   MSVCRTD:stack.obj
 0002:0002e7f0       @_RTC_CheckStackVars@8     004477f0 f   MSVCRTD:stack.obj
 0002:0002e860       __RTC_CheckEsp             00447860 f   MSVCRTD:stack.obj
 0002:0002e890       @__security_check_cookie@4 00447890 f   MSVCRTD:secchk.obj
 0002:0002e8b0       __RTC_InitBase             004478b0 f   MSVCRTD:init.obj
 0002:0002e8f0       __RTC_Shutdown             004478f0 f   MSVCRTD:init.obj
 0002:0002e908       __hypot                    00447908 f   MSVCRTD:MSVCR120D.dll
 0002:0002e90e       _memset                    0044790e f   MSVCRTD:MSVCR120D.dll
 0002:0002e920       ___raise_securityfailure   00447920 f   MSVCRTD:gs_report.obj
 0002:0002e980       ___report_gsfailure        00447980 f   MSVCRTD:gs_report.obj
 0002:0002ead0       ___report_rangecheckfailure 00447ad0 f   MSVCRTD:gs_report.obj
 0002:0002eae0       ___report_securityfailure  00447ae0 f   MSVCRTD:gs_report.obj
 0002:0002ebf0       ___report_securityfailureEx 00447bf0 f   MSVCRTD:gs_report.obj
 0002:0002ed5e       _memcpy                    00447d5e f   MSVCRTD:MSVCR120D.dll
 0002:0002ed64       _strcpy                    00447d64 f   MSVCRTD:MSVCR120D.dll
 0002:0002ed6a       _atoi                      00447d6a f   MSVCRTD:MSVCR120D.dll
 0002:0002ed70       _sscanf                    00447d70 f   MSVCRTD:MSVCR120D.dll
 0002:0002ed76       _strchr                    00447d76 f   MSVCRTD:MSVCR120D.dll
 0002:0002ed7c       __strlwr                   00447d7c f   MSVCRTD:MSVCR120D.dll
 0002:0002ed82       _strncmp                   00447d82 f   MSVCRTD:MSVCR120D.dll
 0002:0002ed88       _strstr                    00447d88 f   MSVCRTD:MSVCR120D.dll
 0002:0002ed8e       _strtok                    00447d8e f   MSVCRTD:MSVCR120D.dll
 0002:0002ed94       __strupr                   00447d94 f   MSVCRTD:MSVCR120D.dll
 0002:0002ed9a       _abs                       00447d9a f   MSVCRTD:MSVCR120D.dll
 0002:0002eda0       _atol                      00447da0 f   MSVCRTD:MSVCR120D.dll
 0002:0002eda6       _fclose                    00447da6 f   MSVCRTD:MSVCR120D.dll
 0002:0002edac       _feof                      00447dac f   MSVCRTD:MSVCR120D.dll
 0002:0002edb2       _fgets                     00447db2 f   MSVCRTD:MSVCR120D.dll
 0002:0002edb8       _fopen                     00447db8 f   MSVCRTD:MSVCR120D.dll
 0002:0002edbe       _fprintf                   00447dbe f   MSVCRTD:MSVCR120D.dll
 0002:0002edc4       _fputc                     00447dc4 f   MSVCRTD:MSVCR120D.dll
 0002:0002edca       ___CxxFrameHandler3        00447dca f   MSVCRTD:MSVCR120D.dll
 0002:0002edd0       _fgetc                     00447dd0 f   MSVCRTD:MSVCR120D.dll
 0002:0002edd6       _fseek                     00447dd6 f   MSVCRTD:MSVCR120D.dll
 0002:0002eddc       _rewind                    00447ddc f   MSVCRTD:MSVCR120D.dll
 0002:0002ede2       __purecall                 00447de2 f   MSVCRTD:MSVCR120D.dll
 0002:0002ede8       ??2@YAPAXI@Z               00447de8 f   MSVCRTD:MSVCR120D.dll
 0002:0002edee       ??3@YAXPAX@Z               00447dee f   MSVCRTD:MSVCR120D.dll
 0002:0002ee00       ___atonexitinit            00447e00 f   MSVCRTD:atonexit.obj
 0002:0002eee0       __onexit                   00447ee0 f   MSVCRTD:atonexit.obj
 0002:0002f020       _atexit                    00448020 f   MSVCRTD:atonexit.obj
 0002:0002f056       __invalid_parameter        00448056 f   MSVCRTD:MSVCR120D.dll
 0002:0002f05c       _memcmp                    0044805c f   MSVCRTD:MSVCR120D.dll
 0002:0002f062       _memmove                   00448062 f   MSVCRTD:MSVCR120D.dll
 0002:0002f068       __mkdir                    00448068 f   MSVCRTD:MSVCR120D.dll
 0002:0002f06e       __CrtDbgReportW            0044806e f   MSVCRTD:MSVCR120D.dll
 0002:0002f074       __CxxThrowException@8      00448074 f   MSVCRTD:MSVCR120D.dll
 0002:0002f080       ??0type_info@@AAE@ABV0@@Z  00448080 f   MSVCRTD:ti_inst.obj
 0002:0002f0a0       ??4type_info@@AAEAAV0@ABV0@@Z 004480a0 f   MSVCRTD:ti_inst.obj
 0002:0002f0c0       ??_Etype_info@@UAEPAXI@Z   004480c0 f i MSVCRTD:ti_inst.obj
 0002:0002f144       _tolower                   00448144 f   MSVCRTD:MSVCR120D.dll
 0002:0002f14a       _memchr                    0044814a f   MSVCRTD:MSVCR120D.dll
 0002:0002f150       __stricmp                  00448150 f   MSVCRTD:MSVCR120D.dll
 0002:0002f156       _fputs                     00448156 f   MSVCRTD:MSVCR120D.dll
 0002:0002f15c       _remove                    0044815c f   MSVCRTD:MSVCR120D.dll
 0002:0002f162       _rename                    00448162 f   MSVCRTD:MSVCR120D.dll
 0002:0002f168       ??_V@YAXPAX@Z              00448168 f   MSVCRTD:MSVCR120D.dll
 0002:0002f16e       ??_U@YAPAXI@Z              0044816e f   MSVCRTD:MSVCR120D.dll
 0002:0002f2a0       _NtCurrentTeb              004482a0 f i MSVCRTD:crtexew.obj
 0002:0002f2b0       _WinMainCRTStartup         004482b0 f   MSVCRTD:crtexew.obj
 0002:0002f712       _strpbrk                   00448712 f   MSVCRTD:MSVCR120D.dll
 0002:0002f718       _free                      00448718 f   MSVCRTD:MSVCR120D.dll
 0002:0002f71e       _malloc                    0044871e f   MSVCRTD:MSVCR120D.dll
 0002:0002f724       _calloc                    00448724 f   MSVCRTD:MSVCR120D.dll
 0002:0002f72a       __localtime64              0044872a f   MSVCRTD:MSVCR120D.dll
 0002:0002f730       __time64                   00448730 f   MSVCRTD:MSVCR120D.dll
 0002:0002f8e0       ?_RTC_AllocaFailure@@YAXPAXPAU_RTC_ALLOCA_NODE@@H@Z 004488e0 f   MSVCRTD:error.obj
 0002:0002fac0       ?_RTC_Failure@@YAXPAXH@Z   00448ac0 f   MSVCRTD:error.obj
 0002:0002fb30       ?_RTC_StackFailure@@YAXPAXPBD@Z 00448b30 f   MSVCRTD:error.obj
 0002:0002ff90       __RTC_UninitUse            00448f90 f   MSVCRTD:error.obj
 0002:000300c0       ?_RTC_GetErrorFunc@@YAP6AHHPBDH00ZZPBX@Z 004490c0 f   MSVCRTD:userapi.obj
 0002:000300d0       ?_RTC_GetErrorFuncW@@YAP6AHHPB_WH00ZZPBX@Z 004490d0 f   MSVCRTD:userapi.obj
 0002:000300e0       __RTC_GetErrDesc           004490e0 f   MSVCRTD:userapi.obj
 0002:00030100       __RTC_NumErrors            00449100 f   MSVCRTD:userapi.obj
 0002:00030110       __RTC_SetErrorFunc         00449110 f   MSVCRTD:userapi.obj
 0002:00030140       __RTC_SetErrorFuncW        00449140 f   MSVCRTD:userapi.obj
 0002:00030170       __RTC_SetErrorType         00449170 f   MSVCRTD:userapi.obj
 0002:0003019c       __CRT_RTC_INITW            0044919c f   MSVCRTD:MSVCR120D.dll
 0002:000301a2       __crt_debugger_hook        004491a2 f   MSVCRTD:MSVCR120D.dll
 0002:000301a8       ___crtUnhandledException   004491a8 f   MSVCRTD:MSVCR120D.dll
 0002:000301ae       ___crtTerminateProcess     004491ae f   MSVCRTD:MSVCR120D.dll
 0002:000301b4       __lock                     004491b4 f   MSVCRTD:MSVCR120D.dll
 0002:000301ba       __unlock                   004491ba f   MSVCRTD:MSVCR120D.dll
 0002:000301c0       __calloc_dbg               004491c0 f   MSVCRTD:MSVCR120D.dll
 0002:000301c6       ___dllonexit               004491c6 f   MSVCRTD:MSVCR120D.dll
 0002:000301d0       __except_handler4          004491d0 f   MSVCRTD:chandler4gs.obj
 0002:00030200       ??_M@YGXPAXIHP6EX0@Z@Z     00449200 f   MSVCRTD:ehvecdtr.obj
 0002:00030320       ?__ArrayUnwind@@YGXPAXIHP6EX0@Z@Z 00449320 f   MSVCRTD:ehvecdtr.obj
 0002:000303cc       ??1type_info@@UAE@XZ       004493cc f   MSVCRTD:MSVCR120D.dll
 0002:000303e0       ?__CxxUnhandledExceptionFilter@@YGJPAU_EXCEPTION_POINTERS@@@Z 004493e0 f   MSVCRTD:unhandld.obj
 0002:00030460       ___CxxSetUnhandledExceptionFilter 00449460 f   MSVCRTD:unhandld.obj
 0002:0003047a       __XcptFilter               0044947a f   MSVCRTD:MSVCR120D.dll
 0002:00030480       ___crtGetShowWindowMode    00449480 f   MSVCRTD:MSVCR120D.dll
 0002:00030486       __amsg_exit                00449486 f   MSVCRTD:MSVCR120D.dll
 0002:00030490       __setargv                  00449490 f   MSVCRTD:dllargv.obj
 0002:00030498       ___getmainargs             00449498 f   MSVCRTD:MSVCR120D.dll
 0002:0003049e       ___set_app_type            0044949e f   MSVCRTD:MSVCR120D.dll
 0002:000304a4       __CrtSetCheckCount         004494a4 f   MSVCRTD:MSVCR120D.dll
 0002:000304b0       __FindPESection            004494b0 f   MSVCRTD:pesect.obj
 0002:00030540       __IsNonwritableInCurrentImage 00449540 f   MSVCRTD:pesect.obj
 0002:000306c0       __ValidateImageBase        004496c0 f   MSVCRTD:pesect.obj
 0002:00030734       _exit                      00449734 f   MSVCRTD:MSVCR120D.dll
 0002:0003073a       __exit                     0044973a f   MSVCRTD:MSVCR120D.dll
 0002:00030740       __cexit                    00449740 f   MSVCRTD:MSVCR120D.dll
 0002:00030750       ___security_init_cookie    00449750 f   MSVCRTD:gs_support.obj
 0002:00030870       __matherr                  00449870 f   MSVCRTD:merr.obj
 0002:00030878       __ismbblead                00449878 f   MSVCRTD:MSVCR120D.dll
 0002:00030880       __RTC_Initialize           00449880 f   MSVCRTD:initsect.obj
 0002:000308b0       __RTC_Terminate            004498b0 f   MSVCRTD:initsect.obj
 0002:000308de       __configthreadlocale       004498de f   MSVCRTD:MSVCR120D.dll
 0002:000308f0       __invoke_watson_if_error   004498f0 f i MSVCRTD:fp8.obj
 0002:00030920       __setdefaultprecision      00449920 f   MSVCRTD:fp8.obj
 0002:00030962       ___setusermatherr          00449962 f   MSVCRTD:MSVCR120D.dll
 0002:00030968       __initterm_e               00449968 f   MSVCRTD:MSVCR120D.dll
 0002:0003096e       __initterm                 0044996e f   MSVCRTD:MSVCR120D.dll
 0002:00030ee0       ?_RTC_GetSrcLine@@YAHPAEPA_WKPAH1K@Z 00449ee0 f   MSVCRTD:pdblkup.obj
 0002:0003123a       __except_handler4_common   0044a23a f   MSVCRTD:MSVCR120D.dll
 0002:00031240       ?terminate@@YAXXZ          0044a240 f   MSVCRTD:MSVCR120D.dll
 0002:00031246       ___crtSetUnhandledExceptionFilter 0044a246 f   MSVCRTD:MSVCR120D.dll
 0002:0003124c       __invoke_watson            0044a24c f   MSVCRTD:MSVCR120D.dll
 0002:00031252       __controlfp_s              0044a252 f   MSVCRTD:MSVCR120D.dll
 0002:00031258       _wcscpy_s                  0044a258 f   MSVCRTD:MSVCR120D.dll
 0002:0003125e       __wmakepath_s              0044a25e f   MSVCRTD:MSVCR120D.dll
 0002:00031264       __wsplitpath_s             0044a264 f   MSVCRTD:MSVCR120D.dll
 0002:0003126a       ??0_Lockit@std@@QAE@H@Z    0044a26a f   msvcprtd:MSVCP120D.dll
 0002:00031270       ??1_Lockit@std@@QAE@XZ     0044a270 f   msvcprtd:MSVCP120D.dll
 0002:00031276       ?_Debug_message@std@@YAXPB_W0I@Z 0044a276 f   msvcprtd:MSVCP120D.dll
 0002:0003127c       ??0_Container_base12@std@@QAE@XZ 0044a27c f   msvcprtd:MSVCP120D.dll
 0002:00031282       ??1_Container_base12@std@@QAE@XZ 0044a282 f   msvcprtd:MSVCP120D.dll
 0002:00031288       ?_Getpfirst@_Container_base12@std@@QBEPAPAU_Iterator_base12@2@XZ 0044a288 f   msvcprtd:MSVCP120D.dll
 0002:0003128e       ?_Orphan_all@_Container_base12@std@@QAEXXZ 0044a28e f   msvcprtd:MSVCP120D.dll
 0002:00031294       ?_Xbad_alloc@std@@YAXXZ    0044a294 f   msvcprtd:MSVCP120D.dll
 0002:0003129a       ?_Xlength_error@std@@YAXPBD@Z 0044a29a f   msvcprtd:MSVCP120D.dll
 0002:000312a0       ?_Xout_of_range@std@@YAXPBD@Z 0044a2a0 f   msvcprtd:MSVCP120D.dll
 0002:000312a6       ??0id@locale@std@@QAE@I@Z  0044a2a6 f   msvcprtd:MSVCP120D.dll
 0002:000312ac       ?_Syserror_map@std@@YAPBDH@Z 0044a2ac f   msvcprtd:MSVCP120D.dll
 0002:000312b2       ?_Winerror_map@std@@YAPBDH@Z 0044a2b2 f   msvcprtd:MSVCP120D.dll
 0002:000312b8       _Netbios@4                 0044a2b8 f   netapi32:NETAPI32.dll
 0002:000312be       _IsDebuggerPresent@0       0044a2be f   kernel32:KERNEL32.dll
 0002:000312c4       _IsProcessorFeaturePresent@4 0044a2c4 f   kernel32:KERNEL32.dll
 0002:000312ca       _EncodePointer@4           0044a2ca f   kernel32:KERNEL32.dll
 0002:000312d0       _DecodePointer@4           0044a2d0 f   kernel32:KERNEL32.dll
 0002:000312d6       _RaiseException@16         0044a2d6 f   kernel32:KERNEL32.dll
 0002:000312dc       _LoadLibraryExW@12         0044a2dc f   kernel32:KERNEL32.dll
 0002:000312e2       _MultiByteToWideChar@24    0044a2e2 f   kernel32:KERNEL32.dll
 0002:000312e8       _WideCharToMultiByte@32    0044a2e8 f   kernel32:KERNEL32.dll
 0002:000312ee       _QueryPerformanceCounter@4 0044a2ee f   kernel32:KERNEL32.dll
 0002:000312f4       _GetCurrentProcessId@0     0044a2f4 f   kernel32:KERNEL32.dll
 0002:000312fa       _GetSystemTimeAsFileTime@4 0044a2fa f   kernel32:KERNEL32.dll
 0002:00031300       _HeapAlloc@12              0044a300 f   kernel32:KERNEL32.dll
 0002:00031306       _HeapFree@12               0044a306 f   kernel32:KERNEL32.dll
 0002:0003130c       _GetProcessHeap@0          0044a30c f   kernel32:KERNEL32.dll
 0002:00031312       _VirtualQuery@12           0044a312 f   kernel32:KERNEL32.dll
 0002:00031318       _GetModuleFileNameW@12     0044a318 f   kernel32:KERNEL32.dll
 0002:0003131e       _GetModuleHandleW@4        0044a31e f   kernel32:KERNEL32.dll
 0003:00000000       ___xc_a                    00450000     MSVCRTD:cinitexe.obj
 0003:000003e8       ___xc_z                    004503e8     MSVCRTD:cinitexe.obj
 0003:000004ec       ___xi_a                    004504ec     MSVCRTD:cinitexe.obj
 0003:000008fc       ___xi_z                    004508fc     MSVCRTD:cinitexe.obj
 0003:00000a38       ??_C@_0P@GBMJPFCO@?2config?2system?$AA@ 00450a38     bncs_gcd.obj
 0003:00000a4c       ??_C@_0BD@FFAKGAPP@c?3?2bncs_config?4ini?$AA@ 00450a4c     bncs_gcd.obj
 0003:00000a64       ??_C@_04OKGDLNCL@NONE?$AA@ 00450a64     bncs_gcd.obj
 0003:00000a6c       ??_C@_0L@DHJBNFFA@ConfigPath?$AA@ 00450a6c     bncs_gcd.obj
 0003:00000a7c       ??_C@_06LLCHJONG@Config?$AA@ 00450a7c     bncs_gcd.obj
 0003:00000a84       ??_C@_0N@OHDNKDHM@?2windows?2lib?$AA@ 00450a84     bncs_gcd.obj
 0003:00000a94       ??_C@_0L@LGPNDKFG@SystemPath?$AA@ 00450a94     bncs_gcd.obj
 0003:00000aa4       ??_C@_05FKOLPGGL@?2temp?$AA@ 00450aa4     bncs_gcd.obj
 0003:00000aac       ??_C@_08KFFALJO@TempPath?$AA@ 00450aac     bncs_gcd.obj
 0003:00000ab8       ??_C@_07JBEBLGDD@CC_ROOT?$AA@ 00450ab8     bncs_gcd.obj
 0003:00000ac4       ??_C@_09DDAHAMBK@CC_SYSTEM?$AA@ 00450ac4     bncs_gcd.obj
 0003:00000ad0       ??_C@_05BMGBEOOC@?$CFs?2?$CFs?$AA@ 00450ad0     bncs_gcd.obj
 0003:00000ad8       ??_C@_08GFLALFMN@16?300?328?$AA@ 00450ad8     MRABOUT.obj
 0003:00000ae4       ??_C@_0M@BKMHKHNE@Apr?520?52020?$AA@ 00450ae4     MRABOUT.obj
 0003:00000af4       ??_C@_07FCJAGJJB@?$CFs?5?9?5?$CFs?$AA@ 00450af4     MRABOUT.obj
 0003:00000b00       ??_C@_0BA@GEPECOA@Version?5?$CFs?5?9?5?$CFs?$AA@ 00450b00     MRABOUT.obj
 0003:00000b14       ??_C@_0M@OMKFEGKJ@?2CAPLOG?4INI?$AA@ 00450b14     MRABOUT.obj
 0003:00000b24       ??_C@_0BA@FLGJEBJJ@CAPLOG?4INI?5PATH?$AA@ 00450b24     MRABOUT.obj
 0003:00000b38       ??_C@_0BB@PIHHGBPD@?2BNCS_SYSTEM?4INI?$AA@ 00450b38     MRABOUT.obj
 0003:00000b4c       ??_C@_08NDLKOGOH@?2CSI?4INI?$AA@ 00450b4c     MRABOUT.obj
 0003:00000b58       ??_C@_0BF@OEBJOEJE@DEFAULT?5ADAPTOR?5PATH?$AA@ 00450b58     MRABOUT.obj
 0003:00000b74       ??_C@_0CD@OHEGANI@?$FL?9?9?9?$FN?5GPI?5Drv?5?$CF03d?0?5Min?5?$CFd?0?5Max?5@ 00450b74     Mrcmd.obj
 0003:00000ba0       ??_C@_0BD@LOOBIAIJ@?$FL?$CF03d?$FN?5GR?5?$CFd?5?$CFd?5?$CFd?$AA@ 00450ba0     Mrcmd.obj
 0003:00000bb8       ??_C@_0DB@HGKEBHEA@?$FL?9?9?9?$FN?5Info?5Drv?5?$CF03d?0?5Min?5?$CFd?0?5Max@ 00450bb8     Mrcmd.obj
 0003:00000bf4       ??_C@_0BF@BJHIEDBH@?$FL?$CF03d?$FN?5IR?5?$CFd?5?$CFd?5?8?$CFs?8?$AA@ 00450bf4     Mrcmd.obj
 0003:00000c10       ??_C@_0CJ@CHEEMLDK@?$FL?9?9?9?$FN?5Rtr?5Drv?5?$CFd?0?5Min?5?$CFd?0?5Max?5?$CFd@ 00450c10     Mrcmd.obj
 0003:00000c44       ??_C@_0BD@CKFKBKGF@?$FL?$CF03d?$FN?5RR?5?$CFd?5?$CFd?5?$CFd?$AA@ 00450c44     Mrcmd.obj
 0003:00000c5c       ??_C@_0CD@LLMBINEK@?$CF02d?5?$CF02d?5?$CF04d?5?$CF02d?5?$CF02d?5?$CF02d?5?$CF0@ 00450c5c     Mrcmd.obj
 0003:00000c88       ??_C@_0FI@CAMPGIEM@Not?5setting?5local?5clock?5from?5inc@ 00450c88     Mrcmd.obj
 0003:00000cf8       ??_C@_0EN@BHMBGLFL@?$DM?9?9?9?$DO?5Universal?5Revertive?5?$CIrecov@ 00450cf8     Mrcmd.obj
 0003:00000d58       ??_C@_0EB@PMMNDHE@?$FL?9?9?9?$FN?5Universal?5Revertive?5from?5W@ 00450d58     Mrcmd.obj
 0003:00000da8       ??_C@_0BP@FHECEIGI@?$DM?$CF03d?$DO?5Pkt?5Serial?3?5?$CF08x?5?$FL?$CF03d?$FN?$AA@ 00450da8     Mrcmd.obj
 0003:00000dd0       ??_C@_0BP@MODJMMJG@?$FL?$CF03d?$FN?5Pkt?5Serial?3?5?$CF08x?5?$FL?$CF03d?$FN?$AA@ 00450dd0     Mrcmd.obj
 0003:00000df8       ??_C@_0BK@MBKFHIED@?$DM?$CF03d?$DO?5RR?5?$CFd?5?$CFd?5?$CFd?5?$FL?$CF03d?$FN?$AA@ 00450df8     Mrcmd.obj
 0003:00000e18       ??_C@_0BK@EKFODODN@?$FL?$CF03d?$FN?5RR?5?$CFd?5?$CFd?5?$CFd?5?$FL?$CF03d?$FN?$AA@ 00450e18     Mrcmd.obj
 0003:00000e38       ??_C@_0CA@DGNEHDBJ@Message?5exceeds?5packet?5boundary?$AA@ 00450e38     Mrcmd.obj
 0003:00000e60       ??_C@_0BK@OMGNMOPD@?$DM?$CF03d?$DO?5GR?5?$CFd?5?$CFd?5?$CFd?5?$FL?$CF03d?$FN?$AA@ 00450e60     Mrcmd.obj
 0003:00000e80       ??_C@_0BK@GHJGIIIN@?$FL?$CF03d?$FN?5GR?5?$CFd?5?$CFd?5?$CFd?5?$FL?$CF03d?$FN?$AA@ 00450e80     Mrcmd.obj
 0003:00000ea0       ??_C@_0BM@GNLELGAN@?$DM?$CF03d?$DO?5IR?5?$CFd?5?$CFd?5?8?$CFs?8?5?$FL?$CF03d?$FN?$AA@ 00450ea0     Mrcmd.obj
 0003:00000ec4       ??_C@_0BM@EDLHINCL@?$FL?$CF03d?$FN?5IR?5?$CFd?5?$CFd?5?8?$CFs?8?5?$FL?$CF03d?$FN?$AA@ 00450ec4     Mrcmd.obj
 0003:00000ee8       ??_C@_07DIPEDJAI@?$DM?$CF03d?$DO?5?$AA@ 00450ee8     Mrcmd.obj
 0003:00000ef4       ??_C@_07KIELOFND@?$FL?$CF03d?$FN?5?$AA@ 00450ef4     Mrcmd.obj
 0003:00000f00       ??_C@_0CH@LENNBAPD@Illegal?5message?5in?5universal?5rev@ 00450f00     Mrcmd.obj
 0003:00000f30       ??_C@_0DI@FDBMNKJB@?$FLERR?$FN?5?5?$CK?$CK?$CK?$CK?$CK?$CK?$CK?$CK?5?5?$CK?$CK?$CK?$CK?$CK?$CK?$CK?5?5?5?$CK?$CK?$CK?$CK?$CK@ 00450f30     Mrcmd.obj
 0003:00000f74       ??_C@_0DI@HCBDBHMP@?$FLERR?$FN?5?5?$CK?$CK?$CK?$CK?$CK?$CK?$CK?$CK?5?5?$CK?$CK?$CK?$CK?$CK?$CK?$CK?$CK?5?5?$CK?$CK?$CK?$CK?$CK@ 00450f74     Mrcmd.obj
 0003:00000fb8       ??_C@_0DI@PLBENDCH@?$FLERR?$FN?5?5?$CK?$CK?5?5?5?5?5?5?5?5?$CK?$CK?5?5?5?5?$CK?$CK?5?5?$CK?$CK?5?5?5@ 00450fb8     Mrcmd.obj
 0003:00000ffc       ??_C@_0DI@PMCLIALL@?$FLERR?$FN?5?5?$CK?$CK?$CK?$CK?$CK?$CK?5?5?5?5?$CK?$CK?$CK?$CK?$CK?$CK?$CK?5?5?5?$CK?$CK?$CK?$CK?$CK@ 00450ffc     Mrcmd.obj
 0003:00001040       ??_C@_0DI@GEIGPBEA@?$FLERR?$FN?5?5?$CK?$CK?5WS?5?$CF03d?5HEARTBEAT?5CHEC@ 00451040     Mrcmd.obj
 0003:00001084       ??_C@_0DI@JPNFNACE@?$FLERR?$FN?5?5?$CK?$CK?5?5?5?5?5?5?5?5?$CK?$CK?5?5?5?$CK?$CK?5?5?5?$CK?$CK?5?5?5@ 00451084     Mrcmd.obj
 0003:000010c8       ??_C@_0DI@JFKGFFIF@?$FLERR?$FN?5?5?$CK?$CK?$CK?$CK?$CK?$CK?$CK?5?5?5?$CK?$CK?5?5?5?5?$CK?$CK?5?5?$CK?$CK?5?5?5@ 004510c8     Mrcmd.obj
 0003:0000110c       ??_C@_0DI@CIEKGJA@?$FLERR?$FN?5?5?$CK?$CK?$CK?$CK?$CK?$CK?$CK?5?5?5?$CK?$CK?5?5?5?5?$CK?$CK?5?5?$CK?$CK?5?5?5@ 0045110c     Mrcmd.obj
 0003:00001150       ??_C@_05ECIELPFL@?$CF08x?5?$AA@ 00451150     Mrcmd.obj
 0003:00001157       ??_C@_00CNPNBAHC@?$AA@     00451157     Mrcmd.obj
 0003:00001158       ??_C@_06PJIGMIJB@Client?$AA@ 00451158     Mrcmd.obj
 0003:00001160       ??_C@_06BNFOCFOC@Driver?$AA@ 00451160     Mrcmd.obj
 0003:00001168       ??_C@_0CM@NKBDAHE@?$DMWS?5?$CFd?$DO?5?$CFs?5Heartbeat?5?$CFs?$CI?$CFd?5secs?$CJ@ 00451168     Mrcmd.obj
 0003:0000119c       ??_C@_0CO@INKFIIL@?$DMWS?5?$CFd?$DO?5?$CFs?5Heartbeat?5?$CFs?$CIclosedow@ 0045119c     Mrcmd.obj
 0003:000011d4       ??_C@_06GGPOMPNM@?$CInone?$CJ?$AA@ 004511d4     Mrcmd.obj
 0003:000011dc       ??_C@_02DPKJAMEF@?$CFd?$AA@ 004511dc     Mrcmd.obj
 0003:000011e0       ??_C@_01GAPBHFFA@T?$AA@    004511e0     Mrcmd.obj
 0003:000011e4       ??_C@_01DGKLNCNG@R?$AA@    004511e4     Mrcmd.obj
 0003:000011e8       ??_C@_01GFHCPBMG@C?$AA@    004511e8     Mrcmd.obj
 0003:000011ec       ??_C@_01HMGJMAIH@B?$AA@    004511ec     Mrcmd.obj
 0003:000011f0       ??_C@_01IHBHIGKO@?0?$AA@   004511f0     Mrcmd.obj
 0003:000011f4       ??_C@_05HOPBAMFM@?9?5?9?5?9?$AA@ 004511f4     mrdialog.obj
 0003:000011fc       ??_C@_0L@JJAOIMIJ@Config?5on?4?$AA@ 004511fc     mrdialog.obj
 0003:0000120c       ??_C@_0M@CEMHMILD@Config?5off?4?$AA@ 0045120c     mrdialog.obj
 0003:0000121c       ??_C@_07CCPBCAFG@?1__2B__?$AA@ 0045121c     mrdialog.obj
 0003:00001228       ??_C@_07DOAOMMKG@Enabled?$AA@ 00451228     mrdialog.obj
 0003:00001234       ??_C@_07GFFBFKIG@?1__1B__?$AA@ 00451234     mrdialog.obj
 0003:00001240       ??_C@_08JGILNPHN@Disabled?$AA@ 00451240     mrdialog.obj
 0003:0000124c       ??_C@_0BE@MBLHAGIF@Loading?5settings?4?4?4?$AA@ 0045124c     mrdialog.obj
 0003:00001264       ??_C@_08JNEOMACB@Commands?$AA@ 00451264     mrdialog.obj
 0003:00001270       ??_C@_0M@DJNPJOMC@Device_?$CF03d?$AA@ 00451270     mrdialog.obj
 0003:00001280       ??_C@_02PGHGPEOM@?91?$AA@  00451280     mrdialog.obj
 0003:00001284       ??_C@_0M@DMJAIIEH@Device_?$CF04d?$AA@ 00451284     mrdialog.obj
 0003:00001294       ??_C@_0L@ODOKLGBF@Revertives?$AA@ 00451294     mrdialog.obj
 0003:000012a4       ??_C@_0P@JCOIFKFC@Load?5complete?4?$AA@ 004512a4     mrdialog.obj
 0003:000012b8       ??_C@_0BD@OEMGJNFJ@Saving?5settings?4?4?4?$AA@ 004512b8     mrdialog.obj
 0003:000012d0       ??_C@_0P@BLEILPON@Save?5complete?4?$AA@ 004512d0     mrdialog.obj
 0003:000012e4       ??_C@_0BB@KGCPINME@DEVICE_CONTROL?$CFd?$AA@ 004512e4     MRIACSUP.obj
 0003:000012f8       ??_C@_0P@JIFIOMKO@DEVICE_CONTROL?$AA@ 004512f8     MRIACSUP.obj
 0003:0000130c       ??_C@_0BE@NNJGOAKC@?$DMCL?$DO?9AddName?5failed?$AA@ 0045130c     MRIACSUP.obj
 0003:00001324       ??_C@_0DL@OIMIEBGP@There?5is?5already?5a?5unique?5?8?$CFs?8?5r@ 00451324     MRIACSUP.obj
 0003:0000136c       ??_C@_09MPNAHAN@?$CB?5Error?5?$CB?$AA@ 0045136c     MRIACSUP.obj
 0003:00001378       ??_C@_0BL@OKBPCIDF@NetReceiveDG?$CI?$CJ?5post?5failed?$AA@ 00451378     MRIACSUP.obj
 0003:00001398       ??_C@_0CG@CCFAKGBH@Warning?5?9?5Only?5?$CFd?5buffers?5initia@ 00451398     MRIACSUP.obj
 0003:000013c8       ??_C@_05GBEJKOJK@CSI?$CFd?$AA@ 004513c8     MRIACSUP.obj
 0003:000013d0       ??_C@_03BIFLLDJF@CSI?$AA@  004513d0     MRIACSUP.obj
 0003:000013d4       ??_C@_0P@BAGDBHOH@BNCSRECOVERY?$CFd?$AA@ 004513d4     MRIACSUP.obj
 0003:000013e8       ??_C@_0N@EAGNEHFF@BNCSRECOVERY?$AA@ 004513e8     MRIACSUP.obj
 0003:000013f8       ??_C@_0CK@DPLLEPCO@NetBIOS?5async?5SENDBCDG?5failed?5?9?5@ 004513f8     MRIACSUP.obj
 0003:0000142c       ??_C@_0CN@IJJKKDLJ@Network?5connection?5reset?5ok?5afte@ 0045142c     MRIACSUP.obj
 0003:00001464       ??_C@_0CA@NHMAJFED@Network?5reset?5attempt?5?$CFd?5failed?$AA@ 00451464     MRIACSUP.obj
 0003:0000148c       ??_C@_03MLIHNEFJ@LOG?$AA@  0045148c     Mrmain.obj
 0003:00001490       ??_C@_09DAALEOKC@?1CHANNEL?$DN?$AA@ 00451490     Mrmain.obj
 0003:0000149c       ??_C@_09CDNLPBLN@?1ADAPTOR?$DN?$AA@ 0045149c     Mrmain.obj
 0003:000014a8       ??_C@_05KFAHDGHG@?1MINI?$AA@ 004514a8     Mrmain.obj
 0003:000014b0       ??_C@_08IPDEAKGP@V3CAPLOG?$AA@ 004514b0     Mrmain.obj
 0003:000014bc       ??_C@_0M@NKGLBDNG@?2CAPLOG?4tmp?$AA@ 004514bc     Mrmain.obj
 0003:000014cc       ??_C@_01GBGANLPD@0?$AA@    004514cc     Mrmain.obj
 0003:000014d0       ??_C@_06NFKGOKMH@XCoord?$AA@ 004514d0     Mrmain.obj
 0003:000014d8       ??_C@_0L@CIHJIGNI@Coordinate?$AA@ 004514d8     Mrmain.obj
 0003:000014e8       ??_C@_06HDNBOBHD@YCoord?$AA@ 004514e8     Mrmain.obj
 0003:000014f0       ??_C@_05IBAMDCFI@Width?$AA@ 004514f0     Mrmain.obj
 0003:000014f8       ??_C@_06HCAKHJJK@Height?$AA@ 004514f8     Mrmain.obj
 0003:00001500       ??_C@_0P@KDINELOP@Please?5wait?4?4?4?$AA@ 00451500     Mrmain.obj
 0003:00001514       ??_C@_01EEMJAFIK@?6?$AA@   00451514     Mrmain.obj
 0003:00001518       ??_C@_0BD@PJIPPNBJ@Clipboard?5error?5?$CFx?$AA@ 00451518     Mrmain.obj
 0003:00001530       ??_C@_0DF@IIAANLOI@Clipboard?5copied?5?$CFd?5lines?5from?5?$CF@ 00451530     Mrmain.obj
 0003:00001570       ??_C@_01HIHLOKLC@1?$AA@    00451570     Mrmain.obj
 0003:00001574       ??_C@_0M@LEOHJBHA@AlwaysOnTop?$AA@ 00451574     Mrmain.obj
 0003:00001584       ??_C@_07BGDMAJAE@Network?$AA@ 00451584     Mrmain.obj
 0003:00001590       ??_C@_0N@DBIJEENE@ShowURheader?$AA@ 00451590     Mrmain.obj
 0003:000015a0       ??_C@_0P@FHIMGIED@ShowHeartbeats?$AA@ 004515a0     Mrmain.obj
 0003:000015b4       ??_C@_0P@LPPADODG@ShowNxMessages?$AA@ 004515b4     Mrmain.obj
 0003:000015c8       ??_C@_0BB@JHBMIEAM@ShowPacketSerial?$AA@ 004515c8     Mrmain.obj
 0003:000015dc       ??_C@_0BD@EAKLIFJE@ShowPacketRecovery?$AA@ 004515dc     Mrmain.obj
 0003:000015f4       ??_C@_0BA@KBMPKEFF@MessageRewriter?$AA@ 004515f4     Mrmain.obj
 0003:00001608       ??_C@_06JIODDOFH@System?$AA@ 00451608     Mrmain.obj
 0003:00001610       ??_C@_0BJ@NBFAKDIC@V3CapLog?3?5xChar?5is?5ZERO?$CB?$AA@ 00451610     Mrmain.obj
 0003:00001630       ??_C@_0BO@GGJBLGAG@V3CapLog?3?5numOfChars?5is?5ZERO?$CB?$AA@ 00451630     Mrmain.obj
 0003:00001654       ??_C@_05LJEOGPLP@?$FLERR?$FN?$AA@ 00451654     Mrmain.obj
 0003:0000165c       ??_C@_0L@CBNGBLIF@bwcc32?4dll?$AA@ 0045165c     Mrmain.obj
 0003:0000166c       ??_C@_0M@BMPOINFK@CSI32?5Error?$AA@ 0045166c     Mrmain.obj
 0003:0000167c       ??_C@_0DA@EIOIHAIM@Cannot?5load?5Borland?5controls?5lib@ 0045167c     Mrmain.obj
 0003:000016b8       ??_C@_0N@PDOBLJOO@BWCCRegister?$AA@ 004516b8     Mrmain.obj
 0003:000016c8       ??_C@_0P@MPIGGCGB@?$CFs?2BNCS_CC?4DLL?$AA@ 004516c8     Mrmain.obj
 0003:000016e0       ??_C@_0FD@HJIHHLOH@Unable?5to?5load?5BNCS_CC?4DLL?4?5Plea@ 004516e0     Mrmain.obj
 0003:00001744       ??_C@_0CE@LMDNIMBC@BNCS?5Capture?5Log?5?9?5V?$CFs?5?9?5Channel@ 00451744     Mrmain.obj
 0003:00001770       ??_C@_0BC@LFKGEPNB@CapLog?5started?4?4?4?$AA@ 00451770     Mrmain.obj
 0003:00001788       ??_C@_0L@NHMMOEJM@Channel?5?$CFd?$AA@ 00451788     Mrmain.obj
 0003:00001798       ??_C@_0L@EBEIFHMP@Adaptor?5?$CFd?$AA@ 00451798     Mrmain.obj
 0003:000017a8       ??_C@_0BE@JHCKKMCI@Configuration?5Path?3?$AA@ 004517a8     Mrmain.obj
 0003:000017c0       ??_C@_0L@IOACPMLO@Log?5Closed?$AA@ 004517c0     Mrmain.obj
 0003:000017d0       ??_C@_0BJ@LLDJKDEK@?$CFs?2LOG_?$CF04d?$CF02d?$CF02d?4?$CF02d?$AA@ 004517d0     Mrmain.obj
 0003:000017f0       ??_C@_0CJ@HNDHLFJF@BNCS?5Capture?5Log?5?9?5V?$CFs?5?9?5Channel@ 004517f0     Mrmain.obj
 0003:00001824       ??_C@_01MCMALHOG@a?$AA@    00451824     Mrmain.obj
 0003:00001828       ??_C@_0BI@GHMLEOAB@Unable?5to?5open?5log?5file?$AA@ 00451828     Mrmain.obj
 0003:00001844       ??_C@_0BK@LKLMKADI@Capture?5Log?5opened?4?4?4?8?$CFs?8?$AA@ 00451844     Mrmain.obj
 0003:00001864       ??_C@_0BJ@KKLKLOFP@?$CFs?2PKT_?$CF04d?$CF02d?$CF02d?4?$CF02d?$AA@ 00451864     Mrmain.obj
 0003:00001884       ??_C@_03DOPCBAKB@a?$CLb?$AA@ 00451884     Mrmain.obj
 0003:00001888       ??_C@_0CA@PCAMFKIK@Unable?5to?5open?5packet?5data?5file?$AA@ 00451888     Mrmain.obj
 0003:000018b0       ??_C@_0BP@PDAJNGPF@Packet?5data?5file?5opened?4?4?4?8?$CFs?8?$AA@ 004518b0     Mrmain.obj
 0003:000018d8       ??_C@_0BJ@DMJDNJHJ@?$CF02d?3?$CF02d?3?$CF02d?4?$CF03d?5?9?5?$CFs?$AA@ 004518d8     Mrmain.obj
 0003:000018f8       ??_C@_0BJ@GJNLLPOG@?$CF02d?3?$CF02d?3?$CF02d?9?$CF02d?5?9?5?$CFs?$AA@ 004518f8     Mrmain.obj
 0003:00001918       ??_C@_03OFAPEBGM@?$CFs?6?$AA@ 00451918     Mrmain.obj
 0003:0000191c       ??_C@_0CK@DIBAODDD@V3CapLog?3?5Main_Decode?3?5zero?5leng@ 0045191c     Mrmain.obj
 0003:00001950       ??_C@_0BE@OHMNKBHG@?$FL?9?9?9?$FN?5Config?5Change?$AA@ 00451950     Mrmain.obj
 0003:00001968       ??_C@_0DM@DADNADMM@V3CapLog?3?5Main_Decode?3?5config?5pa@ 00451968     Mrmain.obj
 0003:000019b0       ??_C@_06FPGNCEGC@?$FL001?$FN?5?$AA@ 004519b0     Mrmain.obj
 0003:000019b8       ??_C@_0CJ@KJOMFMLJ@Unrecognised?5data?5in?5revertive?5p@ 004519b8     Mrmain.obj
 0003:000019ec       ??_C@_02LMHINHBC@HB?$AA@   004519ec     Mrmain.obj
 0003:000019f0       ??_C@_01JLIPDDHJ@?3?$AA@   004519f0     Mrmain.obj
 0003:000019f4       ??_C@_0BM@MHAJMOGG@?$FL?$CF03d?$FN?5Pkt?5Serial?5?$CFs?5?$FL?$CF03d?$FN?$AA@ 004519f4     Mrmain.obj
 0003:00001a18       ??_C@_0BA@FPBCEJJJ@?$CFs?2ERRORLOG?4TXT?$AA@ 00451a18     Mrmain.obj
 0003:00001a2c       ??_C@_0CD@EKCPFIJI@?$CF02d?1?$CF02d?1?$CF04d?5?$CF02d?3?$CF02d?3?$CF02d?5?9?5@ 00451a2c     Mrmain.obj
 0003:00001a58       ??_C@_0DB@JGCHCHBG@?9?9?9?9?9?9?9?9?9?9?9?9?9?9?9?9?9?9?5?$CB?5Error?5?$CB?5?9?9?9@ 00451a58     Mrmain.obj
 0003:00001a94       ??_C@_0DB@JJOBDACP@?9?9?9?9?9?9?9?9?9?9?9?9?9?9?9?9?9?9?9?9?9?9?9?9?9?9?9?9?9?9?9?9@ 00451a94     Mrmain.obj
 0003:00001ad0       ??_C@_0BO@CBEIIAEL@Unable?5to?5open?5error?5log?5file?$AA@ 00451ad0     Mrmain.obj
 0003:00001af4       ??_C@_0DL@LNNAPPJP@BNCS?5Capture?5Log?5?9?5V?$CFs?5?9?5Channel@ 00451af4     Mrmain.obj
 0003:00001b40       ??_C@_0EP@CBKMLNLI@BNCS?5Capture?5Log?5?9?5V?$CFs?5?9?5Channel@ 00451b40     Mrmain.obj
 0003:00001ba0       ??_C@_0CA@NHIAOBGN@?$CF02d?9?$CF02d?9?$CF04d?5?9?5?$CF02d?$DL?$CF02d?$DL?$CF02d?$AA@ 00451ba0     Mrmain.obj
 0003:00001bc8       ??_C@_0O@PBBBFPN@IW?5?$CFd?5?8?$CFs?8?5?$CFd?$AA@ 00451bc8     Mrmain.obj
 0003:00001bd8       ??_C@_0BC@IFIJBFEN@ID_?$CF03d?5?5?5?5?5?5?5?5?5?5?$AA@ 00451bd8     Mrmain.obj
 0003:00001bf0       ??_C@_0DK@EJLAICKP@?9?9?9?9?9?9?9?9?9?9?9?9?9?9?9?9?9?9?5Log?5Analysis?5@ 00451bf0     Mrmain.obj
 0003:00001c38       ??_C@_0O@MOJJJBNC@Open?5Log?5File?$AA@ 00451c38     Mrmain.obj
 0003:00001c48       ??_C@_05IIFBDPE@?$CK?4ast?$AA@ 00451c48     Mrmain.obj
 0003:00001c50       ??_C@_01KDCPPGHE@r?$AA@    00451c50     Mrmain.obj
 0003:00001c54       ??_C@_03NLJIHOMM@?5?9?5?$AA@ 00451c54     Mrmain.obj
 0003:00001c58       ??_C@_01OHGJGJJP@?$FL?$AA@ 00451c58     Mrmain.obj
 0003:00001c5c       ??_C@_03KADPLKNE@Net?$AA@  00451c5c     Mrmain.obj
 0003:00001c60       ??_C@_01CLKCMJKC@?5?$AA@   00451c60     Mrmain.obj
 0003:00001c64       ??_C@_0BK@BHLJPFDO@No?5unusual?5entries?5found?$CB?$AA@ 00451c64     Mrmain.obj
 0003:00001c84       ??_C@_0DI@HPINICAH@?9?9?9?9?9?9?9?9?9?9?9?9?9?9?9?9?9?9?5Log?5Analysis?5@ 00451c84     Mrmain.obj
 0003:00001cc8       ??_C@_0CG@HHIGEMBA@?5?5?5?5?9?5Logging?5Packet?5Serial?5Numb@ 00451cc8     Mrmain.obj
 0003:00001cf8       ??_C@_0CK@NPOAJBHK@?5?5?5?5?9?5Not?5logging?5packet?5serial?5@ 00451cf8     Mrmain.obj
 0003:00001d2c       ??_C@_0BN@HFLDCAJK@?5?5?5?5?9?5Logging?5?8UR?8?5headers?5?9?$AA@ 00451d2c     Mrmain.obj
 0003:00001d50       ??_C@_0CB@GLNBONAJ@?5?5?5?5?9?5Not?5logging?5?8UR?8?5headers?5?9@ 00451d50     Mrmain.obj
 0003:00001d78       ??_C@_0CJ@KOMKODHO@?5?5?5?5?9?5Logging?5Packet?5Recovery?5Me@ 00451d78     Mrmain.obj
 0003:00001dac       ??_C@_0CN@GOKGJPEL@?5?5?5?5?9?5Not?5logging?5Packet?5Recover@ 00451dac     Mrmain.obj
 0003:00001de4       ??_C@_0BK@OOGCECJ@caplogMessageRewriter?4dll?$AA@ 00451de4     Mrmain.obj
 0003:00001e04       ??_C@_0BN@FFICHHBL@?$CFs?2caplogMessageRewriter?4dll?$AA@ 00451e04     Mrmain.obj
 0003:00001e28       ??_C@_0BL@GGGBILBC@?5?5?5?5?9?5Rewriting?5messages?5?9?$AA@ 00451e28     Mrmain.obj
 0003:00001e48       ??_C@_0BP@EOKCGKAA@?5?5?5?5?9?5Not?5Rewriting?5Messages?5?9?$AA@ 00451e48     Mrmain.obj
 0003:00001e70       ??_C@_0P@KADMDLLB@MessageRewrite?$AA@ 00451e70     Mrmain.obj
 0003:00001e84       ??_C@_08OEJAECBP@V3CapLog?$AA@ 00451e84     Mrmain.obj
 0003:00001e90       ??_C@_0DF@LMHKFDJF@Found?5message?5rewriter?5DLL?0?5but?5@ 00451e90     Mrmain.obj
 0003:00001ed0       ??_C@_0BD@NHACKJ@MessageRewriteEdit?$AA@ 00451ed0     Mrmain.obj
 0003:00001ee8       ??_C@_0CE@JFDCPPA@?5?5?5?5?9?5Logging?5?8N?8?5series?5message@ 00451ee8     Mrmain.obj
 0003:00001f14       ??_C@_0CI@CJDBEKLK@?5?5?5?5?9?5Not?5logging?5?8N?8?5series?5mes@ 00451f14     Mrmain.obj
 0003:00001f44       ??_C@_0BL@FNMBHOAF@?5?5?5?5?9?5Logging?5Heartbeats?5?9?$AA@ 00451f44     Mrmain.obj
 0003:00001f64       ??_C@_0BP@GEFGDFBI@?5?5?5?5?9?5Not?5logging?5Heartbeats?5?9?$AA@ 00451f64     Mrmain.obj
 0003:00001f8c       ??_C@_0CF@EOCCDLII@?5?5?5?5?9?5Double?5Click?5Screen?5Clear?5@ 00451f8c     Mrmain.obj
 0003:00001fb8       ??_C@_0CG@EFNAKMLF@?5?5?5?5?9?5Double?5Click?5Screen?5Clear?5@ 00451fb8     Mrmain.obj
 0003:00001fe8       ??_C@_04JLMDILM@?4exe?$AA@ 00451fe8     Mrmain.obj
 0003:00001ff0       ??_C@_04PICIEOBI@?4chm?$AA@ 00451ff0     Mrmain.obj
 0003:00001ff8       ??_C@_0FH@OMJCJJAC@Can?8t?5open?5help?5file?3?5?$CIshould?5be@ 00451ff8     Mrmain.obj
 0003:00002060       ??_C@_06GGHJAEBN@static?$AA@ 00452060     Mrmain.obj
 0003:00002068       ??_C@_0CAD@IDIOAKJN@?4?4?1?1?$CK?$CK?2?2?4?4Filtered?4?4?1?1?$CK?$CK?2?2?4?4Filt@ 00452068     Mrmain.obj
 0003:000022d4       ??_C@_0BA@OACALGEH@?$DMCL?$DO?9Unexpected?$AA@ 004522d4     MRNETMSG.obj
 0003:000022e8       ??_C@_0DC@KOMKMALJ@Network?5connection?5failure?4?4?4?5at@ 004522e8     MRNETMSG.obj
 0003:00002324       ??_C@_0BJ@CNLIFAOP@?$DMID?$DO?9NCBSENDBCDG?5failedx?$AA@ 00452324     MRNETMSG.obj
 0003:00002344       ??_C@_0DC@BBILKOFP@?$DM?9?9?9?$DO?5Packet?5recovery?5request?5fr@ 00452344     MRNETMSG.obj
 0003:00002380       ??_C@_0DB@MHJCOKCC@?$DM?$CF03d?$DO?5Workstation?5?$CFd?5please?5res@ 00452380     MRNETMSG.obj
 0003:000023bc       ??_C@_0DI@ENILIHFA@?$DM?9?9?9?$DO?5Packet?5recovery?5request?5ER@ 004523bc     MRNETMSG.obj
 0003:00002400       ??_C@_0DF@MOJPNECM@?$DM?$CF03d?$DO?5Workstation?5?$CFd?5can?8t?5rese@ 00452400     MRNETMSG.obj
 0003:00002440       ??_C@_0DL@LGFCIOCE@?9?9?9?9?9?9?9?9?9?9?9?9?9?9?9?9?9?9?5Packet?5Analys@ 00452440     mrpktdlg.obj
 0003:00002488       ??_C@_0DN@POKPHADK@?9?9?9?9?9?9?9?9?9?9?9?9?9?9?9?9?9?9?5Packet?5Analys@ 00452488     mrpktdlg.obj
 0003:000024d4       ??_C@_0BB@PBKONFKH@Open?5Packet?5File?$AA@ 004524d4     mrpktdlg.obj
 0003:000024e8       ??_C@_04KOJKLCBG@1000?$AA@ 004524e8     mrpktdlg.obj
 0003:000024f0       ??_C@_02JDPG@rb?$AA@       004524f0     mrpktdlg.obj
 0003:000024f4       ??_C@_0CK@HEPOEB@Packet?3?5?$CF04d?5?$CI?$CF04x?$CJ?5?9?5Type?5?$CFd?5?9?5@ 004524f4     mrpktdlg.obj
 0003:00002528       ??_C@_02KNHHEEKP@?5?5?$AA@ 00452528     mrpktdlg.obj
 0003:0000252c       ??_C@_0N@BHJGCDJG@?$CF04x?9?$CF04x?5?3?5?$AA@ 0045252c     mrpktdlg.obj
 0003:0000253c       ??_C@_07MPBCHKDP@?5?5?$CF02x?5?$AA@ 0045253c     mrpktdlg.obj
 0003:00002548       ??_C@_05CNDJFPDP@?$CF02x?5?$AA@ 00452548     mrpktdlg.obj
 0003:00002550       ??_C@_02HAOIJKIC@?$CFc?$AA@ 00452550     mrpktdlg.obj
 0003:00002554       ??_C@_01LFCBOECM@?4?$AA@   00452554     mrpktdlg.obj
 0003:00002558       ??_C@_02KFKPNHPM@?9?5?$AA@ 00452558     mrpktdlg.obj
 0003:0000255c       ??_C@_0BG@NKCABFFP@STOPPED?5due?5to?5header?$AA@ 0045255c     mrpktdlg.obj
 0003:00002578       ??_C@_07HJLKKEON@STOPPED?$AA@ 00452578     mrpktdlg.obj
 0003:00002588       ??_C@_1JA@EKKHPHED@?$AAc?$AA?3?$AA?2?$AAp?$AAr?$AAo?$AAg?$AAr?$AAa?$AAm?$AA?5?$AAf?$AAi?$AAl?$AAe?$AAs?$AA?5?$AA?$CI?$AAx?$AA8?$AA6?$AA?$CJ?$AA?2?$AAm?$AAi?$AAc?$AAr?$AAo?$AAs?$AAo?$AAf?$AAt@ 00452588     MRPROF.obj
 0003:00002634       ??_C@_1DC@POOIKBAO@?$AAI?$AAT?$AAE?$AAR?$AAA?$AAT?$AAO?$AAR?$AA?5?$AAL?$AAI?$AAS?$AAT?$AA?5?$AAC?$AAO?$AAR?$AAR?$AAU?$AAP?$AAT?$AAE?$AAD?$AA?$CB?$AA?$AA@ 00452634     MRPROF.obj
 0003:00002674       ??_7error_category@std@@6B@ 00452674     MRPROF.obj
 0003:00002698       ??_7_Generic_error_category@std@@6B@ 00452698     MRPROF.obj
 0003:000026b8       ??_C@_07DCLBNMLN@generic?$AA@ 004526b8     MRPROF.obj
 0003:000026c4       ??_C@_0O@BFJCFAAK@unknown?5error?$AA@ 004526c4     MRPROF.obj
 0003:000026d8       ??_7_Iostream_error_category@std@@6B@ 004526d8     MRPROF.obj
 0003:000026f8       ??_C@_08LLGCOLLL@iostream?$AA@ 004526f8     MRPROF.obj
 0003:00002704       ??_C@_0BG@PADBLCHM@iostream?5stream?5error?$AA@ 00452704     MRPROF.obj
 0003:00002724       ??_7_System_error_category@std@@6B@ 00452724     MRPROF.obj
 0003:00002744       ??_C@_06FHFOAHML@system?$AA@ 00452744     MRPROF.obj
 0003:0000274c       ??_C@_0P@IOLOJICH@DefaultAdaptor?$AA@ 0045274c     MRPROF.obj
 0003:00002760       ??_C@_07DMJBFPJJ@Channel?$AA@ 00452760     MRPROF.obj
 0003:0000276c       ??_C@_0M@PAEBKLBH@SavePackets?$AA@ 0045276c     MRPROF.obj
 0003:0000277c       ??_C@_0BF@GCFBKKIF@CommandReplayEnabled?$AA@ 0045277c     MRPROF.obj
 0003:00002798       ??_C@_0BH@PLDLINKC@RevertiveReplayEnabled?$AA@ 00452798     MRPROF.obj
 0003:000027b4       ??_C@_0L@KPCMBCOA@InfoDriver?$AA@ 004527b4     MRPROF.obj
 0003:000027c4       ??_C@_08PBPCMDKC@Watchdog?$AA@ 004527c4     MRPROF.obj
 0003:000027d0       ??_C@_08LJPJOFJL@InfoSlot?$AA@ 004527d0     MRPROF.obj
 0003:000027dc       ??_C@_0N@ONLACBJO@?2logs?2caplog?$AA@ 004527dc     MRPROF.obj
 0003:000027ec       ??_C@_0M@HCACLJPN@LogFilePath?$AA@ 004527ec     MRPROF.obj
 0003:000027fc       ??_C@_05EAGKIPDA@Paths?$AA@ 004527fc     MRPROF.obj
 0003:00002804       ??_C@_0M@EEBKEKAD@c?3?2bncslogs?$AA@ 00452804     MRPROF.obj
 0003:00002814       ??_C@_0BD@NKNIBPIK@MillisecondDisplay?$AA@ 00452814     MRPROF.obj
 0003:0000282c       ??_C@_0O@PFFGKHGA@SetSystemTime?$AA@ 0045282c     MRPROF.obj
 0003:0000283c       ??_C@_04OKOFBOPB@Time?$AA@ 0045283c     MRPROF.obj
 0003:00002844       ??_C@_0L@LCCKLLID@caplog?4ini?$AA@ 00452844     MRPROF.obj
 0003:00002858       ??_C@_1IO@JLPDPDPD@?$AAc?$AA?3?$AA?2?$AAp?$AAr?$AAo?$AAg?$AAr?$AAa?$AAm?$AA?5?$AAf?$AAi?$AAl?$AAe?$AAs?$AA?5?$AA?$CI?$AAx?$AA8?$AA6?$AA?$CJ?$AA?2?$AAm?$AAi?$AAc?$AAr?$AAo?$AAs?$AAo?$AAf?$AAt@ 00452858     MRPROF.obj
 0003:00002908       ??_C@_1IK@HBAODOLH@?$AAc?$AA?3?$AA?2?$AAp?$AAr?$AAo?$AAg?$AAr?$AAa?$AAm?$AA?5?$AAf?$AAi?$AAl?$AAe?$AAs?$AA?5?$AA?$CI?$AAx?$AA8?$AA6?$AA?$CJ?$AA?2?$AAm?$AAi?$AAc?$AAr?$AAo?$AAs?$AAo?$AAf?$AAt@ 00452908     MRPROF.obj
 0003:000029b0       ??_C@_1EK@PPDBPCAN@?$AAm?$AAa?$AAp?$AA?1?$AAs?$AAe?$AAt?$AA?5?$AAe?$AAr?$AAa?$AAs?$AAe?$AA?5?$AAi?$AAt?$AAe?$AAr?$AAa?$AAt?$AAo?$AAr?$AA?5?$AAo?$AAu?$AAt?$AAs?$AAi?$AAd?$AAe?$AA?5?$AAr@ 004529b0     MRPROF.obj
 0003:00002a08       ??_C@_1EG@EHJFMBHJ@?$AAm?$AAa?$AAp?$AA?1?$AAs?$AAe?$AAt?$AA?5?$AAi?$AAt?$AAe?$AAr?$AAa?$AAt?$AAo?$AAr?$AA?5?$AAn?$AAo?$AAt?$AA?5?$AAi?$AAn?$AAc?$AAr?$AAe?$AAm?$AAe?$AAn?$AAt?$AAa?$AAb@ 00452a08     MRPROF.obj
 0003:00002a5c       ??_C@_0CE@OFMIGAMM@Standard?5C?$CL?$CL?5Libraries?5Out?5of?5Ra@ 00452a5c     MRPROF.obj
 0003:00002a88       ??_C@_1FG@IBPIFFN@?$AA?$CC?$AAS?$AAt?$AAa?$AAn?$AAd?$AAa?$AAr?$AAd?$AA?5?$AAC?$AA?$CL?$AA?$CL?$AA?5?$AAL?$AAi?$AAb?$AAr?$AAa?$AAr?$AAi?$AAe?$AAs?$AA?5?$AAO?$AAu?$AAt?$AA?5?$AAo?$AAf?$AA?5?$AAR@ 00452a88     MRPROF.obj
 0003:00002af0       ??_C@_15GANGMFKL@?$AA?$CF?$AAs?$AA?$AA@ 00452af0     MRPROF.obj
 0003:00002af8       ??_C@_1CFG@PGGKMBNC@?$AAs?$AAt?$AAd?$AA?3?$AA?3?$AA_?$AAT?$AAr?$AAe?$AAe?$AA_?$AAc?$AAo?$AAn?$AAs?$AAt?$AA_?$AAi?$AAt?$AAe?$AAr?$AAa?$AAt?$AAo?$AAr?$AA?$DM?$AAc?$AAl?$AAa?$AAs?$AAs?$AA?5@ 00452af8     MRPROF.obj
 0003:00002dc8       ??_C@_1BO@MEPPHOO@?$AA?$CC?$AAo?$AAu?$AAt?$AA?5?$AAo?$AAf?$AA?5?$AAr?$AAa?$AAn?$AAg?$AAe?$AA?$CC?$AA?$AA@ 00452dc8     MRPROF.obj
 0003:00002dec       ??_C@_1DO@CFEEPGGJ@?$AAm?$AAa?$AAp?$AA?1?$AAs?$AAe?$AAt?$AA?5?$AAi?$AAt?$AAe?$AAr?$AAa?$AAt?$AAo?$AAr?$AAs?$AA?5?$AAi?$AAn?$AAc?$AAo?$AAm?$AAp?$AAa?$AAt?$AAi?$AAb?$AAl?$AAe?$AA?$AA@ 00452dec     MRPROF.obj
 0003:00002e38       ??_C@_0CI@FNPHFCCM@Standard?5C?$CL?$CL?5Libraries?5Invalid?5A@ 00452e38     MRPROF.obj
 0003:00002e68       ??_C@_1FO@GJIHNDLM@?$AA?$CC?$AAS?$AAt?$AAa?$AAn?$AAd?$AAa?$AAr?$AAd?$AA?5?$AAC?$AA?$CL?$AA?$CL?$AA?5?$AAL?$AAi?$AAb?$AAr?$AAa?$AAr?$AAi?$AAe?$AAs?$AA?5?$AAI?$AAn?$AAv?$AAa?$AAl?$AAi?$AAd?$AA?5@ 00452e68     MRPROF.obj
 0003:00002ed8       ??_C@_1CFG@FGJHCIBH@?$AAs?$AAt?$AAd?$AA?3?$AA?3?$AA_?$AAT?$AAr?$AAe?$AAe?$AA_?$AAc?$AAo?$AAn?$AAs?$AAt?$AA_?$AAi?$AAt?$AAe?$AAr?$AAa?$AAt?$AAo?$AAr?$AA?$DM?$AAc?$AAl?$AAa?$AAs?$AAs?$AA?5@ 00452ed8     MRPROF.obj
 0003:000031a8       ??_C@_1CG@JNLFBNGN@?$AA?$CC?$AAi?$AAn?$AAv?$AAa?$AAl?$AAi?$AAd?$AA?5?$AAa?$AAr?$AAg?$AAu?$AAm?$AAe?$AAn?$AAt?$AA?$CC?$AA?$AA@ 004531a8     MRPROF.obj
 0003:000031d8       ??_C@_0BA@JFNIOLAK@string?5too?5long?$AA@ 004531d8     MRPROF.obj
 0003:000031ec       ??_C@_0BI@CFPLBAOH@invalid?5string?5position?$AA@ 004531ec     MRPROF.obj
 0003:00003208       ??_C@_1EI@FHEHNNNM@?$AAm?$AAa?$AAp?$AA?1?$AAs?$AAe?$AAt?$AA?5?$AAi?$AAt?$AAe?$AAr?$AAa?$AAt?$AAo?$AAr?$AA?5?$AAn?$AAo?$AAt?$AA?5?$AAd?$AAe?$AAr?$AAe?$AAf?$AAe?$AAr?$AAe?$AAn?$AAc?$AAa@ 00453208     MRPROF.obj
 0003:00003260       ??_C@_1CFE@PPLBLEGL@?$AAs?$AAt?$AAd?$AA?3?$AA?3?$AA_?$AAT?$AAr?$AAe?$AAe?$AA_?$AAc?$AAo?$AAn?$AAs?$AAt?$AA_?$AAi?$AAt?$AAe?$AAr?$AAa?$AAt?$AAo?$AAr?$AA?$DM?$AAc?$AAl?$AAa?$AAs?$AAs?$AA?5@ 00453260     MRPROF.obj
 0003:0000352c       ??_C@_1CK@EOPGIILJ@?$AAi?$AAn?$AAv?$AAa?$AAl?$AAi?$AAd?$AA?5?$AAn?$AAu?$AAl?$AAl?$AA?5?$AAp?$AAo?$AAi?$AAn?$AAt?$AAe?$AAr?$AA?$AA@ 0045352c     MRPROF.obj
 0003:00003560       ??_C@_1CE@IGJMOCCK@?$AAi?$AAn?$AAv?$AAa?$AAl?$AAi?$AAd?$AA?5?$AAo?$AAp?$AAe?$AAr?$AAa?$AAt?$AAo?$AAr?$AA?$DM?$AA?$AA@ 00453560     MRPROF.obj
 0003:00003590       ??_C@_1EG@OKCGOALM@?$AAm?$AAa?$AAp?$AA?1?$AAs?$AAe?$AAt?$AA?5?$AAi?$AAt?$AAe?$AAr?$AAa?$AAt?$AAo?$AAr?$AA?5?$AAn?$AAo?$AAt?$AA?5?$AAd?$AAe?$AAc?$AAr?$AAe?$AAm?$AAe?$AAn?$AAt?$AAa?$AAb@ 00453590     MRPROF.obj
 0003:000035e8       ??_C@_1CFG@FFIHNBD@?$AAs?$AAt?$AAd?$AA?3?$AA?3?$AA_?$AAT?$AAr?$AAe?$AAe?$AA_?$AAc?$AAo?$AAn?$AAs?$AAt?$AA_?$AAi?$AAt?$AAe?$AAr?$AAa?$AAt?$AAo?$AAr?$AA?$DM?$AAc?$AAl?$AAa?$AAs?$AAs?$AA?5@ 004535e8     MRPROF.obj
 0003:000038b8       ??_C@_0BE@JONHPENG@map?1set?$DMT?$DO?5too?5long?$AA@ 004538b8     MRPROF.obj
 0003:000038d4       ??_7sizedBuffer@@6B@       004538d4     sizedBuffer.obj
 0003:000038dc       ?npos@?$basic_string@DU?$char_traits@D@std@@V?$allocator@D@2@@std@@2IB 004538dc     ccConfig.obj
 0003:000038e0       ??_C@_04LOAJBDKD@true?$AA@ 004538e0     ccConfig.obj
 0003:000038ec       ??_7ccConfig@@6B@          004538ec     ccConfig.obj
 0003:000038f4       ??_C@_01KICIPPFI@?2?$AA@   004538f4     ccConfig.obj
 0003:000038f8       ??_C@_0BH@OFHILIGP@?$CFs?2system?2dev_?$CF03d?4ini?$AA@ 004538f8     ccConfig.obj
 0003:00003914       ??_C@_0BA@MNCCGPDL@?$CFs?2dev_?$CF03d?4ini?$AA@ 00453914     ccConfig.obj
 0003:00003928       ??_C@_07IOFNEBNE@?2config?$AA@ 00453928     ccConfig.obj
 0003:00003934       ??_C@_06KIMFAMMH@WINDIR?$AA@ 00453934     ccConfig.obj
 0003:0000393c       ??_C@_0P@PKHJHOPF@CC_WORKSTATION?$AA@ 0045393c     ccConfig.obj
 0003:00003950       ??_C@_0M@CILGCIDH@Workstation?$AA@ 00453950     ccConfig.obj
 0003:00003960       ??_C@_0BO@GPPILLIC@config?2system?2bncs_system?4ini?$AA@ 00453960     ccConfig.obj
 0003:00003984       ??_C@_07PIGLAMMC@csi?4ini?$AA@ 00453984     ccConfig.obj
 0003:00003990       ??_C@_0N@LDBPMCOK@applcore?4ini?$AA@ 00453990     ccConfig.obj
 0003:000039a0       ??_C@_08NKCCOMC@?2system?2?$AA@ 004539a0     ccConfig.obj
 0003:000039ac       ??_C@_01LBDDMOBJ@?$FN?$AA@ 004539ac     ccConfig.obj
 0003:000039b0       ??_C@_0N@ENLBDDCH@CC_DEVELOPER?$AA@ 004539b0     ccConfig.obj
 0003:000039c0       ??_C@_02CHHAKFFB@w?$CL?$AA@ 004539c0     ccConfig.obj
 0003:000039c4       ??_C@_04MMEBIPMJ@?4tmp?$AA@ 004539c4     ccConfig.obj
 0003:000039cc       ??_C@_05MGFEFMAH@?$FL?$CFs?$FN?6?$AA@ 004539cc     ccConfig.obj
 0003:000039d4       ??_C@_06BAKFFEGN@?$CFs?$DN?$CFs?6?$AA@ 004539d4     ccConfig.obj
 0003:000039dc       ??_C@_06EOIKHNJE@?6?$FL?$CFs?$FN?6?$AA@ 004539dc     ccConfig.obj
 0003:000039e4       ??_C@_0O@MNGJAKAH@?$CFs?2?$CFs?2logs?2?$CFs?$AA@ 004539e4     ccConfig.obj
 0003:000039f4       ??_C@_0BB@HAIBDJBK@?$CFs?2?$CFs?2logs?2?$CFs?2?$CFs?$AA@ 004539f4     ccConfig.obj
 0003:00003a08       ??_C@_0BC@GKMJDDNM@c?3?2bncslogs?2?$CFs?2?$CFs?$AA@ 00453a08     ccConfig.obj
 0003:00003a20       ??_C@_1DM@KDEKGMPF@?$AAs?$AAt?$AAr?$AAi?$AAn?$AAg?$AA?5?$AAi?$AAt?$AAe?$AAr?$AAa?$AAt?$AAo?$AAr?$AAs?$AA?5?$AAi?$AAn?$AAc?$AAo?$AAm?$AAp?$AAa?$AAt?$AAi?$AAb?$AAl?$AAe?$AA?$AA@ 00453a20     ccConfig.obj
 0003:00003a68       ??_C@_1MA@BDELDFHB@?$AAs?$AAt?$AAd?$AA?3?$AA?3?$AA_?$AAS?$AAt?$AAr?$AAi?$AAn?$AAg?$AA_?$AAc?$AAo?$AAn?$AAs?$AAt?$AA_?$AAi?$AAt?$AAe?$AAr?$AAa?$AAt?$AAo?$AAr?$AA?$DM?$AAc?$AAl?$AAa?$AAs@ 00453a68     ccConfig.obj
 0003:00003b50       ??_C@_0BB@MOGOBHAF@list?$DMT?$DO?5too?5long?$AA@ 00453b50     ccConfig.obj
 0003:00003b68       ??_C@_1EG@CNCHLAOB@?$AAs?$AAt?$AAr?$AAi?$AAn?$AAg?$AA?5?$AAi?$AAt?$AAe?$AAr?$AAa?$AAt?$AAo?$AAr?$AA?5?$AAn?$AAo?$AAt?$AA?5?$AAd?$AAe?$AAr?$AAe?$AAf?$AAe?$AAr?$AAe?$AAn?$AAc?$AAa?$AAb@ 00453b68     ccConfig.obj
 0003:00003bc0       ??_C@_1MG@GDGHDIKC@?$AAs?$AAt?$AAd?$AA?3?$AA?3?$AA_?$AAS?$AAt?$AAr?$AAi?$AAn?$AAg?$AA_?$AAc?$AAo?$AAn?$AAs?$AAt?$AA_?$AAi?$AAt?$AAe?$AAr?$AAa?$AAt?$AAo?$AAr?$AA?$DM?$AAc?$AAl?$AAa?$AAs@ 00453bc0     ccConfig.obj
 0003:00003cb4       ??_7cBncsVersion@@6B@      00453cb4     bncsversioninfodb:cBncsVersion.obj
 0003:00003cbc       ??_C@_0BJ@KPNNKBCP@?2VarFileInfo?2Translation?$AA@ 00453cbc     bncsversioninfodb:cBncsVersion.obj
 0003:00003cdc       ??_C@_08EAKGLGNO@?$CF04X?$CF04X?$AA@ 00453cdc     bncsversioninfodb:cBncsVersion.obj
 0003:00003ce8       ??_C@_0BP@OKGDDKKJ@?2StringFileInfo?2?$CFs?2FileVersion?$AA@ 00453ce8     bncsversioninfodb:cBncsVersion.obj
 0003:00003d10       ??_C@_0CD@DNOFBAPJ@?2StringFileInfo?2?$CFs?2FileDescripti@ 00453d10     bncsversioninfodb:cBncsVersion.obj
 0003:00003d3c       ??_C@_0BM@HLKDAPDC@?2StringFileInfo?2?$CFs?2Comments?$AA@ 00453d3c     bncsversioninfodb:cBncsVersion.obj
 0003:00003d60       ??_C@_0CA@EHAODNDK@?2StringFileInfo?2?$CFs?2InternalName?$AA@ 00453d60     bncsversioninfodb:cBncsVersion.obj
 0003:00003d88       ??_C@_0BP@MGNIHEJF@?2StringFileInfo?2?$CFs?2ProductName?$AA@ 00453d88     bncsversioninfodb:cBncsVersion.obj
 0003:00003db0       ??_C@_0BP@IFNEMNK@?2StringFileInfo?2?$CFs?2CompanyName?$AA@ 00453db0     bncsversioninfodb:cBncsVersion.obj
 0003:00003dd8       ??_C@_0CC@BENIJKPI@?2StringFileInfo?2?$CFs?2LegalCopyrigh@ 00453dd8     bncsversioninfodb:cBncsVersion.obj
 0003:00003e00       ??_C@_0CC@IAGJDCJF@?2StringFileInfo?2?$CFs?2ProductVersio@ 00453e00     bncsversioninfodb:cBncsVersion.obj
 0003:00003e28       ??_C@_0CD@CHCCGCCP@?2StringFileInfo?2?$CFs?2LegalTradeMar@ 00453e28     bncsversioninfodb:cBncsVersion.obj
 0003:00003e54       ??_C@_0CA@GODGGLFO@?2StringFileInfo?2?$CFs?2PrivateBuild?$AA@ 00453e54     bncsversioninfodb:cBncsVersion.obj
 0003:00003e7c       ??_C@_0CE@NLHFPOLE@?2StringFileInfo?2?$CFs?2OriginalFileN@ 00453e7c     bncsversioninfodb:cBncsVersion.obj
 0003:00003ea8       ??_C@_0CA@OOEBJJOA@?2StringFileInfo?2?$CFs?2SpecialBuild?$AA@ 00453ea8     bncsversioninfodb:cBncsVersion.obj
 0003:00003ed0       ??_C@_0BH@FHJHEMPC@BBCNB32M?5thread?5id?3?5?$CFx?$AA@ 00453ed0     bbcnb32db_static:BBCNB32.obj
 0003:00003eec       ??_C@_0BN@LJJMEMDJ@Unknown?5NetBIOS?5command?5code?$AA@ 00453eec     bbcnb32db_static:BBCNB32.obj
 0003:00003f10       ??_C@_0BK@BDLIAFGF@?$CFs?5?9?5NetBIOS?50x?$CF02x?5?9?5?$CFs?6?$AA@ 00453f10     bbcnb32db_static:BBCNB32.obj
 0003:00003f30       ??_C@_0BN@FJJFEPNG@Unlisted?5NetBIOS?5return?5code?$AA@ 00453f30     bbcnb32db_static:BBCNB32.obj
 0003:00003f54       ??_C@_0BG@JPPAHMJF@?$CFs?5?9?5NRC?50x?$CF02x?5?9?5?$CFs?6?$AA@ 00453f54     bbcnb32db_static:BBCNB32.obj
 0003:00003f70       ??_C@_07OGCKFOHE@bbcnb32?$AA@ 00453f70     bbcnb32db_static:BBCNB32.obj
 0003:00003f7c       ??_C@_0DJ@OGGCNIBH@Ptr?5to?5NCB?$DN0x?$CF08lx?0?5Ptr?5to?5buffe@ 00453f7c     bbcnb32db_static:BBCNB32.obj
 0003:00003fc0       ??_C@_0CI@EEFGCAMN@Strlen?$DN?$CFd?0?5Str?$DN?$FL?$CFs?$FN?$DN?$CF02x?0?$CF02x?0?$CF0@ 00453fc0     bbcnb32db_static:BBCNB32.obj
 0003:00003ff0       ??_C@_0BE@LIKEBNPF@ERROR?5?9?5Bad?5pointer?$AA@ 00453ff0     bbcnb32db_static:BBCNB32.obj
 0003:00004008       ??_C@_0BK@ELCEPGD@?$DMCS?$DO?9MSG?9NCBDGRECV?5failed?$AA@ 00454008     bbcnb32db_static:BBCNB32.obj
 0003:00004028       ??_C@_09MEFDJLKK@?$DMNet?$DO?9?$CFs?6?$AA@ 00454028     bbcnb32db_static:BBCNB32.obj
 0003:00004034       ??_C@_0P@HPLBBLHJ@bbcnb32m_queue?$AA@ 00454034     bbcnb32db_static:BBCNB32.obj
 0003:00004048       ??_C@_1IK@DNCJHBGE@?$AAc?$AA?3?$AA?2?$AAp?$AAr?$AAo?$AAg?$AAr?$AAa?$AAm?$AA?5?$AAf?$AAi?$AAl?$AAe?$AAs?$AA?5?$AA?$CI?$AAx?$AA8?$AA6?$AA?$CJ?$AA?2?$AAm?$AAi?$AAc?$AAr?$AAo?$AAs?$AAo?$AAf?$AAt@ 00454048     bbcnb32db_static:BBCNB32.obj
 0003:000040f0       ??_C@_1CO@FNIDKHMC@?$AAd?$AAe?$AAq?$AAu?$AAe?$AA?5?$AAe?$AAm?$AAp?$AAt?$AAy?$AA?5?$AAb?$AAe?$AAf?$AAo?$AAr?$AAe?$AA?5?$AAp?$AAo?$AAp?$AA?$AA@ 004540f0     bbcnb32db_static:BBCNB32.obj
 0003:00004128       ??_C@_0BC@KBDMBKEH@deque?$DMT?$DO?5too?5long?$AA@ 00454128     bbcnb32db_static:BBCNB32.obj
 0003:00004140       ??_C@_1EE@INPCGGNP@?$AAd?$AAe?$AAq?$AAu?$AAe?$AA?5?$AAi?$AAt?$AAe?$AAr?$AAa?$AAt?$AAo?$AAr?$AA?5?$AAn?$AAo?$AAt?$AA?5?$AAd?$AAe?$AAr?$AAe?$AAf?$AAe?$AAr?$AAe?$AAn?$AAc?$AAa?$AAb?$AAl@ 00454140     bbcnb32db_static:BBCNB32.obj
 0003:00004198       ??_C@_1OI@NJMIJIMJ@?$AAs?$AAt?$AAd?$AA?3?$AA?3?$AA_?$AAD?$AAe?$AAq?$AAu?$AAe?$AA_?$AAc?$AAo?$AAn?$AAs?$AAt?$AA_?$AAi?$AAt?$AAe?$AAr?$AAa?$AAt?$AAo?$AAr?$AA?$DM?$AAc?$AAl?$AAa?$AAs?$AAs@ 00454198     bbcnb32db_static:BBCNB32.obj
 0003:000042b0       ??_C@_1IO@HFHPAKCC@?$AAc?$AA?3?$AA?2?$AAp?$AAr?$AAo?$AAg?$AAr?$AAa?$AAm?$AA?5?$AAf?$AAi?$AAl?$AAe?$AAs?$AA?5?$AA?$CI?$AAx?$AA8?$AA6?$AA?$CJ?$AA?2?$AAm?$AAi?$AAc?$AAr?$AAo?$AAs?$AAo?$AAf?$AAt@ 004542b0     bbcnb32db_static:BBCNB32.obj
 0003:0000435c       ??_C@_1CO@DGLIKNHI@?$AAi?$AAn?$AAv?$AAa?$AAl?$AAi?$AAd?$AA?5?$AAi?$AAt?$AAe?$AAr?$AAa?$AAt?$AAo?$AAr?$AA?5?$AAr?$AAa?$AAn?$AAg?$AAe?$AA?$AA@ 0045435c     bbcnb32db_static:BBCNB32.obj
 0003:00004394       ??_C@_0DP@MDDHKDMD@?9?9?9?9?9?9?9?9?9?9?9?9?9?9?9?9?9?9?9?9?9?9?9?9?9?9?9?9?9?9?9?9@ 00454394     bbcnb32db_static:NCBSUFU.obj
 0003:000043e0       ??_C@_0CJ@BFEOEHPO@Session?5Information?5for?5?8?$CFs?8?5on?5@ 004543e0     bbcnb32db_static:NCBSUFU.obj
 0003:00004414       ??_C@_0BL@LJFJGFND@?$CFd?5Sessions?5Table?5Entries?6?$AA@ 00454414     bbcnb32db_static:NCBSUFU.obj
 0003:00004434       ??_C@_0DI@BDLDPDBP@?$CFd?5Receive?5Datagrams?5?$CG?5Broadcast@ 00454434     bbcnb32db_static:NCBSUFU.obj
 0003:00004478       ??_C@_0CI@DJKALEIG@?$CFd?5?8Recieve?5Any?8?5Datagrams?5outst@ 00454478     bbcnb32db_static:NCBSUFU.obj
 0003:000044a8       ??_C@_0DO@PLNJFCHI@Idx?7LSN?7State?7?7Local?5Name?7?7Remot@ 004544a8     bbcnb32db_static:NCBSUFU.obj
 0003:000044f4       ??_C@_06GIJDJODO@?$CFd?7?$CFd?7?$AA@ 004544f4     bbcnb32db_static:NCBSUFU.obj
 0003:000044fc       ??_C@_0BA@GAOIMEAH@LISTEN?5pending?5?$AA@ 004544fc     bbcnb32db_static:NCBSUFU.obj
 0003:00004510       ??_C@_0BA@DAGNKLMO@CALL?5pending?5?5?5?$AA@ 00454510     bbcnb32db_static:NCBSUFU.obj
 0003:00004524       ??_C@_0BA@GALBDDCK@Active?5?5?5?5?5?5?5?5?5?$AA@ 00454524     bbcnb32db_static:NCBSUFU.obj
 0003:00004538       ??_C@_0BA@FDENMABF@HANGUP?5pending?5?$AA@ 00454538     bbcnb32db_static:NCBSUFU.obj
 0003:0000454c       ??_C@_0BA@HCOAFGGB@HANGUP?5complete?$AA@ 0045454c     bbcnb32db_static:NCBSUFU.obj
 0003:00004560       ??_C@_0BA@PIFMFEON@Session?5aborted?$AA@ 00454560     bbcnb32db_static:NCBSUFU.obj
 0003:00004574       ??_C@_0BA@KNMKABMF@Unknown?5state?5?5?$AA@ 00454574     bbcnb32db_static:NCBSUFU.obj
 0003:00004588       ??_C@_0O@FIOCCNMM@?7?$CFs?7?$CFs?7?$CFd?7?$CFd?6?$AA@ 00454588     bbcnb32db_static:NCBSUFU.obj
 0003:00004598       ??_C@_0CN@DJKJALOP@?9?9?9?5No?5session?5table?5entries?5to?5@ 00454598     bbcnb32db_static:NCBSUFU.obj
 0003:000045d0       ??_C@_0EF@JGCLPNJL@bbcnb32?3?5NetSendDG?5?9?5request?5to?5@ 004545d0     bbcnb32db_static:NCBCALLS.obj
 0003:00004628       ??_7bncs_disklog@@6B@      00454628     bbcnb32db_static:bncs_disklog.obj
 0003:00004630       ??_C@_0L@ILPMAFPO@?$CFs?2?$CFs?2logs?$AA@ 00454630     bbcnb32db_static:bncs_disklog.obj
 0003:00004640       ??_C@_0BG@DPKAAFIM@localtime?5has?5failed?6?$AA@ 00454640     bbcnb32db_static:bncs_disklog.obj
 0003:0000465c       ??_C@_0N@GLHMENIG@?$CFs?2?$CFs?2?$CFs?4log?$AA@ 0045465c     bbcnb32db_static:bncs_disklog.obj
 0003:0000466c       ??_C@_0BH@EBDFGIGN@?$CFs?2?$CFs?2?$CF04d?$CF02d?$CF02d?4log?$AA@ 0045466c     bbcnb32db_static:bncs_disklog.obj
 0003:00004688       ??_C@_0BM@MFEMPJOF@?$CFs?2?$CFs?2?$CF04d?$CF02d?$CF02d?9?$CF02d?4log?$AA@ 00454688     bbcnb32db_static:bncs_disklog.obj
 0003:000046ac       ??_C@_0CE@NIPIAOPO@bncs_disklog?3?5Can?8t?5open?5log?5fil@ 004546ac     bbcnb32db_static:bncs_disklog.obj
 0003:000046d8       ??_C@_0CE@NLINMDII@?$CF02d?1?$CF02d?1?$CF04d?5?$CF02d?3?$CF02d?3?$CF02d?4?$CF0@ 004546d8     bbcnb32db_static:bncs_disklog.obj
 0003:00004704       ??_C@_02KEGNLNML@?0?5?$AA@ 00454704     bbcnb32db_static:bncs_disklog.obj
 0003:00004708       ??_C@_02PCIJFNDE@?$AN?6?$AA@ 00454708     bbcnb32db_static:bncs_disklog.obj
 0003:0000476c       ??_C@_00A@?$AA@            0045476c     htmlhelp:init.obj
 0003:00004780       ??_C@_1MC@KPMPFEII@?$AA?$CI?$AA_?$AA_?$AAo?$AAn?$AAe?$AAx?$AAi?$AAt?$AAb?$AAe?$AAg?$AAi?$AAn?$AA?5?$AA?$CB?$AA?$DN?$AA?5?$AAN?$AAU?$AAL?$AAL?$AA?5?$AA?$CG?$AA?$CG?$AA?5?$AA_?$AA_?$AAo?$AAn?$AAe?$AAx@ 00454780     MSVCRTD:atonexit.obj
 0003:00004868       ??_C@_1FK@IGIDCAPD@?$AAf?$AA?3?$AA?2?$AAd?$AAd?$AA?2?$AAv?$AAc?$AAt?$AAo?$AAo?$AAl?$AAs?$AA?2?$AAc?$AAr?$AAt?$AA?2?$AAc?$AAr?$AAt?$AAw?$AA3?$AA2?$AA?2?$AAd?$AAl?$AAl?$AAs?$AAt?$AAu?$AAf@ 00454868     MSVCRTD:atonexit.obj
 0003:000048d4       ??_C@_0CN@LMJJPMEG@f?3?2dd?2vctools?2crt?2crtw32?2dllstuf@ 004548d4     MSVCRTD:atonexit.obj
 0003:0000490a       ?value@?$integral_constant@_N$0A@@std@@2_NB 0045490a     MSVCRTD:ti_inst.obj
 0003:0000490b       ?value@?$integral_constant@_N$00@std@@2_NB 0045490b     MSVCRTD:ti_inst.obj
 0003:00004910       ??_7type_info@@6B@         00454910     MSVCRTD:ti_inst.obj
 0003:00004918       ??_C@_1FA@DALEHHGL@?$AA_?$AA_?$AAn?$AAa?$AAt?$AAi?$AAv?$AAe?$AA_?$AAs?$AAt?$AAa?$AAr?$AAt?$AAu?$AAp?$AA_?$AAs?$AAt?$AAa?$AAt?$AAe?$AA?5?$AA?$DN?$AA?$DN?$AA?5?$AA_?$AA_?$AAi?$AAn?$AAi?$AAt@ 00454918     MSVCRTD:crtexew.obj
 0003:00004978       ??_C@_1FG@DKNDLLJO@?$AAf?$AA?3?$AA?2?$AAd?$AAd?$AA?2?$AAv?$AAc?$AAt?$AAo?$AAo?$AAl?$AAs?$AA?2?$AAc?$AAr?$AAt?$AA?2?$AAc?$AAr?$AAt?$AAw?$AA3?$AA2?$AA?2?$AAd?$AAl?$AAl?$AAs?$AAt?$AAu?$AAf@ 00454978     MSVCRTD:crtexew.obj
 0003:00004aa0       ??_C@_0NN@NGPKDKPD@The?5value?5of?5ESP?5was?5not?5properl@ 00454aa0     MSVCRTD:error.obj
 0003:00004bb0       ??_C@_0BBN@GPMLNJCF@A?5cast?5to?5a?5smaller?5data?5type?5ha@ 00454bb0     MSVCRTD:error.obj
 0003:00004d08       ??_C@_0BN@FFOINMNJ@Stack?5memory?5was?5corrupted?6?$AN?$AA@ 00454d08     MSVCRTD:error.obj
 0003:00004d2c       ??_C@_0DG@HKJMLLLP@A?5local?5variable?5was?5used?5before@ 00454d2c     MSVCRTD:error.obj
 0003:00004d6c       ??_C@_0CM@NGINOKPC@Stack?5memory?5around?5_alloca?5was?5@ 00454d6c     MSVCRTD:error.obj
 0003:00004da0       ??_C@_0BO@GNIAFIKK@Unknown?5Runtime?5Check?5Error?6?$AN?$AA@ 00454da0     MSVCRTD:error.obj
 0003:00004dc8       ??_C@_1GM@OLMCBDMB@?$AAR?$AAu?$AAn?$AAt?$AAi?$AAm?$AAe?$AA?5?$AAC?$AAh?$AAe?$AAc?$AAk?$AA?5?$AAE?$AAr?$AAr?$AAo?$AAr?$AA?4?$AA?6?$AA?$AN?$AA?5?$AAU?$AAn?$AAa?$AAb?$AAl?$AAe?$AA?5?$AAt?$AAo@ 00454dc8     MSVCRTD:error.obj
 0003:00004e50       ??_C@_1EA@NFKNIFJP@?$AAR?$AAu?$AAn?$AA?9?$AAT?$AAi?$AAm?$AAe?$AA?5?$AAC?$AAh?$AAe?$AAc?$AAk?$AA?5?$AAF?$AAa?$AAi?$AAl?$AAu?$AAr?$AAe?$AA?5?$AA?$CD?$AA?$CF?$AAd?$AA?5?$AA?9?$AA?5?$AA?$CF?$AAs?$AA?$AA@ 00454e50     MSVCRTD:error.obj
 0003:00004e9c       ??_C@_0BB@PFFGGCJP@Unknown?5Filename?$AA@ 00454e9c     MSVCRTD:error.obj
 0003:00004eb0       ??_C@_0BE@GNBOBNCK@Unknown?5Module?5Name?$AA@ 00454eb0     MSVCRTD:error.obj
 0003:00004ec8       ??_C@_0CA@IODNCDPG@Run?9Time?5Check?5Failure?5?$CD?$CFd?5?9?5?$CFs?$AA@ 00454ec8     MSVCRTD:error.obj
 0003:00004ef0       ??_C@_0CG@IAFNJNEE@Stack?5corrupted?5near?5unknown?5var@ 00454ef0     MSVCRTD:error.obj
 0003:00004f20       ??_C@_05MKKEDADM@?$CF?42X?5?$AA@ 00454f20     MSVCRTD:error.obj
 0003:00004f28       ??_C@_1BG@OILDLIOJ@?$AAu?$AAs?$AAe?$AAr?$AA3?$AA2?$AA?4?$AAd?$AAl?$AAl?$AA?$AA@ 00454f28     MSVCRTD:error.obj
 0003:00004f44       ??_C@_09FOPFMPEJ@wsprintfA?$AA@ 00454f44     MSVCRTD:error.obj
 0003:00004f50       ??_C@_0EJ@LJKNEOLN@Stack?5area?5around?5_alloca?5memory@ 00454f50     MSVCRTD:error.obj
 0003:00004fa8       ??_C@_08OMAHNMHJ@?6Data?3?5?$DM?$AA@ 00454fa8     MSVCRTD:error.obj
 0003:00004fb4       ??_C@_0CK@DKGBICFE@?6Allocation?5number?5within?5this?5f@ 00454fb4     MSVCRTD:error.obj
 0003:00004fe8       ??_C@_07DFDJCKFN@?6Size?3?5?$AA@ 00454fe8     MSVCRTD:error.obj
 0003:00004ff4       ??_C@_0N@MHFFIMFG@?6Address?3?50x?$AA@ 00454ff4     MSVCRTD:error.obj
 0003:00005008       ??_C@_0EI@CLEPFNGI@Stack?5area?5around?5_alloca?5memory@ 00455008     MSVCRTD:error.obj
 0003:00005060       ??_C@_0BC@KIBAILCI@?$CFs?$CFs?$CFp?$CFs?$CFld?$CFs?$CFd?$CFs?$AA@ 00455060     MSVCRTD:error.obj
 0003:00005078       ??_C@_02LLMPMKNF@?$DO?5?$AA@ 00455078     MSVCRTD:error.obj
 0003:0000507c       ??_C@_08KJEDNCKC@?$CFs?$CFs?$CFs?$CFs?$AA@ 0045507c     MSVCRTD:error.obj
 0003:00005088       ??_C@_0DE@OHJBPMBP@A?5variable?5is?5being?5used?5without@ 00455088     MSVCRTD:error.obj
 0003:000050e0       ??_C@_0BJ@HEGAHDFO@Stack?5pointer?5corruption?$AA@ 004550e0     MSVCRTD:userapi.obj
 0003:00005100       ??_C@_0CK@FEGOIOPB@Cast?5to?5smaller?5type?5causing?5los@ 00455100     MSVCRTD:userapi.obj
 0003:00005134       ??_C@_0BI@CIGMDCBH@Stack?5memory?5corruption?$AA@ 00455134     MSVCRTD:userapi.obj
 0003:00005150       ??_C@_0CK@CNLNOEPB@Local?5variable?5used?5before?5initi@ 00455150     MSVCRTD:userapi.obj
 0003:00005184       ??_C@_0BP@OGBCLIBO@Stack?5around?5_alloca?5corrupted?$AA@ 00455184     MSVCRTD:userapi.obj
 0003:000051ac       ?ProcessDetach@NativeDll@<CrtImplementationDetails>@@0IB 004551ac     MSVCRTD:unhandld.obj
 0003:000051b0       ?ProcessAttach@NativeDll@<CrtImplementationDetails>@@0IB 004551b0     MSVCRTD:unhandld.obj
 0003:000051b4       ?ThreadAttach@NativeDll@<CrtImplementationDetails>@@0IB 004551b4     MSVCRTD:unhandld.obj
 0003:000051b8       ?ThreadDetach@NativeDll@<CrtImplementationDetails>@@0IB 004551b8     MSVCRTD:unhandld.obj
 0003:000051bc       ?ProcessVerifier@NativeDll@<CrtImplementationDetails>@@0IB 004551bc     MSVCRTD:unhandld.obj
 0003:000051c0       ??_C@_1FI@JJOJLGLE@?$AAf?$AA?3?$AA?2?$AAd?$AAd?$AA?2?$AAv?$AAc?$AAt?$AAo?$AAo?$AAl?$AAs?$AA?2?$AAc?$AAr?$AAt?$AA?2?$AAc?$AAr?$AAt?$AAw?$AA3?$AA2?$AA?2?$AAs?$AAt?$AAa?$AAr?$AAt?$AAu?$AAp@ 004551c0     MSVCRTD:fp8.obj
 0003:0000522c       ??_C@_1CK@JMKHCBEI@?$AA_?$AAs?$AAe?$AAt?$AAd?$AAe?$AAf?$AAa?$AAu?$AAl?$AAt?$AAp?$AAr?$AAe?$AAc?$AAi?$AAs?$AAi?$AAo?$AAn?$AA?$AA@ 0045522c     MSVCRTD:fp8.obj
 0003:00005260       ??_C@_1GE@KOCFNGPB@?$AA_?$AAc?$AAo?$AAn?$AAt?$AAr?$AAo?$AAl?$AAf?$AAp?$AA_?$AAs?$AA?$CI?$AA?$CI?$AA?$CI?$AAv?$AAo?$AAi?$AAd?$AA?5?$AA?$CK?$AA?$CJ?$AA0?$AA?$CJ?$AA?0?$AA?5?$AA0?$AAx?$AA0?$AA0?$AA0?$AA1@ 00455260     MSVCRTD:fp8.obj
 0003:00005324       ?LocalIdBitWidth@CrossScopeId@CodeViewInfo@@2IB 00455324     MSVCRTD:pdblkup.obj
 0003:00005328       ?IdScopeBitWidth@CrossScopeId@CodeViewInfo@@2IB 00455328     MSVCRTD:pdblkup.obj
 0003:0000532c       ?StartCrossScopeId@CrossScopeId@CodeViewInfo@@2IB 0045532c     MSVCRTD:pdblkup.obj
 0003:00005330       ?LocalIdMask@CrossScopeId@CodeViewInfo@@2IB 00455330     MSVCRTD:pdblkup.obj
 0003:00005334       ?ScopeIdMask@CrossScopeId@CodeViewInfo@@2IB 00455334     MSVCRTD:pdblkup.obj
 0003:00005338       ?MaxLocalId@CrossScopeId@CodeViewInfo@@2IB 00455338     MSVCRTD:pdblkup.obj
 0003:0000533c       ?MaxScopeId@CrossScopeId@CodeViewInfo@@2IB 0045533c     MSVCRTD:pdblkup.obj
 0003:00005340       ??_C@_1BK@GAEMIDIL@?$AAA?$AAD?$AAV?$AAA?$AAP?$AAI?$AA3?$AA2?$AA?4?$AAD?$AAL?$AAL?$AA?$AA@ 00455340     MSVCRTD:pdblkup.obj
 0003:00005360       ??_C@_0O@COHOBMLB@RegOpenKeyExW?$AA@ 00455360     MSVCRTD:pdblkup.obj
 0003:00005370       ??_C@_0BB@GLNAEDBD@RegQueryValueExW?$AA@ 00455370     MSVCRTD:pdblkup.obj
 0003:00005384       ??_C@_0M@HLOHPNFA@RegCloseKey?$AA@ 00455384     MSVCRTD:pdblkup.obj
 0003:00005398       ??_C@_1FM@EGIBBNPP@?$AAS?$AAO?$AAF?$AAT?$AAW?$AAA?$AAR?$AAE?$AA?2?$AAM?$AAi?$AAc?$AAr?$AAo?$AAs?$AAo?$AAf?$AAt?$AA?2?$AAV?$AAi?$AAs?$AAu?$AAa?$AAl?$AAS?$AAt?$AAu?$AAd?$AAi?$AAo?$AA?2@ 00455398     MSVCRTD:pdblkup.obj
 0003:00005408       ??_C@_1BG@EABPBLLF@?$AAP?$AAr?$AAo?$AAd?$AAu?$AAc?$AAt?$AAD?$AAi?$AAr?$AA?$AA@ 00455408     MSVCRTD:pdblkup.obj
 0003:00005448       ??_C@_1BC@EOIMGOME@?$AAM?$AAS?$AAP?$AAD?$AAB?$AA1?$AA2?$AA0?$AA?$AA@ 00455448     MSVCRTD:pdblkup.obj
 0003:00005460       ??_C@_0BB@KCIACLNC@PDBOpenValidate5?$AA@ 00455460     MSVCRTD:pdblkup.obj
 0003:00005478       __load_config_used         00455478     MSVCRTD:loadcfg.obj
 0003:00005888       ??_R4error_category@std@@6B@ 00455888     MRPROF.obj
 0003:000058a0       ??_R3error_category@std@@8 004558a0     MRPROF.obj
 0003:000058b4       ??_R2error_category@std@@8 004558b4     MRPROF.obj
 0003:000058bc       ??_R1A@?0A@EA@error_category@std@@8 004558bc     MRPROF.obj
 0003:000058e0       ??_R4_Generic_error_category@std@@6B@ 004558e0     MRPROF.obj
 0003:000058f8       ??_R3_Generic_error_category@std@@8 004558f8     MRPROF.obj
 0003:0000590c       ??_R2_Generic_error_category@std@@8 0045590c     MRPROF.obj
 0003:00005918       ??_R1A@?0A@EA@_Generic_error_category@std@@8 00455918     MRPROF.obj
 0003:0000593c       ??_R4_Iostream_error_category@std@@6B@ 0045593c     MRPROF.obj
 0003:00005954       ??_R3_Iostream_error_category@std@@8 00455954     MRPROF.obj
 0003:00005968       ??_R2_Iostream_error_category@std@@8 00455968     MRPROF.obj
 0003:00005978       ??_R1A@?0A@EA@_Iostream_error_category@std@@8 00455978     MRPROF.obj
 0003:0000599c       ??_R4_System_error_category@std@@6B@ 0045599c     MRPROF.obj
 0003:000059b4       ??_R3_System_error_category@std@@8 004559b4     MRPROF.obj
 0003:000059c8       ??_R2_System_error_category@std@@8 004559c8     MRPROF.obj
 0003:000059d8       ??_R1A@?0A@EA@_System_error_category@std@@8 004559d8     MRPROF.obj
 0003:000059fc       ??_R4sizedBuffer@@6B@      004559fc     sizedBuffer.obj
 0003:00005a14       ??_R3sizedBuffer@@8        00455a14     sizedBuffer.obj
 0003:00005a28       ??_R2sizedBuffer@@8        00455a28     sizedBuffer.obj
 0003:00005a30       ??_R1A@?0A@EA@sizedBuffer@@8 00455a30     sizedBuffer.obj
 0003:00005a54       ??_R4ccConfig@@6B@         00455a54     ccConfig.obj
 0003:00005a6c       ??_R3ccConfig@@8           00455a6c     ccConfig.obj
 0003:00005a80       ??_R2ccConfig@@8           00455a80     ccConfig.obj
 0003:00005a88       ??_R1A@?0A@EA@ccConfig@@8  00455a88     ccConfig.obj
 0003:00005aac       ??_R4cBncsVersion@@6B@     00455aac     bncsversioninfodb:cBncsVersion.obj
 0003:00005ac4       ??_R3cBncsVersion@@8       00455ac4     bncsversioninfodb:cBncsVersion.obj
 0003:00005ad8       ??_R2cBncsVersion@@8       00455ad8     bncsversioninfodb:cBncsVersion.obj
 0003:00005ae0       ??_R1A@?0A@EA@cBncsVersion@@8 00455ae0     bncsversioninfodb:cBncsVersion.obj
 0003:00005b04       ??_R4bncs_disklog@@6B@     00455b04     bbcnb32db_static:bncs_disklog.obj
 0003:00005b1c       ??_R3bncs_disklog@@8       00455b1c     bbcnb32db_static:bncs_disklog.obj
 0003:00005b30       ??_R2bncs_disklog@@8       00455b30     bbcnb32db_static:bncs_disklog.obj
 0003:00005b38       ??_R1A@?0A@EA@bncs_disklog@@8 00455b38     bbcnb32db_static:bncs_disklog.obj
 0003:00005b5c       ??_R4type_info@@6B@        00455b5c     MSVCRTD:ti_inst.obj
 0003:00005b74       ??_R3type_info@@8          00455b74     MSVCRTD:ti_inst.obj
 0003:00005b88       ??_R2type_info@@8          00455b88     MSVCRTD:ti_inst.obj
 0003:00005b90       ??_R1A@?0A@EA@type_info@@8 00455b90     MSVCRTD:ti_inst.obj
 0003:00005cc4       ___rtc_iaa                 00455cc4     MSVCRTD:initsect.obj
 0003:00005f20       ___rtc_izz                 00455f20     MSVCRTD:initsect.obj
 0003:00006024       ___rtc_taa                 00456024     MSVCRTD:initsect.obj
 0003:00006280       ___rtc_tzz                 00456280     MSVCRTD:initsect.obj
 0004:00000018       ?iChannelOverride@@3HA     00458018     Mrmain.obj
 0004:0000001c       ?iAdaptorOverride@@3HA     0045801c     Mrmain.obj
 0004:00000148       ___security_cookie         00458148     MSVCRTD:gs_cookie.obj
 0004:0000014c       ___security_cookie_complement 0045814c     MSVCRTD:gs_cookie.obj
 0004:00000150       ?_RTC_ErrorLevels@@3PAHA   00458150     MSVCRTD:error.obj
 0004:00000168       ___defaultmatherr          00458168     MSVCRTD:merr.obj
 0004:0000016c       ___globallocalestatus      0045816c     MSVCRTD:xthdloc.obj
 0004:00000170       ___native_dllmain_reason   00458170     MSVCRTD:natstart.obj
 0004:0000027c       ??_R0?AVerror_category@std@@@8 0045827c     MRPROF.obj
 0004:000002a4       ??_R0?AV_Generic_error_category@std@@@8 004582a4     MRPROF.obj
 0004:000002d8       ??_R0?AV_Iostream_error_category@std@@@8 004582d8     MRPROF.obj
 0004:0000030c       ??_R0?AV_System_error_category@std@@@8 0045830c     MRPROF.obj
 0004:00000340       ??_R0?AVsizedBuffer@@@8    00458340     sizedBuffer.obj
 0004:00000360       ??_R0?AVccConfig@@@8       00458360     ccConfig.obj
 0004:0000037c       ??_R0?AVcBncsVersion@@@8   0045837c     bncsversioninfodb:cBncsVersion.obj
 0004:0000039c       ??_R0?AVbncs_disklog@@@8   0045839c     bbcnb32db_static:bncs_disklog.obj
 0004:000003bc       ??_R0?AVtype_info@@@8      004583bc     MSVCRTD:ti_inst.obj
 0004:000004e4       ?iMySelectedLine@@3HA      004584e4     mrdialog.obj
 0004:000004e8       ?hWndDlg@@3PAUHWND__@@A    004584e8     mrdialog.obj
 0004:000004f8       ?iCurrentColor@@3GA        004584f8     Mrmain.obj
 0004:000004fa       ?bMinimised@@3_NA          004584fa     Mrmain.obj
 0004:000004fb       ?bNum@@3EA                 004584fb     Mrmain.obj
 0004:000004fc       ?xChar@@3HA                004584fc     Mrmain.obj
 0004:00000500       ?yChar@@3HA                00458500     Mrmain.obj
 0004:00000504       ?yCharnl@@3HA              00458504     Mrmain.obj
 0004:00000508       ?xCharForPath@@3HA         00458508     Mrmain.obj
 0004:0000050c       ?yCharForPath@@3HA         0045850c     Mrmain.obj
 0004:00000510       ?xClient@@3HA              00458510     Mrmain.obj
 0004:00000514       ?yClient@@3HA              00458514     Mrmain.obj
 0004:00000518       ?captionhit@@3HA           00458518     Mrmain.obj
 0004:0000051c       ?cursfont@@3UtagLOGFONTA@@A 0045851c     Mrmain.obj
 0004:00000558       ?holdsfont@@3PAXA          00458558     Mrmain.obj
 0004:0000055c       ?hnewsfont@@3PAXA          0045855c     Mrmain.obj
 0004:00000560       ?wrect@@3UtagRECT@@A       00458560     Mrmain.obj
 0004:00000570       ?nVscrollMax@@3HA          00458570     Mrmain.obj
 0004:00000574       ?nVscrollPos@@3HA          00458574     Mrmain.obj
 0004:00000578       ?numlines@@3HA             00458578     Mrmain.obj
 0004:0000057c       ?maxwidth@@3HA             0045857c     Mrmain.obj
 0004:00000580       ?nHscrollInc@@3HA          00458580     Mrmain.obj
 0004:00000584       ?nPaintBeg@@3HA            00458584     Mrmain.obj
 0004:00000588       ?nPaintEnd@@3HA            00458588     Mrmain.obj
 0004:0000058c       ?nPageMaxLines@@3HA        0045858c     Mrmain.obj
 0004:00000590       ?plines@@3HA               00458590     Mrmain.obj
 0004:00000594       ?rect@@3UtagRECT@@A        00458594     Mrmain.obj
 0004:000005a4       ?hwm_keep@@3HA             004585a4     Mrmain.obj
 0004:000005a8       ?hkeep@@3PAPAXA            004585a8     Mrmain.obj
 0004:0000154c       ?hInst@@3PAUHINSTANCE__@@A 0045954c     Mrmain.obj
 0004:00001550       ?acDebug@@3PADA            00459550     Mrmain.obj
 0004:0000164f       ?bNum2@@3EA                0045964f     Mrmain.obj
 0004:00001650       ?hInstBWCCDLL@@3PAUHINSTANCE__@@A 00459650     Mrmain.obj
 0004:00001654       ?hWndMain@@3PAUHWND__@@A   00459654     Mrmain.obj
 0004:00001658       ?hMenu@@3PAUHMENU__@@A     00459658     Mrmain.obj
 0004:0000165c       ?hInstBBCDLL@@3PAUHINSTANCE__@@A 0045965c     Mrmain.obj
 0004:00001660       ?iCommand@@3PAHA           00459660     Mrmain.obj
 0004:0000565c       ?iCurrentDate@@3HA         0045d65c     Mrmain.obj
 0004:00005660       ?iRevertive@@3PAHA         0045d660     Mrmain.obj
 0004:0000965c       ?iCurrentHour@@3HA         0046165c     Mrmain.obj
 0004:00009660       ?acNetName@@3PADA          00461660     Mrmain.obj
 0004:00009681       ?bPktRec@@3EA              00461681     Mrmain.obj
 0004:00009682       ?fSetSystemTime@@3_NA      00461682     Mrmain.obj
 0004:00009684       ?acNetName2@@3PADA         00461684     Mrmain.obj
 0004:000096a8       ?iNBBuffers@@3HA           004616a8     Mrmain.obj
 0004:000096ac       ?acPktRec@@3PADA           004616ac     Mrmain.obj
 0004:000096d0       ?pncbMSG@@3PAPAU_NCB@@A    004616d0     Mrmain.obj
 0004:000097d0       ?pncbPktRec@@3PAPAU_NCB@@A 004617d0     Mrmain.obj
 0004:000098d0       ?bNwReset@@3HA             004618d0     Mrmain.obj
 0004:000098d4       ?iScreen@@3HA              004618d4     Mrmain.obj
 0004:000098d8       ?iCloseCount@@3HA          004618d8     Mrmain.obj
 0004:000098dc       ?iLogFlag@@3HA             004618dc     Mrmain.obj
 0004:000098e0       ?iWatchdogId@@3HA          004618e0     Mrmain.obj
 0004:000098e4       ?iWatchdogSlot@@3HA        004618e4     Mrmain.obj
 0004:000098e8       ?iNetworkAdaptor@@3HA      004618e8     Mrmain.obj
 0004:000098ec       ?iNetworkChannel@@3HA      004618ec     Mrmain.obj
 0004:000098f0       ?fAlwaysOnTop@@3HA         004618f0     Mrmain.obj
 0004:000098f4       ?iShowURheader@@3HA        004618f4     Mrmain.obj
 0004:000098f8       ?iShowNxMessages@@3HA      004618f8     Mrmain.obj
 0004:000098fc       ?iShowPacketSerial@@3HA    004618fc     Mrmain.obj
 0004:00009900       ?iShowHeartbeats@@3HA      00461900     Mrmain.obj
 0004:00009904       ?iShowPacketRecovery@@3HA  00461904     Mrmain.obj
 0004:00009908       ?iShowMessageRewriterExternal@@3HA 00461908     Mrmain.obj
 0004:0000990c       ?iConfigEnabled@@3HA       0046190c     Mrmain.obj
 0004:00009910       ?iSavePackets@@3HA         00461910     Mrmain.obj
 0004:00009914       ?iCommandReplayEnabled@@3HA 00461914     Mrmain.obj
 0004:00009918       ?iRevertiveReplayEnabled@@3HA 00461918     Mrmain.obj
 0004:0000991c       ?iConfigInit@@3HA          0046191c     Mrmain.obj
 0004:00009920       ?iPacketInit@@3HA          00461920     Mrmain.obj
 0004:00009924       ?iPacketCount@@3HA         00461924     Mrmain.obj
 0004:00009928       ?iReplayStartPacket@@3HA   00461928     Mrmain.obj
 0004:0000992c       ?iReplayCount@@3HA         0046192c     Mrmain.obj
 0004:00009930       ?iGetPacket@@3HA           00461930     Mrmain.obj
 0004:00009934       ?iReplayRate@@3HA          00461934     Mrmain.obj
 0004:00009938       ?iReplayCmds@@3HA          00461938     Mrmain.obj
 0004:0000993c       ?iReplayRevs@@3HA          0046193c     Mrmain.obj
 0004:00009940       ?iReplayRunning@@3HA       00461940     Mrmain.obj
 0004:00009944       ?iLogFileErrorPosted@@3HA  00461944     Mrmain.obj
 0004:00009948       ?iResetingNetwork@@3HA     00461948     Mrmain.obj
 0004:0000994c       ?iNetResets@@3HA           0046194c     Mrmain.obj
 0004:00009950       ?f1@@3PAU_iobuf@@A         00461950     Mrmain.obj
 0004:00009954       ?f2@@3PAU_iobuf@@A         00461954     Mrmain.obj
 0004:00009958       ?f3@@3PAU_iobuf@@A         00461958     Mrmain.obj
 0004:0000995c       ?f4@@3PAU_iobuf@@A         0046195c     Mrmain.obj
 0004:00009960       ?acVar@@3PAY0CAB@DA        00461960     Mrmain.obj
 0004:0000ad6c       ?aiVar@@3PAHA              00462d6c     Mrmain.obj
 0004:0000ad94       ?avVar@@3PADA              00462d94     Mrmain.obj
 0004:0000ada0       ?acLogPath@@3PADA          00462da0     Mrmain.obj
 0004:0000aea4       ?iDoubleClickClear@@3HA    00462ea4     Mrmain.obj
 0004:0000aea8       ?acIDPath@@3PADA           00462ea8     Mrmain.obj
 0004:0000afac       ?hLibPacketRecovery@@3PAUHINSTANCE__@@A 00462fac     Mrmain.obj
 0004:0000afb0       ?fnMessageRewriter@@3P6AHPBDPAPAD@ZA 00462fb0     Mrmain.obj
 0004:0000afb4       ?hLibMessageRewriterExternal@@3PAUHINSTANCE__@@A 00462fb4     Mrmain.obj
 0004:0000afb8       ?iMillisecondDisplay@@3HA  00462fb8     Mrmain.obj
 0004:0000afbc       ?bDebugMode@@3HA           00462fbc     Mrmain.obj
 0004:0000afc0       ?hWndFiltered@@3PAUHWND__@@A 00462fc0     Mrmain.obj
 0004:0000afc4       ?hbrBkgnd@@3PAXA           00462fc4     Mrmain.obj
 0004:0000afc8       ?gszVersion@@3PADA         00462fc8     Mrmain.obj
 0004:0000b048       ?gszCopyright@@3PADA       00463048     Mrmain.obj
 0004:0000d950       ?InitialFileLoaded@@3HA    00465950     mrpktdlg.obj
 0004:0000d954       ?iSelectedLine@@3HA        00465954     mrpktdlg.obj
 0004:0000d958       ?hWndDlg2@@3PAUHWND__@@A   00465958     mrpktdlg.obj
 0004:0000d960       ?acCurrentFile@@3PADA      00465960     mrpktdlg.obj
 0004:0000dd0c       ?_Generic_object@?$_Error_objects@H@std@@2V_Generic_error_category@2@A 00465d0c     MRPROF.obj
 0004:0000dd10       ?_Iostream_object@?$_Error_objects@H@std@@2V_Iostream_error_category@2@A 00465d10     MRPROF.obj
 0004:0000dd14       ?_System_object@?$_Error_objects@H@std@@2V_System_error_category@2@A 00465d14     MRPROF.obj
 0004:0000dd18       ?id@?$num_put@DV?$back_insert_iterator@V?$basic_string@DU?$char_traits@D@std@@V?$allocator@D@2@@std@@@std@@@std@@2V0locale@2@A 00465d18     MRPROF.obj
 0004:0000dd1c       ?id@?$num_put@_WV?$back_insert_iterator@V?$basic_string@_WU?$char_traits@_W@std@@V?$allocator@_W@2@@std@@@std@@@std@@2V0locale@2@A 00465d1c     MRPROF.obj
 0004:0000dd28       ?hMutex@@3PAXA             00465d28     bbcnb32db_static:BBCNB32.obj
 0004:0000dd2c       ?hInstDLL@@3PAUHINSTANCE__@@A 00465d2c     bbcnb32db_static:BBCNB32.obj
 0004:0000dd30       ?bDebugModeDLL@@3HA        00465d30     bbcnb32db_static:BBCNB32.obj
 0004:0000dd38       ?acNetDebug@@3PADA         00465d38     bbcnb32db_static:BBCNB32.obj
 0004:0000ddb8       ?dgMsgQueue@@3V?$queue@VsizedBuffer@@V?$deque@VsizedBuffer@@V?$allocator@VsizedBuffer@@@std@@@std@@@std@@A 00465db8     bbcnb32db_static:BBCNB32.obj
 0004:0000df4c       ?pHtmlHelpW@@3P6GPAUHWND__@@PAU1@PBGIK@ZA 00465f4c     htmlhelp:init.obj
 0004:0000df50       ?pHtmlHelpA@@3P6GPAUHWND__@@PAU1@PBDIK@ZA 00465f50     htmlhelp:init.obj
 0004:0000e348       ?wsprintffp@@3P6AHPADPBDZZA 00466348     MSVCRTD:error.obj
 0004:0000e358       __commode                  00466358     MSVCRTD:xncommod.obj
 0004:0000e35c       __dowildcard               0046635c     MSVCRTD:wildcard.obj
 0004:0000e360       __newmode                  00466360     MSVCRTD:_newmode.obj
 0004:0000e364       __fmode                    00466364     MSVCRTD:xtxtmode.obj
 0004:0000e370       ___native_startup_lock     00466370     <common>
 0004:0000e380       ___native_startup_state    00466380     <common>
 0004:0000e384       ___dyn_tls_init_callback   00466384     <common>
 0004:0000e394       ___onexitend               00466394     <common>
 0004:0000e3a4       ___onexitbegin             004663a4     <common>
 0005:00000000       __imp__RegQueryValueExA@24 00467000     advapi32:ADVAPI32.dll
 0005:00000004       __imp__RegCloseKey@4       00467004     advapi32:ADVAPI32.dll
 0005:00000008       __imp__RegOpenKeyExA@20    00467008     advapi32:ADVAPI32.dll
 0005:0000000c       \177ADVAPI32_NULL_THUNK_DATA 0046700c     advapi32:ADVAPI32.dll
 0005:00000038       __imp__GetOpenFileNameA@4  00467038     comdlg32:COMDLG32.dll
 0005:0000003c       \177COMDLG32_NULL_THUNK_DATA 0046703c     comdlg32:COMDLG32.dll
 0005:00000068       __imp__SelectObject@8      00467068     gdi32:GDI32.dll
 0005:0000006c       __imp__SetBkColor@8        0046706c     gdi32:GDI32.dll
 0005:00000070       __imp__DeleteDC@4          00467070     gdi32:GDI32.dll
 0005:00000074       __imp__GetTextMetricsA@8   00467074     gdi32:GDI32.dll
 0005:00000078       __imp__TextOutA@20         00467078     gdi32:GDI32.dll
 0005:0000007c       __imp__CreateFontIndirectA@4 0046707c     gdi32:GDI32.dll
 0005:00000080       __imp__DeleteObject@4      00467080     gdi32:GDI32.dll
 0005:00000084       __imp__CreateSolidBrush@4  00467084     gdi32:GDI32.dll
 0005:00000088       __imp__CreateCompatibleDC@4 00467088     gdi32:GDI32.dll
 0005:0000008c       __imp__CreateCompatibleBitmap@12 0046708c     gdi32:GDI32.dll
 0005:00000090       __imp__SetTextColor@8      00467090     gdi32:GDI32.dll
 0005:00000094       __imp__BitBlt@36           00467094     gdi32:GDI32.dll
 0005:00000098       \177GDI32_NULL_THUNK_DATA  00467098     gdi32:GDI32.dll
 0005:000000cc       __imp__lstrcpyA@8          004670cc     kernel32:KERNEL32.dll
 0005:000000d0       __imp__LoadLibraryA@4      004670d0     kernel32:KERNEL32.dll
 0005:000000d4       __imp__GetModuleFileNameA@12 004670d4     kernel32:KERNEL32.dll
 0005:000000d8       __imp__OutputDebugStringA@4 004670d8     kernel32:KERNEL32.dll
 0005:000000dc       __imp__IsBadReadPtr@8      004670dc     kernel32:KERNEL32.dll
 0005:000000e0       __imp__GetPrivateProfileIntA@16 004670e0     kernel32:KERNEL32.dll
 0005:000000e4       __imp__lstrcpynA@12        004670e4     kernel32:KERNEL32.dll
 0005:000000e8       __imp__GetCurrentThread@0  004670e8     kernel32:KERNEL32.dll
 0005:000000ec       __imp__GetCurrentThreadId@0 004670ec     kernel32:KERNEL32.dll
 0005:000000f0       __imp__SetThreadPriority@8 004670f0     kernel32:KERNEL32.dll
 0005:000000f4       __imp__ReleaseMutex@4      004670f4     kernel32:KERNEL32.dll
 0005:000000f8       __imp__WaitForSingleObject@8 004670f8     kernel32:KERNEL32.dll
 0005:000000fc       __imp__CloseHandle@4       004670fc     kernel32:KERNEL32.dll
 0005:00000100       __imp__CreateMutexA@12     00467100     kernel32:KERNEL32.dll
 0005:00000104       __imp__WriteFile@20        00467104     kernel32:KERNEL32.dll
 0005:00000108       __imp__GetLastError@0      00467108     kernel32:KERNEL32.dll
 0005:0000010c       __imp__SetFilePointer@16   0046710c     kernel32:KERNEL32.dll
 0005:00000110       __imp__GetSystemTime@4     00467110     kernel32:KERNEL32.dll
 0005:00000114       __imp__CreateFileA@28      00467114     kernel32:KERNEL32.dll
 0005:00000118       __imp__GetCurrentProcessId@0 00467118     kernel32:KERNEL32.dll
 0005:0000011c       __imp__QueryPerformanceCounter@4 0046711c     kernel32:KERNEL32.dll
 0005:00000120       __imp__WideCharToMultiByte@32 00467120     kernel32:KERNEL32.dll
 0005:00000124       __imp__MultiByteToWideChar@24 00467124     kernel32:KERNEL32.dll
 0005:00000128       __imp__LoadLibraryExW@12   00467128     kernel32:KERNEL32.dll
 0005:0000012c       __imp__RaiseException@16   0046712c     kernel32:KERNEL32.dll
 0005:00000130       __imp__DecodePointer@4     00467130     kernel32:KERNEL32.dll
 0005:00000134       __imp__EncodePointer@4     00467134     kernel32:KERNEL32.dll
 0005:00000138       __imp__IsProcessorFeaturePresent@4 00467138     kernel32:KERNEL32.dll
 0005:0000013c       __imp__IsDebuggerPresent@0 0046713c     kernel32:KERNEL32.dll
 0005:00000140       __imp__GlobalFree@4        00467140     kernel32:KERNEL32.dll
 0005:00000144       __imp__GlobalUnlock@4      00467144     kernel32:KERNEL32.dll
 0005:00000148       __imp__GlobalLock@4        00467148     kernel32:KERNEL32.dll
 0005:0000014c       __imp__GlobalAlloc@8       0046714c     kernel32:KERNEL32.dll
 0005:00000150       __imp__GetModuleHandleW@4  00467150     kernel32:KERNEL32.dll
 0005:00000154       __imp__GetProcAddress@8    00467154     kernel32:KERNEL32.dll
 0005:00000158       __imp__FreeLibrary@4       00467158     kernel32:KERNEL32.dll
 0005:0000015c       __imp__SetLocalTime@4      0046715c     kernel32:KERNEL32.dll
 0005:00000160       __imp__GetLocalTime@4      00467160     kernel32:KERNEL32.dll
 0005:00000164       __imp__GetWindowsDirectoryA@8 00467164     kernel32:KERNEL32.dll
 0005:00000168       __imp__WritePrivateProfileStringA@16 00467168     kernel32:KERNEL32.dll
 0005:0000016c       __imp__GetPrivateProfileStringA@24 0046716c     kernel32:KERNEL32.dll
 0005:00000170       __imp__GetSystemTimeAsFileTime@4 00467170     kernel32:KERNEL32.dll
 0005:00000174       __imp__HeapAlloc@12        00467174     kernel32:KERNEL32.dll
 0005:00000178       __imp__HeapFree@12         00467178     kernel32:KERNEL32.dll
 0005:0000017c       __imp__GetProcessHeap@0    0046717c     kernel32:KERNEL32.dll
 0005:00000180       __imp__VirtualQuery@12     00467180     kernel32:KERNEL32.dll
 0005:00000184       __imp__GetModuleFileNameW@12 00467184     kernel32:KERNEL32.dll
 0005:00000188       __imp__SetEndOfFile@4      00467188     kernel32:KERNEL32.dll
 0005:0000018c       \177KERNEL32_NULL_THUNK_DATA 0046718c     kernel32:KERNEL32.dll
 0005:000001dc       __imp_?_Xout_of_range@std@@YAXPBD@Z 004671dc     msvcprtd:MSVCP120D.dll
 0005:000001e0       __imp_?_Winerror_map@std@@YAPBDH@Z 004671e0     msvcprtd:MSVCP120D.dll
 0005:000001e4       __imp_?_Syserror_map@std@@YAPBDH@Z 004671e4     msvcprtd:MSVCP120D.dll
 0005:000001e8       __imp_??0id@locale@std@@QAE@I@Z 004671e8     msvcprtd:MSVCP120D.dll
 0005:000001ec       __imp_?_Xlength_error@std@@YAXPBD@Z 004671ec     msvcprtd:MSVCP120D.dll
 0005:000001f0       __imp_?_Xbad_alloc@std@@YAXXZ 004671f0     msvcprtd:MSVCP120D.dll
 0005:000001f4       __imp_?_Orphan_all@_Container_base12@std@@QAEXXZ 004671f4     msvcprtd:MSVCP120D.dll
 0005:000001f8       __imp_?_Getpfirst@_Container_base12@std@@QBEPAPAU_Iterator_base12@2@XZ 004671f8     msvcprtd:MSVCP120D.dll
 0005:000001fc       __imp_??1_Container_base12@std@@QAE@XZ 004671fc     msvcprtd:MSVCP120D.dll
 0005:00000200       __imp_??0_Container_base12@std@@QAE@XZ 00467200     msvcprtd:MSVCP120D.dll
 0005:00000204       __imp_?_Debug_message@std@@YAXPB_W0I@Z 00467204     msvcprtd:MSVCP120D.dll
 0005:00000208       __imp_??1_Lockit@std@@QAE@XZ 00467208     msvcprtd:MSVCP120D.dll
 0005:0000020c       __imp_??0_Lockit@std@@QAE@H@Z 0046720c     msvcprtd:MSVCP120D.dll
 0005:00000210       \177MSVCP120D_NULL_THUNK_DATA 00467210     msvcprtd:MSVCP120D.dll
 0005:00000244       __imp__exit                00467244     MSVCRTD:MSVCR120D.dll
 0005:00000248       __imp___CrtSetCheckCount   00467248     MSVCRTD:MSVCR120D.dll
 0005:0000024c       __imp____set_app_type      0046724c     MSVCRTD:MSVCR120D.dll
 0005:00000250       __imp____getmainargs       00467250     MSVCRTD:MSVCR120D.dll
 0005:00000254       __imp___exit               00467254     MSVCRTD:MSVCR120D.dll
 0005:00000258       __imp___invoke_watson      00467258     MSVCRTD:MSVCR120D.dll
 0005:0000025c       __imp___controlfp_s        0046725c     MSVCRTD:MSVCR120D.dll
 0005:00000260       __imp__wcscpy_s            00467260     MSVCRTD:MSVCR120D.dll
 0005:00000264       __imp___wmakepath_s        00467264     MSVCRTD:MSVCR120D.dll
 0005:00000268       __imp___wsplitpath_s       00467268     MSVCRTD:MSVCR120D.dll
 0005:0000026c       __imp___cexit              0046726c     MSVCRTD:MSVCR120D.dll
 0005:00000270       __imp___ismbblead          00467270     MSVCRTD:MSVCR120D.dll
 0005:00000274       __imp___configthreadlocale 00467274     MSVCRTD:MSVCR120D.dll
 0005:00000278       __imp____setusermatherr    00467278     MSVCRTD:MSVCR120D.dll
 0005:0000027c       __imp___initterm_e         0046727c     MSVCRTD:MSVCR120D.dll
 0005:00000280       __imp___initterm           00467280     MSVCRTD:MSVCR120D.dll
 0005:00000284       __imp___acmdln             00467284     MSVCRTD:MSVCR120D.dll
 0005:00000288       __imp___fmode              00467288     MSVCRTD:MSVCR120D.dll
 0005:0000028c       __imp___commode            0046728c     MSVCRTD:MSVCR120D.dll
 0005:00000290       __imp___except_handler4_common 00467290     MSVCRTD:MSVCR120D.dll
 0005:00000294       __imp_?terminate@@YAXXZ    00467294     MSVCRTD:MSVCR120D.dll
 0005:00000298       __imp___amsg_exit          00467298     MSVCRTD:MSVCR120D.dll
 0005:0000029c       __imp____crtSetUnhandledExceptionFilter 0046729c     MSVCRTD:MSVCR120D.dll
 0005:000002a0       __imp__strcat              004672a0     MSVCRTD:MSVCR120D.dll
 0005:000002a4       __imp__strcmp              004672a4     MSVCRTD:MSVCR120D.dll
 0005:000002a8       __imp__strlen              004672a8     MSVCRTD:MSVCR120D.dll
 0005:000002ac       __imp__strncpy             004672ac     MSVCRTD:MSVCR120D.dll
 0005:000002b0       __imp__getenv              004672b0     MSVCRTD:MSVCR120D.dll
 0005:000002b4       __imp__sprintf             004672b4     MSVCRTD:MSVCR120D.dll
 0005:000002b8       __imp___hypot              004672b8     MSVCRTD:MSVCR120D.dll
 0005:000002bc       __imp__memset              004672bc     MSVCRTD:MSVCR120D.dll
 0005:000002c0       __imp__memcpy              004672c0     MSVCRTD:MSVCR120D.dll
 0005:000002c4       __imp__strcpy              004672c4     MSVCRTD:MSVCR120D.dll
 0005:000002c8       __imp__atoi                004672c8     MSVCRTD:MSVCR120D.dll
 0005:000002cc       __imp__sscanf              004672cc     MSVCRTD:MSVCR120D.dll
 0005:000002d0       __imp__strchr              004672d0     MSVCRTD:MSVCR120D.dll
 0005:000002d4       __imp___strlwr             004672d4     MSVCRTD:MSVCR120D.dll
 0005:000002d8       __imp__strncmp             004672d8     MSVCRTD:MSVCR120D.dll
 0005:000002dc       __imp__strstr              004672dc     MSVCRTD:MSVCR120D.dll
 0005:000002e0       __imp__strtok              004672e0     MSVCRTD:MSVCR120D.dll
 0005:000002e4       __imp___strupr             004672e4     MSVCRTD:MSVCR120D.dll
 0005:000002e8       __imp__abs                 004672e8     MSVCRTD:MSVCR120D.dll
 0005:000002ec       __imp__atol                004672ec     MSVCRTD:MSVCR120D.dll
 0005:000002f0       __imp__fclose              004672f0     MSVCRTD:MSVCR120D.dll
 0005:000002f4       __imp__feof                004672f4     MSVCRTD:MSVCR120D.dll
 0005:000002f8       __imp__fgets               004672f8     MSVCRTD:MSVCR120D.dll
 0005:000002fc       __imp__fopen               004672fc     MSVCRTD:MSVCR120D.dll
 0005:00000300       __imp__fprintf             00467300     MSVCRTD:MSVCR120D.dll
 0005:00000304       __imp__fputc               00467304     MSVCRTD:MSVCR120D.dll
 0005:00000308       __imp____CxxFrameHandler3  00467308     MSVCRTD:MSVCR120D.dll
 0005:0000030c       __imp__fgetc               0046730c     MSVCRTD:MSVCR120D.dll
 0005:00000310       __imp__fseek               00467310     MSVCRTD:MSVCR120D.dll
 0005:00000314       __imp__rewind              00467314     MSVCRTD:MSVCR120D.dll
 0005:00000318       __imp___purecall           00467318     MSVCRTD:MSVCR120D.dll
 0005:0000031c       __imp_??2@YAPAXI@Z         0046731c     MSVCRTD:MSVCR120D.dll
 0005:00000320       __imp_??3@YAXPAX@Z         00467320     MSVCRTD:MSVCR120D.dll
 0005:00000324       __imp___invalid_parameter  00467324     MSVCRTD:MSVCR120D.dll
 0005:00000328       __imp__memcmp              00467328     MSVCRTD:MSVCR120D.dll
 0005:0000032c       __imp__memmove             0046732c     MSVCRTD:MSVCR120D.dll
 0005:00000330       __imp___mkdir              00467330     MSVCRTD:MSVCR120D.dll
 0005:00000334       __imp___CrtDbgReportW      00467334     MSVCRTD:MSVCR120D.dll
 0005:00000338       __imp___CxxThrowException@8 00467338     MSVCRTD:MSVCR120D.dll
 0005:0000033c       __imp__tolower             0046733c     MSVCRTD:MSVCR120D.dll
 0005:00000340       __imp__memchr              00467340     MSVCRTD:MSVCR120D.dll
 0005:00000344       __imp___stricmp            00467344     MSVCRTD:MSVCR120D.dll
 0005:00000344       __imp__stricmp             00467344     MSVCRTD:MSVCR120D.dll
 0005:00000348       __imp__fputs               00467348     MSVCRTD:MSVCR120D.dll
 0005:0000034c       __imp__remove              0046734c     MSVCRTD:MSVCR120D.dll
 0005:00000350       __imp__rename              00467350     MSVCRTD:MSVCR120D.dll
 0005:00000354       __imp_??_V@YAXPAX@Z        00467354     MSVCRTD:MSVCR120D.dll
 0005:00000358       __imp_??_U@YAPAXI@Z        00467358     MSVCRTD:MSVCR120D.dll
 0005:0000035c       __imp__strpbrk             0046735c     MSVCRTD:MSVCR120D.dll
 0005:00000360       __imp__free                00467360     MSVCRTD:MSVCR120D.dll
 0005:00000364       __imp__malloc              00467364     MSVCRTD:MSVCR120D.dll
 0005:00000368       __imp__calloc              00467368     MSVCRTD:MSVCR120D.dll
 0005:0000036c       __imp___localtime64        0046736c     MSVCRTD:MSVCR120D.dll
 0005:00000370       __imp___time64             00467370     MSVCRTD:MSVCR120D.dll
 0005:00000374       __imp___CRT_RTC_INITW      00467374     MSVCRTD:MSVCR120D.dll
 0005:00000378       __imp___crt_debugger_hook  00467378     MSVCRTD:MSVCR120D.dll
 0005:0000037c       __imp____crtUnhandledException 0046737c     MSVCRTD:MSVCR120D.dll
 0005:00000380       __imp____crtTerminateProcess 00467380     MSVCRTD:MSVCR120D.dll
 0005:00000384       __imp___lock               00467384     MSVCRTD:MSVCR120D.dll
 0005:00000388       __imp___unlock             00467388     MSVCRTD:MSVCR120D.dll
 0005:0000038c       __imp___calloc_dbg         0046738c     MSVCRTD:MSVCR120D.dll
 0005:00000390       __imp____dllonexit         00467390     MSVCRTD:MSVCR120D.dll
 0005:00000394       __imp___onexit             00467394     MSVCRTD:MSVCR120D.dll
 0005:00000398       __imp_??1type_info@@UAE@XZ 00467398     MSVCRTD:MSVCR120D.dll
 0005:0000039c       __imp___XcptFilter         0046739c     MSVCRTD:MSVCR120D.dll
 0005:000003a0       __imp____crtGetShowWindowMode 004673a0     MSVCRTD:MSVCR120D.dll
 0005:000003a4       \177MSVCR120D_NULL_THUNK_DATA 004673a4     MSVCRTD:MSVCR120D.dll
 0005:00000414       __imp__Netbios@4           00467414     netapi32:NETAPI32.dll
 0005:00000418       \177NETAPI32_NULL_THUNK_DATA 00467418     netapi32:NETAPI32.dll
 0005:00000444       __imp__PostMessageA@16     00467444     user32:USER32.dll
 0005:00000448       __imp__wsprintfA           00467448     user32:USER32.dll
 0005:0000044c       __imp__EnableWindow@8      0046744c     user32:USER32.dll
 0005:00000450       __imp__GetDlgItemTextA@16  00467450     user32:USER32.dll
 0005:00000454       __imp__LoadIconA@8         00467454     user32:USER32.dll
 0005:00000458       __imp__LoadCursorA@8       00467458     user32:USER32.dll
 0005:0000045c       __imp__FillRect@12         0046745c     user32:USER32.dll
 0005:00000460       __imp__GetWindowRect@8     00467460     user32:USER32.dll
 0005:00000464       __imp__GetClientRect@8     00467464     user32:USER32.dll
 0005:00000468       __imp__SetWindowTextA@8    00467468     user32:USER32.dll
 0005:0000046c       __imp__SetScrollRange@20   0046746c     user32:USER32.dll
 0005:00000470       __imp__SetScrollPos@16     00467470     user32:USER32.dll
 0005:00000474       __imp__ScrollWindow@20     00467474     user32:USER32.dll
 0005:00000478       __imp__InvalidateRect@12   00467478     user32:USER32.dll
 0005:0000047c       __imp__EndPaint@8          0046747c     user32:USER32.dll
 0005:00000480       __imp__BeginPaint@8        00467480     user32:USER32.dll
 0005:00000484       __imp__ReleaseDC@8         00467484     user32:USER32.dll
 0005:00000488       __imp__LoadStringA@16      00467488     user32:USER32.dll
 0005:0000048c       __imp__UpdateWindow@4      0046748c     user32:USER32.dll
 0005:00000490       __imp__EnableMenuItem@12   00467490     user32:USER32.dll
 0005:00000494       __imp__CheckMenuItem@12    00467494     user32:USER32.dll
 0005:00000498       __imp__GetMenu@4           00467498     user32:USER32.dll
 0005:0000049c       __imp__GetSystemMetrics@4  0046749c     user32:USER32.dll
 0005:000004a0       __imp__EmptyClipboard@0    004674a0     user32:USER32.dll
 0005:000004a4       __imp__SetClipboardData@8  004674a4     user32:USER32.dll
 0005:000004a8       __imp__CloseClipboard@0    004674a8     user32:USER32.dll
 0005:000004ac       __imp__OpenClipboard@4     004674ac     user32:USER32.dll
 0005:000004b0       __imp__SetWindowPos@28     004674b0     user32:USER32.dll
 0005:000004b4       __imp__DestroyWindow@4     004674b4     user32:USER32.dll
 0005:000004b8       __imp__CreateWindowExA@48  004674b8     user32:USER32.dll
 0005:000004bc       __imp__RegisterClassA@4    004674bc     user32:USER32.dll
 0005:000004c0       __imp__PostQuitMessage@4   004674c0     user32:USER32.dll
 0005:000004c4       __imp__DefWindowProcA@16   004674c4     user32:USER32.dll
 0005:000004c8       __imp__DispatchMessageA@4  004674c8     user32:USER32.dll
 0005:000004cc       __imp__TranslateMessage@4  004674cc     user32:USER32.dll
 0005:000004d0       __imp__GetMessageA@16      004674d0     user32:USER32.dll
 0005:000004d4       __imp__GetDC@4             004674d4     user32:USER32.dll
 0005:000004d8       __imp__KillTimer@8         004674d8     user32:USER32.dll
 0005:000004dc       __imp__SetTimer@16         004674dc     user32:USER32.dll
 0005:000004e0       __imp__GetDlgItem@8        004674e0     user32:USER32.dll
 0005:000004e4       __imp__CreateDialogParamA@20 004674e4     user32:USER32.dll
 0005:000004e8       __imp__ShowWindow@8        004674e8     user32:USER32.dll
 0005:000004ec       __imp__SendMessageA@16     004674ec     user32:USER32.dll
 0005:000004f0       __imp__MessageBoxA@16      004674f0     user32:USER32.dll
 0005:000004f4       __imp__SetDlgItemTextA@12  004674f4     user32:USER32.dll
 0005:000004f8       __imp__EndDialog@8         004674f8     user32:USER32.dll
 0005:000004fc       __imp__DialogBoxParamA@20  004674fc     user32:USER32.dll
 0005:00000500       \177USER32_NULL_THUNK_DATA 00467500     user32:USER32.dll
 0005:00000550       __imp__GetFileVersionInfoA@16 00467550     version:VERSION.dll
 0005:00000554       __imp__VerQueryValueA@16   00467554     version:VERSION.dll
 0005:00000558       __imp__GetFileVersionInfoSizeA@8 00467558     version:VERSION.dll
 0005:0000055c       \177VERSION_NULL_THUNK_DATA 0046755c     version:VERSION.dll
 0005:00000588       __imp__ntohl@4             00467588     ws2_32:WS2_32.dll
 0005:0000058c       __imp__ntohs@4             0046758c     ws2_32:WS2_32.dll
 0005:00000590       \177WS2_32_NULL_THUNK_DATA 00467590     ws2_32:WS2_32.dll
 0005:000005bc       __IMPORT_DESCRIPTOR_VERSION 004675bc     version:VERSION.dll
 0005:000005d0       __IMPORT_DESCRIPTOR_WS2_32 004675d0     ws2_32:WS2_32.dll
 0005:000005e4       __IMPORT_DESCRIPTOR_KERNEL32 004675e4     kernel32:KERNEL32.dll
 0005:000005f8       __IMPORT_DESCRIPTOR_USER32 004675f8     user32:USER32.dll
 0005:0000060c       __IMPORT_DESCRIPTOR_GDI32  0046760c     gdi32:GDI32.dll
 0005:00000620       __IMPORT_DESCRIPTOR_COMDLG32 00467620     comdlg32:COMDLG32.dll
 0005:00000634       __IMPORT_DESCRIPTOR_ADVAPI32 00467634     advapi32:ADVAPI32.dll
 0005:00000648       __IMPORT_DESCRIPTOR_MSVCR120D 00467648     MSVCRTD:MSVCR120D.dll
 0005:0000065c       __IMPORT_DESCRIPTOR_MSVCP120D 0046765c     msvcprtd:MSVCP120D.dll
 0005:00000670       __IMPORT_DESCRIPTOR_NETAPI32 00467670     netapi32:NETAPI32.dll
 0005:00000684       __NULL_IMPORT_DESCRIPTOR   00467684     version:VERSION.dll
