 V4CSI

 Timestamp is 56ddfdc5 (Mon Mar 07 22:16:37 2016)

 Preferred load address is 00400000

 Start         Length     Name                   Class
 0001:00000000 00019f7aH .text                   CODE
 0001:00019f80 00001129H .text$x                 CODE
 0002:00000000 000009dcH .idata$5                DATA
 0002:000009e0 0000cd0cH .rdata                  DATA
 0002:0000d6f0 00000f98H .xdata$x                DATA
 0002:0000e688 0000008cH .idata$2                DATA
 0002:0000e714 00000014H .idata$3                DATA
 0002:0000e728 000009dcH .idata$4                DATA
 0002:0000f104 00005b1cH .idata$6                DATA
 0002:00014c20 00000000H .edata                  DATA
 0003:00000000 00000004H .CRT$XCA                DATA
 0003:00000004 00000014H .CRT$XCU                DATA
 0003:00000018 00000004H .CRT$XCZ                DATA
 0003:0000001c 00000004H .CRT$XIA                DATA
 0003:00000020 00000004H .CRT$XIZ                DATA
 0003:00000030 00002e34H .data                   DATA
 0003:00002e68 0010c890H .bss                    DATA
 0004:00000000 00000130H .rsrc$01                DATA
 0004:00000130 00000858H .rsrc$02                DATA

  Address         Publics by Value              Rva+Base     Lib:Object

 0001:00000000       ??0Cbncs_strtok@@QAE@XZ    00401000 f   b_strtok.obj
 0001:00000010       ?CSComDog_OpenComm@@YAXXZ  00401010 f   b_strtok.obj
 0001:00000010       ?CSNetSes_ShowSesInfo@@YAXH@Z 00401010 f   b_strtok.obj
 0001:00000010       ?destroy@CSIMainDlg@@MAEXXZ 00401010 f   b_strtok.obj
 0001:00000010       ?init@CSIMainDlg@@MAEXXZ   00401010 f   b_strtok.obj
 0001:00000010       ?CSComDog_Closedown@@YAXXZ 00401010 f   b_strtok.obj
 0001:00000010       ??1Cbncs_strtok@@QAE@XZ    00401010 f   b_strtok.obj
 0001:00000010       ?CSComDog_SendData@@YAXPADH@Z 00401010 f   b_strtok.obj
 0001:00000020       ?Initialise@Cbncs_strtok@@QAEXXZ 00401020 f   b_strtok.obj
 0001:00000040       ?Tokenise@Cbncs_strtok@@QAEXPADDH@Z 00401040 f   b_strtok.obj
 0001:000000d0       ?Read@Cbncs_strtok@@QAEXPADH@Z 004010d0 f   b_strtok.obj
 0001:00000130       ??0bncs_disklog@@QAE@PBDW4filetype@0@000000@Z 00401130 f   bncs_disklog.obj
 0001:00000180       ??_Ebncs_disklog@@UAEPAXI@Z 00401180 f i bncs_disklog.obj
 0001:00000180       ??_Gbncs_disklog@@UAEPAXI@Z 00401180 f i bncs_disklog.obj
 0001:000001a0       ?initVars@bncs_disklog@@AAEXXZ 004011a0 f   bncs_disklog.obj
 0001:000001b0       ?openLogFile@bncs_disklog@@AAEXPBDW4filetype@1@@Z 004011b0 f   bncs_disklog.obj
 0001:000003c0       ?cleanup@bncs_disklog@@AAEXXZ 004013c0 f   bncs_disklog.obj
 0001:000003e0       ??1bncs_disklog@@UAE@XZ    004013e0 f   bncs_disklog.obj
 0001:000003f0       ?write@bncs_disklog@@QAEXPBD00000@Z 004013f0 f   bncs_disklog.obj
 0001:00000620       ?createDirectory@bncs_disklog@@AAEXPBD@Z 00401620 f   bncs_disklog.obj
 0001:00000740       ?CSAbout_About@@YAXXZ      00401740 f   CSABOUT.obj
 0001:000008c0       ??_G?$QMemArray@D@@UAEPAXI@Z 004018c0 f i CSABOUT.obj
 0001:000008c0       ??_E?$QMemArray@D@@UAEPAXI@Z 004018c0 f i CSABOUT.obj
 0001:000008e0       ?CSCache_Init@@YAXXZ       004018e0 f   Cscache.obj
 0001:00000970       ?CSCache_Closedown@@YAXXZ  00401970 f   Cscache.obj
 0001:000009d0       ?CSCache_Alloc@@YAHHH@Z    004019d0 f   Cscache.obj
 0001:00000a60       ?CSCache_Test@@YAHHHH@Z    00401a60 f   Cscache.obj
 0001:00000ae0       ?CSCache_Check@@YAHPAD@Z   00401ae0 f   Cscache.obj
 0001:00000ba0       ?CSCache_Write@@YAXPADH@Z  00401ba0 f   Cscache.obj
 0001:00001530       ?CSCache_Validate@@YAXXZ   00402530 f   Cscache.obj
 0001:000015a0       ?CSCache_Clear@@YAXH@Z     004025a0 f   Cscache.obj
 0001:00001630       ?CSCache_PostedPoll@@YAXXZ 00402630 f   Cscache.obj
 0001:000016d0       ?CSCache_PostedRTRPoll@@YAXPAD@Z 004026d0 f   Cscache.obj
 0001:000017e0       ?CSCache_PostedGPIPoll@@YAXPAD@Z 004027e0 f   Cscache.obj
 0001:00001890       ?CSCache_PostedINFPoll@@YAXPAD@Z 00402890 f   Cscache.obj
 0001:00001950       ?CSCache_CalcPercent@@YAXXZ 00402950 f   Cscache.obj
 0001:000019e0       ?CSCache_CreateFile@@YAHHPAD@Z 004029e0 f   Cscache.obj
 0001:00001a80       ?CSCache_InfoWrite@@YAXHHPAD@Z 00402a80 f   Cscache.obj
 0001:00001ad0       ?CSCache_InfoRead@@YAXHHPAD@Z 00402ad0 f   Cscache.obj
 0001:00001b30       ?CSCache_GetFileHandle@@YAHH@Z 00402b30 f   Cscache.obj
 0001:00001ca0       ?CSCache_DeleteOldFiles@@YAXXZ 00402ca0 f   Cscache.obj
 0001:00001d90       ?CSCache_GetData@@YAXPAD@Z 00402d90 f   Cscache.obj
 0001:00001f00       ?CSCache_Index@@YAHPAD@Z   00402f00 f   Cscache.obj
 0001:00002040       ?CSCache_Profile@@YAHXZ    00403040 f   Cscache.obj
 0001:00002310       ?CSCmd_BkgRevertive@@YAXPAD@Z 00403310 f   Cscmd.obj
 0001:00002350       ?CSCmd_DeviceProfile@@YAXPAD@Z 00403350 f   Cscmd.obj
 0001:00002390       ?CSCmd_GPIRevertive@@YAXPAD@Z 00403390 f   Cscmd.obj
 0001:00002430       ?CSCmd_InfoRevertive@@YAXPAD@Z 00403430 f   Cscmd.obj
 0001:00002510       ?CSCmd_NetAttention@@YAXPAD@Z 00403510 f   Cscmd.obj
 0001:00002520       ?CSCmd_NetBroken@@YAXPAD@Z 00403520 f   Cscmd.obj
 0001:00002590       ?CSCmd_NetClose@@YAXPAD@Z  00403590 f   Cscmd.obj
 0001:000026d0       ?CSCmd_NetDisable@@YAXPAD@Z 004036d0 f   Cscmd.obj
 0001:00002780       ?CSCmd_NetEnable@@YAXPAD@Z 00403780 f   Cscmd.obj
 0001:00002810       ?CSCmd_NetInquire@@YAXPAD@Z 00403810 f   Cscmd.obj
 0001:00002970       ?CSCmd_NetLoopTest@@YAXPAD@Z 00403970 f   Cscmd.obj
 0001:000029a0       ?CSCmd_NetModify@@YAXPAD@Z 004039a0 f   Cscmd.obj
 0001:00002ae0       ?CSCmd_NetObject@@YAXPAD@Z 00403ae0 f   Cscmd.obj
 0001:00002ba0       ?CSCmd_NetPing@@YAXPAD@Z   00403ba0 f   Cscmd.obj
 0001:00002bd0       ?CSCmd_NetRestart@@YAXPAD@Z 00403bd0 f   Cscmd.obj
 0001:00002c10       ?CSCmd_NetStatus@@YAXPAD@Z 00403c10 f   Cscmd.obj
 0001:00002cb0       ?CSCmd_RtrDatabase@@YAXPAD@Z 00403cb0 f   Cscmd.obj
 0001:00002e40       ?CSCmd_RtrModify@@YAXPAD@Z 00403e40 f   Cscmd.obj
 0001:00002f50       ?CSCmd_RtrRevertive@@YAXPAD@Z 00403f50 f   Cscmd.obj
 0001:00003070       ?CSCmd_UniRevertive@@YAXPAD@Z 00404070 f   Cscmd.obj
 0001:000033e0       ?CSCmd_TimeService@@YAXPAD@Z 004043e0 f   Cscmd.obj
 0001:00003490       ?CSDbase_Init@@YAXXZ       00404490 f   Csdbase.obj
 0001:00003650       ?CSDbase_GetGRDDirectory@@YAXXZ 00404650 f   Csdbase.obj
 0001:00003720       ?CSDbase_GetGPIDDirectory@@YAXXZ 00404720 f   Csdbase.obj
 0001:00003800       ?CSDbase_GetIDDirectory@@YAXXZ 00404800 f   Csdbase.obj
 0001:000038e0       ?CSDbase_GetDEVDirectory@@YAXXZ 004048e0 f   Csdbase.obj
 0001:000039c0       ?CSDbase_GetDBList@@YAPADH@Z 004049c0 f   Csdbase.obj
 0001:000039d0       ?CSDbase_LoadGRDINI@@YAXH@Z 004049d0 f   Csdbase.obj
 0001:00003e60       ?CSDbase_LoadGPIDINI@@YAXH@Z 00404e60 f   Csdbase.obj
 0001:00003f30       ?CSDbase_LoadINFOINI@@YAXH@Z 00404f30 f   Csdbase.obj
 0001:00004070       ?CSDbase_LoadDEVINI@@YAXH@Z 00405070 f   Csdbase.obj
 0001:00004690       ?CSDbase_SaveCDF@@YAXH@Z   00405690 f   Csdbase.obj
 0001:00004780       ?CSDbase_Closedown@@YAXXZ  00405780 f   Csdbase.obj
 0001:000047c0       ?CSDbase_GetDatabaseName@@YAXJ@Z 004057c0 f   Csdbase.obj
 0001:00004870       ?CSDbase_GetDbaseName@@YAPADGHG@Z 00405870 f   Csdbase.obj
 0001:00004ba0       ?CSDbase_GetDatabaseIndex@@YAHIJ@Z 00405ba0 f   Csdbase.obj
 0001:00004c80       ?CSDbase_SaveGRDEntry@@YAXHHHPAD@Z 00405c80 f   Csdbase.obj
 0001:00004e80       ?CSDbase_SaveDEVEntry@@YAXHHHPAD@Z 00405e80 f   Csdbase.obj
 0001:00005120       ?CSDbase_GetMappedId@@YAHIJ@Z 00406120 f   Csdbase.obj
 0001:00005220       ?CSDbExt_Init@@YAXXZ       00406220 f   csdbext.obj
 0001:00005240       ?CSDbExt_CompileDBFiles@@YAXH@Z 00406240 f   csdbext.obj
 0001:000053c0       ?CSDbExt_SetName@@YAXHHHPAD@Z 004063c0 f   csdbext.obj
 0001:00005420       ?CSDbExt_GetName@@YAXJ@Z   00406420 f   csdbext.obj
 0001:000054e0       ?CSDbExt_GetIndex@@YAHJ@Z  004064e0 f   csdbext.obj
 0001:00005640       ?CSDbExt_CreateFile@@YAHPAD@Z 00406640 f   csdbext.obj
 0001:000056b0       ?CSDbExt_UpdateFile@@YAXHHPAD0@Z 004066b0 f   csdbext.obj
 0001:00005770       ?CSDbExt_AccessFile@@YAHHH@Z 00406770 f   csdbext.obj
 0001:00005850       ?CSDialog_Init@@YAXXZ      00406850 f   CSDIALOG.obj
 0001:00005860       ?CSDialog_InitDialog@@YAXXZ 00406860 f   CSDIALOG.obj
 0001:000058a0       ?CSDialog_Clear@@YAXXZ     004068a0 f   CSDIALOG.obj
 0001:00005920       ?CSDialog_SetStatics@@YAXXZ 00406920 f   CSDIALOG.obj
 0001:00005bc0       ?CSDialog_Status@@YAXXZ    00406bc0 f   CSDIALOG.obj
 0001:00006690       ?BNCS32SendMessage@@YAJPAUHWND__@@0IIJHH@Z 00407690 f   csi32sup.obj
 0001:00006780       ?BNCS32ReceiveMessage@@YAXPAUHWND__@@0PAUtagCOPYDATASTRUCT@@@Z 00407780 f   csi32sup.obj
 0001:000068a0       ?InitApplication@@YAHPAUHINSTANCE__@@@Z 004078a0 f   Csimain.obj
 0001:00006930       ?InitInstance@@YAHPAXH@Z   00407930 f   Csimain.obj
 0001:000069b0       ?MainWndProc@@YGJPAUHWND__@@IIJ@Z 004079b0 f   Csimain.obj
 0001:00007880       ?CSMain_Init@@YAXXZ        00408880 f   Csimain.obj
 0001:00007bf0       ?CSMain_Closedown@@YAXXZ   00408bf0 f   Csimain.obj
 0001:00007c60       ?CSMain_Closedown2@@YAXXZ  00408c60 f   Csimain.obj
 0001:00007cf0       ?CSMain_Closedown3@@YAXXZ  00408cf0 f   Csimain.obj
 0001:00007d20       ?CSMain_UpdateTitle@@YAXXZ 00408d20 f   Csimain.obj
 0001:00007e70       ?CSMain_Diag@@YAXXZ        00408e70 f   Csimain.obj
 0001:00008b20       ?CSMain_DiagExt@@YAXXZ     00409b20 f   Csimain.obj
 0001:00008c10       ?CSMain_Debug@@YAXXZ       00409c10 f   Csimain.obj
 0001:00008ca0       ?CSMain_Session@@YAXXZ     00409ca0 f   Csimain.obj
 0001:00008f00       ?CSMain_Client@@YAXXZ      00409f00 f   Csimain.obj
 0001:00009160       ?CSMain_Driver@@YAXXZ      0040a160 f   Csimain.obj
 0001:000093d0       ?CSMain_Cache@@YAXXZ       0040a3d0 f   Csimain.obj
 0001:00009530       ?CSMain_CacheToggle@@YAXG@Z 0040a530 f   Csimain.obj
 0001:00009560       ?CSMain_TxCmd@@YAXIPAD@Z   0040a560 f   Csimain.obj
 0001:00009830       ?CSMain_BuffDevCtlCmd@@YAXPADH@Z 0040a830 f   Csimain.obj
 0001:000098a0       ?CSMain_TxDevCtlBuff@@YAXXZ 0040a8a0 f   Csimain.obj
 0001:00009950       ?CSMain_TxTimeService@@YAXXZ 0040a950 f   Csimain.obj
 0001:00009a30       ?CSMain_GetDevProperties@@YAHIJ@Z 0040aa30 f   Csimain.obj
 0001:00009bb0       ?CSMain_StatusUpdate@@YAXXZ 0040abb0 f   Csimain.obj
 0001:00009d60       ?CSMain_IncrementUpTimer@@YAXXZ 0040ad60 f   Csimain.obj
 0001:00009db0       ?CSMain_TxRxRetry@@YAXXZ   0040adb0 f   Csimain.obj
 0001:00009e80       ?CSMain_GetDevTxRxMode@@YAHJ@Z 0040ae80 f   Csimain.obj
 0001:00009eb0       ?CSMain_SetDevTxRxMode@@YAXIJ@Z 0040aeb0 f   Csimain.obj
 0001:00009ff0       ?CSMain_TxPostDirectMessage@@YAXHPADH@Z 0040aff0 f   Csimain.obj
 0001:0000a060       ?CSMain_RxPostDirectMessage@@YAXIJ@Z 0040b060 f   Csimain.obj
 0001:0000a120       ?CSLicens_License@@YAXXZ   0040b120 f   CSLICENS.obj
 0001:0000a430       ?CSNDI_Init@@YAXXZ         0040b430 f   Csndi.obj
 0001:0000a500       ?CSNDI_SendToDriver@@YAXPAD@Z 0040b500 f   Csndi.obj
 0001:0000a990       ?CSNDI_RegDeviceId@@YAHIJHE@Z 0040b990 f   Csndi.obj
 0001:0000ab80       ?CSNDI_UnRegDeviceId@@YAHIJ@Z 0040bb80 f   Csndi.obj
 0001:0000ac90       ?CSNDI_RegAllDeviceIds@@YAXI@Z 0040bc90 f   Csndi.obj
 0001:0000acc0       ?CSNDI_UnRegAllDeviceIds@@YAHI@Z 0040bcc0 f   Csndi.obj
 0001:0000add0       ?CSNDI_IncDriver@@YAHPAUHWND__@@@Z 0040bdd0 f   Csndi.obj
 0001:0000ae30       ?CSNDI_DecDriver@@YAXPAUHWND__@@@Z 0040be30 f   Csndi.obj
 0001:0000ae80       ?CSNDI_Revertive@@YAXIJH@Z 0040be80 f   Csndi.obj
 0001:0000b370       ?CSNDI_UniChangeRevertive@@YAXHPADHH@Z 0040c370 f   Csndi.obj
 0001:0000b460       ?CSNDI_UniPollRevertive@@YAXHHPADHHH@Z 0040c460 f   Csndi.obj
 0001:0000b650       ?CSNDI_TxPacket@@YAXXZ     0040c650 f   Csndi.obj
 0001:0000b6d0       ?CSNDI_UniBuffReset@@YAXXZ 0040c6d0 f   Csndi.obj
 0001:0000b720       ?CSNDI_UniFileBuffReset@@YAXXZ 0040c720 f   Csndi.obj
 0001:0000b770       ?CSNDI_SendRevPacket@@YAXIJ@Z 0040c770 f   Csndi.obj
 0001:0000b820       ?CSNDI_SendSystemMsg@@YAXPAD@Z 0040c820 f   Csndi.obj
 0001:0000b870       ?CSNDI_SendVerbatimMsg@@YAXJ@Z 0040c870 f   Csndi.obj
 0001:0000b8d0       ?CSNDI_SendErrorMsg@@YAXPAD@Z 0040c8d0 f   Csndi.obj
 0001:0000b9a0       ?CSNetCli_SendPollFile@@YAXHHPAD@Z 0040c9a0 f   Csnetcli.obj
 0001:0000ba30       ?CSNetCli_TxSessionRequest@@YAXPAD@Z 0040ca30 f   Csnetcli.obj
 0001:0000bbc0       ?CSNetCli_SessionQHandler@@YAXXZ 0040cbc0 f   Csnetcli.obj
 0001:0000bd70       ?CSNetCli_Call@@YAHHH@Z    0040cd70 f   Csnetcli.obj
 0001:0000be10       ?CSNetCli_CallAccepted@@YAXHE@Z 0040ce10 f   Csnetcli.obj
 0001:0000bef0       ?CSNetCli_TxData@@YAXH@Z   0040cef0 f   Csnetcli.obj
 0001:0000bf40       ?CSNetCli_RxData@@YAXHPADH@Z 0040cf40 f   Csnetcli.obj
 0001:0000c0b0       ?CSNetCli_SendRequest@@YAXHPAD@Z 0040d0b0 f   Csnetcli.obj
 0001:0000c140       ?CSNetCli_NotifyResult@@YAXH@Z 0040d140 f   Csnetcli.obj
 0001:0000c180       ?CSNetCli_DevDisconnect@@YAXH@Z 0040d180 f   Csnetcli.obj
 0001:0000c1d0       ?CSNetCli_DevWrite@@YAXJ@Z 0040d1d0 f   Csnetcli.obj
 0001:0000c250       ?CSNetMsg_NetMsgRx@@YAXIJ@Z 0040d250 f   CSNETMSG.obj
 0001:0000c370       ?CSNetMsg_SendDG@@YAXPAU_NCB@@@Z 0040d370 f   CSNETMSG.obj
 0001:0000c3b0       ?CSNetMsg_ReceiveDG@@YAXPAU_NCB@@@Z 0040d3b0 f   CSNETMSG.obj
 0001:0000c4e0       ?CSNetMsg_Listen@@YAXPAU_NCB@@@Z 0040d4e0 f   CSNETMSG.obj
 0001:0000c5b0       ?CSNetMsg_Call@@YAXPAU_NCB@@@Z 0040d5b0 f   CSNETMSG.obj
 0001:0000c680       ?CSNetMsg_Send@@YAXPAU_NCB@@@Z 0040d680 f   CSNETMSG.obj
 0001:0000c750       ?CSNetMsg_Receive@@YAXPAU_NCB@@@Z 0040d750 f   CSNETMSG.obj
 0001:0000c840       ?CSNetSes_Init@@YAXXZ      0040d840 f   Csnetses.obj
 0001:0000c920       ?CSNetSes_Closedown@@YAXXZ 0040d920 f   Csnetses.obj
 0001:0000c9a0       ?CSNetSes_PostRx@@YAXH@Z   0040d9a0 f   Csnetses.obj
 0001:0000ca30       ?CSNetSes_Send@@YAHHPADH@Z 0040da30 f   Csnetses.obj
 0001:0000cae0       ?CSNetSes_RdyToTx@@YAXH@Z  0040dae0 f   Csnetses.obj
 0001:0000cb10       ?CSNetSes_Receive@@YAXHPADH@Z 0040db10 f   Csnetses.obj
 0001:0000cb70       ?CSNetSes_TimeoutChk@@YAXXZ 0040db70 f   Csnetses.obj
 0001:0000cbe0       ?CSNetSes_GetNextFreeSes@@YAHXZ 0040dbe0 f   Csnetses.obj
 0001:0000cc30       ?CSNetSes_GetSessionFromNCB@@YAHPAU_NCB@@@Z 0040dc30 f   Csnetses.obj
 0001:0000cc70       ?CSNetSes_HangUpAll@@YAXXZ 0040dc70 f   Csnetses.obj
 0001:0000cc90       ?CSNetSes_HangUp@@YAXH@Z   0040dc90 f   Csnetses.obj
 0001:0000ccf0       ?CSNetSes_SessionClosed@@YAXH@Z 0040dcf0 f   Csnetses.obj
 0001:0000cd50       ?CSNetSes_SessionClear@@YAXH@Z 0040dd50 f   Csnetses.obj
 0001:0000cdf0       ?CSNetSes_MakeDirFile@@YAHH@Z 0040ddf0 f   Csnetses.obj
 0001:0000ce00       ?CSNetSes_OpenReadFile@@YAXH@Z 0040de00 f   Csnetses.obj
 0001:0000ce70       ?CSNetSes_ReadFile@@YAXH@Z 0040de70 f   Csnetses.obj
 0001:0000cf80       ?CSNetSes_OpenWriteFile@@YAXH@Z 0040df80 f   Csnetses.obj
 0001:0000cff0       ?CSNetSes_WriteFile@@YAXHPADH@Z 0040dff0 f   Csnetses.obj
 0001:0000d0a0       ?CSNetSes_CloseFile@@YAXH@Z 0040e0a0 f   Csnetses.obj
 0001:0000d0f0       ?CSNetSes_ClientClosing@@YAXI@Z 0040e0f0 f   Csnetses.obj
 0001:0000d120       ?CSNetSes_DespatchPollFile@@YAXH@Z 0040e120 f   Csnetses.obj
 0001:0000d1c0       ?CSNetSes_FlushQ@@YAXXZ    0040e1c0 f   Csnetses.obj
 0001:0000d1f0       ?CSNetSrv_PostListen@@YAXXZ 0040e1f0 f   Csnetsrv.obj
 0001:0000d280       ?CSNetSrv_ListenAccepted@@YAXHE@Z 0040e280 f   Csnetsrv.obj
 0001:0000d2c0       ?CSNetSrv_TxData@@YAXH@Z   0040e2c0 f   Csnetsrv.obj
 0001:0000d300       ?CSNetSrv_RxData@@YAXHPADH@Z 0040e300 f   Csnetsrv.obj
 0001:0000d5e0       ?CSNetSup_Init@@YAHXZ      0040e5e0 f   Csnetsup.obj
 0001:0000d7a0       ?CSNetSup_InitClient@@YAXXZ 0040e7a0 f   Csnetsup.obj
 0001:0000d980       ?CSNetSup_InitDriver@@YAXXZ 0040e980 f   Csnetsup.obj
 0001:0000db10       ?CSNetSup_Closedown@@YAXXZ 0040eb10 f   Csnetsup.obj
 0001:0000db60       ?CSNetSup_CloseClient@@YAXXZ 0040eb60 f   Csnetsup.obj
 0001:0000dbd0       ?CSNetSup_CloseDriver@@YAXXZ 0040ebd0 f   Csnetsup.obj
 0001:0000dc40       ?CSNetSup_NetSendDG@@YAHPAD0H@Z 0040ec40 f   Csnetsup.obj
 0001:0000dcc0       ?CSNetSup_ReplaceNCB@@YAHPAU_NCB@@0@Z 0040ecc0 f   Csnetsup.obj
 0001:0000ddb0       ?CSNetSup_SendToClients@@YAXPADH@Z 0040edb0 f   Csnetsup.obj
 0001:0000de10       ?CSNetSup_NetReset@@YAXXZ  0040ee10 f   Csnetsup.obj
 0001:0000deb0       ?CSParser_ParseCmd@@YAXPAD@Z 0040eeb0 f   CSPARSER.obj
 0001:0000e150       ?CSProf_Init@@YAXXZ        0040f150 f   Csprof.obj
 0001:0000eec0       ?CSProf_WriteWinPos@@YAXJ@Z 0040fec0 f   Csprof.obj
 0001:0000ef70       ?CSProf_DevCreate@@YAXHHHH@Z 0040ff70 f   Csprof.obj
 0001:0000f450       ?CSReg_Init@@YAXXZ         00410450 f   Csreg.obj
 0001:0000f4a0       ?CSReg_Closedown@@YAXXZ    004104a0 f   Csreg.obj
 0001:0000f530       ?CSReg_RegClient@@YAHPAUHWND__@@E@Z 00410530 f   Csreg.obj
 0001:0000f690       ?CSReg_UnregClient@@YAXI@Z 00410690 f   Csreg.obj
 0001:0000f7d0       ?CSReg_AddClientDevReg@@YAXIJ@Z 004107d0 f   Csreg.obj
 0001:0000f9c0       ?CSReg_UnRegDevice@@YAXIJ@Z 004109c0 f   Csreg.obj
 0001:0000fa30       ?CSReg_RemClientDevReg@@YAXIJ@Z 00410a30 f   Csreg.obj
 0001:0000fb80       ?CSReg_ClrClientDevReg@@YAXPAUHWND__@@H@Z 00410b80 f   Csreg.obj
 0001:0000fc80       ?CSReg_ClrClientAllDevReg@@YAXPAUHWND__@@@Z 00410c80 f   Csreg.obj
 0001:0000fcd0       ?CSReg_GetClientRegIdx@@YAHPAUHWND__@@@Z 00410cd0 f   Csreg.obj
 0001:0000fd10       ?CSReg_GetClientDevIdx@@YAHHH@Z 00410d10 f   Csreg.obj
 0001:0000fd60       ?CSReg_UpdateClient@@YAXHGHPADHH@Z 00410d60 f   Csreg.obj
 0001:0000fe40       ?CSReg_IsClientRegForDevIdx@@YAHHGG@Z 00410e40 f   Csreg.obj
 0001:0000ff00       ?CSReg_RegNetMsgUpdate@@YAXPAD@Z 00410f00 f   Csreg.obj
 0001:0000ff90       ?CSReg_CheckForClientName@@YAHPAD@Z 00410f90 f   Csreg.obj
 0001:00010090       ?BNCSSendMessage@@YAJPAUHWND__@@0IIJHHHE@Z 00411090 f   CSSNDMSG.obj
 0001:00010110       ?ODS@@YAXPAD@Z             00411110 f   CSSUFU.obj
 0001:00010150       ?OSM@@YAXPAD@Z             00411150 f   CSSUFU.obj
 0001:00010160       ?GetArguments@@YAXPBDH@Z   00411160 f   CSSUFU.obj
 0001:00010270       ?FileExists@@YAHPAD@Z      00411270 f   CSSUFU.obj
 0001:000102a0       ?FileIsNewer@@YAHPAD0@Z    004112a0 f   CSSUFU.obj
 0001:00010340       ?GetPrivateINIString@@YAXPBD00PADKQAD@Z 00411340 f   PROFILE.obj
 0001:000103d0       ?WritePrivateINIString@@YAXPBD000@Z 004113d0 f   PROFILE.obj
 0001:00010450       ?GetEnvironmentType@@YAHXZ 00411450 f   PROFILE.obj
 0001:000104b0       ?GetSystemPath@@YAPADXZ    004114b0 f   PROFILE.obj
 0001:00010540       ?GetINIPath@@YAPADPAD@Z    00411540 f   PROFILE.obj
 0001:000105c0       ?GetTempPathA@@YAPADPAD@Z  004115c0 f   PROFILE.obj
 0001:000105e0       ??_GsizedBuffer@@UAEPAXI@Z 004115e0 f i sizedBuffer.obj
 0001:000105e0       ??_EsizedBuffer@@UAEPAXI@Z 004115e0 f i sizedBuffer.obj
 0001:00010600       ??1sizedBuffer@@UAE@XZ     00411600 f   sizedBuffer.obj
 0001:00010620       ?size@sizedBuffer@@QBEHXZ  00411620 f   sizedBuffer.obj
 0001:00010630       ?data@sizedBuffer@@QBEPBEXZ 00411630 f   sizedBuffer.obj
 0001:00010640       ?ref@sizedBuffer@@QBEHXZ   00411640 f   sizedBuffer.obj
 0001:00010650       _main                      00411650 f   v4_main.obj
 0001:00010b90       ??0CSI@@QAE@XZ             00411b90 f   v4_main.obj
 0001:00011c00       ?metaObject@CSI@@UBEPAVQMetaObject@@XZ 00412c00 f i v4_main.obj
 0001:00011c10       ??_GCSI@@UAEPAXI@Z         00412c10 f i v4_main.obj
 0001:00011c10       ??_ECSI@@UAEPAXI@Z         00412c10 f i v4_main.obj
 0001:00011c30       ??_EQPopupMenu@@UAEPAXI@Z  00412c30 f i v4_main.obj
 0001:00011c30       ??_GQPopupMenu@@UAEPAXI@Z  00412c30 f i v4_main.obj
 0001:00011c50       ??1CSI@@UAE@XZ             00412c50 f   v4_main.obj
 0001:00011c70       ?Closedown@CSI@@UAEXXZ     00412c70 f   v4_main.obj
 0001:00011c90       ?SessionToggle@CSI@@UAEXXZ 00412c90 f   v4_main.obj
 0001:00011ca0       ?HangUpAllSessions@CSI@@UAEXXZ 00412ca0 f   v4_main.obj
 0001:00011cb0       ?FlushSessionQ@CSI@@UAEXXZ 00412cb0 f   v4_main.obj
 0001:00011cc0       ?ClientToggle@CSI@@UAEXXZ  00412cc0 f   v4_main.obj
 0001:00011cd0       ?DriverToggle@CSI@@UAEXXZ  00412cd0 f   v4_main.obj
 0001:00011ce0       ?CacheToggle@CSI@@UAEXXZ   00412ce0 f   v4_main.obj
 0001:00011cf0       ?DiagnosticsToggle@CSI@@UAEXXZ 00412cf0 f   v4_main.obj
 0001:00011d00       ?DiagnosticsExtToggle@CSI@@UAEXXZ 00412d00 f   v4_main.obj
 0001:00011d10       ?DebugToggle@CSI@@UAEXXZ   00412d10 f   v4_main.obj
 0001:00011d20       ?WindowClear@CSI@@UAEXXZ   00412d20 f   v4_main.obj
 0001:00011d30       ?License@CSI@@UAEXXZ       00412d30 f   v4_main.obj
 0001:00011d40       ?About@CSI@@UAEXXZ         00412d40 f   v4_main.obj
 0001:00011d50       ?NetReset@CSI@@UAEXXZ      00412d50 f   v4_main.obj
 0001:00011d60       ?closeEvent@CSI@@MAEXPAVQCloseEvent@@@Z 00412d60 f   v4_main.obj
 0001:00011d80       ??1?$QDict@V?$QMemArray@D@@@@UAE@XZ 00412d80 f i v4_main.obj
 0001:00011de0       ?count@?$QDict@V?$QMemArray@D@@@@UBEIXZ 00412de0 f i v4_main.obj
 0001:00011df0       ?clear@?$QDict@V?$QMemArray@D@@@@UAEXXZ 00412df0 f i v4_main.obj
 0001:00011e00       ??_E?$QDict@V?$QMemArray@D@@@@UAEPAXI@Z 00412e00 f i v4_main.obj
 0001:00011e00       ??_G?$QDict@V?$QMemArray@D@@@@UAEPAXI@Z 00412e00 f i v4_main.obj
 0001:00011e20       ?deleteItem@?$QDict@V?$QMemArray@D@@@@EAEXPAX@Z 00412e20 f i v4_main.obj
 0001:00011e40       ??_EQPopupMenu@@WCI@AEPAXI@Z 00412e40 f i v4_main.obj
 0001:00011e50       ??_EQPopupMenu@@WIM@AEPAXI@Z 00412e50 f i v4_main.obj
 0001:00011e60       ??_ECSI@@WCI@AEPAXI@Z      00412e60 f i v4_main.obj
 0001:00011e70       ??0CSIAboutDlg@@QAE@PAVQWidget@@PBD_NI@Z 00412e70 f   csi_about.obj
 0001:00012510       ?metaObject@CSIAboutDlg@@UBEPAVQMetaObject@@XZ 00413510 f i csi_about.obj
 0001:00012520       ??_EQSpacerItem@@UAEPAXI@Z 00413520 f i csi_about.obj
 0001:00012520       ??_GQSpacerItem@@UAEPAXI@Z 00413520 f i csi_about.obj
 0001:00012540       ??_ECSIAboutDlg@@UAEPAXI@Z 00413540 f i csi_about.obj
 0001:00012540       ??_GCSIAboutDlg@@UAEPAXI@Z 00413540 f i csi_about.obj
 0001:00012560       ??_EQVBoxLayout@@UAEPAXI@Z 00413560 f i csi_about.obj
 0001:00012560       ??_GQVBoxLayout@@UAEPAXI@Z 00413560 f i csi_about.obj
 0001:00012580       ??_GQLabel@@UAEPAXI@Z      00413580 f i csi_about.obj
 0001:00012580       ??_EQLabel@@UAEPAXI@Z      00413580 f i csi_about.obj
 0001:000125a0       ??_EQHBoxLayout@@UAEPAXI@Z 004135a0 f i csi_about.obj
 0001:000125a0       ??_GQHBoxLayout@@UAEPAXI@Z 004135a0 f i csi_about.obj
 0001:000125c0       ??_GQPushButton@@UAEPAXI@Z 004135c0 f i csi_about.obj
 0001:000125c0       ??_EQPushButton@@UAEPAXI@Z 004135c0 f i csi_about.obj
 0001:000125e0       ??1CSIAboutDlg@@UAE@XZ     004135e0 f   csi_about.obj
 0001:00012600       ?languageChange@CSIAboutDlg@@MAEXXZ 00413600 f   csi_about.obj
 0001:00012800       ?Accepted@CSIAboutDlg@@UAEXXZ 00413800 f   csi_about.obj
 0001:00012810       ?pushButton1_released@CSIAboutDlg@@UAEXXZ 00413810 f   csi_about.obj
 0001:00012820       ?accepted@CSIAboutDlg@@UAEXXZ 00413820 f   csi_about.obj
 0001:00012830       ?accept@CSIAboutDlg@@UAEXXZ 00413830 f   csi_about.obj
 0001:00012840       ??_EQVBoxLayout@@WCI@AEPAXI@Z 00413840 f i csi_about.obj
 0001:00012850       ??_EQHBoxLayout@@WCI@AEPAXI@Z 00413850 f i csi_about.obj
 0001:00012860       ??_EQLabel@@WCI@AEPAXI@Z   00413860 f i csi_about.obj
 0001:00012870       ??_ECSIAboutDlg@@WCI@AEPAXI@Z 00413870 f i csi_about.obj
 0001:00012880       ??_EQPushButton@@WCI@AEPAXI@Z 00413880 f i csi_about.obj
 0001:00012890       ??0CSIDbLoadDlg@@QAE@PAVQWidget@@PBD_NI@Z 00413890 f   csi_dbload.obj
 0001:00012c20       ?metaObject@CSIDbLoadDlg@@UBEPAVQMetaObject@@XZ 00413c20 f i csi_dbload.obj
 0001:00012c30       ??_GCSIDbLoadDlg@@UAEPAXI@Z 00413c30 f i csi_dbload.obj
 0001:00012c30       ??_ECSIDbLoadDlg@@UAEPAXI@Z 00413c30 f i csi_dbload.obj
 0001:00012c50       ??1CSIDbLoadDlg@@UAE@XZ    00413c50 f   csi_dbload.obj
 0001:00012c70       ?languageChange@CSIDbLoadDlg@@MAEXXZ 00413c70 f   csi_dbload.obj
 0001:00012d50       ?Accepted@CSIDbLoadDlg@@UAEXXZ 00413d50 f   csi_dbload.obj
 0001:00012d60       ?pushButton1_released@CSIDbLoadDlg@@UAEXXZ 00413d60 f   csi_dbload.obj
 0001:00012d70       ?accepted@CSIDbLoadDlg@@UAEXXZ 00413d70 f   csi_dbload.obj
 0001:00012d80       ?accept@CSIDbLoadDlg@@UAEXXZ 00413d80 f   csi_dbload.obj
 0001:00012d90       ??_ECSIDbLoadDlg@@WCI@AEPAXI@Z 00413d90 f i csi_dbload.obj
 0001:00012da0       ??0CSILicenseDlg@@QAE@PAVQWidget@@PBD_NI@Z 00413da0 f   csi_license.obj
 0001:000138e0       ?metaObject@CSILicenseDlg@@UBEPAVQMetaObject@@XZ 004148e0 f i csi_license.obj
 0001:000138f0       ??_GCSILicenseDlg@@UAEPAXI@Z 004148f0 f i csi_license.obj
 0001:000138f0       ??_ECSILicenseDlg@@UAEPAXI@Z 004148f0 f i csi_license.obj
 0001:00013910       ??1CSILicenseDlg@@UAE@XZ   00414910 f   csi_license.obj
 0001:00013930       ?languageChange@CSILicenseDlg@@MAEXXZ 00414930 f   csi_license.obj
 0001:00013cb0       ??_ECSILicenseDlg@@WCI@AEPAXI@Z 00414cb0 f i csi_license.obj
 0001:00013cc0       ??0CSIMainDlg@@QAE@PAVQWidget@@PBDI@Z 00414cc0 f   csi_maindlg.obj
 0001:00016bf0       ?metaObject@CSIMainDlg@@UBEPAVQMetaObject@@XZ 00417bf0 f i csi_maindlg.obj
 0001:00016c00       ??_ECSIMainDlg@@UAEPAXI@Z  00417c00 f i csi_maindlg.obj
 0001:00016c00       ??_GCSIMainDlg@@UAEPAXI@Z  00417c00 f i csi_maindlg.obj
 0001:00016c20       ??_GQListBox@@UAEPAXI@Z    00417c20 f i csi_maindlg.obj
 0001:00016c20       ??_EQListBox@@UAEPAXI@Z    00417c20 f i csi_maindlg.obj
 0001:00016c40       ??1CSIMainDlg@@UAE@XZ      00417c40 f   csi_maindlg.obj
 0001:00016ca0       ?languageChange@CSIMainDlg@@MAEXXZ 00417ca0 f   csi_maindlg.obj
 0001:00018760       ?Menu_About@CSIMainDlg@@UAEXXZ 00419760 f   csi_maindlg.obj
 0001:00018770       ?Menu_Licence@CSIMainDlg@@UAEXXZ 00419770 f   csi_maindlg.obj
 0001:00018780       ??_EQListBox@@WCI@AEPAXI@Z 00419780 f i csi_maindlg.obj
 0001:00018790       ??_ECSIMainDlg@@WCI@AEPAXI@Z 00419790 f i csi_maindlg.obj
 0001:000187a0       ?className@CSIAboutDlg@@UBEPBDXZ 004197a0 f   moc_csi_about.obj
 0001:00018800       ?tr@CSIAboutDlg@@SA?AVQString@@PBD0@Z 00419800 f   moc_csi_about.obj
 0001:00018850       ?staticMetaObject@CSIAboutDlg@@SAPAVQMetaObject@@XZ 00419850 f   moc_csi_about.obj
 0001:000188a0       ?qt_cast@CSIAboutDlg@@UAEPAXPBD@Z 004198a0 f   moc_csi_about.obj
 0001:00018910       ?qt_invoke@CSIAboutDlg@@UAE_NHPAUQUObject@@@Z 00419910 f   moc_csi_about.obj
 0001:000189b0       ?qt_property@CSILicenseDlg@@UAE_NHHPAVQVariant@@@Z 004199b0 f   moc_csi_about.obj
 0001:000189b0       ?qt_property@CSIDbLoadDlg@@UAE_NHHPAVQVariant@@@Z 004199b0 f   moc_csi_about.obj
 0001:000189b0       ?qt_property@CSIAboutDlg@@UAE_NHHPAVQVariant@@@Z 004199b0 f   moc_csi_about.obj
 0001:000189d0       ?className@CSIDbLoadDlg@@UBEPBDXZ 004199d0 f   moc_csi_dbload.obj
 0001:00018a30       ?tr@CSIDbLoadDlg@@SA?AVQString@@PBD0@Z 00419a30 f   moc_csi_dbload.obj
 0001:00018a80       ?staticMetaObject@CSIDbLoadDlg@@SAPAVQMetaObject@@XZ 00419a80 f   moc_csi_dbload.obj
 0001:00018ad0       ?qt_cast@CSIDbLoadDlg@@UAEPAXPBD@Z 00419ad0 f   moc_csi_dbload.obj
 0001:00018b40       ?qt_invoke@CSIDbLoadDlg@@UAE_NHPAUQUObject@@@Z 00419b40 f   moc_csi_dbload.obj
 0001:00018be0       ?qt_emit@CSIDbLoadDlg@@UAE_NHPAUQUObject@@@Z 00419be0 f   moc_csi_dbload.obj
 0001:00018be0       ?qt_emit@CSILicenseDlg@@UAE_NHPAUQUObject@@@Z 00419be0 f   moc_csi_dbload.obj
 0001:00018be0       ?qt_emit@CSIAboutDlg@@UAE_NHPAUQUObject@@@Z 00419be0 f   moc_csi_dbload.obj
 0001:00018c00       ?className@CSILicenseDlg@@UBEPBDXZ 00419c00 f   moc_csi_license.obj
 0001:00018c60       ?tr@CSILicenseDlg@@SA?AVQString@@PBD0@Z 00419c60 f   moc_csi_license.obj
 0001:00018cb0       ?staticMetaObject@CSILicenseDlg@@SAPAVQMetaObject@@XZ 00419cb0 f   moc_csi_license.obj
 0001:00018d00       ?qt_cast@CSILicenseDlg@@UAEPAXPBD@Z 00419d00 f   moc_csi_license.obj
 0001:00018d70       ?qt_invoke@CSILicenseDlg@@UAE_NHPAUQUObject@@@Z 00419d70 f   moc_csi_license.obj
 0001:00018db0       ?className@CSIMainDlg@@UBEPBDXZ 00419db0 f   moc_csi_maindlg.obj
 0001:00018e10       ?tr@CSIMainDlg@@SA?AVQString@@PBD0@Z 00419e10 f   moc_csi_maindlg.obj
 0001:00018e60       ?staticMetaObject@CSIMainDlg@@SAPAVQMetaObject@@XZ 00419e60 f   moc_csi_maindlg.obj
 0001:00018eb0       ?qt_cast@CSIMainDlg@@UAEPAXPBD@Z 00419eb0 f   moc_csi_maindlg.obj
 0001:00018f20       ?qt_invoke@CSIMainDlg@@UAE_NHPAUQUObject@@@Z 00419f20 f   moc_csi_maindlg.obj
 0001:00018fc0       ?qt_emit@CSIMainDlg@@UAE_NHPAUQUObject@@@Z 00419fc0 f   moc_csi_maindlg.obj
 0001:00018fe0       ?qt_property@CSIMainDlg@@UAE_NHHPAVQVariant@@@Z 00419fe0 f   moc_csi_maindlg.obj
 0001:00019000       ?className@CSI@@UBEPBDXZ   0041a000 f   moc_V4_main.obj
 0001:00019060       ?staticMetaObject@CSI@@SAPAVQMetaObject@@XZ 0041a060 f   moc_V4_main.obj
 0001:000190b0       ?qt_cast@CSI@@UAEPAXPBD@Z  0041a0b0 f   moc_V4_main.obj
 0001:00019120       ?qt_invoke@CSI@@UAE_NHPAUQUObject@@@Z 0041a120 f   moc_V4_main.obj
 0001:00019280       ?qt_emit@CSI@@UAE_NHPAUQUObject@@@Z 0041a280 f   moc_V4_main.obj
 0001:000192a0       ?qt_property@CSI@@UAE_NHHPAVQVariant@@@Z 0041a2a0 f   moc_V4_main.obj
 0001:000192c0       ?dgMsgQueueSize@@YAHXZ     0041a2c0 f   bbcnb32m:bbcnb32m.dll
 0001:000192c6       ?dgMsgQueueNextItem@@YA?AVsizedBuffer@@XZ 0041a2c6 f   bbcnb32m:bbcnb32m.dll
 0001:000192cc       _NetCopyName@8             0041a2cc f   bbcnb32m:bbcnb32m.dll
 0001:000192d2       _NetNcbFree@4              0041a2d2 f   bbcnb32m:bbcnb32m.dll
 0001:000192d8       _NetRetCode@8              0041a2d8 f   bbcnb32m:bbcnb32m.dll
 0001:000192de       _NetCall@28                0041a2de f   bbcnb32m:bbcnb32m.dll
 0001:000192e4       _NetCmdCode@8              0041a2e4 f   bbcnb32m:bbcnb32m.dll
 0001:000192ea       _NetHangUp@8               0041a2ea f   bbcnb32m:bbcnb32m.dll
 0001:000192f0       _NetCancel@8               0041a2f0 f   bbcnb32m:bbcnb32m.dll
 0001:000192f6       _NetReceive@20             0041a2f6 f   bbcnb32m:bbcnb32m.dll
 0001:000192fc       _NetSend@24                0041a2fc f   bbcnb32m:bbcnb32m.dll
 0001:00019302       _NetListen@28              0041a302 f   bbcnb32m:bbcnb32m.dll
 0001:00019308       _NetAddGroupName@12        0041a308 f   bbcnb32m:bbcnb32m.dll
 0001:0001930e       _NetAddName@12             0041a30e f   bbcnb32m:bbcnb32m.dll
 0001:00019314       _NetDeleteName@12          0041a314 f   bbcnb32m:bbcnb32m.dll
 0001:0001931a       _NetReset@12               0041a31a f   bbcnb32m:bbcnb32m.dll
 0001:00019320       _NetReceiveDG@20           0041a320 f   bbcnb32m:bbcnb32m.dll
 0001:00019326       _NetSendDG@28              0041a326 f   bbcnb32m:bbcnb32m.dll
 0001:0001932c       ?showMinimized@QWidget@@UAEXXZ 0041a32c f   qt-mt323:qt-mt323.dll
 0001:00019332       ?deleteData@QGArray@@MAEXPAUarray_data@1@@Z 0041a332 f   qt-mt323:qt-mt323.dll
 0001:00019338       ?newData@QGArray@@MAEPAUarray_data@1@XZ 0041a338 f   qt-mt323:qt-mt323.dll
 0001:0001933e       ?detach@?$QMemArray@D@@UAEXXZ 0041a33e f   qt-mt323:qt-mt323.dll
 0001:00019344       ?write@QGDict@@MBEAAVQDataStream@@AAV2@PAX@Z 0041a344 f   qt-mt323:qt-mt323.dll
 0001:0001934a       ?read@QGDict@@MAEAAVQDataStream@@AAV2@AAPAX@Z 0041a34a f   qt-mt323:qt-mt323.dll
 0001:00019350       ?newItem@QPtrCollection@@MAEPAXPAX@Z 0041a350 f   qt-mt323:qt-mt323.dll
 0001:00019356       ?setToolTipGroup@QMainWindow@@EAEXPAVQToolTipGroup@@@Z 0041a356 f   qt-mt323:qt-mt323.dll
 0001:0001935c       ?setStatusBar@QMainWindow@@EAEXPAVQStatusBar@@@Z 0041a35c f   qt-mt323:qt-mt323.dll
 0001:00019362       ?setMenuBar@QMainWindow@@EAEXPAVQMenuBar@@@Z 0041a362 f   qt-mt323:qt-mt323.dll
 0001:00019368       ?showDockMenu@QMainWindow@@MAE_NABVQPoint@@@Z 0041a368 f   qt-mt323:qt-mt323.dll
 0001:0001936e       ?setUpLayout@QMainWindow@@MAEXXZ 0041a36e f   qt-mt323:qt-mt323.dll
 0001:00019374       ?customize@QMainWindow@@UAEXXZ 0041a374 f   qt-mt323:qt-mt323.dll
 0001:0001937a       ?setAppropriate@QMainWindow@@UAEXPAVQDockWindow@@_N@Z 0041a37a f   qt-mt323:qt-mt323.dll
 0001:00019380       ?whatsThis@QMainWindow@@UAEXXZ 0041a380 f   qt-mt323:qt-mt323.dll
 0001:00019386       ?setDockMenuEnabled@QMainWindow@@UAEX_N@Z 0041a386 f   qt-mt323:qt-mt323.dll
 0001:0001938c       ?setOpaqueMoving@QMainWindow@@UAEX_N@Z 0041a38c f   qt-mt323:qt-mt323.dll
 0001:00019392       ?setDockWindowsMovable@QMainWindow@@UAEX_N@Z 0041a392 f   qt-mt323:qt-mt323.dll
 0001:00019398       ?setUsesTextLabel@QMainWindow@@UAEX_N@Z 0041a398 f   qt-mt323:qt-mt323.dll
 0001:0001939e       ?setUsesBigPixmaps@QMainWindow@@UAEX_N@Z 0041a39e f   qt-mt323:qt-mt323.dll
 0001:000193a4       ?setRightJustification@QMainWindow@@UAEX_N@Z 0041a3a4 f   qt-mt323:qt-mt323.dll
 0001:000193aa       ?isCustomizable@QMainWindow@@UBE_NXZ 0041a3aa f   qt-mt323:qt-mt323.dll
 0001:000193b0       ?dockingArea@QMainWindow@@UAEPAVQDockArea@@ABVQPoint@@@Z 0041a3b0 f   qt-mt323:qt-mt323.dll
 0001:000193b6       ?removeDockWindow@QMainWindow@@UAEXPAVQDockWindow@@@Z 0041a3b6 f   qt-mt323:qt-mt323.dll
 0001:000193bc       ?moveDockWindow@QMainWindow@@UAEXPAVQDockWindow@@W4Dock@Qt@@@Z 0041a3bc f   qt-mt323:qt-mt323.dll
 0001:000193c2       ?moveDockWindow@QMainWindow@@UAEXPAVQDockWindow@@W4Dock@Qt@@_NHH@Z 0041a3c2 f   qt-mt323:qt-mt323.dll
 0001:000193c8       ?addDockWindow@QMainWindow@@UAEXPAVQDockWindow@@W4Dock@Qt@@_N@Z 0041a3c8 f   qt-mt323:qt-mt323.dll
 0001:000193ce       ?addDockWindow@QMainWindow@@UAEXPAVQDockWindow@@ABVQString@@W4Dock@Qt@@_N@Z 0041a3ce f   qt-mt323:qt-mt323.dll
 0001:000193d4       ?setDockEnabled@QMainWindow@@UAEXW4Dock@Qt@@_N@Z 0041a3d4 f   qt-mt323:qt-mt323.dll
 0001:000193da       ?setDockEnabled@QMainWindow@@UAEXPAVQDockWindow@@W4Dock@Qt@@_N@Z 0041a3da f   qt-mt323:qt-mt323.dll
 0001:000193e0       ?setCentralWidget@QMainWindow@@UAEXPAVQWidget@@@Z 0041a3e0 f   qt-mt323:qt-mt323.dll
 0001:000193e6       ?focusNextPrevChild@QWidget@@MAE_N_N@Z 0041a3e6 f   qt-mt323:qt-mt323.dll
 0001:000193ec       ?enabledChange@QWidget@@MAEX_N@Z 0041a3ec f   qt-mt323:qt-mt323.dll
 0001:000193f2       ?styleChange@QMainWindow@@MAEXAAVQStyle@@@Z 0041a3f2 f   qt-mt323:qt-mt323.dll
 0001:000193f8       ?resizeEvent@QWidget@@MAEXPAVQResizeEvent@@@Z 0041a3f8 f   qt-mt323:qt-mt323.dll
 0001:000193fe       ?paintEvent@QMainWindow@@MAEXPAVQPaintEvent@@@Z 0041a3fe f   qt-mt323:qt-mt323.dll
 0001:00019404       ?leaveEvent@QWidget@@MAEXPAVQEvent@@@Z 0041a404 f   qt-mt323:qt-mt323.dll
 0001:0001940a       ?focusOutEvent@QWidget@@MAEXPAVQFocusEvent@@@Z 0041a40a f   qt-mt323:qt-mt323.dll
 0001:00019410       ?focusInEvent@QWidget@@MAEXPAVQFocusEvent@@@Z 0041a410 f   qt-mt323:qt-mt323.dll
 0001:00019416       ?keyPressEvent@QWidget@@MAEXPAVQKeyEvent@@@Z 0041a416 f   qt-mt323:qt-mt323.dll
 0001:0001941c       ?mouseMoveEvent@QWidget@@MAEXPAVQMouseEvent@@@Z 0041a41c f   qt-mt323:qt-mt323.dll
 0001:00019422       ?mouseReleaseEvent@QWidget@@MAEXPAVQMouseEvent@@@Z 0041a422 f   qt-mt323:qt-mt323.dll
 0001:00019428       ?mousePressEvent@QWidget@@MAEXPAVQMouseEvent@@@Z 0041a428 f   qt-mt323:qt-mt323.dll
 0001:0001942e       ?customWhatsThis@QWidget@@UBE_NXZ 0041a42e f   qt-mt323:qt-mt323.dll
 0001:00019434       ?minimumSizeHint@QMainWindow@@UBE?AVQSize@@XZ 0041a434 f   qt-mt323:qt-mt323.dll
 0001:0001943a       ?sizeHint@QMainWindow@@UBE?AVQSize@@XZ 0041a43a f   qt-mt323:qt-mt323.dll
 0001:00019440       ?hide@QMainWindow@@UAEXXZ  0041a440 f   qt-mt323:qt-mt323.dll
 0001:00019446       ?show@QMainWindow@@UAEXXZ  0041a446 f   qt-mt323:qt-mt323.dll
 0001:0001944c       ?setFont@QWidget@@UAEXABVQFont@@@Z 0041a44c f   qt-mt323:qt-mt323.dll
 0001:00019452       ?childEvent@QMainWindow@@MAEXPAVQChildEvent@@@Z 0041a452 f   qt-mt323:qt-mt323.dll
 0001:00019458       ?timerEvent@QObject@@MAEXPAVQTimerEvent@@@Z 0041a458 f   qt-mt323:qt-mt323.dll
 0001:0001945e       ?eventFilter@QMainWindow@@UAE_NPAVQObject@@PAVQEvent@@@Z 0041a45e f   qt-mt323:qt-mt323.dll
 0001:00019464       ?event@QMainWindow@@MAE_NPAVQEvent@@@Z 0041a464 f   qt-mt323:qt-mt323.dll
 0001:0001946a       ?menuDelPopup@QPopupMenu@@EAEXPAV1@@Z 0041a46a f   qt-mt323:qt-mt323.dll
 0001:00019470       ?menuInsPopup@QPopupMenu@@EAEXPAV1@@Z 0041a470 f   qt-mt323:qt-mt323.dll
 0001:00019476       ?menuStateChanged@QPopupMenu@@EAEXXZ 0041a476 f   qt-mt323:qt-mt323.dll
 0001:0001947c       ?menuContentsChanged@QPopupMenu@@EAEXXZ 0041a47c f   qt-mt323:qt-mt323.dll
 0001:00019482       ?activateItemAt@QPopupMenu@@UAEXH@Z 0041a482 f   qt-mt323:qt-mt323.dll
 0001:00019488       ?setId@QMenuData@@UAEXHH@Z 0041a488 f   qt-mt323:qt-mt323.dll
 0001:0001948e       ?updateItem@QPopupMenu@@UAEXH@Z 0041a48e f   qt-mt323:qt-mt323.dll
 0001:00019494       ?fontInf@QPaintDevice@@MBEHPAVQFont@@H@Z 0041a494 f   qt-mt323:qt-mt323.dll
 0001:0001949a       ?fontMet@QPaintDevice@@MBEHPAVQFont@@HPBDH@Z 0041a49a f   qt-mt323:qt-mt323.dll
 0001:000194a0       ?metric@QWidget@@MBEHH@Z   0041a4a0 f   qt-mt323:qt-mt323.dll
 0001:000194a6       ?cmd@QPaintDevice@@MAE_NHPAVQPainter@@PATQPDevCmdParam@@@Z 0041a4a6 f   qt-mt323:qt-mt323.dll
 0001:000194ac       ?handle@QPaintDevice@@UBEPAUHDC__@@XZ 0041a4ac f   qt-mt323:qt-mt323.dll
 0001:000194b2       ?resolution@QPaintDevice@@UBEHXZ 0041a4b2 f   qt-mt323:qt-mt323.dll
 0001:000194b8       ?setResolution@QPaintDevice@@UAEXH@Z 0041a4b8 f   qt-mt323:qt-mt323.dll
 0001:000194be       ?setFirstItemActive@QPopupMenu@@EAEXXZ 0041a4be f   qt-mt323:qt-mt323.dll
 0001:000194c4       ?setActiveItem@QPopupMenu@@UAEXH@Z 0041a4c4 f   qt-mt323:qt-mt323.dll
 0001:000194ca       ?setCheckable@QPopupMenu@@UAEX_N@Z 0041a4ca f   qt-mt323:qt-mt323.dll
 0001:000194d0       ?frameChanged@QPopupMenu@@EAEXXZ 0041a4d0 f   qt-mt323:qt-mt323.dll
 0001:000194d6       ?drawContents@QPopupMenu@@MAEXPAVQPainter@@@Z 0041a4d6 f   qt-mt323:qt-mt323.dll
 0001:000194dc       ?drawFrame@QFrame@@MAEXPAVQPainter@@@Z 0041a4dc f   qt-mt323:qt-mt323.dll
 0001:000194e2       ?setFrameRect@QFrame@@UAEXABVQRect@@@Z 0041a4e2 f   qt-mt323:qt-mt323.dll
 0001:000194e8       ?setMidLineWidth@QFrame@@UAEXH@Z 0041a4e8 f   qt-mt323:qt-mt323.dll
 0001:000194ee       ?setMargin@QFrame@@UAEXH@Z 0041a4ee f   qt-mt323:qt-mt323.dll
 0001:000194f4       ?setLineWidth@QFrame@@UAEXH@Z 0041a4f4 f   qt-mt323:qt-mt323.dll
 0001:000194fa       ?setFrameStyle@QFrame@@UAEXH@Z 0041a4fa f   qt-mt323:qt-mt323.dll
 0001:00019500       ?setMicroFocusHint@QWidget@@MAEXHHHH_NPAVQFont@@@Z 0041a500 f   qt-mt323:qt-mt323.dll
 0001:00019506       ?setKeyCompression@QWidget@@MAEX_N@Z 0041a506 f   qt-mt323:qt-mt323.dll
 0001:0001950c       ?focusNextPrevChild@QPopupMenu@@MAE_N_N@Z 0041a50c f   qt-mt323:qt-mt323.dll
 0001:00019512       ?setWFlags@QWidget@@MAEXI@Z 0041a512 f   qt-mt323:qt-mt323.dll
 0001:00019518       ?setWState@QWidget@@MAEXI@Z 0041a518 f   qt-mt323:qt-mt323.dll
 0001:0001951e       ?destroy@QWidget@@MAEX_N0@Z 0041a51e f   qt-mt323:qt-mt323.dll
 0001:00019524       ?create@QWidget@@MAEXPAUHWND__@@_N1@Z 0041a524 f   qt-mt323:qt-mt323.dll
 0001:0001952a       ?windowActivationChange@QWidget@@MAEX_N@Z 0041a52a f   qt-mt323:qt-mt323.dll
 0001:00019530       ?fontChange@QWidget@@MAEXABVQFont@@@Z 0041a530 f   qt-mt323:qt-mt323.dll
 0001:00019536       ?paletteChange@QWidget@@MAEXABVQPalette@@@Z 0041a536 f   qt-mt323:qt-mt323.dll
 0001:0001953c       ?enabledChange@QPopupMenu@@MAEX_N@Z 0041a53c f   qt-mt323:qt-mt323.dll
 0001:00019542       ?styleChange@QPopupMenu@@MAEXAAVQStyle@@@Z 0041a542 f   qt-mt323:qt-mt323.dll
 0001:00019548       ?updateMask@QWidget@@MAEXXZ 0041a548 f   qt-mt323:qt-mt323.dll
 0001:0001954e       ?winEvent@QWidget@@MAE_NPAUtagMSG@@@Z 0041a54e f   qt-mt323:qt-mt323.dll
 0001:00019554       ?hideEvent@QWidget@@MAEXPAVQHideEvent@@@Z 0041a554 f   qt-mt323:qt-mt323.dll
 0001:0001955a       ?showEvent@QWidget@@MAEXPAVQShowEvent@@@Z 0041a55a f   qt-mt323:qt-mt323.dll
 0001:00019560       ?dropEvent@QWidget@@MAEXPAVQDropEvent@@@Z 0041a560 f   qt-mt323:qt-mt323.dll
 0001:00019566       ?dragLeaveEvent@QWidget@@MAEXPAVQDragLeaveEvent@@@Z 0041a566 f   qt-mt323:qt-mt323.dll
 0001:0001956c       ?dragMoveEvent@QWidget@@MAEXPAVQDragMoveEvent@@@Z 0041a56c f   qt-mt323:qt-mt323.dll
 0001:00019572       ?dragEnterEvent@QWidget@@MAEXPAVQDragEnterEvent@@@Z 0041a572 f   qt-mt323:qt-mt323.dll
 0001:00019578       ?tabletEvent@QWidget@@MAEXPAVQTabletEvent@@@Z 0041a578 f   qt-mt323:qt-mt323.dll
 0001:0001957e       ?imEndEvent@QWidget@@MAEXPAVQIMEvent@@@Z 0041a57e f   qt-mt323:qt-mt323.dll
 0001:00019584       ?imComposeEvent@QWidget@@MAEXPAVQIMEvent@@@Z 0041a584 f   qt-mt323:qt-mt323.dll
 0001:0001958a       ?imStartEvent@QWidget@@MAEXPAVQIMEvent@@@Z 0041a58a f   qt-mt323:qt-mt323.dll
 0001:00019590       ?contextMenuEvent@QWidget@@MAEXPAVQContextMenuEvent@@@Z 0041a590 f   qt-mt323:qt-mt323.dll
 0001:00019596       ?closeEvent@QPopupMenu@@MAEXPAVQCloseEvent@@@Z 0041a596 f   qt-mt323:qt-mt323.dll
 0001:0001959c       ?resizeEvent@QFrame@@MAEXPAVQResizeEvent@@@Z 0041a59c f   qt-mt323:qt-mt323.dll
 0001:000195a2       ?moveEvent@QWidget@@MAEXPAVQMoveEvent@@@Z 0041a5a2 f   qt-mt323:qt-mt323.dll
 0001:000195a8       ?paintEvent@QPopupMenu@@MAEXPAVQPaintEvent@@@Z 0041a5a8 f   qt-mt323:qt-mt323.dll
 0001:000195ae       ?leaveEvent@QPopupMenu@@MAEXPAVQEvent@@@Z 0041a5ae f   qt-mt323:qt-mt323.dll
 0001:000195b4       ?enterEvent@QWidget@@MAEXPAVQEvent@@@Z 0041a5b4 f   qt-mt323:qt-mt323.dll
 0001:000195ba       ?focusOutEvent@QPopupMenu@@MAEXPAVQFocusEvent@@@Z 0041a5ba f   qt-mt323:qt-mt323.dll
 0001:000195c0       ?focusInEvent@QPopupMenu@@MAEXPAVQFocusEvent@@@Z 0041a5c0 f   qt-mt323:qt-mt323.dll
 0001:000195c6       ?keyReleaseEvent@QWidget@@MAEXPAVQKeyEvent@@@Z 0041a5c6 f   qt-mt323:qt-mt323.dll
 0001:000195cc       ?keyPressEvent@QPopupMenu@@MAEXPAVQKeyEvent@@@Z 0041a5cc f   qt-mt323:qt-mt323.dll
 0001:000195d2       ?wheelEvent@QWidget@@MAEXPAVQWheelEvent@@@Z 0041a5d2 f   qt-mt323:qt-mt323.dll
 0001:000195d8       ?mouseMoveEvent@QPopupMenu@@MAEXPAVQMouseEvent@@@Z 0041a5d8 f   qt-mt323:qt-mt323.dll
 0001:000195de       ?mouseDoubleClickEvent@QWidget@@MAEXPAVQMouseEvent@@@Z 0041a5de f   qt-mt323:qt-mt323.dll
 0001:000195e4       ?mouseReleaseEvent@QPopupMenu@@MAEXPAVQMouseEvent@@@Z 0041a5e4 f   qt-mt323:qt-mt323.dll
 0001:000195ea       ?mousePressEvent@QPopupMenu@@MAEXPAVQMouseEvent@@@Z 0041a5ea f   qt-mt323:qt-mt323.dll
 0001:000195f0       ?customWhatsThis@QPopupMenu@@UBE_NXZ 0041a5f0 f   qt-mt323:qt-mt323.dll
 0001:000195f6       ?setBackgroundOrigin@QWidget@@UAEXW4BackgroundOrigin@1@@Z 0041a5f6 f   qt-mt323:qt-mt323.dll
 0001:000195fc       ?setAutoMask@QWidget@@UAEX_N@Z 0041a5fc f   qt-mt323:qt-mt323.dll
 0001:00019602       ?setAcceptDrops@QWidget@@UAEX_N@Z 0041a602 f   qt-mt323:qt-mt323.dll
 0001:00019608       ?reparent@QWidget@@UAEXPAV1@IABVQPoint@@_N@Z 0041a608 f   qt-mt323:qt-mt323.dll
 0001:0001960e       ?adjustSize@QWidget@@UAEXXZ 0041a60e f   qt-mt323:qt-mt323.dll
 0001:00019614       ?heightForWidth@QWidget@@UBEHH@Z 0041a614 f   qt-mt323:qt-mt323.dll
 0001:0001961a       ?setSizePolicy@QWidget@@UAEXVQSizePolicy@@@Z 0041a61a f   qt-mt323:qt-mt323.dll
 0001:00019620       ?sizePolicy@QWidget@@UBE?AVQSizePolicy@@XZ 0041a620 f   qt-mt323:qt-mt323.dll
 0001:00019626       ?minimumSizeHint@QWidget@@UBE?AVQSize@@XZ 0041a626 f   qt-mt323:qt-mt323.dll
 0001:0001962c       ?sizeHint@QPopupMenu@@UBE?AVQSize@@XZ 0041a62c f   qt-mt323:qt-mt323.dll
 0001:00019632       ?setGeometry@QWidget@@UAEXHHHH@Z 0041a632 f   qt-mt323:qt-mt323.dll
 0001:00019638       ?setGeometry@QWidget@@UAEXABVQRect@@@Z 0041a638 f   qt-mt323:qt-mt323.dll
 0001:0001963e       ?resize@QWidget@@UAEXHH@Z  0041a63e f   qt-mt323:qt-mt323.dll
 0001:00019644       ?move@QWidget@@UAEXHH@Z    0041a644 f   qt-mt323:qt-mt323.dll
 0001:0001964a       ?close@QWidget@@UAE_N_N@Z  0041a64a f   qt-mt323:qt-mt323.dll
 0001:00019650       ?polish@QWidget@@UAEXXZ    0041a650 f   qt-mt323:qt-mt323.dll
 0001:00019656       ?showNormal@QWidget@@UAEXXZ 0041a656 f   qt-mt323:qt-mt323.dll
 0001:0001965c       ?showMaximized@QWidget@@UAEXXZ 0041a65c f   qt-mt323:qt-mt323.dll
 0001:00019662       ?hide@QPopupMenu@@UAEXXZ   0041a662 f   qt-mt323:qt-mt323.dll
 0001:00019668       ?show@QPopupMenu@@UAEXXZ   0041a668 f   qt-mt323:qt-mt323.dll
 0001:0001966e       ?setUpdatesEnabled@QWidget@@UAEX_N@Z 0041a66e f   qt-mt323:qt-mt323.dll
 0001:00019674       ?setFocusProxy@QWidget@@UAEXPAV1@@Z 0041a674 f   qt-mt323:qt-mt323.dll
 0001:0001967a       ?setFocusPolicy@QWidget@@UAEXW4FocusPolicy@1@@Z 0041a67a f   qt-mt323:qt-mt323.dll
 0001:00019680       ?setActiveWindow@QWidget@@UAEXXZ 0041a680 f   qt-mt323:qt-mt323.dll
 0001:00019686       ?setFocus@QWidget@@UAEXXZ  0041a686 f   qt-mt323:qt-mt323.dll
 0001:0001968c       ?setMouseTracking@QWidget@@UAEX_N@Z 0041a68c f   qt-mt323:qt-mt323.dll
 0001:00019692       ?setIconText@QWidget@@UAEXABVQString@@@Z 0041a692 f   qt-mt323:qt-mt323.dll
 0001:00019698       ?setIcon@QWidget@@UAEXABVQPixmap@@@Z 0041a698 f   qt-mt323:qt-mt323.dll
 0001:0001969e       ?setCaption@QWidget@@UAEXABVQString@@@Z 0041a69e f   qt-mt323:qt-mt323.dll
 0001:000196a4       ?setBackgroundPixmap@QWidget@@UAEXABVQPixmap@@@Z 0041a6a4 f   qt-mt323:qt-mt323.dll
 0001:000196aa       ?setBackgroundColor@QWidget@@UAEXABVQColor@@@Z 0041a6aa f   qt-mt323:qt-mt323.dll
 0001:000196b0       ?setMask@QWidget@@UAEXABVQBitmap@@@Z 0041a6b0 f   qt-mt323:qt-mt323.dll
 0001:000196b6       ?setMask@QWidget@@UAEXABVQRegion@@@Z 0041a6b6 f   qt-mt323:qt-mt323.dll
 0001:000196bc       ?unsetCursor@QWidget@@UAEXXZ 0041a6bc f   qt-mt323:qt-mt323.dll
 0001:000196c2       ?setCursor@QWidget@@UAEXABVQCursor@@@Z 0041a6c2 f   qt-mt323:qt-mt323.dll
 0001:000196c8       ?setFont@QPopupMenu@@UAEXABVQFont@@@Z 0041a6c8 f   qt-mt323:qt-mt323.dll
 0001:000196ce       ?setPaletteBackgroundPixmap@QWidget@@UAEXABVQPixmap@@@Z 0041a6ce f   qt-mt323:qt-mt323.dll
 0001:000196d4       ?setPaletteBackgroundColor@QWidget@@UAEXABVQColor@@@Z 0041a6d4 f   qt-mt323:qt-mt323.dll
 0001:000196da       ?setPalette@QWidget@@UAEXABVQPalette@@@Z 0041a6da f   qt-mt323:qt-mt323.dll
 0001:000196e0       ?setErasePixmap@QWidget@@UAEXABVQPixmap@@@Z 0041a6e0 f   qt-mt323:qt-mt323.dll
 0001:000196e6       ?setEraseColor@QWidget@@UAEXABVQColor@@@Z 0041a6e6 f   qt-mt323:qt-mt323.dll
 0001:000196ec       ?setBackgroundMode@QWidget@@UAEXW4BackgroundMode@Qt@@@Z 0041a6ec f   qt-mt323:qt-mt323.dll
 0001:000196f2       ?setSizeIncrement@QWidget@@UAEXHH@Z 0041a6f2 f   qt-mt323:qt-mt323.dll
 0001:000196f8       ?setMaximumSize@QWidget@@UAEXHH@Z 0041a6f8 f   qt-mt323:qt-mt323.dll
 0001:000196fe       ?setMinimumSize@QWidget@@UAEXHH@Z 0041a6fe f   qt-mt323:qt-mt323.dll
 0001:00019704       ?setEnabled@QWidget@@UAEX_N@Z 0041a704 f   qt-mt323:qt-mt323.dll
 0001:0001970a       ?checkConnectArgs@QObject@@MAE_NPBDPBV1@0@Z 0041a70a f   qt-mt323:qt-mt323.dll
 0001:00019710       ?disconnectNotify@QObject@@MAEXPBD@Z 0041a710 f   qt-mt323:qt-mt323.dll
 0001:00019716       ?connectNotify@QObject@@MAEXPBD@Z 0041a716 f   qt-mt323:qt-mt323.dll
 0001:0001971c       ?customEvent@QObject@@MAEXPAVQCustomEvent@@@Z 0041a71c f   qt-mt323:qt-mt323.dll
 0001:00019722       ?childEvent@QObject@@MAEXPAVQChildEvent@@@Z 0041a722 f   qt-mt323:qt-mt323.dll
 0001:00019728       ?timerEvent@QPopupMenu@@MAEXPAVQTimerEvent@@@Z 0041a728 f   qt-mt323:qt-mt323.dll
 0001:0001972e       ?property@QObject@@UBE?AVQVariant@@PBD@Z 0041a72e f   qt-mt323:qt-mt323.dll
 0001:00019734       ?setProperty@QObject@@UAE_NPBDABVQVariant@@@Z 0041a734 f   qt-mt323:qt-mt323.dll
 0001:0001973a       ?removeChild@QObject@@UAEXPAV1@@Z 0041a73a f   qt-mt323:qt-mt323.dll
 0001:00019740       ?insertChild@QObject@@UAEXPAV1@@Z 0041a740 f   qt-mt323:qt-mt323.dll
 0001:00019746       ?setName@QWidget@@UAEXPBD@Z 0041a746 f   qt-mt323:qt-mt323.dll
 0001:0001974c       ?eventFilter@QObject@@UAE_NPAV1@PAVQEvent@@@Z 0041a74c f   qt-mt323:qt-mt323.dll
 0001:00019752       ?event@QWidget@@MAE_NPAVQEvent@@@Z 0041a752 f   qt-mt323:qt-mt323.dll
 0001:00019758       ?qt_property@QPopupMenu@@UAE_NHHPAVQVariant@@@Z 0041a758 f   qt-mt323:qt-mt323.dll
 0001:0001975e       ?qt_emit@QPopupMenu@@UAE_NHPAUQUObject@@@Z 0041a75e f   qt-mt323:qt-mt323.dll
 0001:00019764       ?qt_invoke@QPopupMenu@@UAE_NHPAUQUObject@@@Z 0041a764 f   qt-mt323:qt-mt323.dll
 0001:0001976a       ?qt_cast@QPopupMenu@@UAEPAXPBD@Z 0041a76a f   qt-mt323:qt-mt323.dll
 0001:00019770       ?className@QPopupMenu@@UBEPBDXZ 0041a770 f   qt-mt323:qt-mt323.dll
 0001:00019776       ?metaObject@QPopupMenu@@UBEPAVQMetaObject@@XZ 0041a776 f   qt-mt323:qt-mt323.dll
 0001:0001977c       ?setOn@QPushButton@@UAEX_N@Z 0041a77c f   qt-mt323:qt-mt323.dll
 0001:00019782       ?setIsMenuButton@QPushButton@@UAEX_N@Z 0041a782 f   qt-mt323:qt-mt323.dll
 0001:00019788       ?setDefault@QPushButton@@UAEX_N@Z 0041a788 f   qt-mt323:qt-mt323.dll
 0001:0001978e       ?setAutoDefault@QPushButton@@UAEX_N@Z 0041a78e f   qt-mt323:qt-mt323.dll
 0001:00019794       ?setGroup@QButton@@EAEXPAVQButtonGroup@@@Z 0041a794 f   qt-mt323:qt-mt323.dll
 0001:0001979a       ?drawButtonLabel@QPushButton@@MAEXPAVQPainter@@@Z 0041a79a f   qt-mt323:qt-mt323.dll
 0001:000197a0       ?drawButton@QPushButton@@MAEXPAVQPainter@@@Z 0041a7a0 f   qt-mt323:qt-mt323.dll
 0001:000197a6       ?hitButton@QButton@@MBE_NABVQPoint@@@Z 0041a7a6 f   qt-mt323:qt-mt323.dll
 0001:000197ac       ?setState@QButton@@MAEXW4ToggleState@1@@Z 0041a7ac f   qt-mt323:qt-mt323.dll
 0001:000197b2       ?setToggleType@QButton@@MAEXW4ToggleType@1@@Z 0041a7b2 f   qt-mt323:qt-mt323.dll
 0001:000197b8       ?setAutoRepeat@QButton@@UAEX_N@Z 0041a7b8 f   qt-mt323:qt-mt323.dll
 0001:000197be       ?setDown@QButton@@UAEX_N@Z 0041a7be f   qt-mt323:qt-mt323.dll
 0001:000197c4       ?setAccel@QButton@@UAEXABVQKeySequence@@@Z 0041a7c4 f   qt-mt323:qt-mt323.dll
 0001:000197ca       ?setPixmap@QButton@@UAEXABVQPixmap@@@Z 0041a7ca f   qt-mt323:qt-mt323.dll
 0001:000197d0       ?setText@QButton@@UAEXABVQString@@@Z 0041a7d0 f   qt-mt323:qt-mt323.dll
 0001:000197d6       ?enabledChange@QButton@@MAEX_N@Z 0041a7d6 f   qt-mt323:qt-mt323.dll
 0001:000197dc       ?updateMask@QPushButton@@MAEXXZ 0041a7dc f   qt-mt323:qt-mt323.dll
 0001:000197e2       ?resizeEvent@QPushButton@@MAEXPAVQResizeEvent@@@Z 0041a7e2 f   qt-mt323:qt-mt323.dll
 0001:000197e8       ?paintEvent@QButton@@MAEXPAVQPaintEvent@@@Z 0041a7e8 f   qt-mt323:qt-mt323.dll
 0001:000197ee       ?focusOutEvent@QPushButton@@MAEXPAVQFocusEvent@@@Z 0041a7ee f   qt-mt323:qt-mt323.dll
 0001:000197f4       ?focusInEvent@QPushButton@@MAEXPAVQFocusEvent@@@Z 0041a7f4 f   qt-mt323:qt-mt323.dll
 0001:000197fa       ?keyReleaseEvent@QButton@@MAEXPAVQKeyEvent@@@Z 0041a7fa f   qt-mt323:qt-mt323.dll
 0001:00019800       ?keyPressEvent@QButton@@MAEXPAVQKeyEvent@@@Z 0041a800 f   qt-mt323:qt-mt323.dll
 0001:00019806       ?mouseMoveEvent@QButton@@MAEXPAVQMouseEvent@@@Z 0041a806 f   qt-mt323:qt-mt323.dll
 0001:0001980c       ?mouseReleaseEvent@QButton@@MAEXPAVQMouseEvent@@@Z 0041a80c f   qt-mt323:qt-mt323.dll
 0001:00019812       ?mousePressEvent@QButton@@MAEXPAVQMouseEvent@@@Z 0041a812 f   qt-mt323:qt-mt323.dll
 0001:00019818       ?sizeHint@QPushButton@@UBE?AVQSize@@XZ 0041a818 f   qt-mt323:qt-mt323.dll
 0001:0001981e       ?setGeometry@QPushButton@@UAEXHHHH@Z 0041a81e f   qt-mt323:qt-mt323.dll
 0001:00019824       ?setGeometry@QPushButton@@UAEXABVQRect@@@Z 0041a824 f   qt-mt323:qt-mt323.dll
 0001:0001982a       ?resize@QPushButton@@UAEXHH@Z 0041a82a f   qt-mt323:qt-mt323.dll
 0001:00019830       ?move@QPushButton@@UAEXHH@Z 0041a830 f   qt-mt323:qt-mt323.dll
 0001:00019836       ?qt_property@QPushButton@@UAE_NHHPAVQVariant@@@Z 0041a836 f   qt-mt323:qt-mt323.dll
 0001:0001983c       ?qt_emit@QPushButton@@UAE_NHPAUQUObject@@@Z 0041a83c f   qt-mt323:qt-mt323.dll
 0001:00019842       ?qt_invoke@QPushButton@@UAE_NHPAUQUObject@@@Z 0041a842 f   qt-mt323:qt-mt323.dll
 0001:00019848       ?qt_cast@QPushButton@@UAEPAXPBD@Z 0041a848 f   qt-mt323:qt-mt323.dll
 0001:0001984e       ?className@QPushButton@@UBEPBDXZ 0041a84e f   qt-mt323:qt-mt323.dll
 0001:00019854       ?metaObject@QPushButton@@UBEPAVQMetaObject@@XZ 0041a854 f   qt-mt323:qt-mt323.dll
 0001:0001985a       ?spacerItem@QSpacerItem@@UAEPAV1@XZ 0041a85a f   qt-mt323:qt-mt323.dll
 0001:00019860       ?layout@QLayoutItem@@UAEPAVQLayout@@XZ 0041a860 f   qt-mt323:qt-mt323.dll
 0001:00019866       ?iterator@QLayoutItem@@UAE?AVQLayoutIterator@@XZ 0041a866 f   qt-mt323:qt-mt323.dll
 0001:0001986c       ?invalidate@QLayoutItem@@UAEXXZ 0041a86c f   qt-mt323:qt-mt323.dll
 0001:00019872       ?heightForWidth@QLayoutItem@@UBEHH@Z 0041a872 f   qt-mt323:qt-mt323.dll
 0001:00019878       ?hasHeightForWidth@QLayoutItem@@UBE_NXZ 0041a878 f   qt-mt323:qt-mt323.dll
 0001:0001987e       ?isEmpty@QSpacerItem@@UBE_NXZ 0041a87e f   qt-mt323:qt-mt323.dll
 0001:00019884       ?geometry@QSpacerItem@@UBE?AVQRect@@XZ 0041a884 f   qt-mt323:qt-mt323.dll
 0001:0001988a       ?setGeometry@QSpacerItem@@UAEXABVQRect@@@Z 0041a88a f   qt-mt323:qt-mt323.dll
 0001:00019890       ?expanding@QSpacerItem@@UBE?AW4ExpandData@QSizePolicy@@XZ 0041a890 f   qt-mt323:qt-mt323.dll
 0001:00019896       ?maximumSize@QSpacerItem@@UBE?AVQSize@@XZ 0041a896 f   qt-mt323:qt-mt323.dll
 0001:0001989c       ?minimumSize@QSpacerItem@@UBE?AVQSize@@XZ 0041a89c f   qt-mt323:qt-mt323.dll
 0001:000198a2       ?sizeHint@QSpacerItem@@UBE?AVQSize@@XZ 0041a8a2 f   qt-mt323:qt-mt323.dll
 0001:000198a8       ?reject@QDialog@@MAEXXZ    0041a8a8 f   qt-mt323:qt-mt323.dll
 0001:000198ae       ?done@QDialog@@MAEXH@Z     0041a8ae f   qt-mt323:qt-mt323.dll
 0001:000198b4       ?styleChange@QWidget@@MAEXAAVQStyle@@@Z 0041a8b4 f   qt-mt323:qt-mt323.dll
 0001:000198ba       ?contextMenuEvent@QDialog@@MAEXPAVQContextMenuEvent@@@Z 0041a8ba f   qt-mt323:qt-mt323.dll
 0001:000198c0       ?closeEvent@QDialog@@MAEXPAVQCloseEvent@@@Z 0041a8c0 f   qt-mt323:qt-mt323.dll
 0001:000198c6       ?resizeEvent@QDialog@@MAEXPAVQResizeEvent@@@Z 0041a8c6 f   qt-mt323:qt-mt323.dll
 0001:000198cc       ?paintEvent@QWidget@@MAEXPAVQPaintEvent@@@Z 0041a8cc f   qt-mt323:qt-mt323.dll
 0001:000198d2       ?keyPressEvent@QDialog@@MAEXPAVQKeyEvent@@@Z 0041a8d2 f   qt-mt323:qt-mt323.dll
 0001:000198d8       ?minimumSizeHint@QDialog@@UBE?AVQSize@@XZ 0041a8d8 f   qt-mt323:qt-mt323.dll
 0001:000198de       ?sizeHint@QDialog@@UBE?AVQSize@@XZ 0041a8de f   qt-mt323:qt-mt323.dll
 0001:000198e4       ?setGeometry@QDialog@@UAEXHHHH@Z 0041a8e4 f   qt-mt323:qt-mt323.dll
 0001:000198ea       ?setGeometry@QDialog@@UAEXABVQRect@@@Z 0041a8ea f   qt-mt323:qt-mt323.dll
 0001:000198f0       ?resize@QDialog@@UAEXHH@Z  0041a8f0 f   qt-mt323:qt-mt323.dll
 0001:000198f6       ?move@QDialog@@UAEXHH@Z    0041a8f6 f   qt-mt323:qt-mt323.dll
 0001:000198fc       ?hide@QDialog@@UAEXXZ      0041a8fc f   qt-mt323:qt-mt323.dll
 0001:00019902       ?show@QDialog@@UAEXXZ      0041a902 f   qt-mt323:qt-mt323.dll
 0001:00019908       ?eventFilter@QDialog@@MAE_NPAVQObject@@PAVQEvent@@@Z 0041a908 f   qt-mt323:qt-mt323.dll
 0001:0001990e       ?setNum@QLabel@@UAEXH@Z    0041a90e f   qt-mt323:qt-mt323.dll
 0001:00019914       ?setNum@QLabel@@UAEXN@Z    0041a914 f   qt-mt323:qt-mt323.dll
 0001:0001991a       ?setMovie@QLabel@@UAEXABVQMovie@@@Z 0041a91a f   qt-mt323:qt-mt323.dll
 0001:00019920       ?setPicture@QLabel@@UAEXABVQPicture@@@Z 0041a920 f   qt-mt323:qt-mt323.dll
 0001:00019926       ?setPixmap@QLabel@@UAEXABVQPixmap@@@Z 0041a926 f   qt-mt323:qt-mt323.dll
 0001:0001992c       ?setText@QLabel@@UAEXABVQString@@@Z 0041a92c f   qt-mt323:qt-mt323.dll
 0001:00019932       ?setBuddy@QLabel@@UAEXPAVQWidget@@@Z 0041a932 f   qt-mt323:qt-mt323.dll
 0001:00019938       ?setAutoResize@QLabel@@UAEX_N@Z 0041a938 f   qt-mt323:qt-mt323.dll
 0001:0001993e       ?setAlignment@QLabel@@UAEXH@Z 0041a93e f   qt-mt323:qt-mt323.dll
 0001:00019944       ?frameChanged@QFrame@@MAEXXZ 0041a944 f   qt-mt323:qt-mt323.dll
 0001:0001994a       ?drawContents@QLabel@@MAEXPAVQPainter@@@Z 0041a94a f   qt-mt323:qt-mt323.dll
 0001:00019950       ?fontChange@QLabel@@MAEXABVQFont@@@Z 0041a950 f   qt-mt323:qt-mt323.dll
 0001:00019956       ?styleChange@QFrame@@MAEXAAVQStyle@@@Z 0041a956 f   qt-mt323:qt-mt323.dll
 0001:0001995c       ?closeEvent@QWidget@@MAEXPAVQCloseEvent@@@Z 0041a95c f   qt-mt323:qt-mt323.dll
 0001:00019962       ?resizeEvent@QLabel@@MAEXPAVQResizeEvent@@@Z 0041a962 f   qt-mt323:qt-mt323.dll
 0001:00019968       ?paintEvent@QFrame@@MAEXPAVQPaintEvent@@@Z 0041a968 f   qt-mt323:qt-mt323.dll
 0001:0001996e       ?heightForWidth@QLabel@@UBEHH@Z 0041a96e f   qt-mt323:qt-mt323.dll
 0001:00019974       ?minimumSizeHint@QLabel@@UBE?AVQSize@@XZ 0041a974 f   qt-mt323:qt-mt323.dll
 0001:0001997a       ?sizeHint@QLabel@@UBE?AVQSize@@XZ 0041a97a f   qt-mt323:qt-mt323.dll
 0001:00019980       ?hide@QWidget@@UAEXXZ      0041a980 f   qt-mt323:qt-mt323.dll
 0001:00019986       ?show@QWidget@@UAEXXZ      0041a986 f   qt-mt323:qt-mt323.dll
 0001:0001998c       ?setFont@QLabel@@UAEXABVQFont@@@Z 0041a98c f   qt-mt323:qt-mt323.dll
 0001:00019992       ?qt_property@QLabel@@UAE_NHHPAVQVariant@@@Z 0041a992 f   qt-mt323:qt-mt323.dll
 0001:00019998       ?qt_emit@QLabel@@UAE_NHPAUQUObject@@@Z 0041a998 f   qt-mt323:qt-mt323.dll
 0001:0001999e       ?qt_invoke@QLabel@@UAE_NHPAUQUObject@@@Z 0041a99e f   qt-mt323:qt-mt323.dll
 0001:000199a4       ?qt_cast@QLabel@@UAEPAXPBD@Z 0041a9a4 f   qt-mt323:qt-mt323.dll
 0001:000199aa       ?className@QLabel@@UBEPBDXZ 0041a9aa f   qt-mt323:qt-mt323.dll
 0001:000199b0       ?metaObject@QLabel@@UBEPAVQMetaObject@@XZ 0041a9b0 f   qt-mt323:qt-mt323.dll
 0001:000199b6       ?qt_property@QHBoxLayout@@UAE_NHHPAVQVariant@@@Z 0041a9b6 f   qt-mt323:qt-mt323.dll
 0001:000199bc       ?qt_emit@QHBoxLayout@@UAE_NHPAUQUObject@@@Z 0041a9bc f   qt-mt323:qt-mt323.dll
 0001:000199c2       ?qt_invoke@QHBoxLayout@@UAE_NHPAUQUObject@@@Z 0041a9c2 f   qt-mt323:qt-mt323.dll
 0001:000199c8       ?qt_cast@QHBoxLayout@@UAEPAXPBD@Z 0041a9c8 f   qt-mt323:qt-mt323.dll
 0001:000199ce       ?className@QHBoxLayout@@UBEPBDXZ 0041a9ce f   qt-mt323:qt-mt323.dll
 0001:000199d4       ?metaObject@QHBoxLayout@@UBEPAVQMetaObject@@XZ 0041a9d4 f   qt-mt323:qt-mt323.dll
 0001:000199da       ?setAlignment@QLayoutItem@@UAEXH@Z 0041a9da f   qt-mt323:qt-mt323.dll
 0001:000199e0       ?spacerItem@QLayoutItem@@UAEPAVQSpacerItem@@XZ 0041a9e0 f   qt-mt323:qt-mt323.dll
 0001:000199e6       ?layout@QLayout@@UAEPAV1@XZ 0041a9e6 f   qt-mt323:qt-mt323.dll
 0001:000199ec       ?iterator@QBoxLayout@@UAE?AVQLayoutIterator@@XZ 0041a9ec f   qt-mt323:qt-mt323.dll
 0001:000199f2       ?widget@QLayoutItem@@UAEPAVQWidget@@XZ 0041a9f2 f   qt-mt323:qt-mt323.dll
 0001:000199f8       ?invalidate@QBoxLayout@@UAEXXZ 0041a9f8 f   qt-mt323:qt-mt323.dll
 0001:000199fe       ?heightForWidth@QBoxLayout@@UBEHH@Z 0041a9fe f   qt-mt323:qt-mt323.dll
 0001:00019a04       ?hasHeightForWidth@QBoxLayout@@UBE_NXZ 0041aa04 f   qt-mt323:qt-mt323.dll
 0001:00019a0a       ?isEmpty@QLayout@@UBE_NXZ  0041aa0a f   qt-mt323:qt-mt323.dll
 0001:00019a10       ?geometry@QLayout@@UBE?AVQRect@@XZ 0041aa10 f   qt-mt323:qt-mt323.dll
 0001:00019a16       ?setGeometry@QBoxLayout@@UAEXABVQRect@@@Z 0041aa16 f   qt-mt323:qt-mt323.dll
 0001:00019a1c       ?expanding@QBoxLayout@@UBE?AW4ExpandData@QSizePolicy@@XZ 0041aa1c f   qt-mt323:qt-mt323.dll
 0001:00019a22       ?maximumSize@QBoxLayout@@UBE?AVQSize@@XZ 0041aa22 f   qt-mt323:qt-mt323.dll
 0001:00019a28       ?minimumSize@QBoxLayout@@UBE?AVQSize@@XZ 0041aa28 f   qt-mt323:qt-mt323.dll
 0001:00019a2e       ?sizeHint@QBoxLayout@@UBE?AVQSize@@XZ 0041aa2e f   qt-mt323:qt-mt323.dll
 0001:00019a34       ?addItem@QBoxLayout@@UAEXPAVQLayoutItem@@@Z 0041aa34 f   qt-mt323:qt-mt323.dll
 0001:00019a3a       ?setAutoAdd@QLayout@@UAEX_N@Z 0041aa3a f   qt-mt323:qt-mt323.dll
 0001:00019a40       ?setMenuBar@QLayout@@UAEXPAVQMenuBar@@@Z 0041aa40 f   qt-mt323:qt-mt323.dll
 0001:00019a46       ?setSpacing@QLayout@@UAEXH@Z 0041aa46 f   qt-mt323:qt-mt323.dll
 0001:00019a4c       ?setMargin@QLayout@@UAEXH@Z 0041aa4c f   qt-mt323:qt-mt323.dll
 0001:00019a52       ?childEvent@QLayout@@MAEXPAVQChildEvent@@@Z 0041aa52 f   qt-mt323:qt-mt323.dll
 0001:00019a58       ?setName@QObject@@UAEXPBD@Z 0041aa58 f   qt-mt323:qt-mt323.dll
 0001:00019a5e       ?eventFilter@QLayout@@MAE_NPAVQObject@@PAVQEvent@@@Z 0041aa5e f   qt-mt323:qt-mt323.dll
 0001:00019a64       ?event@QObject@@UAE_NPAVQEvent@@@Z 0041aa64 f   qt-mt323:qt-mt323.dll
 0001:00019a6a       ?qt_property@QVBoxLayout@@UAE_NHHPAVQVariant@@@Z 0041aa6a f   qt-mt323:qt-mt323.dll
 0001:00019a70       ?qt_emit@QVBoxLayout@@UAE_NHPAUQUObject@@@Z 0041aa70 f   qt-mt323:qt-mt323.dll
 0001:00019a76       ?qt_invoke@QVBoxLayout@@UAE_NHPAUQUObject@@@Z 0041aa76 f   qt-mt323:qt-mt323.dll
 0001:00019a7c       ?qt_cast@QVBoxLayout@@UAEPAXPBD@Z 0041aa7c f   qt-mt323:qt-mt323.dll
 0001:00019a82       ?className@QVBoxLayout@@UBEPBDXZ 0041aa82 f   qt-mt323:qt-mt323.dll
 0001:00019a88       ?metaObject@QVBoxLayout@@UBEPAVQMetaObject@@XZ 0041aa88 f   qt-mt323:qt-mt323.dll
 0001:00019a8e       ?accept@QDialog@@MAEXXZ    0041aa8e f   qt-mt323:qt-mt323.dll
 0001:00019a94       ?sizeHint@QWidget@@UBE?AVQSize@@XZ 0041aa94 f   qt-mt323:qt-mt323.dll
 0001:00019a9a       ?paintCell@QListBox@@MAEXPAVQPainter@@HH@Z 0041aa9a f   qt-mt323:qt-mt323.dll
 0001:00019aa0       ?invertSelection@QListBox@@UAEXXZ 0041aaa0 f   qt-mt323:qt-mt323.dll
 0001:00019aa6       ?selectAll@QListBox@@UAEX_N@Z 0041aaa6 f   qt-mt323:qt-mt323.dll
 0001:00019aac       ?clearSelection@QListBox@@UAEXXZ 0041aaac f   qt-mt323:qt-mt323.dll
 0001:00019ab2       ?ensureCurrentVisible@QListBox@@UAEXXZ 0041aab2 f   qt-mt323:qt-mt323.dll
 0001:00019ab8       ?setVariableHeight@QListBox@@UAEX_N@Z 0041aab8 f   qt-mt323:qt-mt323.dll
 0001:00019abe       ?setVariableWidth@QListBox@@UAEX_N@Z 0041aabe f   qt-mt323:qt-mt323.dll
 0001:00019ac4       ?setRowMode@QListBox@@UAEXW4LayoutMode@1@@Z 0041aac4 f   qt-mt323:qt-mt323.dll
 0001:00019aca       ?setRowMode@QListBox@@UAEXH@Z 0041aaca f   qt-mt323:qt-mt323.dll
 0001:00019ad0       ?setColumnMode@QListBox@@UAEXW4LayoutMode@1@@Z 0041aad0 f   qt-mt323:qt-mt323.dll
 0001:00019ad6       ?setColumnMode@QListBox@@UAEXH@Z 0041aad6 f   qt-mt323:qt-mt323.dll
 0001:00019adc       ?setSelected@QListBox@@UAEXPAVQListBoxItem@@_N@Z 0041aadc f   qt-mt323:qt-mt323.dll
 0001:00019ae2       ?setSelectionMode@QListBox@@UAEXW4SelectionMode@1@@Z 0041aae2 f   qt-mt323:qt-mt323.dll
 0001:00019ae8       ?setBottomItem@QListBox@@UAEXH@Z 0041aae8 f   qt-mt323:qt-mt323.dll
 0001:00019aee       ?setTopItem@QListBox@@UAEXH@Z 0041aaee f   qt-mt323:qt-mt323.dll
 0001:00019af4       ?setCurrentItem@QListBox@@UAEXH@Z 0041aaf4 f   qt-mt323:qt-mt323.dll
 0001:00019afa       ?setCurrentItem@QListBox@@UAEXPAVQListBoxItem@@@Z 0041aafa f   qt-mt323:qt-mt323.dll
 0001:00019b00       ?setVBarGeometry@QScrollView@@MAEXAAVQScrollBar@@HHHH@Z 0041ab00 f   qt-mt323:qt-mt323.dll
 0001:00019b06       ?setHBarGeometry@QScrollView@@MAEXAAVQScrollBar@@HHHH@Z 0041ab06 f   qt-mt323:qt-mt323.dll
 0001:00019b0c       ?setMargins@QScrollView@@MAEXHHHH@Z 0041ab0c f   qt-mt323:qt-mt323.dll
 0001:00019b12       ?viewportContextMenuEvent@QScrollView@@MAEXPAVQContextMenuEvent@@@Z 0041ab12 f   qt-mt323:qt-mt323.dll
 0001:00019b18       ?viewportWheelEvent@QScrollView@@MAEXPAVQWheelEvent@@@Z 0041ab18 f   qt-mt323:qt-mt323.dll
 0001:00019b1e       ?viewportDropEvent@QScrollView@@MAEXPAVQDropEvent@@@Z 0041ab1e f   qt-mt323:qt-mt323.dll
 0001:00019b24       ?viewportDragLeaveEvent@QScrollView@@MAEXPAVQDragLeaveEvent@@@Z 0041ab24 f   qt-mt323:qt-mt323.dll
 0001:00019b2a       ?viewportDragMoveEvent@QScrollView@@MAEXPAVQDragMoveEvent@@@Z 0041ab2a f   qt-mt323:qt-mt323.dll
 0001:00019b30       ?viewportDragEnterEvent@QScrollView@@MAEXPAVQDragEnterEvent@@@Z 0041ab30 f   qt-mt323:qt-mt323.dll
 0001:00019b36       ?viewportMouseMoveEvent@QScrollView@@MAEXPAVQMouseEvent@@@Z 0041ab36 f   qt-mt323:qt-mt323.dll
 0001:00019b3c       ?viewportMouseDoubleClickEvent@QScrollView@@MAEXPAVQMouseEvent@@@Z 0041ab3c f   qt-mt323:qt-mt323.dll
 0001:00019b42       ?viewportMouseReleaseEvent@QScrollView@@MAEXPAVQMouseEvent@@@Z 0041ab42 f   qt-mt323:qt-mt323.dll
 0001:00019b48       ?viewportMousePressEvent@QScrollView@@MAEXPAVQMouseEvent@@@Z 0041ab48 f   qt-mt323:qt-mt323.dll
 0001:00019b4e       ?viewportResizeEvent@QScrollView@@MAEXPAVQResizeEvent@@@Z 0041ab4e f   qt-mt323:qt-mt323.dll
 0001:00019b54       ?viewportPaintEvent@QListBox@@UAEXPAVQPaintEvent@@@Z 0041ab54 f   qt-mt323:qt-mt323.dll
 0001:00019b5a       ?contentsContextMenuEvent@QListBox@@MAEXPAVQContextMenuEvent@@@Z 0041ab5a f   qt-mt323:qt-mt323.dll
 0001:00019b60       ?contentsWheelEvent@QScrollView@@MAEXPAVQWheelEvent@@@Z 0041ab60 f   qt-mt323:qt-mt323.dll
 0001:00019b66       ?contentsDropEvent@QScrollView@@MAEXPAVQDropEvent@@@Z 0041ab66 f   qt-mt323:qt-mt323.dll
 0001:00019b6c       ?contentsDragLeaveEvent@QScrollView@@MAEXPAVQDragLeaveEvent@@@Z 0041ab6c f   qt-mt323:qt-mt323.dll
 0001:00019b72       ?contentsDragMoveEvent@QScrollView@@MAEXPAVQDragMoveEvent@@@Z 0041ab72 f   qt-mt323:qt-mt323.dll
 0001:00019b78       ?contentsDragEnterEvent@QScrollView@@MAEXPAVQDragEnterEvent@@@Z 0041ab78 f   qt-mt323:qt-mt323.dll
 0001:00019b7e       ?contentsMouseMoveEvent@QScrollView@@MAEXPAVQMouseEvent@@@Z 0041ab7e f   qt-mt323:qt-mt323.dll
 0001:00019b84       ?contentsMouseDoubleClickEvent@QScrollView@@MAEXPAVQMouseEvent@@@Z 0041ab84 f   qt-mt323:qt-mt323.dll
 0001:00019b8a       ?contentsMouseReleaseEvent@QScrollView@@MAEXPAVQMouseEvent@@@Z 0041ab8a f   qt-mt323:qt-mt323.dll
 0001:00019b90       ?contentsMousePressEvent@QScrollView@@MAEXPAVQMouseEvent@@@Z 0041ab90 f   qt-mt323:qt-mt323.dll
 0001:00019b96       ?drawContentsOffset@QScrollView@@MAEXPAVQPainter@@HHHHHH@Z 0041ab96 f   qt-mt323:qt-mt323.dll
 0001:00019b9c       ?drawContents@QScrollView@@MAEXPAVQPainter@@HHHH@Z 0041ab9c f   qt-mt323:qt-mt323.dll
 0001:00019ba2       ?setContentsPos@QScrollView@@UAEXHH@Z 0041aba2 f   qt-mt323:qt-mt323.dll
 0001:00019ba8       ?resizeContents@QScrollView@@UAEXHH@Z 0041aba8 f   qt-mt323:qt-mt323.dll
 0001:00019bae       ?setDragAutoScroll@QScrollView@@UAEX_N@Z 0041abae f   qt-mt323:qt-mt323.dll
 0001:00019bb4       ?setCornerWidget@QScrollView@@UAEXPAVQWidget@@@Z 0041abb4 f   qt-mt323:qt-mt323.dll
 0001:00019bba       ?setHScrollBarMode@QScrollView@@UAEXW4ScrollBarMode@1@@Z 0041abba f   qt-mt323:qt-mt323.dll
 0001:00019bc0       ?setVScrollBarMode@QScrollView@@UAEXW4ScrollBarMode@1@@Z 0041abc0 f   qt-mt323:qt-mt323.dll
 0001:00019bc6       ?moveChild@QScrollView@@UAEXPAVQWidget@@HH@Z 0041abc6 f   qt-mt323:qt-mt323.dll
 0001:00019bcc       ?addChild@QScrollView@@UAEXPAVQWidget@@HH@Z 0041abcc f   qt-mt323:qt-mt323.dll
 0001:00019bd2       ?setResizePolicy@QScrollView@@UAEXW4ResizePolicy@1@@Z 0041abd2 f   qt-mt323:qt-mt323.dll
 0001:00019bd8       ?frameChanged@QScrollView@@MAEXXZ 0041abd8 f   qt-mt323:qt-mt323.dll
 0001:00019bde       ?drawContents@QScrollView@@EAEXPAVQPainter@@@Z 0041abde f   qt-mt323:qt-mt323.dll
 0001:00019be4       ?focusNextPrevChild@QScrollView@@MAE_N_N@Z 0041abe4 f   qt-mt323:qt-mt323.dll
 0001:00019bea       ?windowActivationChange@QListBox@@MAEX_N@Z 0041abea f   qt-mt323:qt-mt323.dll
 0001:00019bf0       ?fontChange@QScrollView@@MAEXABVQFont@@@Z 0041abf0 f   qt-mt323:qt-mt323.dll
 0001:00019bf6       ?styleChange@QScrollView@@UAEXAAVQStyle@@@Z 0041abf6 f   qt-mt323:qt-mt323.dll
 0001:00019bfc       ?showEvent@QListBox@@MAEXPAVQShowEvent@@@Z 0041abfc f   qt-mt323:qt-mt323.dll
 0001:00019c02       ?contextMenuEvent@QScrollView@@MAEXPAVQContextMenuEvent@@@Z 0041ac02 f   qt-mt323:qt-mt323.dll
 0001:00019c08       ?resizeEvent@QListBox@@MAEXPAVQResizeEvent@@@Z 0041ac08 f   qt-mt323:qt-mt323.dll
 0001:00019c0e       ?focusOutEvent@QListBox@@MAEXPAVQFocusEvent@@@Z 0041ac0e f   qt-mt323:qt-mt323.dll
 0001:00019c14       ?focusInEvent@QListBox@@MAEXPAVQFocusEvent@@@Z 0041ac14 f   qt-mt323:qt-mt323.dll
 0001:00019c1a       ?keyPressEvent@QListBox@@MAEXPAVQKeyEvent@@@Z 0041ac1a f   qt-mt323:qt-mt323.dll
 0001:00019c20       ?wheelEvent@QScrollView@@MAEXPAVQWheelEvent@@@Z 0041ac20 f   qt-mt323:qt-mt323.dll
 0001:00019c26       ?mouseMoveEvent@QListBox@@MAEXPAVQMouseEvent@@@Z 0041ac26 f   qt-mt323:qt-mt323.dll
 0001:00019c2c       ?mouseDoubleClickEvent@QListBox@@MAEXPAVQMouseEvent@@@Z 0041ac2c f   qt-mt323:qt-mt323.dll
 0001:00019c32       ?mouseReleaseEvent@QListBox@@MAEXPAVQMouseEvent@@@Z 0041ac32 f   qt-mt323:qt-mt323.dll
 0001:00019c38       ?mousePressEvent@QListBox@@MAEXPAVQMouseEvent@@@Z 0041ac38 f   qt-mt323:qt-mt323.dll
 0001:00019c3e       ?minimumSizeHint@QListBox@@UBE?AVQSize@@XZ 0041ac3e f   qt-mt323:qt-mt323.dll
 0001:00019c44       ?sizeHint@QListBox@@UBE?AVQSize@@XZ 0041ac44 f   qt-mt323:qt-mt323.dll
 0001:00019c4a       ?resize@QScrollView@@UAEXHH@Z 0041ac4a f   qt-mt323:qt-mt323.dll
 0001:00019c50       ?show@QScrollView@@UAEXXZ  0041ac50 f   qt-mt323:qt-mt323.dll
 0001:00019c56       ?setFont@QListBox@@UAEXABVQFont@@@Z 0041ac56 f   qt-mt323:qt-mt323.dll
 0001:00019c5c       ?setEnabled@QScrollView@@UAEX_N@Z 0041ac5c f   qt-mt323:qt-mt323.dll
 0001:00019c62       ?removeChild@QScrollView@@UAEXPAVQObject@@@Z 0041ac62 f   qt-mt323:qt-mt323.dll
 0001:00019c68       ?eventFilter@QListBox@@MAE_NPAVQObject@@PAVQEvent@@@Z 0041ac68 f   qt-mt323:qt-mt323.dll
 0001:00019c6e       ?qt_property@QListBox@@UAE_NHHPAVQVariant@@@Z 0041ac6e f   qt-mt323:qt-mt323.dll
 0001:00019c74       ?qt_emit@QListBox@@UAE_NHPAUQUObject@@@Z 0041ac74 f   qt-mt323:qt-mt323.dll
 0001:00019c7a       ?qt_invoke@QListBox@@UAE_NHPAUQUObject@@@Z 0041ac7a f   qt-mt323:qt-mt323.dll
 0001:00019c80       ?qt_cast@QListBox@@UAEPAXPBD@Z 0041ac80 f   qt-mt323:qt-mt323.dll
 0001:00019c86       ?className@QListBox@@UBEPBDXZ 0041ac86 f   qt-mt323:qt-mt323.dll
 0001:00019c8c       ?metaObject@QListBox@@UBEPAVQMetaObject@@XZ 0041ac8c f   qt-mt323:qt-mt323.dll
 0001:00019c92       ??3@YAXPAX@Z               0041ac92 f   MSVCRT:MSVCRT.dll
 0001:00019c98       ??2@YAPAXI@Z               0041ac98 f   MSVCRT:MSVCRT.dll
 0001:00019c9e       ___CxxFrameHandler         0041ac9e f   MSVCRT:MSVCRT.dll
 0001:00019cb0       __chkstk                   0041acb0 f   MSVCRT:chkstk.obj
 0001:00019cb0       __alloca_probe             0041acb0 f   MSVCRT:chkstk.obj
 0001:00019ce0       __except_handler3          0041ace0 f   MSVCRT:MSVCRT.dll
 0001:00019ce6       __onexit                   0041ace6 f   MSVCRT:atonexit.obj
 0001:00019d12       _atexit                    0041ad12 f   MSVCRT:atonexit.obj
 0001:00019d24       _WinMainCRTStartup         0041ad24 f   MSVCRT:crtexew.obj
 0001:00019e82       ___dllonexit               0041ae82 f   MSVCRT:MSVCRT.dll
 0001:00019e88       __XcptFilter               0041ae88 f   MSVCRT:MSVCRT.dll
 0001:00019e8e       __initterm                 0041ae8e f   MSVCRT:MSVCRT.dll
 0001:00019e94       __setdefaultprecision      0041ae94 f   MSVCRT:fp8.obj
 0001:00019ea6       __matherr                  0041aea6 f   MSVCRT:merr.obj
 0001:00019ea9       __setargv                  0041aea9 f   MSVCRT:dllargv.obj
 0001:00019eaa       __controlfp                0041aeaa f   MSVCRT:MSVCRT.dll
 0001:00019eb0       _WinMain@16                0041aeb0 f   qtmain:qtmain_win.obj
 0001:00019f3d       ?detach@?$QMemArray@PAD@@UAEXXZ 0041af3d f i qtmain:qtmain_win.obj
 0001:00019f45       ??_E?$QMemArray@PAD@@UAEPAXI@Z 0041af45 f i qtmain:qtmain_win.obj
 0001:00019f45       ??_G?$QMemArray@PAD@@UAEPAXI@Z 0041af45 f i qtmain:qtmain_win.obj
 0001:00019f68       _strcpy                    0041af68 f   MSVCRT:MSVCRT.dll
 0001:00019f6e       _strlen                    0041af6e f   MSVCRT:MSVCRT.dll
 0001:00019f74       ?qWinMain@@YAXPAUHINSTANCE__@@0PADHAAHAAV?$QMemArray@PAD@@@Z 0041af74 f   qt-mt323:qt-mt323.dll
 0002:00000000       __imp__BNCS32RxMessage     0041d000     bncsif32:BNCSIF32.dll
 0002:00000004       __imp__BNCS32TxMessage     0041d004     bncsif32:BNCSIF32.dll
 0002:00000008       \177BNCSIF32_NULL_THUNK_DATA 0041d008     bncsif32:BNCSIF32.dll
 0002:0000000c       __imp__GetStockObject@4    0041d00c     gdi32:GDI32.dll
 0002:00000010       \177GDI32_NULL_THUNK_DATA  0041d010     gdi32:GDI32.dll
 0002:00000014       __imp__CreateMutexA@12     0041d014     kernel32:KERNEL32.dll
 0002:00000018       __imp__GetWindowsDirectoryA@8 0041d018     kernel32:KERNEL32.dll
 0002:0000001c       __imp__GetPrivateProfileStringA@24 0041d01c     kernel32:KERNEL32.dll
 0002:00000020       __imp__lstrcatA@8          0041d020     kernel32:KERNEL32.dll
 0002:00000024       __imp__lstrlenA@4          0041d024     kernel32:KERNEL32.dll
 0002:00000028       __imp__FreeLibrary@4       0041d028     kernel32:KERNEL32.dll
 0002:0000002c       __imp__lstrcmpA@8          0041d02c     kernel32:KERNEL32.dll
 0002:00000030       __imp__IsBadReadPtr@8      0041d030     kernel32:KERNEL32.dll
 0002:00000034       __imp__GetPrivateProfileIntA@16 0041d034     kernel32:KERNEL32.dll
 0002:00000038       __imp__SetLocalTime@4      0041d038     kernel32:KERNEL32.dll
 0002:0000003c       __imp__WritePrivateProfileStringA@16 0041d03c     kernel32:KERNEL32.dll
 0002:00000040       __imp__FindFirstFileA@8    0041d040     kernel32:KERNEL32.dll
 0002:00000044       __imp__FindNextFileA@8     0041d044     kernel32:KERNEL32.dll
 0002:00000048       __imp__GetModuleHandleA@4  0041d048     kernel32:KERNEL32.dll
 0002:0000004c       __imp__GetStartupInfoA@4   0041d04c     kernel32:KERNEL32.dll
 0002:00000050       __imp__GetLocalTime@4      0041d050     kernel32:KERNEL32.dll
 0002:00000054       __imp__SetFilePointer@16   0041d054     kernel32:KERNEL32.dll
 0002:00000058       __imp__GetLastError@0      0041d058     kernel32:KERNEL32.dll
 0002:0000005c       __imp__CreateFileA@28      0041d05c     kernel32:KERNEL32.dll
 0002:00000060       __imp__OutputDebugStringA@4 0041d060     kernel32:KERNEL32.dll
 0002:00000064       __imp__CloseHandle@4       0041d064     kernel32:KERNEL32.dll
 0002:00000068       __imp__WriteFile@20        0041d068     kernel32:KERNEL32.dll
 0002:0000006c       __imp___lclose@4           0041d06c     kernel32:KERNEL32.dll
 0002:00000070       __imp__GlobalFree@4        0041d070     kernel32:KERNEL32.dll
 0002:00000074       __imp__GlobalUnlock@4      0041d074     kernel32:KERNEL32.dll
 0002:00000078       __imp__GlobalLock@4        0041d078     kernel32:KERNEL32.dll
 0002:0000007c       __imp__GlobalAlloc@8       0041d07c     kernel32:KERNEL32.dll
 0002:00000080       __imp__lstrcpynA@12        0041d080     kernel32:KERNEL32.dll
 0002:00000084       __imp__lstrcpyA@8          0041d084     kernel32:KERNEL32.dll
 0002:00000088       __imp___lwrite@12          0041d088     kernel32:KERNEL32.dll
 0002:0000008c       __imp___llseek@12          0041d08c     kernel32:KERNEL32.dll
 0002:00000090       __imp___lcreat@8           0041d090     kernel32:KERNEL32.dll
 0002:00000094       __imp___lread@12           0041d094     kernel32:KERNEL32.dll
 0002:00000098       __imp___lopen@8            0041d098     kernel32:KERNEL32.dll
 0002:0000009c       __imp__FindClose@4         0041d09c     kernel32:KERNEL32.dll
 0002:000000a0       \177KERNEL32_NULL_THUNK_DATA 0041d0a0     kernel32:KERNEL32.dll
 0002:000000a4       __imp__strstr              0041d0a4     MSVCRT:MSVCRT.dll
 0002:000000a8       __imp___errno              0041d0a8     MSVCRT:MSVCRT.dll
 0002:000000ac       __imp__fopen               0041d0ac     MSVCRT:MSVCRT.dll
 0002:000000b0       __imp__sscanf              0041d0b0     MSVCRT:MSVCRT.dll
 0002:000000b4       __imp__fgetc               0041d0b4     MSVCRT:MSVCRT.dll
 0002:000000b8       __imp__fputc               0041d0b8     MSVCRT:MSVCRT.dll
 0002:000000bc       __imp__fclose              0041d0bc     MSVCRT:MSVCRT.dll
 0002:000000c0       __imp__atoi                0041d0c0     MSVCRT:MSVCRT.dll
 0002:000000c4       __imp__remove              0041d0c4     MSVCRT:MSVCRT.dll
 0002:000000c8       __imp____CxxFrameHandler   0041d0c8     MSVCRT:MSVCRT.dll
 0002:000000cc       __imp_??2@YAPAXI@Z         0041d0cc     MSVCRT:MSVCRT.dll
 0002:000000d0       __imp__strtok              0041d0d0     MSVCRT:MSVCRT.dll
 0002:000000d4       __imp___mkdir              0041d0d4     MSVCRT:MSVCRT.dll
 0002:000000d4       __imp__mkdir               0041d0d4     MSVCRT:MSVCRT.dll
 0002:000000d8       __imp__strncpy             0041d0d8     MSVCRT:MSVCRT.dll
 0002:000000dc       __imp__getenv              0041d0dc     MSVCRT:MSVCRT.dll
 0002:000000e0       __imp___except_handler3    0041d0e0     MSVCRT:MSVCRT.dll
 0002:000000e4       __imp____dllonexit         0041d0e4     MSVCRT:MSVCRT.dll
 0002:000000e8       __imp___onexit             0041d0e8     MSVCRT:MSVCRT.dll
 0002:000000ec       __imp___exit               0041d0ec     MSVCRT:MSVCRT.dll
 0002:000000f0       __imp___XcptFilter         0041d0f0     MSVCRT:MSVCRT.dll
 0002:000000f4       __imp__exit                0041d0f4     MSVCRT:MSVCRT.dll
 0002:000000f8       __imp___acmdln             0041d0f8     MSVCRT:MSVCRT.dll
 0002:000000fc       __imp_??3@YAXPAX@Z         0041d0fc     MSVCRT:MSVCRT.dll
 0002:00000100       __imp____getmainargs       0041d100     MSVCRT:MSVCRT.dll
 0002:00000104       __imp___initterm           0041d104     MSVCRT:MSVCRT.dll
 0002:00000108       __imp____setusermatherr    0041d108     MSVCRT:MSVCRT.dll
 0002:0000010c       __imp___adjust_fdiv        0041d10c     MSVCRT:MSVCRT.dll
 0002:00000110       __imp____p__commode        0041d110     MSVCRT:MSVCRT.dll
 0002:00000114       __imp____p__fmode          0041d114     MSVCRT:MSVCRT.dll
 0002:00000118       __imp____set_app_type      0041d118     MSVCRT:MSVCRT.dll
 0002:0000011c       __imp___controlfp          0041d11c     MSVCRT:MSVCRT.dll
 0002:00000120       __imp__sprintf             0041d120     MSVCRT:MSVCRT.dll
 0002:00000124       __imp__time                0041d124     MSVCRT:MSVCRT.dll
 0002:00000128       __imp__rmdir               0041d128     MSVCRT:MSVCRT.dll
 0002:00000128       __imp___rmdir              0041d128     MSVCRT:MSVCRT.dll
 0002:0000012c       __imp__strlwr              0041d12c     MSVCRT:MSVCRT.dll
 0002:0000012c       __imp___strlwr             0041d12c     MSVCRT:MSVCRT.dll
 0002:00000130       __imp__stricmp             0041d130     MSVCRT:MSVCRT.dll
 0002:00000130       __imp___stricmp            0041d130     MSVCRT:MSVCRT.dll
 0002:00000134       __imp__strcpy              0041d134     MSVCRT:MSVCRT.dll
 0002:00000138       __imp__localtime           0041d138     MSVCRT:MSVCRT.dll
 0002:0000013c       __imp__strlen              0041d13c     MSVCRT:MSVCRT.dll
 0002:00000140       \177MSVCRT_NULL_THUNK_DATA 0041d140     MSVCRT:MSVCRT.dll
 0002:00000144       __imp__GetWindowLongA@8    0041d144     user32:USER32.dll
 0002:00000148       __imp__SetMessageQueue@4   0041d148     user32:USER32.dll
 0002:0000014c       __imp__FindWindowA@8       0041d14c     user32:USER32.dll
 0002:00000150       __imp__GetDesktopWindow@0  0041d150     user32:USER32.dll
 0002:00000154       __imp__GetWindowRect@8     0041d154     user32:USER32.dll
 0002:00000158       __imp__UpdateWindow@4      0041d158     user32:USER32.dll
 0002:0000015c       __imp__GetMenu@4           0041d15c     user32:USER32.dll
 0002:00000160       __imp__MessageBoxA@16      0041d160     user32:USER32.dll
 0002:00000164       __imp__PostQuitMessage@4   0041d164     user32:USER32.dll
 0002:00000168       __imp__ShowWindow@8        0041d168     user32:USER32.dll
 0002:0000016c       __imp__IsWindow@4          0041d16c     user32:USER32.dll
 0002:00000170       __imp__KillTimer@8         0041d170     user32:USER32.dll
 0002:00000174       __imp__MessageBeep@4       0041d174     user32:USER32.dll
 0002:00000178       __imp__DefWindowProcA@16   0041d178     user32:USER32.dll
 0002:0000017c       __imp__CreateWindowExA@48  0041d17c     user32:USER32.dll
 0002:00000180       __imp__LoadIconA@8         0041d180     user32:USER32.dll
 0002:00000184       __imp__LoadCursorA@8       0041d184     user32:USER32.dll
 0002:00000188       __imp__wsprintfA           0041d188     user32:USER32.dll
 0002:0000018c       __imp__ExitWindowsEx@8     0041d18c     user32:USER32.dll
 0002:00000190       __imp__SetTimer@16         0041d190     user32:USER32.dll
 0002:00000194       __imp__SetWindowTextA@8    0041d194     user32:USER32.dll
 0002:00000198       __imp__SendMessageA@16     0041d198     user32:USER32.dll
 0002:0000019c       __imp__PostMessageA@16     0041d19c     user32:USER32.dll
 0002:000001a0       __imp__RegisterClassA@4    0041d1a0     user32:USER32.dll
 0002:000001a4       \177USER32_NULL_THUNK_DATA 0041d1a4     user32:USER32.dll
 0002:000001a8       __imp__NetSendDG@28        0041d1a8     bbcnb32m:bbcnb32m.dll
 0002:000001ac       __imp__NetReceiveDG@20     0041d1ac     bbcnb32m:bbcnb32m.dll
 0002:000001b0       __imp__NetReset@12         0041d1b0     bbcnb32m:bbcnb32m.dll
 0002:000001b4       __imp__NetDeleteName@12    0041d1b4     bbcnb32m:bbcnb32m.dll
 0002:000001b8       __imp__NetAddName@12       0041d1b8     bbcnb32m:bbcnb32m.dll
 0002:000001bc       __imp__NetAddGroupName@12  0041d1bc     bbcnb32m:bbcnb32m.dll
 0002:000001c0       __imp__NetListen@28        0041d1c0     bbcnb32m:bbcnb32m.dll
 0002:000001c4       __imp__NetSend@24          0041d1c4     bbcnb32m:bbcnb32m.dll
 0002:000001c8       __imp__NetReceive@20       0041d1c8     bbcnb32m:bbcnb32m.dll
 0002:000001cc       __imp__NetCancel@8         0041d1cc     bbcnb32m:bbcnb32m.dll
 0002:000001d0       __imp__NetHangUp@8         0041d1d0     bbcnb32m:bbcnb32m.dll
 0002:000001d4       __imp__NetCmdCode@8        0041d1d4     bbcnb32m:bbcnb32m.dll
 0002:000001d8       __imp__NetCall@28          0041d1d8     bbcnb32m:bbcnb32m.dll
 0002:000001dc       __imp__NetRetCode@8        0041d1dc     bbcnb32m:bbcnb32m.dll
 0002:000001e0       __imp__NetNcbFree@4        0041d1e0     bbcnb32m:bbcnb32m.dll
 0002:000001e4       __imp__NetCopyName@8       0041d1e4     bbcnb32m:bbcnb32m.dll
 0002:000001e8       __imp_?dgMsgQueueNextItem@@YA?AVsizedBuffer@@XZ 0041d1e8     bbcnb32m:bbcnb32m.dll
 0002:000001ec       __imp_?dgMsgQueueSize@@YAHXZ 0041d1ec     bbcnb32m:bbcnb32m.dll
 0002:000001f0       \177bbcnb32m_NULL_THUNK_DATA 0041d1f0     bbcnb32m:bbcnb32m.dll
 0002:000001f4       __imp_?detach@?$QMemArray@D@@UAEXXZ 0041d1f4     qt-mt323:qt-mt323.dll
 0002:000001f8       __imp_?write@QGDict@@MBEAAVQDataStream@@AAV2@PAX@Z 0041d1f8     qt-mt323:qt-mt323.dll
 0002:000001fc       __imp_?read@QGDict@@MAEAAVQDataStream@@AAV2@AAPAX@Z 0041d1fc     qt-mt323:qt-mt323.dll
 0002:00000200       __imp_?newItem@QPtrCollection@@MAEPAXPAX@Z 0041d200     qt-mt323:qt-mt323.dll
 0002:00000204       __imp_?setRawData@QGArray@@IAEAAV1@PBDI@Z 0041d204     qt-mt323:qt-mt323.dll
 0002:00000208       __imp_??0QGArray@@QAE@XZ   0041d208     qt-mt323:qt-mt323.dll
 0002:0000020c       __imp_?look_string@QGDict@@QAEPAXABVQString@@PAXH@Z 0041d20c     qt-mt323:qt-mt323.dll
 0002:00000210       __imp_??0QGDict@@IAE@IW4KeyType@0@_N1@Z 0041d210     qt-mt323:qt-mt323.dll
 0002:00000214       __imp_?setToolTipGroup@QMainWindow@@EAEXPAVQToolTipGroup@@@Z 0041d214     qt-mt323:qt-mt323.dll
 0002:00000218       __imp_?setStatusBar@QMainWindow@@EAEXPAVQStatusBar@@@Z 0041d218     qt-mt323:qt-mt323.dll
 0002:0000021c       __imp_?setMenuBar@QMainWindow@@EAEXPAVQMenuBar@@@Z 0041d21c     qt-mt323:qt-mt323.dll
 0002:00000220       __imp_?showDockMenu@QMainWindow@@MAE_NABVQPoint@@@Z 0041d220     qt-mt323:qt-mt323.dll
 0002:00000224       __imp_?setUpLayout@QMainWindow@@MAEXXZ 0041d224     qt-mt323:qt-mt323.dll
 0002:00000228       __imp_?customize@QMainWindow@@UAEXXZ 0041d228     qt-mt323:qt-mt323.dll
 0002:0000022c       __imp_?setAppropriate@QMainWindow@@UAEXPAVQDockWindow@@_N@Z 0041d22c     qt-mt323:qt-mt323.dll
 0002:00000230       __imp_?whatsThis@QMainWindow@@UAEXXZ 0041d230     qt-mt323:qt-mt323.dll
 0002:00000234       __imp_?setDockMenuEnabled@QMainWindow@@UAEX_N@Z 0041d234     qt-mt323:qt-mt323.dll
 0002:00000238       __imp_?setOpaqueMoving@QMainWindow@@UAEX_N@Z 0041d238     qt-mt323:qt-mt323.dll
 0002:0000023c       __imp_?setDockWindowsMovable@QMainWindow@@UAEX_N@Z 0041d23c     qt-mt323:qt-mt323.dll
 0002:00000240       __imp_?setUsesTextLabel@QMainWindow@@UAEX_N@Z 0041d240     qt-mt323:qt-mt323.dll
 0002:00000244       __imp_?setUsesBigPixmaps@QMainWindow@@UAEX_N@Z 0041d244     qt-mt323:qt-mt323.dll
 0002:00000248       __imp_?setRightJustification@QMainWindow@@UAEX_N@Z 0041d248     qt-mt323:qt-mt323.dll
 0002:0000024c       __imp_?isCustomizable@QMainWindow@@UBE_NXZ 0041d24c     qt-mt323:qt-mt323.dll
 0002:00000250       __imp_?dockingArea@QMainWindow@@UAEPAVQDockArea@@ABVQPoint@@@Z 0041d250     qt-mt323:qt-mt323.dll
 0002:00000254       __imp_?removeDockWindow@QMainWindow@@UAEXPAVQDockWindow@@@Z 0041d254     qt-mt323:qt-mt323.dll
 0002:00000258       __imp_?moveDockWindow@QMainWindow@@UAEXPAVQDockWindow@@W4Dock@Qt@@@Z 0041d258     qt-mt323:qt-mt323.dll
 0002:0000025c       __imp_?moveDockWindow@QMainWindow@@UAEXPAVQDockWindow@@W4Dock@Qt@@_NHH@Z 0041d25c     qt-mt323:qt-mt323.dll
 0002:00000260       __imp_?addDockWindow@QMainWindow@@UAEXPAVQDockWindow@@W4Dock@Qt@@_N@Z 0041d260     qt-mt323:qt-mt323.dll
 0002:00000264       __imp_?addDockWindow@QMainWindow@@UAEXPAVQDockWindow@@ABVQString@@W4Dock@Qt@@_N@Z 0041d264     qt-mt323:qt-mt323.dll
 0002:00000268       __imp_?setDockEnabled@QMainWindow@@UAEXW4Dock@Qt@@_N@Z 0041d268     qt-mt323:qt-mt323.dll
 0002:0000026c       __imp_?setDockEnabled@QMainWindow@@UAEXPAVQDockWindow@@W4Dock@Qt@@_N@Z 0041d26c     qt-mt323:qt-mt323.dll
 0002:00000270       __imp_?setCentralWidget@QMainWindow@@UAEXPAVQWidget@@@Z 0041d270     qt-mt323:qt-mt323.dll
 0002:00000274       __imp_?focusNextPrevChild@QWidget@@MAE_N_N@Z 0041d274     qt-mt323:qt-mt323.dll
 0002:00000278       __imp_?enabledChange@QWidget@@MAEX_N@Z 0041d278     qt-mt323:qt-mt323.dll
 0002:0000027c       __imp_?styleChange@QMainWindow@@MAEXAAVQStyle@@@Z 0041d27c     qt-mt323:qt-mt323.dll
 0002:00000280       __imp_?resizeEvent@QWidget@@MAEXPAVQResizeEvent@@@Z 0041d280     qt-mt323:qt-mt323.dll
 0002:00000284       __imp_?paintEvent@QMainWindow@@MAEXPAVQPaintEvent@@@Z 0041d284     qt-mt323:qt-mt323.dll
 0002:00000288       __imp_?leaveEvent@QWidget@@MAEXPAVQEvent@@@Z 0041d288     qt-mt323:qt-mt323.dll
 0002:0000028c       __imp_?focusOutEvent@QWidget@@MAEXPAVQFocusEvent@@@Z 0041d28c     qt-mt323:qt-mt323.dll
 0002:00000290       __imp_?focusInEvent@QWidget@@MAEXPAVQFocusEvent@@@Z 0041d290     qt-mt323:qt-mt323.dll
 0002:00000294       __imp_?keyPressEvent@QWidget@@MAEXPAVQKeyEvent@@@Z 0041d294     qt-mt323:qt-mt323.dll
 0002:00000298       __imp_?mouseMoveEvent@QWidget@@MAEXPAVQMouseEvent@@@Z 0041d298     qt-mt323:qt-mt323.dll
 0002:0000029c       __imp_?mouseReleaseEvent@QWidget@@MAEXPAVQMouseEvent@@@Z 0041d29c     qt-mt323:qt-mt323.dll
 0002:000002a0       __imp_?mousePressEvent@QWidget@@MAEXPAVQMouseEvent@@@Z 0041d2a0     qt-mt323:qt-mt323.dll
 0002:000002a4       __imp_?customWhatsThis@QWidget@@UBE_NXZ 0041d2a4     qt-mt323:qt-mt323.dll
 0002:000002a8       __imp_?minimumSizeHint@QMainWindow@@UBE?AVQSize@@XZ 0041d2a8     qt-mt323:qt-mt323.dll
 0002:000002ac       __imp_?sizeHint@QMainWindow@@UBE?AVQSize@@XZ 0041d2ac     qt-mt323:qt-mt323.dll
 0002:000002b0       __imp_?hide@QMainWindow@@UAEXXZ 0041d2b0     qt-mt323:qt-mt323.dll
 0002:000002b4       __imp_?show@QMainWindow@@UAEXXZ 0041d2b4     qt-mt323:qt-mt323.dll
 0002:000002b8       __imp_?setFont@QWidget@@UAEXABVQFont@@@Z 0041d2b8     qt-mt323:qt-mt323.dll
 0002:000002bc       __imp_?childEvent@QMainWindow@@MAEXPAVQChildEvent@@@Z 0041d2bc     qt-mt323:qt-mt323.dll
 0002:000002c0       __imp_?timerEvent@QObject@@MAEXPAVQTimerEvent@@@Z 0041d2c0     qt-mt323:qt-mt323.dll
 0002:000002c4       __imp_?eventFilter@QMainWindow@@UAE_NPAVQObject@@PAVQEvent@@@Z 0041d2c4     qt-mt323:qt-mt323.dll
 0002:000002c8       __imp_?event@QMainWindow@@MAE_NPAVQEvent@@@Z 0041d2c8     qt-mt323:qt-mt323.dll
 0002:000002cc       __imp_?menuDelPopup@QPopupMenu@@EAEXPAV1@@Z 0041d2cc     qt-mt323:qt-mt323.dll
 0002:000002d0       __imp_?menuInsPopup@QPopupMenu@@EAEXPAV1@@Z 0041d2d0     qt-mt323:qt-mt323.dll
 0002:000002d4       __imp_?menuStateChanged@QPopupMenu@@EAEXXZ 0041d2d4     qt-mt323:qt-mt323.dll
 0002:000002d8       __imp_?menuContentsChanged@QPopupMenu@@EAEXXZ 0041d2d8     qt-mt323:qt-mt323.dll
 0002:000002dc       __imp_?activateItemAt@QPopupMenu@@UAEXH@Z 0041d2dc     qt-mt323:qt-mt323.dll
 0002:000002e0       __imp_?setId@QMenuData@@UAEXHH@Z 0041d2e0     qt-mt323:qt-mt323.dll
 0002:000002e4       __imp_?updateItem@QPopupMenu@@UAEXH@Z 0041d2e4     qt-mt323:qt-mt323.dll
 0002:000002e8       __imp_?fontInf@QPaintDevice@@MBEHPAVQFont@@H@Z 0041d2e8     qt-mt323:qt-mt323.dll
 0002:000002ec       __imp_?fontMet@QPaintDevice@@MBEHPAVQFont@@HPBDH@Z 0041d2ec     qt-mt323:qt-mt323.dll
 0002:000002f0       __imp_?metric@QWidget@@MBEHH@Z 0041d2f0     qt-mt323:qt-mt323.dll
 0002:000002f4       __imp_?cmd@QPaintDevice@@MAE_NHPAVQPainter@@PATQPDevCmdParam@@@Z 0041d2f4     qt-mt323:qt-mt323.dll
 0002:000002f8       __imp_?handle@QPaintDevice@@UBEPAUHDC__@@XZ 0041d2f8     qt-mt323:qt-mt323.dll
 0002:000002fc       __imp_?resolution@QPaintDevice@@UBEHXZ 0041d2fc     qt-mt323:qt-mt323.dll
 0002:00000300       __imp_?setResolution@QPaintDevice@@UAEXH@Z 0041d300     qt-mt323:qt-mt323.dll
 0002:00000304       __imp_?setFirstItemActive@QPopupMenu@@EAEXXZ 0041d304     qt-mt323:qt-mt323.dll
 0002:00000308       __imp_?setActiveItem@QPopupMenu@@UAEXH@Z 0041d308     qt-mt323:qt-mt323.dll
 0002:0000030c       __imp_?setCheckable@QPopupMenu@@UAEX_N@Z 0041d30c     qt-mt323:qt-mt323.dll
 0002:00000310       __imp_?frameChanged@QPopupMenu@@EAEXXZ 0041d310     qt-mt323:qt-mt323.dll
 0002:00000314       __imp_?drawContents@QPopupMenu@@MAEXPAVQPainter@@@Z 0041d314     qt-mt323:qt-mt323.dll
 0002:00000318       __imp_?drawFrame@QFrame@@MAEXPAVQPainter@@@Z 0041d318     qt-mt323:qt-mt323.dll
 0002:0000031c       __imp_?setFrameRect@QFrame@@UAEXABVQRect@@@Z 0041d31c     qt-mt323:qt-mt323.dll
 0002:00000320       __imp_?setMidLineWidth@QFrame@@UAEXH@Z 0041d320     qt-mt323:qt-mt323.dll
 0002:00000324       __imp_?setMargin@QFrame@@UAEXH@Z 0041d324     qt-mt323:qt-mt323.dll
 0002:00000328       __imp_?setLineWidth@QFrame@@UAEXH@Z 0041d328     qt-mt323:qt-mt323.dll
 0002:0000032c       __imp_?setFrameStyle@QFrame@@UAEXH@Z 0041d32c     qt-mt323:qt-mt323.dll
 0002:00000330       __imp_?setMicroFocusHint@QWidget@@MAEXHHHH_NPAVQFont@@@Z 0041d330     qt-mt323:qt-mt323.dll
 0002:00000334       __imp_?setKeyCompression@QWidget@@MAEX_N@Z 0041d334     qt-mt323:qt-mt323.dll
 0002:00000338       __imp_?focusNextPrevChild@QPopupMenu@@MAE_N_N@Z 0041d338     qt-mt323:qt-mt323.dll
 0002:0000033c       __imp_?setWFlags@QWidget@@MAEXI@Z 0041d33c     qt-mt323:qt-mt323.dll
 0002:00000340       __imp_?setWState@QWidget@@MAEXI@Z 0041d340     qt-mt323:qt-mt323.dll
 0002:00000344       __imp_?destroy@QWidget@@MAEX_N0@Z 0041d344     qt-mt323:qt-mt323.dll
 0002:00000348       __imp_?create@QWidget@@MAEXPAUHWND__@@_N1@Z 0041d348     qt-mt323:qt-mt323.dll
 0002:0000034c       __imp_?windowActivationChange@QWidget@@MAEX_N@Z 0041d34c     qt-mt323:qt-mt323.dll
 0002:00000350       __imp_?fontChange@QWidget@@MAEXABVQFont@@@Z 0041d350     qt-mt323:qt-mt323.dll
 0002:00000354       __imp_?paletteChange@QWidget@@MAEXABVQPalette@@@Z 0041d354     qt-mt323:qt-mt323.dll
 0002:00000358       __imp_?enabledChange@QPopupMenu@@MAEX_N@Z 0041d358     qt-mt323:qt-mt323.dll
 0002:0000035c       __imp_?styleChange@QPopupMenu@@MAEXAAVQStyle@@@Z 0041d35c     qt-mt323:qt-mt323.dll
 0002:00000360       __imp_?updateMask@QWidget@@MAEXXZ 0041d360     qt-mt323:qt-mt323.dll
 0002:00000364       __imp_?winEvent@QWidget@@MAE_NPAUtagMSG@@@Z 0041d364     qt-mt323:qt-mt323.dll
 0002:00000368       __imp_?hideEvent@QWidget@@MAEXPAVQHideEvent@@@Z 0041d368     qt-mt323:qt-mt323.dll
 0002:0000036c       __imp_?showEvent@QWidget@@MAEXPAVQShowEvent@@@Z 0041d36c     qt-mt323:qt-mt323.dll
 0002:00000370       __imp_?dropEvent@QWidget@@MAEXPAVQDropEvent@@@Z 0041d370     qt-mt323:qt-mt323.dll
 0002:00000374       __imp_?dragLeaveEvent@QWidget@@MAEXPAVQDragLeaveEvent@@@Z 0041d374     qt-mt323:qt-mt323.dll
 0002:00000378       __imp_?dragMoveEvent@QWidget@@MAEXPAVQDragMoveEvent@@@Z 0041d378     qt-mt323:qt-mt323.dll
 0002:0000037c       __imp_?dragEnterEvent@QWidget@@MAEXPAVQDragEnterEvent@@@Z 0041d37c     qt-mt323:qt-mt323.dll
 0002:00000380       __imp_?tabletEvent@QWidget@@MAEXPAVQTabletEvent@@@Z 0041d380     qt-mt323:qt-mt323.dll
 0002:00000384       __imp_?imEndEvent@QWidget@@MAEXPAVQIMEvent@@@Z 0041d384     qt-mt323:qt-mt323.dll
 0002:00000388       __imp_?imComposeEvent@QWidget@@MAEXPAVQIMEvent@@@Z 0041d388     qt-mt323:qt-mt323.dll
 0002:0000038c       __imp_?imStartEvent@QWidget@@MAEXPAVQIMEvent@@@Z 0041d38c     qt-mt323:qt-mt323.dll
 0002:00000390       __imp_?contextMenuEvent@QWidget@@MAEXPAVQContextMenuEvent@@@Z 0041d390     qt-mt323:qt-mt323.dll
 0002:00000394       __imp_?closeEvent@QPopupMenu@@MAEXPAVQCloseEvent@@@Z 0041d394     qt-mt323:qt-mt323.dll
 0002:00000398       __imp_?resizeEvent@QFrame@@MAEXPAVQResizeEvent@@@Z 0041d398     qt-mt323:qt-mt323.dll
 0002:0000039c       __imp_?moveEvent@QWidget@@MAEXPAVQMoveEvent@@@Z 0041d39c     qt-mt323:qt-mt323.dll
 0002:000003a0       __imp_?paintEvent@QPopupMenu@@MAEXPAVQPaintEvent@@@Z 0041d3a0     qt-mt323:qt-mt323.dll
 0002:000003a4       __imp_?leaveEvent@QPopupMenu@@MAEXPAVQEvent@@@Z 0041d3a4     qt-mt323:qt-mt323.dll
 0002:000003a8       __imp_?enterEvent@QWidget@@MAEXPAVQEvent@@@Z 0041d3a8     qt-mt323:qt-mt323.dll
 0002:000003ac       __imp_?focusOutEvent@QPopupMenu@@MAEXPAVQFocusEvent@@@Z 0041d3ac     qt-mt323:qt-mt323.dll
 0002:000003b0       __imp_?focusInEvent@QPopupMenu@@MAEXPAVQFocusEvent@@@Z 0041d3b0     qt-mt323:qt-mt323.dll
 0002:000003b4       __imp_?keyReleaseEvent@QWidget@@MAEXPAVQKeyEvent@@@Z 0041d3b4     qt-mt323:qt-mt323.dll
 0002:000003b8       __imp_?keyPressEvent@QPopupMenu@@MAEXPAVQKeyEvent@@@Z 0041d3b8     qt-mt323:qt-mt323.dll
 0002:000003bc       __imp_?wheelEvent@QWidget@@MAEXPAVQWheelEvent@@@Z 0041d3bc     qt-mt323:qt-mt323.dll
 0002:000003c0       __imp_?mouseMoveEvent@QPopupMenu@@MAEXPAVQMouseEvent@@@Z 0041d3c0     qt-mt323:qt-mt323.dll
 0002:000003c4       __imp_?mouseDoubleClickEvent@QWidget@@MAEXPAVQMouseEvent@@@Z 0041d3c4     qt-mt323:qt-mt323.dll
 0002:000003c8       __imp_?mouseReleaseEvent@QPopupMenu@@MAEXPAVQMouseEvent@@@Z 0041d3c8     qt-mt323:qt-mt323.dll
 0002:000003cc       __imp_?mousePressEvent@QPopupMenu@@MAEXPAVQMouseEvent@@@Z 0041d3cc     qt-mt323:qt-mt323.dll
 0002:000003d0       __imp_?customWhatsThis@QPopupMenu@@UBE_NXZ 0041d3d0     qt-mt323:qt-mt323.dll
 0002:000003d4       __imp_?setBackgroundOrigin@QWidget@@UAEXW4BackgroundOrigin@1@@Z 0041d3d4     qt-mt323:qt-mt323.dll
 0002:000003d8       __imp_?setAutoMask@QWidget@@UAEX_N@Z 0041d3d8     qt-mt323:qt-mt323.dll
 0002:000003dc       __imp_?setAcceptDrops@QWidget@@UAEX_N@Z 0041d3dc     qt-mt323:qt-mt323.dll
 0002:000003e0       __imp_?reparent@QWidget@@UAEXPAV1@IABVQPoint@@_N@Z 0041d3e0     qt-mt323:qt-mt323.dll
 0002:000003e4       __imp_?adjustSize@QWidget@@UAEXXZ 0041d3e4     qt-mt323:qt-mt323.dll
 0002:000003e8       __imp_?heightForWidth@QWidget@@UBEHH@Z 0041d3e8     qt-mt323:qt-mt323.dll
 0002:000003ec       __imp_?setSizePolicy@QWidget@@UAEXVQSizePolicy@@@Z 0041d3ec     qt-mt323:qt-mt323.dll
 0002:000003f0       __imp_?sizePolicy@QWidget@@UBE?AVQSizePolicy@@XZ 0041d3f0     qt-mt323:qt-mt323.dll
 0002:000003f4       __imp_?minimumSizeHint@QWidget@@UBE?AVQSize@@XZ 0041d3f4     qt-mt323:qt-mt323.dll
 0002:000003f8       __imp_?sizeHint@QPopupMenu@@UBE?AVQSize@@XZ 0041d3f8     qt-mt323:qt-mt323.dll
 0002:000003fc       __imp_?setGeometry@QWidget@@UAEXHHHH@Z 0041d3fc     qt-mt323:qt-mt323.dll
 0002:00000400       __imp_?setGeometry@QWidget@@UAEXABVQRect@@@Z 0041d400     qt-mt323:qt-mt323.dll
 0002:00000404       __imp_?resize@QWidget@@UAEXHH@Z 0041d404     qt-mt323:qt-mt323.dll
 0002:00000408       __imp_?move@QWidget@@UAEXHH@Z 0041d408     qt-mt323:qt-mt323.dll
 0002:0000040c       __imp_?close@QWidget@@UAE_N_N@Z 0041d40c     qt-mt323:qt-mt323.dll
 0002:00000410       __imp_?polish@QWidget@@UAEXXZ 0041d410     qt-mt323:qt-mt323.dll
 0002:00000414       __imp_?showNormal@QWidget@@UAEXXZ 0041d414     qt-mt323:qt-mt323.dll
 0002:00000418       __imp_?showMaximized@QWidget@@UAEXXZ 0041d418     qt-mt323:qt-mt323.dll
 0002:0000041c       __imp_?hide@QPopupMenu@@UAEXXZ 0041d41c     qt-mt323:qt-mt323.dll
 0002:00000420       __imp_?show@QPopupMenu@@UAEXXZ 0041d420     qt-mt323:qt-mt323.dll
 0002:00000424       __imp_?setUpdatesEnabled@QWidget@@UAEX_N@Z 0041d424     qt-mt323:qt-mt323.dll
 0002:00000428       __imp_?setFocusProxy@QWidget@@UAEXPAV1@@Z 0041d428     qt-mt323:qt-mt323.dll
 0002:0000042c       __imp_?setFocusPolicy@QWidget@@UAEXW4FocusPolicy@1@@Z 0041d42c     qt-mt323:qt-mt323.dll
 0002:00000430       __imp_?setActiveWindow@QWidget@@UAEXXZ 0041d430     qt-mt323:qt-mt323.dll
 0002:00000434       __imp_?setFocus@QWidget@@UAEXXZ 0041d434     qt-mt323:qt-mt323.dll
 0002:00000438       __imp_?setMouseTracking@QWidget@@UAEX_N@Z 0041d438     qt-mt323:qt-mt323.dll
 0002:0000043c       __imp_?setIconText@QWidget@@UAEXABVQString@@@Z 0041d43c     qt-mt323:qt-mt323.dll
 0002:00000440       __imp_?setIcon@QWidget@@UAEXABVQPixmap@@@Z 0041d440     qt-mt323:qt-mt323.dll
 0002:00000444       __imp_?setCaption@QWidget@@UAEXABVQString@@@Z 0041d444     qt-mt323:qt-mt323.dll
 0002:00000448       __imp_?setBackgroundPixmap@QWidget@@UAEXABVQPixmap@@@Z 0041d448     qt-mt323:qt-mt323.dll
 0002:0000044c       __imp_?setBackgroundColor@QWidget@@UAEXABVQColor@@@Z 0041d44c     qt-mt323:qt-mt323.dll
 0002:00000450       __imp_?setMask@QWidget@@UAEXABVQBitmap@@@Z 0041d450     qt-mt323:qt-mt323.dll
 0002:00000454       __imp_?setMask@QWidget@@UAEXABVQRegion@@@Z 0041d454     qt-mt323:qt-mt323.dll
 0002:00000458       __imp_?unsetCursor@QWidget@@UAEXXZ 0041d458     qt-mt323:qt-mt323.dll
 0002:0000045c       __imp_?setCursor@QWidget@@UAEXABVQCursor@@@Z 0041d45c     qt-mt323:qt-mt323.dll
 0002:00000460       __imp_?setFont@QPopupMenu@@UAEXABVQFont@@@Z 0041d460     qt-mt323:qt-mt323.dll
 0002:00000464       __imp_?setPaletteBackgroundPixmap@QWidget@@UAEXABVQPixmap@@@Z 0041d464     qt-mt323:qt-mt323.dll
 0002:00000468       __imp_?setPaletteBackgroundColor@QWidget@@UAEXABVQColor@@@Z 0041d468     qt-mt323:qt-mt323.dll
 0002:0000046c       __imp_?setPalette@QWidget@@UAEXABVQPalette@@@Z 0041d46c     qt-mt323:qt-mt323.dll
 0002:00000470       __imp_?setErasePixmap@QWidget@@UAEXABVQPixmap@@@Z 0041d470     qt-mt323:qt-mt323.dll
 0002:00000474       __imp_?setEraseColor@QWidget@@UAEXABVQColor@@@Z 0041d474     qt-mt323:qt-mt323.dll
 0002:00000478       __imp_?setBackgroundMode@QWidget@@UAEXW4BackgroundMode@Qt@@@Z 0041d478     qt-mt323:qt-mt323.dll
 0002:0000047c       __imp_?setSizeIncrement@QWidget@@UAEXHH@Z 0041d47c     qt-mt323:qt-mt323.dll
 0002:00000480       __imp_?setMaximumSize@QWidget@@UAEXHH@Z 0041d480     qt-mt323:qt-mt323.dll
 0002:00000484       __imp_?setMinimumSize@QWidget@@UAEXHH@Z 0041d484     qt-mt323:qt-mt323.dll
 0002:00000488       __imp_?setEnabled@QWidget@@UAEX_N@Z 0041d488     qt-mt323:qt-mt323.dll
 0002:0000048c       __imp_?checkConnectArgs@QObject@@MAE_NPBDPBV1@0@Z 0041d48c     qt-mt323:qt-mt323.dll
 0002:00000490       __imp_?disconnectNotify@QObject@@MAEXPBD@Z 0041d490     qt-mt323:qt-mt323.dll
 0002:00000494       __imp_?connectNotify@QObject@@MAEXPBD@Z 0041d494     qt-mt323:qt-mt323.dll
 0002:00000498       __imp_?customEvent@QObject@@MAEXPAVQCustomEvent@@@Z 0041d498     qt-mt323:qt-mt323.dll
 0002:0000049c       __imp_?childEvent@QObject@@MAEXPAVQChildEvent@@@Z 0041d49c     qt-mt323:qt-mt323.dll
 0002:000004a0       __imp_?timerEvent@QPopupMenu@@MAEXPAVQTimerEvent@@@Z 0041d4a0     qt-mt323:qt-mt323.dll
 0002:000004a4       __imp_?property@QObject@@UBE?AVQVariant@@PBD@Z 0041d4a4     qt-mt323:qt-mt323.dll
 0002:000004a8       __imp_?setProperty@QObject@@UAE_NPBDABVQVariant@@@Z 0041d4a8     qt-mt323:qt-mt323.dll
 0002:000004ac       __imp_?removeChild@QObject@@UAEXPAV1@@Z 0041d4ac     qt-mt323:qt-mt323.dll
 0002:000004b0       __imp_?insertChild@QObject@@UAEXPAV1@@Z 0041d4b0     qt-mt323:qt-mt323.dll
 0002:000004b4       __imp_?setName@QWidget@@UAEXPBD@Z 0041d4b4     qt-mt323:qt-mt323.dll
 0002:000004b8       __imp_?eventFilter@QObject@@UAE_NPAV1@PAVQEvent@@@Z 0041d4b8     qt-mt323:qt-mt323.dll
 0002:000004bc       __imp_?event@QWidget@@MAE_NPAVQEvent@@@Z 0041d4bc     qt-mt323:qt-mt323.dll
 0002:000004c0       __imp_?qt_property@QPopupMenu@@UAE_NHHPAVQVariant@@@Z 0041d4c0     qt-mt323:qt-mt323.dll
 0002:000004c4       __imp_?qt_emit@QPopupMenu@@UAE_NHPAUQUObject@@@Z 0041d4c4     qt-mt323:qt-mt323.dll
 0002:000004c8       __imp_?qt_invoke@QPopupMenu@@UAE_NHPAUQUObject@@@Z 0041d4c8     qt-mt323:qt-mt323.dll
 0002:000004cc       __imp_?qt_cast@QPopupMenu@@UAEPAXPBD@Z 0041d4cc     qt-mt323:qt-mt323.dll
 0002:000004d0       __imp_?className@QPopupMenu@@UBEPBDXZ 0041d4d0     qt-mt323:qt-mt323.dll
 0002:000004d4       __imp_?metaObject@QPopupMenu@@UBEPAVQMetaObject@@XZ 0041d4d4     qt-mt323:qt-mt323.dll
 0002:000004d8       __imp_??1QMainWindow@@UAE@XZ 0041d4d8     qt-mt323:qt-mt323.dll
 0002:000004dc       __imp_?message@QStatusBar@@QAEXABVQString@@@Z 0041d4dc     qt-mt323:qt-mt323.dll
 0002:000004e0       __imp_?statusBar@QMainWindow@@QBEPAVQStatusBar@@XZ 0041d4e0     qt-mt323:qt-mt323.dll
 0002:000004e4       __imp_?insertItem@QMenuData@@QAEHABVQString@@PAVQPopupMenu@@HH@Z 0041d4e4     qt-mt323:qt-mt323.dll
 0002:000004e8       __imp_?menuBar@QMainWindow@@QBEPAVQMenuBar@@XZ 0041d4e8     qt-mt323:qt-mt323.dll
 0002:000004ec       __imp_?insertSeparator@QMenuData@@QAEHH@Z 0041d4ec     qt-mt323:qt-mt323.dll
 0002:000004f0       __imp_?newData@QGArray@@MAEPAUarray_data@1@XZ 0041d4f0     qt-mt323:qt-mt323.dll
 0002:000004f4       __imp_?insertItem@QMenuData@@QAEHABVQString@@PBVQObject@@PBDABVQKeySequence@@HH@Z 0041d4f4     qt-mt323:qt-mt323.dll
 0002:000004f8       __imp_??0QKeySequence@@QAE@H@Z 0041d4f8     qt-mt323:qt-mt323.dll
 0002:000004fc       __imp_??0QPopupMenu@@QAE@PAVQWidget@@PBD@Z 0041d4fc     qt-mt323:qt-mt323.dll
 0002:00000500       __imp_??0QMainWindow@@QAE@PAVQWidget@@PBDI@Z 0041d500     qt-mt323:qt-mt323.dll
 0002:00000504       __imp_??1QPopupMenu@@UAE@XZ 0041d504     qt-mt323:qt-mt323.dll
 0002:00000508       __imp_?quit@QApplication@@QAEXXZ 0041d508     qt-mt323:qt-mt323.dll
 0002:0000050c       __imp_?qApp@@3PAVQApplication@@A 0041d50c     qt-mt323:qt-mt323.dll
 0002:00000510       __imp_??1QGDict@@MAE@XZ    0041d510     qt-mt323:qt-mt323.dll
 0002:00000514       __imp_?clear@QGDict@@MAEXXZ 0041d514     qt-mt323:qt-mt323.dll
 0002:00000518       __imp_?setOn@QPushButton@@UAEX_N@Z 0041d518     qt-mt323:qt-mt323.dll
 0002:0000051c       __imp_?setIsMenuButton@QPushButton@@UAEX_N@Z 0041d51c     qt-mt323:qt-mt323.dll
 0002:00000520       __imp_?setDefault@QPushButton@@UAEX_N@Z 0041d520     qt-mt323:qt-mt323.dll
 0002:00000524       __imp_?setAutoDefault@QPushButton@@UAEX_N@Z 0041d524     qt-mt323:qt-mt323.dll
 0002:00000528       __imp_?setGroup@QButton@@EAEXPAVQButtonGroup@@@Z 0041d528     qt-mt323:qt-mt323.dll
 0002:0000052c       __imp_?drawButtonLabel@QPushButton@@MAEXPAVQPainter@@@Z 0041d52c     qt-mt323:qt-mt323.dll
 0002:00000530       __imp_?drawButton@QPushButton@@MAEXPAVQPainter@@@Z 0041d530     qt-mt323:qt-mt323.dll
 0002:00000534       __imp_?hitButton@QButton@@MBE_NABVQPoint@@@Z 0041d534     qt-mt323:qt-mt323.dll
 0002:00000538       __imp_?setState@QButton@@MAEXW4ToggleState@1@@Z 0041d538     qt-mt323:qt-mt323.dll
 0002:0000053c       __imp_?setToggleType@QButton@@MAEXW4ToggleType@1@@Z 0041d53c     qt-mt323:qt-mt323.dll
 0002:00000540       __imp_?setAutoRepeat@QButton@@UAEX_N@Z 0041d540     qt-mt323:qt-mt323.dll
 0002:00000544       __imp_?setDown@QButton@@UAEX_N@Z 0041d544     qt-mt323:qt-mt323.dll
 0002:00000548       __imp_?setAccel@QButton@@UAEXABVQKeySequence@@@Z 0041d548     qt-mt323:qt-mt323.dll
 0002:0000054c       __imp_?setPixmap@QButton@@UAEXABVQPixmap@@@Z 0041d54c     qt-mt323:qt-mt323.dll
 0002:00000550       __imp_?setText@QButton@@UAEXABVQString@@@Z 0041d550     qt-mt323:qt-mt323.dll
 0002:00000554       __imp_?enabledChange@QButton@@MAEX_N@Z 0041d554     qt-mt323:qt-mt323.dll
 0002:00000558       __imp_?updateMask@QPushButton@@MAEXXZ 0041d558     qt-mt323:qt-mt323.dll
 0002:0000055c       __imp_?resizeEvent@QPushButton@@MAEXPAVQResizeEvent@@@Z 0041d55c     qt-mt323:qt-mt323.dll
 0002:00000560       __imp_?paintEvent@QButton@@MAEXPAVQPaintEvent@@@Z 0041d560     qt-mt323:qt-mt323.dll
 0002:00000564       __imp_?focusOutEvent@QPushButton@@MAEXPAVQFocusEvent@@@Z 0041d564     qt-mt323:qt-mt323.dll
 0002:00000568       __imp_?focusInEvent@QPushButton@@MAEXPAVQFocusEvent@@@Z 0041d568     qt-mt323:qt-mt323.dll
 0002:0000056c       __imp_?keyReleaseEvent@QButton@@MAEXPAVQKeyEvent@@@Z 0041d56c     qt-mt323:qt-mt323.dll
 0002:00000570       __imp_?keyPressEvent@QButton@@MAEXPAVQKeyEvent@@@Z 0041d570     qt-mt323:qt-mt323.dll
 0002:00000574       __imp_?mouseMoveEvent@QButton@@MAEXPAVQMouseEvent@@@Z 0041d574     qt-mt323:qt-mt323.dll
 0002:00000578       __imp_?mouseReleaseEvent@QButton@@MAEXPAVQMouseEvent@@@Z 0041d578     qt-mt323:qt-mt323.dll
 0002:0000057c       __imp_?mousePressEvent@QButton@@MAEXPAVQMouseEvent@@@Z 0041d57c     qt-mt323:qt-mt323.dll
 0002:00000580       __imp_?sizeHint@QPushButton@@UBE?AVQSize@@XZ 0041d580     qt-mt323:qt-mt323.dll
 0002:00000584       __imp_?setGeometry@QPushButton@@UAEXHHHH@Z 0041d584     qt-mt323:qt-mt323.dll
 0002:00000588       __imp_?setGeometry@QPushButton@@UAEXABVQRect@@@Z 0041d588     qt-mt323:qt-mt323.dll
 0002:0000058c       __imp_?resize@QPushButton@@UAEXHH@Z 0041d58c     qt-mt323:qt-mt323.dll
 0002:00000590       __imp_?move@QPushButton@@UAEXHH@Z 0041d590     qt-mt323:qt-mt323.dll
 0002:00000594       __imp_?qt_property@QPushButton@@UAE_NHHPAVQVariant@@@Z 0041d594     qt-mt323:qt-mt323.dll
 0002:00000598       __imp_?qt_emit@QPushButton@@UAE_NHPAUQUObject@@@Z 0041d598     qt-mt323:qt-mt323.dll
 0002:0000059c       __imp_?qt_invoke@QPushButton@@UAE_NHPAUQUObject@@@Z 0041d59c     qt-mt323:qt-mt323.dll
 0002:000005a0       __imp_?qt_cast@QPushButton@@UAEPAXPBD@Z 0041d5a0     qt-mt323:qt-mt323.dll
 0002:000005a4       __imp_?className@QPushButton@@UBEPBDXZ 0041d5a4     qt-mt323:qt-mt323.dll
 0002:000005a8       __imp_?metaObject@QPushButton@@UBEPAVQMetaObject@@XZ 0041d5a8     qt-mt323:qt-mt323.dll
 0002:000005ac       __imp_?spacerItem@QSpacerItem@@UAEPAV1@XZ 0041d5ac     qt-mt323:qt-mt323.dll
 0002:000005b0       __imp_?layout@QLayoutItem@@UAEPAVQLayout@@XZ 0041d5b0     qt-mt323:qt-mt323.dll
 0002:000005b4       __imp_?iterator@QLayoutItem@@UAE?AVQLayoutIterator@@XZ 0041d5b4     qt-mt323:qt-mt323.dll
 0002:000005b8       __imp_?invalidate@QLayoutItem@@UAEXXZ 0041d5b8     qt-mt323:qt-mt323.dll
 0002:000005bc       __imp_?heightForWidth@QLayoutItem@@UBEHH@Z 0041d5bc     qt-mt323:qt-mt323.dll
 0002:000005c0       __imp_?hasHeightForWidth@QLayoutItem@@UBE_NXZ 0041d5c0     qt-mt323:qt-mt323.dll
 0002:000005c4       __imp_?isEmpty@QSpacerItem@@UBE_NXZ 0041d5c4     qt-mt323:qt-mt323.dll
 0002:000005c8       __imp_?geometry@QSpacerItem@@UBE?AVQRect@@XZ 0041d5c8     qt-mt323:qt-mt323.dll
 0002:000005cc       __imp_?setGeometry@QSpacerItem@@UAEXABVQRect@@@Z 0041d5cc     qt-mt323:qt-mt323.dll
 0002:000005d0       __imp_?expanding@QSpacerItem@@UBE?AW4ExpandData@QSizePolicy@@XZ 0041d5d0     qt-mt323:qt-mt323.dll
 0002:000005d4       __imp_?maximumSize@QSpacerItem@@UBE?AVQSize@@XZ 0041d5d4     qt-mt323:qt-mt323.dll
 0002:000005d8       __imp_?minimumSize@QSpacerItem@@UBE?AVQSize@@XZ 0041d5d8     qt-mt323:qt-mt323.dll
 0002:000005dc       __imp_?sizeHint@QSpacerItem@@UBE?AVQSize@@XZ 0041d5dc     qt-mt323:qt-mt323.dll
 0002:000005e0       __imp_?reject@QDialog@@MAEXXZ 0041d5e0     qt-mt323:qt-mt323.dll
 0002:000005e4       __imp_?done@QDialog@@MAEXH@Z 0041d5e4     qt-mt323:qt-mt323.dll
 0002:000005e8       __imp_?styleChange@QWidget@@MAEXAAVQStyle@@@Z 0041d5e8     qt-mt323:qt-mt323.dll
 0002:000005ec       __imp_?contextMenuEvent@QDialog@@MAEXPAVQContextMenuEvent@@@Z 0041d5ec     qt-mt323:qt-mt323.dll
 0002:000005f0       __imp_?closeEvent@QDialog@@MAEXPAVQCloseEvent@@@Z 0041d5f0     qt-mt323:qt-mt323.dll
 0002:000005f4       __imp_?resizeEvent@QDialog@@MAEXPAVQResizeEvent@@@Z 0041d5f4     qt-mt323:qt-mt323.dll
 0002:000005f8       __imp_?paintEvent@QWidget@@MAEXPAVQPaintEvent@@@Z 0041d5f8     qt-mt323:qt-mt323.dll
 0002:000005fc       __imp_?keyPressEvent@QDialog@@MAEXPAVQKeyEvent@@@Z 0041d5fc     qt-mt323:qt-mt323.dll
 0002:00000600       __imp_?minimumSizeHint@QDialog@@UBE?AVQSize@@XZ 0041d600     qt-mt323:qt-mt323.dll
 0002:00000604       __imp_?sizeHint@QDialog@@UBE?AVQSize@@XZ 0041d604     qt-mt323:qt-mt323.dll
 0002:00000608       __imp_?setGeometry@QDialog@@UAEXHHHH@Z 0041d608     qt-mt323:qt-mt323.dll
 0002:0000060c       __imp_?setGeometry@QDialog@@UAEXABVQRect@@@Z 0041d60c     qt-mt323:qt-mt323.dll
 0002:00000610       __imp_?resize@QDialog@@UAEXHH@Z 0041d610     qt-mt323:qt-mt323.dll
 0002:00000614       __imp_?move@QDialog@@UAEXHH@Z 0041d614     qt-mt323:qt-mt323.dll
 0002:00000618       __imp_?hide@QDialog@@UAEXXZ 0041d618     qt-mt323:qt-mt323.dll
 0002:0000061c       __imp_?show@QDialog@@UAEXXZ 0041d61c     qt-mt323:qt-mt323.dll
 0002:00000620       __imp_?eventFilter@QDialog@@MAE_NPAVQObject@@PAVQEvent@@@Z 0041d620     qt-mt323:qt-mt323.dll
 0002:00000624       __imp_?setNum@QLabel@@UAEXH@Z 0041d624     qt-mt323:qt-mt323.dll
 0002:00000628       __imp_?setNum@QLabel@@UAEXN@Z 0041d628     qt-mt323:qt-mt323.dll
 0002:0000062c       __imp_?setMovie@QLabel@@UAEXABVQMovie@@@Z 0041d62c     qt-mt323:qt-mt323.dll
 0002:00000630       __imp_?setPicture@QLabel@@UAEXABVQPicture@@@Z 0041d630     qt-mt323:qt-mt323.dll
 0002:00000634       __imp_?setPixmap@QLabel@@UAEXABVQPixmap@@@Z 0041d634     qt-mt323:qt-mt323.dll
 0002:00000638       __imp_?setText@QLabel@@UAEXABVQString@@@Z 0041d638     qt-mt323:qt-mt323.dll
 0002:0000063c       __imp_?setBuddy@QLabel@@UAEXPAVQWidget@@@Z 0041d63c     qt-mt323:qt-mt323.dll
 0002:00000640       __imp_?setAutoResize@QLabel@@UAEX_N@Z 0041d640     qt-mt323:qt-mt323.dll
 0002:00000644       __imp_?setAlignment@QLabel@@UAEXH@Z 0041d644     qt-mt323:qt-mt323.dll
 0002:00000648       __imp_?frameChanged@QFrame@@MAEXXZ 0041d648     qt-mt323:qt-mt323.dll
 0002:0000064c       __imp_?drawContents@QLabel@@MAEXPAVQPainter@@@Z 0041d64c     qt-mt323:qt-mt323.dll
 0002:00000650       __imp_?fontChange@QLabel@@MAEXABVQFont@@@Z 0041d650     qt-mt323:qt-mt323.dll
 0002:00000654       __imp_?styleChange@QFrame@@MAEXAAVQStyle@@@Z 0041d654     qt-mt323:qt-mt323.dll
 0002:00000658       __imp_?closeEvent@QWidget@@MAEXPAVQCloseEvent@@@Z 0041d658     qt-mt323:qt-mt323.dll
 0002:0000065c       __imp_?resizeEvent@QLabel@@MAEXPAVQResizeEvent@@@Z 0041d65c     qt-mt323:qt-mt323.dll
 0002:00000660       __imp_?paintEvent@QFrame@@MAEXPAVQPaintEvent@@@Z 0041d660     qt-mt323:qt-mt323.dll
 0002:00000664       __imp_?heightForWidth@QLabel@@UBEHH@Z 0041d664     qt-mt323:qt-mt323.dll
 0002:00000668       __imp_?minimumSizeHint@QLabel@@UBE?AVQSize@@XZ 0041d668     qt-mt323:qt-mt323.dll
 0002:0000066c       __imp_?sizeHint@QLabel@@UBE?AVQSize@@XZ 0041d66c     qt-mt323:qt-mt323.dll
 0002:00000670       __imp_?hide@QWidget@@UAEXXZ 0041d670     qt-mt323:qt-mt323.dll
 0002:00000674       __imp_?show@QWidget@@UAEXXZ 0041d674     qt-mt323:qt-mt323.dll
 0002:00000678       __imp_?setFont@QLabel@@UAEXABVQFont@@@Z 0041d678     qt-mt323:qt-mt323.dll
 0002:0000067c       __imp_?qt_property@QLabel@@UAE_NHHPAVQVariant@@@Z 0041d67c     qt-mt323:qt-mt323.dll
 0002:00000680       __imp_?qt_emit@QLabel@@UAE_NHPAUQUObject@@@Z 0041d680     qt-mt323:qt-mt323.dll
 0002:00000684       __imp_?qt_invoke@QLabel@@UAE_NHPAUQUObject@@@Z 0041d684     qt-mt323:qt-mt323.dll
 0002:00000688       __imp_?qt_cast@QLabel@@UAEPAXPBD@Z 0041d688     qt-mt323:qt-mt323.dll
 0002:0000068c       __imp_?className@QLabel@@UBEPBDXZ 0041d68c     qt-mt323:qt-mt323.dll
 0002:00000690       __imp_?metaObject@QLabel@@UBEPAVQMetaObject@@XZ 0041d690     qt-mt323:qt-mt323.dll
 0002:00000694       __imp_?qt_property@QHBoxLayout@@UAE_NHHPAVQVariant@@@Z 0041d694     qt-mt323:qt-mt323.dll
 0002:00000698       __imp_?qt_emit@QHBoxLayout@@UAE_NHPAUQUObject@@@Z 0041d698     qt-mt323:qt-mt323.dll
 0002:0000069c       __imp_?qt_invoke@QHBoxLayout@@UAE_NHPAUQUObject@@@Z 0041d69c     qt-mt323:qt-mt323.dll
 0002:000006a0       __imp_?qt_cast@QHBoxLayout@@UAEPAXPBD@Z 0041d6a0     qt-mt323:qt-mt323.dll
 0002:000006a4       __imp_?className@QHBoxLayout@@UBEPBDXZ 0041d6a4     qt-mt323:qt-mt323.dll
 0002:000006a8       __imp_?metaObject@QHBoxLayout@@UBEPAVQMetaObject@@XZ 0041d6a8     qt-mt323:qt-mt323.dll
 0002:000006ac       __imp_?setAlignment@QLayoutItem@@UAEXH@Z 0041d6ac     qt-mt323:qt-mt323.dll
 0002:000006b0       __imp_?spacerItem@QLayoutItem@@UAEPAVQSpacerItem@@XZ 0041d6b0     qt-mt323:qt-mt323.dll
 0002:000006b4       __imp_?layout@QLayout@@UAEPAV1@XZ 0041d6b4     qt-mt323:qt-mt323.dll
 0002:000006b8       __imp_?iterator@QBoxLayout@@UAE?AVQLayoutIterator@@XZ 0041d6b8     qt-mt323:qt-mt323.dll
 0002:000006bc       __imp_?widget@QLayoutItem@@UAEPAVQWidget@@XZ 0041d6bc     qt-mt323:qt-mt323.dll
 0002:000006c0       __imp_?invalidate@QBoxLayout@@UAEXXZ 0041d6c0     qt-mt323:qt-mt323.dll
 0002:000006c4       __imp_?heightForWidth@QBoxLayout@@UBEHH@Z 0041d6c4     qt-mt323:qt-mt323.dll
 0002:000006c8       __imp_?hasHeightForWidth@QBoxLayout@@UBE_NXZ 0041d6c8     qt-mt323:qt-mt323.dll
 0002:000006cc       __imp_?isEmpty@QLayout@@UBE_NXZ 0041d6cc     qt-mt323:qt-mt323.dll
 0002:000006d0       __imp_?geometry@QLayout@@UBE?AVQRect@@XZ 0041d6d0     qt-mt323:qt-mt323.dll
 0002:000006d4       __imp_?setGeometry@QBoxLayout@@UAEXABVQRect@@@Z 0041d6d4     qt-mt323:qt-mt323.dll
 0002:000006d8       __imp_?expanding@QBoxLayout@@UBE?AW4ExpandData@QSizePolicy@@XZ 0041d6d8     qt-mt323:qt-mt323.dll
 0002:000006dc       __imp_?maximumSize@QBoxLayout@@UBE?AVQSize@@XZ 0041d6dc     qt-mt323:qt-mt323.dll
 0002:000006e0       __imp_?minimumSize@QBoxLayout@@UBE?AVQSize@@XZ 0041d6e0     qt-mt323:qt-mt323.dll
 0002:000006e4       __imp_?sizeHint@QBoxLayout@@UBE?AVQSize@@XZ 0041d6e4     qt-mt323:qt-mt323.dll
 0002:000006e8       __imp_?addItem@QBoxLayout@@UAEXPAVQLayoutItem@@@Z 0041d6e8     qt-mt323:qt-mt323.dll
 0002:000006ec       __imp_?setAutoAdd@QLayout@@UAEX_N@Z 0041d6ec     qt-mt323:qt-mt323.dll
 0002:000006f0       __imp_?setMenuBar@QLayout@@UAEXPAVQMenuBar@@@Z 0041d6f0     qt-mt323:qt-mt323.dll
 0002:000006f4       __imp_?setSpacing@QLayout@@UAEXH@Z 0041d6f4     qt-mt323:qt-mt323.dll
 0002:000006f8       __imp_?setMargin@QLayout@@UAEXH@Z 0041d6f8     qt-mt323:qt-mt323.dll
 0002:000006fc       __imp_?childEvent@QLayout@@MAEXPAVQChildEvent@@@Z 0041d6fc     qt-mt323:qt-mt323.dll
 0002:00000700       __imp_?setName@QObject@@UAEXPBD@Z 0041d700     qt-mt323:qt-mt323.dll
 0002:00000704       __imp_?eventFilter@QLayout@@MAE_NPAVQObject@@PAVQEvent@@@Z 0041d704     qt-mt323:qt-mt323.dll
 0002:00000708       __imp_?event@QObject@@UAE_NPAVQEvent@@@Z 0041d708     qt-mt323:qt-mt323.dll
 0002:0000070c       __imp_?qt_property@QVBoxLayout@@UAE_NHHPAVQVariant@@@Z 0041d70c     qt-mt323:qt-mt323.dll
 0002:00000710       __imp_?qt_emit@QVBoxLayout@@UAE_NHPAUQUObject@@@Z 0041d710     qt-mt323:qt-mt323.dll
 0002:00000714       __imp_?qt_invoke@QVBoxLayout@@UAE_NHPAUQUObject@@@Z 0041d714     qt-mt323:qt-mt323.dll
 0002:00000718       __imp_?qt_cast@QVBoxLayout@@UAEPAXPBD@Z 0041d718     qt-mt323:qt-mt323.dll
 0002:0000071c       __imp_?className@QVBoxLayout@@UBEPBDXZ 0041d71c     qt-mt323:qt-mt323.dll
 0002:00000720       __imp_?metaObject@QVBoxLayout@@UBEPAVQMetaObject@@XZ 0041d720     qt-mt323:qt-mt323.dll
 0002:00000724       __imp_??1QDialog@@UAE@XZ   0041d724     qt-mt323:qt-mt323.dll
 0002:00000728       __imp_??1QFont@@QAE@XZ     0041d728     qt-mt323:qt-mt323.dll
 0002:0000072c       __imp_?connect@QObject@@SA_NPBV1@PBD01@Z 0041d72c     qt-mt323:qt-mt323.dll
 0002:00000730       __imp_?resize@QDialog@@QAEXABVQSize@@@Z 0041d730     qt-mt323:qt-mt323.dll
 0002:00000734       __imp_?addLayout@QBoxLayout@@QAEXPAVQLayout@@H@Z 0041d734     qt-mt323:qt-mt323.dll
 0002:00000738       __imp_??0QPushButton@@QAE@PAVQWidget@@PBD@Z 0041d738     qt-mt323:qt-mt323.dll
 0002:0000073c       __imp_??0QHBoxLayout@@QAE@PAVQWidget@@HHPBD@Z 0041d73c     qt-mt323:qt-mt323.dll
 0002:00000740       __imp_?addWidget@QBoxLayout@@QAEXPAVQWidget@@HH@Z 0041d740     qt-mt323:qt-mt323.dll
 0002:00000744       __imp_?setWeight@QFont@@QAEXH@Z 0041d744     qt-mt323:qt-mt323.dll
 0002:00000748       __imp_?setFamily@QFont@@QAEXABVQString@@@Z 0041d748     qt-mt323:qt-mt323.dll
 0002:0000074c       __imp_?font@QWidget@@QBE?AVQFont@@XZ 0041d74c     qt-mt323:qt-mt323.dll
 0002:00000750       __imp_??0QLabel@@QAE@PAVQWidget@@PBDI@Z 0041d750     qt-mt323:qt-mt323.dll
 0002:00000754       __imp_??0QVBoxLayout@@QAE@PAVQWidget@@HHPBD@Z 0041d754     qt-mt323:qt-mt323.dll
 0002:00000758       __imp_??0QDialog@@QAE@PAVQWidget@@PBD_NI@Z 0041d758     qt-mt323:qt-mt323.dll
 0002:0000075c       __imp_??1QSpacerItem@@UAE@XZ 0041d75c     qt-mt323:qt-mt323.dll
 0002:00000760       __imp_??1QVBoxLayout@@UAE@XZ 0041d760     qt-mt323:qt-mt323.dll
 0002:00000764       __imp_??1QLabel@@UAE@XZ    0041d764     qt-mt323:qt-mt323.dll
 0002:00000768       __imp_??1QHBoxLayout@@UAE@XZ 0041d768     qt-mt323:qt-mt323.dll
 0002:0000076c       __imp_??1QPushButton@@UAE@XZ 0041d76c     qt-mt323:qt-mt323.dll
 0002:00000770       __imp_?qWarning@@YAXPBDZZ  0041d770     qt-mt323:qt-mt323.dll
 0002:00000774       __imp_?null@QString@@2V1@A 0041d774     qt-mt323:qt-mt323.dll
 0002:00000778       __imp_?accept@QDialog@@MAEXXZ 0041d778     qt-mt323:qt-mt323.dll
 0002:0000077c       __imp_?sizeHint@QWidget@@UBE?AVQSize@@XZ 0041d77c     qt-mt323:qt-mt323.dll
 0002:00000780       __imp_?paintCell@QListBox@@MAEXPAVQPainter@@HH@Z 0041d780     qt-mt323:qt-mt323.dll
 0002:00000784       __imp_?invertSelection@QListBox@@UAEXXZ 0041d784     qt-mt323:qt-mt323.dll
 0002:00000788       __imp_?selectAll@QListBox@@UAEX_N@Z 0041d788     qt-mt323:qt-mt323.dll
 0002:0000078c       __imp_?clearSelection@QListBox@@UAEXXZ 0041d78c     qt-mt323:qt-mt323.dll
 0002:00000790       __imp_?ensureCurrentVisible@QListBox@@UAEXXZ 0041d790     qt-mt323:qt-mt323.dll
 0002:00000794       __imp_?setVariableHeight@QListBox@@UAEX_N@Z 0041d794     qt-mt323:qt-mt323.dll
 0002:00000798       __imp_?setVariableWidth@QListBox@@UAEX_N@Z 0041d798     qt-mt323:qt-mt323.dll
 0002:0000079c       __imp_?setRowMode@QListBox@@UAEXW4LayoutMode@1@@Z 0041d79c     qt-mt323:qt-mt323.dll
 0002:000007a0       __imp_?setRowMode@QListBox@@UAEXH@Z 0041d7a0     qt-mt323:qt-mt323.dll
 0002:000007a4       __imp_?setColumnMode@QListBox@@UAEXW4LayoutMode@1@@Z 0041d7a4     qt-mt323:qt-mt323.dll
 0002:000007a8       __imp_?setColumnMode@QListBox@@UAEXH@Z 0041d7a8     qt-mt323:qt-mt323.dll
 0002:000007ac       __imp_?setSelected@QListBox@@UAEXPAVQListBoxItem@@_N@Z 0041d7ac     qt-mt323:qt-mt323.dll
 0002:000007b0       __imp_?setSelectionMode@QListBox@@UAEXW4SelectionMode@1@@Z 0041d7b0     qt-mt323:qt-mt323.dll
 0002:000007b4       __imp_?setBottomItem@QListBox@@UAEXH@Z 0041d7b4     qt-mt323:qt-mt323.dll
 0002:000007b8       __imp_?setTopItem@QListBox@@UAEXH@Z 0041d7b8     qt-mt323:qt-mt323.dll
 0002:000007bc       __imp_?setCurrentItem@QListBox@@UAEXH@Z 0041d7bc     qt-mt323:qt-mt323.dll
 0002:000007c0       __imp_?setCurrentItem@QListBox@@UAEXPAVQListBoxItem@@@Z 0041d7c0     qt-mt323:qt-mt323.dll
 0002:000007c4       __imp_?setVBarGeometry@QScrollView@@MAEXAAVQScrollBar@@HHHH@Z 0041d7c4     qt-mt323:qt-mt323.dll
 0002:000007c8       __imp_?setHBarGeometry@QScrollView@@MAEXAAVQScrollBar@@HHHH@Z 0041d7c8     qt-mt323:qt-mt323.dll
 0002:000007cc       __imp_?setMargins@QScrollView@@MAEXHHHH@Z 0041d7cc     qt-mt323:qt-mt323.dll
 0002:000007d0       __imp_?viewportContextMenuEvent@QScrollView@@MAEXPAVQContextMenuEvent@@@Z 0041d7d0     qt-mt323:qt-mt323.dll
 0002:000007d4       __imp_?viewportWheelEvent@QScrollView@@MAEXPAVQWheelEvent@@@Z 0041d7d4     qt-mt323:qt-mt323.dll
 0002:000007d8       __imp_?viewportDropEvent@QScrollView@@MAEXPAVQDropEvent@@@Z 0041d7d8     qt-mt323:qt-mt323.dll
 0002:000007dc       __imp_?viewportDragLeaveEvent@QScrollView@@MAEXPAVQDragLeaveEvent@@@Z 0041d7dc     qt-mt323:qt-mt323.dll
 0002:000007e0       __imp_?viewportDragMoveEvent@QScrollView@@MAEXPAVQDragMoveEvent@@@Z 0041d7e0     qt-mt323:qt-mt323.dll
 0002:000007e4       __imp_?viewportDragEnterEvent@QScrollView@@MAEXPAVQDragEnterEvent@@@Z 0041d7e4     qt-mt323:qt-mt323.dll
 0002:000007e8       __imp_?viewportMouseMoveEvent@QScrollView@@MAEXPAVQMouseEvent@@@Z 0041d7e8     qt-mt323:qt-mt323.dll
 0002:000007ec       __imp_?viewportMouseDoubleClickEvent@QScrollView@@MAEXPAVQMouseEvent@@@Z 0041d7ec     qt-mt323:qt-mt323.dll
 0002:000007f0       __imp_?viewportMouseReleaseEvent@QScrollView@@MAEXPAVQMouseEvent@@@Z 0041d7f0     qt-mt323:qt-mt323.dll
 0002:000007f4       __imp_?viewportMousePressEvent@QScrollView@@MAEXPAVQMouseEvent@@@Z 0041d7f4     qt-mt323:qt-mt323.dll
 0002:000007f8       __imp_?viewportResizeEvent@QScrollView@@MAEXPAVQResizeEvent@@@Z 0041d7f8     qt-mt323:qt-mt323.dll
 0002:000007fc       __imp_?viewportPaintEvent@QListBox@@UAEXPAVQPaintEvent@@@Z 0041d7fc     qt-mt323:qt-mt323.dll
 0002:00000800       __imp_?contentsContextMenuEvent@QListBox@@MAEXPAVQContextMenuEvent@@@Z 0041d800     qt-mt323:qt-mt323.dll
 0002:00000804       __imp_?contentsWheelEvent@QScrollView@@MAEXPAVQWheelEvent@@@Z 0041d804     qt-mt323:qt-mt323.dll
 0002:00000808       __imp_?contentsDropEvent@QScrollView@@MAEXPAVQDropEvent@@@Z 0041d808     qt-mt323:qt-mt323.dll
 0002:0000080c       __imp_?contentsDragLeaveEvent@QScrollView@@MAEXPAVQDragLeaveEvent@@@Z 0041d80c     qt-mt323:qt-mt323.dll
 0002:00000810       __imp_?contentsDragMoveEvent@QScrollView@@MAEXPAVQDragMoveEvent@@@Z 0041d810     qt-mt323:qt-mt323.dll
 0002:00000814       __imp_?contentsDragEnterEvent@QScrollView@@MAEXPAVQDragEnterEvent@@@Z 0041d814     qt-mt323:qt-mt323.dll
 0002:00000818       __imp_?contentsMouseMoveEvent@QScrollView@@MAEXPAVQMouseEvent@@@Z 0041d818     qt-mt323:qt-mt323.dll
 0002:0000081c       __imp_?contentsMouseDoubleClickEvent@QScrollView@@MAEXPAVQMouseEvent@@@Z 0041d81c     qt-mt323:qt-mt323.dll
 0002:00000820       __imp_?contentsMouseReleaseEvent@QScrollView@@MAEXPAVQMouseEvent@@@Z 0041d820     qt-mt323:qt-mt323.dll
 0002:00000824       __imp_?contentsMousePressEvent@QScrollView@@MAEXPAVQMouseEvent@@@Z 0041d824     qt-mt323:qt-mt323.dll
 0002:00000828       __imp_?drawContentsOffset@QScrollView@@MAEXPAVQPainter@@HHHHHH@Z 0041d828     qt-mt323:qt-mt323.dll
 0002:0000082c       __imp_?drawContents@QScrollView@@MAEXPAVQPainter@@HHHH@Z 0041d82c     qt-mt323:qt-mt323.dll
 0002:00000830       __imp_?setContentsPos@QScrollView@@UAEXHH@Z 0041d830     qt-mt323:qt-mt323.dll
 0002:00000834       __imp_?resizeContents@QScrollView@@UAEXHH@Z 0041d834     qt-mt323:qt-mt323.dll
 0002:00000838       __imp_?setDragAutoScroll@QScrollView@@UAEX_N@Z 0041d838     qt-mt323:qt-mt323.dll
 0002:0000083c       __imp_?setCornerWidget@QScrollView@@UAEXPAVQWidget@@@Z 0041d83c     qt-mt323:qt-mt323.dll
 0002:00000840       __imp_?setHScrollBarMode@QScrollView@@UAEXW4ScrollBarMode@1@@Z 0041d840     qt-mt323:qt-mt323.dll
 0002:00000844       __imp_?setVScrollBarMode@QScrollView@@UAEXW4ScrollBarMode@1@@Z 0041d844     qt-mt323:qt-mt323.dll
 0002:00000848       __imp_?moveChild@QScrollView@@UAEXPAVQWidget@@HH@Z 0041d848     qt-mt323:qt-mt323.dll
 0002:0000084c       __imp_?addChild@QScrollView@@UAEXPAVQWidget@@HH@Z 0041d84c     qt-mt323:qt-mt323.dll
 0002:00000850       __imp_?setResizePolicy@QScrollView@@UAEXW4ResizePolicy@1@@Z 0041d850     qt-mt323:qt-mt323.dll
 0002:00000854       __imp_?frameChanged@QScrollView@@MAEXXZ 0041d854     qt-mt323:qt-mt323.dll
 0002:00000858       __imp_?drawContents@QScrollView@@EAEXPAVQPainter@@@Z 0041d858     qt-mt323:qt-mt323.dll
 0002:0000085c       __imp_?focusNextPrevChild@QScrollView@@MAE_N_N@Z 0041d85c     qt-mt323:qt-mt323.dll
 0002:00000860       __imp_?windowActivationChange@QListBox@@MAEX_N@Z 0041d860     qt-mt323:qt-mt323.dll
 0002:00000864       __imp_?fontChange@QScrollView@@MAEXABVQFont@@@Z 0041d864     qt-mt323:qt-mt323.dll
 0002:00000868       __imp_?styleChange@QScrollView@@UAEXAAVQStyle@@@Z 0041d868     qt-mt323:qt-mt323.dll
 0002:0000086c       __imp_?showEvent@QListBox@@MAEXPAVQShowEvent@@@Z 0041d86c     qt-mt323:qt-mt323.dll
 0002:00000870       __imp_?contextMenuEvent@QScrollView@@MAEXPAVQContextMenuEvent@@@Z 0041d870     qt-mt323:qt-mt323.dll
 0002:00000874       __imp_?resizeEvent@QListBox@@MAEXPAVQResizeEvent@@@Z 0041d874     qt-mt323:qt-mt323.dll
 0002:00000878       __imp_?focusOutEvent@QListBox@@MAEXPAVQFocusEvent@@@Z 0041d878     qt-mt323:qt-mt323.dll
 0002:0000087c       __imp_?focusInEvent@QListBox@@MAEXPAVQFocusEvent@@@Z 0041d87c     qt-mt323:qt-mt323.dll
 0002:00000880       __imp_?keyPressEvent@QListBox@@MAEXPAVQKeyEvent@@@Z 0041d880     qt-mt323:qt-mt323.dll
 0002:00000884       __imp_?wheelEvent@QScrollView@@MAEXPAVQWheelEvent@@@Z 0041d884     qt-mt323:qt-mt323.dll
 0002:00000888       __imp_?mouseMoveEvent@QListBox@@MAEXPAVQMouseEvent@@@Z 0041d888     qt-mt323:qt-mt323.dll
 0002:0000088c       __imp_?mouseDoubleClickEvent@QListBox@@MAEXPAVQMouseEvent@@@Z 0041d88c     qt-mt323:qt-mt323.dll
 0002:00000890       __imp_?mouseReleaseEvent@QListBox@@MAEXPAVQMouseEvent@@@Z 0041d890     qt-mt323:qt-mt323.dll
 0002:00000894       __imp_?mousePressEvent@QListBox@@MAEXPAVQMouseEvent@@@Z 0041d894     qt-mt323:qt-mt323.dll
 0002:00000898       __imp_?minimumSizeHint@QListBox@@UBE?AVQSize@@XZ 0041d898     qt-mt323:qt-mt323.dll
 0002:0000089c       __imp_?sizeHint@QListBox@@UBE?AVQSize@@XZ 0041d89c     qt-mt323:qt-mt323.dll
 0002:000008a0       __imp_?resize@QScrollView@@UAEXHH@Z 0041d8a0     qt-mt323:qt-mt323.dll
 0002:000008a4       __imp_?show@QScrollView@@UAEXXZ 0041d8a4     qt-mt323:qt-mt323.dll
 0002:000008a8       __imp_?setFont@QListBox@@UAEXABVQFont@@@Z 0041d8a8     qt-mt323:qt-mt323.dll
 0002:000008ac       __imp_?setEnabled@QScrollView@@UAEX_N@Z 0041d8ac     qt-mt323:qt-mt323.dll
 0002:000008b0       __imp_?removeChild@QScrollView@@UAEXPAVQObject@@@Z 0041d8b0     qt-mt323:qt-mt323.dll
 0002:000008b4       __imp_?eventFilter@QListBox@@MAE_NPAVQObject@@PAVQEvent@@@Z 0041d8b4     qt-mt323:qt-mt323.dll
 0002:000008b8       __imp_?qt_property@QListBox@@UAE_NHHPAVQVariant@@@Z 0041d8b8     qt-mt323:qt-mt323.dll
 0002:000008bc       __imp_?qt_emit@QListBox@@UAE_NHPAUQUObject@@@Z 0041d8bc     qt-mt323:qt-mt323.dll
 0002:000008c0       __imp_?qt_invoke@QListBox@@UAE_NHPAUQUObject@@@Z 0041d8c0     qt-mt323:qt-mt323.dll
 0002:000008c4       __imp_?qt_cast@QListBox@@UAEPAXPBD@Z 0041d8c4     qt-mt323:qt-mt323.dll
 0002:000008c8       __imp_?className@QListBox@@UBEPBDXZ 0041d8c8     qt-mt323:qt-mt323.dll
 0002:000008cc       __imp_?metaObject@QListBox@@UBEPAVQMetaObject@@XZ 0041d8cc     qt-mt323:qt-mt323.dll
 0002:000008d0       __imp_??1QWidget@@UAE@XZ   0041d8d0     qt-mt323:qt-mt323.dll
 0002:000008d4       __imp_?setPointSize@QFont@@QAEXH@Z 0041d8d4     qt-mt323:qt-mt323.dll
 0002:000008d8       __imp_??0QListBox@@QAE@PAVQWidget@@PBDI@Z 0041d8d8     qt-mt323:qt-mt323.dll
 0002:000008dc       __imp_?setRgb@QColor@@QAEXHHH@Z 0041d8dc     qt-mt323:qt-mt323.dll
 0002:000008e0       __imp_??0QWidget@@QAE@PAV0@PBDI@Z 0041d8e0     qt-mt323:qt-mt323.dll
 0002:000008e4       __imp_??1QListBox@@UAE@XZ  0041d8e4     qt-mt323:qt-mt323.dll
 0002:000008e8       __imp_??0QMetaObjectCleanUp@@QAE@PBDP6APAVQMetaObject@@XZ@Z 0041d8e8     qt-mt323:qt-mt323.dll
 0002:000008ec       __imp_??1QMetaObjectCleanUp@@QAE@XZ 0041d8ec     qt-mt323:qt-mt323.dll
 0002:000008f0       __imp_?fromLatin1@QString@@SA?AV1@PBDH@Z 0041d8f0     qt-mt323:qt-mt323.dll
 0002:000008f4       __imp_?translate@QApplication@@QBE?AVQString@@PBD00W4Encoding@1@@Z 0041d8f4     qt-mt323:qt-mt323.dll
 0002:000008f8       __imp_?setMetaObject@QMetaObjectCleanUp@@QAEXAAPAVQMetaObject@@@Z 0041d8f8     qt-mt323:qt-mt323.dll
 0002:000008fc       __imp_?new_metaobject@QMetaObject@@SAPAV1@PBDPAV1@QBUQMetaData@@H2HQBVQMetaProperty@@HQBUQMetaEnum@@HQBUQClassInfo@@H@Z 0041d8fc     qt-mt323:qt-mt323.dll
 0002:00000900       __imp_?staticMetaObject@QDialog@@SAPAVQMetaObject@@XZ 0041d900     qt-mt323:qt-mt323.dll
 0002:00000904       __imp_?qt_cast@QDialog@@UAEPAXPBD@Z 0041d904     qt-mt323:qt-mt323.dll
 0002:00000908       __imp_?qt_invoke@QDialog@@UAE_NHPAUQUObject@@@Z 0041d908     qt-mt323:qt-mt323.dll
 0002:0000090c       __imp_?qt_emit@QDialog@@UAE_NHPAUQUObject@@@Z 0041d90c     qt-mt323:qt-mt323.dll
 0002:00000910       __imp_?qt_property@QDialog@@UAE_NHHPAVQVariant@@@Z 0041d910     qt-mt323:qt-mt323.dll
 0002:00000914       __imp_?staticMetaObject@QWidget@@SAPAVQMetaObject@@XZ 0041d914     qt-mt323:qt-mt323.dll
 0002:00000918       __imp_?qt_cast@QWidget@@UAEPAXPBD@Z 0041d918     qt-mt323:qt-mt323.dll
 0002:0000091c       __imp_?qt_invoke@QWidget@@UAE_NHPAUQUObject@@@Z 0041d91c     qt-mt323:qt-mt323.dll
 0002:00000920       __imp_?qt_emit@QWidget@@UAE_NHPAUQUObject@@@Z 0041d920     qt-mt323:qt-mt323.dll
 0002:00000924       __imp_?qt_property@QWidget@@UAE_NHHPAVQVariant@@@Z 0041d924     qt-mt323:qt-mt323.dll
 0002:00000928       __imp_?staticMetaObject@QMainWindow@@SAPAVQMetaObject@@XZ 0041d928     qt-mt323:qt-mt323.dll
 0002:0000092c       __imp_?qt_cast@QMainWindow@@UAEPAXPBD@Z 0041d92c     qt-mt323:qt-mt323.dll
 0002:00000930       __imp_?qt_invoke@QMainWindow@@UAE_NHPAUQUObject@@@Z 0041d930     qt-mt323:qt-mt323.dll
 0002:00000934       __imp_?qt_emit@QMainWindow@@UAE_NHPAUQUObject@@@Z 0041d934     qt-mt323:qt-mt323.dll
 0002:00000938       __imp_?qt_property@QMainWindow@@UAE_NHHPAVQVariant@@@Z 0041d938     qt-mt323:qt-mt323.dll
 0002:0000093c       __imp_?deleteData@QGArray@@MAEXPAUarray_data@1@@Z 0041d93c     qt-mt323:qt-mt323.dll
 0002:00000940       __imp_??0QApplication@@QAE@AAHPAPAD_N@Z 0041d940     qt-mt323:qt-mt323.dll
 0002:00000944       __imp_??0QFile@@QAE@ABVQString@@@Z 0041d944     qt-mt323:qt-mt323.dll
 0002:00000948       __imp_?open@QFile@@UAE_NH@Z 0041d948     qt-mt323:qt-mt323.dll
 0002:0000094c       __imp_??0QDataStream@@QAE@PAVQIODevice@@@Z 0041d94c     qt-mt323:qt-mt323.dll
 0002:00000950       __imp_??0QGArray@@IAE@ABV0@@Z 0041d950     qt-mt323:qt-mt323.dll
 0002:00000954       __imp_??_7?$QMemArray@D@@6B@ 0041d954     qt-mt323:qt-mt323.dll
 0002:00000958       __imp_?writeRawBytes@QDataStream@@QAEAAV1@PBDI@Z 0041d958     qt-mt323:qt-mt323.dll
 0002:0000095c       __imp_?close@QFile@@UAEXXZ 0041d95c     qt-mt323:qt-mt323.dll
 0002:00000960       __imp_??0QProcess@@QAE@PAVQObject@@PBD@Z 0041d960     qt-mt323:qt-mt323.dll
 0002:00000964       __imp_?addArgument@QProcess@@UAEXABVQString@@@Z 0041d964     qt-mt323:qt-mt323.dll
 0002:00000968       __imp_?start@QProcess@@UAE_NPAVQStringList@@@Z 0041d968     qt-mt323:qt-mt323.dll
 0002:0000096c       __imp_??1QProcess@@UAE@XZ  0041d96c     qt-mt323:qt-mt323.dll
 0002:00000970       __imp_??1QGArray@@MAE@XZ   0041d970     qt-mt323:qt-mt323.dll
 0002:00000974       __imp_??1QDataStream@@UAE@XZ 0041d974     qt-mt323:qt-mt323.dll
 0002:00000978       __imp_??1QFile@@UAE@XZ     0041d978     qt-mt323:qt-mt323.dll
 0002:0000097c       __imp_?setMainWidget@QApplication@@UAEXPAVQWidget@@@Z 0041d97c     qt-mt323:qt-mt323.dll
 0002:00000980       __imp_?showMinimized@QWidget@@UAEXXZ 0041d980     qt-mt323:qt-mt323.dll
 0002:00000984       __imp_?exec@QApplication@@QAEHXZ 0041d984     qt-mt323:qt-mt323.dll
 0002:00000988       __imp_??1QApplication@@UAE@XZ 0041d988     qt-mt323:qt-mt323.dll
 0002:0000098c       __imp_?count@QListBox@@QBEIXZ 0041d98c     qt-mt323:qt-mt323.dll
 0002:00000990       __imp_?text@QListBox@@QBE?AVQString@@H@Z 0041d990     qt-mt323:qt-mt323.dll
 0002:00000994       __imp_?ascii@QString@@QBEPBDXZ 0041d994     qt-mt323:qt-mt323.dll
 0002:00000998       __imp_?removeItem@QListBox@@QAEXH@Z 0041d998     qt-mt323:qt-mt323.dll
 0002:0000099c       __imp_?insertItem@QListBox@@QAEXABVQString@@H@Z 0041d99c     qt-mt323:qt-mt323.dll
 0002:000009a0       __imp_?setItemChecked@QMenuData@@QAEXH_N@Z 0041d9a0     qt-mt323:qt-mt323.dll
 0002:000009a4       __imp_?arg@QString@@QBE?AV1@HHH@Z 0041d9a4     qt-mt323:qt-mt323.dll
 0002:000009a8       __imp_?clear@QListBox@@QAEXXZ 0041d9a8     qt-mt323:qt-mt323.dll
 0002:000009ac       __imp_?processEvents@QApplication@@QAEXXZ 0041d9ac     qt-mt323:qt-mt323.dll
 0002:000009b0       __imp_??1?$QMemArray@D@@UAE@XZ 0041d9b0     qt-mt323:qt-mt323.dll
 0002:000009b4       __imp_??0QString@@QAE@PBD@Z 0041d9b4     qt-mt323:qt-mt323.dll
 0002:000009b8       __imp_?deleteSelf@QStringData@@QAEXXZ 0041d9b8     qt-mt323:qt-mt323.dll
 0002:000009bc       __imp_?shared_null@QString@@0PAUQStringData@@A 0041d9bc     qt-mt323:qt-mt323.dll
 0002:000009c0       __imp_?exec@QDialog@@QAEHXZ 0041d9c0     qt-mt323:qt-mt323.dll
 0002:000009c4       __imp_??1QString@@QAE@XZ   0041d9c4     qt-mt323:qt-mt323.dll
 0002:000009c8       __imp_??1QKeySequence@@QAE@XZ 0041d9c8     qt-mt323:qt-mt323.dll
 0002:000009cc       __imp_?qWinMain@@YAXPAUHINSTANCE__@@0PADHAAHAAV?$QMemArray@PAD@@@Z 0041d9cc     qt-mt323:qt-mt323.dll
 0002:000009d0       __imp_??0QGArray@@IAE@H@Z  0041d9d0     qt-mt323:qt-mt323.dll
 0002:000009d4       __imp_?duplicate@QGArray@@IAEAAV1@ABV1@@Z 0041d9d4     qt-mt323:qt-mt323.dll
 0002:000009d8       \177qt-mt323_NULL_THUNK_DATA 0041d9d8     qt-mt323:qt-mt323.dll
 0002:000009e0       ??_7bncs_disklog@@6B@      0041d9e0     bncs_disklog.obj
 0002:00000a24       ??_7sizedBuffer@@6B@       0041da24     sizedBuffer.obj
 0002:0000bec0       ??_S?$QMemArray@D@@6B@     00428ec0     v4_main.obj
 0002:0000bed0       ??_7?$QDict@V?$QMemArray@D@@@@6B@ 00428ed0     v4_main.obj
 0002:0000beec       ??_SQPopupMenu@@6B@        00428eec     v4_main.obj
 0002:0000bf0c       ??_SQPopupMenu@@6BQPaintDevice@@@ 00428f0c     v4_main.obj
 0002:0000bf2c       ??_SQPopupMenu@@6BQObject@@@ 00428f2c     v4_main.obj
 0002:0000c108       ??_7CSI@@6BQPaintDevice@@@ 00429108     v4_main.obj
 0002:0000c128       ??_7CSI@@6BQObject@@@      00429128     v4_main.obj
 0002:0000c370       ??_SQPushButton@@6BQPaintDevice@@@ 00429370     csi_about.obj
 0002:0000c390       ??_SQPushButton@@6BQObject@@@ 00429390     csi_about.obj
 0002:0000c57c       ??_SQSpacerItem@@6B@       0042957c     csi_about.obj
 0002:0000c5bc       ??_SQHBoxLayout@@6BQLayoutItem@@@ 004295bc     csi_about.obj
 0002:0000c5fc       ??_SQHBoxLayout@@6BQObject@@@ 004295fc     csi_about.obj
 0002:0000c660       ??_SQLabel@@6BQPaintDevice@@@ 00429660     csi_about.obj
 0002:0000c680       ??_SQLabel@@6BQObject@@@   00429680     csi_about.obj
 0002:0000c874       ??_SQVBoxLayout@@6BQLayoutItem@@@ 00429874     csi_about.obj
 0002:0000c8b4       ??_SQVBoxLayout@@6BQObject@@@ 004298b4     csi_about.obj
 0002:0000c918       ??_7CSIAboutDlg@@6BQPaintDevice@@@ 00429918     csi_about.obj
 0002:0000c938       ??_7CSIAboutDlg@@6BQObject@@@ 00429938     csi_about.obj
 0002:0000cb04       ??_7CSIDbLoadDlg@@6BQPaintDevice@@@ 00429b04     csi_dbload.obj
 0002:0000cb24       ??_7CSIDbLoadDlg@@6BQObject@@@ 00429b24     csi_dbload.obj
 0002:0000ccf0       ??_7CSILicenseDlg@@6BQPaintDevice@@@ 00429cf0     csi_license.obj
 0002:0000cd10       ??_7CSILicenseDlg@@6BQObject@@@ 00429d10     csi_license.obj
 0002:0000ced0       ??_SQListBox@@6BQPaintDevice@@@ 00429ed0     csi_maindlg.obj
 0002:0000cef0       ??_SQListBox@@6BQObject@@@ 00429ef0     csi_maindlg.obj
 0002:0000d194       ??_7CSIMainDlg@@6BQPaintDevice@@@ 0042a194     csi_maindlg.obj
 0002:0000d1b4       ??_7CSIMainDlg@@6BQObject@@@ 0042a1b4     csi_maindlg.obj
 0002:0000d6dc       ??_7?$QMemArray@PAD@@6B@   0042a6dc     qtmain:qtmain_win.obj
 0002:0000e688       __IMPORT_DESCRIPTOR_bbcnb32m 0042b688     bbcnb32m:bbcnb32m.dll
 0002:0000e69c       __IMPORT_DESCRIPTOR_BNCSIF32 0042b69c     bncsif32:BNCSIF32.dll
 0002:0000e6b0       __IMPORT_DESCRIPTOR_KERNEL32 0042b6b0     kernel32:KERNEL32.dll
 0002:0000e6c4       __IMPORT_DESCRIPTOR_USER32 0042b6c4     user32:USER32.dll
 0002:0000e6d8       __IMPORT_DESCRIPTOR_GDI32  0042b6d8     gdi32:GDI32.dll
 0002:0000e6ec       __IMPORT_DESCRIPTOR_qt-mt323 0042b6ec     qt-mt323:qt-mt323.dll
 0002:0000e700       __IMPORT_DESCRIPTOR_MSVCRT 0042b700     MSVCRT:MSVCRT.dll
 0002:0000e714       __NULL_IMPORT_DESCRIPTOR   0042b714     bbcnb32m:bbcnb32m.dll
 0003:00000000       ___xc_a                    00432000     MSVCRT:cinitexe.obj
 0003:00000018       ___xc_z                    00432018     MSVCRT:cinitexe.obj
 0003:0000001c       ___xi_a                    0043201c     MSVCRT:cinitexe.obj
 0003:00000020       ___xi_z                    00432020     MSVCRT:cinitexe.obj
 0003:00000030       ??_C@_01BJG@?6?$AA@        00432030     bncs_disklog.obj
 0003:00000034       ??_C@_0CE@MPPH@bncs_disklog?3?5Can?8t?5open?5log?5fil@ 00432034     bncs_disklog.obj
 0003:00000058       ??_C@_0N@MKOM@?$CFs?2?$CFs?2?$CFs?4log?$AA@ 00432058     bncs_disklog.obj
 0003:00000068       ??_C@_0BH@JOFC@?$CFs?2?$CFs?2?$CF04d?$CF02d?$CF02d?4log?$AA@ 00432068     bncs_disklog.obj
 0003:00000080       ??_C@_0BM@GACA@?$CFs?2?$CFs?2?$CF04d?$CF02d?$CF02d?9?$CF02d?4log?$AA@ 00432080     bncs_disklog.obj
 0003:0000009c       ??_C@_0BG@KLKP@localtime?5has?5failed?6?$AA@ 0043209c     bncs_disklog.obj
 0003:000000b4       ??_C@_0M@OFHL@c?3?2bncslogs?$AA@ 004320b4     bncs_disklog.obj
 0003:000000c0       ??_C@_0L@PKIN@?$CFs?2?$CFs?2logs?$AA@ 004320c0     bncs_disklog.obj
 0003:000000cc       ??_C@_09EFEJ@CC_SYSTEM?$AA@ 004320cc     bncs_disklog.obj
 0003:000000d8       ??_C@_07FCNI@CC_ROOT?$AA@  004320d8     bncs_disklog.obj
 0003:000000e0       ??_C@_02PIMC@?$AN?6?$AA@   004320e0     bncs_disklog.obj
 0003:000000e4       ??_C@_02GIEM@?0?5?$AA@     004320e4     bncs_disklog.obj
 0003:000000e8       ??_C@_0BP@LJGD@?$CF02d?1?$CF02d?1?$CF04d?5?$CF02d?3?$CF02d?3?$CF02d?5?$AA@ 004320e8     bncs_disklog.obj
 0003:00000108       ??_C@_01PCFE@?2?$AA@       00432108     bncs_disklog.obj
 0003:0000017c       ??_C@_07DAJE@?$CFs?5?9?5?$CFs?$AA@ 0043217c     CSABOUT.obj
 0003:00000184       ??_C@_0M@OFFK@Mar?5?57?52016?$AA@ 00432184     CSABOUT.obj
 0003:00000190       ??_C@_08LDP@22?316?321?$AA@ 00432190     CSABOUT.obj
 0003:0000019c       ??_C@_0BJ@OHAC@Version?5?$CFs?5?9?5?$CIc?$CJSBS?52005?$AA@ 0043219c     CSABOUT.obj
 0003:000001b8       ??_C@_07HDOL@4?42?40?45?$AA@ 004321b8     CSABOUT.obj
 0003:000001c0       ??_C@_05FJOL@About?$AA@    004321c0     CSABOUT.obj
 0003:00000238       ??_C@_0GI@GND@Cache?5Router?5error?5corrected?5by?5@ 00432238     Cscache.obj
 0003:000002a0       ??_C@_0GF@HFLN@Cache?5GPI?5error?5corrected?5by?5pol@ 004322a0     Cscache.obj
 0003:00000308       ??_C@_05HCHI@V4CSI?$AA@    00432308     Cscache.obj
 0003:00000310       ??_C@_0GM@BNKM@Cache?5Infodriver?5error?5corrected@ 00432310     Cscache.obj
 0003:0000037c       ??_C@_0BH@BADD@RR?5?$CF03d?5?$CF03d?5?$CF03d?5?8?$CFs?8?$AA@ 0043237c     Cscache.obj
 0003:00000394       ??_C@_0BH@CBK@GR?5?$CF03d?5?$CF03d?5?$CF03d?5?8?$CFd?8?$AA@ 00432394     Cscache.obj
 0003:000003ac       ??_C@_0BH@CAF@IR?5?$CF03d?5?$CF03d?5?$CF03d?5?8?$CFs?8?$AA@ 004323ac     Cscache.obj
 0003:000003c4       ??_C@_01FCOA@?5?$AA@       004323c4     Cscache.obj
 0003:000003c8       ??_C@_0BP@BFPD@Unable?5to?5open?5cache?5file?5?8?$CFs?8?$AA@ 004323c8     Cscache.obj
 0003:000003e8       ??_C@_0BA@KOEM@?$CFs?2CSI_?$CF03d?4ICF?$AA@ 004323e8     Cscache.obj
 0003:000003f8       ??_C@_0N@NEBL@?$CFs?2CSI_?$CK?4ICF?$AA@ 004323f8     Cscache.obj
 0003:00000408       ??_C@_01PLJA@0?$AA@        00432408     Cscache.obj
 0003:0000040c       ??_C@_06KBON@Locked?$AA@   0043240c     Cscache.obj
 0003:00000414       ??_C@_06NDEC@Cached?$AA@   00432414     Cscache.obj
 0003:0000041c       ??_C@_06LIAH@Enable?$AA@   0043241c     Cscache.obj
 0003:00000424       ??_C@_05JEJP@?9?5?9?5?9?$AA@ 00432424     Cscache.obj
 0003:0000042c       ??_C@_07DECN@Expires?$AA@  0043242c     Cscache.obj
 0003:00000434       ??_C@_0L@HHNP@MaxDevices?$AA@ 00432434     Cscache.obj
 0003:00000440       ??_C@_0L@MELM@MaxDrivers?$AA@ 00432440     Cscache.obj
 0003:0000044c       ??_C@_07JLDD@MaxUser?$AA@  0043244c     Cscache.obj
 0003:00000454       ??_C@_07PELI@MinUser?$AA@  00432454     Cscache.obj
 0003:0000045c       ??_C@_04JJBJ@User?$AA@     0043245c     Cscache.obj
 0003:00000464       ??_C@_08BJPE@UserName?$AA@ 00432464     Cscache.obj
 0003:00000470       ??_C@_02HNAB@?91?$AA@      00432470     Cscache.obj
 0003:00000474       ??_C@_01LLF@w?$AA@         00432474     Cscache.obj
 0003:00000478       ??_C@_04OBKB@?$CF02x?$AA@  00432478     Cscache.obj
 0003:00000480       ??_C@_0DB@GLHJ@f0edf4aeb7b0b5b4b4e6f4e3dcf0ede5@ 00432480     Cscache.obj
 0003:000004b4       ??_C@_01LHO@r?$AA@         004324b4     Cscache.obj
 0003:000004b8       ??_C@_04DCMN@?$CFs?$CFs?$AA@ 004324b8     Cscache.obj
 0003:000004c0       ??_C@_0N@FIEF@bncs_key?4dat?$AA@ 004324c0     Cscache.obj
 0003:000004d0       ??_C@_0M@ILKE@c?3?2csi_temp?$AA@ 004324d0     Cscache.obj
 0003:0000054c       ??_C@_0N@KLAA@NA?5?$CF03d?5?$CF03d?$AA@ 0043254c     Cscmd.obj
 0003:0000055c       ??_C@_0CD@EDAH@C?4S?4I?4?5V?$CFs?5?$CIWS?$CF02d?$CJ?5?9?5?$CB?5Disabled@ 0043255c     Cscmd.obj
 0003:00000580       ??_C@_07HKHC@Network?$AA@  00432580     Cscmd.obj
 0003:00000588       ??_C@_09MCLL@CSIEnable?$AA@ 00432588     Cscmd.obj
 0003:00000594       ??_C@_07NJLA@CSI?4INI?$AA@ 00432594     Cscmd.obj
 0003:0000059c       ??_C@_05GGPB@?$CFs?5?$CFd?$AA@ 0043259c     Cscmd.obj
 0003:000005a4       ??_C@_0BE@PJLK@C?4S?4I?4?5V?$CFs?5?$CIWS?$CF02d?$CJ?$AA@ 004325a4     Cscmd.obj
 0003:000005b8       ??_C@_01FBAH@1?$AA@        004325b8     Cscmd.obj
 0003:000005bc       ??_C@_0BC@FIBM@NO?5?$CF03d?5?$CF03d?5?$CF03d?$AA@ 004325bc     Cscmd.obj
 0003:000005d0       ??_C@_0DC@ENAN@Device?5?$CFd?5is?5Tx?1Rx?5on?5WS?5?$CFd?0?5rev@ 004325d0     Cscmd.obj
 0003:00000604       ??_C@_0M@CMBE@D?5?$CFd?5?0?5S?5?$CFd?$AA@ 00432604     Cscmd.obj
 0003:00000610       ??_C@_0CD@DMJL@?$CF02d?5?$CF02d?5?$CF04d?5?$CF02d?5?$CF02d?5?$CF02d?5?$CF0@ 00432610     Cscmd.obj
 0003:00000714       ??_C@_06LDIC@C?4S?4I?4?$AA@ 00432714     Csdbase.obj
 0003:0000071c       ??_C@_0BM@MMND@C?4S?4I?4?5V?$CFs?5?9?5Workstation?5?$CFd?$AA@ 0043271c     Csdbase.obj
 0003:00000738       ??_C@_03OCLJ@?9?9?9?$AA@   00432738     Csdbase.obj
 0003:0000073c       ??_C@_09MCKK@GRD_?$CK?4INI?$AA@ 0043273c     Csdbase.obj
 0003:00000748       ??_C@_0L@ONOD@GPID_?$CK?4INI?$AA@ 00432748     Csdbase.obj
 0003:00000754       ??_C@_08ELH@ID_?$CK?4INI?$AA@ 00432754     Csdbase.obj
 0003:00000760       ??_C@_09EKCD@DEV_?$CK?4INI?$AA@ 00432760     Csdbase.obj
 0003:0000076c       ??_C@_02JKAF@rb?$AA@       0043276c     Csdbase.obj
 0003:00000770       ??_C@_0M@MBEB@?9?5?9?5?9?0?9?5?9?5?9?$AA@ 00432770     Csdbase.obj
 0003:0000077c       ??_C@_01KMAE@?0?$AA@       0043277c     Csdbase.obj
 0003:00000780       ??_C@_08PHEC@Database?$AA@ 00432780     Csdbase.obj
 0003:0000078c       ??_C@_0L@GJCP@Index_?$CF03d?$AA@ 0043278c     Csdbase.obj
 0003:00000798       ??_C@_0N@MMAN@Destinations?$AA@ 00432798     Csdbase.obj
 0003:000007a8       ??_C@_06PIFP@Router?$AA@   004327a8     Csdbase.obj
 0003:000007b0       ??_C@_07MLOD@Sources?$AA@  004327b0     Csdbase.obj
 0003:000007b8       ??_C@_0P@FMOD@?$CFsDEV_?$CF03d?4CDF?$AA@ 004327b8     Csdbase.obj
 0003:000007c8       ??_C@_0P@JJOL@?$CFsGRD_?$CF03d?4INI?$AA@ 004327c8     Csdbase.obj
 0003:000007d8       ??_C@_0M@BDLM@GRD?5?9?$DO?5?$CF03d?$AA@ 004327d8     Csdbase.obj
 0003:000007e4       ??_C@_0M@NPFF@DEV?5?9?$DO?5?$CF03d?$AA@ 004327e4     Csdbase.obj
 0003:000007f0       ??_C@_05KNMH@Slots?$AA@    004327f0     Csdbase.obj
 0003:000007f8       ??_C@_0O@MLPJ@Configuration?$AA@ 004327f8     Csdbase.obj
 0003:00000808       ??_C@_08OPHA@SlotSize?$AA@ 00432808     Csdbase.obj
 0003:00000814       ??_C@_0M@CPGP@ID_?$CF03d?4LCK?$AA@ 00432814     Csdbase.obj
 0003:00000820       ??_C@_0N@ECOE@INFO?5?9?$DO?5?$CF03d?$AA@ 00432820     Csdbase.obj
 0003:00000830       ??_C@_04MBMK@?$CF04d?$AA@  00432830     Csdbase.obj
 0003:00000838       ??_C@_0O@MPMO@Database_?$CF01d?$AA@ 00432838     Csdbase.obj
 0003:00000848       ??_C@_0P@NNDG@DatabaseFile_1?$AA@ 00432848     Csdbase.obj
 0003:00000858       ??_C@_05KEJO@?$CFs?2?$CFs?$AA@ 00432858     Csdbase.obj
 0003:00000860       ??_C@_0P@HHKB@DatabaseFile_0?$AA@ 00432860     Csdbase.obj
 0003:00000870       ??_C@_0P@MONJ@DatabaseSize_1?$AA@ 00432870     Csdbase.obj
 0003:00000880       ??_C@_02JJMI@64?$AA@       00432880     Csdbase.obj
 0003:00000884       ??_C@_0P@GEEO@DatabaseSize_0?$AA@ 00432884     Csdbase.obj
 0003:00000894       ??_C@_0O@DBFJ@DEV_?$CF03d?4DB?$CFd?$AA@ 00432894     Csdbase.obj
 0003:000008a4       ??_C@_0N@EJLB@DEV_?$CF03d?4INI?$AA@ 004328a4     Csdbase.obj
 0003:000008b4       ??_C@_04MHIC@NONE?$AA@     004328b4     Csdbase.obj
 0003:000008bc       ??_C@_0BC@CJID@DatabaseFile_?$CF01d?$AA@ 004328bc     Csdbase.obj
 0003:000008d0       ??_C@_0P@PBCH@?$CFsDEV_?$CF03d?4INI?$AA@ 004328d0     Csdbase.obj
 0003:000008e0       ??_C@_02NGAF@wb?$AA@       004328e0     Csdbase.obj
 0003:000008e4       ??_C@_0N@OEHF@DEV_?$CF03d?4CDF?$AA@ 004328e4     Csdbase.obj
 0003:000008f4       ??_C@_03CLEM@?$CB?$CB?$CB?$AA@ 004328f4     Csdbase.obj
 0003:000008f8       ??_C@_07NAHM@?$CBError?$CB?$AA@ 004328f8     Csdbase.obj
 0003:00000900       ??_C@_0BC@GMAC@Index?5?$CFd?0?5Size?5?$CFd?$AA@ 00432900     Csdbase.obj
 0003:00000914       ??_C@_0BA@MFLJ@?$CFs?2GRD_?$CF03d?4INI?$AA@ 00432914     Csdbase.obj
 0003:00000924       ??_C@_05ECIL@?$CFs?0?$CFs?$AA@ 00432924     Csdbase.obj
 0003:0000092c       ??_C@_04OEDF@DEV_?$AA@     0043292c     Csdbase.obj
 0003:000009a4       ??_C@_0BA@EACI@?$CFsDEV_?$CF03d?4CD?$CFd?$AA@ 004329a4     csdbext.obj
 0003:000009b4       ??_C@_0P@DEEA@?$CFsDEV_?$CF03d?4ini?$AA@ 004329b4     csdbext.obj
 0003:000009c4       ??_C@_0CN@FJJL@Creating?5high?5order?5database?5cac@ 004329c4     csdbext.obj
 0003:000009f4       ??_C@_0CC@MFBO@Updating?5high?5order?5database?5?8?$CFs@ 004329f4     csdbext.obj
 0003:00000a88       ??_C@_04KAJP@?$CF03d?$AA@  00432a88     CSDIALOG.obj
 0003:00000a90       ??_C@_04OMJP@?$CF06d?$AA@  00432a90     CSDIALOG.obj
 0003:00000a98       ??_C@_04CODE@?$CF08d?$AA@  00432a98     CSDIALOG.obj
 0003:00000aa0       ??_C@_02MIFF@?$CF1?$AA@    00432aa0     CSDIALOG.obj
 0003:00000aa4       ??_C@_05OFAG@?$CF08ld?$AA@ 00432aa4     CSDIALOG.obj
 0003:00000aac       ??_C@_04LGDF@?$CF02d?$AA@  00432aac     CSDIALOG.obj
 0003:00000ab4       ??_C@_05LCJC@?$CF08lx?$AA@ 00432ab4     csi32sup.obj
 0003:00000b2c       ??_C@_04PAPL@Menu?$AA@     00432b2c     Csimain.obj
 0003:00000b34       ??_C@_07GPHJ@CSIIcon?$AA@  00432b34     Csimain.obj
 0003:00000b3c       ??_C@_0P@CNHO@WM_USER?5is?5?$CF4x?$AA@ 00432b3c     Csimain.obj
 0003:00000b4c       ??_C@_0L@NGCF@STARTED?$CB?$CB?$CB?$AA@ 00432b4c     Csimain.obj
 0003:00000b58       ??_C@_05JKLK@QUERY?$AA@    00432b58     Csimain.obj
 0003:00000b60       ??_C@_0BP@HNCA@CSServer?5handle?5already?5in?5use?$AA@ 00432b60     Csimain.obj
 0003:00000b80       ??_C@_0BP@DGE@FBCSlink?5handle?5already?5in?5use?$AA@ 00432b80     Csimain.obj
 0003:00000ba0       ??_C@_0BD@CANO@Cache?5enable?5is?5?$CFd?$AA@ 00432ba0     Csimain.obj
 0003:00000bb4       ??_C@_09LBBD@WS?$CF03d?5?9?5?$AA@ 00432bb4     Csimain.obj
 0003:00000bc0       ??_C@_0BA@KIEM@NETWORK_MANAGER?$AA@ 00432bc0     Csimain.obj
 0003:00000bd0       ??_C@_01PIHH@?$CB?$AA@     00432bd0     Csimain.obj
 0003:00000bd4       ??_C@_0FC@CPJJ@A?5valid?5licence?5key?5file?5?8bncs_k@ 00432bd4     Csimain.obj
 0003:00000c28       ??_C@_0GL@FLAN@The?5workstation?5number?5in?5the?5CS@ 00432c28     Csimain.obj
 0003:00000c94       ??_C@_07BAF@NL?5?$CF03d?$AA@ 00432c94     Csimain.obj
 0003:00000c9c       ??_C@_0DO@EHHE@?$CBWarning?$CB?5?3?5There?5are?5?$CFd?5INI?5fil@ 00432c9c     Csimain.obj
 0003:00000cdc       ??_C@_0P@DLLI@Starting?5?9?5V?$CFs?$AA@ 00432cdc     Csimain.obj
 0003:00000cec       ??_C@_0DP@BGOI@Workstation?5number?5not?5set?5in?5CS@ 00432cec     Csimain.obj
 0003:00000d2c       ??_C@_0FF@BPAN@Workstation?5number?5not?5set?5in?5bn@ 00432d2c     Csimain.obj
 0003:00000d84       ??_C@_09BMGO@?$CB?5Error?5?$CB?$AA@ 00432d84     Csimain.obj
 0003:00000d90       ??_C@_07LMNF@STARTED?$AA@  00432d90     Csimain.obj
 0003:00000d98       ??_C@_09DECB@Disabled?$CB?$AA@ 00432d98     Csimain.obj
 0003:00000da4       ??_C@_0BB@BNP@?4?4?4?5Closing?5down?$AA@ 00432da4     Csimain.obj
 0003:00000db8       ??_C@_0N@EGG@csi_lock?4tmp?$AA@ 00432db8     Csimain.obj
 0003:00000dc8       ??_C@_0BA@IPKP@?5?9?5?$CB?5Disabled?5?$CB?$AA@ 00432dc8     Csimain.obj
 0003:00000dd8       ??_C@_03ILML@nly?$AA@      00432dd8     Csimain.obj
 0003:00000ddc       ??_C@_02FK@ff?$AA@         00432ddc     Csimain.obj
 0003:00000de0       ??_C@_01FMOK@n?$AA@        00432de0     Csimain.obj
 0003:00000de4       ??_C@_0O@HBOL@?5?9?5Loopback?5O?$AA@ 00432de4     Csimain.obj
 0003:00000df4       ??_C@_0DH@HGHD@C?4S?4I?4?5V?$CFs?5?9?5System?5?3?5?$CFs?5?9?5Works@ 00432df4     Csimain.obj
 0003:00000e2c       ??_C@_0M@FDAL@Diagnostics?$AA@ 00432e2c     Csimain.obj
 0003:00000e38       ??_C@_08NHEA@DiagMode?$AA@ 00432e38     Csimain.obj
 0003:00000e44       ??_C@_0P@CHFP@DiagModeExtend?$AA@ 00432e44     Csimain.obj
 0003:00000e54       ??_C@_09KAG@DebugMode?$AA@ 00432e54     Csimain.obj
 0003:00000e60       ??_C@_0O@ECLL@SessionEnable?$AA@ 00432e60     Csimain.obj
 0003:00000e70       ??_C@_0N@EKIL@ClientEnable?$AA@ 00432e70     Csimain.obj
 0003:00000e80       ??_C@_0N@NEJM@DriverEnable?$AA@ 00432e80     Csimain.obj
 0003:00000e90       ??_C@_05DOKC@Cache?$AA@    00432e90     Csimain.obj
 0003:00000e98       ??_C@_0M@JCLE@CacheEnable?$AA@ 00432e98     Csimain.obj
 0003:00000ea4       ??_C@_0CC@MFNH@Exception?5?$CF08lx?5in?5CSMain_TxCmd?$CI@ 00432ea4     Csimain.obj
 0003:00000ec8       ??_C@_0CP@MJHJ@?$CBError?$CB?5?3?5Client?5tried?5sending?5?$CF@ 00432ec8     Csimain.obj
 0003:00000ef8       ??_C@_0BC@BAIO@BS_?$CF03d?5?5?5?5?5?5?5?5?5?5?$AA@ 00432ef8     Csimain.obj
 0003:00000f0c       ??_C@_0BC@FEIF@ID_?$CF03d?5?5?5?5?5?5?5?5?5?5?$AA@ 00432f0c     Csimain.obj
 0003:00000f20       ??_C@_0BC@OCII@GPID_?$CF03d?5?5?5?5?5?5?5?5?$AA@ 00432f20     Csimain.obj
 0003:00000f34       ??_C@_0BC@NBEH@GRD_?$CF03d?5?5?5?5?5?5?5?5?5?$AA@ 00432f34     Csimain.obj
 0003:00000f48       ??_C@_01PKAG@?3?$AA@       00432f48     Csimain.obj
 0003:00000f4c       ??_C@_0CK@BILE@TS?5?$CF02d?5?$CF2d?5?$CF04d?5?$CF02d?5?$CF02d?5?$CF02d?5@ 00432f4c     Csimain.obj
 0003:00000f78       ??_C@_06HNGK@?5?$CFd?5?$CFd?$AA@ 00432f78     Csimain.obj
 0003:00000f80       ??_C@_03CPCE@?$CFd?5?$AA@  00432f80     Csimain.obj
 0003:00000f84       ??_C@_03FOBE@?0?$CFd?$AA@  00432f84     Csimain.obj
 0003:00000f88       ??_C@_0BD@KALH@?$DMCSI?$DO?501?0?$CF03d?0?$CF02d?$AA@ 00432f88     Csimain.obj
 0003:00000f9c       ??_C@_0EJ@HFMP@?$DMCSI?$DO?500?0?$CF03d?0?$CF02d?0?$CFd?0?$CFd?0?$CFd?0?$CFd?0?$CF@ 00432f9c     Csimain.obj
 0003:00000fe8       ??_C@_0O@CKCF@NB?5?$CF03ld?5?$CF03d?$AA@ 00432fe8     Csimain.obj
 0003:00000ff8       ??_C@_0BA@BEBH@NO?5?$CF03ld?50?5?$CF03d?$AA@ 00432ff8     Csimain.obj
 0003:00001008       ??_C@_0O@JMBK@NA?5?$CF03ld?5?$CF03d?$AA@ 00433008     Csimain.obj
 0003:00001018       ??_C@_0O@PDEO@NI?5?$CF03ld?5?$CF03d?$AA@ 00433018     Csimain.obj
 0003:00001028       ??_C@_0O@EHMP@NC?5?$CF03ld?5?$CF03d?$AA@ 00433028     Csimain.obj
 0003:000010a8       ??_C@_0BI@DBDF@This?5is?5workstation?5?$CFd?4?$AA@ 004330a8     CSLICENS.obj
 0003:000010c0       ??_C@_0BE@GJMD@Maximum?5Users?5?3?9?5?$CFd?$AA@ 004330c0     CSLICENS.obj
 0003:000010d4       ??_C@_0BB@GCKL@Max?5Devices?5?3?5?$CFd?$AA@ 004330d4     CSLICENS.obj
 0003:000010e8       ??_C@_0BB@JLOP@Max?5Drivers?5?3?5?$CFd?$AA@ 004330e8     CSLICENS.obj
 0003:000010fc       ??_C@_0BE@JBDC@Licence?5expiry?5?3?5?$CFs?$AA@ 004330fc     CSLICENS.obj
 0003:00001110       ??_C@_0BB@CAEB@licensed?5to?5?8?$CFs?8?$AA@ 00433110     CSLICENS.obj
 0003:00001124       ??_C@_07EOIE@License?$AA@  00433124     CSLICENS.obj
 0003:0000119c       ??_C@_03NDIN@CSI?$AA@      0043319c     Csndi.obj
 0003:000011a0       ??_C@_05EEO@CSI?$CFd?$AA@  004331a0     Csndi.obj
 0003:000011a8       ??_C@_0DJ@CAGO@Device?5?$CFd?5is?5already?5registered?5@ 004331a8     Csndi.obj
 0003:000011e4       ??_C@_0CC@OJOP@Number?5of?5drivers?5exceeds?5licens@ 004331e4     Csndi.obj
 0003:00001208       ??_C@_0DI@CJON@Request?5to?5register?5device?5?$CFld?5f@ 00433208     Csndi.obj
 0003:00001240       ??_C@_0N@HOBP@NC?5?$CF03d?5?$CF03d?$AA@ 00433240     Csndi.obj
 0003:00001250       ??_C@_0DD@DNBK@Driver?5hWnd?5?$CF04x?5is?5unregisterin@ 00433250     Csndi.obj
 0003:00001284       ??_C@_0DC@DHOM@Driver?5hWnd?5?$CF04x?5is?5unregisterin@ 00433284     Csndi.obj
 0003:000012b8       ??_C@_0CF@CIMJ@Exception?5?$CF08lx?5in?5CSNDI_Reverti@ 004332b8     Csndi.obj
 0003:000012e0       ??_C@_0CO@DKLN@Exception?5?$CF08lx?5in?5CSNDI_UniChan@ 004332e0     Csndi.obj
 0003:00001310       ??_C@_0CM@PEE@Exception?5?$CF08lx?5in?5CSNDI_UniPoll@ 00433310     Csndi.obj
 0003:0000133c       ??_C@_0CI@PKGE@Error?5?3?5?5Could?5not?5close?5temp?5po@ 0043333c     Csndi.obj
 0003:00001364       ??_C@_0CD@BIJO@Unable?5to?5open?5temp?5poll?5file?5?8?$CF@ 00433364     Csndi.obj
 0003:00001388       ??_C@_0BC@NEB@?$CFs?2CP?$CF03d?$CF03d?4TMP?$AA@ 00433388     Csndi.obj
 0003:0000139c       ??_C@_08FNGB@CSI?5?3?5?$CFs?$AA@ 0043339c     Csndi.obj
 0003:000013a8       ??_C@_07HPCL@?$DM?$CFd?$DO?5?$CFs?$AA@ 004333a8     Csndi.obj
 0003:000013b0       ??_C@_0CA@FBDO@?$CBError?5?9?$DO?5CSI?5?$CFs?5on?5WS?5?$CFd?5?9?$DO?5?$CFs?$AA@ 004333b0     Csndi.obj
 0003:00001440       ??_C@_0BB@GBAI@RP?5?$CFd?5?$CFs?5?9?9?9?50?50?$AA@ 00433440     Csnetcli.obj
 0003:00001454       ??_C@_0BB@NLOK@GP?5?$CFd?5?$CFs?5?9?9?9?50?50?$AA@ 00433454     Csnetcli.obj
 0003:00001468       ??_C@_0BB@BBHA@IP?5?$CFd?5?$CFs?5?9?9?9?50?50?$AA@ 00433468     Csnetcli.obj
 0003:0000147c       ??_C@_0BG@POFD@?$CF02x?5?$CFd?5?$CFs?5?$CFs?5?$CFd?5?$CF04x?$AA@ 0043347c     Csnetcli.obj
 0003:00001494       ??_C@_0BE@ONMI@?$CFs?5?$CFd?5?$CFs?5?$CFs?5?$CFd?5?$CF04x?$AA@ 00433494     Csnetcli.obj
 0003:000014a8       ??_C@_0BE@HMHF@?$CFx?5?$CFd?5?$CFs?5?$CFs?5?$CFd?5?$CF04x?$AA@ 004334a8     Csnetcli.obj
 0003:000014bc       ??_C@_0BE@NJMO@?$DMCS?$DO?9NCBCALL?5failed?$AA@ 004334bc     Csnetcli.obj
 0003:000014d0       ??_C@_0BD@LNAB@WORKSTATION_?$CF02d?5?5?$AA@ 004334d0     Csnetcli.obj
 0003:000014e4       ??_C@_0DG@EDPH@?$CBError?5?9?5Received?5invalid?5sessio@ 004334e4     Csnetcli.obj
 0003:0000151c       ??_C@_08GJC@?$CFx?5?$CFd?5?$CFs?$AA@ 0043351c     Csnetcli.obj
 0003:00001528       ??_C@_0L@FJLH@?$CF02x?5?$CFd?5?$CFs?$AA@ 00433528     Csnetcli.obj
 0003:00001534       ??_C@_0BE@CIDK@Sending?5request?4?4?4?5?$AA@ 00433534     Csnetcli.obj
 0003:000015b8       ??_C@_0BE@GAOG@?$DMCS?$DO?9MSG?9Unexpected?$AA@ 004335b8     CSNETMSG.obj
 0003:000015cc       ??_C@_0BF@MKFN@Resetting?5Network?4?4?4?$AA@ 004335cc     CSNETMSG.obj
 0003:000015e4       ??_C@_0BK@EJLO@?$DMCS?$DO?9MSG?9NCBDGSEND?5failed?$AA@ 004335e4     CSNETMSG.obj
 0003:00001600       ??_C@_0BK@GIKM@?$DMCS?$DO?9MSG?9NCBDGRECV?5failed?$AA@ 00433600     CSNETMSG.obj
 0003:0000161c       ??_C@_0BH@DNAO@?$DMCS?$DO?9MSG?9LISTEN?5failed?$AA@ 0043361c     CSNETMSG.obj
 0003:00001634       ??_C@_0BF@DLGD@?$DMCS?$DO?9MSG?9CALL?5failed?$AA@ 00433634     CSNETMSG.obj
 0003:0000164c       ??_C@_0BI@FDDL@?$DMCS?$DO?9MSG?9NCBSEND?5failed?$AA@ 0043364c     CSNETMSG.obj
 0003:00001664       ??_C@_0BB@PDFH@ASYNC?5pncb?$DN?$CF08lx?$AA@ 00433664     CSNETMSG.obj
 0003:00001678       ??_C@_0BI@HCCJ@?$DMCS?$DO?9MSG?9NCBRECV?5failed?$AA@ 00433678     CSNETMSG.obj
 0003:00001700       ??_C@_0BJ@FOBP@NetReceive?$CI?$CJ?5post?5failed?$AA@ 00433700     Csnetses.obj
 0003:0000171c       ??_C@_0BI@JCKN@?$DMCS?$DO?9IMM?9NCBSEND?5failed?$AA@ 0043371c     Csnetses.obj
 0003:00001734       ??_C@_0BK@ENK@?$DMCS?$DO?9IMM?9NCBHANGUP?5failed?$AA@ 00433734     Csnetses.obj
 0003:00001750       ??_C@_03LLPA@EOF?$AA@      00433750     Csnetses.obj
 0003:00001754       ??_C@_0BO@EJLP@Error?5?3?5?5Could?5not?5close?5file?$AA@ 00433754     Csnetses.obj
 0003:000017e4       ??_C@_0BI@KDDM@NetListen?$CI?$CJ?5post?5failed?$AA@ 004337e4     Csnetsrv.obj
 0003:000017fc       ??_C@_01FDHG@?$CK?$AA@     004337fc     Csnetsrv.obj
 0003:00001800       ??_C@_0CC@IHPO@?$CBError?5?9?5Directory?5does?5not?5exis@ 00433800     Csnetsrv.obj
 0003:00001824       ??_C@_08PKAH@?$CFx?5?$CFd?5?$CFd?$AA@ 00433824     Csnetsrv.obj
 0003:000018a0       ??_C@_0P@GMLF@STATUS_CHANNEL?$AA@ 004338a0     Csnetsup.obj
 0003:000018b0       ??_C@_0HL@DHAH@Unable?5to?5access?5the?5network?4?5Th@ 004338b0     Csnetsup.obj
 0003:0000192c       ??_C@_0P@IEBD@DEVICE_CONTROL?$AA@ 0043392c     Csnetsup.obj
 0003:0000193c       ??_C@_0BB@FGAB@DEVICE_CONTROL?$CFd?$AA@ 0043393c     Csnetsup.obj
 0003:00001950       ??_C@_0BL@FGKB@NetReceiveDG?$CI?$CJ?5post?5failed?$AA@ 00433950     Csnetsup.obj
 0003:0000196c       ??_C@_0EA@KMLM@Unable?5to?5initialise?5network?5int@ 0043396c     Csnetsup.obj
 0003:000019ac       ??_C@_0DK@IKPK@Unable?5to?5initialise?5network?5int@ 004339ac     Csnetsup.obj
 0003:000019e8       ??_C@_0BG@JKHA@?$DMCS?$DO?9NCBCANCEL?5failed?$AA@ 004339e8     Csnetsup.obj
 0003:00001a00       ??_C@_0CA@EJHG@?$DMCS?$DO?9NCBSENDDG?5failed?5?9?$DO?50x?$CF02x?$AA@ 00433a00     Csnetsup.obj
 0003:00001a20       ??_C@_0BG@CBN@Network?5reset?5failed?4?$AA@ 00433a20     Csnetsup.obj
 0003:00001a38       ??_C@_0CK@JAIN@Network?5connection?5reset?5after?5?$CF@ 00433a38     Csnetsup.obj
 0003:00001ad4       ??_C@_0BG@KKOP@Parsing?5Command?5?8?$CFs?8?6?$AA@ 00433ad4     CSPARSER.obj
 0003:00001b5c       ??_C@_0BA@ENIJ@TxRxRetryPeriod?$AA@ 00433b5c     Csprof.obj
 0003:00001b6c       ??_C@_0BG@KMMN@DisableWatchdogOnExit?$AA@ 00433b6c     Csprof.obj
 0003:00001b84       ??_C@_0BA@HLAG@WatchDogComPort?$AA@ 00433b84     Csprof.obj
 0003:00001b94       ??_C@_04ONOL@Misc?$AA@     00433b94     Csprof.obj
 0003:00001b9c       ??_C@_0P@BHBI@ClosedownDelay?$AA@ 00433b9c     Csprof.obj
 0003:00001bac       ??_C@_02MECO@?$CFd?$AA@    00433bac     Csprof.obj
 0003:00001bb0       ??_C@_02DDJE@60?$AA@       00433bb0     Csprof.obj
 0003:00001bb4       ??_C@_0BB@OBE@TimeServerPeriod?$AA@ 00433bb4     Csprof.obj
 0003:00001bc8       ??_C@_0L@IODM@TimeServer?$AA@ 00433bc8     Csprof.obj
 0003:00001bd4       ??_C@_0BB@LLEC@TimeServerEnable?$AA@ 00433bd4     Csprof.obj
 0003:00001be8       ??_C@_02FCMB@10?$AA@       00433be8     Csprof.obj
 0003:00001bec       ??_C@_09NLMI@CacheLife?$AA@ 00433bec     Csprof.obj
 0003:00001bf8       ??_C@_04HKOM@1024?$AA@     00433bf8     Csprof.obj
 0003:00001c00       ??_C@_09NLJA@CacheSize?$AA@ 00433c00     Csprof.obj
 0003:00001c0c       ??_C@_0BA@BCOA@PeerPollRefresh?$AA@ 00433c0c     Csprof.obj
 0003:00001c1c       ??_C@_0M@LLEO@KeyFilePath?$AA@ 00433c1c     Csprof.obj
 0003:00001c28       ??_C@_0M@NKFM@C?3?2csi_temp?$AA@ 00433c28     Csprof.obj
 0003:00001c34       ??_C@_03OEOK@c?3?2?$AA@    00433c34     Csprof.obj
 0003:00001c38       ??_C@_03KGDP@C?3?2?$AA@    00433c38     Csprof.obj
 0003:00001c3c       ??_C@_0N@HMFC@TempFilePath?$AA@ 00433c3c     Csprof.obj
 0003:00001c4c       ??_C@_0BA@NJAO@V1Compatibility?$AA@ 00433c4c     Csprof.obj
 0003:00001c5c       ??_C@_0P@DPCO@LoopbackEnable?$AA@ 00433c5c     Csprof.obj
 0003:00001c6c       ??_C@_01KPCI@8?$AA@        00433c6c     Csprof.obj
 0003:00001c70       ??_C@_0P@MMEN@SessionBuffers?$AA@ 00433c70     Csprof.obj
 0003:00001c80       ??_C@_01FBMM@4?$AA@        00433c80     Csprof.obj
 0003:00001c84       ??_C@_0O@FNNL@DriverBuffers?$AA@ 00433c84     Csprof.obj
 0003:00001c94       ??_C@_02GJDO@20?$AA@       00433c94     Csprof.obj
 0003:00001c98       ??_C@_0O@LOEF@ClientBuffers?$AA@ 00433c98     Csprof.obj
 0003:00001ca8       ??_C@_0O@NDAM@NetworkEnable?$AA@ 00433ca8     Csprof.obj
 0003:00001cb8       ??_C@_07IADE@Channel?$AA@  00433cb8     Csprof.obj
 0003:00001cc0       ??_C@_0P@GFPM@DefaultAdaptor?$AA@ 00433cc0     Csprof.obj
 0003:00001cd0       ??_C@_06NILE@System?$AA@   00433cd0     Csprof.obj
 0003:00001cd8       ??_C@_0N@EJBL@APPLCORE?4INI?$AA@ 00433cd8     Csprof.obj
 0003:00001ce8       ??_C@_0M@PHEL@Workstation?$AA@ 00433ce8     Csprof.obj
 0003:00001cf4       ??_C@_0P@NIEE@CC_WORKSTATION?$AA@ 00433cf4     Csprof.obj
 0003:00001d04       ??_C@_04OCGM@Ypos?$AA@     00433d04     Csprof.obj
 0003:00001d0c       ??_C@_06FCEH@Window?$AA@   00433d0c     Csprof.obj
 0003:00001d14       ??_C@_04MHDO@Xpos?$AA@     00433d14     Csprof.obj
 0003:00001d1c       ??_C@_0L@CFAP@Database_1?$AA@ 00433d1c     Csprof.obj
 0003:00001d28       ??_C@_0L@IPJI@Database_0?$AA@ 00433d28     Csprof.obj
 0003:00001d34       ??_C@_0M@HLLE@Device?5?$CF03d?$AA@ 00433d34     Csprof.obj
 0003:00001d40       ??_C@_06NBPC@Device?$AA@   00433d40     Csprof.obj
 0003:00001d48       ??_C@_04EFNI@Name?$AA@     00433d48     Csprof.obj
 0003:00001dc0       ??_C@_0BC@MDMA@Reg?5ok?5HWM?5now?5?$CFd?$AA@ 00433dc0     Csreg.obj
 0003:00001dd4       ??_C@_0DG@PAEJ@Attempting?5to?5register?5new?5clien@ 00433dd4     Csreg.obj
 0003:00001e0c       ??_C@_0DC@EJFE@Attempting?5to?5unregister?5client?5@ 00433e0c     Csreg.obj
 0003:00001e40       ??_C@_0DK@FDP@Creating?5reg?5at?5client?5index?5?$CFd?5@ 00433e40     Csreg.obj
 0003:00001e7c       ??_C@_0DB@JMO@Adding?5new?5registration?5for?5inde@ 00433e7c     Csreg.obj
 0003:00001eb0       ??_C@_0BP@LBBH@Add?5?$CFd?0?5Dev?5?$CFd?0?5Min?5?$CFd?0?5Max?5?$CFd?$AA@ 00433eb0     Csreg.obj
 0003:00001ed0       ??_C@_0CI@PFHN@CSReg_CheckForClientName?$CI?$CJ?5retur@ 00433ed0     Csreg.obj
 0003:00001ef8       ??_C@_0BL@ELGC@CSReg_CheckForClientName?$CI?$CJ?$AA@ 00433ef8     Csreg.obj
 0003:00001ff4       ??_C@_09EKHI@?$DMCSI?$DO?9?$CFs?6?$AA@ 00433ff4     CSSUFU.obj
 0003:00002000       ??_C@_0BP@HDIN@Environment?5is?5clasic?5windows?6?$AA@ 00434000     PROFILE.obj
 0003:00002020       ??_C@_0BJ@BCAO@Environment?5is?5V4?5based?6?$AA@ 00434020     PROFILE.obj
 0003:0000203c       ??_C@_0BD@PBH@?$CFsconfig?2system?2?$CFs?$AA@ 0043403c     PROFILE.obj
 0003:00002050       ??_C@_0BA@KCHE@bncs_system?4ini?$AA@ 00434050     PROFILE.obj
 0003:00002060       ??_C@_07HOMN@csi?4ini?$AA@ 00434060     PROFILE.obj
 0003:00002068       ??_C@_06KDIO@?$CFstemp?$AA@ 00434068     PROFILE.obj
 0003:000020f8       ??_C@_0M@DNLH@csi_fix?4exe?$AA@ 004340f8     v4_main.obj
 0003:00002104       ??_C@_04DDN@hide?$AA@      00434104     v4_main.obj
 0003:0000210c       ??_C@_07LMBP@csi_fix?$AA@  0043410c     v4_main.obj
 0003:00002114       ??_C@_0BB@BBFI@SINGLE_CSI_MUTEX?$AA@ 00434114     v4_main.obj
 0003:00002128       ??_C@_06FBJF@V1?12?13?$AA@ 00434128     v4_main.obj
 0003:00002130       ??_C@_06HEIK@V4?14?45?$AA@ 00434130     v4_main.obj
 0003:00002138       ??_C@_08EKCI@Ready?4?4?4?$AA@ 00434138     v4_main.obj
 0003:00002144       ??_C@_08KGPB@1About?$CI?$CJ?$AA@ 00434144     v4_main.obj
 0003:00002150       ??_C@_06JACP@?$CGAbout?$AA@ 00434150     v4_main.obj
 0003:00002158       ??_C@_0L@HEG@1License?$CI?$CJ?$AA@ 00434158     v4_main.obj
 0003:00002164       ??_C@_08PLLB@?$CGLicense?$AA@ 00434164     v4_main.obj
 0003:00002170       ??_C@_07GHIO@?$CGWindow?$AA@ 00434170     v4_main.obj
 0003:00002178       ??_C@_06LEPC@?$CGTools?$AA@ 00434178     v4_main.obj
 0003:00002180       ??_C@_0N@ICCF@?$CGDiagnostics?$AA@ 00434180     v4_main.obj
 0003:00002190       ??_C@_06PHGG@?$CGCache?$AA@ 00434190     v4_main.obj
 0003:00002198       ??_C@_05DBGH@?$CGMode?$AA@ 00434198     v4_main.obj
 0003:000021a0       ??_C@_09KFKF@?$CGSessions?$AA@ 004341a0     v4_main.obj
 0003:000021ac       ??_C@_05CNCC@?$CGFile?$AA@ 004341ac     v4_main.obj
 0003:000021b4       ??_C@_0P@EJH@1WindowClear?$CI?$CJ?$AA@ 004341b4     v4_main.obj
 0003:000021c4       ??_C@_0O@JBLO@?$CGClear?5Counts?$AA@ 004341c4     v4_main.obj
 0003:000021d4       ??_C@_0M@MMGP@1NetReset?$CI?$CJ?$AA@ 004341d4     v4_main.obj
 0003:000021e0       ??_C@_0P@GNHP@?$CGReset?5Network?$AA@ 004341e0     v4_main.obj
 0003:000021f0       ??_C@_0P@DBCD@1DebugToggle?$CI?$CJ?$AA@ 004341f0     v4_main.obj
 0003:00002200       ??_C@_06JGBB@?$CGDebug?$AA@ 00434200     v4_main.obj
 0003:00002208       ??_C@_0BI@GHFI@1DiagnosticsExtToggle?$CI?$CJ?$AA@ 00434208     v4_main.obj
 0003:00002220       ??_C@_07JDNM@?$CGExtend?$AA@ 00434220     v4_main.obj
 0003:00002228       ??_C@_0BF@PDOM@1DiagnosticsToggle?$CI?$CJ?$AA@ 00434228     v4_main.obj
 0003:00002240       ??_C@_0P@GMGK@1CacheToggle?$CI?$CJ?$AA@ 00434240     v4_main.obj
 0003:00002250       ??_C@_0BA@KCAE@1DriverToggle?$CI?$CJ?$AA@ 00434250     v4_main.obj
 0003:00002260       ??_C@_07IHEP@?$CGDriver?$AA@ 00434260     v4_main.obj
 0003:00002268       ??_C@_0BA@ENOH@1ClientToggle?$CI?$CJ?$AA@ 00434268     v4_main.obj
 0003:00002278       ??_C@_07KAH@?$CGClient?$AA@ 00434278     v4_main.obj
 0003:00002280       ??_C@_0BB@EOGE@1FlushSessionQ?$CI?$CJ?$AA@ 00434280     v4_main.obj
 0003:00002294       ??_C@_0BA@FBCH@?$CGClear?5Sessions?$AA@ 00434294     v4_main.obj
 0003:000022a4       ??_C@_0BF@DKNL@1HangUpAllSessions?$CI?$CJ?$AA@ 004342a4     v4_main.obj
 0003:000022bc       ??_C@_0N@FABM@?$CGFlush?5Queue?$AA@ 004342bc     v4_main.obj
 0003:000022cc       ??_C@_0BB@HIIG@1SessionToggle?$CI?$CJ?$AA@ 004342cc     v4_main.obj
 0003:000022e0       ??_C@_03IMOM@?$CGOn?$AA@   004342e0     v4_main.obj
 0003:000022e4       ??_C@_0N@CKHJ@1Closedown?$CI?$CJ?$AA@ 004342e4     v4_main.obj
 0003:000022f4       ??_C@_05COP@E?$CGxit?$AA@  004342f4     v4_main.obj
 0003:000022fc       ??_C@_0L@EHAF@2clicked?$CI?$CJ?$AA@ 004342fc     csi_about.obj
 0003:00002308       ??_C@_09NEKG@1reject?$CI?$CJ?$AA@ 00434308     csi_about.obj
 0003:00002314       ??_C@_09FPBL@ok_button?$AA@ 00434314     csi_about.obj
 0003:00002320       ??_C@_07JCGN@layout1?$AA@  00434320     csi_about.obj
 0003:00002328       ??_C@_0P@CMGN@textLabel1_2_3?$AA@ 00434328     csi_about.obj
 0003:00002338       ??_C@_08CENG@Compiled?$AA@ 00434338     csi_about.obj
 0003:00002344       ??_C@_07MNFD@Version?$AA@  00434344     csi_about.obj
 0003:0000234c       ??_C@_0L@KEKH@textLabel1?$AA@ 0043434c     csi_about.obj
 0003:00002358       ??_C@_0BC@OJNO@CSIAboutDlgLayout?$AA@ 00434358     csi_about.obj
 0003:0000236c       ??_C@_0M@FMAL@CSIAboutDlg?$AA@ 0043436c     csi_about.obj
 0003:00002378       ??_C@_02CCIF@Ok?$AA@       00434378     csi_about.obj
 0003:0000237c       ??_C@_0DG@LIDJ@Author?5?3?5Simon?5Dowson?6Performanc@ 0043437c     csi_about.obj
 0003:000023b4       ??_C@_0BO@PEDM@BNCS?5Control?5System?5Interface?$AA@ 004343b4     csi_about.obj
 0003:000023d4       ??_C@_0CN@CFLM@CSIAboutDlg?3?3Accepted?$CI?$CJ?3?5Not?5imp@ 004343d4     csi_about.obj
 0003:00002404       ??_C@_0DJ@MDAG@CSIAboutDlg?3?3pushButton1_release@ 00434404     csi_about.obj
 0003:00002440       ??_C@_0CN@FKOC@CSIAboutDlg?3?3accepted?$CI?$CJ?3?5Not?5imp@ 00434440     csi_about.obj
 0003:00002470       ??_C@_0CL@MNCJ@CSIAboutDlg?3?3accept?$CI?$CJ?3?5Not?5imple@ 00434470     csi_about.obj
 0003:0000249c       ??_C@_05KBP@Label?$AA@     0043449c     csi_dbload.obj
 0003:000024a4       ??_C@_06KCJP@Static?$AA@   004344a4     csi_dbload.obj
 0003:000024ac       ??_C@_0N@DHNE@CSIDbLoadDlg?$AA@ 004344ac     csi_dbload.obj
 0003:000024bc       ??_C@_0BP@CCGI@Loading?5Device?5Driver?5Database?$AA@ 004344bc     csi_dbload.obj
 0003:000024dc       ??_C@_0CO@DENG@CSIDbLoadDlg?3?3Accepted?$CI?$CJ?3?5Not?5im@ 004344dc     csi_dbload.obj
 0003:0000250c       ??_C@_0DK@LIEP@CSIDbLoadDlg?3?3pushButton1_releas@ 0043450c     csi_dbload.obj
 0003:00002548       ??_C@_0CO@ELII@CSIDbLoadDlg?3?3accepted?$CI?$CJ?3?5Not?5im@ 00434548     csi_dbload.obj
 0003:00002578       ??_C@_0CM@OHBL@CSIDbLoadDlg?3?3accept?$CI?$CJ?3?5Not?5impl@ 00434578     csi_dbload.obj
 0003:000025a4       ??_C@_06PJBO@Line_6?$AA@   004345a4     csi_license.obj
 0003:000025ac       ??_C@_06GKH@Line_5?$AA@    004345ac     csi_license.obj
 0003:000025b4       ??_C@_06KMDA@Line_4?$AA@   004345b4     csi_license.obj
 0003:000025bc       ??_C@_06PJNF@Line_3?$AA@   004345bc     csi_license.obj
 0003:000025c4       ??_C@_06FDEC@Line_2?$AA@   004345c4     csi_license.obj
 0003:000025cc       ??_C@_06KMPL@Line_1?$AA@   004345cc     csi_license.obj
 0003:000025d4       ??_C@_0N@LMFP@textLabel1_4?$AA@ 004345d4     csi_license.obj
 0003:000025e4       ??_C@_0N@EDCN@textLabel1_2?$AA@ 004345e4     csi_license.obj
 0003:000025f4       ??_C@_0O@HKIF@CSILicenseDlg?$AA@ 004345f4     csi_license.obj
 0003:00002604       ??_C@_0BH@MPIK@Control?5System?5License?$AA@ 00434604     csi_license.obj
 0003:0000261c       ??_C@_0BH@BMEG@This?5version?5of?5CSI?5is?$AA@ 0043461c     csi_license.obj
 0003:00002634       ??_C@_0M@OGLA@msgQueueHWM?$AA@ 00434634     csi_maindlg.obj
 0003:00002640       ??_C@_0P@LMDK@msgQueueHWMLbl?$AA@ 00434640     csi_maindlg.obj
 0003:00002650       ??_C@_0M@KFGG@msgQueueLbl?$AA@ 00434650     csi_maindlg.obj
 0003:0000265c       ??_C@_08DNJM@msgQueue?$AA@ 0043465c     csi_maindlg.obj
 0003:00002668       ??_C@_0N@BGMI@textLabel1_5?$AA@ 00434668     csi_maindlg.obj
 0003:00002678       ??_C@_08JELG@DebugBox?$AA@ 00434678     csi_maindlg.obj
 0003:00002684       ??_C@_0L@FKKH@systemType?$AA@ 00434684     csi_maindlg.obj
 0003:00002690       ??_C@_0L@HAOJ@systemPath?$AA@ 00434690     csi_maindlg.obj
 0003:0000269c       ??_C@_0M@IPOL@DEVINILbl_2?$AA@ 0043469c     csi_maindlg.obj
 0003:000026a8       ??_C@_0O@OLNJ@TotalINILbl_2?$AA@ 004346a8     csi_maindlg.obj
 0003:000026b8       ??_C@_0N@OJHB@textLabel1_6?$AA@ 004346b8     csi_maindlg.obj
 0003:000026c8       ??_C@_0M@LBMB@SESQueueBox?$AA@ 004346c8     csi_maindlg.obj
 0003:000026d4       ??_C@_0M@LEAK@TotalINILbl?$AA@ 004346d4     csi_maindlg.obj
 0003:000026e0       ??_C@_0P@DGCB@textLabel1_7_3?$AA@ 004346e0     csi_maindlg.obj
 0003:000026f0       ??_C@_0P@JMLG@textLabel1_7_2?$AA@ 004346f0     csi_maindlg.obj
 0003:00002700       ??_C@_0N@EDOG@textLabel1_7?$AA@ 00434700     csi_maindlg.obj
 0003:00002710       ??_C@_0N@OJLK@textLabel1_3?$AA@ 00434710     csi_maindlg.obj
 0003:00002720       ??_C@_05EBD@SESMx?$AA@     00434720     csi_maindlg.obj
 0003:00002728       ??_C@_0P@HCFA@CacheMemoryLbl?$AA@ 00434728     csi_maindlg.obj
 0003:00002738       ??_C@_07BJHE@CLINCBs?$AA@  00434738     csi_maindlg.obj
 0003:00002740       ??_C@_0L@KKOB@NDIDevices?$AA@ 00434740     csi_maindlg.obj
 0003:0000274c       ??_C@_09HMDL@CacheDisk?$AA@ 0043474c     csi_maindlg.obj
 0003:00002758       ??_C@_0N@CEHG@MiscFilesLbl?$AA@ 00434758     csi_maindlg.obj
 0003:00002768       ??_C@_09JGDI@DEVINILbl?$AA@ 00434768     csi_maindlg.obj
 0003:00002774       ??_C@_06HOAH@GRDINI?$AA@   00434774     csi_maindlg.obj
 0003:0000277c       ??_C@_06LNMN@DEVINI?$AA@   0043477c     csi_maindlg.obj
 0003:00002784       ??_C@_0M@FCKF@CacheRAMLbl?$AA@ 00434784     csi_maindlg.obj
 0003:00002790       ??_C@_08OHCK@CacheRAM?$AA@ 00434790     csi_maindlg.obj
 0003:0000279c       ??_C@_0N@EKPO@CacheDiskLbl?$AA@ 0043479c     csi_maindlg.obj
 0003:000027ac       ??_C@_09IBJ@CLINCBLbl?$AA@ 004347ac     csi_maindlg.obj
 0003:000027b8       ??_C@_09JAEE@NDINCBLbl?$AA@ 004347b8     csi_maindlg.obj
 0003:000027c4       ??_C@_08EGFM@CLIExLbl?$AA@ 004347c4     csi_maindlg.obj
 0003:000027d0       ??_C@_08IGID@CLICxLbl?$AA@ 004347d0     csi_maindlg.obj
 0003:000027dc       ??_C@_08IENG@CLISxLbl?$AA@ 004347dc     csi_maindlg.obj
 0003:000027e8       ??_C@_05KCNO@CLIRx?$AA@    004347e8     csi_maindlg.obj
 0003:000027f0       ??_C@_08CEPD@CLIRxLbl?$AA@ 004347f0     csi_maindlg.obj
 0003:000027fc       ??_C@_08OECM@CLITxLbl?$AA@ 004347fc     csi_maindlg.obj
 0003:00002808       ??_C@_0M@NPAJ@CLIInUseLbl?$AA@ 00434808     csi_maindlg.obj
 0003:00002814       ??_C@_08CMML@CLIInUse?$AA@ 00434814     csi_maindlg.obj
 0003:00002820       ??_C@_08EHHG@CLIMxLbl?$AA@ 00434820     csi_maindlg.obj
 0003:0000282c       ??_C@_05BMHG@CLIMx?$AA@    0043482c     csi_maindlg.obj
 0003:00002834       ??_C@_05BHHM@NDIMx?$AA@    00434834     csi_maindlg.obj
 0003:0000283c       ??_C@_08HBIG@NDIInUse?$AA@ 0043483c     csi_maindlg.obj
 0003:00002848       ??_C@_0O@KEIB@NDIDevicesLbl?$AA@ 00434848     csi_maindlg.obj
 0003:00002858       ??_C@_0M@LFNF@NDIInUseLbl?$AA@ 00434858     csi_maindlg.obj
 0003:00002864       ??_C@_09HGNK@MiscFiles?$AA@ 00434864     csi_maindlg.obj
 0003:00002870       ??_C@_07FNEF@Clashes?$AA@  00434870     csi_maindlg.obj
 0003:00002878       ??_C@_0L@JFKL@ClashesLbl?$AA@ 00434878     csi_maindlg.obj
 0003:00002884       ??_C@_07EDPF@GPIDINI?$AA@  00434884     csi_maindlg.obj
 0003:0000288c       ??_C@_0L@DBPI@GPIDINILbl?$AA@ 0043488c     csi_maindlg.obj
 0003:00002898       ??_C@_05BNHO@IDINI?$AA@    00434898     csi_maindlg.obj
 0003:000028a0       ??_C@_08NIKM@IDINILbl?$AA@ 004348a0     csi_maindlg.obj
 0003:000028ac       ??_C@_09BOLB@GRDINILbl?$AA@ 004348ac     csi_maindlg.obj
 0003:000028b8       ??_C@_08CLMM@TotalINI?$AA@ 004348b8     csi_maindlg.obj
 0003:000028c4       ??_C@_0BA@CBGG@CachePercentLbl?$AA@ 004348c4     csi_maindlg.obj
 0003:000028d4       ??_C@_0N@PKIG@CachePercent?$AA@ 004348d4     csi_maindlg.obj
 0003:000028e4       ??_C@_07FEBL@NDINCBs?$AA@  004348e4     csi_maindlg.obj
 0003:000028ec       ??_C@_05KCCI@NDIEx?$AA@    004348ec     csi_maindlg.obj
 0003:000028f4       ??_C@_08BLBB@NDIExLbl?$AA@ 004348f4     csi_maindlg.obj
 0003:00002900       ??_C@_08LLDE@NDIDxLbl?$AA@ 00434900     csi_maindlg.obj
 0003:0000290c       ??_C@_08HJLO@NDIRxLbl?$AA@ 0043490c     csi_maindlg.obj
 0003:00002918       ??_C@_08LJGB@NDITxLbl?$AA@ 00434918     csi_maindlg.obj
 0003:00002924       ??_C@_08BKDL@NDIMxLbl?$AA@ 00434924     csi_maindlg.obj
 0003:00002930       ??_C@_07ILLK@SESNCBs?$AA@  00434930     csi_maindlg.obj
 0003:00002938       ??_C@_09OFBN@SESNCBLbl?$AA@ 00434938     csi_maindlg.obj
 0003:00002944       ??_C@_08ECMO@SESExLbl?$AA@ 00434944     csi_maindlg.obj
 0003:00002950       ??_C@_08MDHB@SESIxLbl?$AA@ 00434950     csi_maindlg.obj
 0003:0000295c       ??_C@_08DKO@SESOxLbl?$AA@  0043495c     csi_maindlg.obj
 0003:00002968       ??_C@_08CAGB@SESRxLbl?$AA@ 00434968     csi_maindlg.obj
 0003:00002974       ??_C@_08OALO@SESTxLbl?$AA@ 00434974     csi_maindlg.obj
 0003:00002980       ??_C@_08EDOE@SESMxLbl?$AA@ 00434980     csi_maindlg.obj
 0003:0000298c       ??_C@_0M@DEHG@SESInUseLbl?$AA@ 0043498c     csi_maindlg.obj
 0003:00002998       ??_C@_08CIFJ@SESInUse?$AA@ 00434998     csi_maindlg.obj
 0003:000029a4       ??_C@_05MNEE@SESTx?$AA@    004349a4     csi_maindlg.obj
 0003:000029ac       ??_C@_05LBEH@SESEx?$AA@    004349ac     csi_maindlg.obj
 0003:000029b4       ??_C@_05KJNE@NDIRx?$AA@    004349b4     csi_maindlg.obj
 0003:000029bc       ??_C@_05NOCL@NDITx?$AA@    004349bc     csi_maindlg.obj
 0003:000029c4       ??_C@_05LEIC@NDIDx?$AA@    004349c4     csi_maindlg.obj
 0003:000029cc       ??_C@_05KJCC@CLIEx?$AA@    004349cc     csi_maindlg.obj
 0003:000029d4       ??_C@_05NFCB@CLITx?$AA@    004349d4     csi_maindlg.obj
 0003:000029dc       ??_C@_05NONN@CLICx?$AA@    004349dc     csi_maindlg.obj
 0003:000029e4       ??_C@_05LEHE@CLISx?$AA@    004349e4     csi_maindlg.obj
 0003:000029ec       ??_C@_05LKLL@SESRx?$AA@    004349ec     csi_maindlg.obj
 0003:000029f4       ??_C@_05CJEG@SESOx?$AA@    004349f4     csi_maindlg.obj
 0003:000029fc       ??_C@_05FOLJ@SESIx?$AA@    004349fc     csi_maindlg.obj
 0003:00002a04       ??_C@_0L@MGKH@CSIMainDlg?$AA@ 00434a04     csi_maindlg.obj
 0003:00002a10       ??_C@_03EFPF@HWM?$AA@      00434a10     csi_maindlg.obj
 0003:00002a14       ??_C@_0BC@CEPP@Network?5Buffering?$AA@ 00434a14     csi_maindlg.obj
 0003:00002a28       ??_C@_0M@JPL@System?5Path?$AA@ 00434a28     csi_maindlg.obj
 0003:00002a34       ??_C@_0M@CDLF@System?5Type?$AA@ 00434a34     csi_maindlg.obj
 0003:00002a40       ??_C@_0N@JENL@Device?5Files?$AA@ 00434a40     csi_maindlg.obj
 0003:00002a50       ??_C@_08BGEA@New?5Item?$AA@ 00434a50     csi_maindlg.obj
 0003:00002a5c       ??_C@_09DHPF@Total?5INI?$AA@ 00434a5c     csi_maindlg.obj
 0003:00002a68       ??_C@_0O@INOG@Session?5Queue?$AA@ 00434a68     csi_maindlg.obj
 0003:00002a78       ??_C@_05FPNF@Debug?$AA@    00434a78     csi_maindlg.obj
 0003:00002a80       ??_C@_0M@KGPB@Environment?$AA@ 00434a80     csi_maindlg.obj
 0003:00002a8c       ??_C@_07EGNG@Clients?$AA@  00434a8c     csi_maindlg.obj
 0003:00002a94       ??_C@_07COFL@Drivers?$AA@  00434a94     csi_maindlg.obj
 0003:00002a9c       ??_C@_08GBBA@Sessions?$AA@ 00434a9c     csi_maindlg.obj
 0003:00002aa8       ??_C@_09PGFD@Memory?5?9?$DO?$AA@ 00434aa8     csi_maindlg.obj
 0003:00002ab4       ??_C@_04NILH@0000?$AA@     00434ab4     csi_maindlg.obj
 0003:00002abc       ??_C@_0BB@MODK@Other?5Misc?5Files?$AA@ 00434abc     csi_maindlg.obj
 0003:00002ad0       ??_C@_07BBMN@Dev?5INI?$AA@ 00434ad0     csi_maindlg.obj
 0003:00002ad8       ??_C@_03ENFB@RAM?$AA@      00434ad8     csi_maindlg.obj
 0003:00002adc       ??_C@_04LGJB@Disk?$AA@     00434adc     csi_maindlg.obj
 0003:00002ae4       ??_C@_02JLLC@Cx?$AA@       00434ae4     csi_maindlg.obj
 0003:00002ae8       ??_C@_02PBBL@Sx?$AA@       00434ae8     csi_maindlg.obj
 0003:00002aec       ??_C@_07JNDI@Devices?$AA@  00434aec     csi_maindlg.obj
 0003:00002af4       ??_C@_08LIJN@GPID?5INI?$AA@ 00434af4     csi_maindlg.obj
 0003:00002b00       ??_C@_06HMD@ID?5INI?$AA@   00434b00     csi_maindlg.obj
 0003:00002b08       ??_C@_07CCKA@GRD?5INI?$AA@ 00434b08     csi_maindlg.obj
 0003:00002b10       ??_C@_0BA@GKBC@Percentage?5Hits?$AA@ 00434b10     csi_maindlg.obj
 0003:00002b20       ??_C@_03CHNE@000?$AA@      00434b20     csi_maindlg.obj
 0003:00002b24       ??_C@_02PKOH@Dx?$AA@       00434b24     csi_maindlg.obj
 0003:00002b28       ??_C@_04PEHB@NCBs?$AA@     00434b28     csi_maindlg.obj
 0003:00002b30       ??_C@_02OMEN@Ex?$AA@       00434b30     csi_maindlg.obj
 0003:00002b34       ??_C@_02DLD@Ix?$AA@        00434b34     csi_maindlg.obj
 0003:00002b38       ??_C@_02HEEM@Ox?$AA@       00434b38     csi_maindlg.obj
 0003:00002b3c       ??_C@_02OHLB@Rx?$AA@       00434b3c     csi_maindlg.obj
 0003:00002b40       ??_C@_02JAEO@Tx?$AA@       00434b40     csi_maindlg.obj
 0003:00002b44       ??_C@_02FJBJ@Mx?$AA@       00434b44     csi_maindlg.obj
 0003:00002b48       ??_C@_06FBCH@In?5Use?$AA@  00434b48     csi_maindlg.obj
 0003:00002b50       ??_C@_02EEGL@00?$AA@       00434b50     csi_maindlg.obj
 0003:00002b54       ??_C@_08IMJL@00000000?$AA@ 00434b54     csi_maindlg.obj
 0003:00002b60       ??_C@_0M@ENJA@BNCS?5CSI?5V4?$AA@ 00434b60     csi_maindlg.obj
 0003:00002b6c       ??_C@_0CO@GMDM@CSIMainDlg?3?3Menu_About?$CI?$CJ?3?5Not?5im@ 00434b6c     csi_maindlg.obj
 0003:00002b9c       ??_C@_0DA@CJDK@CSIMainDlg?3?3Menu_Licence?$CI?$CJ?3?5Not?5@ 00434b9c     csi_maindlg.obj
 0003:00002bcc       ??_C@_0BB@MOGM@languageChange?$CI?$CJ?$AA@ 00434bcc     moc_csi_about.obj
 0003:00002be0       ??_C@_08MEPI@accept?$CI?$CJ?$AA@ 00434be0     moc_csi_about.obj
 0003:00002bec       ??_C@_0L@CLNE@accepted?$CI?$CJ?$AA@ 00434bec     moc_csi_about.obj
 0003:00002bf8       ??_C@_0BH@JCNB@pushButton1_released?$CI?$CJ?$AA@ 00434bf8     moc_csi_about.obj
 0003:00002c10       ??_C@_0L@NDJN@Accepted?$CI?$CJ?$AA@ 00434c10     moc_csi_about.obj
 0003:00002c1c       ??_C@_0P@COD@languageChange?$AA@ 00434c1c     moc_csi_about.obj
 0003:00002c2c       ??_C@_06JGM@accept?$AA@    00434c2c     moc_csi_about.obj
 0003:00002c34       ??_C@_08GGLK@accepted?$AA@ 00434c34     moc_csi_about.obj
 0003:00002c40       ??_C@_0BF@ECKE@pushButton1_released?$AA@ 00434c40     moc_csi_about.obj
 0003:00002c58       ??_C@_08GDGI@Accepted?$AA@ 00434c58     moc_csi_about.obj
 0003:00002c64       ??_C@_09N@destroy?$CI?$CJ?$AA@ 00434c64     moc_csi_maindlg.obj
 0003:00002c70       ??_C@_06LLCE@init?$CI?$CJ?$AA@ 00434c70     moc_csi_maindlg.obj
 0003:00002c78       ??_C@_0P@IPGH@Menu_Licence?$CI?$CJ?$AA@ 00434c78     moc_csi_maindlg.obj
 0003:00002c88       ??_C@_0N@EGLK@Menu_About?$CI?$CJ?$AA@ 00434c88     moc_csi_maindlg.obj
 0003:00002c98       ??_C@_07EKHM@destroy?$AA@  00434c98     moc_csi_maindlg.obj
 0003:00002ca0       ??_C@_04GCLN@init?$AA@     00434ca0     moc_csi_maindlg.obj
 0003:00002ca8       ??_C@_0N@LHD@Menu_Licence?$AA@ 00434ca8     moc_csi_maindlg.obj
 0003:00002cb8       ??_C@_0L@PFAN@Menu_About?$AA@ 00434cb8     moc_csi_maindlg.obj
 0003:00002cc4       ??_C@_07GJOE@About?$CI?$CJ?$AA@ 00434cc4     moc_V4_main.obj
 0003:00002ccc       ??_C@_09IMOJ@License?$CI?$CJ?$AA@ 00434ccc     moc_V4_main.obj
 0003:00002cd8       ??_C@_0O@KLPN@WindowClear?$CI?$CJ?$AA@ 00434cd8     moc_V4_main.obj
 0003:00002ce8       ??_C@_0L@NPOE@NetReset?$CI?$CJ?$AA@ 00434ce8     moc_V4_main.obj
 0003:00002cf4       ??_C@_0O@JOEJ@DebugToggle?$CI?$CJ?$AA@ 00434cf4     moc_V4_main.obj
 0003:00002d04       ??_C@_0BH@MCHJ@DiagnosticsExtToggle?$CI?$CJ?$AA@ 00434d04     moc_V4_main.obj
 0003:00002d1c       ??_C@_0BE@PADB@DiagnosticsToggle?$CI?$CJ?$AA@ 00434d1c     moc_V4_main.obj
 0003:00002d30       ??_C@_0O@MDAA@CacheToggle?$CI?$CJ?$AA@ 00434d30     moc_V4_main.obj
 0003:00002d40       ??_C@_0P@BOKL@DriverToggle?$CI?$CJ?$AA@ 00434d40     moc_V4_main.obj
 0003:00002d50       ??_C@_0P@PBEI@ClientToggle?$CI?$CJ?$AA@ 00434d50     moc_V4_main.obj
 0003:00002d60       ??_C@_0BA@ELNI@FlushSessionQ?$CI?$CJ?$AA@ 00434d60     moc_V4_main.obj
 0003:00002d70       ??_C@_0BE@DJAG@HangUpAllSessions?$CI?$CJ?$AA@ 00434d70     moc_V4_main.obj
 0003:00002d84       ??_C@_0BA@HNDK@SessionToggle?$CI?$CJ?$AA@ 00434d84     moc_V4_main.obj
 0003:00002d94       ??_C@_0M@CEGK@Closedown?$CI?$CJ?$AA@ 00434d94     moc_V4_main.obj
 0003:00002da0       ??_C@_0M@LOFI@WindowClear?$AA@ 00434da0     moc_V4_main.obj
 0003:00002dac       ??_C@_08BLOF@NetReset?$AA@ 00434dac     moc_V4_main.obj
 0003:00002db8       ??_C@_0M@KGFP@DebugToggle?$AA@ 00434db8     moc_V4_main.obj
 0003:00002dc4       ??_C@_0BF@BJOD@DiagnosticsExtToggle?$AA@ 00434dc4     moc_V4_main.obj
 0003:00002ddc       ??_C@_0BC@MBNM@DiagnosticsToggle?$AA@ 00434ddc     moc_V4_main.obj
 0003:00002df0       ??_C@_0M@DIJD@CacheToggle?$AA@ 00434df0     moc_V4_main.obj
 0003:00002dfc       ??_C@_0N@HOLL@DriverToggle?$AA@ 00434dfc     moc_V4_main.obj
 0003:00002e0c       ??_C@_0N@OAKM@ClientToggle?$AA@ 00434e0c     moc_V4_main.obj
 0003:00002e1c       ??_C@_0O@HCHG@FlushSessionQ?$AA@ 00434e1c     moc_V4_main.obj
 0003:00002e2c       ??_C@_0BC@DILJ@HangUpAllSessions?$AA@ 00434e2c     moc_V4_main.obj
 0003:00002e40       ??_C@_0O@OIJM@SessionToggle?$AA@ 00434e40     moc_V4_main.obj
 0003:00002e50       ??_C@_09MOJH@Closedown?$AA@ 00434e50     moc_V4_main.obj
 0003:00002e60       ___defaultmatherr          00434e60     MSVCRT:merr.obj
 0003:00002e68       ??_C@_00A@?$AA@            00434e68     b_strtok.obj
 0003:00002e6c       ?iPortId@@3HA              00434e6c     CSCOMDOG.obj
 0003:00002f94       ?hWndDBase@@3PAXA          00434f94     Csdbase.obj
 0003:00002fb8       ?hCSDbExt_File@@3HA        00434fb8     csdbext.obj
 0003:00002fbc       ?iCSDbExt_Database@@3HA    00434fbc     csdbext.obj
 0003:00002fc0       ?iCSDbExt_Device@@3HA      00434fc0     csdbext.obj
 0003:00003210       ?iClientRegHWM@@3HA        00435210     Csimain.obj
 0003:00003214       ?iBootYear@@3HA            00435214     Csimain.obj
 0003:00003218       ?iSesBuffers@@3HA          00435218     Csimain.obj
 0003:0000321c       ?iAdaptor@@3HA             0043521c     Csimain.obj
 0003:00003220       ?bDrvFlags@@3PAEA          00435220     Csimain.obj
 0003:00003608       ?iTotalINI@@3HA            00435608     Csimain.obj
 0003:0000360c       ?acU@@3PADA                0043560c     Csimain.obj
 0003:0000368c       ?acX@@3PADA                0043568c     Csimain.obj
 0003:00003698       ?iDEVINI@@3HA              00435698     Csimain.obj
 0003:0000369c       ?iTimeSrvDelay@@3HA        0043569c     Csimain.obj
 0003:000036a0       ?iSecCount@@3HA            004356a0     Csimain.obj
 0003:000036a4       ?lNetCx@@3JA               004356a4     Csimain.obj
 0003:000036a8       ?lNetEx@@3JA               004356a8     Csimain.obj
 0003:000036ac       ?iCSIEnable@@3HA           004356ac     Csimain.obj
 0003:000036b0       ?iDriverEnable@@3HA        004356b0     Csimain.obj
 0003:000036b8       ?asReg@@3PAUsRegistration@@A 004356b8     Csimain.obj
 0003:00103478       ?sData@@3PAUsDriver@@A     00535478     Csimain.obj
 0003:00108298       ?lNetMx@@3JA               0053a298     Csimain.obj
 0003:0010829c       ?acVar@@3PAY0CAB@DA        0053a29c     Csimain.obj
 0003:00108ea4       ?iNetworkChannel@@3HA      0053aea4     Csimain.obj
 0003:00108ea8       ?hWndMain@@3PAUHWND__@@A   0053aea8     Csimain.obj
 0003:00108eac       ?lNetRx@@3JA               0053aeac     Csimain.obj
 0003:00108eb0       ?lNetSx@@3JA               0053aeb0     Csimain.obj
 0003:00108eb4       ?lNetTx@@3JA               0053aeb4     Csimain.obj
 0003:00108eb8       ?bClosedown@@3HA           0053aeb8     Csimain.obj
 0003:00108ebc       ?bClosewarn@@3HA           0053aebc     Csimain.obj
 0003:00108ec0       ?iCacheHits@@3HA           0053aec0     Csimain.obj
 0003:00108ec4       ?ulRamCacheSizeMax@@3KA    0053aec4     Csimain.obj
 0003:00108ec8       ?iStatUpdateCount@@3HA     0053aec8     Csimain.obj
 0003:00108ecc       ?iMxDev@@3HA               0053aecc     Csimain.obj
 0003:00108ed0       ?iNetworkEnable@@3HA       0053aed0     Csimain.obj
 0003:00108ed4       ?iUpSecs@@3HA              0053aed4     Csimain.obj
 0003:00108ed8       ?iTxRxRetryCount@@3HA      0053aed8     Csimain.obj
 0003:00108ee0       ?sNS@@3PAUsNetSession@@A   0053aee0     Csimain.obj
 0003:00109590       ?lNDIDx@@3JA               0053b590     Csimain.obj
 0003:00109594       ?hWndDlg@@3PAUHWND__@@A    0053b594     Csimain.obj
 0003:00109598       ?lNDIEx@@3JA               0053b598     Csimain.obj
 0003:0010959c       ?hNetBuff@@3PAHA           0053b59c     Csimain.obj
 0003:0010a53c       ?hWndDrv@@3PAPAUHWND__@@A  0053c53c     Csimain.obj
 0003:0010b4dc       ?lNDIMx@@3JA               0053d4dc     Csimain.obj
 0003:0010b4e0       ?iMxDrv@@3HA               0053d4e0     Csimain.obj
 0003:0010b4e4       ?iClashINI@@3HA            0053d4e4     Csimain.obj
 0003:0010b4e8       ?iSessionQueue@@3HA        0053d4e8     Csimain.obj
 0003:0010b4ec       ?iUpDays@@3HA              0053d4ec     Csimain.obj
 0003:0010b4f0       ?iCacheLife@@3HA           0053d4f0     Csimain.obj
 0003:0010b4f4       ?lNDIRx@@3JA               0053d4f4     Csimain.obj
 0003:0010b4f8       ?acTempFilePath@@3PADA     0053d4f8     Csimain.obj
 0003:0010b518       ?lNDITx@@3JA               0053d518     Csimain.obj
 0003:0010b51c       ?acDebug@@3PADA            0053d51c     Csimain.obj
 0003:0010b720       ?iCacheProfile@@3HA        0053d720     Csimain.obj
 0003:0010b724       ?iCacheEnable@@3HA         0053d724     Csimain.obj
 0003:0010b728       ?iSessionsInUse@@3HA       0053d728     Csimain.obj
 0003:0010b72c       ?iPollHits@@3HA            0053d72c     Csimain.obj
 0003:0010b730       ?bNBCSI@@3EA               0053d730     Csimain.obj
 0003:0010b731       ?bStatus@@3EA              0053d731     Csimain.obj
 0003:0010b734       ?acWS@@3PADA               0053d734     Csimain.obj
 0003:0010b748       ?ulDiscCacheMemUsed@@3KA   0053d748     Csimain.obj
 0003:0010b74c       ?iWatchDog@@3PAHA          0053d74c     Csimain.obj
 0003:0010c6ec       ?acUniFileBuff@@3PAEA      0053e6ec     Csimain.obj
 0003:0010c8f0       ?iBootHour@@3HA            0053e8f0     Csimain.obj
 0003:0010c8f4       ?iDisableWatchdogOnExit@@3HA 0053e8f4     Csimain.obj
 0003:0010c8f8       ?avVar@@3PADA              0053e8f8     Csimain.obj
 0003:0010c900       ?ulRamCacheMemUsed@@3KA    0053e900     Csimain.obj
 0003:0010c904       ?bCLFlag@@3EA              0053e904     Csimain.obj
 0003:0010c908       ?bStartup@@3HA             0053e908     Csimain.obj
 0003:0010c90c       ?iPollStackPtr@@3HA        0053e90c     Csimain.obj
 0003:0010c910       ?iBootMonth@@3HA           0053e910     Csimain.obj
 0003:0010c914       ?bNBNDI@@3EA               0053e914     Csimain.obj
 0003:0010c918       ?iNDIErrors@@3HA           0053e918     Csimain.obj
 0003:0010c91c       ?iCSIBuffers@@3HA          0053e91c     Csimain.obj
 0003:0010c920       ?hCache@@3PAPAXA           0053e920     Csimain.obj
 0003:0010d8c0       ?iBootDay@@3HA             0053f8c0     Csimain.obj
 0003:0010d8c4       ?iDrivers@@3HA             0053f8c4     Csimain.obj
 0003:0010d8c8       ?iWatchDogComPort@@3HA     0053f8c8     Csimain.obj
 0003:0010d8cc       ?iMinCount@@3HA            0053f8cc     Csimain.obj
 0003:0010d8d0       ?iWorkstation@@3HA         0053f8d0     Csimain.obj
 0003:0010d8d4       ?iWinXpos@@3HA             0053f8d4     Csimain.obj
 0003:0010d8d8       ?hIcon@@3PAUHICON__@@A     0053f8d8     Csimain.obj
 0003:0010d8dc       ?fPeerPollRefresh@@3HA     0053f8dc     Csimain.obj
 0003:0010d8e0       ?iTxRxRetryPeriod@@3HA     0053f8e0     Csimain.obj
 0003:0010d8e4       ?iGPIDINI@@3HA             0053f8e4     Csimain.obj
 0003:0010d8e8       ?aiVar@@3PAHA              0053f8e8     Csimain.obj
 0003:0010d900       ?acUniBuff@@3PAEA          0053f900     Csimain.obj
 0003:0010db04       ?iLocalLoopBack@@3HA       0053fb04     Csimain.obj
 0003:0010db08       ?iClientEnable@@3HA        0053fb08     Csimain.obj
 0003:0010db0c       ?iWinYpos@@3HA             0053fb0c     Csimain.obj
 0003:0010db10       ?iMiU@@3HA                 0053fb10     Csimain.obj
 0003:0010db14       ?pncbListen@@3PAU_NCB@@A   0053fb14     Csimain.obj
 0003:0010db18       ?acStatus@@3PADA           0053fb18     Csimain.obj
 0003:0010db2c       ?iTxRxRetryPtr@@3HA        0053fb2c     Csimain.obj
 0003:0010db30       ?pncbCSI@@3PAPAU_NCB@@A    0053fb30     Csimain.obj
 0003:0010dbb0       ?bNBWS@@3EA                0053fbb0     Csimain.obj
 0003:0010dbb4       ?iBootMin@@3HA             0053fbb4     Csimain.obj
 0003:0010dbb8       ?iMxU@@3HA                 0053fbb8     Csimain.obj
 0003:0010dbbc       ?acCmdBuff@@3PADA          0053fbbc     Csimain.obj
 0003:0010ddc0       ?iResetingNetwork@@3HA     0053fdc0     Csimain.obj
 0003:0010ddc4       ?bDiagMode@@3HA            0053fdc4     Csimain.obj
 0003:0010ddc8       ?iIDINI@@3HA               0053fdc8     Csimain.obj
 0003:0010ddcc       ?iLoopbackEnable@@3HA      0053fdcc     Csimain.obj
 0003:0010ddd0       ?iBootSec@@3HA             0053fdd0     Csimain.obj
 0003:0010ddd4       ?hInst@@3PAXA              0053fdd4     Csimain.obj
 0003:0010ddd8       ?iClients@@3HA             0053fdd8     Csimain.obj
 0003:0010dddc       ?iCloseDelay@@3HA          0053fddc     Csimain.obj
 0003:0010dde0       ?iSessionEnable@@3HA       0053fde0     Csimain.obj
 0003:0010dde4       ?pncbNDI@@3PAPAU_NCB@@A    0053fde4     Csimain.obj
 0003:0010de64       ?acCSI@@3PADA              0053fe64     Csimain.obj
 0003:0010de78       ?hCacheFile@@3PAHA         0053fe78     Csimain.obj
 0003:0010de98       ?iChange@@3HA              0053fe98     Csimain.obj
 0003:0010de9c       ?iV1Compatibility@@3HA     0053fe9c     Csimain.obj
 0003:0010dea0       ?iUniMsgSize@@3HA          0053fea0     Csimain.obj
 0003:0010dea4       ?lSESEx@@3JA               0053fea4     Csimain.obj
 0003:0010dea8       ?hWndCSLink@@3PAUHWND__@@A 0053fea8     Csimain.obj
 0003:0010deac       ?hInstBWCCDLL@@3PAUHINSTANCE__@@A 0053feac     Csimain.obj
 0003:0010deb0       ?iCachePercent@@3HA        0053feb0     Csimain.obj
 0003:0010deb4       ?lSESIx@@3JA               0053feb4     Csimain.obj
 0003:0010deb8       ?iNDIBuffers@@3HA          0053feb8     Csimain.obj
 0003:0010debc       ?lSESMx@@3JA               0053febc     Csimain.obj
 0003:0010dec0       ?lSESOx@@3JA               0053fec0     Csimain.obj
 0003:0010dec4       ?lSESRx@@3JA               0053fec4     Csimain.obj
 0003:0010dec8       ?acKeyFilePath@@3PADA      0053fec8     Csimain.obj
 0003:0010dee8       ?lSESTx@@3JA               0053fee8     Csimain.obj
 0003:0010deec       ?iGRDINI@@3HA              0053feec     Csimain.obj
 0003:0010def0       ?hMenu@@3PAUHMENU__@@A     0053fef0     Csimain.obj
 0003:0010def4       ?hWndCSRemote@@3PAUHWND__@@A 0053fef4     Csimain.obj
 0003:0010def8       ?acNDI@@3PADA              0053fef8     Csimain.obj
 0003:0010df0c       ?iTimeSrvEnable@@3HA       0053ff0c     Csimain.obj
 0003:0010df10       ?dgMsgQueueHWM@@3HA        0053ff10     Csimain.obj
 0003:0010df14       ?lpDialog@@3P6GHXZA        0053ff14     Csimain.obj
 0003:0010df18       ?bDiagModeExt@@3HA         0053ff18     Csimain.obj
 0003:0010df1c       ?iCacheFile@@3PAHA         0053ff1c     Csimain.obj
 0003:0010df3c       ?iNetResets@@3HA           0053ff3c     Csimain.obj
 0003:0010df40       ?bDebugMode@@3HA           0053ff40     Csimain.obj
 0003:0010df44       ?iUpHours@@3HA             0053ff44     Csimain.obj
 0003:0010df48       ?bFBFlag@@3EA              0053ff48     Csimain.obj
 0003:0010df4c       ?iUpMins@@3HA              0053ff4c     Csimain.obj
 0003:0010df50       ?iDevices@@3HA             0053ff50     Csimain.obj
 0003:0010df54       ?acPollStack@@3PAY0BI@DA   0053ff54     Csimain.obj
 0003:0010e254       ?iUniFileMsgSize@@3HA      00540254     Csimain.obj
 0003:0010f658       ?iEnvType@@3HA             00541658     PROFILE.obj
 0003:0010f660       ?mode@@3PAVQPopupMenu@@A   00541660     v4_main.obj
 0003:0010f664       ?tools@@3PAVQPopupMenu@@A  00541664     v4_main.obj
 0003:0010f668       ?diagnostics@@3PAVQPopupMenu@@A 00541668     v4_main.obj
 0003:0010f678       ?pDbLoadDlg@@3PAVCSIDbLoadDlg@@A 00541678     v4_main.obj
 0003:0010f67c       ?pLicenseDlg@@3PAVCSILicenseDlg@@A 0054167c     v4_main.obj
 0003:0010f680       ?pMainDlg@@3PAVCSIMainDlg@@A 00541680     v4_main.obj
 0003:0010f684       ?cache@@3PAVQPopupMenu@@A  00541684     v4_main.obj
 0003:0010f688       ?pAboutDlg@@3PAVCSIAboutDlg@@A 00541688     v4_main.obj
 0003:0010f6ac       ?sessions@@3PAVQPopupMenu@@A 005416ac     v4_main.obj
 0003:0010f6b0       ?pApp@@3PAVQApplication@@A 005416b0     v4_main.obj
 0003:0010f6b8       ?metaObj@CSIAboutDlg@@0PAVQMetaObject@@A 005416b8     moc_csi_about.obj
 0003:0010f6c0       ?metaObj@CSIDbLoadDlg@@0PAVQMetaObject@@A 005416c0     moc_csi_dbload.obj
 0003:0010f6c8       ?metaObj@CSILicenseDlg@@0PAVQMetaObject@@A 005416c8     moc_csi_license.obj
 0003:0010f6d0       ?metaObj@CSIMainDlg@@0PAVQMetaObject@@A 005416d0     moc_csi_maindlg.obj
 0003:0010f6d8       ?metaObj@CSI@@0PAVQMetaObject@@A 005416d8     moc_V4_main.obj
 0003:0010f6dc       __dowildcard               005416dc     MSVCRT:wildcard.obj
 0003:0010f6e0       __newmode                  005416e0     MSVCRT:_newmode.obj
 0003:0010f6e4       __commode                  005416e4     MSVCRT:xncommod.obj
 0003:0010f6e8       __fmode                    005416e8     MSVCRT:xtxtmode.obj
 0003:0010f6ec       __adjust_fdiv              005416ec     <common>
 0003:0010f6f0       ___onexitend               005416f0     <common>
 0003:0010f6f4       ___onexitbegin             005416f4     <common>

 entry point at        0001:00019d24

 Static symbols

 0001:00019010       _$E128                     0041a010 f   moc_V4_main.obj
 0001:00019020       _$E125                     0041a020 f   moc_V4_main.obj
 0001:00019040       _$E127                     0041a040 f   moc_V4_main.obj
 0001:00019050       _$E126                     0041a050 f   moc_V4_main.obj
 0001:00018dc0       _$E101                     00419dc0 f   moc_csi_maindlg.obj
 0001:00018dd0       _$E98                      00419dd0 f   moc_csi_maindlg.obj
 0001:00018df0       _$E100                     00419df0 f   moc_csi_maindlg.obj
 0001:00018e00       _$E99                      00419e00 f   moc_csi_maindlg.obj
 0001:00018c10       _$E100                     00419c10 f   moc_csi_license.obj
 0001:00018c20       _$E97                      00419c20 f   moc_csi_license.obj
 0001:00018c40       _$E99                      00419c40 f   moc_csi_license.obj
 0001:00018c50       _$E98                      00419c50 f   moc_csi_license.obj
 0001:000189e0       _$E100                     004199e0 f   moc_csi_dbload.obj
 0001:000189f0       _$E97                      004199f0 f   moc_csi_dbload.obj
 0001:00018a10       _$E99                      00419a10 f   moc_csi_dbload.obj
 0001:00018a20       _$E98                      00419a20 f   moc_csi_dbload.obj
 0001:000187b0       _$E100                     004197b0 f   moc_csi_about.obj
 0001:000187c0       _$E97                      004197c0 f   moc_csi_about.obj
 0001:000187e0       _$E99                      004197e0 f   moc_csi_about.obj
 0001:000187f0       _$E98                      004197f0 f   moc_csi_about.obj
 0001:00010960       ?qembed_findData@@YAABV?$QMemArray@D@@PBD@Z 00411960 f   v4_main.obj
 0001:00010b70       _$E130                     00411b70 f   v4_main.obj
 0001:00010b80       _$E129                     00411b80 f   v4_main.obj

 224 bytes saved through ICF

