 WSTracker

 Timestamp is 5e9dbb45 (Mon Apr 20 16:09:57 2020)

 Preferred load address is 00400000

 Start         Length     Name                   Class
 0001:00000000 000018a4H .text                   CODE
 0001:000018b0 00001187H .text$di                CODE
 0001:00002a40 0001311cH .text$mn                CODE
 0001:00015b60 00002defH .text$x                 CODE
 0001:00018950 00001088H .text$yd                CODE
 0002:00000000 00000104H .CRT$XCA                DATA
 0002:00000104 00000104H .CRT$XCAA               DATA
 0002:00000208 00000126H .CRT$XCU                DATA
 0002:00000330 00000104H .CRT$XCZ                DATA
 0002:00000434 00000104H .CRT$XIA                DATA
 0002:00000538 00000104H .CRT$XIAA               DATA
 0002:0000063c 00000104H .CRT$XIC                DATA
 0002:00000740 00000104H .CRT$XIY                DATA
 0002:00000844 00000104H .CRT$XIZ                DATA
 0002:00000950 00005cd4H .rdata                  DATA
 0002:00006624 000015dcH .rdata$r                DATA
 0002:00007c00 00000104H .rtc$IAA                DATA
 0002:00007d04 00000104H .rtc$IZZ                DATA
 0002:00007e08 00000104H .rtc$TAA                DATA
 0002:00007f0c 00000104H .rtc$TZZ                DATA
 0002:00008010 00001b79H .xdata$x                DATA
 0002:00009b89 00000000H .edata                  DATA
 0003:00000000 000004daH .data                   DATA
 0003:000004dc 000006d9H .data$r                 DATA
 0003:00000bb8 00000520H .bss                    DATA
 0004:00000000 00001414H .idata$5                DATA
 0004:00001414 000000a0H .idata$2                DATA
 0004:000014b4 00000014H .idata$3                DATA
 0004:000014c8 00001414H .idata$4                DATA
 0004:000028dc 0000aacbH .idata$6                DATA
 0005:00000000 000002e0H .rsrc$01                DATA
 0005:000002e0 00004e36H .rsrc$02                DATA

  Address         Publics by Value              Rva+Base       Lib:Object

 0000:00000000       ___guard_flags             00000000     <absolute>
 0000:00000000       ___safe_se_handler_count   00000000     <absolute>
 0000:00000000       ___guard_fids_table        00000000     <absolute>
 0000:00000000       ___guard_fids_count        00000000     <absolute>
 0000:00000000       ___safe_se_handler_table   00000000     <absolute>
 0000:00000000       __except_list              00000000     <absolute>
 0000:00009876       __ldused                   00009876     <absolute>
 0000:00009876       __fltused                  00009876     <absolute>
 0000:00000000       ___ImageBase               00400000     <linker-defined>
 0001:00000a37       _WinMain@16                00401a37 f   qtmain:qtmain_win.obj
 0001:00000ac4       ?detach@?$QMemArray@PAD@@UAEXXZ 00401ac4 f i qtmain:qtmain_win.obj
 0001:00000acc       ??_G?$QMemArray@H@@UAEPAXI@Z 00401acc f i qtmain:qtmain_win.obj
 0001:00000af0       ??_G?$QMemArray@_N@@UAEPAXI@Z 00401af0 f i qtmain:qtmain_win.obj
 0001:00000b14       ??_G?$QMemArray@D@@UAEPAXI@Z 00401b14 f i qtmain:qtmain_win.obj
 0001:00000b38       ??_G?$QMemArray@VQPoint@@@@UAEPAXI@Z 00401b38 f i qtmain:qtmain_win.obj
 0001:00000b5c       ??_G?$QPtrList@D@@UAEPAXI@Z 00401b5c f i qtmain:qtmain_win.obj
 0001:00000b88       ??_G?$QPtrList@VQObject@@@@UAEPAXI@Z 00401b88 f i qtmain:qtmain_win.obj
 0001:00000bb4       ??_G?$QPtrList@VQWidget@@@@UAEPAXI@Z 00401bb4 f i qtmain:qtmain_win.obj
 0001:00000be0       ??_G?$QMemArray@PAD@@UAEPAXI@Z 00401be0 f i qtmain:qtmain_win.obj
 0001:00000be0       ??_E?$QMemArray@PAD@@UAEPAXI@Z 00401be0 f i qtmain:qtmain_win.obj
 0001:00002a40       ??0infodriverIf@@QAE@II@Z  00403a40 f   infodriverIf.obj
 0001:00002bb0       ??1infodriverIf@@UAE@XZ    00403bb0 f   infodriverIf.obj
 0001:00002c67       ??_EinfodriverIf@@WGM@AEPAXI@Z 00403c67 f i infodriverIf.obj
 0001:00002c80       ??_EinfodriverIf@@UAEPAXI@Z 00403c80 f i infodriverIf.obj
 0001:00002c80       ??_GinfodriverIf@@UAEPAXI@Z 00403c80 f i infodriverIf.obj
 0001:00002cb0       ?getName@workStation@@QAE?AVQString@@XZ 00403cb0 f i infodriverIf.obj
 0001:00002ce0       ?getTxMode@infodriverIf@@QAEHXZ 00403ce0 f   infodriverIf.obj
 0001:00002cf0       ?getWsNumber@workStation@@QAEHXZ 00403cf0 f i infodriverIf.obj
 0001:00002d00       ?isConnected@infodriverIf@@QAE_NXZ 00403d00 f   infodriverIf.obj
 0001:00002d10       ?logChange@infodriverIf@@AAEXPAVworkStation@@@Z 00403d10 f   infodriverIf.obj
 0001:00003260       ?metaObject@infodriverIf@@UBEPAVQMetaObject@@XZ 00404260 f i infodriverIf.obj
 0001:00003270       ?notify@infodriverIf@@EAEHPAVcXInfo@@IPBD@Z 00404270 f   infodriverIf.obj
 0001:00003430       ?notify@infodriverIf@@EAEJPAVcPanel@@PBD@Z 00404430 f   infodriverIf.obj
 0001:00003440       ?timerEvent@infodriverIf@@EAEXPAVQTimerEvent@@@Z 00404440 f   infodriverIf.obj
 0001:00003690       ?updateWorkstation@infodriverIf@@QAEXPAVworkStation@@@Z 00404690 f   infodriverIf.obj
 0001:00003830       _main                      00404830 f   main.obj
 0001:000039f0       ?className@restartAllBase@@UBEPBDXZ 004049f0 f   moc_restartall.obj
 0001:00003a00       ?qt_cast@restartAllBase@@UAEPAXPBD@Z 00404a00 f   moc_restartall.obj
 0001:00003a70       ?qt_emit@restartAllBase@@UAE_NHPAUQUObject@@@Z 00404a70 f   moc_restartall.obj
 0001:00003a80       ?qt_invoke@restartAllBase@@UAE_NHPAUQUObject@@@Z 00404a80 f   moc_restartall.obj
 0001:00003b30       ?qt_property@restartAllBase@@UAE_NHHPAVQVariant@@@Z 00404b30 f   moc_restartall.obj
 0001:00003b40       ?qt_static_property@restartAllBase@@SA_NPAVQObject@@HHPAVQVariant@@@Z 00404b40 f   moc_restartall.obj
 0001:00003b50       ?staticMetaObject@restartAllBase@@SAPAVQMetaObject@@XZ 00404b50 f   moc_restartall.obj
 0001:00003bc0       ?tr@restartAllBase@@SA?AVQString@@PBD0@Z 00404bc0 f   moc_restartall.obj
 0001:00003c20       ?trUtf8@restartAllBase@@SA?AVQString@@PBD0@Z 00404c20 f   moc_restartall.obj
 0001:00003c80       ?className@restartAll@@UBEPBDXZ 00404c80 f   moc_restartallimpl.obj
 0001:00003c90       ?qt_cast@restartAll@@UAEPAXPBD@Z 00404c90 f   moc_restartallimpl.obj
 0001:00003d00       ?qt_emit@restartAll@@UAE_NHPAUQUObject@@@Z 00404d00 f   moc_restartallimpl.obj
 0001:00003d10       ?qt_invoke@restartAll@@UAE_NHPAUQUObject@@@Z 00404d10 f   moc_restartallimpl.obj
 0001:00003d20       ?qt_property@restartAll@@UAE_NHHPAVQVariant@@@Z 00404d20 f   moc_restartallimpl.obj
 0001:00003d30       ?qt_static_property@restartAll@@SA_NPAVQObject@@HHPAVQVariant@@@Z 00404d30 f   moc_restartallimpl.obj
 0001:00003d40       ?staticMetaObject@restartAll@@SAPAVQMetaObject@@XZ 00404d40 f   moc_restartallimpl.obj
 0001:00003da0       ?tr@restartAll@@SA?AVQString@@PBD0@Z 00404da0 f   moc_restartallimpl.obj
 0001:00003e00       ?trUtf8@restartAll@@SA?AVQString@@PBD0@Z 00404e00 f   moc_restartallimpl.obj
 0001:00003e60       ??0netComms@@QAE@XZ        00404e60 f   netComms.obj
 0001:00003ea0       ??1netComms@@UAE@XZ        00404ea0 f   netComms.obj
 0001:00003f30       ??1statusUpdate@@QAE@XZ    00404f30 f i netComms.obj
 0001:00003fc0       ??_GQSocketDevice@@UAEPAXI@Z 00404fc0 f i netComms.obj
 0001:00003fc0       ??_EQSocketDevice@@UAEPAXI@Z 00404fc0 f i netComms.obj
 0001:00003ff0       ??_GQSocketNotifier@@UAEPAXI@Z 00404ff0 f i netComms.obj
 0001:00003ff0       ??_EQSocketNotifier@@UAEPAXI@Z 00404ff0 f i netComms.obj
 0001:00004020       ??_EnetComms@@UAEPAXI@Z    00405020 f i netComms.obj
 0001:00004020       ??_GnetComms@@UAEPAXI@Z    00405020 f i netComms.obj
 0001:000040d0       ?checkSocketValid@netComms@@AAE_NXZ 004050d0 f   netComms.obj
 0001:00004140       ?connect@netComms@@AAE_NXZ 00405140 f   netComms.obj
 0001:000044f0       ?initComms@netComms@@QAE_NH@Z 004054f0 f   netComms.obj
 0001:000045f0       ?metaObject@netComms@@UBEPAVQMetaObject@@XZ 004055f0 f i netComms.obj
 0001:00004600       ?rxData@netComms@@QAEXH@Z  00405600 f   netComms.obj
 0001:000049d0       ?sendMessage@netComms@@QAE_NVQString@@0@Z 004059d0 f   netComms.obj
 0001:00004b40       ?timerEvent@netComms@@MAEXPAVQTimerEvent@@@Z 00405b40 f   netComms.obj
 0001:00004bb0       ??0restartAllBase@@QAE@PAVQWidget@@PBD_NI@Z 00405bb0 f   restartall.obj
 0001:00005190       ??1restartAllBase@@UAE@XZ  00406190 f   restartall.obj
 0001:000051a7       ??_EQCheckBox@@WCI@AEPAXI@Z 004061a7 f i restartall.obj
 0001:000051b1       ??_EQHBoxLayout@@WCI@AEPAXI@Z 004061b1 f i restartall.obj
 0001:000051bb       ??_EQLabel@@WCI@AEPAXI@Z   004061bb f i restartall.obj
 0001:000051c5       ??_EQPushButton@@WCI@AEPAXI@Z 004061c5 f i restartall.obj
 0001:000051cf       ??_EQSpinBox@@WCI@AEPAXI@Z 004061cf f i restartall.obj
 0001:000051d9       ??_EQSpinBox@@WGM@AEPAXI@Z 004061d9 f i restartall.obj
 0001:000051e3       ??_EQVBoxLayout@@WCI@AEPAXI@Z 004061e3 f i restartall.obj
 0001:000051ed       ??_ErestartAllBase@@WCI@AEPAXI@Z 004061ed f i restartall.obj
 0001:00005200       ??_GQCheckBox@@UAEPAXI@Z   00406200 f i restartall.obj
 0001:00005200       ??_EQCheckBox@@UAEPAXI@Z   00406200 f i restartall.obj
 0001:00005230       ??_GQHBoxLayout@@UAEPAXI@Z 00406230 f i restartall.obj
 0001:00005230       ??_EQHBoxLayout@@UAEPAXI@Z 00406230 f i restartall.obj
 0001:00005260       ??_EQLabel@@UAEPAXI@Z      00406260 f i restartall.obj
 0001:00005260       ??_GQLabel@@UAEPAXI@Z      00406260 f i restartall.obj
 0001:00005290       ??_GQPushButton@@UAEPAXI@Z 00406290 f i restartall.obj
 0001:00005290       ??_EQPushButton@@UAEPAXI@Z 00406290 f i restartall.obj
 0001:000052c0       ??_EQSpacerItem@@UAEPAXI@Z 004062c0 f i restartall.obj
 0001:000052c0       ??_GQSpacerItem@@UAEPAXI@Z 004062c0 f i restartall.obj
 0001:000052f0       ??_EQSpinBox@@UAEPAXI@Z    004062f0 f i restartall.obj
 0001:000052f0       ??_GQSpinBox@@UAEPAXI@Z    004062f0 f i restartall.obj
 0001:00005320       ??_EQVBoxLayout@@UAEPAXI@Z 00406320 f i restartall.obj
 0001:00005320       ??_GQVBoxLayout@@UAEPAXI@Z 00406320 f i restartall.obj
 0001:00005350       ??_GrestartAllBase@@UAEPAXI@Z 00406350 f i restartall.obj
 0001:00005350       ??_ErestartAllBase@@UAEPAXI@Z 00406350 f i restartall.obj
 0001:00005390       ?languageChange@restartAllBase@@MAEXXZ 00406390 f   restartall.obj
 0001:000056a0       ?metaObject@restartAllBase@@UBEPAVQMetaObject@@XZ 004066a0 f i restartall.obj
 0001:000056b0       ??0restartAll@@QAE@PAVQWidget@@PBD_NI@Z 004066b0 f   restartallimpl.obj
 0001:000056f0       ??1restartAll@@UAE@XZ      004066f0 f   restartallimpl.obj
 0001:00005706       ??_ErestartAll@@WCI@AEPAXI@Z 00406706 f i restartallimpl.obj
 0001:00005710       ??_ErestartAll@@UAEPAXI@Z  00406710 f i restartallimpl.obj
 0001:00005710       ??_GrestartAll@@UAEPAXI@Z  00406710 f i restartallimpl.obj
 0001:00005750       ?metaObject@restartAll@@UBEPAVQMetaObject@@XZ 00406750 f i restartallimpl.obj
 0001:00005760       ??0statusUpdate@@QAE@HHW4status@workstationStatus@@VQString@@VQDateTime@@111@Z 00406760 f   statusUpdate.obj
 0001:000058b0       ??0workStation@@QAE@HVQString@@PAVQListView@@@Z 004068b0 f   workStation.obj
 0001:00005aa0       ??1workStation@@UAE@XZ     00406aa0 f   workStation.obj
 0001:00005b80       ??9@YA_NVQChar@@0@Z        00406b80 f i workStation.obj
 0001:00005ba0       ??N@YA_NVQChar@@0@Z        00406ba0 f i workStation.obj
 0001:00005bc0       ??O@YA_NVQChar@@0@Z        00406bc0 f i workStation.obj
 0001:00005be0       ??P@YA_NVQChar@@0@Z        00406be0 f i workStation.obj
 0001:00005bf4       ??_EworkStation@@WCM@AEPAXI@Z 00406bf4 f i workStation.obj
 0001:00005c00       ??_GworkStation@@UAEPAXI@Z 00406c00 f i workStation.obj
 0001:00005c00       ??_EworkStation@@UAEPAXI@Z 00406c00 f i workStation.obj
 0001:00005c30       ?checkComms@workStation@@QAEXXZ 00406c30 f   workStation.obj
 0001:00005c50       ?compare@workStation@@UBEHPAVQListViewItem@@H_N@Z 00406c50 f   workStation.obj
 0001:00005f80       ?currentStatus@statusUpdate@@QAE?BW4status@workstationStatus@@XZ 00406f80 f i workStation.obj
 0001:00005f90       ?getStartTime@workStation@@QAE?AVQDateTime@@XZ 00406f90 f   workStation.obj
 0001:00005fb0       ?getStatus@workStation@@QAE?AW4status@workstationStatus@@XZ 00406fb0 f   workStation.obj
 0001:00005fc0       ?getSummary@workStation@@QAE?AVQString@@XZ 00406fc0 f   workStation.obj
 0001:00006360       ?ipAddress@statusUpdate@@QAE?BVQString@@XZ 00407360 f i workStation.obj
 0001:00006390       ?metaObject@workStation@@UBEPAVQMetaObject@@XZ 00407390 f i workStation.obj
 0001:000063a0       ?operatingSystem@statusUpdate@@QAE?BVQString@@XZ 004073a0 f i workStation.obj
 0001:000063d0       ?paintCell@workStation@@UAEXPAVQPainter@@ABVQColorGroup@@HHH@Z 004073d0 f   workStation.obj
 0001:000064f0       ?rtti@workStation@@UBEHXZ  004074f0 f i workStation.obj
 0001:00006500       ?setIpAddr@workStation@@AAEXVQString@@@Z 00407500 f   workStation.obj
 0001:00006590       ?setLastTime@workStation@@AAEXVQDateTime@@@Z 00407590 f   workStation.obj
 0001:00006660       ?setOS@workStation@@AAEXVQString@@@Z 00407660 f   workStation.obj
 0001:000066f0       ?setStartTime@workStation@@AAEXVQDateTime@@@Z 004076f0 f   workStation.obj
 0001:000067c0       ?setUser@workStation@@AAEXVQString@@@Z 004077c0 f   workStation.obj
 0001:00006850       ?setWsString@workStation@@AAEXVQString@@@Z 00407850 f   workStation.obj
 0001:000068e0       ?startTime@statusUpdate@@QAE?BVQDateTime@@XZ 004078e0 f i workStation.obj
 0001:00006900       ?updateStatus@workStation@@AAEXW4status@workstationStatus@@@Z 00407900 f   workStation.obj
 0001:00006a40       ?updateStatus@workStation@@QAEXPAVstatusUpdate@@@Z 00407a40 f   workStation.obj
 0001:00006c40       ?user@statusUpdate@@QAE?BVQString@@XZ 00407c40 f i workStation.obj
 0001:00006c70       ?workstation_Text@statusUpdate@@QAE?BVQString@@XZ 00407c70 f i workStation.obj
 0001:00006ca0       ?workstation_number@statusUpdate@@QAE?BHXZ 00407ca0 f i workStation.obj
 0001:00006cb0       ?wsUnknown@workStation@@QAE_NXZ 00407cb0 f   workStation.obj
 0001:00006ce0       ??0?$QMap@HPAVworkStation@@@@QAE@XZ 00407ce0 f i wstrackermainwindow.obj
 0001:00006dc0       ??0?$QMapConstIterator@HPAVworkStation@@@@QAE@PAU?$QMapNode@HPAVworkStation@@@@@Z 00407dc0 f i wstrackermainwindow.obj
 0001:00006de0       ??0?$QMapIterator@HPAVworkStation@@@@QAE@ABV0@@Z 00407de0 f i wstrackermainwindow.obj
 0001:00006e00       ??0?$QMapIterator@HPAVworkStation@@@@QAE@PAU?$QMapNode@HPAVworkStation@@@@@Z 00407e00 f i wstrackermainwindow.obj
 0001:00006e20       ??0?$QMapIterator@HPAVworkStation@@@@QAE@XZ 00407e20 f i wstrackermainwindow.obj
 0001:00006e30       ??0?$QMapNode@HPAVworkStation@@@@QAE@ABH@Z 00407e30 f i wstrackermainwindow.obj
 0001:00006e50       ??0?$QMapNode@HPAVworkStation@@@@QAE@ABU0@@Z 00407e50 f i wstrackermainwindow.obj
 0001:00006e70       ??0?$QMapNode@HPAVworkStation@@@@QAE@XZ 00407e70 f i wstrackermainwindow.obj
 0001:00006e80       ??0?$QMapPrivate@HPAVworkStation@@@@QAE@PBV0@@Z 00407e80 f i wstrackermainwindow.obj
 0001:00006f50       ??0?$QMapPrivate@HPAVworkStation@@@@QAE@XZ 00407f50 f i wstrackermainwindow.obj
 0001:00006fa0       ??0WSTrackerMainWindow@@QAE@PAVQWidget@@PBDI@Z 00407fa0 f   wstrackermainwindow.obj
 0001:000076c0       ??1?$QMap@HPAVworkStation@@@@QAE@XZ 004086c0 f i wstrackermainwindow.obj
 0001:000076f0       ??1?$QMapPrivate@HPAVworkStation@@@@QAE@XZ 004086f0 f i wstrackermainwindow.obj
 0001:00007710       ??1WSTrackerMainWindow@@UAE@XZ 00408710 f   wstrackermainwindow.obj
 0001:000077f0       ??8?$QMapIterator@HPAVworkStation@@@@QBE_NABV0@@Z 004087f0 f i wstrackermainwindow.obj
 0001:00007810       ??9?$QMapIterator@HPAVworkStation@@@@QBE_NABV0@@Z 00408810 f i wstrackermainwindow.obj
 0001:00007830       ??A?$QMap@HPAVworkStation@@@@QAEAAPAVworkStation@@ABH@Z 00408830 f i wstrackermainwindow.obj
 0001:00007990       ??E?$QMapIterator@HPAVworkStation@@@@QAE?AV0@H@Z 00408990 f i wstrackermainwindow.obj
 0001:00007a10       ??E?$QMapIterator@HPAVworkStation@@@@QAEAAV0@XZ 00408a10 f i wstrackermainwindow.obj
 0001:00007a60       ??F?$QMapIterator@HPAVworkStation@@@@QAEAAV0@XZ 00408a60 f i wstrackermainwindow.obj
 0001:00007a6f       ??_EQMenuBar@@WCI@AEPAXI@Z 00408a6f f i wstrackermainwindow.obj
 0001:00007a79       ??_EQMenuBar@@WIM@AEPAXI@Z 00408a79 f i wstrackermainwindow.obj
 0001:00007a86       ??_EQPopupMenu@@WCI@AEPAXI@Z 00408a86 f i wstrackermainwindow.obj
 0001:00007a90       ??_EQPopupMenu@@WIM@AEPAXI@Z 00408a90 f i wstrackermainwindow.obj
 0001:00007a9d       ??_EWSTrackerMainWindow@@WCI@AEPAXI@Z 00408a9d f i wstrackermainwindow.obj
 0001:00007ab0       ??_G?$QMapPrivate@HPAVworkStation@@@@QAEPAXI@Z 00408ab0 f i wstrackermainwindow.obj
 0001:00007af0       ??_EQDomElement@@UAEPAXI@Z 00408af0 f i wstrackermainwindow.obj
 0001:00007af0       ??_GQDomElement@@UAEPAXI@Z 00408af0 f i wstrackermainwindow.obj
 0001:00007b20       ??_EQMenuBar@@UAEPAXI@Z    00408b20 f i wstrackermainwindow.obj
 0001:00007b20       ??_GQMenuBar@@UAEPAXI@Z    00408b20 f i wstrackermainwindow.obj
 0001:00007b50       ??_GQPopupMenu@@UAEPAXI@Z  00408b50 f i wstrackermainwindow.obj
 0001:00007b50       ??_EQPopupMenu@@UAEPAXI@Z  00408b50 f i wstrackermainwindow.obj
 0001:00007b80       ??_EWSTrackerMainWindow@@UAEPAXI@Z 00408b80 f i wstrackermainwindow.obj
 0001:00007b80       ??_GWSTrackerMainWindow@@UAEPAXI@Z 00408b80 f i wstrackermainwindow.obj
 0001:00007bb0       ?about@WSTrackerMainWindow@@QAEXXZ 00408bb0 f   wstrackermainwindow.obj
 0001:00007e50       ?addWorkstation@WSTrackerMainWindow@@AAEPAVworkStation@@HVQString@@@Z 00408e50 f   wstrackermainwindow.obj
 0001:00007fb0       ?begin@?$QMap@HPAVworkStation@@@@QAE?AV?$QMapIterator@HPAVworkStation@@@@XZ 00408fb0 f i wstrackermainwindow.obj
 0001:00008050       ?begin@?$QMapPrivate@HPAVworkStation@@@@QAE?AV?$QMapIterator@HPAVworkStation@@@@XZ 00409050 f i wstrackermainwindow.obj
 0001:00008070       ?channel@statusUpdate@@QAE?BHXZ 00409070 f i wstrackermainwindow.obj
 0001:00008080       ?checkWsComms@WSTrackerMainWindow@@AAEXXZ 00409080 f   wstrackermainwindow.obj
 0001:00008220       ?clear@?$QMapPrivate@HPAVworkStation@@@@QAEXPAU?$QMapNode@HPAVworkStation@@@@@Z 00409220 f i wstrackermainwindow.obj
 0001:00008260       ?clear@?$QMapPrivate@HPAVworkStation@@@@QAEXXZ 00409260 f i wstrackermainwindow.obj
 0001:000082d0       ?connectRemote@WSTrackerMainWindow@@QAEXXZ 004092d0 f   wstrackermainwindow.obj
 0001:00008440       ?copy@?$QMapPrivate@HPAVworkStation@@@@QAEPAU?$QMapNode@HPAVworkStation@@@@PAU2@@Z 00409440 f i wstrackermainwindow.obj
 0001:000084f0       ?copyStatus@WSTrackerMainWindow@@QAEXXZ 004094f0 f   wstrackermainwindow.obj
 0001:000086f0       ?data@?$QMapIterator@HPAVworkStation@@@@QAEAAPAVworkStation@@XZ 004096f0 f i wstrackermainwindow.obj
 0001:00008700       ?dec@?$QMapIterator@HPAVworkStation@@@@AAEHXZ 00409700 f i wstrackermainwindow.obj
 0001:00008770       ?detach@?$QMap@HPAVworkStation@@@@IAEXXZ 00409770 f i wstrackermainwindow.obj
 0001:00008810       ?detachInternal@?$QMap@HPAVworkStation@@@@AAEXXZ 00409810 f i wstrackermainwindow.obj
 0001:000088a0       ?enableButtons@WSTrackerMainWindow@@AAEXXZ 004098a0 f   wstrackermainwindow.obj
 0001:00008a00       ?end@?$QMap@HPAVworkStation@@@@QAE?AV?$QMapIterator@HPAVworkStation@@@@XZ 00409a00 f i wstrackermainwindow.obj
 0001:00008a90       ?end@?$QMapPrivate@HPAVworkStation@@@@QAE?AV?$QMapIterator@HPAVworkStation@@@@XZ 00409a90 f i wstrackermainwindow.obj
 0001:00008ab0       ?find@?$QMapPrivate@HPAVworkStation@@@@QBE?AV?$QMapConstIterator@HPAVworkStation@@@@ABH@Z 00409ab0 f i wstrackermainwindow.obj
 0001:00008b10       ?getIpAddr@workStation@@QAE?AVQString@@XZ 00409b10 f i wstrackermainwindow.obj
 0001:00008b40       ?goRestart@WSTrackerMainWindow@@QAEXXZ 00409b40 f   wstrackermainwindow.obj
 0001:00008b70       ?goRestartAll@WSTrackerMainWindow@@QAEXXZ 00409b70 f   wstrackermainwindow.obj
 0001:00009270       ?goStart@WSTrackerMainWindow@@QAEXXZ 0040a270 f   wstrackermainwindow.obj
 0001:000092a0       ?goStop@WSTrackerMainWindow@@QAEXXZ 0040a2a0 f   wstrackermainwindow.obj
 0001:000092d0       ?inc@?$QMapIterator@HPAVworkStation@@@@AAEHXZ 0040a2d0 f i wstrackermainwindow.obj
 0001:00009330       ?insert@?$QMap@HPAVworkStation@@@@QAE?AV?$QMapIterator@HPAVworkStation@@@@ABHABQAVworkStation@@_N@Z 0040a330 f i wstrackermainwindow.obj
 0001:00009400       ?insert@?$QMapPrivate@HPAVworkStation@@@@QAE?AV?$QMapIterator@HPAVworkStation@@@@PAUQMapNodeBase@@0ABH@Z 0040a400 f i wstrackermainwindow.obj
 0001:000094c0       ?insertSingle@?$QMapPrivate@HPAVworkStation@@@@QAE?AV?$QMapIterator@HPAVworkStation@@@@ABH@Z 0040a4c0 f i wstrackermainwindow.obj
 0001:00009560       ?key@?$QMapPrivate@HPAVworkStation@@@@IBEABHPAUQMapNodeBase@@@Z 0040a560 f i wstrackermainwindow.obj
 0001:00009570       ?loadConfigInfo@WSTrackerMainWindow@@AAE_NXZ 0040a570 f   wstrackermainwindow.obj
 0001:0000a130       ?loadWorkstations@WSTrackerMainWindow@@AAE_NXZ 0040b130 f   wstrackermainwindow.obj
 0001:0000a5e0       ?metaObject@WSTrackerMainWindow@@UBEPAVQMetaObject@@XZ 0040b5e0 f i wstrackermainwindow.obj
 0001:0000a5f0       ?restartWorkstation@WSTrackerMainWindow@@QAEXI@Z 0040b5f0 f   wstrackermainwindow.obj
 0001:0000a640       ?sendMessage@WSTrackerMainWindow@@AAEXVQString@@PAVworkStation@@@Z 0040b640 f   wstrackermainwindow.obj
 0001:0000a9a0       ?setWsText@WSTrackerMainWindow@@QAEXXZ 0040b9a0 f   wstrackermainwindow.obj
 0001:0000af90       ?size@?$QMap@HPAVworkStation@@@@QBEIXZ 0040bf90 f i wstrackermainwindow.obj
 0001:0000afa0       ?timerEvent@WSTrackerMainWindow@@EAEXPAVQTimerEvent@@@Z 0040bfa0 f   wstrackermainwindow.obj
 0001:0000afc0       ?updateCounters@WSTrackerMainWindow@@AAEXXZ 0040bfc0 f   wstrackermainwindow.obj
 0001:0000b320       ?wsClicked@WSTrackerMainWindow@@QAEXPAVQListViewItem@@@Z 0040c320 f   wstrackermainwindow.obj
 0001:0000b370       ?wsStatusChange@WSTrackerMainWindow@@QAEXQAVstatusUpdate@@@Z 0040c370 f   wstrackermainwindow.obj
 0001:0000b400       ?wsStatusChanged@WSTrackerMainWindow@@QAEXPAVworkStation@@@Z 0040c400 f   wstrackermainwindow.obj
 0001:0000b420       ?className@infodriverIf@@UBEPBDXZ 0040c420 f   moc_infodriverIf.obj
 0001:0000b430       ?qt_cast@infodriverIf@@UAEPAXPBD@Z 0040c430 f   moc_infodriverIf.obj
 0001:0000b550       ?qt_emit@infodriverIf@@UAE_NHPAUQUObject@@@Z 0040c550 f   moc_infodriverIf.obj
 0001:0000b5a0       ?qt_invoke@infodriverIf@@UAE_NHPAUQUObject@@@Z 0040c5a0 f   moc_infodriverIf.obj
 0001:0000b5b0       ?qt_property@infodriverIf@@UAE_NHHPAVQVariant@@@Z 0040c5b0 f   moc_infodriverIf.obj
 0001:0000b5c0       ?qt_static_property@infodriverIf@@SA_NPAVQObject@@HHPAVQVariant@@@Z 0040c5c0 f   moc_infodriverIf.obj
 0001:0000b5d0       ?restartWorkstation@infodriverIf@@IAEXI@Z 0040c5d0 f   moc_infodriverIf.obj
 0001:0000b6d0       ?staticMetaObject@infodriverIf@@SAPAVQMetaObject@@XZ 0040c6d0 f   moc_infodriverIf.obj
 0001:0000b780       ?tr@infodriverIf@@SA?AVQString@@PBD0@Z 0040c780 f   moc_infodriverIf.obj
 0001:0000b7e0       ?trUtf8@infodriverIf@@SA?AVQString@@PBD0@Z 0040c7e0 f   moc_infodriverIf.obj
 0001:0000b840       ?className@netComms@@UBEPBDXZ 0040c840 f   moc_netComms.obj
 0001:0000b850       ?qt_cast@netComms@@UAEPAXPBD@Z 0040c850 f   moc_netComms.obj
 0001:0000b8c0       ?qt_emit@netComms@@UAE_NHPAUQUObject@@@Z 0040c8c0 f   moc_netComms.obj
 0001:0000b910       ?qt_invoke@netComms@@UAE_NHPAUQUObject@@@Z 0040c910 f   moc_netComms.obj
 0001:0000b960       ?qt_property@netComms@@UAE_NHHPAVQVariant@@@Z 0040c960 f   moc_netComms.obj
 0001:0000b970       ?qt_static_property@netComms@@SA_NPAVQObject@@HHPAVQVariant@@@Z 0040c970 f   moc_netComms.obj
 0001:0000b980       ?staticMetaObject@netComms@@SAPAVQMetaObject@@XZ 0040c980 f   moc_netComms.obj
 0001:0000ba70       ?statusChange@netComms@@IAEXQAVstatusUpdate@@@Z 0040ca70 f   moc_netComms.obj
 0001:0000bb70       ?tr@netComms@@SA?AVQString@@PBD0@Z 0040cb70 f   moc_netComms.obj
 0001:0000bbd0       ?trUtf8@netComms@@SA?AVQString@@PBD0@Z 0040cbd0 f   moc_netComms.obj
 0001:0000bc30       ?className@workStation@@UBEPBDXZ 0040cc30 f   moc_workStation.obj
 0001:0000bc40       ?qt_cast@workStation@@UAEPAXPBD@Z 0040cc40 f   moc_workStation.obj
 0001:0000bd10       ?qt_emit@workStation@@UAE_NHPAUQUObject@@@Z 0040cd10 f   moc_workStation.obj
 0001:0000bd60       ?qt_invoke@workStation@@UAE_NHPAUQUObject@@@Z 0040cd60 f   moc_workStation.obj
 0001:0000bd70       ?qt_property@workStation@@UAE_NHHPAVQVariant@@@Z 0040cd70 f   moc_workStation.obj
 0001:0000bd80       ?qt_static_property@workStation@@SA_NPAVQObject@@HHPAVQVariant@@@Z 0040cd80 f   moc_workStation.obj
 0001:0000bd90       ?staticMetaObject@workStation@@SAPAVQMetaObject@@XZ 0040cd90 f   moc_workStation.obj
 0001:0000be40       ?tr@workStation@@SA?AVQString@@PBD0@Z 0040ce40 f   moc_workStation.obj
 0001:0000bea0       ?trUtf8@workStation@@SA?AVQString@@PBD0@Z 0040cea0 f   moc_workStation.obj
 0001:0000bf00       ?wsStatusChanged@workStation@@IAEXPAV1@@Z 0040cf00 f   moc_workStation.obj
 0001:0000c000       ?className@WSTrackerMainWindow@@UBEPBDXZ 0040d000 f   moc_wstrackermainwindow.obj
 0001:0000c010       ?dummy@WSTrackerMainWindow@@QAEXXZ 0040d010 f i moc_wstrackermainwindow.obj
 0001:0000c020       ?qt_cast@WSTrackerMainWindow@@UAEPAXPBD@Z 0040d020 f   moc_wstrackermainwindow.obj
 0001:0000c090       ?qt_emit@WSTrackerMainWindow@@UAE_NHPAUQUObject@@@Z 0040d090 f   moc_wstrackermainwindow.obj
 0001:0000c0a0       ?qt_invoke@WSTrackerMainWindow@@UAE_NHPAUQUObject@@@Z 0040d0a0 f   moc_wstrackermainwindow.obj
 0001:0000c220       ?qt_property@WSTrackerMainWindow@@UAE_NHHPAVQVariant@@@Z 0040d220 f   moc_wstrackermainwindow.obj
 0001:0000c230       ?qt_static_property@WSTrackerMainWindow@@SA_NPAVQObject@@HHPAVQVariant@@@Z 0040d230 f   moc_wstrackermainwindow.obj
 0001:0000c240       ?staticMetaObject@WSTrackerMainWindow@@SAPAVQMetaObject@@XZ 0040d240 f   moc_wstrackermainwindow.obj
 0001:0000c390       ?tr@WSTrackerMainWindow@@SA?AVQString@@PBD0@Z 0040d390 f   moc_wstrackermainwindow.obj
 0001:0000c3f0       ?trUtf8@WSTrackerMainWindow@@SA?AVQString@@PBD0@Z 0040d3f0 f   moc_wstrackermainwindow.obj
 0001:0000c450       ?className@WSTrackerMainWindowBase@@UBEPBDXZ 0040d450 f   moc_wstrackermainwindowbase.obj
 0001:0000c460       ?qt_cast@WSTrackerMainWindowBase@@UAEPAXPBD@Z 0040d460 f   moc_wstrackermainwindowbase.obj
 0001:0000c4d0       ?qt_emit@WSTrackerMainWindowBase@@UAE_NHPAUQUObject@@@Z 0040d4d0 f   moc_wstrackermainwindowbase.obj
 0001:0000c4e0       ?qt_invoke@WSTrackerMainWindowBase@@UAE_NHPAUQUObject@@@Z 0040d4e0 f   moc_wstrackermainwindowbase.obj
 0001:0000c590       ?qt_property@WSTrackerMainWindowBase@@UAE_NHHPAVQVariant@@@Z 0040d590 f   moc_wstrackermainwindowbase.obj
 0001:0000c5a0       ?qt_static_property@WSTrackerMainWindowBase@@SA_NPAVQObject@@HHPAVQVariant@@@Z 0040d5a0 f   moc_wstrackermainwindowbase.obj
 0001:0000c5b0       ?staticMetaObject@WSTrackerMainWindowBase@@SAPAVQMetaObject@@XZ 0040d5b0 f   moc_wstrackermainwindowbase.obj
 0001:0000c620       ?tr@WSTrackerMainWindowBase@@SA?AVQString@@PBD0@Z 0040d620 f   moc_wstrackermainwindowbase.obj
 0001:0000c680       ?trUtf8@WSTrackerMainWindowBase@@SA?AVQString@@PBD0@Z 0040d680 f   moc_wstrackermainwindowbase.obj
 0001:0000c6e0       ??0WSTrackerMainWindowBase@@QAE@PAVQWidget@@PBDI@Z 0040d6e0 f   wstrackermainwindowbase.obj
 0001:0000d700       ??1WSTrackerMainWindowBase@@UAE@XZ 0040e700 f   wstrackermainwindowbase.obj
 0001:0000d717       ??_EQGroupBox@@WCI@AEPAXI@Z 0040e717 f i wstrackermainwindowbase.obj
 0001:0000d721       ??_EQLineEdit@@WCI@AEPAXI@Z 0040e721 f i wstrackermainwindowbase.obj
 0001:0000d72b       ??_EQListView@@WCI@AEPAXI@Z 0040e72b f i wstrackermainwindowbase.obj
 0001:0000d735       ??_EQWidget@@WCI@AEPAXI@Z  0040e735 f i wstrackermainwindowbase.obj
 0001:0000d73f       ??_EWSTrackerMainWindowBase@@WCI@AEPAXI@Z 0040e73f f i wstrackermainwindowbase.obj
 0001:0000d750       ??_EQGroupBox@@UAEPAXI@Z   0040e750 f i wstrackermainwindowbase.obj
 0001:0000d750       ??_GQGroupBox@@UAEPAXI@Z   0040e750 f i wstrackermainwindowbase.obj
 0001:0000d780       ??_GQLineEdit@@UAEPAXI@Z   0040e780 f i wstrackermainwindowbase.obj
 0001:0000d780       ??_EQLineEdit@@UAEPAXI@Z   0040e780 f i wstrackermainwindowbase.obj
 0001:0000d7b0       ??_EQListView@@UAEPAXI@Z   0040e7b0 f i wstrackermainwindowbase.obj
 0001:0000d7b0       ??_GQListView@@UAEPAXI@Z   0040e7b0 f i wstrackermainwindowbase.obj
 0001:0000d7e0       ??_GQWidget@@UAEPAXI@Z     0040e7e0 f i wstrackermainwindowbase.obj
 0001:0000d7e0       ??_EQWidget@@UAEPAXI@Z     0040e7e0 f i wstrackermainwindowbase.obj
 0001:0000d810       ??_GWSTrackerMainWindowBase@@UAEPAXI@Z 0040e810 f i wstrackermainwindowbase.obj
 0001:0000d810       ??_EWSTrackerMainWindowBase@@UAEPAXI@Z 0040e810 f i wstrackermainwindowbase.obj
 0001:0000d850       ?languageChange@WSTrackerMainWindowBase@@MAEXXZ 0040e850 f   wstrackermainwindowbase.obj
 0001:0000e040       ?metaObject@WSTrackerMainWindowBase@@UBEPAVQMetaObject@@XZ 0040f040 f i wstrackermainwindowbase.obj
 0001:0000e050       ??0cPanel@@QAE@XZ          0040f050 f   panel:panelif.obj
 0001:0000e0b0       ??1cPanel@@UAE@XZ          0040f0b0 f   panel:panelif.obj
 0001:0000e100       ??_GcPanel@@UAEPAXI@Z      0040f100 f i panel:panelif.obj
 0001:0000e100       ??_EcPanel@@UAEPAXI@Z      0040f100 f i panel:panelif.obj
 0001:0000e170       ?ClientWndProc@cPanel@@CGJPAUHWND__@@IIJ@Z 0040f170 f   panel:panelif.obj
 0001:0000e1e0       ?ClientWndProcInt@cPanel@@EAGJPAUHWND__@@IIJ@Z 0040f1e0 f   panel:panelif.obj
 0001:0000e6a0       ?cacheflush@cPanel@@QAEXI@Z 0040f6a0 f   panel:panelif.obj
 0001:0000e6c0       ?cachetest@cPanel@@QAEHIII@Z 0040f6c0 f   panel:panelif.obj
 0001:0000e6f0       ?connect@cPanel@@QAEIPBD@Z 0040f6f0 f   panel:panelif.obj
 0001:0000e820       ?getServerName@cPanel@@QAEPBDXZ 0040f820 f i panel:panelif.obj
 0001:0000e830       ?getcachedata@cPanel@@QAEHIIPADI@Z 0040f830 f   panel:panelif.obj
 0001:0000e890       ?getcacheindex@cPanel@@QAEHIIIPBD@Z 0040f890 f   panel:panelif.obj
 0001:0000e910       ?getcachestate@cPanel@@QAEIXZ 0040f910 f   panel:panelif.obj
 0001:0000e930       ?getdbindex@cPanel@@QAEHGGPBD@Z 0040f930 f   panel:panelif.obj
 0001:0000e980       ?getdbname@cPanel@@QAEXGGGPADH@Z 0040f980 f   panel:panelif.obj
 0001:0000e9c0       ?getparam@cPanel@@QAEPADI@Z 0040f9c0 f   panel:panelif.obj
 0001:0000e9d0       ?getparamcount@cPanel@@QAEIXZ 0040f9d0 f   panel:panelif.obj
 0001:0000e9e0       ?getstate@cPanel@@QAEIXZ   0040f9e0 f   panel:panelif.obj
 0001:0000e9f0       ?incrx@cPanel@@AAEXXZ      0040f9f0 f   panel:panelif.obj
 0001:0000ea00       ?regtallyrange@cPanel@@QAEJIIIH@Z 0040fa00 f   panel:panelif.obj
 0001:0000ea60       ?setDebug@cPanel@@QAEXPAVIBncsDebugPanel@@@Z 0040fa60 f   panel:panelif.obj
 0001:0000ea70       ?setcachestate@cPanel@@QAEXI@Z 0040fa70 f   panel:panelif.obj
 0001:0000ea90       ?setcounters@cPanel@@QAEXPAK0@Z 0040fa90 f   panel:panelif.obj
 0001:0000eab0       ?setdbname@cPanel@@QAEXGGGPBDH@Z 0040fab0 f   panel:panelif.obj
 0001:0000eb40       ?setstate@cPanel@@QAEII@Z  0040fb40 f   panel:panelif.obj
 0001:0000eb50       ?showError@cPanel@@AAEXKQBD@Z 0040fb50 f   panel:panelif.obj
 0001:0000ebe0       ?tokenize@cPanel@@AAEIXZ   0040fbe0 f   panel:panelif.obj
 0001:0000ecd0       ?txgpicmd@cPanel@@QAEJPBDH@Z 0040fcd0 f   panel:panelif.obj
 0001:0000ed90       ?txinfocmd@cPanel@@QAEJPBDH@Z 0040fd90 f   panel:panelif.obj
 0001:0000ee60       ?txnetcmd@cPanel@@QAEJPBD@Z 0040fe60 f   panel:panelif.obj
 0001:0000eec0       ?txrtrcmd@cPanel@@QAEJPBDH@Z 0040fec0 f   panel:panelif.obj
 0001:0000efb0       ?unregtallyrange@cPanel@@QAEJIII@Z 0040ffb0 f   panel:panelif.obj
 0001:0000f052       _BNCS32RxMessage           00410052 f   bncsif32:BNCSIF32.dll
 0001:0000f058       _BNCS32TxMessage           00410058 f   bncsif32:BNCSIF32.dll
 0001:0000f060       ??0cXInfo@@QAE@I@Z         00410060 f   cxinfo:CXINFO.obj
 0001:0000f0c0       ??1cXInfo@@QAE@XZ          004100c0 f   cxinfo:CXINFO.obj
 0001:0000f130       ?InfoWndProc@cXInfo@@CGJPAUHWND__@@IIJ@Z 00410130 f   cxinfo:CXINFO.obj
 0001:0000f4b0       ?connect@cXInfo@@QAEHIIIII@Z 004104b0 f   cxinfo:CXINFO.obj
 0001:0000f5d0       ?getdbindex@cXInfo@@QAEHGGPBD@Z 004105d0 f   cxinfo:CXINFO.obj
 0001:0000f630       ?getdbname@cXInfo@@QAEXGGGPADH@Z 00410630 f   cxinfo:CXINFO.obj
 0001:0000f670       ?getmode@cXInfo@@QAEHXZ    00410670 f   cxinfo:CXINFO.obj
 0001:0000f690       ?getslot@cXInfo@@QAEXHPAD@Z 00410690 f   cxinfo:CXINFO.obj
 0001:0000f6c0       ?incrx@cXInfo@@QAEXXZ      004106c0 f   cxinfo:CXINFO.obj
 0001:0000f6d0       ?sendslots@cXInfo@@QAEXHH@Z 004106d0 f   cxinfo:CXINFO.obj
 0001:0000f700       ?setDebug@cXInfo@@QAEXPAVIBncsDebugXInfo@@@Z 00410700 f   cxinfo:CXINFO.obj
 0001:0000f710       ?setcounters@cXInfo@@QAEXPAK0@Z 00410710 f   cxinfo:CXINFO.obj
 0001:0000f730       ?setdbname@cXInfo@@QAEXGGGPBDH@Z 00410730 f   cxinfo:CXINFO.obj
 0001:0000f7c0       ?setmode@cXInfo@@QAEHH@Z   004107c0 f   cxinfo:CXINFO.obj
 0001:0000f7e0       ?setslot@cXInfo@@QAAXHPBDZZ 004107e0 f   cxinfo:CXINFO.obj
 0001:0000f860       ?updateslot@cXInfo@@QAA_NHPBDZZ 00410860 f   cxinfo:CXINFO.obj
 0001:0000f930       ??0bncs_disklog@@QAE@PBDW4filetype@0@000000@Z 00410930 f   bncs_disklog:bncs_disklog.obj
 0001:0000f970       ??0bncs_disklog@@QAE@PBDW4filetype@0@@Z 00410970 f   bncs_disklog:bncs_disklog.obj
 0001:0000f9a0       ??1bncs_disklog@@UAE@XZ    004109a0 f   bncs_disklog:bncs_disklog.obj
 0001:0000f9b0       ??_Ebncs_disklog@@UAEPAXI@Z 004109b0 f i bncs_disklog:bncs_disklog.obj
 0001:0000f9b0       ??_Gbncs_disklog@@UAEPAXI@Z 004109b0 f i bncs_disklog:bncs_disklog.obj
 0001:0000f9e0       ?cleanup@bncs_disklog@@AAEXXZ 004109e0 f   bncs_disklog:bncs_disklog.obj
 0001:0000fa00       ?clear@bncs_disklog@@QAEXXZ 00410a00 f   bncs_disklog:bncs_disklog.obj
 0001:0000fa30       ?createDirectory@bncs_disklog@@AAEXPBD@Z 00410a30 f   bncs_disklog:bncs_disklog.obj
 0001:0000fb30       ?initVars@bncs_disklog@@AAEXXZ 00410b30 f   bncs_disklog:bncs_disklog.obj
 0001:0000fb50       ?openLogFile@bncs_disklog@@AAEXPBDW4filetype@1@@Z 00410b50 f   bncs_disklog:bncs_disklog.obj
 0001:0000fd80       ?ref@bncs_disklog@@QAEPBDXZ 00410d80 f   bncs_disklog:bncs_disklog.obj
 0001:0000fd90       ?write@bncs_disklog@@QAEXPBD00000@Z 00410d90 f   bncs_disklog:bncs_disklog.obj
 0001:0000ffe0       ??0cBncsVersion@@QAE@PBD@Z 00410fe0 f   BncsVersionInfo:cBncsVersion.obj
 0001:00010600       ??1cBncsVersion@@UAE@XZ    00411600 f   BncsVersionInfo:cBncsVersion.obj
 0001:000106e0       ??_GcBncsVersion@@UAEPAXI@Z 004116e0 f i BncsVersionInfo:cBncsVersion.obj
 0001:000106e0       ??_EcBncsVersion@@UAEPAXI@Z 004116e0 f i BncsVersionInfo:cBncsVersion.obj
 0001:00010710       ?strpbrk@@YAPADPADPBD@Z    00411710 f i BncsVersionInfo:cBncsVersion.obj
 0001:0001071a       _setsockopt@20             0041171a f   wsock32:WSOCK32.dll
 0001:00010720       ?qDebug@@YAXPBDZZ          00411720 f   qt-mt323:qt-mt323.dll
 0001:00010726       ??0QString@@QAE@XZ         00411726 f   qt-mt323:qt-mt323.dll
 0001:0001072c       ??0QString@@QAE@ABV0@@Z    0041172c f   qt-mt323:qt-mt323.dll
 0001:00010732       ??0QString@@QAE@PBD@Z      00411732 f   qt-mt323:qt-mt323.dll
 0001:00010738       ??1QString@@QAE@XZ         00411738 f   qt-mt323:qt-mt323.dll
 0001:0001073e       ??4QString@@QAEAAV0@PBD@Z  0041173e f   qt-mt323:qt-mt323.dll
 0001:00010744       ?arg@QString@@QBE?AV1@HHH@Z 00411744 f   qt-mt323:qt-mt323.dll
 0001:0001074a       ?arg@QString@@QBE?AV1@IHH@Z 0041174a f   qt-mt323:qt-mt323.dll
 0001:00010750       ?replace@QString@@QAEAAV1@VQChar@@0@Z 00411750 f   qt-mt323:qt-mt323.dll
 0001:00010756       ?number@QString@@SA?AV1@HH@Z 00411756 f   qt-mt323:qt-mt323.dll
 0001:0001075c       ?number@QString@@SA?AV1@IH@Z 0041175c f   qt-mt323:qt-mt323.dll
 0001:00010762       ??YQString@@QAEAAV0@ABV0@@Z 00411762 f   qt-mt323:qt-mt323.dll
 0001:00010768       ??YQString@@QAEAAV0@PBD@Z  00411768 f   qt-mt323:qt-mt323.dll
 0001:0001076e       ?ascii@QString@@QBEPBDXZ   0041176e f   qt-mt323:qt-mt323.dll
 0001:00010774       ?latin1@QString@@QBEPBDXZ  00411774 f   qt-mt323:qt-mt323.dll
 0001:0001077a       ??H@YA?BVQString@@ABV0@0@Z 0041177a f   qt-mt323:qt-mt323.dll
 0001:00010780       ??H@YA?BVQString@@ABV0@PBD@Z 00411780 f   qt-mt323:qt-mt323.dll
 0001:00010786       ??H@YA?BVQString@@PBDABV0@@Z 00411786 f   qt-mt323:qt-mt323.dll
 0001:0001078c       ??0QObject@@QAE@PAV0@PBD@Z 0041178c f   qt-mt323:qt-mt323.dll
 0001:00010792       ??1QObject@@UAE@XZ         00411792 f   qt-mt323:qt-mt323.dll
 0001:00010798       ?startTimer@QObject@@QAEHH@Z 00411798 f   qt-mt323:qt-mt323.dll
 0001:0001079e       ?killTimer@QObject@@QAEXH@Z 0041179e f   qt-mt323:qt-mt323.dll
 0001:000107a4       ?toString@QDateTime@@QBE?AVQString@@W4DateFormat@Qt@@@Z 004117a4 f   qt-mt323:qt-mt323.dll
 0001:000107aa       ?checkConnectArgs@QObject@@MAE_NPBDPBV1@0@Z 004117aa f   qt-mt323:qt-mt323.dll
 0001:000107b0       ?childEvent@QObject@@MAEXPAVQChildEvent@@@Z 004117b0 f   qt-mt323:qt-mt323.dll
 0001:000107b6       ?connectNotify@QObject@@MAEXPBD@Z 004117b6 f   qt-mt323:qt-mt323.dll
 0001:000107bc       ?customEvent@QObject@@MAEXPAVQCustomEvent@@@Z 004117bc f   qt-mt323:qt-mt323.dll
 0001:000107c2       ?disconnectNotify@QObject@@MAEXPBD@Z 004117c2 f   qt-mt323:qt-mt323.dll
 0001:000107c8       ?event@QObject@@UAE_NPAVQEvent@@@Z 004117c8 f   qt-mt323:qt-mt323.dll
 0001:000107ce       ?eventFilter@QObject@@UAE_NPAV1@PAVQEvent@@@Z 004117ce f   qt-mt323:qt-mt323.dll
 0001:000107d4       ?insertChild@QObject@@UAEXPAV1@@Z 004117d4 f   qt-mt323:qt-mt323.dll
 0001:000107da       ?property@QObject@@UBE?AVQVariant@@PBD@Z 004117da f   qt-mt323:qt-mt323.dll
 0001:000107e0       ?removeChild@QObject@@UAEXPAV1@@Z 004117e0 f   qt-mt323:qt-mt323.dll
 0001:000107e6       ?setName@QObject@@UAEXPBD@Z 004117e6 f   qt-mt323:qt-mt323.dll
 0001:000107ec       ?setProperty@QObject@@UAE_NPBDABVQVariant@@@Z 004117ec f   qt-mt323:qt-mt323.dll
 0001:000107f2       ?setMainWidget@QApplication@@UAEXPAVQWidget@@@Z 004117f2 f   qt-mt323:qt-mt323.dll
 0001:000107f8       ?exec@QApplication@@QAEHXZ 004117f8 f   qt-mt323:qt-mt323.dll
 0001:000107fe       ?information@QMessageBox@@SAHPAVQWidget@@ABVQString@@1HHH@Z 004117fe f   qt-mt323:qt-mt323.dll
 0001:00010804       ?show@QMainWindow@@UAEXXZ  00411804 f   qt-mt323:qt-mt323.dll
 0001:0001080a       ?fromLatin1@QString@@SA?AV1@PBDH@Z 0041180a f   qt-mt323:qt-mt323.dll
 0001:00010810       ?fromUtf8@QString@@SA?AV1@PBDH@Z 00411810 f   qt-mt323:qt-mt323.dll
 0001:00010816       ?qt_cast@QDialog@@UAEPAXPBD@Z 00411816 f   qt-mt323:qt-mt323.dll
 0001:0001081c       ?qt_invoke@QDialog@@UAE_NHPAUQUObject@@@Z 0041181c f   qt-mt323:qt-mt323.dll
 0001:00010822       ?qt_emit@QDialog@@UAE_NHPAUQUObject@@@Z 00411822 f   qt-mt323:qt-mt323.dll
 0001:00010828       ?qt_property@QDialog@@UAE_NHHPAVQVariant@@@Z 00411828 f   qt-mt323:qt-mt323.dll
 0001:0001082e       ?staticMetaObject@QDialog@@SAPAVQMetaObject@@XZ 0041182e f   qt-mt323:qt-mt323.dll
 0001:00010834       ?new_metaobject@QMetaObject@@SAPAV1@PBDPAV1@QBUQMetaData@@H2HQBVQMetaProperty@@HQBUQMetaEnum@@HQBUQClassInfo@@H@Z 00411834 f   qt-mt323:qt-mt323.dll
 0001:0001083a       ??0QMetaObjectCleanUp@@QAE@PBDP6APAVQMetaObject@@XZ@Z 0041183a f   qt-mt323:qt-mt323.dll
 0001:00010840       ??1QMetaObjectCleanUp@@QAE@XZ 00411840 f   qt-mt323:qt-mt323.dll
 0001:00010846       ?setMetaObject@QMetaObjectCleanUp@@QAEXAAPAVQMetaObject@@@Z 00411846 f   qt-mt323:qt-mt323.dll
 0001:0001084c       ?translate@QApplication@@QBE?AVQString@@PBD00W4Encoding@1@@Z 0041184c f   qt-mt323:qt-mt323.dll
 0001:00010852       ?toInt@QString@@QBEHPA_NH@Z 00411852 f   qt-mt323:qt-mt323.dll
 0001:00010858       ?toUInt@QString@@QBEIPA_NH@Z 00411858 f   qt-mt323:qt-mt323.dll
 0001:0001085e       ?reset@QIODevice@@QAE_NXZ  0041185e f   qt-mt323:qt-mt323.dll
 0001:00010864       ??A?$QValueList@VQString@@@@QAEAAVQString@@I@Z 00411864 f   qt-mt323:qt-mt323.dll
 0001:0001086a       ?connect@QObject@@SA_NPBV1@PBD01@Z 0041186a f   qt-mt323:qt-mt323.dll
 0001:00010870       ??0QHostAddress@@QAE@XZ    00411870 f   qt-mt323:qt-mt323.dll
 0001:00010876       ??0QHostAddress@@QAE@I@Z   00411876 f   qt-mt323:qt-mt323.dll
 0001:0001087c       ??1QHostAddress@@UAE@XZ    0041187c f   qt-mt323:qt-mt323.dll
 0001:00010882       ?setAddress@QHostAddress@@QAE_NABVQString@@@Z 00411882 f   qt-mt323:qt-mt323.dll
 0001:00010888       ?toString@QHostAddress@@QBE?AVQString@@XZ 00411888 f   qt-mt323:qt-mt323.dll
 0001:0001088e       ??0QSocketDevice@@QAE@W4Type@0@@Z 0041188e f   qt-mt323:qt-mt323.dll
 0001:00010894       ??1QSocketDevice@@UAE@XZ   00411894 f   qt-mt323:qt-mt323.dll
 0001:0001089a       ?isValid@QSocketDevice@@QBE_NXZ 0041189a f   qt-mt323:qt-mt323.dll
 0001:000108a0       ?socket@QSocketDevice@@QBEHXZ 004118a0 f   qt-mt323:qt-mt323.dll
 0001:000108a6       ?peerAddress@QSocketDevice@@QBE?AVQHostAddress@@XZ 004118a6 f   qt-mt323:qt-mt323.dll
 0001:000108ac       ?error@QSocketDevice@@QBE?AW4Error@1@XZ 004118ac f   qt-mt323:qt-mt323.dll
 0001:000108b2       ??0QSocketNotifier@@QAE@HW4Type@0@PAVQObject@@PBD@Z 004118b2 f   qt-mt323:qt-mt323.dll
 0001:000108b8       ??1QSocketNotifier@@UAE@XZ 004118b8 f   qt-mt323:qt-mt323.dll
 0001:000108be       ?split@QStringList@@SA?AV1@ABVQString@@0_N@Z 004118be f   qt-mt323:qt-mt323.dll
 0001:000108c4       ??1QStringList@@QAE@XZ     004118c4 f   qt-mt323:qt-mt323.dll
 0001:000108ca       ?setTime_t@QDateTime@@QAEXI@Z 004118ca f   qt-mt323:qt-mt323.dll
 0001:000108d0       ?accept@QSocketDevice@@UAEHXZ 004118d0 f   qt-mt323:qt-mt323.dll
 0001:000108d6       ?at@QSocketDevice@@UAE_NK@Z 004118d6 f   qt-mt323:qt-mt323.dll
 0001:000108dc       ?at@QSocketDevice@@UBEKXZ  004118dc f   qt-mt323:qt-mt323.dll
 0001:000108e2       ?atEnd@QSocketDevice@@UBE_NXZ 004118e2 f   qt-mt323:qt-mt323.dll
 0001:000108e8       ?bind@QSocketDevice@@UAE_NABVQHostAddress@@G@Z 004118e8 f   qt-mt323:qt-mt323.dll
 0001:000108ee       ?className@QSocketNotifier@@UBEPBDXZ 004118ee f   qt-mt323:qt-mt323.dll
 0001:000108f4       ?close@QSocketDevice@@UAEXXZ 004118f4 f   qt-mt323:qt-mt323.dll
 0001:000108fa       ?connect@QSocketDevice@@UAE_NABVQHostAddress@@G@Z 004118fa f   qt-mt323:qt-mt323.dll
 0001:00010900       ?event@QSocketNotifier@@MAE_NPAVQEvent@@@Z 00411900 f   qt-mt323:qt-mt323.dll
 0001:00010906       ?flush@QSocketDevice@@UAEXXZ 00411906 f   qt-mt323:qt-mt323.dll
 0001:0001090c       ?getch@QSocketDevice@@UAEHXZ 0041190c f   qt-mt323:qt-mt323.dll
 0001:00010912       ?listen@QSocketDevice@@UAE_NH@Z 00411912 f   qt-mt323:qt-mt323.dll
 0001:00010918       ?metaObject@QSocketNotifier@@UBEPAVQMetaObject@@XZ 00411918 f   qt-mt323:qt-mt323.dll
 0001:0001091e       ?open@QSocketDevice@@UAE_NH@Z 0041191e f   qt-mt323:qt-mt323.dll
 0001:00010924       ?putch@QSocketDevice@@UAEHH@Z 00411924 f   qt-mt323:qt-mt323.dll
 0001:0001092a       ?qt_cast@QSocketNotifier@@UAEPAXPBD@Z 0041192a f   qt-mt323:qt-mt323.dll
 0001:00010930       ?qt_emit@QSocketNotifier@@UAE_NHPAUQUObject@@@Z 00411930 f   qt-mt323:qt-mt323.dll
 0001:00010936       ?qt_invoke@QSocketNotifier@@UAE_NHPAUQUObject@@@Z 00411936 f   qt-mt323:qt-mt323.dll
 0001:0001093c       ?qt_property@QSocketNotifier@@UAE_NHHPAVQVariant@@@Z 0041193c f   qt-mt323:qt-mt323.dll
 0001:00010942       ?readAll@QIODevice@@UAE?AV?$QMemArray@D@@XZ 00411942 f   qt-mt323:qt-mt323.dll
 0001:00010948       ?readBlock@QSocketDevice@@UAEJPADK@Z 00411948 f   qt-mt323:qt-mt323.dll
 0001:0001094e       ?readLine@QIODevice@@UAEJPADK@Z 0041194e f   qt-mt323:qt-mt323.dll
 0001:00010954       ?setAddressReusable@QSocketDevice@@UAEX_N@Z 00411954 f   qt-mt323:qt-mt323.dll
 0001:0001095a       ?setBlocking@QSocketDevice@@UAEX_N@Z 0041195a f   qt-mt323:qt-mt323.dll
 0001:00010960       ?setEnabled@QSocketNotifier@@UAEX_N@Z 00411960 f   qt-mt323:qt-mt323.dll
 0001:00010966       ?setOption@QSocketDevice@@EAEXW4Option@1@H@Z 00411966 f   qt-mt323:qt-mt323.dll
 0001:0001096c       ?setReceiveBufferSize@QSocketDevice@@UAEXI@Z 0041196c f   qt-mt323:qt-mt323.dll
 0001:00010972       ?setSendBufferSize@QSocketDevice@@UAEXI@Z 00411972 f   qt-mt323:qt-mt323.dll
 0001:00010978       ?setSocket@QSocketDevice@@UAEXHW4Type@1@@Z 00411978 f   qt-mt323:qt-mt323.dll
 0001:0001097e       ?size@QSocketDevice@@UBEKXZ 0041197e f   qt-mt323:qt-mt323.dll
 0001:00010984       ?timerEvent@QObject@@MAEXPAVQTimerEvent@@@Z 00411984 f   qt-mt323:qt-mt323.dll
 0001:0001098a       ?ungetch@QSocketDevice@@UAEHH@Z 0041198a f   qt-mt323:qt-mt323.dll
 0001:00010990       ?writeBlock@QSocketDevice@@UAEJPBDK@Z 00411990 f   qt-mt323:qt-mt323.dll
 0001:00010996       ?writeBlock@QSocketDevice@@UAEJPBDKABVQHostAddress@@G@Z 00411996 f   qt-mt323:qt-mt323.dll
 0001:0001099c       ?setName@QWidget@@UAEXPBD@Z 0041199c f   qt-mt323:qt-mt323.dll
 0001:000109a2       ??0QDialog@@QAE@PAVQWidget@@PBD_NI@Z 004119a2 f   qt-mt323:qt-mt323.dll
 0001:000109a8       ??1QDialog@@UAE@XZ         004119a8 f   qt-mt323:qt-mt323.dll
 0001:000109ae       ?resize@QDialog@@QAEXABVQSize@@@Z 004119ae f   qt-mt323:qt-mt323.dll
 0001:000109b4       ?minimumSizeHint@QDialog@@UBE?AVQSize@@XZ 004119b4 f   qt-mt323:qt-mt323.dll
 0001:000109ba       ?setSizeGripEnabled@QDialog@@QAEX_N@Z 004119ba f   qt-mt323:qt-mt323.dll
 0001:000109c0       ?setModal@QDialog@@QAEX_N@Z 004119c0 f   qt-mt323:qt-mt323.dll
 0001:000109c6       ??0QKeySequence@@QAE@ABVQString@@@Z 004119c6 f   qt-mt323:qt-mt323.dll
 0001:000109cc       ??1QKeySequence@@QAE@XZ    004119cc f   qt-mt323:qt-mt323.dll
 0001:000109d2       ??1QButton@@UAE@XZ         004119d2 f   qt-mt323:qt-mt323.dll
 0001:000109d8       ??0QPushButton@@QAE@PAVQWidget@@PBD@Z 004119d8 f   qt-mt323:qt-mt323.dll
 0001:000109de       ??1QPushButton@@UAE@XZ     004119de f   qt-mt323:qt-mt323.dll
 0001:000109e4       ??0QLabel@@QAE@PAVQWidget@@PBDI@Z 004119e4 f   qt-mt323:qt-mt323.dll
 0001:000109ea       ??1QLabel@@UAE@XZ          004119ea f   qt-mt323:qt-mt323.dll
 0001:000109f0       ??0QSpinBox@@QAE@PAVQWidget@@PBD@Z 004119f0 f   qt-mt323:qt-mt323.dll
 0001:000109f6       ??1QSpinBox@@UAE@XZ        004119f6 f   qt-mt323:qt-mt323.dll
 0001:000109fc       ?setMinValue@QSpinBox@@QAEXH@Z 004119fc f   qt-mt323:qt-mt323.dll
 0001:00010a02       ?setMaxValue@QSpinBox@@QAEXH@Z 00411a02 f   qt-mt323:qt-mt323.dll
 0001:00010a08       ??0QCheckBox@@QAE@PAVQWidget@@PBD@Z 00411a08 f   qt-mt323:qt-mt323.dll
 0001:00010a0e       ??1QLayoutItem@@UAE@XZ     00411a0e f   qt-mt323:qt-mt323.dll
 0001:00010a14       ?setResizeMode@QLayout@@QAEXW4ResizeMode@1@@Z 00411a14 f   qt-mt323:qt-mt323.dll
 0001:00010a1a       ?addWidget@QBoxLayout@@QAEXPAVQWidget@@HH@Z 00411a1a f   qt-mt323:qt-mt323.dll
 0001:00010a20       ?addLayout@QBoxLayout@@QAEXPAVQLayout@@H@Z 00411a20 f   qt-mt323:qt-mt323.dll
 0001:00010a26       ??0QHBoxLayout@@QAE@PAVQWidget@@HHPBD@Z 00411a26 f   qt-mt323:qt-mt323.dll
 0001:00010a2c       ??1QHBoxLayout@@UAE@XZ     00411a2c f   qt-mt323:qt-mt323.dll
 0001:00010a32       ??0QVBoxLayout@@QAE@PAVQWidget@@HHPBD@Z 00411a32 f   qt-mt323:qt-mt323.dll
 0001:00010a38       ??1QVBoxLayout@@UAE@XZ     00411a38 f   qt-mt323:qt-mt323.dll
 0001:00010a3e       ?add@QWhatsThis@@SAXPAVQWidget@@ABVQString@@@Z 00411a3e f   qt-mt323:qt-mt323.dll
 0001:00010a44       ?accept@QDialog@@MAEXXZ    00411a44 f   qt-mt323:qt-mt323.dll
 0001:00010a4a       ?addItem@QBoxLayout@@UAEXPAVQLayoutItem@@@Z 00411a4a f   qt-mt323:qt-mt323.dll
 0001:00010a50       ?adjustSize@QWidget@@UAEXXZ 00411a50 f   qt-mt323:qt-mt323.dll
 0001:00010a56       ?childEvent@QLayout@@MAEXPAVQChildEvent@@@Z 00411a56 f   qt-mt323:qt-mt323.dll
 0001:00010a5c       ?className@QCheckBox@@UBEPBDXZ 00411a5c f   qt-mt323:qt-mt323.dll
 0001:00010a62       ?className@QHBoxLayout@@UBEPBDXZ 00411a62 f   qt-mt323:qt-mt323.dll
 0001:00010a68       ?className@QLabel@@UBEPBDXZ 00411a68 f   qt-mt323:qt-mt323.dll
 0001:00010a6e       ?className@QPushButton@@UBEPBDXZ 00411a6e f   qt-mt323:qt-mt323.dll
 0001:00010a74       ?className@QSpinBox@@UBEPBDXZ 00411a74 f   qt-mt323:qt-mt323.dll
 0001:00010a7a       ?className@QVBoxLayout@@UBEPBDXZ 00411a7a f   qt-mt323:qt-mt323.dll
 0001:00010a80       ?cleanText@QSpinBox@@UBE?AVQString@@XZ 00411a80 f   qt-mt323:qt-mt323.dll
 0001:00010a86       ?close@QWidget@@UAE_N_N@Z  00411a86 f   qt-mt323:qt-mt323.dll
 0001:00010a8c       ?closeEvent@QDialog@@MAEXPAVQCloseEvent@@@Z 00411a8c f   qt-mt323:qt-mt323.dll
 0001:00010a92       ?closeEvent@QWidget@@MAEXPAVQCloseEvent@@@Z 00411a92 f   qt-mt323:qt-mt323.dll
 0001:00010a98       ?cmd@QPaintDevice@@MAE_NHPAVQPainter@@PATQPDevCmdParam@@@Z 00411a98 f   qt-mt323:qt-mt323.dll
 0001:00010a9e       ?contextMenuEvent@QDialog@@MAEXPAVQContextMenuEvent@@@Z 00411a9e f   qt-mt323:qt-mt323.dll
 0001:00010aa4       ?contextMenuEvent@QWidget@@MAEXPAVQContextMenuEvent@@@Z 00411aa4 f   qt-mt323:qt-mt323.dll
 0001:00010aaa       ?create@QWidget@@MAEXPAUHWND__@@_N1@Z 00411aaa f   qt-mt323:qt-mt323.dll
 0001:00010ab0       ?customWhatsThis@QWidget@@UBE_NXZ 00411ab0 f   qt-mt323:qt-mt323.dll
 0001:00010ab6       ?destroy@QWidget@@MAEX_N0@Z 00411ab6 f   qt-mt323:qt-mt323.dll
 0001:00010abc       ?done@QDialog@@MAEXH@Z     00411abc f   qt-mt323:qt-mt323.dll
 0001:00010ac2       ?dragEnterEvent@QWidget@@MAEXPAVQDragEnterEvent@@@Z 00411ac2 f   qt-mt323:qt-mt323.dll
 0001:00010ac8       ?dragLeaveEvent@QWidget@@MAEXPAVQDragLeaveEvent@@@Z 00411ac8 f   qt-mt323:qt-mt323.dll
 0001:00010ace       ?dragMoveEvent@QWidget@@MAEXPAVQDragMoveEvent@@@Z 00411ace f   qt-mt323:qt-mt323.dll
 0001:00010ad4       ?drawButton@QCheckBox@@MAEXPAVQPainter@@@Z 00411ad4 f   qt-mt323:qt-mt323.dll
 0001:00010ada       ?drawButton@QPushButton@@MAEXPAVQPainter@@@Z 00411ada f   qt-mt323:qt-mt323.dll
 0001:00010ae0       ?drawButtonLabel@QCheckBox@@MAEXPAVQPainter@@@Z 00411ae0 f   qt-mt323:qt-mt323.dll
 0001:00010ae6       ?drawButtonLabel@QPushButton@@MAEXPAVQPainter@@@Z 00411ae6 f   qt-mt323:qt-mt323.dll
 0001:00010aec       ?drawContents@QLabel@@MAEXPAVQPainter@@@Z 00411aec f   qt-mt323:qt-mt323.dll
 0001:00010af2       ?drawFrame@QFrame@@MAEXPAVQPainter@@@Z 00411af2 f   qt-mt323:qt-mt323.dll
 0001:00010af8       ?dropEvent@QWidget@@MAEXPAVQDropEvent@@@Z 00411af8 f   qt-mt323:qt-mt323.dll
 0001:00010afe       ?enabledChange@QButton@@MAEX_N@Z 00411afe f   qt-mt323:qt-mt323.dll
 0001:00010b04       ?enabledChange@QWidget@@MAEX_N@Z 00411b04 f   qt-mt323:qt-mt323.dll
 0001:00010b0a       ?enterEvent@QWidget@@MAEXPAVQEvent@@@Z 00411b0a f   qt-mt323:qt-mt323.dll
 0001:00010b10       ?event@QWidget@@MAE_NPAVQEvent@@@Z 00411b10 f   qt-mt323:qt-mt323.dll
 0001:00010b16       ?eventFilter@QDialog@@MAE_NPAVQObject@@PAVQEvent@@@Z 00411b16 f   qt-mt323:qt-mt323.dll
 0001:00010b1c       ?eventFilter@QLayout@@MAE_NPAVQObject@@PAVQEvent@@@Z 00411b1c f   qt-mt323:qt-mt323.dll
 0001:00010b22       ?eventFilter@QSpinBox@@MAE_NPAVQObject@@PAVQEvent@@@Z 00411b22 f   qt-mt323:qt-mt323.dll
 0001:00010b28       ?expanding@QBoxLayout@@UBE?AW4ExpandData@QSizePolicy@@XZ 00411b28 f   qt-mt323:qt-mt323.dll
 0001:00010b2e       ?expanding@QSpacerItem@@UBE?AW4ExpandData@QSizePolicy@@XZ 00411b2e f   qt-mt323:qt-mt323.dll
 0001:00010b34       ?focusInEvent@QButton@@MAEXPAVQFocusEvent@@@Z 00411b34 f   qt-mt323:qt-mt323.dll
 0001:00010b3a       ?focusInEvent@QPushButton@@MAEXPAVQFocusEvent@@@Z 00411b3a f   qt-mt323:qt-mt323.dll
 0001:00010b40       ?focusInEvent@QWidget@@MAEXPAVQFocusEvent@@@Z 00411b40 f   qt-mt323:qt-mt323.dll
 0001:00010b46       ?focusNextPrevChild@QWidget@@MAE_N_N@Z 00411b46 f   qt-mt323:qt-mt323.dll
 0001:00010b4c       ?focusOutEvent@QButton@@MAEXPAVQFocusEvent@@@Z 00411b4c f   qt-mt323:qt-mt323.dll
 0001:00010b52       ?focusOutEvent@QPushButton@@MAEXPAVQFocusEvent@@@Z 00411b52 f   qt-mt323:qt-mt323.dll
 0001:00010b58       ?focusOutEvent@QWidget@@MAEXPAVQFocusEvent@@@Z 00411b58 f   qt-mt323:qt-mt323.dll
 0001:00010b5e       ?fontChange@QLabel@@MAEXABVQFont@@@Z 00411b5e f   qt-mt323:qt-mt323.dll
 0001:00010b64       ?fontChange@QWidget@@MAEXABVQFont@@@Z 00411b64 f   qt-mt323:qt-mt323.dll
 0001:00010b6a       ?fontInf@QPaintDevice@@MBEHPAVQFont@@H@Z 00411b6a f   qt-mt323:qt-mt323.dll
 0001:00010b70       ?fontMet@QPaintDevice@@MBEHPAVQFont@@HPBDH@Z 00411b70 f   qt-mt323:qt-mt323.dll
 0001:00010b76       ?frameChanged@QFrame@@MAEXXZ 00411b76 f   qt-mt323:qt-mt323.dll
 0001:00010b7c       ?geometry@QLayout@@UBE?AVQRect@@XZ 00411b7c f   qt-mt323:qt-mt323.dll
 0001:00010b82       ?geometry@QSpacerItem@@UBE?AVQRect@@XZ 00411b82 f   qt-mt323:qt-mt323.dll
 0001:00010b88       ?handle@QPaintDevice@@UBEPAUHDC__@@XZ 00411b88 f   qt-mt323:qt-mt323.dll
 0001:00010b8e       ?hasHeightForWidth@QBoxLayout@@UBE_NXZ 00411b8e f   qt-mt323:qt-mt323.dll
 0001:00010b94       ?hasHeightForWidth@QLayoutItem@@UBE_NXZ 00411b94 f   qt-mt323:qt-mt323.dll
 0001:00010b9a       ?heightForWidth@QBoxLayout@@UBEHH@Z 00411b9a f   qt-mt323:qt-mt323.dll
 0001:00010ba0       ?heightForWidth@QLabel@@UBEHH@Z 00411ba0 f   qt-mt323:qt-mt323.dll
 0001:00010ba6       ?heightForWidth@QLayoutItem@@UBEHH@Z 00411ba6 f   qt-mt323:qt-mt323.dll
 0001:00010bac       ?heightForWidth@QWidget@@UBEHH@Z 00411bac f   qt-mt323:qt-mt323.dll
 0001:00010bb2       ?hide@QDialog@@UAEXXZ      00411bb2 f   qt-mt323:qt-mt323.dll
 0001:00010bb8       ?hide@QWidget@@UAEXXZ      00411bb8 f   qt-mt323:qt-mt323.dll
 0001:00010bbe       ?hideEvent@QWidget@@MAEXPAVQHideEvent@@@Z 00411bbe f   qt-mt323:qt-mt323.dll
 0001:00010bc4       ?hitButton@QButton@@MBE_NABVQPoint@@@Z 00411bc4 f   qt-mt323:qt-mt323.dll
 0001:00010bca       ?hitButton@QCheckBox@@MBE_NABVQPoint@@@Z 00411bca f   qt-mt323:qt-mt323.dll
 0001:00010bd0       ?imComposeEvent@QWidget@@MAEXPAVQIMEvent@@@Z 00411bd0 f   qt-mt323:qt-mt323.dll
 0001:00010bd6       ?imEndEvent@QWidget@@MAEXPAVQIMEvent@@@Z 00411bd6 f   qt-mt323:qt-mt323.dll
 0001:00010bdc       ?imStartEvent@QWidget@@MAEXPAVQIMEvent@@@Z 00411bdc f   qt-mt323:qt-mt323.dll
 0001:00010be2       ?interpretText@QSpinBox@@MAEXXZ 00411be2 f   qt-mt323:qt-mt323.dll
 0001:00010be8       ?invalidate@QBoxLayout@@UAEXXZ 00411be8 f   qt-mt323:qt-mt323.dll
 0001:00010bee       ?invalidate@QLayoutItem@@UAEXXZ 00411bee f   qt-mt323:qt-mt323.dll
 0001:00010bf4       ?isEmpty@QLayout@@UBE_NXZ  00411bf4 f   qt-mt323:qt-mt323.dll
 0001:00010bfa       ?isEmpty@QSpacerItem@@UBE_NXZ 00411bfa f   qt-mt323:qt-mt323.dll
 0001:00010c00       ?iterator@QBoxLayout@@UAE?AVQLayoutIterator@@XZ 00411c00 f   qt-mt323:qt-mt323.dll
 0001:00010c06       ?iterator@QLayoutItem@@UAE?AVQLayoutIterator@@XZ 00411c06 f   qt-mt323:qt-mt323.dll
 0001:00010c0c       ?keyPressEvent@QButton@@MAEXPAVQKeyEvent@@@Z 00411c0c f   qt-mt323:qt-mt323.dll
 0001:00010c12       ?keyPressEvent@QDialog@@MAEXPAVQKeyEvent@@@Z 00411c12 f   qt-mt323:qt-mt323.dll
 0001:00010c18       ?keyPressEvent@QWidget@@MAEXPAVQKeyEvent@@@Z 00411c18 f   qt-mt323:qt-mt323.dll
 0001:00010c1e       ?keyReleaseEvent@QButton@@MAEXPAVQKeyEvent@@@Z 00411c1e f   qt-mt323:qt-mt323.dll
 0001:00010c24       ?keyReleaseEvent@QWidget@@MAEXPAVQKeyEvent@@@Z 00411c24 f   qt-mt323:qt-mt323.dll
 0001:00010c2a       ?layout@QLayout@@UAEPAV1@XZ 00411c2a f   qt-mt323:qt-mt323.dll
 0001:00010c30       ?layout@QLayoutItem@@UAEPAVQLayout@@XZ 00411c30 f   qt-mt323:qt-mt323.dll
 0001:00010c36       ?leaveEvent@QSpinBox@@MAEXPAVQEvent@@@Z 00411c36 f   qt-mt323:qt-mt323.dll
 0001:00010c3c       ?leaveEvent@QWidget@@MAEXPAVQEvent@@@Z 00411c3c f   qt-mt323:qt-mt323.dll
 0001:00010c42       ?mapTextToValue@QSpinBox@@MAEHPA_N@Z 00411c42 f   qt-mt323:qt-mt323.dll
 0001:00010c48       ?mapValueToText@QSpinBox@@MAE?AVQString@@H@Z 00411c48 f   qt-mt323:qt-mt323.dll
 0001:00010c4e       ?maximumSize@QBoxLayout@@UBE?AVQSize@@XZ 00411c4e f   qt-mt323:qt-mt323.dll
 0001:00010c54       ?maximumSize@QSpacerItem@@UBE?AVQSize@@XZ 00411c54 f   qt-mt323:qt-mt323.dll
 0001:00010c5a       ?metaObject@QCheckBox@@UBEPAVQMetaObject@@XZ 00411c5a f   qt-mt323:qt-mt323.dll
 0001:00010c60       ?metaObject@QHBoxLayout@@UBEPAVQMetaObject@@XZ 00411c60 f   qt-mt323:qt-mt323.dll
 0001:00010c66       ?metaObject@QLabel@@UBEPAVQMetaObject@@XZ 00411c66 f   qt-mt323:qt-mt323.dll
 0001:00010c6c       ?metaObject@QPushButton@@UBEPAVQMetaObject@@XZ 00411c6c f   qt-mt323:qt-mt323.dll
 0001:00010c72       ?metaObject@QSpinBox@@UBEPAVQMetaObject@@XZ 00411c72 f   qt-mt323:qt-mt323.dll
 0001:00010c78       ?metaObject@QVBoxLayout@@UBEPAVQMetaObject@@XZ 00411c78 f   qt-mt323:qt-mt323.dll
 0001:00010c7e       ?metric@QWidget@@MBEHH@Z   00411c7e f   qt-mt323:qt-mt323.dll
 0001:00010c84       ?minimumSize@QBoxLayout@@UBE?AVQSize@@XZ 00411c84 f   qt-mt323:qt-mt323.dll
 0001:00010c8a       ?minimumSize@QSpacerItem@@UBE?AVQSize@@XZ 00411c8a f   qt-mt323:qt-mt323.dll
 0001:00010c90       ?minimumSizeHint@QLabel@@UBE?AVQSize@@XZ 00411c90 f   qt-mt323:qt-mt323.dll
 0001:00010c96       ?minimumSizeHint@QSpinBox@@UBE?AVQSize@@XZ 00411c96 f   qt-mt323:qt-mt323.dll
 0001:00010c9c       ?minimumSizeHint@QWidget@@UBE?AVQSize@@XZ 00411c9c f   qt-mt323:qt-mt323.dll
 0001:00010ca2       ?mouseDoubleClickEvent@QWidget@@MAEXPAVQMouseEvent@@@Z 00411ca2 f   qt-mt323:qt-mt323.dll
 0001:00010ca8       ?mouseMoveEvent@QButton@@MAEXPAVQMouseEvent@@@Z 00411ca8 f   qt-mt323:qt-mt323.dll
 0001:00010cae       ?mouseMoveEvent@QWidget@@MAEXPAVQMouseEvent@@@Z 00411cae f   qt-mt323:qt-mt323.dll
 0001:00010cb4       ?mousePressEvent@QButton@@MAEXPAVQMouseEvent@@@Z 00411cb4 f   qt-mt323:qt-mt323.dll
 0001:00010cba       ?mousePressEvent@QWidget@@MAEXPAVQMouseEvent@@@Z 00411cba f   qt-mt323:qt-mt323.dll
 0001:00010cc0       ?mouseReleaseEvent@QButton@@MAEXPAVQMouseEvent@@@Z 00411cc0 f   qt-mt323:qt-mt323.dll
 0001:00010cc6       ?mouseReleaseEvent@QWidget@@MAEXPAVQMouseEvent@@@Z 00411cc6 f   qt-mt323:qt-mt323.dll
 0001:00010ccc       ?move@QDialog@@UAEXHH@Z    00411ccc f   qt-mt323:qt-mt323.dll
 0001:00010cd2       ?move@QPushButton@@UAEXHH@Z 00411cd2 f   qt-mt323:qt-mt323.dll
 0001:00010cd8       ?move@QWidget@@UAEXHH@Z    00411cd8 f   qt-mt323:qt-mt323.dll
 0001:00010cde       ?moveEvent@QWidget@@MAEXPAVQMoveEvent@@@Z 00411cde f   qt-mt323:qt-mt323.dll
 0001:00010ce4       ?paintEvent@QButton@@MAEXPAVQPaintEvent@@@Z 00411ce4 f   qt-mt323:qt-mt323.dll
 0001:00010cea       ?paintEvent@QFrame@@MAEXPAVQPaintEvent@@@Z 00411cea f   qt-mt323:qt-mt323.dll
 0001:00010cf0       ?paintEvent@QWidget@@MAEXPAVQPaintEvent@@@Z 00411cf0 f   qt-mt323:qt-mt323.dll
 0001:00010cf6       ?paletteChange@QWidget@@MAEXABVQPalette@@@Z 00411cf6 f   qt-mt323:qt-mt323.dll
 0001:00010cfc       ?polish@QWidget@@UAEXXZ    00411cfc f   qt-mt323:qt-mt323.dll
 0001:00010d02       ?prefix@QSpinBox@@UBE?AVQString@@XZ 00411d02 f   qt-mt323:qt-mt323.dll
 0001:00010d08       ?qt_cast@QCheckBox@@UAEPAXPBD@Z 00411d08 f   qt-mt323:qt-mt323.dll
 0001:00010d0e       ?qt_cast@QHBoxLayout@@UAEPAXPBD@Z 00411d0e f   qt-mt323:qt-mt323.dll
 0001:00010d14       ?qt_cast@QLabel@@UAEPAXPBD@Z 00411d14 f   qt-mt323:qt-mt323.dll
 0001:00010d1a       ?qt_cast@QPushButton@@UAEPAXPBD@Z 00411d1a f   qt-mt323:qt-mt323.dll
 0001:00010d20       ?qt_cast@QSpinBox@@UAEPAXPBD@Z 00411d20 f   qt-mt323:qt-mt323.dll
 0001:00010d26       ?qt_cast@QVBoxLayout@@UAEPAXPBD@Z 00411d26 f   qt-mt323:qt-mt323.dll
 0001:00010d2c       ?qt_emit@QCheckBox@@UAE_NHPAUQUObject@@@Z 00411d2c f   qt-mt323:qt-mt323.dll
 0001:00010d32       ?qt_emit@QHBoxLayout@@UAE_NHPAUQUObject@@@Z 00411d32 f   qt-mt323:qt-mt323.dll
 0001:00010d38       ?qt_emit@QLabel@@UAE_NHPAUQUObject@@@Z 00411d38 f   qt-mt323:qt-mt323.dll
 0001:00010d3e       ?qt_emit@QPushButton@@UAE_NHPAUQUObject@@@Z 00411d3e f   qt-mt323:qt-mt323.dll
 0001:00010d44       ?qt_emit@QSpinBox@@UAE_NHPAUQUObject@@@Z 00411d44 f   qt-mt323:qt-mt323.dll
 0001:00010d4a       ?qt_emit@QVBoxLayout@@UAE_NHPAUQUObject@@@Z 00411d4a f   qt-mt323:qt-mt323.dll
 0001:00010d50       ?qt_invoke@QCheckBox@@UAE_NHPAUQUObject@@@Z 00411d50 f   qt-mt323:qt-mt323.dll
 0001:00010d56       ?qt_invoke@QHBoxLayout@@UAE_NHPAUQUObject@@@Z 00411d56 f   qt-mt323:qt-mt323.dll
 0001:00010d5c       ?qt_invoke@QLabel@@UAE_NHPAUQUObject@@@Z 00411d5c f   qt-mt323:qt-mt323.dll
 0001:00010d62       ?qt_invoke@QPushButton@@UAE_NHPAUQUObject@@@Z 00411d62 f   qt-mt323:qt-mt323.dll
 0001:00010d68       ?qt_invoke@QSpinBox@@UAE_NHPAUQUObject@@@Z 00411d68 f   qt-mt323:qt-mt323.dll
 0001:00010d6e       ?qt_invoke@QVBoxLayout@@UAE_NHPAUQUObject@@@Z 00411d6e f   qt-mt323:qt-mt323.dll
 0001:00010d74       ?qt_property@QCheckBox@@UAE_NHHPAVQVariant@@@Z 00411d74 f   qt-mt323:qt-mt323.dll
 0001:00010d7a       ?qt_property@QHBoxLayout@@UAE_NHHPAVQVariant@@@Z 00411d7a f   qt-mt323:qt-mt323.dll
 0001:00010d80       ?qt_property@QLabel@@UAE_NHHPAVQVariant@@@Z 00411d80 f   qt-mt323:qt-mt323.dll
 0001:00010d86       ?qt_property@QPushButton@@UAE_NHHPAVQVariant@@@Z 00411d86 f   qt-mt323:qt-mt323.dll
 0001:00010d8c       ?qt_property@QSpinBox@@UAE_NHHPAVQVariant@@@Z 00411d8c f   qt-mt323:qt-mt323.dll
 0001:00010d92       ?qt_property@QVBoxLayout@@UAE_NHHPAVQVariant@@@Z 00411d92 f   qt-mt323:qt-mt323.dll
 0001:00010d98       ?rangeChange@QSpinBox@@MAEXXZ 00411d98 f   qt-mt323:qt-mt323.dll
 0001:00010d9e       ?reject@QDialog@@MAEXXZ    00411d9e f   qt-mt323:qt-mt323.dll
 0001:00010da4       ?reparent@QWidget@@UAEXPAV1@IABVQPoint@@_N@Z 00411da4 f   qt-mt323:qt-mt323.dll
 0001:00010daa       ?resize@QDialog@@UAEXHH@Z  00411daa f   qt-mt323:qt-mt323.dll
 0001:00010db0       ?resize@QPushButton@@UAEXHH@Z 00411db0 f   qt-mt323:qt-mt323.dll
 0001:00010db6       ?resize@QWidget@@UAEXHH@Z  00411db6 f   qt-mt323:qt-mt323.dll
 0001:00010dbc       ?resizeEvent@QCheckBox@@MAEXPAVQResizeEvent@@@Z 00411dbc f   qt-mt323:qt-mt323.dll
 0001:00010dc2       ?resizeEvent@QDialog@@MAEXPAVQResizeEvent@@@Z 00411dc2 f   qt-mt323:qt-mt323.dll
 0001:00010dc8       ?resizeEvent@QLabel@@MAEXPAVQResizeEvent@@@Z 00411dc8 f   qt-mt323:qt-mt323.dll
 0001:00010dce       ?resizeEvent@QPushButton@@MAEXPAVQResizeEvent@@@Z 00411dce f   qt-mt323:qt-mt323.dll
 0001:00010dd4       ?resizeEvent@QSpinBox@@MAEXPAVQResizeEvent@@@Z 00411dd4 f   qt-mt323:qt-mt323.dll
 0001:00010dda       ?resolution@QPaintDevice@@UBEHXZ 00411dda f   qt-mt323:qt-mt323.dll
 0001:00010de0       ?selectAll@QSpinBox@@UAEXXZ 00411de0 f   qt-mt323:qt-mt323.dll
 0001:00010de6       ?setAccel@QButton@@UAEXABVQKeySequence@@@Z 00411de6 f   qt-mt323:qt-mt323.dll
 0001:00010dec       ?setAcceptDrops@QWidget@@UAEX_N@Z 00411dec f   qt-mt323:qt-mt323.dll
 0001:00010df2       ?setActiveWindow@QWidget@@UAEXXZ 00411df2 f   qt-mt323:qt-mt323.dll
 0001:00010df8       ?setAlignment@QLabel@@UAEXH@Z 00411df8 f   qt-mt323:qt-mt323.dll
 0001:00010dfe       ?setAlignment@QLayoutItem@@UAEXH@Z 00411dfe f   qt-mt323:qt-mt323.dll
 0001:00010e04       ?setAutoAdd@QLayout@@UAEX_N@Z 00411e04 f   qt-mt323:qt-mt323.dll
 0001:00010e0a       ?setAutoDefault@QPushButton@@UAEX_N@Z 00411e0a f   qt-mt323:qt-mt323.dll
 0001:00010e10       ?setAutoMask@QWidget@@UAEX_N@Z 00411e10 f   qt-mt323:qt-mt323.dll
 0001:00010e16       ?setAutoRepeat@QButton@@UAEX_N@Z 00411e16 f   qt-mt323:qt-mt323.dll
 0001:00010e1c       ?setAutoResize@QLabel@@UAEX_N@Z 00411e1c f   qt-mt323:qt-mt323.dll
 0001:00010e22       ?setBackgroundColor@QWidget@@UAEXABVQColor@@@Z 00411e22 f   qt-mt323:qt-mt323.dll
 0001:00010e28       ?setBackgroundMode@QWidget@@UAEXW4BackgroundMode@Qt@@@Z 00411e28 f   qt-mt323:qt-mt323.dll
 0001:00010e2e       ?setBackgroundOrigin@QWidget@@UAEXW4BackgroundOrigin@1@@Z 00411e2e f   qt-mt323:qt-mt323.dll
 0001:00010e34       ?setBackgroundPixmap@QWidget@@UAEXABVQPixmap@@@Z 00411e34 f   qt-mt323:qt-mt323.dll
 0001:00010e3a       ?setBuddy@QLabel@@UAEXPAVQWidget@@@Z 00411e3a f   qt-mt323:qt-mt323.dll
 0001:00010e40       ?setButtonSymbols@QSpinBox@@UAEXW4ButtonSymbols@1@@Z 00411e40 f   qt-mt323:qt-mt323.dll
 0001:00010e46       ?setCaption@QWidget@@UAEXABVQString@@@Z 00411e46 f   qt-mt323:qt-mt323.dll
 0001:00010e4c       ?setCursor@QWidget@@UAEXABVQCursor@@@Z 00411e4c f   qt-mt323:qt-mt323.dll
 0001:00010e52       ?setDefault@QPushButton@@UAEX_N@Z 00411e52 f   qt-mt323:qt-mt323.dll
 0001:00010e58       ?setDown@QButton@@UAEX_N@Z 00411e58 f   qt-mt323:qt-mt323.dll
 0001:00010e5e       ?setEnabled@QSpinBox@@UAEX_N@Z 00411e5e f   qt-mt323:qt-mt323.dll
 0001:00010e64       ?setEnabled@QWidget@@UAEX_N@Z 00411e64 f   qt-mt323:qt-mt323.dll
 0001:00010e6a       ?setEraseColor@QWidget@@UAEXABVQColor@@@Z 00411e6a f   qt-mt323:qt-mt323.dll
 0001:00010e70       ?setErasePixmap@QWidget@@UAEXABVQPixmap@@@Z 00411e70 f   qt-mt323:qt-mt323.dll
 0001:00010e76       ?setFocus@QWidget@@UAEXXZ  00411e76 f   qt-mt323:qt-mt323.dll
 0001:00010e7c       ?setFocusPolicy@QWidget@@UAEXW4FocusPolicy@1@@Z 00411e7c f   qt-mt323:qt-mt323.dll
 0001:00010e82       ?setFocusProxy@QWidget@@UAEXPAV1@@Z 00411e82 f   qt-mt323:qt-mt323.dll
 0001:00010e88       ?setFont@QLabel@@UAEXABVQFont@@@Z 00411e88 f   qt-mt323:qt-mt323.dll
 0001:00010e8e       ?setFont@QWidget@@UAEXABVQFont@@@Z 00411e8e f   qt-mt323:qt-mt323.dll
 0001:00010e94       ?setFrameRect@QFrame@@UAEXABVQRect@@@Z 00411e94 f   qt-mt323:qt-mt323.dll
 0001:00010e9a       ?setFrameStyle@QFrame@@UAEXH@Z 00411e9a f   qt-mt323:qt-mt323.dll
 0001:00010ea0       ?setGeometry@QBoxLayout@@UAEXABVQRect@@@Z 00411ea0 f   qt-mt323:qt-mt323.dll
 0001:00010ea6       ?setGeometry@QDialog@@UAEXABVQRect@@@Z 00411ea6 f   qt-mt323:qt-mt323.dll
 0001:00010eac       ?setGeometry@QDialog@@UAEXHHHH@Z 00411eac f   qt-mt323:qt-mt323.dll
 0001:00010eb2       ?setGeometry@QPushButton@@UAEXABVQRect@@@Z 00411eb2 f   qt-mt323:qt-mt323.dll
 0001:00010eb8       ?setGeometry@QPushButton@@UAEXHHHH@Z 00411eb8 f   qt-mt323:qt-mt323.dll
 0001:00010ebe       ?setGeometry@QSpacerItem@@UAEXABVQRect@@@Z 00411ebe f   qt-mt323:qt-mt323.dll
 0001:00010ec4       ?setGeometry@QWidget@@UAEXABVQRect@@@Z 00411ec4 f   qt-mt323:qt-mt323.dll
 0001:00010eca       ?setGeometry@QWidget@@UAEXHHHH@Z 00411eca f   qt-mt323:qt-mt323.dll
 0001:00010ed0       ?setGroup@QButton@@EAEXPAVQButtonGroup@@@Z 00411ed0 f   qt-mt323:qt-mt323.dll
 0001:00010ed6       ?setIcon@QWidget@@UAEXABVQPixmap@@@Z 00411ed6 f   qt-mt323:qt-mt323.dll
 0001:00010edc       ?setIconText@QWidget@@UAEXABVQString@@@Z 00411edc f   qt-mt323:qt-mt323.dll
 0001:00010ee2       ?setIsMenuButton@QPushButton@@UAEX_N@Z 00411ee2 f   qt-mt323:qt-mt323.dll
 0001:00010ee8       ?setKeyCompression@QWidget@@MAEX_N@Z 00411ee8 f   qt-mt323:qt-mt323.dll
 0001:00010eee       ?setLineWidth@QFrame@@UAEXH@Z 00411eee f   qt-mt323:qt-mt323.dll
 0001:00010ef4       ?setMargin@QFrame@@UAEXH@Z 00411ef4 f   qt-mt323:qt-mt323.dll
 0001:00010efa       ?setMargin@QLayout@@UAEXH@Z 00411efa f   qt-mt323:qt-mt323.dll
 0001:00010f00       ?setMask@QWidget@@UAEXABVQBitmap@@@Z 00411f00 f   qt-mt323:qt-mt323.dll
 0001:00010f06       ?setMask@QWidget@@UAEXABVQRegion@@@Z 00411f06 f   qt-mt323:qt-mt323.dll
 0001:00010f0c       ?setMaximumSize@QWidget@@UAEXHH@Z 00411f0c f   qt-mt323:qt-mt323.dll
 0001:00010f12       ?setMenuBar@QLayout@@UAEXPAVQMenuBar@@@Z 00411f12 f   qt-mt323:qt-mt323.dll
 0001:00010f18       ?setMicroFocusHint@QWidget@@MAEXHHHH_NPAVQFont@@@Z 00411f18 f   qt-mt323:qt-mt323.dll
 0001:00010f1e       ?setMidLineWidth@QFrame@@UAEXH@Z 00411f1e f   qt-mt323:qt-mt323.dll
 0001:00010f24       ?setMinimumSize@QWidget@@UAEXHH@Z 00411f24 f   qt-mt323:qt-mt323.dll
 0001:00010f2a       ?setMouseTracking@QWidget@@UAEX_N@Z 00411f2a f   qt-mt323:qt-mt323.dll
 0001:00010f30       ?setMovie@QLabel@@UAEXABVQMovie@@@Z 00411f30 f   qt-mt323:qt-mt323.dll
 0001:00010f36       ?setNum@QLabel@@UAEXH@Z    00411f36 f   qt-mt323:qt-mt323.dll
 0001:00010f3c       ?setNum@QLabel@@UAEXN@Z    00411f3c f   qt-mt323:qt-mt323.dll
 0001:00010f42       ?setOn@QPushButton@@UAEX_N@Z 00411f42 f   qt-mt323:qt-mt323.dll
 0001:00010f48       ?setPalette@QWidget@@UAEXABVQPalette@@@Z 00411f48 f   qt-mt323:qt-mt323.dll
 0001:00010f4e       ?setPaletteBackgroundColor@QWidget@@UAEXABVQColor@@@Z 00411f4e f   qt-mt323:qt-mt323.dll
 0001:00010f54       ?setPaletteBackgroundPixmap@QWidget@@UAEXABVQPixmap@@@Z 00411f54 f   qt-mt323:qt-mt323.dll
 0001:00010f5a       ?setPicture@QLabel@@UAEXABVQPicture@@@Z 00411f5a f   qt-mt323:qt-mt323.dll
 0001:00010f60       ?setPixmap@QButton@@UAEXABVQPixmap@@@Z 00411f60 f   qt-mt323:qt-mt323.dll
 0001:00010f66       ?setPixmap@QLabel@@UAEXABVQPixmap@@@Z 00411f66 f   qt-mt323:qt-mt323.dll
 0001:00010f6c       ?setPrefix@QSpinBox@@UAEXABVQString@@@Z 00411f6c f   qt-mt323:qt-mt323.dll
 0001:00010f72       ?setResolution@QPaintDevice@@UAEXH@Z 00411f72 f   qt-mt323:qt-mt323.dll
 0001:00010f78       ?setSizeIncrement@QWidget@@UAEXHH@Z 00411f78 f   qt-mt323:qt-mt323.dll
 0001:00010f7e       ?setSizePolicy@QWidget@@UAEXVQSizePolicy@@@Z 00411f7e f   qt-mt323:qt-mt323.dll
 0001:00010f84       ?setSpacing@QLayout@@UAEXH@Z 00411f84 f   qt-mt323:qt-mt323.dll
 0001:00010f8a       ?setSpecialValueText@QSpinBox@@UAEXABVQString@@@Z 00411f8a f   qt-mt323:qt-mt323.dll
 0001:00010f90       ?setState@QButton@@MAEXW4ToggleState@1@@Z 00411f90 f   qt-mt323:qt-mt323.dll
 0001:00010f96       ?setSuffix@QSpinBox@@UAEXABVQString@@@Z 00411f96 f   qt-mt323:qt-mt323.dll
 0001:00010f9c       ?setText@QButton@@UAEXABVQString@@@Z 00411f9c f   qt-mt323:qt-mt323.dll
 0001:00010fa2       ?setText@QLabel@@UAEXABVQString@@@Z 00411fa2 f   qt-mt323:qt-mt323.dll
 0001:00010fa8       ?setToggleType@QButton@@MAEXW4ToggleType@1@@Z 00411fa8 f   qt-mt323:qt-mt323.dll
 0001:00010fae       ?setUpdatesEnabled@QWidget@@UAEX_N@Z 00411fae f   qt-mt323:qt-mt323.dll
 0001:00010fb4       ?setValidator@QSpinBox@@UAEXPBVQValidator@@@Z 00411fb4 f   qt-mt323:qt-mt323.dll
 0001:00010fba       ?setValue@QSpinBox@@UAEXH@Z 00411fba f   qt-mt323:qt-mt323.dll
 0001:00010fc0       ?setWFlags@QWidget@@MAEXI@Z 00411fc0 f   qt-mt323:qt-mt323.dll
 0001:00010fc6       ?setWState@QWidget@@MAEXI@Z 00411fc6 f   qt-mt323:qt-mt323.dll
 0001:00010fcc       ?setWrapping@QSpinBox@@UAEX_N@Z 00411fcc f   qt-mt323:qt-mt323.dll
 0001:00010fd2       ?show@QDialog@@UAEXXZ      00411fd2 f   qt-mt323:qt-mt323.dll
 0001:00010fd8       ?show@QWidget@@UAEXXZ      00411fd8 f   qt-mt323:qt-mt323.dll
 0001:00010fde       ?showEvent@QWidget@@MAEXPAVQShowEvent@@@Z 00411fde f   qt-mt323:qt-mt323.dll
 0001:00010fe4       ?showMaximized@QWidget@@UAEXXZ 00411fe4 f   qt-mt323:qt-mt323.dll
 0001:00010fea       ?showMinimized@QWidget@@UAEXXZ 00411fea f   qt-mt323:qt-mt323.dll
 0001:00010ff0       ?showNormal@QWidget@@UAEXXZ 00411ff0 f   qt-mt323:qt-mt323.dll
 0001:00010ff6       ?sizeHint@QBoxLayout@@UBE?AVQSize@@XZ 00411ff6 f   qt-mt323:qt-mt323.dll
 0001:00010ffc       ?sizeHint@QCheckBox@@UBE?AVQSize@@XZ 00411ffc f   qt-mt323:qt-mt323.dll
 0001:00011002       ?sizeHint@QDialog@@UBE?AVQSize@@XZ 00412002 f   qt-mt323:qt-mt323.dll
 0001:00011008       ?sizeHint@QLabel@@UBE?AVQSize@@XZ 00412008 f   qt-mt323:qt-mt323.dll
 0001:0001100e       ?sizeHint@QPushButton@@UBE?AVQSize@@XZ 0041200e f   qt-mt323:qt-mt323.dll
 0001:00011014       ?sizeHint@QSpacerItem@@UBE?AVQSize@@XZ 00412014 f   qt-mt323:qt-mt323.dll
 0001:0001101a       ?sizeHint@QSpinBox@@UBE?AVQSize@@XZ 0041201a f   qt-mt323:qt-mt323.dll
 0001:00011020       ?sizePolicy@QWidget@@UBE?AVQSizePolicy@@XZ 00412020 f   qt-mt323:qt-mt323.dll
 0001:00011026       ?spacerItem@QLayoutItem@@UAEPAVQSpacerItem@@XZ 00412026 f   qt-mt323:qt-mt323.dll
 0001:0001102c       ?spacerItem@QSpacerItem@@UAEPAV1@XZ 0041202c f   qt-mt323:qt-mt323.dll
 0001:00011032       ?stepChange@QRangeControl@@MAEXXZ 00412032 f   qt-mt323:qt-mt323.dll
 0001:00011038       ?stepDown@QSpinBox@@UAEXXZ 00412038 f   qt-mt323:qt-mt323.dll
 0001:0001103e       ?stepUp@QSpinBox@@UAEXXZ   0041203e f   qt-mt323:qt-mt323.dll
 0001:00011044       ?styleChange@QFrame@@MAEXAAVQStyle@@@Z 00412044 f   qt-mt323:qt-mt323.dll
 0001:0001104a       ?styleChange@QSpinBox@@MAEXAAVQStyle@@@Z 0041204a f   qt-mt323:qt-mt323.dll
 0001:00011050       ?styleChange@QWidget@@MAEXAAVQStyle@@@Z 00412050 f   qt-mt323:qt-mt323.dll
 0001:00011056       ?suffix@QSpinBox@@UBE?AVQString@@XZ 00412056 f   qt-mt323:qt-mt323.dll
 0001:0001105c       ?tabletEvent@QWidget@@MAEXPAVQTabletEvent@@@Z 0041205c f   qt-mt323:qt-mt323.dll
 0001:00011062       ?unsetCursor@QWidget@@UAEXXZ 00412062 f   qt-mt323:qt-mt323.dll
 0001:00011068       ?updateDisplay@QSpinBox@@MAEXXZ 00412068 f   qt-mt323:qt-mt323.dll
 0001:0001106e       ?updateMask@QCheckBox@@MAEXXZ 0041206e f   qt-mt323:qt-mt323.dll
 0001:00011074       ?updateMask@QPushButton@@MAEXXZ 00412074 f   qt-mt323:qt-mt323.dll
 0001:0001107a       ?updateMask@QWidget@@MAEXXZ 0041207a f   qt-mt323:qt-mt323.dll
 0001:00011080       ?valueChange@QSpinBox@@MAEXXZ 00412080 f   qt-mt323:qt-mt323.dll
 0001:00011086       ?wheelEvent@QSpinBox@@MAEXPAVQWheelEvent@@@Z 00412086 f   qt-mt323:qt-mt323.dll
 0001:0001108c       ?wheelEvent@QWidget@@MAEXPAVQWheelEvent@@@Z 0041208c f   qt-mt323:qt-mt323.dll
 0001:00011092       ?widget@QLayoutItem@@UAEPAVQWidget@@XZ 00412092 f   qt-mt323:qt-mt323.dll
 0001:00011098       ?winEvent@QWidget@@MAE_NPAUtagMSG@@@Z 00412098 f   qt-mt323:qt-mt323.dll
 0001:0001109e       ?windowActivationChange@QWidget@@MAEX_N@Z 0041209e f   qt-mt323:qt-mt323.dll
 0001:000110a4       ??4QString@@QAEAAV0@ABV0@@Z 004120a4 f   qt-mt323:qt-mt323.dll
 0001:000110aa       ?upper@QChar@@QBE?AV1@XZ   004120aa f   qt-mt323:qt-mt323.dll
 0001:000110b0       ?remove@QString@@QAEAAV1@II@Z 004120b0 f   qt-mt323:qt-mt323.dll
 0001:000110b6       ?at@QString@@QBE?AVQChar@@I@Z 004120b6 f   qt-mt323:qt-mt323.dll
 0001:000110bc       ??0QColor@@QAE@PBD@Z       004120bc f   qt-mt323:qt-mt323.dll
 0001:000110c2       ??0QColorGroup@@QAE@ABV0@@Z 004120c2 f   qt-mt323:qt-mt323.dll
 0001:000110c8       ??1QColorGroup@@QAE@XZ     004120c8 f   qt-mt323:qt-mt323.dll
 0001:000110ce       ?setColor@QColorGroup@@QAEXW4ColorRole@1@ABVQColor@@@Z 004120ce f   qt-mt323:qt-mt323.dll
 0001:000110d4       ??0QListViewItem@@QAE@PAVQListView@@@Z 004120d4 f   qt-mt323:qt-mt323.dll
 0001:000110da       ??1QListViewItem@@UAE@XZ   004120da f   qt-mt323:qt-mt323.dll
 0001:000110e0       ?setText@QListViewItem@@UAEXHABVQString@@@Z 004120e0 f   qt-mt323:qt-mt323.dll
 0001:000110e6       ?paintCell@QListViewItem@@UAEXPAVQPainter@@ABVQColorGroup@@HHH@Z 004120e6 f   qt-mt323:qt-mt323.dll
 0001:000110ec       ?toString@QDateTime@@QBE?AVQString@@ABV2@@Z 004120ec f   qt-mt323:qt-mt323.dll
 0001:000110f2       ??MQDateTime@@QBE_NABV0@@Z 004120f2 f   qt-mt323:qt-mt323.dll
 0001:000110f8       ??OQDateTime@@QBE_NABV0@@Z 004120f8 f   qt-mt323:qt-mt323.dll
 0001:000110fe       ?currentDateTime@QDateTime@@SA?AV1@XZ 004120fe f   qt-mt323:qt-mt323.dll
 0001:00011104       ?fromString@QDateTime@@SA?AV1@ABVQString@@W4DateFormat@Qt@@@Z 00412104 f   qt-mt323:qt-mt323.dll
 0001:0001110a       ?acceptDrop@QListViewItem@@UBE_NPBVQMimeSource@@@Z 0041210a f   qt-mt323:qt-mt323.dll
 0001:00011110       ?activate@QListViewItem@@MAEXXZ 00412110 f   qt-mt323:qt-mt323.dll
 0001:00011116       ?cancelRename@QListViewItem@@MAEXH@Z 00412116 f   qt-mt323:qt-mt323.dll
 0001:0001111c       ?dragEntered@QListViewItem@@MAEXXZ 0041211c f   qt-mt323:qt-mt323.dll
 0001:00011122       ?dragLeft@QListViewItem@@MAEXXZ 00412122 f   qt-mt323:qt-mt323.dll
 0001:00011128       ?dropped@QListViewItem@@MAEXPAVQDropEvent@@@Z 00412128 f   qt-mt323:qt-mt323.dll
 0001:0001112e       ?enforceSortOrder@QListViewItem@@MBEXXZ 0041212e f   qt-mt323:qt-mt323.dll
 0001:00011134       ?insertItem@QListViewItem@@UAEXPAV1@@Z 00412134 f   qt-mt323:qt-mt323.dll
 0001:0001113a       ?invalidateHeight@QListViewItem@@UAEXXZ 0041213a f   qt-mt323:qt-mt323.dll
 0001:00011140       ?key@QListViewItem@@UBE?AVQString@@H_N@Z 00412140 f   qt-mt323:qt-mt323.dll
 0001:00011146       ?okRename@QListViewItem@@MAEXH@Z 00412146 f   qt-mt323:qt-mt323.dll
 0001:0001114c       ?paintBranches@QListViewItem@@UAEXPAVQPainter@@ABVQColorGroup@@HHH@Z 0041214c f   qt-mt323:qt-mt323.dll
 0001:00011152       ?paintFocus@QListViewItem@@UAEXPAVQPainter@@ABVQColorGroup@@ABVQRect@@@Z 00412152 f   qt-mt323:qt-mt323.dll
 0001:00011158       ?pixmap@QListViewItem@@UBEPBVQPixmap@@H@Z 00412158 f   qt-mt323:qt-mt323.dll
 0001:0001115e       ?removeItem@QListViewItem@@UAEXPAV1@@Z 0041215e f   qt-mt323:qt-mt323.dll
 0001:00011164       ?setDragEnabled@QListViewItem@@UAEX_N@Z 00412164 f   qt-mt323:qt-mt323.dll
 0001:0001116a       ?setDropEnabled@QListViewItem@@UAEX_N@Z 0041216a f   qt-mt323:qt-mt323.dll
 0001:00011170       ?setEnabled@QListViewItem@@UAEX_N@Z 00412170 f   qt-mt323:qt-mt323.dll
 0001:00011176       ?setExpandable@QListViewItem@@UAEX_N@Z 00412176 f   qt-mt323:qt-mt323.dll
 0001:0001117c       ?setHeight@QListViewItem@@MAEXH@Z 0041217c f   qt-mt323:qt-mt323.dll
 0001:00011182       ?setMultiLinesEnabled@QListViewItem@@UAEX_N@Z 00412182 f   qt-mt323:qt-mt323.dll
 0001:00011188       ?setOpen@QListViewItem@@UAEX_N@Z 00412188 f   qt-mt323:qt-mt323.dll
 0001:0001118e       ?setPixmap@QListViewItem@@UAEXHABVQPixmap@@@Z 0041218e f   qt-mt323:qt-mt323.dll
 0001:00011194       ?setRenameEnabled@QListViewItem@@UAEXH_N@Z 00412194 f   qt-mt323:qt-mt323.dll
 0001:0001119a       ?setSelectable@QListViewItem@@UAEX_N@Z 0041219a f   qt-mt323:qt-mt323.dll
 0001:000111a0       ?setSelected@QListViewItem@@UAEX_N@Z 004121a0 f   qt-mt323:qt-mt323.dll
 0001:000111a6       ?setup@QListViewItem@@UAEXXZ 004121a6 f   qt-mt323:qt-mt323.dll
 0001:000111ac       ?sort@QListViewItem@@UAEXXZ 004121ac f   qt-mt323:qt-mt323.dll
 0001:000111b2       ?sortChildItems@QListViewItem@@UAEXH_N@Z 004121b2 f   qt-mt323:qt-mt323.dll
 0001:000111b8       ?startRename@QListViewItem@@UAEXH@Z 004121b8 f   qt-mt323:qt-mt323.dll
 0001:000111be       ?takeItem@QListViewItem@@UAEXPAV1@@Z 004121be f   qt-mt323:qt-mt323.dll
 0001:000111c4       ?text@QListViewItem@@UBE?AVQString@@H@Z 004121c4 f   qt-mt323:qt-mt323.dll
 0001:000111ca       ?width@QListViewItem@@UBEHABVQFontMetrics@@PBVQListView@@H@Z 004121ca f   qt-mt323:qt-mt323.dll
 0001:000111d0       ?sprintf@QString@@QAAAAV1@PBDZZ 004121d0 f   qt-mt323:qt-mt323.dll
 0001:000111d6       ?find@QString@@QBEHABV1@H_N@Z 004121d6 f   qt-mt323:qt-mt323.dll
 0001:000111dc       ?contains@QString@@QBEHPBD_N@Z 004121dc f   qt-mt323:qt-mt323.dll
 0001:000111e2       ?right@QString@@QBE?AV1@I@Z 004121e2 f   qt-mt323:qt-mt323.dll
 0001:000111e8       ?fromAscii@QString@@SA?AV1@PBDH@Z 004121e8 f   qt-mt323:qt-mt323.dll
 0001:000111ee       ??9@YA_NABVQString@@PBD@Z  004121ee f   qt-mt323:qt-mt323.dll
 0001:000111f4       ??8@YA_NABVQString@@PBD@Z  004121f4 f   qt-mt323:qt-mt323.dll
 0001:000111fa       ?rebalance@QMapPrivateBase@@QAEXPAUQMapNodeBase@@AAPAU2@@Z 004121fa f   qt-mt323:qt-mt323.dll
 0001:00011200       ?repaint@QWidget@@QAEX_N@Z 00412200 f   qt-mt323:qt-mt323.dll
 0001:00011206       ??4QDomNode@@QAEAAV0@ABV0@@Z 00412206 f   qt-mt323:qt-mt323.dll
 0001:0001120c       ??1QDomNode@@UAE@XZ        0041220c f   qt-mt323:qt-mt323.dll
 0001:00011212       ?nextSibling@QDomNode@@UBE?AV1@XZ 00412212 f   qt-mt323:qt-mt323.dll
 0001:00011218       ?isNull@QDomNode@@QBE_NXZ  00412218 f   qt-mt323:qt-mt323.dll
 0001:0001121e       ?toElement@QDomNode@@QAE?AVQDomElement@@XZ 0041221e f   qt-mt323:qt-mt323.dll
 0001:00011224       ??0QDomDocument@@QAE@XZ    00412224 f   qt-mt323:qt-mt323.dll
 0001:0001122a       ??1QDomDocument@@UAE@XZ    0041222a f   qt-mt323:qt-mt323.dll
 0001:00011230       ?documentElement@QDomDocument@@QBE?AVQDomElement@@XZ 00412230 f   qt-mt323:qt-mt323.dll
 0001:00011236       ?setContent@QDomDocument@@QAE_NPAVQIODevice@@PAVQString@@PAH2@Z 00412236 f   qt-mt323:qt-mt323.dll
 0001:0001123c       ??1QDomElement@@UAE@XZ     0041223c f   qt-mt323:qt-mt323.dll
 0001:00011242       ?attribute@QDomElement@@QBE?AVQString@@ABV2@0@Z 00412242 f   qt-mt323:qt-mt323.dll
 0001:00011248       ?tagName@QDomElement@@QBE?AVQString@@XZ 00412248 f   qt-mt323:qt-mt323.dll
 0001:0001124e       ??0QFile@@QAE@ABVQString@@@Z 0041224e f   qt-mt323:qt-mt323.dll
 0001:00011254       ??1QFile@@UAE@XZ           00412254 f   qt-mt323:qt-mt323.dll
 0001:0001125a       ?exists@QFile@@SA_NABVQString@@@Z 0041225a f   qt-mt323:qt-mt323.dll
 0001:00011260       ?open@QFile@@UAE_NH@Z      00412260 f   qt-mt323:qt-mt323.dll
 0001:00011266       ?close@QFile@@UAEXXZ       00412266 f   qt-mt323:qt-mt323.dll
 0001:0001126c       ??0QKeySequence@@QAE@H@Z   0041226c f   qt-mt323:qt-mt323.dll
 0001:00011272       ??0QPixmap@@QAE@QAPBD@Z    00412272 f   qt-mt323:qt-mt323.dll
 0001:00011278       ??1QPixmap@@UAE@XZ         00412278 f   qt-mt323:qt-mt323.dll
 0001:0001127e       ?exec@QDialog@@QAEHXZ      0041227e f   qt-mt323:qt-mt323.dll
 0001:00011284       ?warning@QMessageBox@@SAHPAVQWidget@@ABVQString@@1HHH@Z 00412284 f   qt-mt323:qt-mt323.dll
 0001:0001128a       ?warning@QMessageBox@@SAHPAVQWidget@@ABVQString@@1111HH@Z 0041228a f   qt-mt323:qt-mt323.dll
 0001:00011290       ?critical@QMessageBox@@SAHPAVQWidget@@ABVQString@@1111HH@Z 00412290 f   qt-mt323:qt-mt323.dll
 0001:00011296       ?about@QMessageBox@@SAXPAVQWidget@@ABVQString@@1@Z 00412296 f   qt-mt323:qt-mt323.dll
 0001:0001129c       ?clipboard@QApplication@@SAPAVQClipboard@@XZ 0041229c f   qt-mt323:qt-mt323.dll
 0001:000112a2       ?insertItem@QMenuData@@QAEHABVQString@@PBVQObject@@PBDABVQKeySequence@@HH@Z 004122a2 f   qt-mt323:qt-mt323.dll
 0001:000112a8       ?insertItem@QMenuData@@QAEHABVQString@@PAVQPopupMenu@@HH@Z 004122a8 f   qt-mt323:qt-mt323.dll
 0001:000112ae       ??0QPopupMenu@@QAE@PAVQWidget@@PBD@Z 004122ae f   qt-mt323:qt-mt323.dll
 0001:000112b4       ??1QPopupMenu@@UAE@XZ      004122b4 f   qt-mt323:qt-mt323.dll
 0001:000112ba       ??0QMenuBar@@QAE@PAVQWidget@@PBD@Z 004122ba f   qt-mt323:qt-mt323.dll
 0001:000112c0       ??1QMenuBar@@UAE@XZ        004122c0 f   qt-mt323:qt-mt323.dll
 0001:000112c6       ??0QProcess@@QAE@PAVQObject@@PBD@Z 004122c6 f   qt-mt323:qt-mt323.dll
 0001:000112cc       ??1QProcess@@UAE@XZ        004122cc f   qt-mt323:qt-mt323.dll
 0001:000112d2       ?addArgument@QProcess@@UAEXABVQString@@@Z 004122d2 f   qt-mt323:qt-mt323.dll
 0001:000112d8       ?start@QProcess@@UAE_NPAVQStringList@@@Z 004122d8 f   qt-mt323:qt-mt323.dll
 0001:000112de       ?value@QSpinBox@@QBEHXZ    004122de f   qt-mt323:qt-mt323.dll
 0001:000112e4       ?setText@QClipboard@@QAEXABVQString@@@Z 004122e4 f   qt-mt323:qt-mt323.dll
 0001:000112ea       ?getText@QInputDialog@@SA?AVQString@@ABV2@0W4EchoMode@QLineEdit@@0PA_NPAVQWidget@@PBD@Z 004122ea f   qt-mt323:qt-mt323.dll
 0001:000112f0       ?activateItemAt@QMenuBar@@UAEXH@Z 004122f0 f   qt-mt323:qt-mt323.dll
 0001:000112f6       ?activateItemAt@QPopupMenu@@UAEXH@Z 004122f6 f   qt-mt323:qt-mt323.dll
 0001:000112fc       ?addDockWindow@QMainWindow@@UAEXPAVQDockWindow@@ABVQString@@W4Dock@Qt@@_N@Z 004122fc f   qt-mt323:qt-mt323.dll
 0001:00011302       ?addDockWindow@QMainWindow@@UAEXPAVQDockWindow@@W4Dock@Qt@@_N@Z 00412302 f   qt-mt323:qt-mt323.dll
 0001:00011308       ?appendChild@QDomNode@@UAE?AV1@ABV1@@Z 00412308 f   qt-mt323:qt-mt323.dll
 0001:0001130e       ?attributes@QDomElement@@UBE?AVQDomNamedNodeMap@@XZ 0041230e f   qt-mt323:qt-mt323.dll
 0001:00011314       ?childEvent@QMainWindow@@MAEXPAVQChildEvent@@@Z 00412314 f   qt-mt323:qt-mt323.dll
 0001:0001131a       ?childNodes@QDomNode@@UBE?AVQDomNodeList@@XZ 0041231a f   qt-mt323:qt-mt323.dll
 0001:00011320       ?className@QMenuBar@@UBEPBDXZ 00412320 f   qt-mt323:qt-mt323.dll
 0001:00011326       ?className@QPopupMenu@@UBEPBDXZ 00412326 f   qt-mt323:qt-mt323.dll
 0001:0001132c       ?cloneNode@QDomNode@@UBE?AV1@_N@Z 0041232c f   qt-mt323:qt-mt323.dll
 0001:00011332       ?closeEvent@QPopupMenu@@MAEXPAVQCloseEvent@@@Z 00412332 f   qt-mt323:qt-mt323.dll
 0001:00011338       ?customWhatsThis@QMenuBar@@UBE_NXZ 00412338 f   qt-mt323:qt-mt323.dll
 0001:0001133e       ?customWhatsThis@QPopupMenu@@UBE_NXZ 0041233e f   qt-mt323:qt-mt323.dll
 0001:00011344       ?customize@QMainWindow@@UAEXXZ 00412344 f   qt-mt323:qt-mt323.dll
 0001:0001134a       ?dockingArea@QMainWindow@@UAEPAVQDockArea@@ABVQPoint@@@Z 0041234a f   qt-mt323:qt-mt323.dll
 0001:00011350       ?drawContents@QMenuBar@@MAEXPAVQPainter@@@Z 00412350 f   qt-mt323:qt-mt323.dll
 0001:00011356       ?drawContents@QPopupMenu@@MAEXPAVQPainter@@@Z 00412356 f   qt-mt323:qt-mt323.dll
 0001:0001135c       ?elementsByTagName@QDomElement@@UBE?AVQDomNodeList@@ABVQString@@@Z 0041235c f   qt-mt323:qt-mt323.dll
 0001:00011362       ?elementsByTagNameNS@QDomElement@@UBE?AVQDomNodeList@@ABVQString@@0@Z 00412362 f   qt-mt323:qt-mt323.dll
 0001:00011368       ?enabledChange@QPopupMenu@@MAEX_N@Z 00412368 f   qt-mt323:qt-mt323.dll
 0001:0001136e       ?event@QMainWindow@@MAE_NPAVQEvent@@@Z 0041236e f   qt-mt323:qt-mt323.dll
 0001:00011374       ?eventFilter@QMainWindow@@UAE_NPAVQObject@@PAVQEvent@@@Z 00412374 f   qt-mt323:qt-mt323.dll
 0001:0001137a       ?eventFilter@QMenuBar@@UAE_NPAVQObject@@PAVQEvent@@@Z 0041237a f   qt-mt323:qt-mt323.dll
 0001:00011380       ?firstChild@QDomNode@@UBE?AV1@XZ 00412380 f   qt-mt323:qt-mt323.dll
 0001:00011386       ?focusInEvent@QMenuBar@@MAEXPAVQFocusEvent@@@Z 00412386 f   qt-mt323:qt-mt323.dll
 0001:0001138c       ?focusInEvent@QPopupMenu@@MAEXPAVQFocusEvent@@@Z 0041238c f   qt-mt323:qt-mt323.dll
 0001:00011392       ?focusNextPrevChild@QPopupMenu@@MAE_N_N@Z 00412392 f   qt-mt323:qt-mt323.dll
 0001:00011398       ?focusOutEvent@QMenuBar@@MAEXPAVQFocusEvent@@@Z 00412398 f   qt-mt323:qt-mt323.dll
 0001:0001139e       ?focusOutEvent@QPopupMenu@@MAEXPAVQFocusEvent@@@Z 0041239e f   qt-mt323:qt-mt323.dll
 0001:000113a4       ?fontChange@QMenuBar@@MAEXABVQFont@@@Z 004123a4 f   qt-mt323:qt-mt323.dll
 0001:000113aa       ?frameChanged@QMenuBar@@EAEXXZ 004123aa f   qt-mt323:qt-mt323.dll
 0001:000113b0       ?frameChanged@QPopupMenu@@EAEXXZ 004123b0 f   qt-mt323:qt-mt323.dll
 0001:000113b6       ?hasAttributes@QDomNode@@UBE_NXZ 004123b6 f   qt-mt323:qt-mt323.dll
 0001:000113bc       ?hasChildNodes@QDomNode@@UBE_NXZ 004123bc f   qt-mt323:qt-mt323.dll
 0001:000113c2       ?heightForWidth@QMenuBar@@UBEHH@Z 004123c2 f   qt-mt323:qt-mt323.dll
 0001:000113c8       ?hide@QMainWindow@@UAEXXZ  004123c8 f   qt-mt323:qt-mt323.dll
 0001:000113ce       ?hide@QMenuBar@@UAEXXZ     004123ce f   qt-mt323:qt-mt323.dll
 0001:000113d4       ?hide@QPopupMenu@@UAEXXZ   004123d4 f   qt-mt323:qt-mt323.dll
 0001:000113da       ?insertAfter@QDomNode@@UAE?AV1@ABV1@0@Z 004123da f   qt-mt323:qt-mt323.dll
 0001:000113e0       ?insertBefore@QDomNode@@UAE?AV1@ABV1@0@Z 004123e0 f   qt-mt323:qt-mt323.dll
 0001:000113e6       ?isAttr@QDomNode@@UBE_NXZ  004123e6 f   qt-mt323:qt-mt323.dll
 0001:000113ec       ?isCDATASection@QDomNode@@UBE_NXZ 004123ec f   qt-mt323:qt-mt323.dll
 0001:000113f2       ?isCharacterData@QDomNode@@UBE_NXZ 004123f2 f   qt-mt323:qt-mt323.dll
 0001:000113f8       ?isComment@QDomNode@@UBE_NXZ 004123f8 f   qt-mt323:qt-mt323.dll
 0001:000113fe       ?isCustomizable@QMainWindow@@UBE_NXZ 004123fe f   qt-mt323:qt-mt323.dll
 0001:00011404       ?isDocument@QDomNode@@UBE_NXZ 00412404 f   qt-mt323:qt-mt323.dll
 0001:0001140a       ?isDocumentFragment@QDomNode@@UBE_NXZ 0041240a f   qt-mt323:qt-mt323.dll
 0001:00011410       ?isDocumentType@QDomNode@@UBE_NXZ 00412410 f   qt-mt323:qt-mt323.dll
 0001:00011416       ?isElement@QDomElement@@UBE_NXZ 00412416 f   qt-mt323:qt-mt323.dll
 0001:0001141c       ?isEntity@QDomNode@@UBE_NXZ 0041241c f   qt-mt323:qt-mt323.dll
 0001:00011422       ?isEntityReference@QDomNode@@UBE_NXZ 00412422 f   qt-mt323:qt-mt323.dll
 0001:00011428       ?isNotation@QDomNode@@UBE_NXZ 00412428 f   qt-mt323:qt-mt323.dll
 0001:0001142e       ?isProcessingInstruction@QDomNode@@UBE_NXZ 0041242e f   qt-mt323:qt-mt323.dll
 0001:00011434       ?isSupported@QDomNode@@UBE_NABVQString@@0@Z 00412434 f   qt-mt323:qt-mt323.dll
 0001:0001143a       ?isText@QDomNode@@UBE_NXZ  0041243a f   qt-mt323:qt-mt323.dll
 0001:00011440       ?keyPressEvent@QMenuBar@@MAEXPAVQKeyEvent@@@Z 00412440 f   qt-mt323:qt-mt323.dll
 0001:00011446       ?keyPressEvent@QPopupMenu@@MAEXPAVQKeyEvent@@@Z 00412446 f   qt-mt323:qt-mt323.dll
 0001:0001144c       ?lastChild@QDomNode@@UBE?AV1@XZ 0041244c f   qt-mt323:qt-mt323.dll
 0001:00011452       ?leaveEvent@QMenuBar@@MAEXPAVQEvent@@@Z 00412452 f   qt-mt323:qt-mt323.dll
 0001:00011458       ?leaveEvent@QPopupMenu@@MAEXPAVQEvent@@@Z 00412458 f   qt-mt323:qt-mt323.dll
 0001:0001145e       ?localName@QDomNode@@UBE?AVQString@@XZ 0041245e f   qt-mt323:qt-mt323.dll
 0001:00011464       ?menuContentsChanged@QMenuBar@@MAEXXZ 00412464 f   qt-mt323:qt-mt323.dll
 0001:0001146a       ?menuContentsChanged@QPopupMenu@@EAEXXZ 0041246a f   qt-mt323:qt-mt323.dll
 0001:00011470       ?menuDelPopup@QMenuBar@@EAEXPAVQPopupMenu@@@Z 00412470 f   qt-mt323:qt-mt323.dll
 0001:00011476       ?menuDelPopup@QPopupMenu@@EAEXPAV1@@Z 00412476 f   qt-mt323:qt-mt323.dll
 0001:0001147c       ?menuInsPopup@QMenuBar@@EAEXPAVQPopupMenu@@@Z 0041247c f   qt-mt323:qt-mt323.dll
 0001:00011482       ?menuInsPopup@QPopupMenu@@EAEXPAV1@@Z 00412482 f   qt-mt323:qt-mt323.dll
 0001:00011488       ?menuStateChanged@QMenuBar@@MAEXXZ 00412488 f   qt-mt323:qt-mt323.dll
 0001:0001148e       ?menuStateChanged@QPopupMenu@@EAEXXZ 0041248e f   qt-mt323:qt-mt323.dll
 0001:00011494       ?metaObject@QMenuBar@@UBEPAVQMetaObject@@XZ 00412494 f   qt-mt323:qt-mt323.dll
 0001:0001149a       ?metaObject@QPopupMenu@@UBEPAVQMetaObject@@XZ 0041249a f   qt-mt323:qt-mt323.dll
 0001:000114a0       ?minimumSizeHint@QMainWindow@@UBE?AVQSize@@XZ 004124a0 f   qt-mt323:qt-mt323.dll
 0001:000114a6       ?minimumSizeHint@QMenuBar@@UBE?AVQSize@@XZ 004124a6 f   qt-mt323:qt-mt323.dll
 0001:000114ac       ?mouseMoveEvent@QMenuBar@@MAEXPAVQMouseEvent@@@Z 004124ac f   qt-mt323:qt-mt323.dll
 0001:000114b2       ?mouseMoveEvent@QPopupMenu@@MAEXPAVQMouseEvent@@@Z 004124b2 f   qt-mt323:qt-mt323.dll
 0001:000114b8       ?mousePressEvent@QMenuBar@@MAEXPAVQMouseEvent@@@Z 004124b8 f   qt-mt323:qt-mt323.dll
 0001:000114be       ?mousePressEvent@QPopupMenu@@MAEXPAVQMouseEvent@@@Z 004124be f   qt-mt323:qt-mt323.dll
 0001:000114c4       ?mouseReleaseEvent@QMenuBar@@MAEXPAVQMouseEvent@@@Z 004124c4 f   qt-mt323:qt-mt323.dll
 0001:000114ca       ?mouseReleaseEvent@QPopupMenu@@MAEXPAVQMouseEvent@@@Z 004124ca f   qt-mt323:qt-mt323.dll
 0001:000114d0       ?moveDockWindow@QMainWindow@@UAEXPAVQDockWindow@@W4Dock@Qt@@@Z 004124d0 f   qt-mt323:qt-mt323.dll
 0001:000114d6       ?moveDockWindow@QMainWindow@@UAEXPAVQDockWindow@@W4Dock@Qt@@_NHH@Z 004124d6 f   qt-mt323:qt-mt323.dll
 0001:000114dc       ?namespaceURI@QDomNode@@UBE?AVQString@@XZ 004124dc f   qt-mt323:qt-mt323.dll
 0001:000114e2       ?nodeName@QDomNode@@UBE?AVQString@@XZ 004124e2 f   qt-mt323:qt-mt323.dll
 0001:000114e8       ?nodeType@QDomElement@@UBE?AW4NodeType@QDomNode@@XZ 004124e8 f   qt-mt323:qt-mt323.dll
 0001:000114ee       ?nodeValue@QDomNode@@UBE?AVQString@@XZ 004124ee f   qt-mt323:qt-mt323.dll
 0001:000114f4       ?normalize@QDomNode@@UAEXXZ 004124f4 f   qt-mt323:qt-mt323.dll
 0001:000114fa       ?ownerDocument@QDomNode@@UBE?AVQDomDocument@@XZ 004124fa f   qt-mt323:qt-mt323.dll
 0001:00011500       ?paintEvent@QMainWindow@@MAEXPAVQPaintEvent@@@Z 00412500 f   qt-mt323:qt-mt323.dll
 0001:00011506       ?paintEvent@QPopupMenu@@MAEXPAVQPaintEvent@@@Z 00412506 f   qt-mt323:qt-mt323.dll
 0001:0001150c       ?parentNode@QDomNode@@UBE?AV1@XZ 0041250c f   qt-mt323:qt-mt323.dll
 0001:00011512       ?prefix@QDomNode@@UBE?AVQString@@XZ 00412512 f   qt-mt323:qt-mt323.dll
 0001:00011518       ?previousSibling@QDomNode@@UBE?AV1@XZ 00412518 f   qt-mt323:qt-mt323.dll
 0001:0001151e       ?qt_cast@QMenuBar@@UAEPAXPBD@Z 0041251e f   qt-mt323:qt-mt323.dll
 0001:00011524       ?qt_cast@QPopupMenu@@UAEPAXPBD@Z 00412524 f   qt-mt323:qt-mt323.dll
 0001:0001152a       ?qt_emit@QMenuBar@@UAE_NHPAUQUObject@@@Z 0041252a f   qt-mt323:qt-mt323.dll
 0001:00011530       ?qt_emit@QPopupMenu@@UAE_NHPAUQUObject@@@Z 00412530 f   qt-mt323:qt-mt323.dll
 0001:00011536       ?qt_invoke@QMenuBar@@UAE_NHPAUQUObject@@@Z 00412536 f   qt-mt323:qt-mt323.dll
 0001:0001153c       ?qt_invoke@QPopupMenu@@UAE_NHPAUQUObject@@@Z 0041253c f   qt-mt323:qt-mt323.dll
 0001:00011542       ?qt_property@QMenuBar@@UAE_NHHPAVQVariant@@@Z 00412542 f   qt-mt323:qt-mt323.dll
 0001:00011548       ?qt_property@QPopupMenu@@UAE_NHHPAVQVariant@@@Z 00412548 f   qt-mt323:qt-mt323.dll
 0001:0001154e       ?removeChild@QDomNode@@UAE?AV1@ABV1@@Z 0041254e f   qt-mt323:qt-mt323.dll
 0001:00011554       ?removeDockWindow@QMainWindow@@UAEXPAVQDockWindow@@@Z 00412554 f   qt-mt323:qt-mt323.dll
 0001:0001155a       ?replaceChild@QDomNode@@UAE?AV1@ABV1@0@Z 0041255a f   qt-mt323:qt-mt323.dll
 0001:00011560       ?resizeEvent@QFrame@@MAEXPAVQResizeEvent@@@Z 00412560 f   qt-mt323:qt-mt323.dll
 0001:00011566       ?resizeEvent@QMenuBar@@MAEXPAVQResizeEvent@@@Z 00412566 f   qt-mt323:qt-mt323.dll
 0001:0001156c       ?resizeEvent@QWidget@@MAEXPAVQResizeEvent@@@Z 0041256c f   qt-mt323:qt-mt323.dll
 0001:00011572       ?setActiveItem@QPopupMenu@@UAEXH@Z 00412572 f   qt-mt323:qt-mt323.dll
 0001:00011578       ?setAppropriate@QMainWindow@@UAEXPAVQDockWindow@@_N@Z 00412578 f   qt-mt323:qt-mt323.dll
 0001:0001157e       ?setCentralWidget@QMainWindow@@UAEXPAVQWidget@@@Z 0041257e f   qt-mt323:qt-mt323.dll
 0001:00011584       ?setCheckable@QPopupMenu@@UAEX_N@Z 00412584 f   qt-mt323:qt-mt323.dll
 0001:0001158a       ?setDockEnabled@QMainWindow@@UAEXPAVQDockWindow@@W4Dock@Qt@@_N@Z 0041258a f   qt-mt323:qt-mt323.dll
 0001:00011590       ?setDockEnabled@QMainWindow@@UAEXW4Dock@Qt@@_N@Z 00412590 f   qt-mt323:qt-mt323.dll
 0001:00011596       ?setDockMenuEnabled@QMainWindow@@UAEX_N@Z 00412596 f   qt-mt323:qt-mt323.dll
 0001:0001159c       ?setDockWindowsMovable@QMainWindow@@UAEX_N@Z 0041259c f   qt-mt323:qt-mt323.dll
 0001:000115a2       ?setFirstItemActive@QPopupMenu@@EAEXXZ 004125a2 f   qt-mt323:qt-mt323.dll
 0001:000115a8       ?setFont@QPopupMenu@@UAEXABVQFont@@@Z 004125a8 f   qt-mt323:qt-mt323.dll
 0001:000115ae       ?setId@QMenuData@@UAEXHH@Z 004125ae f   qt-mt323:qt-mt323.dll
 0001:000115b4       ?setMenuBar@QMainWindow@@EAEXPAVQMenuBar@@@Z 004125b4 f   qt-mt323:qt-mt323.dll
 0001:000115ba       ?setNodeValue@QDomNode@@UAEXABVQString@@@Z 004125ba f   qt-mt323:qt-mt323.dll
 0001:000115c0       ?setOpaqueMoving@QMainWindow@@UAEX_N@Z 004125c0 f   qt-mt323:qt-mt323.dll
 0001:000115c6       ?setPrefix@QDomNode@@UAEXABVQString@@@Z 004125c6 f   qt-mt323:qt-mt323.dll
 0001:000115cc       ?setRightJustification@QMainWindow@@UAEX_N@Z 004125cc f   qt-mt323:qt-mt323.dll
 0001:000115d2       ?setSeparator@QMenuBar@@UAEXW4Separator@1@@Z 004125d2 f   qt-mt323:qt-mt323.dll
 0001:000115d8       ?setStatusBar@QMainWindow@@EAEXPAVQStatusBar@@@Z 004125d8 f   qt-mt323:qt-mt323.dll
 0001:000115de       ?setToolTipGroup@QMainWindow@@EAEXPAVQToolTipGroup@@@Z 004125de f   qt-mt323:qt-mt323.dll
 0001:000115e4       ?setUpLayout@QMainWindow@@MAEXXZ 004125e4 f   qt-mt323:qt-mt323.dll
 0001:000115ea       ?setUsesBigPixmaps@QMainWindow@@UAEX_N@Z 004125ea f   qt-mt323:qt-mt323.dll
 0001:000115f0       ?setUsesTextLabel@QMainWindow@@UAEX_N@Z 004125f0 f   qt-mt323:qt-mt323.dll
 0001:000115f6       ?show@QMenuBar@@UAEXXZ     004125f6 f   qt-mt323:qt-mt323.dll
 0001:000115fc       ?show@QPopupMenu@@UAEXXZ   004125fc f   qt-mt323:qt-mt323.dll
 0001:00011602       ?showDockMenu@QMainWindow@@MAE_NABVQPoint@@@Z 00412602 f   qt-mt323:qt-mt323.dll
 0001:00011608       ?sizeHint@QMainWindow@@UBE?AVQSize@@XZ 00412608 f   qt-mt323:qt-mt323.dll
 0001:0001160e       ?sizeHint@QMenuBar@@UBE?AVQSize@@XZ 0041260e f   qt-mt323:qt-mt323.dll
 0001:00011614       ?sizeHint@QPopupMenu@@UBE?AVQSize@@XZ 00412614 f   qt-mt323:qt-mt323.dll
 0001:0001161a       ?styleChange@QMainWindow@@MAEXAAVQStyle@@@Z 0041261a f   qt-mt323:qt-mt323.dll
 0001:00011620       ?styleChange@QMenuBar@@MAEXAAVQStyle@@@Z 00412620 f   qt-mt323:qt-mt323.dll
 0001:00011626       ?styleChange@QPopupMenu@@MAEXAAVQStyle@@@Z 00412626 f   qt-mt323:qt-mt323.dll
 0001:0001162c       ?timerEvent@QPopupMenu@@MAEXPAVQTimerEvent@@@Z 0041262c f   qt-mt323:qt-mt323.dll
 0001:00011632       ?updateItem@QMenuBar@@UAEXH@Z 00412632 f   qt-mt323:qt-mt323.dll
 0001:00011638       ?updateItem@QPopupMenu@@UAEXH@Z 00412638 f   qt-mt323:qt-mt323.dll
 0001:0001163e       ?whatsThis@QMainWindow@@UAEXXZ 0041263e f   qt-mt323:qt-mt323.dll
 0001:00011644       ?qt_cast@QObject@@UAEPAXPBD@Z 00412644 f   qt-mt323:qt-mt323.dll
 0001:0001164a       ?qt_invoke@QObject@@UAE_NHPAUQUObject@@@Z 0041264a f   qt-mt323:qt-mt323.dll
 0001:00011650       ?qt_emit@QObject@@UAE_NHPAUQUObject@@@Z 00412650 f   qt-mt323:qt-mt323.dll
 0001:00011656       ?qt_property@QObject@@UAE_NHHPAVQVariant@@@Z 00412656 f   qt-mt323:qt-mt323.dll
 0001:0001165c       ?staticMetaObject@QObject@@SAPAVQMetaObject@@XZ 0041265c f   qt-mt323:qt-mt323.dll
 0001:00011662       ?receivers@QObject@@IBEPAVQConnectionList@@H@Z 00412662 f   qt-mt323:qt-mt323.dll
 0001:00011668       ?activate_signal@QObject@@IAEXPAVQConnectionList@@PAUQUObject@@@Z 00412668 f   qt-mt323:qt-mt323.dll
 0001:0001166e       ??0QUObject@@QAE@XZ        0041266e f   qt-mt323:qt-mt323.dll
 0001:00011674       ??1QUObject@@QAE@XZ        00412674 f   qt-mt323:qt-mt323.dll
 0001:0001167a       ?set@QUType_varptr@@QAEXPAUQUObject@@PBX@Z 0041267a f   qt-mt323:qt-mt323.dll
 0001:00011680       ?set@QUType_ptr@@QAEXPAUQUObject@@PBX@Z 00412680 f   qt-mt323:qt-mt323.dll
 0001:00011686       ?qt_cast@QMainWindow@@UAEPAXPBD@Z 00412686 f   qt-mt323:qt-mt323.dll
 0001:0001168c       ?qt_invoke@QMainWindow@@UAE_NHPAUQUObject@@@Z 0041268c f   qt-mt323:qt-mt323.dll
 0001:00011692       ?qt_emit@QMainWindow@@UAE_NHPAUQUObject@@@Z 00412692 f   qt-mt323:qt-mt323.dll
 0001:00011698       ?qt_property@QMainWindow@@UAE_NHHPAVQVariant@@@Z 00412698 f   qt-mt323:qt-mt323.dll
 0001:0001169e       ?staticMetaObject@QMainWindow@@SAPAVQMetaObject@@XZ 0041269e f   qt-mt323:qt-mt323.dll
 0001:000116a4       ??0QWidget@@QAE@PAV0@PBDI@Z 004126a4 f   qt-mt323:qt-mt323.dll
 0001:000116aa       ??1QWidget@@UAE@XZ         004126aa f   qt-mt323:qt-mt323.dll
 0001:000116b0       ?setMinimumSize@QWidget@@QAEXABVQSize@@@Z 004126b0 f   qt-mt323:qt-mt323.dll
 0001:000116b6       ?setMaximumSize@QWidget@@QAEXABVQSize@@@Z 004126b6 f   qt-mt323:qt-mt323.dll
 0001:000116bc       ?resize@QWidget@@QAEXABVQSize@@@Z 004126bc f   qt-mt323:qt-mt323.dll
 0001:000116c2       ?setFrameShape@QFrame@@QAEXW4Shape@1@@Z 004126c2 f   qt-mt323:qt-mt323.dll
 0001:000116c8       ?setFrameShadow@QFrame@@QAEXW4Shadow@1@@Z 004126c8 f   qt-mt323:qt-mt323.dll
 0001:000116ce       ??0QMainWindow@@QAE@PAVQWidget@@PBDI@Z 004126ce f   qt-mt323:qt-mt323.dll
 0001:000116d4       ??1QMainWindow@@UAE@XZ     004126d4 f   qt-mt323:qt-mt323.dll
 0001:000116da       ?statusBar@QMainWindow@@QBEPAVQStatusBar@@XZ 004126da f   qt-mt323:qt-mt323.dll
 0001:000116e0       ?centralWidget@QMainWindow@@QBEPAVQWidget@@XZ 004126e0 f   qt-mt323:qt-mt323.dll
 0001:000116e6       ??0QGroupBox@@QAE@PAVQWidget@@PBD@Z 004126e6 f   qt-mt323:qt-mt323.dll
 0001:000116ec       ??1QGroupBox@@UAE@XZ       004126ec f   qt-mt323:qt-mt323.dll
 0001:000116f2       ??0QListView@@QAE@PAVQWidget@@PBDI@Z 004126f2 f   qt-mt323:qt-mt323.dll
 0001:000116f8       ??1QListView@@UAE@XZ       004126f8 f   qt-mt323:qt-mt323.dll
 0001:000116fe       ?header@QListView@@QBEPAVQHeader@@XZ 004126fe f   qt-mt323:qt-mt323.dll
 0001:00011704       ??0QLineEdit@@QAE@PAVQWidget@@PBD@Z 00412704 f   qt-mt323:qt-mt323.dll
 0001:0001170a       ??1QLineEdit@@UAE@XZ       0041270a f   qt-mt323:qt-mt323.dll
 0001:00011710       ??0QHBoxLayout@@QAE@PAVQLayout@@HPBD@Z 00412710 f   qt-mt323:qt-mt323.dll
 0001:00011716       ?addChild@QScrollView@@UAEXPAVQWidget@@HH@Z 00412716 f   qt-mt323:qt-mt323.dll
 0001:0001171c       ?addColumn@QListView@@UAEHABVQIconSet@@ABVQString@@H@Z 0041271c f   qt-mt323:qt-mt323.dll
 0001:00011722       ?addColumn@QListView@@UAEHABVQString@@H@Z 00412722 f   qt-mt323:qt-mt323.dll
 0001:00011728       ?childEvent@QGroupBox@@MAEXPAVQChildEvent@@@Z 00412728 f   qt-mt323:qt-mt323.dll
 0001:0001172e       ?className@QGroupBox@@UBEPBDXZ 0041272e f   qt-mt323:qt-mt323.dll
 0001:00011734       ?className@QLineEdit@@UBEPBDXZ 00412734 f   qt-mt323:qt-mt323.dll
 0001:0001173a       ?className@QListView@@UBEPBDXZ 0041273a f   qt-mt323:qt-mt323.dll
 0001:00011740       ?className@QWidget@@UBEPBDXZ 00412740 f   qt-mt323:qt-mt323.dll
 0001:00011746       ?clear@QLineEdit@@UAEXXZ   00412746 f   qt-mt323:qt-mt323.dll
 0001:0001174c       ?clear@QListView@@UAEXXZ   0041274c f   qt-mt323:qt-mt323.dll
 0001:00011752       ?clearSelection@QListView@@UAEXXZ 00412752 f   qt-mt323:qt-mt323.dll
 0001:00011758       ?clearValidator@QLineEdit@@UAEXXZ 00412758 f   qt-mt323:qt-mt323.dll
 0001:0001175e       ?contentsContextMenuEvent@QListView@@MAEXPAVQContextMenuEvent@@@Z 0041275e f   qt-mt323:qt-mt323.dll
 0001:00011764       ?contentsDragEnterEvent@QListView@@MAEXPAVQDragEnterEvent@@@Z 00412764 f   qt-mt323:qt-mt323.dll
 0001:0001176a       ?contentsDragLeaveEvent@QListView@@MAEXPAVQDragLeaveEvent@@@Z 0041276a f   qt-mt323:qt-mt323.dll
 0001:00011770       ?contentsDragMoveEvent@QListView@@MAEXPAVQDragMoveEvent@@@Z 00412770 f   qt-mt323:qt-mt323.dll
 0001:00011776       ?contentsDropEvent@QListView@@MAEXPAVQDropEvent@@@Z 00412776 f   qt-mt323:qt-mt323.dll
 0001:0001177c       ?contentsMouseDoubleClickEvent@QListView@@MAEXPAVQMouseEvent@@@Z 0041277c f   qt-mt323:qt-mt323.dll
 0001:00011782       ?contentsMouseMoveEvent@QListView@@MAEXPAVQMouseEvent@@@Z 00412782 f   qt-mt323:qt-mt323.dll
 0001:00011788       ?contentsMousePressEvent@QListView@@MAEXPAVQMouseEvent@@@Z 00412788 f   qt-mt323:qt-mt323.dll
 0001:0001178e       ?contentsMouseReleaseEvent@QListView@@MAEXPAVQMouseEvent@@@Z 0041278e f   qt-mt323:qt-mt323.dll
 0001:00011794       ?contentsWheelEvent@QScrollView@@MAEXPAVQWheelEvent@@@Z 00412794 f   qt-mt323:qt-mt323.dll
 0001:0001179a       ?contextMenuEvent@QLineEdit@@MAEXPAVQContextMenuEvent@@@Z 0041279a f   qt-mt323:qt-mt323.dll
 0001:000117a0       ?contextMenuEvent@QScrollView@@MAEXPAVQContextMenuEvent@@@Z 004127a0 f   qt-mt323:qt-mt323.dll
 0001:000117a6       ?copy@QLineEdit@@UBEXXZ    004127a6 f   qt-mt323:qt-mt323.dll
 0001:000117ac       ?createPopupMenu@QLineEdit@@MAEPAVQPopupMenu@@XZ 004127ac f   qt-mt323:qt-mt323.dll
 0001:000117b2       ?cut@QLineEdit@@UAEXXZ     004127b2 f   qt-mt323:qt-mt323.dll
 0001:000117b8       ?deselect@QLineEdit@@UAEXXZ 004127b8 f   qt-mt323:qt-mt323.dll
 0001:000117be       ?dragEnterEvent@QLineEdit@@MAEXPAVQDragEnterEvent@@@Z 004127be f   qt-mt323:qt-mt323.dll
 0001:000117c4       ?dragLeaveEvent@QLineEdit@@MAEXPAVQDragLeaveEvent@@@Z 004127c4 f   qt-mt323:qt-mt323.dll
 0001:000117ca       ?dragMoveEvent@QLineEdit@@MAEXPAVQDragMoveEvent@@@Z 004127ca f   qt-mt323:qt-mt323.dll
 0001:000117d0       ?dragObject@QListView@@MAEPAVQDragObject@@XZ 004127d0 f   qt-mt323:qt-mt323.dll
 0001:000117d6       ?drawContents@QFrame@@MAEXPAVQPainter@@@Z 004127d6 f   qt-mt323:qt-mt323.dll
 0001:000117dc       ?drawContents@QLineEdit@@MAEXPAVQPainter@@@Z 004127dc f   qt-mt323:qt-mt323.dll
 0001:000117e2       ?drawContents@QScrollView@@EAEXPAVQPainter@@@Z 004127e2 f   qt-mt323:qt-mt323.dll
 0001:000117e8       ?drawContents@QScrollView@@MAEXPAVQPainter@@HHHH@Z 004127e8 f   qt-mt323:qt-mt323.dll
 0001:000117ee       ?drawContentsOffset@QListView@@MAEXPAVQPainter@@HHHHHH@Z 004127ee f   qt-mt323:qt-mt323.dll
 0001:000117f4       ?dropEvent@QLineEdit@@MAEXPAVQDropEvent@@@Z 004127f4 f   qt-mt323:qt-mt323.dll
 0001:000117fa       ?event@QGroupBox@@MAE_NPAVQEvent@@@Z 004127fa f   qt-mt323:qt-mt323.dll
 0001:00011800       ?event@QLineEdit@@MAE_NPAVQEvent@@@Z 00412800 f   qt-mt323:qt-mt323.dll
 0001:00011806       ?eventFilter@QListView@@UAE_NPAVQObject@@PAVQEvent@@@Z 00412806 f   qt-mt323:qt-mt323.dll
 0001:0001180c       ?focusInEvent@QGroupBox@@MAEXPAVQFocusEvent@@@Z 0041280c f   qt-mt323:qt-mt323.dll
 0001:00011812       ?focusInEvent@QLineEdit@@MAEXPAVQFocusEvent@@@Z 00412812 f   qt-mt323:qt-mt323.dll
 0001:00011818       ?focusInEvent@QListView@@MAEXPAVQFocusEvent@@@Z 00412818 f   qt-mt323:qt-mt323.dll
 0001:0001181e       ?focusNextPrevChild@QScrollView@@MAE_N_N@Z 0041281e f   qt-mt323:qt-mt323.dll
 0001:00011824       ?focusOutEvent@QLineEdit@@MAEXPAVQFocusEvent@@@Z 00412824 f   qt-mt323:qt-mt323.dll
 0001:0001182a       ?focusOutEvent@QListView@@MAEXPAVQFocusEvent@@@Z 0041282a f   qt-mt323:qt-mt323.dll
 0001:00011830       ?fontChange@QGroupBox@@MAEXABVQFont@@@Z 00412830 f   qt-mt323:qt-mt323.dll
 0001:00011836       ?fontChange@QScrollView@@MAEXABVQFont@@@Z 00412836 f   qt-mt323:qt-mt323.dll
 0001:0001183c       ?frameChanged@QScrollView@@MAEXXZ 0041283c f   qt-mt323:qt-mt323.dll
 0001:00011842       ?imComposeEvent@QLineEdit@@MAEXPAVQIMEvent@@@Z 00412842 f   qt-mt323:qt-mt323.dll
 0001:00011848       ?imEndEvent@QLineEdit@@MAEXPAVQIMEvent@@@Z 00412848 f   qt-mt323:qt-mt323.dll
 0001:0001184e       ?imStartEvent@QLineEdit@@MAEXPAVQIMEvent@@@Z 0041284e f   qt-mt323:qt-mt323.dll
 0001:00011854       ?insert@QLineEdit@@UAEXABVQString@@@Z 00412854 f   qt-mt323:qt-mt323.dll
 0001:0001185a       ?insertItem@QListView@@UAEXPAVQListViewItem@@@Z 0041285a f   qt-mt323:qt-mt323.dll
 0001:00011860       ?invertSelection@QListView@@UAEXXZ 00412860 f   qt-mt323:qt-mt323.dll
 0001:00011866       ?keyPressEvent@QLineEdit@@MAEXPAVQKeyEvent@@@Z 00412866 f   qt-mt323:qt-mt323.dll
 0001:0001186c       ?keyPressEvent@QListView@@MAEXPAVQKeyEvent@@@Z 0041286c f   qt-mt323:qt-mt323.dll
 0001:00011872       ?metaObject@QGroupBox@@UBEPAVQMetaObject@@XZ 00412872 f   qt-mt323:qt-mt323.dll
 0001:00011878       ?metaObject@QLineEdit@@UBEPAVQMetaObject@@XZ 00412878 f   qt-mt323:qt-mt323.dll
 0001:0001187e       ?metaObject@QListView@@UBEPAVQMetaObject@@XZ 0041287e f   qt-mt323:qt-mt323.dll
 0001:00011884       ?metaObject@QWidget@@UBEPAVQMetaObject@@XZ 00412884 f   qt-mt323:qt-mt323.dll
 0001:0001188a       ?minimumSizeHint@QLineEdit@@UBE?AVQSize@@XZ 0041288a f   qt-mt323:qt-mt323.dll
 0001:00011890       ?minimumSizeHint@QListView@@UBE?AVQSize@@XZ 00412890 f   qt-mt323:qt-mt323.dll
 0001:00011896       ?mouseDoubleClickEvent@QLineEdit@@MAEXPAVQMouseEvent@@@Z 00412896 f   qt-mt323:qt-mt323.dll
 0001:0001189c       ?mouseDoubleClickEvent@QScrollView@@MAEXPAVQMouseEvent@@@Z 0041289c f   qt-mt323:qt-mt323.dll
 0001:000118a2       ?mouseMoveEvent@QLineEdit@@MAEXPAVQMouseEvent@@@Z 004128a2 f   qt-mt323:qt-mt323.dll
 0001:000118a8       ?mouseMoveEvent@QScrollView@@MAEXPAVQMouseEvent@@@Z 004128a8 f   qt-mt323:qt-mt323.dll
 0001:000118ae       ?mousePressEvent@QLineEdit@@MAEXPAVQMouseEvent@@@Z 004128ae f   qt-mt323:qt-mt323.dll
 0001:000118b4       ?mousePressEvent@QScrollView@@MAEXPAVQMouseEvent@@@Z 004128b4 f   qt-mt323:qt-mt323.dll
 0001:000118ba       ?mouseReleaseEvent@QLineEdit@@MAEXPAVQMouseEvent@@@Z 004128ba f   qt-mt323:qt-mt323.dll
 0001:000118c0       ?mouseReleaseEvent@QScrollView@@MAEXPAVQMouseEvent@@@Z 004128c0 f   qt-mt323:qt-mt323.dll
 0001:000118c6       ?moveChild@QScrollView@@UAEXPAVQWidget@@HH@Z 004128c6 f   qt-mt323:qt-mt323.dll
 0001:000118cc       ?paintEmptyArea@QListView@@MAEXPAVQPainter@@ABVQRect@@@Z 004128cc f   qt-mt323:qt-mt323.dll
 0001:000118d2       ?paintEvent@QGroupBox@@MAEXPAVQPaintEvent@@@Z 004128d2 f   qt-mt323:qt-mt323.dll
 0001:000118d8       ?paste@QLineEdit@@UAEXXZ   004128d8 f   qt-mt323:qt-mt323.dll
 0001:000118de       ?qt_cast@QGroupBox@@UAEPAXPBD@Z 004128de f   qt-mt323:qt-mt323.dll
 0001:000118e4       ?qt_cast@QLineEdit@@UAEPAXPBD@Z 004128e4 f   qt-mt323:qt-mt323.dll
 0001:000118ea       ?qt_cast@QListView@@UAEPAXPBD@Z 004128ea f   qt-mt323:qt-mt323.dll
 0001:000118f0       ?qt_cast@QWidget@@UAEPAXPBD@Z 004128f0 f   qt-mt323:qt-mt323.dll
 0001:000118f6       ?qt_emit@QGroupBox@@UAE_NHPAUQUObject@@@Z 004128f6 f   qt-mt323:qt-mt323.dll
 0001:000118fc       ?qt_emit@QLineEdit@@UAE_NHPAUQUObject@@@Z 004128fc f   qt-mt323:qt-mt323.dll
 0001:00011902       ?qt_emit@QListView@@UAE_NHPAUQUObject@@@Z 00412902 f   qt-mt323:qt-mt323.dll
 0001:00011908       ?qt_emit@QWidget@@UAE_NHPAUQUObject@@@Z 00412908 f   qt-mt323:qt-mt323.dll
 0001:0001190e       ?qt_invoke@QGroupBox@@UAE_NHPAUQUObject@@@Z 0041290e f   qt-mt323:qt-mt323.dll
 0001:00011914       ?qt_invoke@QLineEdit@@UAE_NHPAUQUObject@@@Z 00412914 f   qt-mt323:qt-mt323.dll
 0001:0001191a       ?qt_invoke@QListView@@UAE_NHPAUQUObject@@@Z 0041291a f   qt-mt323:qt-mt323.dll
 0001:00011920       ?qt_invoke@QWidget@@UAE_NHPAUQUObject@@@Z 00412920 f   qt-mt323:qt-mt323.dll
 0001:00011926       ?qt_property@QGroupBox@@UAE_NHHPAVQVariant@@@Z 00412926 f   qt-mt323:qt-mt323.dll
 0001:0001192c       ?qt_property@QLineEdit@@UAE_NHHPAVQVariant@@@Z 0041292c f   qt-mt323:qt-mt323.dll
 0001:00011932       ?qt_property@QListView@@UAE_NHHPAVQVariant@@@Z 00412932 f   qt-mt323:qt-mt323.dll
 0001:00011938       ?qt_property@QWidget@@UAE_NHHPAVQVariant@@@Z 00412938 f   qt-mt323:qt-mt323.dll
 0001:0001193e       ?redo@QLineEdit@@UAEXXZ    0041293e f   qt-mt323:qt-mt323.dll
 0001:00011944       ?removeChild@QScrollView@@UAEXPAVQObject@@@Z 00412944 f   qt-mt323:qt-mt323.dll
 0001:0001194a       ?removeColumn@QListView@@UAEXH@Z 0041294a f   qt-mt323:qt-mt323.dll
 0001:00011950       ?removeItem@QListView@@UAEXPAVQListViewItem@@@Z 00412950 f   qt-mt323:qt-mt323.dll
 0001:00011956       ?resize@QScrollView@@UAEXHH@Z 00412956 f   qt-mt323:qt-mt323.dll
 0001:0001195c       ?resizeContents@QScrollView@@UAEXHH@Z 0041295c f   qt-mt323:qt-mt323.dll
 0001:00011962       ?resizeEvent@QGroupBox@@MAEXPAVQResizeEvent@@@Z 00412962 f   qt-mt323:qt-mt323.dll
 0001:00011968       ?resizeEvent@QLineEdit@@MAEXPAVQResizeEvent@@@Z 00412968 f   qt-mt323:qt-mt323.dll
 0001:0001196e       ?resizeEvent@QListView@@MAEXPAVQResizeEvent@@@Z 0041296e f   qt-mt323:qt-mt323.dll
 0001:00011974       ?selectAll@QLineEdit@@UAEXXZ 00412974 f   qt-mt323:qt-mt323.dll
 0001:0001197a       ?selectAll@QListView@@UAEX_N@Z 0041297a f   qt-mt323:qt-mt323.dll
 0001:00011980       ?setAlignment@QGroupBox@@UAEXH@Z 00412980 f   qt-mt323:qt-mt323.dll
 0001:00011986       ?setAlignment@QLineEdit@@UAEXH@Z 00412986 f   qt-mt323:qt-mt323.dll
 0001:0001198c       ?setAllColumnsShowFocus@QListView@@UAEX_N@Z 0041298c f   qt-mt323:qt-mt323.dll
 0001:00011992       ?setColumnAlignment@QListView@@UAEXHH@Z 00412992 f   qt-mt323:qt-mt323.dll
 0001:00011998       ?setColumnLayout@QGroupBox@@UAEXHW4Orientation@Qt@@@Z 00412998 f   qt-mt323:qt-mt323.dll
 0001:0001199e       ?setColumnText@QListView@@UAEXHABVQIconSet@@ABVQString@@@Z 0041299e f   qt-mt323:qt-mt323.dll
 0001:000119a4       ?setColumnText@QListView@@UAEXHABVQString@@@Z 004129a4 f   qt-mt323:qt-mt323.dll
 0001:000119aa       ?setColumnWidth@QListView@@UAEXHH@Z 004129aa f   qt-mt323:qt-mt323.dll
 0001:000119b0       ?setColumnWidthMode@QListView@@UAEXHW4WidthMode@1@@Z 004129b0 f   qt-mt323:qt-mt323.dll
 0001:000119b6       ?setContentsPos@QListView@@UAEXHH@Z 004129b6 f   qt-mt323:qt-mt323.dll
 0001:000119bc       ?setCornerWidget@QScrollView@@UAEXPAVQWidget@@@Z 004129bc f   qt-mt323:qt-mt323.dll
 0001:000119c2       ?setCurrentItem@QListView@@UAEXPAVQListViewItem@@@Z 004129c2 f   qt-mt323:qt-mt323.dll
 0001:000119c8       ?setCursorPosition@QLineEdit@@UAEXH@Z 004129c8 f   qt-mt323:qt-mt323.dll
 0001:000119ce       ?setDefaultRenameAction@QListView@@UAEXW4RenameAction@1@@Z 004129ce f   qt-mt323:qt-mt323.dll
 0001:000119d4       ?setDragAutoScroll@QScrollView@@UAEX_N@Z 004129d4 f   qt-mt323:qt-mt323.dll
 0001:000119da       ?setDragEnabled@QLineEdit@@UAEX_N@Z 004129da f   qt-mt323:qt-mt323.dll
 0001:000119e0       ?setEchoMode@QLineEdit@@UAEXW4EchoMode@1@@Z 004129e0 f   qt-mt323:qt-mt323.dll
 0001:000119e6       ?setEnabled@QGroupBox@@UAEX_N@Z 004129e6 f   qt-mt323:qt-mt323.dll
 0001:000119ec       ?setEnabled@QScrollView@@UAEX_N@Z 004129ec f   qt-mt323:qt-mt323.dll
 0001:000119f2       ?setFont@QLineEdit@@UAEXABVQFont@@@Z 004129f2 f   qt-mt323:qt-mt323.dll
 0001:000119f8       ?setFont@QListView@@UAEXABVQFont@@@Z 004129f8 f   qt-mt323:qt-mt323.dll
 0001:000119fe       ?setFrame@QLineEdit@@UAEX_N@Z 004129fe f   qt-mt323:qt-mt323.dll
 0001:00011a04       ?setHBarGeometry@QScrollView@@MAEXAAVQScrollBar@@HHHH@Z 00412a04 f   qt-mt323:qt-mt323.dll
 0001:00011a0a       ?setHScrollBarMode@QScrollView@@UAEXW4ScrollBarMode@1@@Z 00412a0a f   qt-mt323:qt-mt323.dll
 0001:00011a10       ?setItemMargin@QListView@@UAEXH@Z 00412a10 f   qt-mt323:qt-mt323.dll
 0001:00011a16       ?setMargins@QScrollView@@MAEXHHHH@Z 00412a16 f   qt-mt323:qt-mt323.dll
 0001:00011a1c       ?setMaxLength@QLineEdit@@UAEXH@Z 00412a1c f   qt-mt323:qt-mt323.dll
 0001:00011a22       ?setMultiSelection@QListView@@UAEX_N@Z 00412a22 f   qt-mt323:qt-mt323.dll
 0001:00011a28       ?setOpen@QListView@@UAEXPAVQListViewItem@@_N@Z 00412a28 f   qt-mt323:qt-mt323.dll
 0001:00011a2e       ?setPalette@QLineEdit@@UAEXABVQPalette@@@Z 00412a2e f   qt-mt323:qt-mt323.dll
 0001:00011a34       ?setPalette@QListView@@UAEXABVQPalette@@@Z 00412a34 f   qt-mt323:qt-mt323.dll
 0001:00011a3a       ?setReadOnly@QLineEdit@@UAEX_N@Z 00412a3a f   qt-mt323:qt-mt323.dll
 0001:00011a40       ?setResizeMode@QListView@@UAEXW4ResizeMode@1@@Z 00412a40 f   qt-mt323:qt-mt323.dll
 0001:00011a46       ?setResizePolicy@QScrollView@@UAEXW4ResizePolicy@1@@Z 00412a46 f   qt-mt323:qt-mt323.dll
 0001:00011a4c       ?setRootIsDecorated@QListView@@UAEX_N@Z 00412a4c f   qt-mt323:qt-mt323.dll
 0001:00011a52       ?setSelected@QListView@@UAEXPAVQListViewItem@@_N@Z 00412a52 f   qt-mt323:qt-mt323.dll
 0001:00011a58       ?setSelection@QLineEdit@@UAEXHH@Z 00412a58 f   qt-mt323:qt-mt323.dll
 0001:00011a5e       ?setShowSortIndicator@QListView@@UAEX_N@Z 00412a5e f   qt-mt323:qt-mt323.dll
 0001:00011a64       ?setShowToolTips@QListView@@UAEX_N@Z 00412a64 f   qt-mt323:qt-mt323.dll
 0001:00011a6a       ?setSorting@QListView@@UAEXH_N@Z 00412a6a f   qt-mt323:qt-mt323.dll
 0001:00011a70       ?setText@QLineEdit@@UAEXABVQString@@@Z 00412a70 f   qt-mt323:qt-mt323.dll
 0001:00011a76       ?setTitle@QGroupBox@@UAEXABVQString@@@Z 00412a76 f   qt-mt323:qt-mt323.dll
 0001:00011a7c       ?setTreeStepSize@QListView@@UAEXH@Z 00412a7c f   qt-mt323:qt-mt323.dll
 0001:00011a82       ?setVBarGeometry@QScrollView@@MAEXAAVQScrollBar@@HHHH@Z 00412a82 f   qt-mt323:qt-mt323.dll
 0001:00011a88       ?setVScrollBarMode@QScrollView@@UAEXW4ScrollBarMode@1@@Z 00412a88 f   qt-mt323:qt-mt323.dll
 0001:00011a8e       ?setValidator@QLineEdit@@UAEXPBVQValidator@@@Z 00412a8e f   qt-mt323:qt-mt323.dll
 0001:00011a94       ?show@QListView@@UAEXXZ    00412a94 f   qt-mt323:qt-mt323.dll
 0001:00011a9a       ?showEvent@QListView@@MAEXPAVQShowEvent@@@Z 00412a9a f   qt-mt323:qt-mt323.dll
 0001:00011aa0       ?sizeHint@QGroupBox@@UBE?AVQSize@@XZ 00412aa0 f   qt-mt323:qt-mt323.dll
 0001:00011aa6       ?sizeHint@QLineEdit@@UBE?AVQSize@@XZ 00412aa6 f   qt-mt323:qt-mt323.dll
 0001:00011aac       ?sizeHint@QListView@@UBE?AVQSize@@XZ 00412aac f   qt-mt323:qt-mt323.dll
 0001:00011ab2       ?sizeHint@QWidget@@UBE?AVQSize@@XZ 00412ab2 f   qt-mt323:qt-mt323.dll
 0001:00011ab8       ?sort@QListView@@UAEXXZ    00412ab8 f   qt-mt323:qt-mt323.dll
 0001:00011abe       ?startDrag@QListView@@MAEXXZ 00412abe f   qt-mt323:qt-mt323.dll
 0001:00011ac4       ?styleChange@QListView@@MAEXAAVQStyle@@@Z 00412ac4 f   qt-mt323:qt-mt323.dll
 0001:00011aca       ?takeItem@QListView@@UAEXPAVQListViewItem@@@Z 00412aca f   qt-mt323:qt-mt323.dll
 0001:00011ad0       ?undo@QLineEdit@@UAEXXZ    00412ad0 f   qt-mt323:qt-mt323.dll
 0001:00011ad6       ?viewportContextMenuEvent@QScrollView@@MAEXPAVQContextMenuEvent@@@Z 00412ad6 f   qt-mt323:qt-mt323.dll
 0001:00011adc       ?viewportDragEnterEvent@QScrollView@@MAEXPAVQDragEnterEvent@@@Z 00412adc f   qt-mt323:qt-mt323.dll
 0001:00011ae2       ?viewportDragLeaveEvent@QScrollView@@MAEXPAVQDragLeaveEvent@@@Z 00412ae2 f   qt-mt323:qt-mt323.dll
 0001:00011ae8       ?viewportDragMoveEvent@QScrollView@@MAEXPAVQDragMoveEvent@@@Z 00412ae8 f   qt-mt323:qt-mt323.dll
 0001:00011aee       ?viewportDropEvent@QScrollView@@MAEXPAVQDropEvent@@@Z 00412aee f   qt-mt323:qt-mt323.dll
 0001:00011af4       ?viewportMouseDoubleClickEvent@QScrollView@@MAEXPAVQMouseEvent@@@Z 00412af4 f   qt-mt323:qt-mt323.dll
 0001:00011afa       ?viewportMouseMoveEvent@QScrollView@@MAEXPAVQMouseEvent@@@Z 00412afa f   qt-mt323:qt-mt323.dll
 0001:00011b00       ?viewportMousePressEvent@QScrollView@@MAEXPAVQMouseEvent@@@Z 00412b00 f   qt-mt323:qt-mt323.dll
 0001:00011b06       ?viewportMouseReleaseEvent@QScrollView@@MAEXPAVQMouseEvent@@@Z 00412b06 f   qt-mt323:qt-mt323.dll
 0001:00011b0c       ?viewportPaintEvent@QScrollView@@MAEXPAVQPaintEvent@@@Z 00412b0c f   qt-mt323:qt-mt323.dll
 0001:00011b12       ?viewportResizeEvent@QListView@@MAEXPAVQResizeEvent@@@Z 00412b12 f   qt-mt323:qt-mt323.dll
 0001:00011b18       ?viewportWheelEvent@QScrollView@@MAEXPAVQWheelEvent@@@Z 00412b18 f   qt-mt323:qt-mt323.dll
 0001:00011b1e       ?wheelEvent@QScrollView@@MAEXPAVQWheelEvent@@@Z 00412b1e f   qt-mt323:qt-mt323.dll
 0001:00011b24       ?windowActivationChange@QLineEdit@@MAEX_N@Z 00412b24 f   qt-mt323:qt-mt323.dll
 0001:00011b2a       ?windowActivationChange@QListView@@MAEX_N@Z 00412b2a f   qt-mt323:qt-mt323.dll
 0001:00011b30       ??0QtSingleApplication@@QAE@ABVQString@@AAHPAPADW4Type@QApplication@@@Z 00412b30 f   QTSingleApplication:qtsingleapplication.obj
 0001:00011bd0       ??0QtSingletonPrivate@@QAE@XZ 00412bd0 f i QTSingleApplication:qtsingleapplication.obj
 0001:00011be0       ??1QtSingleApplication@@UAE@XZ 00412be0 f   QTSingleApplication:qtsingleapplication.obj
 0001:00011c60       ??1QtSingletonPrivate@@QAE@XZ 00412c60 f i QTSingleApplication:qtsingleapplication.obj
 0001:00011c70       ??_GQtSingleApplication@@UAEPAXI@Z 00412c70 f i QTSingleApplication:qtsingleapplication.obj
 0001:00011c70       ??_EQtSingleApplication@@UAEPAXI@Z 00412c70 f i QTSingleApplication:qtsingleapplication.obj
 0001:00011ca0       ??_GQtSingletonPrivate@@QAEPAXI@Z 00412ca0 f i QTSingleApplication:qtsingleapplication.obj
 0001:00011cd0       ?activateMainWidget@QtSingleApplication@@UAEXXZ 00412cd0 f   QTSingleApplication:qtsingleapplication.obj
 0001:00011d00       ?id@QtSingleApplication@@QBE?AVQString@@XZ 00412d00 f   QTSingleApplication:qtsingleapplication.obj
 0001:00011d20       ?metaObject@QtSingleApplication@@UBEPAVQMetaObject@@XZ 00412d20 f i QTSingleApplication:qtsingleapplication.obj
 0001:00011d30       ?initialize@QtSingleApplication@@QAEX_N@Z 00412d30 f   QTSingleApplication:qtsingleapplication_win.obj
 0001:00011e20       ?isRunning@QtSingleApplication@@QBE_NXZ 00412e20 f   QTSingleApplication:qtsingleapplication_win.obj
 0001:00011eb0       ?sendMessage@QtSingleApplication@@QAE_NABVQString@@H@Z 00412eb0 f   QTSingleApplication:qtsingleapplication_win.obj
 0001:00011f90       ?sysCleanup@QtSingleApplication@@AAEXXZ 00412f90 f   QTSingleApplication:qtsingleapplication_win.obj
 0001:00011fa0       ?sysInit@QtSingleApplication@@AAEXXZ 00412fa0 f   QTSingleApplication:qtsingleapplication_win.obj
 0001:00011fc0       ?winEventFilter@QtSingleApplication@@MAE_NPAUtagMSG@@@Z 00412fc0 f   QTSingleApplication:qtsingleapplication_win.obj
 0001:00012060       ?className@QtSingleApplication@@UBEPBDXZ 00413060 f   QTSingleApplication:moc_qtsingleapplication.obj
 0001:00012070       ?messageReceived@QtSingleApplication@@IAEXABVQString@@@Z 00413070 f   QTSingleApplication:moc_qtsingleapplication.obj
 0001:000120e0       ?qt_cast@QtSingleApplication@@UAEPAXPBD@Z 004130e0 f   QTSingleApplication:moc_qtsingleapplication.obj
 0001:00012140       ?qt_emit@QtSingleApplication@@UAE_NHPAUQUObject@@@Z 00413140 f   QTSingleApplication:moc_qtsingleapplication.obj
 0001:00012180       ?qt_invoke@QtSingleApplication@@UAE_NHPAUQUObject@@@Z 00413180 f   QTSingleApplication:moc_qtsingleapplication.obj
 0001:00012200       ?qt_property@QtSingleApplication@@UAE_NHHPAVQVariant@@@Z 00413200 f   QTSingleApplication:moc_qtsingleapplication.obj
 0001:00012210       ?qt_static_property@QtSingleApplication@@SA_NPAVQObject@@HHPAVQVariant@@@Z 00413210 f   QTSingleApplication:moc_qtsingleapplication.obj
 0001:00012220       ?staticMetaObject@QtSingleApplication@@SAPAVQMetaObject@@XZ 00413220 f   QTSingleApplication:moc_qtsingleapplication.obj
 0001:00012380       ?tr@QtSingleApplication@@SA?AVQString@@PBD0@Z 00413380 f   QTSingleApplication:moc_qtsingleapplication.obj
 0001:000123d0       ?trUtf8@QtSingleApplication@@SA?AVQString@@PBD0@Z 004133d0 f   QTSingleApplication:moc_qtsingleapplication.obj
 0001:0001241c       _GetPrivateProfileIntA@16  0041341c f   kernel32:KERNEL32.dll
 0001:00012422       _GetPrivateProfileStringA@24 00413422 f   kernel32:KERNEL32.dll
 0001:00012428       _WritePrivateProfileStringA@16 00413428 f   kernel32:KERNEL32.dll
 0001:0001242e       _FreeLibrary@4             0041342e f   kernel32:KERNEL32.dll
 0001:00012434       _GetProcAddress@8          00413434 f   kernel32:KERNEL32.dll
 0001:0001243a       _LocalFree@4               0041343a f   kernel32:KERNEL32.dll
 0001:00012440       _GetLastError@0            00413440 f   kernel32:KERNEL32.dll
 0001:00012446       _FormatMessageA@28         00413446 f   kernel32:KERNEL32.dll
 0001:0001244c       _lstrcmpA@8                0041344c f   kernel32:KERNEL32.dll
 0001:00012452       _lstrcpynA@12              00413452 f   kernel32:KERNEL32.dll
 0001:00012458       _lstrcpyA@8                00413458 f   kernel32:KERNEL32.dll
 0001:0001245e       _lstrcatA@8                0041345e f   kernel32:KERNEL32.dll
 0001:00012464       _lstrlenA@4                00413464 f   kernel32:KERNEL32.dll
 0001:0001246a       _LoadLibraryA@4            0041346a f   kernel32:KERNEL32.dll
 0001:00012470       _OutputDebugStringA@4      00413470 f   kernel32:KERNEL32.dll
 0001:00012476       _WriteFile@20              00413476 f   kernel32:KERNEL32.dll
 0001:0001247c       _SetEndOfFile@4            0041347c f   kernel32:KERNEL32.dll
 0001:00012482       _SetFilePointer@16         00413482 f   kernel32:KERNEL32.dll
 0001:00012488       _CloseHandle@4             00413488 f   kernel32:KERNEL32.dll
 0001:0001248e       _GetSystemTime@4           0041348e f   kernel32:KERNEL32.dll
 0001:00012494       _GetLocalTime@4            00413494 f   kernel32:KERNEL32.dll
 0001:0001249a       _CreateFileA@28            0041349a f   kernel32:KERNEL32.dll
 0001:000124a0       _wsprintfA                 004134a0 f   user32:USER32.dll
 0001:000124a6       _SendMessageA@16           004134a6 f   user32:USER32.dll
 0001:000124ac       _PostMessageA@16           004134ac f   user32:USER32.dll
 0001:000124b2       _DefWindowProcA@16         004134b2 f   user32:USER32.dll
 0001:000124b8       _RegisterClassA@4          004134b8 f   user32:USER32.dll
 0001:000124be       _CreateWindowExA@48        004134be f   user32:USER32.dll
 0001:000124c4       _IsWindow@4                004134c4 f   user32:USER32.dll
 0001:000124ca       _DestroyWindow@4           004134ca f   user32:USER32.dll
 0001:000124d0       _GetWindowLongA@8          004134d0 f   user32:USER32.dll
 0001:000124d6       _SetWindowLongA@12         004134d6 f   user32:USER32.dll
 0001:000124dc       _FindWindowA@8             004134dc f   user32:USER32.dll
 0001:000124e2       _UnregisterClassA@8        004134e2 f   user32:USER32.dll
 0001:000124e8       _MessageBoxA@16            004134e8 f   user32:USER32.dll
 0001:000124ee       _SendMessageTimeoutA@28    004134ee f   user32:USER32.dll
 0001:000124f4       _GetStockObject@4          004134f4 f   gdi32:GDI32.dll
 0001:000124fa       ??3@YAXPAX@Z               004134fa f   MSVCRT:MSVCR120.dll
 0001:00012500       @__security_check_cookie@4 00413500 f   MSVCRT:secchk.obj
 0001:00012510       ___CxxFrameHandler3        00413510 f   MSVCRT:MSVCR120.dll
 0001:00012516       ??0type_info@@AAE@ABV0@@Z  00413516 f   MSVCRT:ti_inst.obj
 0001:00012521       ??4type_info@@AAEAAV0@ABV0@@Z 00413521 f   MSVCRT:ti_inst.obj
 0001:00012526       ??_Etype_info@@UAEPAXI@Z   00413526 f i MSVCRT:ti_inst.obj
 0001:00012570       ___atonexitinit            00413570 f   MSVCRT:atonexit.obj
 0001:000125ac       __onexit                   004135ac f   MSVCRT:atonexit.obj
 0001:00012655       _atexit                    00413655 f   MSVCRT:atonexit.obj
 0001:0001266a       ??2@YAPAXI@Z               0041366a f   MSVCRT:MSVCR120.dll
 0001:00012670       ___raise_securityfailure   00413670 f   MSVCRT:gs_report.obj
 0001:000126ad       ___report_gsfailure        004136ad f   MSVCRT:gs_report.obj
 0001:000127a8       ___report_rangecheckfailure 004137a8 f   MSVCRT:gs_report.obj
 0001:000127b4       ___report_securityfailure  004137b4 f   MSVCRT:gs_report.obj
 0001:00012884       ___report_securityfailureEx 00413884 f   MSVCRT:gs_report.obj
 0001:0001299a       _atoi                      0041399a f   MSVCRT:MSVCR120.dll
 0001:000129a0       _sprintf                   004139a0 f   MSVCRT:MSVCR120.dll
 0001:000129a6       _getenv                    004139a6 f   MSVCRT:MSVCR120.dll
 0001:000129b0       ??_L@YGXPAXIHP6EX0@Z1@Z    004139b0 f   MSVCRT:ehvecctr.obj
 0001:00012a12       ??_M@YGXPAXIHP6EX0@Z@Z     00413a12 f   MSVCRT:ehvecdtr.obj
 0001:00012a9a       ?__ArrayUnwind@@YGXPAXIHP6EX0@Z@Z 00413a9a f   MSVCRT:ehvecdtr.obj
 0001:00012bfc       _NtCurrentTeb              00413bfc f i MSVCRT:crtexew.obj
 0001:00012c03       _WinMainCRTStartup         00413c03 f   MSVCRT:crtexew.obj
 0001:00012e08       __purecall                 00413e08 f   MSVCRT:MSVCR120.dll
 0001:00012e10       __alloca_probe             00413e10 f   MSVCRT:chkstk.obj
 0001:00012e10       __chkstk                   00413e10 f   MSVCRT:chkstk.obj
 0001:00012e40       __alloca_probe_16          00413e40 f   MSVCRT:alloca16.obj
 0001:00012e56       __alloca_probe_8           00413e56     MSVCRT:alloca16.obj
 0001:00012e6c       _memcpy                    00413e6c f   MSVCRT:MSVCR120.dll
 0001:00012e72       _memset                    00413e72 f   MSVCRT:MSVCR120.dll
 0001:00012e78       _vsprintf                  00413e78 f   MSVCRT:MSVCR120.dll
 0001:00012e7e       _strncpy                   00413e7e f   MSVCRT:MSVCR120.dll
 0001:00012e84       _strtok                    00413e84 f   MSVCRT:MSVCR120.dll
 0001:00012e8a       __localtime64              00413e8a f   MSVCRT:MSVCR120.dll
 0001:00012e90       __time64                   00413e90 f   MSVCRT:MSVCR120.dll
 0001:00012e96       __mkdir                    00413e96 f   MSVCRT:MSVCR120.dll
 0001:00012e9c       _strpbrk                   00413e9c f   MSVCRT:MSVCR120.dll
 0001:00012ea2       _free                      00413ea2 f   MSVCRT:MSVCR120.dll
 0001:00012ea8       _malloc                    00413ea8 f   MSVCRT:MSVCR120.dll
 0001:00012eae       ??1type_info@@UAE@XZ       00413eae f   MSVCRT:MSVCR120.dll
 0001:00012eb4       __lock                     00413eb4 f   MSVCRT:MSVCR120.dll
 0001:00012eba       __unlock                   00413eba f   MSVCRT:MSVCR120.dll
 0001:00012ec0       __calloc_crt               00413ec0 f   MSVCRT:MSVCR120.dll
 0001:00012ec6       ___dllonexit               00413ec6 f   MSVCRT:MSVCR120.dll
 0001:00012ed0       __SEH_prolog4              00413ed0 f   MSVCRT:sehprolg4.obj
 0001:00012f15       __SEH_epilog4              00413f15 f   MSVCRT:sehprolg4.obj
 0001:00012f29       __except_handler4          00413f29 f   MSVCRT:chandler4gs.obj
 0001:00012f4c       __crt_debugger_hook        00413f4c f   MSVCRT:MSVCR120.dll
 0001:00012f52       ___crtUnhandledException   00413f52 f   MSVCRT:MSVCR120.dll
 0001:00012f58       ___crtTerminateProcess     00413f58 f   MSVCRT:MSVCR120.dll
 0001:00012f5e       ?terminate@@YAXXZ          00413f5e f   MSVCRT:MSVCR120.dll
 0001:00012f64       ?__CxxUnhandledExceptionFilter@@YGJPAU_EXCEPTION_POINTERS@@@Z 00413f64 f   MSVCRT:unhandld.obj
 0001:00012fa5       ___CxxSetUnhandledExceptionFilter 00413fa5 f   MSVCRT:unhandld.obj
 0001:00012fb4       __XcptFilter               00413fb4 f   MSVCRT:MSVCR120.dll
 0001:00012fba       ___crtGetShowWindowMode    00413fba f   MSVCRT:MSVCR120.dll
 0001:00012fc0       __amsg_exit                00413fc0 f   MSVCRT:MSVCR120.dll
 0001:00012fc6       __setargv                  00413fc6 f   MSVCRT:dllargv.obj
 0001:00012fca       ___getmainargs             00413fca f   MSVCRT:MSVCR120.dll
 0001:00012fd0       ___set_app_type            00413fd0 f   MSVCRT:MSVCR120.dll
 0001:00012fe0       __FindPESection            00413fe0 f   MSVCRT:pesect.obj
 0001:00013030       __IsNonwritableInCurrentImage 00414030 f   MSVCRT:pesect.obj
 0001:000130f0       __ValidateImageBase        004140f0 f   MSVCRT:pesect.obj
 0001:00013122       _exit                      00414122 f   MSVCRT:MSVCR120.dll
 0001:00013128       __exit                     00414128 f   MSVCRT:MSVCR120.dll
 0001:0001312e       __cexit                    0041412e f   MSVCRT:MSVCR120.dll
 0001:00013134       ___security_init_cookie    00414134 f   MSVCRT:gs_support.obj
 0001:000131d0       __matherr                  004141d0 f   MSVCRT:merr.obj
 0001:000131d4       __ismbblead                004141d4 f   MSVCRT:MSVCR120.dll
 0001:000131da       __RTC_Initialize           004141da f   MSVCRT:initsect.obj
 0001:000131fa       __RTC_Terminate            004141fa f   MSVCRT:initsect.obj
 0001:0001321a       __configthreadlocale       0041421a f   MSVCRT:MSVCR120.dll
 0001:00013220       __invoke_watson_if_error   00414220 f i MSVCRT:fp8.obj
 0001:00013240       __setdefaultprecision      00414240 f   MSVCRT:fp8.obj
 0001:00013268       ___setusermatherr          00414268 f   MSVCRT:MSVCR120.dll
 0001:0001326e       __initterm_e               0041426e f   MSVCRT:MSVCR120.dll
 0001:00013274       __initterm                 00414274 f   MSVCRT:MSVCR120.dll
 0001:0001327a       __except_handler4_common   0041427a f   MSVCRT:MSVCR120.dll
 0001:00013280       ___crtSetUnhandledExceptionFilter 00414280 f   MSVCRT:MSVCR120.dll
 0001:00013286       __invoke_watson            00414286 f   MSVCRT:MSVCR120.dll
 0001:0001328c       __controlfp_s              0041428c f   MSVCRT:MSVCR120.dll
 0001:000132a0       ??0asyncPost@@QAE@IJH@Z    004142a0 f   asyncPost:asyncPost.obj
 0001:000132f0       ??1asyncPost@@UAE@XZ       004142f0 f   asyncPost:asyncPost.obj
 0001:00013310       ??_EasyncPost@@UAEPAXI@Z   00414310 f i asyncPost:asyncPost.obj
 0001:00013310       ??_GasyncPost@@UAEPAXI@Z   00414310 f i asyncPost:asyncPost.obj
 0001:00013350       ?lParam@asyncPost@@QAEJXZ  00414350 f   asyncPost:asyncPost.obj
 0001:00013360       ?wParam@asyncPost@@QAEIXZ  00414360 f   asyncPost:asyncPost.obj
 0001:00013364       _GetFileVersionInfoSizeA@8 00414364 f   version:VERSION.dll
 0001:0001336a       _GetFileVersionInfoA@16    0041436a f   version:VERSION.dll
 0001:00013370       _VerQueryValueA@16         00414370 f   version:VERSION.dll
 0001:00013376       ?raise@QWidget@@QAEXXZ     00414376 f   qt-mt323:qt-mt323.dll
 0001:0001337c       ??0QApplication@@QAE@AAHPAPADW4Type@0@@Z 0041437c f   qt-mt323:qt-mt323.dll
 0001:00013382       ??1QApplication@@UAE@XZ    00414382 f   qt-mt323:qt-mt323.dll
 0001:00013388       ?commitData@QApplication@@UAEXAAVQSessionManager@@@Z 00414388 f   qt-mt323:qt-mt323.dll
 0001:0001338e       ?event@QApplication@@MAE_NPAVQEvent@@@Z 0041438e f   qt-mt323:qt-mt323.dll
 0001:00013394       ?notify@QApplication@@UAE_NPAVQObject@@PAVQEvent@@@Z 00414394 f   qt-mt323:qt-mt323.dll
 0001:0001339a       ?polish@QApplication@@UAEXPAVQWidget@@@Z 0041439a f   qt-mt323:qt-mt323.dll
 0001:000133a0       ?saveState@QApplication@@UAEXAAVQSessionManager@@@Z 004143a0 f   qt-mt323:qt-mt323.dll
 0001:000133a6       ??1QCString@@UAE@XZ        004143a6 f   qt-mt323:qt-mt323.dll
 0001:000133ac       ?local8Bit@QString@@QBE?AVQCString@@XZ 004143ac f   qt-mt323:qt-mt323.dll
 0001:000133b2       ?fromUcs2@QString@@SA?AV1@PBG@Z 004143b2 f   qt-mt323:qt-mt323.dll
 0001:000133b8       ?ucs2@QString@@QBEPBGXZ    004143b8 f   qt-mt323:qt-mt323.dll
 0001:000133be       ?winEventFilter@QApplication@@UAE_NPAUtagMSG@@@Z 004143be f   qt-mt323:qt-mt323.dll
 0001:000133c4       ?activate_signal@QObject@@IAEXHVQString@@@Z 004143c4 f   qt-mt323:qt-mt323.dll
 0001:000133ca       ?qt_cast@QApplication@@UAEPAXPBD@Z 004143ca f   qt-mt323:qt-mt323.dll
 0001:000133d0       ?qt_invoke@QApplication@@UAE_NHPAUQUObject@@@Z 004143d0 f   qt-mt323:qt-mt323.dll
 0001:000133d6       ?qt_emit@QApplication@@UAE_NHPAUQUObject@@@Z 004143d6 f   qt-mt323:qt-mt323.dll
 0001:000133dc       ?qt_property@QApplication@@UAE_NHHPAVQVariant@@@Z 004143dc f   qt-mt323:qt-mt323.dll
 0001:000133e2       ?staticMetaObject@QApplication@@SAPAVQMetaObject@@XZ 004143e2 f   qt-mt323:qt-mt323.dll
 0001:000133e8       ?set@QUType_bool@@QAEXPAUQUObject@@_N@Z 004143e8 f   qt-mt323:qt-mt323.dll
 0001:000133ee       _EncodePointer@4           004143ee f   kernel32:KERNEL32.dll
 0001:000133f4       _DecodePointer@4           004143f4 f   kernel32:KERNEL32.dll
 0001:000133fa       _IsDebuggerPresent@0       004143fa f   kernel32:KERNEL32.dll
 0001:00013400       _IsProcessorFeaturePresent@4 00414400 f   kernel32:KERNEL32.dll
 0001:00013406       _QueryPerformanceCounter@4 00414406 f   kernel32:KERNEL32.dll
 0001:0001340c       _GetCurrentProcessId@0     0041440c f   kernel32:KERNEL32.dll
 0001:00013412       _GetCurrentThreadId@0      00414412 f   kernel32:KERNEL32.dll
 0001:00013418       _GetSystemTimeAsFileTime@4 00414418 f   kernel32:KERNEL32.dll
 0001:0001341e       _strcpy                    0041441e f   MSVCRT:MSVCR120.dll
 0001:00013424       _strlen                    00414424 f   MSVCRT:MSVCR120.dll
 0001:0001342a       ?deleteData@QGArray@@MAEXPAUarray_data@1@@Z 0041442a f   qt-mt323:qt-mt323.dll
 0001:00013430       ?newData@QGArray@@MAEPAUarray_data@1@XZ 00414430 f   qt-mt323:qt-mt323.dll
 0001:00013436       ??1QGArray@@MAE@XZ         00414436 f   qt-mt323:qt-mt323.dll
 0001:0001343c       ?qWinMain@@YAXPAUHINSTANCE__@@0PADHAAHAAV?$QMemArray@PAD@@@Z 0041443c f   qt-mt323:qt-mt323.dll
 0001:00013442       ??0QGArray@@IAE@H@Z        00414442 f   qt-mt323:qt-mt323.dll
 0001:00013448       ?duplicate@QGArray@@IAEAAV1@ABV1@@Z 00414448 f   qt-mt323:qt-mt323.dll
 0001:0001344e       ??1QGList@@MAE@XZ          0041444e f   qt-mt323:qt-mt323.dll
 0001:00013454       ?clear@QGList@@MAEXXZ      00414454 f   qt-mt323:qt-mt323.dll
 0002:00000000       ___xc_a                    0041b000     MSVCRT:cinitexe.obj
 0002:00000330       ___xc_z                    0041b330     MSVCRT:cinitexe.obj
 0002:00000434       ___xi_a                    0041b434     MSVCRT:cinitexe.obj
 0002:00000844       ___xi_z                    0041b844     MSVCRT:cinitexe.obj
 0002:00000954       ??_7infodriverIf@@6BQObject@@@ 0041b954     infodriverIf.obj
 0002:000009b8       ??_7infodriverIf@@6BcXInfo@@@ 0041b9b8     infodriverIf.obj
 0002:000009c4       ??_7infodriverIf@@6BcPanel@@@ 0041b9c4     infodriverIf.obj
 0002:000009d3       ??_C@_00CNPNBAHC@?$AA@     0041b9d3     infodriverIf.obj
 0002:000009d4       ??_C@_01HIHLOKLC@1?$AA@    0041b9d4     infodriverIf.obj
 0002:000009d8       ??_C@_07LDHOHMPD@restart?$AA@ 0041b9d8     infodriverIf.obj
 0002:000009e4       ??_C@_0M@DAIHPDMP@workstation?$AA@ 0041b9e4     infodriverIf.obj
 0002:000009f4       ??_C@_01GBGANLPD@0?$AA@    0041b9f4     infodriverIf.obj
 0002:000009f8       ??_C@_02DPKJAMEF@?$CFd?$AA@ 0041b9f8     infodriverIf.obj
 0002:000009fc       ??_C@_0BN@LIDABLBA@Timer?4?5Main?5?$CF1?0?5Connected?5?$CF2?$AA@ 0041b9fc     infodriverIf.obj
 0002:00000a20       ??_C@_0BJ@NCAPEOIC@Timer?4?5Restart?5?$CF1?0?5Ws?5?$CF2?$AA@ 0041ba20     infodriverIf.obj
 0002:00000a40       ??_C@_03MENACLMD@IW?5?$AA@ 0041ba40     infodriverIf.obj
 0002:00000a44       ??_C@_0P@GGKENFJD@?5?8workstation?5?$AA@ 0041ba44     infodriverIf.obj
 0002:00000a58       ??_C@_0BB@BNFGIDCK@?0workstations?01?0?$AA@ 0041ba58     infodriverIf.obj
 0002:00000a6c       ??_C@_08HFPKPAOH@?5?9?5Error?$AA@ 0041ba6c     infodriverIf.obj
 0002:00000a78       ??_C@_02BMCGMCOE@1?0?$AA@  0041ba78     infodriverIf.obj
 0002:00000a7c       ??_C@_0N@NMPJPGFO@?5?9?5Rebooting?$AA@ 0041ba7c     infodriverIf.obj
 0002:00000a8c       ??_C@_0L@LJMCMEPF@?5?9?5Running?$AA@ 0041ba8c     infodriverIf.obj
 0002:00000a9c       ??_C@_02BNOEKIND@0?0?$AA@  0041ba9c     infodriverIf.obj
 0002:00000aa0       ??_C@_0M@LECJMPOG@?5?9?5Starting?$AA@ 0041baa0     infodriverIf.obj
 0002:00000ab0       ??_C@_0L@MNPKJBKO@?5?9?5Stopped?$AA@ 0041bab0     infodriverIf.obj
 0002:00000ac0       ??_C@_0M@JEADOHAE@?5?9?5Updating?$AA@ 0041bac0     infodriverIf.obj
 0002:00000ad0       ??_C@_0L@GBENOIAB@?5?9?5Unknown?$AA@ 0041bad0     infodriverIf.obj
 0002:00000ae0       ??_C@_03BNEOPGDG@?8?51?$AA@ 0041bae0     infodriverIf.obj
 0002:00000ae4       ??_C@_09EPBPIOK@WSTracker?$AA@ 0041bae4     main.obj
 0002:00000af0       ??_C@_0M@GIAIBPCL@Do?5I?5exist?$DP?$AA@ 0041baf0     main.obj
 0002:00000b00       ??_C@_0CD@MGBAHJHI@Copy?5of?5WSTracker?5Already?5runnin@ 0041bb00     main.obj
 0002:00000b2c       ??_C@_0BE@MEBKLEHA@Workstation?5Tracker?$AA@ 0041bb2c     main.obj
 0002:00000b44       ??_C@_0P@FJNAKLED@restartAllBase?$AA@ 0041bb44     moc_restartall.obj
 0002:00000b68       ??_C@_0P@DMEOIADN@languageChange?$AA@ 0041bb68     moc_restartall.obj
 0002:00000b8c       ??_C@_0BB@PFEIHPGD@languageChange?$CI?$CJ?$AA@ 0041bb8c     moc_restartall.obj
 0002:00000ba0       ??_C@_0L@CIJIIOEM@restartAll?$AA@ 0041bba0     moc_restartallimpl.obj
 0002:00000bb4       ??_7netComms@@6B@          0041bbb4     netComms.obj
 0002:00000c1c       ??_SQSocketDevice@@6B@     0041bc1c     netComms.obj
 0002:00000ca4       ??_SQSocketNotifier@@6B@   0041bca4     netComms.obj
 0002:00000d0c       ??_C@_07OHKHACFK@0?40?40?40?$AA@ 0041bd0c     netComms.obj
 0002:00000d18       ??_C@_0BP@LIJKKPGL@Can?8t?5create?5UDP?5listen?5socket?$AA@ 0041bd18     netComms.obj
 0002:00000d40       ??_C@_0N@MMPMIGDM@1rxData?$CIint?$CJ?$AA@ 0041bd40     netComms.obj
 0002:00000d50       ??_C@_0BA@HAKGEOGG@2activated?$CIint?$CJ?$AA@ 0041bd50     netComms.obj
 0002:00000d64       ??_C@_0BM@NJAHCDBH@Notifier?5not?5created?$CB?$CB?$CB?$CB?$CB?$CB?$CB?$AA@ 0041bd64     netComms.obj
 0002:00000d88       ??_C@_0BH@JFLKJDNH@can?8t?5set?5UDP?5sockport?$AA@ 0041bd88     netComms.obj
 0002:00000da4       ??_C@_0BI@GHHEIPLK@Connected?5to?5network?5OK?$AA@ 0041bda4     netComms.obj
 0002:00000dc0       ??_C@_0CA@CCBLCDOA@netComms?3?3connect?$CI?$CJ?5?9?5Connected?$AA@ 0041bdc0     netComms.obj
 0002:00000de8       ??_C@_01DNKMNLPK@?$HM?$AA@ 0041bde8     netComms.obj
 0002:00000dec       ??_C@_0N@ONPCGFBL@Port?5not?5set?$AA@ 0041bdec     netComms.obj
 0002:00000dfc       ??_C@_0BO@BBDJFAIC@?$CK?$CK?$CK?$CK?$CK?$CK?$CK?$CK?$CK?5Socket?5not?5valid?5?$CFd?$AA@ 0041bdfc     netComms.obj
 0002:00000e24       ??_7restartAllBase@@6BQObject@@@ 0041be24     restartall.obj
 0002:00001044       ??_7restartAllBase@@6BQPaintDevice@@@ 0041c044     restartall.obj
 0002:00001074       ??_SQPushButton@@6BQObject@@@ 0041c074     restartall.obj
 0002:000012c8       ??_SQPushButton@@6BQPaintDevice@@@ 0041c2c8     restartall.obj
 0002:000012f4       ??_SQLabel@@6BQObject@@@   0041c2f4     restartall.obj
 0002:00001550       ??_SQLabel@@6BQPaintDevice@@@ 0041c550     restartall.obj
 0002:0000157c       ??_SQSpinBox@@6BQObject@@@ 0041c57c     restartall.obj
 0002:000017d8       ??_SQSpinBox@@6BQPaintDevice@@@ 0041c7d8     restartall.obj
 0002:00001804       ??_SQSpinBox@@6B@          0041c804     restartall.obj
 0002:0000181c       ??_SQCheckBox@@6BQObject@@@ 0041c81c     restartall.obj
 0002:00001a5c       ??_SQCheckBox@@6BQPaintDevice@@@ 0041ca5c     restartall.obj
 0002:00001a8c       ??_SQSpacerItem@@6B@       0041ca8c     restartall.obj
 0002:00001ae4       ??_SQHBoxLayout@@6BQObject@@@ 0041cae4     restartall.obj
 0002:00001b64       ??_SQHBoxLayout@@6BQLayoutItem@@@ 0041cb64     restartall.obj
 0002:00001bbc       ??_SQVBoxLayout@@6BQObject@@@ 0041cbbc     restartall.obj
 0002:00001c3c       ??_SQVBoxLayout@@6BQLayoutItem@@@ 0041cc3c     restartall.obj
 0002:00001c8c       ??_C@_0BF@FOPMKLD@restartAllBaseLayout?$AA@ 0041cc8c     restartall.obj
 0002:00001ca8       ??_C@_07OFHOKKPF@layout2?$AA@ 0041cca8     restartall.obj
 0002:00001cb4       ??_C@_0L@KGLFILOJ@textLabel1?$AA@ 0041ccb4     restartall.obj
 0002:00001cc4       ??_C@_09OGIGHNLL@spinDelay?$AA@ 0041ccc4     restartall.obj
 0002:00001cd0       ??_C@_07BCKGCNNI@cbLocal?$AA@ 0041ccd0     restartall.obj
 0002:00001cdc       ??_C@_07DHCFJLGA@Layout1?$AA@ 0041ccdc     restartall.obj
 0002:00001ce8       ??_C@_08DKBDHOFF@buttonOk?$AA@ 0041cce8     restartall.obj
 0002:00001cf4       ??_C@_0N@OLKBNHFJ@buttonCancel?$AA@ 0041ccf4     restartall.obj
 0002:00001d04       ??_C@_09DMINLBG@1accept?$CI?$CJ?$AA@ 0041cd04     restartall.obj
 0002:00001d10       ??_C@_0L@OELOHDKG@2clicked?$CI?$CJ?$AA@ 0041cd10     restartall.obj
 0002:00001d20       ??_C@_09OCDCAEKE@1reject?$CI?$CJ?$AA@ 0041cd20     restartall.obj
 0002:00001d2c       ??_C@_0BG@FMKFOKBG@WSTracker?5Restart?5All?$AA@ 0041cd2c     restartall.obj
 0002:00001d48       ??_C@_0CP@KLHOCIOB@Enter?5the?5delay?5between?5workstat@ 0041cd48     restartall.obj
 0002:00001d80       ??_C@_0CF@OLBFLFDF@Delay?5bewtween?5workstations?5star@ 0041cd80     restartall.obj
 0002:00001dac       ??_C@_0BK@LNCDFMNM@Restart?5local?5workstation?$AA@ 0041cdac     restartall.obj
 0002:00001dd0       ??_C@_0FH@LDMCGPC@Tick?5if?5you?5want?5the?5local?5works@ 0041cdd0     restartall.obj
 0002:00001e38       ??_C@_03DDKJIMDC@?$CGOK?$AA@ 0041ce38     restartall.obj
 0002:00001e3c       ??_C@_05HBFPNANJ@Alt?$CLO?$AA@ 0041ce3c     restartall.obj
 0002:00001e44       ??_C@_07JLEKEEPN@?$CGCancel?$AA@ 0041ce44     restartall.obj
 0002:00001e50       ??_C@_05NNOKJPNF@Alt?$CLC?$AA@ 0041ce50     restartall.obj
 0002:00001e5c       ??_7restartAll@@6BQObject@@@ 0041ce5c     restartallimpl.obj
 0002:0000207c       ??_7restartAll@@6BQPaintDevice@@@ 0041d07c     restartallimpl.obj
 0002:000020a8       ??_7workStation@@6BQObject@@@ 0041d0a8     workStation.obj
 0002:0000210c       ??_7workStation@@6BQListViewItem@@@ 0041d10c     workStation.obj
 0002:000021c4       ??_C@_07NBCGADJA@Unknown?$AA@ 0041d1c4     workStation.obj
 0002:000021d0       ??_C@_0BI@DGLEEJCK@ddd?5MMM?5d?5hh?3mm?3ss?5yyyy?$AA@ 0041d1d0     workStation.obj
 0002:000021ec       ??_C@_08BDLLCPDN@Updating?$AA@ 0041d1ec     workStation.obj
 0002:000021f8       ??_C@_09IDHLMGJO@Rebooting?$AA@ 0041d1f8     workStation.obj
 0002:00002204       ??_C@_06IBHKBEGE@Errors?$AA@ 0041d204     workStation.obj
 0002:0000220c       ??_C@_02GIPFHKNO@OK?$AA@   0041d20c     workStation.obj
 0002:00002210       ??_C@_08DDJBAHNP@Starting?$AA@ 0041d210     workStation.obj
 0002:0000221c       ??_C@_07HNJBHKDP@Stopped?$AA@ 0041d21c     workStation.obj
 0002:00002228       ??_C@_08NLOGHLEJ@Stopping?$AA@ 0041d228     workStation.obj
 0002:00002234       ??_C@_05GBEEJKMC@green?$AA@ 0041d234     workStation.obj
 0002:0000223c       ??_C@_08FCIGEFDM@dark?5red?$AA@ 0041d23c     workStation.obj
 0002:00002248       ??_C@_05PMAELIEO@white?$AA@ 0041d248     workStation.obj
 0002:00002250       ??_C@_03FAAAOPJM@red?$AA@  0041d250     workStation.obj
 0002:00002254       ??_C@_01GPOEFGEJ@?7?$AA@   0041d254     workStation.obj
 0002:00002258       ??_C@_0N@BOJPNFD@32?532?5111?52?5?$AA@ 0041d258     wstrackermainwindow.obj
 0002:00002268       ??_C@_0N@KHBDCPCG@?5?5?5c?5?$CD360036?$AA@ 0041d268     wstrackermainwindow.obj
 0002:00002278       ??_C@_0N@GBGJECI@?4?5?5c?5?$CD3D003D?$AA@ 0041d278     wstrackermainwindow.obj
 0002:00002288       ??_C@_0N@LIADGCNM@X?5?5c?5?$CD430343?$AA@ 0041d288     wstrackermainwindow.obj
 0002:00002298       ??_C@_0N@JBIJAKMJ@o?5?5c?5?$CD450B45?$AA@ 0041d298     wstrackermainwindow.obj
 0002:000022a8       ??_C@_0N@LHEDENFJ@O?5?5c?5?$CD4A044A?$AA@ 0041d2a8     wstrackermainwindow.obj
 0002:000022b8       ??_C@_0N@BCKBCBFP@?$CL?5?5c?5?$CD490D49?$AA@ 0041d2b8     wstrackermainwindow.obj
 0002:000022c8       ??_C@_0N@JNDNKIAI@?$EA?5?5c?5?$CD4B134B?$AA@ 0041d2c8     wstrackermainwindow.obj
 0002:000022d8       ??_C@_0N@BAMPPBJN@?$CD?5?5c?5?$CD4F1A4F?$AA@ 0041d2d8     wstrackermainwindow.obj
 0002:000022e8       ??_C@_0N@MJBAFOAF@$?5?5c?5?$CD530D53?$AA@ 0041d2e8     wstrackermainwindow.obj
 0002:000022f8       ??_C@_0N@IGICGCAD@?$CF?5?5c?5?$CD5D005D?$AA@ 0041d2f8     wstrackermainwindow.obj
 0002:00002308       ??_C@_0N@OFHHPHKG@?$CG?5?5c?5?$CD561156?$AA@ 0041d308     wstrackermainwindow.obj
 0002:00002318       ??_C@_0N@HBGILIIM@?$CK?5?5c?5?$CD511D51?$AA@ 0041d318     wstrackermainwindow.obj
 0002:00002328       ??_C@_0N@PHDOMMKF@?$DN?5?5c?5?$CD5A145A?$AA@ 0041d328     wstrackermainwindow.obj
 0002:00002338       ??_C@_0N@OACFLNMD@?9?5?5c?5?$CD5E1A5E?$AA@ 0041d338     wstrackermainwindow.obj
 0002:00002348       ??_C@_0N@FGEMKCDE@?$DL?5?5c?5?$CD552355?$AA@ 0041d348     wstrackermainwindow.obj
 0002:00002358       ??_C@_0N@NIIIBHF@?3?5?5c?5?$CD582758?$AA@ 0041d358     wstrackermainwindow.obj
 0002:00002368       ??_C@_0N@OOLJAEJG@?$DO?5?5c?5?$CD5B2B5B?$AA@ 0041d368     wstrackermainwindow.obj
 0002:00002378       ??_C@_0N@MEODFKPM@?0?5?5c?5?$CD650065?$AA@ 0041d378     wstrackermainwindow.obj
 0002:00002388       ??_C@_0N@IGLOGKPF@?$DM?5?5c?5?$CD6D006D?$AA@ 0041d388     wstrackermainwindow.obj
 0002:00002398       ??_C@_0N@CBGGBMOF@1?5?5c?5?$CD621C62?$AA@ 0041d398     wstrackermainwindow.obj
 0002:000023a8       ??_C@_0N@DILCNHBN@2?5?5c?5?$CD760176?$AA@ 0041d3a8     wstrackermainwindow.obj
 0002:000023b8       ??_C@_0N@DOMEPNLN@3?5?5c?5?$CD7B017B?$AA@ 0041d3b8     wstrackermainwindow.obj
 0002:000023c8       ??_C@_0N@FAMGHBBG@4?5?5c?5?$CD7C0C7C?$AA@ 0041d3c8     wstrackermainwindow.obj
 0002:000023d8       ??_C@_0N@PBAFKNKP@5?5?5c?5?$CD7E117E?$AA@ 0041d3d8     wstrackermainwindow.obj
 0002:000023e8       ??_C@_0N@CFHOIPGI@6?5?5c?5?$CD662166?$AA@ 0041d3e8     wstrackermainwindow.obj
 0002:000023f8       ??_C@_0N@LJPIAIMF@7?5?5c?5?$CD692469?$AA@ 0041d3f8     wstrackermainwindow.obj
 0002:00002408       ??_C@_0N@DNADHGBO@8?5?5c?5?$CD6E2A6E?$AA@ 0041d408     wstrackermainwindow.obj
 0002:00002418       ??_C@_0N@PHENAEMN@9?5?5c?5?$CD623462?$AA@ 0041d418     wstrackermainwindow.obj
 0002:00002428       ??_C@_0N@NDMENJJJ@0?5?5c?5?$CD663A66?$AA@ 0041d428     wstrackermainwindow.obj
 0002:00002438       ??_C@_0N@PCFILDMN@q?5?5c?5?$CD6A3D6A?$AA@ 0041d438     wstrackermainwindow.obj
 0002:00002448       ??_C@_0N@EBMMHBHJ@w?5?5c?5?$CD722D72?$AA@ 0041d448     wstrackermainwindow.obj
 0002:00002458       ??_C@_0N@LOLJMOE@e?5?5c?5?$CD763176?$AA@ 0041d458     wstrackermainwindow.obj
 0002:00002468       ??_C@_0N@CJBBNGJH@r?5?5c?5?$CD7A367A?$AA@ 0041d468     wstrackermainwindow.obj
 0002:00002478       ??_C@_0N@JCFELJJD@t?5?5c?5?$CD7E3B7E?$AA@ 0041d478     wstrackermainwindow.obj
 0002:00002488       ??_C@_0N@JPIMJDDI@y?5?5c?5?$CD674867?$AA@ 0041d488     wstrackermainwindow.obj
 0002:00002498       ??_C@_0N@ODCPJPPN@u?5?5c?5?$CD6D426D?$AA@ 0041d498     wstrackermainwindow.obj
 0002:000024a8       ??_C@_0N@OMOCGHMJ@i?5?5c?5?$CD714671?$AA@ 0041d4a8     wstrackermainwindow.obj
 0002:000024b8       ??_C@_0N@MENAHLCC@p?5?5c?5?$CD754B75?$AA@ 0041d4b8     wstrackermainwindow.obj
 0002:000024c8       ??_C@_0N@OLOBLDLD@a?5?5c?5?$CD794E79?$AA@ 0041d4c8     wstrackermainwindow.obj
 0002:000024d8       ??_C@_0N@CHJEKEOK@s?5?5c?5?$CD705470?$AA@ 0041d4d8     wstrackermainwindow.obj
 0002:000024e8       ??_C@_0N@DFAAPHEN@d?5?5c?5?$CD7D547D?$AA@ 0041d4e8     wstrackermainwindow.obj
 0002:000024f8       ??_C@_0N@OOMGBOJ@f?5?5c?5?$CD7C6B7C?$AA@ 0041d4f8     wstrackermainwindow.obj
 0002:00002508       ??_C@_0N@FBAACADA@g?5?5c?5?$CD800180?$AA@ 0041d508     wstrackermainwindow.obj
 0002:00002518       ??_C@_0N@MILIFOJL@h?5?5c?5?$CD820C82?$AA@ 0041d518     wstrackermainwindow.obj
 0002:00002528       ??_C@_0N@GDGMFKEF@j?5?5c?5?$CD821482?$AA@ 0041d528     wstrackermainwindow.obj
 0002:00002538       ??_C@_0N@DHMJKKMI@k?5?5c?5?$CD891489?$AA@ 0041d538     wstrackermainwindow.obj
 0002:00002548       ??_C@_0N@MDDLILGO@l?5?5c?5?$CD8C1C8C?$AA@ 0041d548     wstrackermainwindow.obj
 0002:00002558       ??_C@_0N@BCKHCBHM@z?5?5c?5?$CD813781?$AA@ 0041d558     wstrackermainwindow.obj
 0002:00002568       ??_C@_0N@DKAKBGP@x?5?5c?5?$CD843B84?$AA@ 0041d568     wstrackermainwindow.obj
 0002:00002578       ??_C@_0N@NGDMECNC@c?5?5c?5?$CD893F89?$AA@ 0041d578     wstrackermainwindow.obj
 0002:00002588       ??_C@_0N@OHBCOBIP@v?5?5c?5?$CD922892?$AA@ 0041d588     wstrackermainwindow.obj
 0002:00002598       ??_C@_0N@NFJFPFKG@b?5?5c?5?$CD993599?$AA@ 0041d598     wstrackermainwindow.obj
 0002:000025a8       ??_C@_0N@MJONENAC@n?5?5c?5?$CD874087?$AA@ 0041d5a8     wstrackermainwindow.obj
 0002:000025b8       ??_C@_0N@HCOBODMB@m?5?5c?5?$CD8D448D?$AA@ 0041d5b8     wstrackermainwindow.obj
 0002:000025c8       ??_C@_0N@OBJJPDFA@M?5?5c?5?$CD835D83?$AA@ 0041d5c8     wstrackermainwindow.obj
 0002:000025d8       ??_C@_0N@MAPCBLFG@N?5?5c?5?$CD914791?$AA@ 0041d5d8     wstrackermainwindow.obj
 0002:000025e8       ??_C@_0N@JDKPPAJA@B?5?5c?5?$CD944C94?$AA@ 0041d5e8     wstrackermainwindow.obj
 0002:000025f8       ??_C@_0N@NJPPKBHN@V?5?5c?5?$CD994F99?$AA@ 0041d5f8     wstrackermainwindow.obj
 0002:00002608       ??_C@_0N@GODPHCHB@C?5?5c?5?$CD9C539C?$AA@ 0041d608     wstrackermainwindow.obj
 0002:00002618       ??_C@_0N@KHBGDMLE@Z?5?5c?5?$CD9F589F?$AA@ 0041d618     wstrackermainwindow.obj
 0002:00002628       ??_C@_0N@ENNIAFCD@A?5?5c?5?$CD866186?$AA@ 0041d628     wstrackermainwindow.obj
 0002:00002638       ??_C@_0N@GALIFDKN@S?5?5c?5?$CD8A658A?$AA@ 0041d638     wstrackermainwindow.obj
 0002:00002648       ??_C@_0N@GACLKBBC@D?5?5c?5?$CD8D6A8D?$AA@ 0041d648     wstrackermainwindow.obj
 0002:00002658       ??_C@_0N@LKKEJAJE@F?5?5c?5?$CD8A7C8A?$AA@ 0041d658     wstrackermainwindow.obj
 0002:00002668       ??_C@_0N@OOCEIFCH@G?5?5c?5?$CD916F91?$AA@ 0041d668     wstrackermainwindow.obj
 0002:00002678       ??_C@_0N@OLDNOINO@H?5?5c?5?$CD9C659C?$AA@ 0041d678     wstrackermainwindow.obj
 0002:00002688       ??_C@_0N@HBKACIB@J?5?5c?5?$CD967496?$AA@ 0041d688     wstrackermainwindow.obj
 0002:00002698       ??_C@_0N@GMLADIBE@K?5?5c?5?$CD987798?$AA@ 0041d698     wstrackermainwindow.obj
 0002:000026a8       ??_C@_0N@FILAFELI@L?5?5c?5?$CD9C7C9C?$AA@ 0041d6a8     wstrackermainwindow.obj
 0002:000026b8       ??_C@_0N@EHENAKHA@P?5?5c?5?$CDA45BA4?$AA@ 0041d6b8     wstrackermainwindow.obj
 0002:000026c8       ??_C@_0N@FIEAHMAO@I?5?5c?5?$CDA462A4?$AA@ 0041d6c8     wstrackermainwindow.obj
 0002:000026d8       ??_C@_0N@CFMPOOLL@U?5?5c?5?$CDAC64AC?$AA@ 0041d6d8     wstrackermainwindow.obj
 0002:000026e8       ??_C@_0N@JNAONNNH@Y?5?5c?5?$CD888788?$AA@ 0041d6e8     wstrackermainwindow.obj
 0002:000026f8       ??_C@_0N@HFNBJKFC@T?5?5c?5?$CD9E819E?$AA@ 0041d6f8     wstrackermainwindow.obj
 0002:00002708       ??_C@_0N@LNDJEMAN@R?5?5c?5?$CD9F899F?$AA@ 0041d708     wstrackermainwindow.obj
 0002:00002718       ??_C@_0M@OPAJGPML@E?5?5c?5gray59?$AA@ 0041d718     wstrackermainwindow.obj
 0002:00002728       ??_C@_0N@MPCJEMF@W?5?5c?5?$CD9C9B9C?$AA@ 0041d728     wstrackermainwindow.obj
 0002:00002738       ??_C@_0N@KMBMKMJP@Q?5?5c?5?$CDA284A2?$AA@ 0041d738     wstrackermainwindow.obj
 0002:00002748       ??_C@_0N@LGMGKOLJ@?$CB?5?5c?5?$CDA589A5?$AA@ 0041d748     wstrackermainwindow.obj
 0002:00002758       ??_C@_0N@NKIJMHJJ@?$HO?5?5c?5?$CDAA8DAA?$AA@ 0041d758     wstrackermainwindow.obj
 0002:00002768       ??_C@_0N@IPMFFIAP@?$FO?5?5c?5?$CDAD93AD?$AA@ 0041d768     wstrackermainwindow.obj
 0002:00002778       ??_C@_0N@MLNDBFIM@?1?5?5c?5?$CDBA83BA?$AA@ 0041d778     wstrackermainwindow.obj
 0002:00002788       ??_C@_0N@OAENJEAO@?$CI?5?5c?5?$CDB094B0?$AA@ 0041d788     wstrackermainwindow.obj
 0002:00002798       ??_C@_0N@MMIDDMEI@?$CJ?5?5c?5?$CDB39AB3?$AA@ 0041d798     wstrackermainwindow.obj
 0002:000027a8       ??_C@_0N@LPOMFOLD@_?5?5c?5?$CDA4A3A4?$AA@ 0041d7a8     wstrackermainwindow.obj
 0002:000027b8       ??_C@_0N@MLPAHOIJ@?$GA?5?5c?5?$CDA8A7A8?$AA@ 0041d7b8     wstrackermainwindow.obj
 0002:000027c8       ??_C@_0N@CIIGAGAP@?8?5?5c?5?$CDABABAB?$AA@ 0041d7c8     wstrackermainwindow.obj
 0002:000027d8       ??_C@_0N@NFNHEHCJ@?$FN?5?5c?5?$CDBBA4BB?$AA@ 0041d7d8     wstrackermainwindow.obj
 0002:000027e8       ??_C@_0N@PMHHFHAJ@?$FL?5?5c?5?$CDB5B5B5?$AA@ 0041d7e8     wstrackermainwindow.obj
 0002:000027f8       ??_C@_0N@MPLIFGJB@?$HL?5?5c?5?$CDBBBBBB?$AA@ 0041d7f8     wstrackermainwindow.obj
 0002:00002808       ??_C@_0N@DAPGBCGK@?$HN?5?5c?5?$CDC0A6C0?$AA@ 0041d808     wstrackermainwindow.obj
 0002:00002818       ??_C@_0N@LBIBJLEB@?$HM?5?5c?5?$CDC0ACC0?$AA@ 0041d818     wstrackermainwindow.obj
 0002:00002828       ??_C@_0N@FIBDJCBK@?5?4?5c?5?$CDC3B0C3?$AA@ 0041d828     wstrackermainwindow.obj
 0002:00002838       ??_C@_0N@IEBOGGJO@?4?4?5c?5?$CDCAB9CA?$AA@ 0041d838     wstrackermainwindow.obj
 0002:00002848       ??_C@_0N@FIKCCFGL@X?4?5c?5?$CDC4C4C4?$AA@ 0041d848     wstrackermainwindow.obj
 0002:00002858       ??_C@_0N@BKKFODBE@o?4?5c?5?$CDCCCBCC?$AA@ 0041d858     wstrackermainwindow.obj
 0002:00002868       ??_C@_0N@EMOKNBMA@O?4?5c?5?$CDD2C3D2?$AA@ 0041d868     wstrackermainwindow.obj
 0002:00002878       ??_C@_0N@HOFEAHG@?$CL?4?5c?5?$CDD5C8D5?$AA@ 0041d878     wstrackermainwindow.obj
 0002:00002888       ??_C@_0N@MEGOKEMH@?$EA?4?5c?5?$CDD4D4D4?$AA@ 0041d888     wstrackermainwindow.obj
 0002:00002898       ??_C@_0N@MOJNFONJ@?$CD?4?5c?5?$CDDDD3DD?$AA@ 0041d898     wstrackermainwindow.obj
 0002:000028a8       ??_C@_0N@OAGONLOD@$?4?5c?5?$CDDBDBDB?$AA@ 0041d8a8     wstrackermainwindow.obj
 0002:000028b8       ??_C@_0N@EPAIGGBB@?$CF?4?5c?5?$CDE1D7E1?$AA@ 0041d8b8     wstrackermainwindow.obj
 0002:000028c8       ??_C@_0N@GBLAMELH@?$CG?4?5c?5?$CDE6DEE6?$AA@ 0041d8c8     wstrackermainwindow.obj
 0002:000028d8       ??_C@_0N@CCDHGDDH@?$CK?4?5c?5?$CDE6E1E6?$AA@ 0041d8d8     wstrackermainwindow.obj
 0002:000028e8       ??_C@_0N@KKMEOBMP@?$DN?4?5c?5?$CDEAE4EA?$AA@ 0041d8e8     wstrackermainwindow.obj
 0002:000028f8       ??_C@_0N@HNCNNNKD@?9?4?5c?5?$CDEDEBED?$AA@ 0041d8f8     wstrackermainwindow.obj
 0002:00002908       ??_C@_0N@HGKNEOHN@?$DL?4?5c?5?$CDF1EDF1?$AA@ 0041d908     wstrackermainwindow.obj
 0002:00002918       ??_C@_0N@OFIOPCBP@?3?4?5c?5?$CDF5F3F5?$AA@ 0041d918     wstrackermainwindow.obj
 0002:00002928       ??_C@_0N@BLNJAFCI@?$DO?4?5c?5?$CDF8F6F8?$AA@ 0041d928     wstrackermainwindow.obj
 0002:00002938       ??_C@_0N@CECJIOOM@?0?4?5c?5?$CDFFFFFF?$AA@ 0041d938     wstrackermainwindow.obj
 0002:00002948       ??_C@_09LOEIOFKD@?$DM?4?5c?5None?$AA@ 0041d948     wstrackermainwindow.obj
 0002:00002958       ??_C@_0EB@EEMPDLHN@?$DM?4?$DM?4?$DM?4?$DM?4?$DM?4?$DM?4?1?5U?5U?5U?5P?5U?5U?5P?5U?5P?5@ 0041d958     wstrackermainwindow.obj
 0002:000029a8       ??_C@_0EB@EDGLCLOK@?$DM?4?$DM?4?$DM?4?$DM?4?$DM?4?1?5b?5h?55?55?54?52?53?5j?55?52?5@ 0041d9a8     wstrackermainwindow.obj
 0002:000029f8       ??_C@_0EB@HPFGLKLE@?$DM?4?$DM?4?$DM?4?$DM?4?1?5v?5k?5?$CG?5?$CL?5?$EA?5?$EA?5X?5?$CL?5?$EA?5?$EA?5o?5@ 0041d9f8     wstrackermainwindow.obj
 0002:00002a48       ??_C@_0EB@EGIDIOAM@?$DM?4?$DM?4?$DM?4?1?5l?5h?5?$DN?5o?5?4?5?$EA?5?$EA?5?4?5?$EA?5?$EA?5?$EA?5?$EA?5@ 0041da48     wstrackermainwindow.obj
 0002:00002a98       ??_C@_0EB@OKAGBDGP@?$DM?4?$DM?4?1?5l?53?5?$CG?5?$EA?5?$EA?5?$EA?5?$EA?5?4?5?4?5?$EA?5?$CL?5?$CL?5?$EA?5@ 0041da98     wstrackermainwindow.obj
 0002:00002ae8       ??_C@_0EB@HBEAJEHA@?$DM?4?1?5k?53?5O?5?$EA?5?$EA?5o?5?$CL?5?$CD?5?$EA?5o?5?$EA?5o?5o?5?$EA?5@ 0041dae8     wstrackermainwindow.obj
 0002:00002b38       ??_C@_0EB@GBHIHEBC@?1?5k?53?5X?5X?5?$EA?5o?5?4?5?4?5?$EA?5?$EA?5?$CL?5?$EA?5?4?5?4?5?$CD?5@ 0041db38     wstrackermainwindow.obj
 0002:00002b88       ??_C@_0EB@PLDBNGPH@U?53?5X?5?5?5?$CL?5?$EA?5?$CL?5o?5?$CL?5?$EA?5o?5?$EA?5?$EA?5?4?5?4?5?$CL?5@ 0041db88     wstrackermainwindow.obj
 0002:00002bd8       ??_C@_0EB@ILNJKAG@U?53?5X?5?$CK?5?$CG?4?$CK?4p?5?$EA?5?$CL?5o?5?4?5?$EA?5?$CL?5?$HM?5?$CG?4J?5@ 0041dbd8     wstrackermainwindow.obj
 0002:00002c28       ??_C@_0EB@JFIJCENF@U?53?5?4?5?$EA?5?0?4?0?4p?5?4?5?4?5?4?5?4?5?4?5?4?5?$CD?4?0?4J?5@ 0041dc28     wstrackermainwindow.obj
 0002:00002c78       ??_C@_0EB@OKMAGPHN@U?53?5?4?5?4?5?0?4?0?4d?5?4?5?4?5?4?5?4?5?4?5?4?5?$CG?4?0?4M?5@ 0041dc78     wstrackermainwindow.obj
 0002:00002cc8       ??_C@_0EB@NGKBJDFM@U?53?5?4?5?4?5?3?4?0?4M?5?4?5?4?5?4?5?4?5?4?5?4?5?9?4?0?4d?5@ 0041dcc8     wstrackermainwindow.obj
 0002:00002d18       ??_C@_0EB@OCCFBBDC@U?53?5?4?5?4?5?9?4?0?4S?5?4?5?$CD?5Q?5M?5?4?5?4?5?3?4?0?4i?5@ 0041dd18     wstrackermainwindow.obj
 0002:00002d68       ??_C@_0EB@EBDECFCP@U?53?5?4?5?4?5?$CF?4?0?4J?5?4?5D?5?0?4?$DL?4?4?5?4?5?$DO?4?0?40?5@ 0041dd68     wstrackermainwindow.obj
 0002:00002db8       ??_C@_0EB@GKCKDCEN@U?53?5X?5?4?5?$CL?4?0?4L?5?5?5?4?4?0?4?0?4q?5X?5?0?4?0?4?3?5@ 0041ddb8     wstrackermainwindow.obj
 0002:00002e08       ??_C@_0EB@FOMBFOCF@U?53?5?4?5?4?5?4?4?0?4Q?5?$CL?5?$DO?4?0?4?0?4?$HO?5?$EA?5?0?4?0?4?$CK?5@ 0041de08     wstrackermainwindow.obj
 0002:00002e58       ??_C@_0EB@PCFBGOID@U?53?5?4?5?4?5?$FN?5?0?4?$HO?5d?5?0?4?$CG?4?0?4?$CF?4?$CK?5?0?4?0?4?$CL?5@ 0041de58     wstrackermainwindow.obj
 0002:00002ea8       ??_C@_0EB@EFIEJJHL@P?53?5?4?5?4?5?$FN?5?0?4?$FO?5?$FN?5?0?4d?5?0?4?0?4p?5?0?4?$DO?4?4?5@ 0041dea8     wstrackermainwindow.obj
 0002:00002ef8       ??_C@_0EB@NFKNJKJJ@P?53?5?4?5?4?5?$HO?5?0?4?$FN?5?$DL?4?3?4X?5O?4?0?4?$CI?5?0?4?3?4?4?5@ 0041def8     wstrackermainwindow.obj
 0002:00002f48       ??_C@_0EB@LIDKPHJF@P?53?5?4?5?5?5T?5?0?4?$CK?4?0?4?$FN?5?5?5G?5?0?4?$DN?4?0?4?$CK?4?4?5@ 0041df48     wstrackermainwindow.obj
 0002:00002f98       ??_C@_0EB@CKPNIIOL@Z?53?5?4?5?4?5J?5?0?4?0?4?0?4d?5?4?5?$CK?5?0?4?0?4?0?4?$CD?4?4?5@ 0041df98     wstrackermainwindow.obj
 0002:00002fe8       ??_C@_0EB@LPEAJPID@C?53?5?4?5?4?5S?5?0?4?0?4?$DO?4?$CL?5?4?5?4?5?$CL?4?0?4?0?4O?4?$EA?5@ 0041dfe8     wstrackermainwindow.obj
 0002:00003038       ??_C@_0EB@EICILHDN@V?53?5?4?5?4?5?$DO?5L?5K?5A?5?4?5X?5o?5p?5T?5T?5S?5?$CD?5@ 0041e038     wstrackermainwindow.obj
 0002:00003088       ??_C@_0EB@OOJDCPCA@B?53?5?4?5?4?5?5?5?4?5?4?5o?5o?5?$CL?5?$EA?5?$CK?5?$CK?5?3?5?3?59?5@ 0041e088     wstrackermainwindow.obj
 0002:000030d8       ??_C@_0EB@IKEDFHKD@B?53?5?4?5?4?5o?5?4?5?$EA?5?$EA?5?$EA?5?$CK?5?$DL?5?3?5?$DO?59?59?50?5@ 0041e0d8     wstrackermainwindow.obj
 0002:00003128       ??_C@_0EB@MMAKNJE@N?53?5?4?5o?5?$EA?5?$EA?5?$CD?5?$CK?5?$DL?5?3?5?$DO?5y?5W?5_?5f?5a?5@ 0041e128     wstrackermainwindow.obj
 0002:00003178       ??_C@_0EB@HLNJOJHG@m?53?5?$CL?5?$EA?5?$CD?5?$DL?5?$DL?5?3?5?$DO?59?50?5s?5X?4?$EA?4Y?5A?5@ 0041e178     wstrackermainwindow.obj
 0002:000031c8       ??_C@_0EB@GKGJFMJB@n?55?5Y?5E?5E?5W?5W?5_?5_?5?$GA?5?$GA?5?8?5?$EA?4?$EA?4?$FL?5?$FL?5@ 0041e1c8     wstrackermainwindow.obj
 0002:00003218       ??_C@_0EB@KIDINGMN@n?55?5?$GA?5X?4o?4o?4o?4o?4?$EA?4?$EA?4?$EA?4?$EA?4$?4$?4$?4?$CK?4@ 0041e218     wstrackermainwindow.obj
 0002:00003268       ??_C@_0EB@BDGEKMM@n?55?5E?5?$GA?5?8?5?8?5?$FL?5?$FL?5?$FL?5?$HL?5?$HL?5?$HL?5X?4X?4o?4o?4@ 0041e268     wstrackermainwindow.obj
 0002:000032b8       ??_C@_0EB@PJKBLHHD@t?53?55?55?55?55?55?55?55?55?55?5j?55?55?5j?55?5@ 0041e2b8     wstrackermainwindow.obj
 0002:00003308       ??_C@_0EB@MGFFCLDJ@a?5r?5e?5e?5e?58?58?59?56?56?5?9?5?9?5?$DN?5?$CK?5?$CG?5?$CG?5@ 0041e308     wstrackermainwindow.obj
 0002:0000335c       ??_7WSTrackerMainWindow@@6BQObject@@@ 0041e35c     wstrackermainwindow.obj
 0002:000035e0       ??_7WSTrackerMainWindow@@6BQPaintDevice@@@ 0041e5e0     wstrackermainwindow.obj
 0002:0000360c       ??_SQDomElement@@6B@       0041e60c     wstrackermainwindow.obj
 0002:000036dc       ??_SQPopupMenu@@6BQObject@@@ 0041e6dc     wstrackermainwindow.obj
 0002:0000391c       ??_SQPopupMenu@@6BQPaintDevice@@@ 0041e91c     wstrackermainwindow.obj
 0002:00003948       ??_SQPopupMenu@@6B@        0041e948     wstrackermainwindow.obj
 0002:00003974       ??_SQMenuBar@@6BQObject@@@ 0041e974     wstrackermainwindow.obj
 0002:00003bac       ??_SQMenuBar@@6BQPaintDevice@@@ 0041ebac     wstrackermainwindow.obj
 0002:00003bd8       ??_SQMenuBar@@6B@          0041ebd8     wstrackermainwindow.obj
 0002:00003c00       ??_C@_08LPOBGBL@1close?$CI?$CJ?$AA@ 0041ec00     wstrackermainwindow.obj
 0002:00003c0c       ??_C@_05PNPHNLAJ@E?$CGxit?$AA@ 0041ec0c     wstrackermainwindow.obj
 0002:00003c14       ??_C@_05FHBCAALB@?$CGFile?$AA@ 0041ec14     wstrackermainwindow.obj
 0002:00003c1c       ??_C@_0O@OBALJIJD@1copyStatus?$CI?$CJ?$AA@ 0041ec1c     wstrackermainwindow.obj
 0002:00003c2c       ??_C@_0N@KAFHONKO@?$CGCopy?5Status?$AA@ 0041ec2c     wstrackermainwindow.obj
 0002:00003c3c       ??_C@_05LHMKEDEH@?$CGEdit?$AA@ 0041ec3c     wstrackermainwindow.obj
 0002:00003c44       ??_C@_08HOABKPGB@1about?$CI?$CJ?$AA@ 0041ec44     wstrackermainwindow.obj
 0002:00003c50       ??_C@_06JDCECANP@?$CGAbout?$AA@ 0041ec50     wstrackermainwindow.obj
 0002:00003c58       ??_C@_05JFEBOHHM@?$CGHelp?$AA@ 0041ec58     wstrackermainwindow.obj
 0002:00003c60       ??_C@_0BL@JJKKJKEB@1wsClicked?$CIQListViewItem?$CK?$CJ?$AA@ 0041ec60     wstrackermainwindow.obj
 0002:00003c80       ??_C@_0CA@PAGEECMI@2currentChanged?$CIQListViewItem?$CK?$CJ?$AA@ 0041ec80     wstrackermainwindow.obj
 0002:00003ca8       ??_C@_0L@NIAMFLIG@1goStart?$CI?$CJ?$AA@ 0041eca8     wstrackermainwindow.obj
 0002:00003cb8       ??_C@_0M@PIBNEBIG@2released?$CI?$CJ?$AA@ 0041ecb8     wstrackermainwindow.obj
 0002:00003cc8       ??_C@_09CKEGFELL@1goStop?$CI?$CJ?$AA@ 0041ecc8     wstrackermainwindow.obj
 0002:00003cd4       ??_C@_0N@PCJAEKFD@1goRestart?$CI?$CJ?$AA@ 0041ecd4     wstrackermainwindow.obj
 0002:00003ce4       ??_C@_0BA@CIGDONHD@1goRestartAll?$CI?$CJ?$AA@ 0041ece4     wstrackermainwindow.obj
 0002:00003cf8       ??_C@_0BB@BOJDINAB@1connectRemote?$CI?$CJ?$AA@ 0041ecf8     wstrackermainwindow.obj
 0002:00003d0c       ??_C@_0N@EDDJDMLM@1setWsText?$CI?$CJ?$AA@ 0041ed0c     wstrackermainwindow.obj
 0002:00003d20       ??_C@_0FD@DJKMKBCO@No?5device?5number?5set?0?5Using?5defa@ 0041ed20     wstrackermainwindow.obj
 0002:00003d84       ??_C@_0BK@EPABMLOH@1restartWorkstation?$CIuint?$CJ?$AA@ 0041ed84     wstrackermainwindow.obj
 0002:00003da4       ??_C@_0BK@LNFGCGBP@2restartWorkstation?$CIuint?$CJ?$AA@ 0041eda4     wstrackermainwindow.obj
 0002:00003dc4       ??_C@_0BG@EAHMPCOC@Cant?5open?5the?5network?$AA@ 0041edc4     wstrackermainwindow.obj
 0002:00003de0       ??_C@_0CF@HPBPHMDE@1wsStatusChange?$CIstatusUpdate?$CK?5co@ 0041ede0     wstrackermainwindow.obj
 0002:00003e0c       ??_C@_0CD@IDANJDGC@2statusChange?$CIstatusUpdate?$CK?5cons@ 0041ee0c     wstrackermainwindow.obj
 0002:00003e38       ??_C@_0BJ@NCALOKIP@?1config?1workstations?4xml?$AA@ 0041ee38     wstrackermainwindow.obj
 0002:00003e58       ??_C@_09DDAHAMBK@CC_SYSTEM?$AA@ 0041ee58     wstrackermainwindow.obj
 0002:00003e64       ??_C@_01KMDKNFGN@?1?$AA@   0041ee64     wstrackermainwindow.obj
 0002:00003e68       ??_C@_07JBEBLGDD@CC_ROOT?$AA@ 0041ee68     wstrackermainwindow.obj
 0002:00003e74       ??_C@_0N@PPJHCOH@workstations?$AA@ 0041ee74     wstrackermainwindow.obj
 0002:00003e84       ??_C@_02EGCJHIOB@id?$AA@   0041ee84     wstrackermainwindow.obj
 0002:00003e88       ??_C@_04MEMAJGDJ@name?$AA@ 0041ee88     wstrackermainwindow.obj
 0002:00003e90       ??_C@_0CA@MEPGJJCP@1wsStatusChanged?$CIworkStation?5?$CK?$CJ?$AA@ 0041ee90     wstrackermainwindow.obj
 0002:00003eb8       ??_C@_0BP@OAPDOAPD@2wsStatusChanged?$CIworkStation?$CK?$CJ?$AA@ 0041eeb8     wstrackermainwindow.obj
 0002:00003ee0       ??_C@_01OGPIMHDM@?$DP?$AA@ 0041eee0     wstrackermainwindow.obj
 0002:00003ee4       ??_C@_0BG@GGMLDCAG@?1config?1instances?4xml?$AA@ 0041eee4     wstrackermainwindow.obj
 0002:00003f00       ??_C@_0CE@MLEHMCEM@?$CFs?1?$CFs?1config?1system?1bncs_system?4@ 0041ef00     wstrackermainwindow.obj
 0002:00003f2c       ??_C@_07DMJBFPJJ@Channel?$AA@ 0041ef2c     wstrackermainwindow.obj
 0002:00003f38       ??_C@_07BGDMAJAE@Network?$AA@ 0041ef38     wstrackermainwindow.obj
 0002:00003f44       ??_C@_0BB@DNHFKHB@Can?8t?5open?5file?5?$AA@ 0041ef44     wstrackermainwindow.obj
 0002:00003f58       ??_C@_09BJOJOOIO@instances?$AA@ 0041ef58     wstrackermainwindow.obj
 0002:00003f64       ??_C@_0BE@BNJMCBJG@Instances?5not?5valid?$AA@ 0041ef64     wstrackermainwindow.obj
 0002:00003f7c       ??_C@_08EMNENPBA@instance?$AA@ 0041ef7c     wstrackermainwindow.obj
 0002:00003f88       ??_C@_0BE@IIKIKCJ@workstation_tracker?$AA@ 0041ef88     wstrackermainwindow.obj
 0002:00003fa0       ??_C@_03GCDGINBO@ref?$AA@  0041efa0     wstrackermainwindow.obj
 0002:00003fa4       ??_C@_0BP@OMAOJFOO@No?5entry?5in?5instances?4xml?5for?5?$AA@ 0041efa4     wstrackermainwindow.obj
 0002:00003fcc       ??_C@_07FDMMAPON@device?$DN?$AA@ 0041efcc     wstrackermainwindow.obj
 0002:00003fd8       ??_C@_0P@CGBOBPDB@Device?5not?5set?$AA@ 0041efd8     wstrackermainwindow.obj
 0002:00003fec       ??_C@_0CB@EBCGLOCD@?$CFs?1?$CFs?1config?1system?1dev_?$CF03d?4ini@ 0041efec     wstrackermainwindow.obj
 0002:00004014       ??_C@_04LPGMAPLE@port?$AA@ 0041f014     wstrackermainwindow.obj
 0002:0000401c       ??_C@_05BNONMOC@65508?$AA@ 0041f01c     wstrackermainwindow.obj
 0002:00004024       ??_C@_0P@CAHDJAKJ@databaseDriver?$AA@ 0041f024     wstrackermainwindow.obj
 0002:00004038       ??_C@_0N@KLABCGLG@updateperiod?$AA@ 0041f038     wstrackermainwindow.obj
 0002:00004048       ??_C@_02IHCGGLPM@15?$AA@   0041f048     wstrackermainwindow.obj
 0002:0000404c       ??_C@_0M@KAJNMODM@WS_Man_Text?$AA@ 0041f04c     wstrackermainwindow.obj
 0002:0000405c       ??_C@_0BB@KBHJGDE@TimeoutLimitSecs?$AA@ 0041f05c     wstrackermainwindow.obj
 0002:00004070       ??_C@_02PPBOIJDM@60?$AA@   0041f070     wstrackermainwindow.obj
 0002:00004074       ??_C@_0BG@CJPIKIMH@TimeoutLimitSecs?5?$DN?5?$CF1?$AA@ 0041f074     wstrackermainwindow.obj
 0002:00004090       ??_C@_0BH@PDEAGPBP@EnableRestartAllButton?$AA@ 0041f090     wstrackermainwindow.obj
 0002:000040ac       ??_C@_0O@IKAJCCNG@Config?5Loaded?$AA@ 0041f0ac     wstrackermainwindow.obj
 0002:000040bc       ??_C@_05FAGFPHJG@start?$AA@ 0041f0bc     wstrackermainwindow.obj
 0002:000040c4       ??_C@_04PEGFANN@stop?$AA@  0041f0c4     wstrackermainwindow.obj
 0002:000040cc       ??_C@_0DA@KHOBPGCH@Do?5you?5really?5want?5to?5restart?5al@ 0041f0cc     wstrackermainwindow.obj
 0002:00004108       ??_C@_0CC@OHKEEMIE@Workstation?5Tracker?5?9?5Restart?5Al@ 0041f108     wstrackermainwindow.obj
 0002:00004130       ??_C@_0BM@GJHHJELO@Restarting?5all?5workstations?$AA@ 0041f130     wstrackermainwindow.obj
 0002:00004154       ??_C@_0P@PKHJHOPF@CC_WORKSTATION?$AA@ 0041f154     wstrackermainwindow.obj
 0002:00004168       ??_C@_0BA@DKNFLMII@WS?$CF1?9restart?9?$CF2?$AA@ 0041f168     wstrackermainwindow.obj
 0002:0000417c       ??_C@_0BI@EKINMGCG@Stop?5?$CG?5Start?5sent?5to?5?$CF2?$AA@ 0041f17c     wstrackermainwindow.obj
 0002:00004198       ??_C@_0CC@OHEPEDCG@Failed?5to?5send?5Stop?5?$CG?5Start?5to?5?$CF@ 0041f198     wstrackermainwindow.obj
 0002:000041c0       ??_C@_0P@IGJEMALE@WS?$CF1?9restart?91?$AA@ 0041f1c0     wstrackermainwindow.obj
 0002:000041d4       ??_C@_0CI@MEOBKKPI@Failed?5to?5send?5restart?5to?5local?5@ 0041f1d4     wstrackermainwindow.obj
 0002:00004204       ??_C@_0BO@JOMONO@Restart?5sent?5to?5local?5machine?$AA@ 0041f204     wstrackermainwindow.obj
 0002:00004228       ??_C@_0CM@HOPEOALC@No?5local?5machine?5not?5found?5so?5no@ 0041f228     wstrackermainwindow.obj
 0002:0000425c       ??_C@_02OPGNMFKN@?90?$AA@  0041f25c     wstrackermainwindow.obj
 0002:00004260       ??_C@_05LCGKFJEM@WS?$CF1?9?$AA@ 0041f260     wstrackermainwindow.obj
 0002:00004268       ??_C@_0DI@NNPABAHH@WSTrackerMainWindow?3?3sendMessage@ 0041f268     wstrackermainwindow.obj
 0002:000042ac       ??_C@_0BF@EHGINBKH@Author?5?9?5Mark?5Baldry?$AA@ 0041f2ac     wstrackermainwindow.obj
 0002:000042c8       ??_C@_01EEMJAFIK@?6?$AA@   0041f2c8     wstrackermainwindow.obj
 0002:000042cc       ??_C@_0L@LJKMINK@Version?5?9?5?$AA@ 0041f2cc     wstrackermainwindow.obj
 0002:000042dc       ??_C@_02PHMGELLB@?6?6?$AA@ 0041f2dc     wstrackermainwindow.obj
 0002:000042e0       ??_C@_0P@GIDIKDPP@Not?5configured?$AA@ 0041f2e0     wstrackermainwindow.obj
 0002:000042f4       ??_C@_09NJLBODLJ@Connected?$AA@ 0041f2f4     wstrackermainwindow.obj
 0002:00004300       ??_C@_05GGOIJPPE@Green?$AA@ 0041f300     wstrackermainwindow.obj
 0002:00004308       ??_C@_04NCBLOALK@TxRx?$AA@ 0041f308     wstrackermainwindow.obj
 0002:00004310       ??_C@_07OLJPPAAE@Rx?5Only?$AA@ 0041f310     wstrackermainwindow.obj
 0002:0000431c       ??_C@_03PADCEAKC@Red?$AA@  0041f31c     wstrackermainwindow.obj
 0002:00004320       ??_C@_0N@NFBNFHML@Disconnected?$AA@ 0041f320     wstrackermainwindow.obj
 0002:00004330       ??_C@_05HOPBAMFM@?9?5?9?5?9?$AA@ 0041f330     wstrackermainwindow.obj
 0002:00004338       ??_C@_04KCNJCPNI@Grey?$AA@ 0041f338     wstrackermainwindow.obj
 0002:00004340       ??_C@_04OLDOEKLM@?$CF08d?$AA@ 0041f340     wstrackermainwindow.obj
 0002:00004348       ??_C@_05LIBPABGB@mstsc?$AA@ 0041f348     wstrackermainwindow.obj
 0002:00004350       ??_C@_03FDDPFFBA@?1v?3?$AA@ 0041f350     wstrackermainwindow.obj
 0002:00004358       ??_C@_0ED@PNMBJNG@ID?7Name?7Status?7Start?5time?7Last?5?5@ 0041f358     wstrackermainwindow.obj
 0002:000043a8       ??_C@_0CC@GMIPJFNE@No?5device?5set?5so?5can?5not?5set?5tex@ 0041f3a8     wstrackermainwindow.obj
 0002:000043d0       ??_C@_0L@BNLMLGLN@WS?5Tracker?$AA@ 0041f3d0     wstrackermainwindow.obj
 0002:000043e0       ??_C@_0P@LMIBIGPC@CC_SERVER_ROOT?$AA@ 0041f3e0     wstrackermainwindow.obj
 0002:000043f4       ??_C@_0CC@CBBJFHNA@No?5server?5set?5so?5can?5not?5set?5tex@ 0041f3f4     wstrackermainwindow.obj
 0002:0000441c       ??_C@_0CC@NPNENHAP@No?5system?5set?5so?5can?5not?5set?5tex@ 0041f41c     wstrackermainwindow.obj
 0002:00004444       ??_C@_01KICIPPFI@?2?$AA@   0041f444     wstrackermainwindow.obj
 0002:00004448       ??_C@_0BM@NFFGGONF@?2config?2system?2dev_?$CF03d?4ini?$AA@ 0041f448     wstrackermainwindow.obj
 0002:0000446c       ??_C@_0DM@JLFPNHIJ@The?5configuration?5file?5does?5not?5@ 0041f46c     wstrackermainwindow.obj
 0002:000044b4       ??_C@_0DN@GDHPPODG@Enter?5the?5new?5text?4?6Note?5that?5th@ 0041f4b4     wstrackermainwindow.obj
 0002:00004500       ??_C@_0BN@JGMCAGBE@Failed?5to?5write?5to?5the?5file?6?$AA@ 0041f500     wstrackermainwindow.obj
 0002:00004528       __real@4000cccccccccccd    0041f528     wstrackermainwindow.obj
 0002:00004534       ??_C@_0N@NAKEJOLA@infodriverIf?$AA@ 0041f534     moc_infodriverIf.obj
 0002:00004544       ??_C@_01ONPPMOBA@?$BB?$AA@ 0041f544     moc_infodriverIf.obj
 0002:00004558       ??_C@_0BD@DANALMNP@restartWorkstation?$AA@ 0041f558     moc_infodriverIf.obj
 0002:00004580       ??_C@_0BJ@MLLIDGAE@restartWorkstation?$CIuint?$CJ?$AA@ 0041f580     moc_infodriverIf.obj
 0002:000045a0       ??_C@_06BIDFIGJB@cXInfo?$AA@ 0041f5a0     moc_infodriverIf.obj
 0002:000045a8       ??_C@_06CMLMINKD@cPanel?$AA@ 0041f5a8     moc_infodriverIf.obj
 0002:000045b0       ??_C@_08BCIECOEG@netComms?$AA@ 0041f5b0     moc_netComms.obj
 0002:000045bc       ??_C@_01LKDEMHDF@s?$AA@    0041f5bc     moc_netComms.obj
 0002:000045d0       ??_C@_06PPOCJKKK@rxData?$AA@ 0041f5d0     moc_netComms.obj
 0002:000045e8       ??_C@_0M@GCLCDCHL@rxData?$CIint?$CJ?$AA@ 0041f5e8     moc_netComms.obj
 0002:000045f8       ??_C@_0BD@IDDPGBDO@statusUpdate?$CKconst?$AA@ 0041f5f8     moc_netComms.obj
 0002:00004620       ??_C@_0N@JNBHBBBG@statusChange?$AA@ 0041f620     moc_netComms.obj
 0002:00004640       ??_C@_0CB@BHBPNPKE@statusChange?$CIstatusUpdate?$CKconst?$CJ@ 0041f640     moc_netComms.obj
 0002:00004668       ??_C@_0M@MJPBJBJJ@workStation?$AA@ 0041f668     moc_workStation.obj
 0002:00004688       ??_C@_0BA@DAACLNBA@wsStatusChanged?$AA@ 0041f688     moc_workStation.obj
 0002:000046ac       ??_C@_0BO@HNMDDCCF@wsStatusChanged?$CIworkStation?$CK?$CJ?$AA@ 0041f6ac     moc_workStation.obj
 0002:000046d0       ??_C@_0O@LAFKAPIP@QListViewItem?$AA@ 0041f6d0     moc_workStation.obj
 0002:000046e0       ??_C@_0BE@KEACDBNC@WSTrackerMainWindow?$AA@ 0041f6e0     moc_wstrackermainwindow.obj
 0002:00004708       ??_C@_05JLNEMJLN@dummy?$AA@ 0041f708     moc_wstrackermainwindow.obj
 0002:00004720       ??_C@_0O@OLGGKBAG@connectRemote?$AA@ 0041f720     moc_wstrackermainwindow.obj
 0002:00004750       ??_C@_05BEELFHJC@about?$AA@ 0041f750     moc_wstrackermainwindow.obj
 0002:00004768       ??_C@_0N@ODLBNJIK@goRestartAll?$AA@ 0041f768     moc_wstrackermainwindow.obj
 0002:00004788       ??_C@_09HMEBPIMG@goRestart?$AA@ 0041f788     moc_wstrackermainwindow.obj
 0002:000047a4       ??_C@_06CCHKJIFO@goStop?$AA@ 0041f7a4     moc_wstrackermainwindow.obj
 0002:000047bc       ??_C@_07CEPJBJME@goStart?$AA@ 0041f7bc     moc_wstrackermainwindow.obj
 0002:000047e8       ??_C@_0P@PNJNFMKO@wsStatusChange?$AA@ 0041f7e8     moc_wstrackermainwindow.obj
 0002:0000480c       ??_C@_09HIAJJBIC@wsClicked?$AA@ 0041f80c     moc_wstrackermainwindow.obj
 0002:00004828       ??_C@_0L@KKLHPNPM@copyStatus?$AA@ 0041f828     moc_wstrackermainwindow.obj
 0002:00004848       ??_C@_09IEPLLBOF@setWsText?$AA@ 0041f848     moc_wstrackermainwindow.obj
 0002:00004914       ??_C@_07MBMLLJIG@dummy?$CI?$CJ?$AA@ 0041f914     moc_wstrackermainwindow.obj
 0002:00004920       ??_C@_0BA@IFJDFHCN@connectRemote?$CI?$CJ?$AA@ 0041f920     moc_wstrackermainwindow.obj
 0002:00004934       ??_C@_07MEGALADH@about?$CI?$CJ?$AA@ 0041f934     moc_wstrackermainwindow.obj
 0002:00004940       ??_C@_0P@EMHLHBLD@goRestartAll?$CI?$CJ?$AA@ 0041f940     moc_wstrackermainwindow.obj
 0002:00004954       ??_C@_0M@FMNOPOBE@goRestart?$CI?$CJ?$AA@ 0041f954     moc_wstrackermainwindow.obj
 0002:00004964       ??_C@_08KIPEMBGF@goStop?$CI?$CJ?$AA@ 0041f964     moc_wstrackermainwindow.obj
 0002:00004970       ??_C@_09LJOFBGMA@goStart?$CI?$CJ?$AA@ 0041f970     moc_wstrackermainwindow.obj
 0002:0000497c       ??_C@_0CD@KOCHLKAD@wsStatusChange?$CIstatusUpdate?$CKcons@ 0041f97c     moc_wstrackermainwindow.obj
 0002:000049a8       ??_C@_0BK@KACNJAHO@wsClicked?$CIQListViewItem?$CK?$CJ?$AA@ 0041f9a8     moc_wstrackermainwindow.obj
 0002:000049c8       ??_C@_0N@JBNACBE@copyStatus?$CI?$CJ?$AA@ 0041f9c8     moc_wstrackermainwindow.obj
 0002:000049d8       ??_C@_0M@ONHHIIPL@setWsText?$CI?$CJ?$AA@ 0041f9d8     moc_wstrackermainwindow.obj
 0002:000049e8       ??_C@_0BI@KFONCJGC@WSTrackerMainWindowBase?$AA@ 0041f9e8     moc_wstrackermainwindowbase.obj
 0002:00004a2c       ??_SQWidget@@6BQObject@@@  0041fa2c     wstrackermainwindowbase.obj
 0002:00004c38       ??_SQWidget@@6BQPaintDevice@@@ 0041fc38     wstrackermainwindowbase.obj
 0002:00004c64       ??_7WSTrackerMainWindowBase@@6BQObject@@@ 0041fc64     wstrackermainwindowbase.obj
 0002:00004ee8       ??_7WSTrackerMainWindowBase@@6BQPaintDevice@@@ 0041fee8     wstrackermainwindowbase.obj
 0002:00004f14       ??_SQGroupBox@@6BQObject@@@ 0041ff14     wstrackermainwindowbase.obj
 0002:00005154       ??_SQGroupBox@@6BQPaintDevice@@@ 00420154     wstrackermainwindowbase.obj
 0002:00005184       ??_SQListView@@6BQObject@@@ 00420184     wstrackermainwindowbase.obj
 0002:000054fc       ??_SQListView@@6BQPaintDevice@@@ 004204fc     wstrackermainwindowbase.obj
 0002:0000552c       ??_SQLineEdit@@6BQObject@@@ 0042052c     wstrackermainwindowbase.obj
 0002:000057c4       ??_SQLineEdit@@6BQPaintDevice@@@ 004207c4     wstrackermainwindowbase.obj
 0002:000057ec       ??_C@_0BC@LHPKNN@qt_central_widget?$AA@ 004207ec     wstrackermainwindowbase.obj
 0002:00005804       ??_C@_0BO@LMKGFFBK@WSTrackerMainWindowBaseLayout?$AA@ 00420804     wstrackermainwindowbase.obj
 0002:00005828       ??_C@_09JAGLPBKP@groupBox1?$AA@ 00420828     wstrackermainwindowbase.obj
 0002:00005834       ??_C@_05CPFKIIHJ@lblTx?$AA@ 00420834     wstrackermainwindowbase.obj
 0002:0000583c       ??_C@_0N@HPEGIJEE@textLabel1_2?$AA@ 0042083c     wstrackermainwindowbase.obj
 0002:0000584c       ??_C@_05CLNHPEML@lblRx?$AA@ 0042084c     wstrackermainwindowbase.obj
 0002:00005854       ??_C@_0P@DCFNJEFK@textLabel1_3_2?$AA@ 00420854     wstrackermainwindowbase.obj
 0002:00005868       ??_C@_09IGOGKKBK@lblTxMode?$AA@ 00420868     wstrackermainwindowbase.obj
 0002:00005874       ??_C@_0N@GGFNLIAF@textLabel1_3?$AA@ 00420874     wstrackermainwindowbase.obj
 0002:00005884       ??_C@_09LGNGDKOE@lblStatus?$AA@ 00420884     wstrackermainwindowbase.obj
 0002:00005890       ??_C@_0P@HBEGGIID@lvWorkstations?$AA@ 00420890     wstrackermainwindowbase.obj
 0002:000058a4       ??_C@_02PINLBAEP@WS?$AA@   004208a4     wstrackermainwindowbase.obj
 0002:000058a8       ??_C@_04FABLJDN@Name?$AA@  004208a8     wstrackermainwindowbase.obj
 0002:000058b0       ??_C@_06PGDKHFME@Status?$AA@ 004208b0     wstrackermainwindowbase.obj
 0002:000058b8       ??_C@_0L@CCJJBLMH@Start?5time?$AA@ 004208b8     wstrackermainwindowbase.obj
 0002:000058c8       ??_C@_07GACGCPBL@Last?5Rx?$AA@ 004208c8     wstrackermainwindowbase.obj
 0002:000058d4       ??_C@_02MFEOMNPG@IP?$AA@   004208d4     wstrackermainwindowbase.obj
 0002:000058d8       ??_C@_02OKOOOCIH@OS?$AA@   004208d8     wstrackermainwindowbase.obj
 0002:000058dc       ??_C@_09FCOKPOKB@User?5Name?$AA@ 004208dc     wstrackermainwindowbase.obj
 0002:000058e8       ??_C@_06DMJNCJMA@pbStop?$AA@ 004208e8     wstrackermainwindowbase.obj
 0002:000058f0       ??_C@_07DDFAEADG@pbStart?$AA@ 004208f0     wstrackermainwindowbase.obj
 0002:000058fc       ??_C@_09EIHMIFAA@pbRestart?$AA@ 004208fc     wstrackermainwindowbase.obj
 0002:00005908       ??_C@_09FLIDCLIN@pbConnect?$AA@ 00420908     wstrackermainwindowbase.obj
 0002:00005914       ??_C@_0N@LEGKHIOG@pbRestartAll?$AA@ 00420914     wstrackermainwindowbase.obj
 0002:00005924       ??_C@_09NFFIIHIM@layout2_2?$AA@ 00420924     wstrackermainwindowbase.obj
 0002:00005930       ??_C@_0N@CJBMCOMC@textLabel1_4?$AA@ 00420930     wstrackermainwindowbase.obj
 0002:00005940       ??_C@_08IALEHEEI@leWsText?$AA@ 00420940     wstrackermainwindowbase.obj
 0002:0000594c       ??_C@_09NKOHIIKD@pbSetText?$AA@ 0042094c     wstrackermainwindowbase.obj
 0002:00005958       ??_C@_09EOIICAOM@Inforiver?$AA@ 00420958     wstrackermainwindowbase.obj
 0002:00005964       ??_C@_02IMONFDHP@Tx?$AA@   00420964     wstrackermainwindowbase.obj
 0002:00005968       ??_C@_08LEDEEJEF@00000000?$AA@ 00420968     wstrackermainwindowbase.obj
 0002:00005974       ??_C@_02IIGACPMN@Rx?$AA@   00420974     wstrackermainwindowbase.obj
 0002:00005978       ??_C@_04KNKPIPFB@Mode?$AA@ 00420978     wstrackermainwindowbase.obj
 0002:00005980       ??_C@_04MOIHHPNJ@Stop?$AA@ 00420980     wstrackermainwindowbase.obj
 0002:00005988       ??_C@_05FHMJPCKA@Start?$AA@ 00420988     wstrackermainwindowbase.obj
 0002:00005990       ??_C@_08GKMHNINO@Re?9Start?$AA@ 00420990     wstrackermainwindowbase.obj
 0002:0000599c       ??_C@_06MHHFENDB@Remote?$AA@ 0042099c     wstrackermainwindowbase.obj
 0002:000059a4       ??_C@_0N@GCBGFFO@Re?9Start?5All?$AA@ 004209a4     wstrackermainwindowbase.obj
 0002:000059b4       ??_C@_0P@GFAPHEFD@Server?5WS?5Text?$AA@ 004209b4     wstrackermainwindowbase.obj
 0002:000059c8       ??_C@_03CEMDFJG@Set?$AA@   004209c8     wstrackermainwindowbase.obj
 0002:000059d0       ??_7cPanel@@6B@            004209d0     panel:panelif.obj
 0002:000059dc       ??_C@_07HNDBBEHF@panelif?$AA@ 004209dc     panel:panelif.obj
 0002:000059e4       ??_C@_0BD@MKFHMOKG@Registering?5class?3?$AA@ 004209e4     panel:panelif.obj
 0002:000059f8       ??_C@_07MEPHJPEC@CSI?4INI?$AA@ 004209f8     panel:panelif.obj
 0002:00005a00       ??_C@_0M@CILGCIDH@Workstation?$AA@ 00420a00     panel:panelif.obj
 0002:00005a0c       ??_C@_0BD@JKNGPFFO@cPanel?3?3WM_DESTROY?$AA@ 00420a0c     panel:panelif.obj
 0002:00005a20       ??_C@_04HDOCAJNK@?$CFs?$CFs?$AA@ 00420a20     panel:panelif.obj
 0002:00005a28       ??_C@_0BH@FCOIIMPL@RM?5?$CFd?5?$CFd?5?$CFd?5?8?$CFs?8?5?$CFd?5?$CFd?$AA@ 00420a28     panel:panelif.obj
 0002:00005a40       ??_C@_03EBJOKFHF@?5?$CFd?$AA@ 00420a40     panel:panelif.obj
 0002:00005a44       ??_C@_07JIIGHLBP@?5?8?0?9?9?9?8?$AA@ 00420a44     panel:panelif.obj
 0002:00005a4c       ??_C@_0CD@ICICPIDD@cPanel?3?3ClientWndProcInt?5WM_CREA@ 00420a4c     panel:panelif.obj
 0002:00005a70       ??_C@_0BA@OPCDEPBM@handleShare?4dll?$AA@ 00420a70     panel:panelif.obj
 0002:00005a80       ??_C@_07OLHBNAMO@csiHwnd?$AA@ 00420a80     panel:panelif.obj
 0002:00005a88       ??_C@_0CI@JLFKJFGC@cPanel?3?5CSI?5handle?5from?5handleSh@ 00420a88     panel:panelif.obj
 0002:00005ab0       ??_C@_0M@PBGHDKJE@RM?5?$CFd?5?$CFd?5?$CFd?$AA@ 00420ab0     panel:panelif.obj
 0002:00005abc       ??_C@_0BF@EFGFBIEM@_?$CL_?$CL_?$CL_?$CL_?$CL_?$CL_?$CL?5NO?5P?6?$AA@ 00420abc     panel:panelif.obj
 0002:00005ad4       ??_C@_0CI@PHOCLFBH@cPanel?3?3ClientWndProcInt?5BBC_CSI@ 00420ad4     panel:panelif.obj
 0002:00005afc       ??_C@_0M@LJKMEMOG@CSI?5closing?$AA@ 00420afc     panel:panelif.obj
 0002:00005b08       ??_C@_0CE@CJOEINNE@cPanel?3?3ClientWndProcInt?5WM_DEST@ 00420b08     panel:panelif.obj
 0002:00005b2c       ??_C@_0CA@JBPLBGLC@cPanel?3?3ClientWndProc?5WM_CREATE?$AA@ 00420b2c     panel:panelif.obj
 0002:00005b4c       ??_C@_0N@GFDMAPEP@DG?5?$CF03d?5?$CF03d?$AA@ 00420b4c     panel:panelif.obj
 0002:00005b5c       ??_C@_0BF@NCJJDKGJ@DI?5?$CF03d?5?$CF03d?5?$CF03d?5?$CFs?$AA@ 00420b5c     panel:panelif.obj
 0002:00005b80       __xmm@00000000000000000000000400000000 00420b80     panel:panelif.obj
 0002:00005b90       ??_C@_0EJ@KGAMDAEP@BNCS_SIG?0name?$DNCXINFO?0version?$DN1?44@ 00420b90     cxinfo:CXINFO.obj
 0002:00005be0       ??_7cXInfo@@6B@            00420be0     cxinfo:CXINFO.obj
 0002:00005be4       ??_C@_05NAOIJFC@Error?$AA@ 00420be4     cxinfo:CXINFO.obj
 0002:00005bec       ??_C@_0BN@OGADJHDD@Header?5doesn?8t?5match?5library?$AA@ 00420bec     cxinfo:CXINFO.obj
 0002:00005c0c       ??_C@_0O@GOFFENDG@cxextinfospwn?$AA@ 00420c0c     cxinfo:CXINFO.obj
 0002:00005c1c       ??_C@_0BD@EAHGHHGN@cXInfo?3?3destructor?$AA@ 00420c1c     cxinfo:CXINFO.obj
 0002:00005c30       ??_C@_0CE@CEKCKGAL@cXInfo?3?3destructor?5?9?5destroy?5win@ 00420c30     cxinfo:CXINFO.obj
 0002:00005c54       ??_C@_0BC@JFBHLOHC@cXInfo?3?3WM_CREATE?$AA@ 00420c54     cxinfo:CXINFO.obj
 0002:00005c68       ??_C@_0O@NCHBJCLO@info32fix?4dll?$AA@ 00420c68     cxinfo:CXINFO.obj
 0002:00005c78       ??_C@_08OACAGJFD@infoHwnd?$AA@ 00420c78     cxinfo:CXINFO.obj
 0002:00005c84       ??_C@_0CK@GDBHHPLM@cXInfo?3?5Handle?5for?5Infodriver?5?$CFd@ 00420c84     cxinfo:CXINFO.obj
 0002:00005cb0       ??_C@_0CI@GKMHJNAD@cXInfo?3?5CSI?5handle?5from?5handleSh@ 00420cb0     cxinfo:CXINFO.obj
 0002:00005cd8       ??_C@_0BD@CICIGJJE@cXInfo?3?3WM_DESTROY?$AA@ 00420cd8     cxinfo:CXINFO.obj
 0002:00005cec       ??_C@_0BH@NCFFDNIC@cXInfo?3?3BBC_CSICLOSING?$AA@ 00420cec     cxinfo:CXINFO.obj
 0002:00005d04       ??_C@_0BM@JALMBMCP@Infodriver?5has?5disconnected?$AA@ 00420d04     cxinfo:CXINFO.obj
 0002:00005d20       ??_C@_0BB@DPFFANOK@Device?5ID?5in?5use?$AA@ 00420d20     cxinfo:CXINFO.obj
 0002:00005d34       ??_C@_08DNKPGCCF@OOB?5Data?$AA@ 00420d34     cxinfo:CXINFO.obj
 0002:00005d44       ??_7bncs_disklog@@6B@      00420d44     bncs_disklog:bncs_disklog.obj
 0002:00005d48       ??_C@_0L@ILPMAFPO@?$CFs?2?$CFs?2logs?$AA@ 00420d48     bncs_disklog:bncs_disklog.obj
 0002:00005d54       ??_C@_0M@EEBKEKAD@c?3?2bncslogs?$AA@ 00420d54     bncs_disklog:bncs_disklog.obj
 0002:00005d60       ??_C@_0BG@DPKAAFIM@localtime?5has?5failed?6?$AA@ 00420d60     bncs_disklog:bncs_disklog.obj
 0002:00005d78       ??_C@_0N@GLHMENIG@?$CFs?2?$CFs?2?$CFs?4log?$AA@ 00420d78     bncs_disklog:bncs_disklog.obj
 0002:00005d88       ??_C@_0BH@EBDFGIGN@?$CFs?2?$CFs?2?$CF04d?$CF02d?$CF02d?4log?$AA@ 00420d88     bncs_disklog:bncs_disklog.obj
 0002:00005da0       ??_C@_0BM@MFEMPJOF@?$CFs?2?$CFs?2?$CF04d?$CF02d?$CF02d?9?$CF02d?4log?$AA@ 00420da0     bncs_disklog:bncs_disklog.obj
 0002:00005dbc       ??_C@_0CE@NIPIAOPO@bncs_disklog?3?5Can?8t?5open?5log?5fil@ 00420dbc     bncs_disklog:bncs_disklog.obj
 0002:00005de0       ??_C@_0CE@NLINMDII@?$CF02d?1?$CF02d?1?$CF04d?5?$CF02d?3?$CF02d?3?$CF02d?4?$CF0@ 00420de0     bncs_disklog:bncs_disklog.obj
 0002:00005e04       ??_C@_02KEGNLNML@?0?5?$AA@ 00420e04     bncs_disklog:bncs_disklog.obj
 0002:00005e08       ??_C@_02PCIJFNDE@?$AN?6?$AA@ 00420e08     bncs_disklog:bncs_disklog.obj
 0002:00005e10       ??_7cBncsVersion@@6B@      00420e10     BncsVersionInfo:cBncsVersion.obj
 0002:00005e14       ??_C@_0BJ@KPNNKBCP@?2VarFileInfo?2Translation?$AA@ 00420e14     BncsVersionInfo:cBncsVersion.obj
 0002:00005e30       ??_C@_08EAKGLGNO@?$CF04X?$CF04X?$AA@ 00420e30     BncsVersionInfo:cBncsVersion.obj
 0002:00005e3c       ??_C@_0BP@OKGDDKKJ@?2StringFileInfo?2?$CFs?2FileVersion?$AA@ 00420e3c     BncsVersionInfo:cBncsVersion.obj
 0002:00005e5c       ??_C@_01IHBHIGKO@?0?$AA@   00420e5c     BncsVersionInfo:cBncsVersion.obj
 0002:00005e60       ??_C@_0CD@DNOFBAPJ@?2StringFileInfo?2?$CFs?2FileDescripti@ 00420e60     BncsVersionInfo:cBncsVersion.obj
 0002:00005e84       ??_C@_0BM@HLKDAPDC@?2StringFileInfo?2?$CFs?2Comments?$AA@ 00420e84     BncsVersionInfo:cBncsVersion.obj
 0002:00005ea0       ??_C@_0CA@EHAODNDK@?2StringFileInfo?2?$CFs?2InternalName?$AA@ 00420ea0     BncsVersionInfo:cBncsVersion.obj
 0002:00005ec0       ??_C@_0BP@MGNIHEJF@?2StringFileInfo?2?$CFs?2ProductName?$AA@ 00420ec0     BncsVersionInfo:cBncsVersion.obj
 0002:00005ee0       ??_C@_0BP@IFNEMNK@?2StringFileInfo?2?$CFs?2CompanyName?$AA@ 00420ee0     BncsVersionInfo:cBncsVersion.obj
 0002:00005f00       ??_C@_0CC@BENIJKPI@?2StringFileInfo?2?$CFs?2LegalCopyrigh@ 00420f00     BncsVersionInfo:cBncsVersion.obj
 0002:00005f24       ??_C@_0CC@IAGJDCJF@?2StringFileInfo?2?$CFs?2ProductVersio@ 00420f24     BncsVersionInfo:cBncsVersion.obj
 0002:00005f48       ??_C@_0CD@CHCCGCCP@?2StringFileInfo?2?$CFs?2LegalTradeMar@ 00420f48     BncsVersionInfo:cBncsVersion.obj
 0002:00005f6c       ??_C@_0CA@GODGGLFO@?2StringFileInfo?2?$CFs?2PrivateBuild?$AA@ 00420f6c     BncsVersionInfo:cBncsVersion.obj
 0002:00005f8c       ??_C@_0CE@NLHFPOLE@?2StringFileInfo?2?$CFs?2OriginalFileN@ 00420f8c     BncsVersionInfo:cBncsVersion.obj
 0002:00005fb0       ??_C@_0CA@OOEBJJOA@?2StringFileInfo?2?$CFs?2SpecialBuild?$AA@ 00420fb0     BncsVersionInfo:cBncsVersion.obj
 0002:00005fd4       ??_7QtSingleApplication@@6B@ 00420fd4     QTSingleApplication:qtsingleapplication.obj
 0002:00006040       ??_C@_0BG@JKLICJAA@1activateMainWidget?$CI?$CJ?$AA@ 00421040     QTSingleApplication:qtsingleapplication_win.obj
 0002:00006058       ??_C@_0CB@LALAPPDK@2messageReceived?$CIconst?5QString?$CG?$CJ@ 00421058     QTSingleApplication:qtsingleapplication_win.obj
 0002:0000607c       ??_C@_0BE@JFAHMHGH@QtSingleApplication?$AA@ 0042107c     QTSingleApplication:moc_qtsingleapplication.obj
 0002:00006090       ??_C@_07ONPBMBOP@message?$AA@ 00421090     QTSingleApplication:moc_qtsingleapplication.obj
 0002:000060a4       ??_C@_0M@LGIGDHKK@sendMessage?$AA@ 004210a4     QTSingleApplication:moc_qtsingleapplication.obj
 0002:000060b0       ??_C@_07DDHNKDGP@timeout?$AA@ 004210b0     QTSingleApplication:moc_qtsingleapplication.obj
 0002:000060d0       ??_C@_0BD@IIEHKCFN@activateMainWidget?$AA@ 004210d0     QTSingleApplication:moc_qtsingleapplication.obj
 0002:00006108       ??_C@_0BM@CCNODPBP@sendMessage?$CIconst?5QString?$CG?$CJ?$AA@ 00421108     QTSingleApplication:moc_qtsingleapplication.obj
 0002:00006124       ??_C@_0CA@OFDOBHMJ@sendMessage?$CIconst?5QString?$CG?0int?$CJ?$AA@ 00421124     QTSingleApplication:moc_qtsingleapplication.obj
 0002:00006144       ??_C@_0BF@EFNFOBCJ@activateMainWidget?$CI?$CJ?$AA@ 00421144     QTSingleApplication:moc_qtsingleapplication.obj
 0002:00006168       ??_C@_0BA@INCDCIIK@messageReceived?$AA@ 00421168     QTSingleApplication:moc_qtsingleapplication.obj
 0002:00006184       ??_C@_0CA@PAPLDGL@messageReceived?$CIconst?5QString?$CG?$CJ?$AA@ 00421184     QTSingleApplication:moc_qtsingleapplication.obj
 0002:000061a4       ?value@?$integral_constant@_N$0A@@std@@2_NB 004211a4     MSVCRT:ti_inst.obj
 0002:000061a5       ?value@?$integral_constant@_N$00@std@@2_NB 004211a5     MSVCRT:ti_inst.obj
 0002:000061ac       ??_7type_info@@6B@         004211ac     MSVCRT:ti_inst.obj
 0002:000061b8       ?ProcessDetach@NativeDll@<CrtImplementationDetails>@@0IB 004211b8     MSVCRT:unhandld.obj
 0002:000061bc       ?ProcessAttach@NativeDll@<CrtImplementationDetails>@@0IB 004211bc     MSVCRT:unhandld.obj
 0002:000061c0       ?ThreadAttach@NativeDll@<CrtImplementationDetails>@@0IB 004211c0     MSVCRT:unhandld.obj
 0002:000061c4       ?ThreadDetach@NativeDll@<CrtImplementationDetails>@@0IB 004211c4     MSVCRT:unhandld.obj
 0002:000061c8       ?ProcessVerifier@NativeDll@<CrtImplementationDetails>@@0IB 004211c8     MSVCRT:unhandld.obj
 0002:000061d0       ??_7asyncPost@@6B@         004211d0     asyncPost:asyncPost.obj
 0002:000061d4       ??_7?$QMemArray@PAD@@6B@   004211d4     qtmain:qtmain_win.obj
 0002:000061e8       __load_config_used         004211e8     MSVCRT:loadcfg.obj
 0002:00006624       ??_R4infodriverIf@@6BQObject@@@ 00421624     infodriverIf.obj
 0002:0000663c       ??_R3infodriverIf@@8       0042163c     infodriverIf.obj
 0002:00006650       ??_R2infodriverIf@@8       00421650     infodriverIf.obj
 0002:0000666c       ??_R1A@?0A@EA@infodriverIf@@8 0042166c     infodriverIf.obj
 0002:00006690       ??_R1A@?0A@EA@QObject@@8   00421690     infodriverIf.obj
 0002:000066b4       ??_R3QObject@@8            004216b4     infodriverIf.obj
 0002:000066c8       ??_R2QObject@@8            004216c8     infodriverIf.obj
 0002:000066d4       ??_R13?0A@EA@Qt@@8         004216d4     infodriverIf.obj
 0002:000066f8       ??_R3Qt@@8                 004216f8     infodriverIf.obj
 0002:0000670c       ??_R2Qt@@8                 0042170c     infodriverIf.obj
 0002:00006714       ??_R1A@?0A@EA@Qt@@8        00421714     infodriverIf.obj
 0002:00006738       ??_R1CI@?0A@EN@cXInfo@@8   00421738     infodriverIf.obj
 0002:0000675c       ??_R3cXInfo@@8             0042175c     infodriverIf.obj
 0002:00006770       ??_R2cXInfo@@8             00421770     infodriverIf.obj
 0002:00006778       ??_R1A@?0A@EA@cXInfo@@8    00421778     infodriverIf.obj
 0002:0000679c       ??_R1GM@?0A@EA@cPanel@@8   0042179c     infodriverIf.obj
 0002:000067c0       ??_R3cPanel@@8             004217c0     infodriverIf.obj
 0002:000067d4       ??_R2cPanel@@8             004217d4     infodriverIf.obj
 0002:000067dc       ??_R1A@?0A@EA@cPanel@@8    004217dc     infodriverIf.obj
 0002:00006800       ??_R4infodriverIf@@6BcXInfo@@@ 00421800     infodriverIf.obj
 0002:00006818       ??_R4infodriverIf@@6BcPanel@@@ 00421818     infodriverIf.obj
 0002:00006830       ??_R4QSocketDevice@@6B@    00421830     netComms.obj
 0002:00006848       ??_R3QSocketDevice@@8      00421848     netComms.obj
 0002:0000685c       ??_R2QSocketDevice@@8      0042185c     netComms.obj
 0002:00006868       ??_R1A@?0A@EA@QSocketDevice@@8 00421868     netComms.obj
 0002:0000688c       ??_R1A@?0A@EA@QIODevice@@8 0042188c     netComms.obj
 0002:000068b0       ??_R3QIODevice@@8          004218b0     netComms.obj
 0002:000068c4       ??_R2QIODevice@@8          004218c4     netComms.obj
 0002:000068cc       ??_R4QSocketNotifier@@6B@  004218cc     netComms.obj
 0002:000068e4       ??_R3QSocketNotifier@@8    004218e4     netComms.obj
 0002:000068f8       ??_R2QSocketNotifier@@8    004218f8     netComms.obj
 0002:00006908       ??_R1A@?0A@EA@QSocketNotifier@@8 00421908     netComms.obj
 0002:0000692c       ??_R4netComms@@6B@         0042192c     netComms.obj
 0002:00006944       ??_R3netComms@@8           00421944     netComms.obj
 0002:00006958       ??_R2netComms@@8           00421958     netComms.obj
 0002:00006968       ??_R1A@?0A@EA@netComms@@8  00421968     netComms.obj
 0002:0000698c       ??_R4QPushButton@@6BQObject@@@ 0042198c     restartall.obj
 0002:000069a4       ??_R3QPushButton@@8        004219a4     restartall.obj
 0002:000069b8       ??_R2QPushButton@@8        004219b8     restartall.obj
 0002:000069d8       ??_R1A@?0A@EA@QPushButton@@8 004219d8     restartall.obj
 0002:000069fc       ??_R1A@?0A@EA@QButton@@8   004219fc     restartall.obj
 0002:00006a20       ??_R3QButton@@8            00421a20     restartall.obj
 0002:00006a34       ??_R2QButton@@8            00421a34     restartall.obj
 0002:00006a50       ??_R1A@?0A@EA@QWidget@@8   00421a50     restartall.obj
 0002:00006a74       ??_R3QWidget@@8            00421a74     restartall.obj
 0002:00006a88       ??_R2QWidget@@8            00421a88     restartall.obj
 0002:00006a9c       ??_R1CI@?0A@EA@QPaintDevice@@8 00421a9c     restartall.obj
 0002:00006ac0       ??_R3QPaintDevice@@8       00421ac0     restartall.obj
 0002:00006ad4       ??_R2QPaintDevice@@8       00421ad4     restartall.obj
 0002:00006adc       ??_R1A@?0A@EA@QPaintDevice@@8 00421adc     restartall.obj
 0002:00006b00       ??_R4QPushButton@@6BQPaintDevice@@@ 00421b00     restartall.obj
 0002:00006b18       ??_R4QVBoxLayout@@6BQObject@@@ 00421b18     restartall.obj
 0002:00006b30       ??_R3QVBoxLayout@@8        00421b30     restartall.obj
 0002:00006b44       ??_R2QVBoxLayout@@8        00421b44     restartall.obj
 0002:00006b64       ??_R1A@?0A@EA@QVBoxLayout@@8 00421b64     restartall.obj
 0002:00006b88       ??_R1A@?0A@EA@QBoxLayout@@8 00421b88     restartall.obj
 0002:00006bac       ??_R3QBoxLayout@@8         00421bac     restartall.obj
 0002:00006bc0       ??_R2QBoxLayout@@8         00421bc0     restartall.obj
 0002:00006bdc       ??_R1A@?0A@EA@QLayout@@8   00421bdc     restartall.obj
 0002:00006c00       ??_R3QLayout@@8            00421c00     restartall.obj
 0002:00006c14       ??_R2QLayout@@8            00421c14     restartall.obj
 0002:00006c28       ??_R1CI@?0A@EA@QLayoutItem@@8 00421c28     restartall.obj
 0002:00006c4c       ??_R3QLayoutItem@@8        00421c4c     restartall.obj
 0002:00006c60       ??_R2QLayoutItem@@8        00421c60     restartall.obj
 0002:00006c68       ??_R1A@?0A@EA@QLayoutItem@@8 00421c68     restartall.obj
 0002:00006c8c       ??_R4QVBoxLayout@@6BQLayoutItem@@@ 00421c8c     restartall.obj
 0002:00006ca4       ??_R4QHBoxLayout@@6BQObject@@@ 00421ca4     restartall.obj
 0002:00006cbc       ??_R3QHBoxLayout@@8        00421cbc     restartall.obj
 0002:00006cd0       ??_R2QHBoxLayout@@8        00421cd0     restartall.obj
 0002:00006cf0       ??_R1A@?0A@EA@QHBoxLayout@@8 00421cf0     restartall.obj
 0002:00006d14       ??_R4QHBoxLayout@@6BQLayoutItem@@@ 00421d14     restartall.obj
 0002:00006d2c       ??_R4QLabel@@6BQObject@@@  00421d2c     restartall.obj
 0002:00006d44       ??_R3QLabel@@8             00421d44     restartall.obj
 0002:00006d58       ??_R2QLabel@@8             00421d58     restartall.obj
 0002:00006d78       ??_R1A@?0A@EA@QLabel@@8    00421d78     restartall.obj
 0002:00006d9c       ??_R1A@?0A@EA@QFrame@@8    00421d9c     restartall.obj
 0002:00006dc0       ??_R3QFrame@@8             00421dc0     restartall.obj
 0002:00006dd4       ??_R2QFrame@@8             00421dd4     restartall.obj
 0002:00006df0       ??_R4QLabel@@6BQPaintDevice@@@ 00421df0     restartall.obj
 0002:00006e08       ??_R4QSpinBox@@6BQObject@@@ 00421e08     restartall.obj
 0002:00006e20       ??_R3QSpinBox@@8           00421e20     restartall.obj
 0002:00006e34       ??_R2QSpinBox@@8           00421e34     restartall.obj
 0002:00006e54       ??_R1A@?0A@EA@QSpinBox@@8  00421e54     restartall.obj
 0002:00006e78       ??_R1GM@?0A@EA@QRangeControl@@8 00421e78     restartall.obj
 0002:00006e9c       ??_R3QRangeControl@@8      00421e9c     restartall.obj
 0002:00006eb0       ??_R2QRangeControl@@8      00421eb0     restartall.obj
 0002:00006eb8       ??_R1A@?0A@EA@QRangeControl@@8 00421eb8     restartall.obj
 0002:00006edc       ??_R4QSpinBox@@6BQPaintDevice@@@ 00421edc     restartall.obj
 0002:00006ef4       ??_R4QSpinBox@@6B@         00421ef4     restartall.obj
 0002:00006f0c       ??_R4QCheckBox@@6BQObject@@@ 00421f0c     restartall.obj
 0002:00006f24       ??_R3QCheckBox@@8          00421f24     restartall.obj
 0002:00006f38       ??_R2QCheckBox@@8          00421f38     restartall.obj
 0002:00006f58       ??_R1A@?0A@EA@QCheckBox@@8 00421f58     restartall.obj
 0002:00006f7c       ??_R4QCheckBox@@6BQPaintDevice@@@ 00421f7c     restartall.obj
 0002:00006f94       ??_R4restartAllBase@@6BQObject@@@ 00421f94     restartall.obj
 0002:00006fac       ??_R3restartAllBase@@8     00421fac     restartall.obj
 0002:00006fc0       ??_R2restartAllBase@@8     00421fc0     restartall.obj
 0002:00006fe0       ??_R1A@?0A@EA@restartAllBase@@8 00421fe0     restartall.obj
 0002:00007004       ??_R1A@?0A@EA@QDialog@@8   00422004     restartall.obj
 0002:00007028       ??_R3QDialog@@8            00422028     restartall.obj
 0002:0000703c       ??_R2QDialog@@8            0042203c     restartall.obj
 0002:00007058       ??_R4restartAllBase@@6BQPaintDevice@@@ 00422058     restartall.obj
 0002:00007070       ??_R4QSpacerItem@@6B@      00422070     restartall.obj
 0002:00007088       ??_R3QSpacerItem@@8        00422088     restartall.obj
 0002:0000709c       ??_R2QSpacerItem@@8        0042209c     restartall.obj
 0002:000070a8       ??_R1A@?0A@EA@QSpacerItem@@8 004220a8     restartall.obj
 0002:000070cc       ??_R4restartAll@@6BQObject@@@ 004220cc     restartallimpl.obj
 0002:000070e4       ??_R3restartAll@@8         004220e4     restartallimpl.obj
 0002:000070f8       ??_R2restartAll@@8         004220f8     restartallimpl.obj
 0002:0000711c       ??_R1A@?0A@EA@restartAll@@8 0042211c     restartallimpl.obj
 0002:00007140       ??_R4restartAll@@6BQPaintDevice@@@ 00422140     restartallimpl.obj
 0002:00007158       ??_R4workStation@@6BQObject@@@ 00422158     workStation.obj
 0002:00007170       ??_R3workStation@@8        00422170     workStation.obj
 0002:00007184       ??_R2workStation@@8        00422184     workStation.obj
 0002:000071a0       ??_R1A@?0A@EA@workStation@@8 004221a0     workStation.obj
 0002:000071c4       ??_R13?0A@EC@Qt@@8         004221c4     workStation.obj
 0002:000071e8       ??_R1CM@?0A@EA@QListViewItem@@8 004221e8     workStation.obj
 0002:0000720c       ??_R3QListViewItem@@8      0042220c     workStation.obj
 0002:00007220       ??_R2QListViewItem@@8      00422220     workStation.obj
 0002:0000722c       ??_R1A@?0A@EA@QListViewItem@@8 0042222c     workStation.obj
 0002:00007250       ??_R1DA@?0A@EC@Qt@@8       00422250     workStation.obj
 0002:00007274       ??_R4workStation@@6BQListViewItem@@@ 00422274     workStation.obj
 0002:0000728c       ??_R4QMenuBar@@6BQObject@@@ 0042228c     wstrackermainwindow.obj
 0002:000072a4       ??_R3QMenuBar@@8           004222a4     wstrackermainwindow.obj
 0002:000072b8       ??_R2QMenuBar@@8           004222b8     wstrackermainwindow.obj
 0002:000072dc       ??_R1A@?0A@EA@QMenuBar@@8  004222dc     wstrackermainwindow.obj
 0002:00007300       ??_R1IM@?0A@EA@QMenuData@@8 00422300     wstrackermainwindow.obj
 0002:00007324       ??_R3QMenuData@@8          00422324     wstrackermainwindow.obj
 0002:00007338       ??_R2QMenuData@@8          00422338     wstrackermainwindow.obj
 0002:00007340       ??_R1A@?0A@EA@QMenuData@@8 00422340     wstrackermainwindow.obj
 0002:00007364       ??_R4QMenuBar@@6BQPaintDevice@@@ 00422364     wstrackermainwindow.obj
 0002:0000737c       ??_R4QMenuBar@@6B@         0042237c     wstrackermainwindow.obj
 0002:00007394       ??_R4QPopupMenu@@6BQObject@@@ 00422394     wstrackermainwindow.obj
 0002:000073ac       ??_R3QPopupMenu@@8         004223ac     wstrackermainwindow.obj
 0002:000073c0       ??_R2QPopupMenu@@8         004223c0     wstrackermainwindow.obj
 0002:000073e4       ??_R1A@?0A@EA@QPopupMenu@@8 004223e4     wstrackermainwindow.obj
 0002:00007408       ??_R4QPopupMenu@@6BQPaintDevice@@@ 00422408     wstrackermainwindow.obj
 0002:00007420       ??_R4QPopupMenu@@6B@       00422420     wstrackermainwindow.obj
 0002:00007438       ??_R4WSTrackerMainWindow@@6BQObject@@@ 00422438     wstrackermainwindow.obj
 0002:00007450       ??_R3WSTrackerMainWindow@@8 00422450     wstrackermainwindow.obj
 0002:00007464       ??_R2WSTrackerMainWindow@@8 00422464     wstrackermainwindow.obj
 0002:00007488       ??_R1A@?0A@EA@WSTrackerMainWindow@@8 00422488     wstrackermainwindow.obj
 0002:000074ac       ??_R1A@?0A@EA@WSTrackerMainWindowBase@@8 004224ac     wstrackermainwindow.obj
 0002:000074d0       ??_R3WSTrackerMainWindowBase@@8 004224d0     wstrackermainwindow.obj
 0002:000074e4       ??_R2WSTrackerMainWindowBase@@8 004224e4     wstrackermainwindow.obj
 0002:00007504       ??_R1A@?0A@EA@QMainWindow@@8 00422504     wstrackermainwindow.obj
 0002:00007528       ??_R3QMainWindow@@8        00422528     wstrackermainwindow.obj
 0002:0000753c       ??_R2QMainWindow@@8        0042253c     wstrackermainwindow.obj
 0002:00007558       ??_R4WSTrackerMainWindow@@6BQPaintDevice@@@ 00422558     wstrackermainwindow.obj
 0002:00007570       ??_R4QDomElement@@6B@      00422570     wstrackermainwindow.obj
 0002:00007588       ??_R3QDomElement@@8        00422588     wstrackermainwindow.obj
 0002:0000759c       ??_R2QDomElement@@8        0042259c     wstrackermainwindow.obj
 0002:000075a8       ??_R1A@?0A@EA@QDomElement@@8 004225a8     wstrackermainwindow.obj
 0002:000075cc       ??_R1A@?0A@EA@QDomNode@@8  004225cc     wstrackermainwindow.obj
 0002:000075f0       ??_R3QDomNode@@8           004225f0     wstrackermainwindow.obj
 0002:00007604       ??_R2QDomNode@@8           00422604     wstrackermainwindow.obj
 0002:0000760c       ??_R4QWidget@@6BQObject@@@ 0042260c     wstrackermainwindowbase.obj
 0002:00007624       ??_R4QWidget@@6BQPaintDevice@@@ 00422624     wstrackermainwindowbase.obj
 0002:0000763c       ??_R4QGroupBox@@6BQObject@@@ 0042263c     wstrackermainwindowbase.obj
 0002:00007654       ??_R3QGroupBox@@8          00422654     wstrackermainwindowbase.obj
 0002:00007668       ??_R2QGroupBox@@8          00422668     wstrackermainwindowbase.obj
 0002:00007688       ??_R1A@?0A@EA@QGroupBox@@8 00422688     wstrackermainwindowbase.obj
 0002:000076ac       ??_R4QGroupBox@@6BQPaintDevice@@@ 004226ac     wstrackermainwindowbase.obj
 0002:000076c4       ??_R4QListView@@6BQObject@@@ 004226c4     wstrackermainwindowbase.obj
 0002:000076dc       ??_R3QListView@@8          004226dc     wstrackermainwindowbase.obj
 0002:000076f0       ??_R2QListView@@8          004226f0     wstrackermainwindowbase.obj
 0002:00007714       ??_R1A@?0A@EA@QListView@@8 00422714     wstrackermainwindowbase.obj
 0002:00007738       ??_R1A@?0A@EA@QScrollView@@8 00422738     wstrackermainwindowbase.obj
 0002:0000775c       ??_R3QScrollView@@8        0042275c     wstrackermainwindowbase.obj
 0002:00007770       ??_R2QScrollView@@8        00422770     wstrackermainwindowbase.obj
 0002:00007790       ??_R4QListView@@6BQPaintDevice@@@ 00422790     wstrackermainwindowbase.obj
 0002:000077a8       ??_R4QLineEdit@@6BQObject@@@ 004227a8     wstrackermainwindowbase.obj
 0002:000077c0       ??_R3QLineEdit@@8          004227c0     wstrackermainwindowbase.obj
 0002:000077d4       ??_R2QLineEdit@@8          004227d4     wstrackermainwindowbase.obj
 0002:000077f4       ??_R1A@?0A@EA@QLineEdit@@8 004227f4     wstrackermainwindowbase.obj
 0002:00007818       ??_R4QLineEdit@@6BQPaintDevice@@@ 00422818     wstrackermainwindowbase.obj
 0002:00007830       ??_R4WSTrackerMainWindowBase@@6BQObject@@@ 00422830     wstrackermainwindowbase.obj
 0002:00007848       ??_R4WSTrackerMainWindowBase@@6BQPaintDevice@@@ 00422848     wstrackermainwindowbase.obj
 0002:00007860       ??_R4cPanel@@6B@           00422860     panel:panelif.obj
 0002:00007874       ??_R4cXInfo@@6B@           00422874     cxinfo:CXINFO.obj
 0002:00007888       ??_R4bncs_disklog@@6B@     00422888     bncs_disklog:bncs_disklog.obj
 0002:0000789c       ??_R3bncs_disklog@@8       0042289c     bncs_disklog:bncs_disklog.obj
 0002:000078ac       ??_R2bncs_disklog@@8       004228ac     bncs_disklog:bncs_disklog.obj
 0002:000078b4       ??_R1A@?0A@EA@bncs_disklog@@8 004228b4     bncs_disklog:bncs_disklog.obj
 0002:000078d0       ??_R4cBncsVersion@@6B@     004228d0     BncsVersionInfo:cBncsVersion.obj
 0002:000078e4       ??_R3cBncsVersion@@8       004228e4     BncsVersionInfo:cBncsVersion.obj
 0002:000078f4       ??_R2cBncsVersion@@8       004228f4     BncsVersionInfo:cBncsVersion.obj
 0002:000078fc       ??_R1A@?0A@EA@cBncsVersion@@8 004228fc     BncsVersionInfo:cBncsVersion.obj
 0002:00007918       ??_R4QtSingleApplication@@6B@ 00422918     QTSingleApplication:qtsingleapplication.obj
 0002:0000792c       ??_R3QtSingleApplication@@8 0042292c     QTSingleApplication:qtsingleapplication.obj
 0002:0000793c       ??_R2QtSingleApplication@@8 0042293c     QTSingleApplication:qtsingleapplication.obj
 0002:00007950       ??_R1A@?0A@EA@QtSingleApplication@@8 00422950     QTSingleApplication:qtsingleapplication.obj
 0002:0000796c       ??_R1A@?0A@EA@QApplication@@8 0042296c     QTSingleApplication:qtsingleapplication.obj
 0002:00007988       ??_R3QApplication@@8       00422988     QTSingleApplication:qtsingleapplication.obj
 0002:00007998       ??_R2QApplication@@8       00422998     QTSingleApplication:qtsingleapplication.obj
 0002:000079a8       ??_R4type_info@@6B@        004229a8     MSVCRT:ti_inst.obj
 0002:000079bc       ??_R3type_info@@8          004229bc     MSVCRT:ti_inst.obj
 0002:000079cc       ??_R2type_info@@8          004229cc     MSVCRT:ti_inst.obj
 0002:000079d4       ??_R1A@?0A@EA@type_info@@8 004229d4     MSVCRT:ti_inst.obj
 0002:000079f0       ??_R4asyncPost@@6B@        004229f0     asyncPost:asyncPost.obj
 0002:00007a04       ??_R3asyncPost@@8          00422a04     asyncPost:asyncPost.obj
 0002:00007a14       ??_R2asyncPost@@8          00422a14     asyncPost:asyncPost.obj
 0002:00007a1c       ??_R1A@?0A@EA@asyncPost@@8 00422a1c     asyncPost:asyncPost.obj
 0002:00007c00       ___rtc_iaa                 00422c00     MSVCRT:initsect.obj
 0002:00007d04       ___rtc_izz                 00422d04     MSVCRT:initsect.obj
 0002:00007e08       ___rtc_taa                 00422e08     MSVCRT:initsect.obj
 0002:00007f0c       ___rtc_tzz                 00422f0c     MSVCRT:initsect.obj
 0003:00000000       ?timeoutPeriod@infodriverIf@@2HA 00425000     infodriverIf.obj
 0003:00000004       ?timeoutPeriod@workStation@@2HA 00425004     workStation.obj
 0003:0000038c       ___security_cookie         0042538c     MSVCRT:gs_cookie.obj
 0003:00000390       ___security_cookie_complement 00425390     MSVCRT:gs_cookie.obj
 0003:000003a0       ___defaultmatherr          004253a0     MSVCRT:merr.obj
 0003:000003a4       ___globallocalestatus      004253a4     MSVCRT:xthdloc.obj
 0003:000003a8       ___native_dllmain_reason   004253a8     MSVCRT:natstart.obj
 0003:000004dc       ??_R0?AVinfodriverIf@@@8   004254dc     infodriverIf.obj
 0003:000004fc       ??_R0?AVQObject@@@8        004254fc     infodriverIf.obj
 0003:00000518       ??_R0?AVQt@@@8             00425518     infodriverIf.obj
 0003:0000052c       ??_R0?AVcXInfo@@@8         0042552c     infodriverIf.obj
 0003:00000548       ??_R0?AVcPanel@@@8         00425548     infodriverIf.obj
 0003:00000564       ??_R0?AVQSocketDevice@@@8  00425564     netComms.obj
 0003:00000588       ??_R0?AVQIODevice@@@8      00425588     netComms.obj
 0003:000005a4       ??_R0?AVQSocketNotifier@@@8 004255a4     netComms.obj
 0003:000005c8       ??_R0?AVnetComms@@@8       004255c8     netComms.obj
 0003:000005e4       ??_R0?AVQPushButton@@@8    004255e4     restartall.obj
 0003:00000604       ??_R0?AVQButton@@@8        00425604     restartall.obj
 0003:00000620       ??_R0?AVQWidget@@@8        00425620     restartall.obj
 0003:0000063c       ??_R0?AVQPaintDevice@@@8   0042563c     restartall.obj
 0003:0000065c       ??_R0?AVQVBoxLayout@@@8    0042565c     restartall.obj
 0003:0000067c       ??_R0?AVQBoxLayout@@@8     0042567c     restartall.obj
 0003:0000069c       ??_R0?AVQLayout@@@8        0042569c     restartall.obj
 0003:000006b8       ??_R0?AVQLayoutItem@@@8    004256b8     restartall.obj
 0003:000006d8       ??_R0?AVQHBoxLayout@@@8    004256d8     restartall.obj
 0003:000006f8       ??_R0?AVQLabel@@@8         004256f8     restartall.obj
 0003:00000714       ??_R0?AVQFrame@@@8         00425714     restartall.obj
 0003:00000730       ??_R0?AVQSpinBox@@@8       00425730     restartall.obj
 0003:0000074c       ??_R0?AVQRangeControl@@@8  0042574c     restartall.obj
 0003:00000770       ??_R0?AVQCheckBox@@@8      00425770     restartall.obj
 0003:0000078c       ??_R0?AVrestartAllBase@@@8 0042578c     restartall.obj
 0003:000007b0       ??_R0?AVQDialog@@@8        004257b0     restartall.obj
 0003:000007cc       ??_R0?AVQSpacerItem@@@8    004257cc     restartall.obj
 0003:000007ec       ??_R0?AVrestartAll@@@8     004257ec     restartallimpl.obj
 0003:0000080c       ??_R0?AVworkStation@@@8    0042580c     workStation.obj
 0003:0000082c       ??_R0?AVQListViewItem@@@8  0042582c     workStation.obj
 0003:00000850       ??_R0?AVQMenuBar@@@8       00425850     wstrackermainwindow.obj
 0003:0000086c       ??_R0?AVQMenuData@@@8      0042586c     wstrackermainwindow.obj
 0003:00000888       ??_R0?AVQPopupMenu@@@8     00425888     wstrackermainwindow.obj
 0003:000008a8       ??_R0?AVWSTrackerMainWindow@@@8 004258a8     wstrackermainwindow.obj
 0003:000008d0       ??_R0?AVWSTrackerMainWindowBase@@@8 004258d0     wstrackermainwindow.obj
 0003:00000900       ??_R0?AVQMainWindow@@@8    00425900     wstrackermainwindow.obj
 0003:00000920       ??_R0?AVQDomElement@@@8    00425920     wstrackermainwindow.obj
 0003:00000940       ??_R0?AVQDomNode@@@8       00425940     wstrackermainwindow.obj
 0003:0000095c       ??_R0?AVQGroupBox@@@8      0042595c     wstrackermainwindowbase.obj
 0003:00000978       ??_R0?AVQListView@@@8      00425978     wstrackermainwindowbase.obj
 0003:00000994       ??_R0?AVQScrollView@@@8    00425994     wstrackermainwindowbase.obj
 0003:000009b4       ??_R0?AVQLineEdit@@@8      004259b4     wstrackermainwindowbase.obj
 0003:000009d0       ??_R0?AVbncs_disklog@@@8   004259d0     bncs_disklog:bncs_disklog.obj
 0003:000009ec       ??_R0?AVcBncsVersion@@@8   004259ec     BncsVersionInfo:cBncsVersion.obj
 0003:00000a08       ??_R0?AVQtSingleApplication@@@8 00425a08     QTSingleApplication:qtsingleapplication.obj
 0003:00000a2c       ??_R0?AVQApplication@@@8   00425a2c     QTSingleApplication:qtsingleapplication.obj
 0003:00000a48       ??_R0?AVtype_info@@@8      00425a48     MSVCRT:ti_inst.obj
 0003:00000a60       ??_R0?AVasyncPost@@@8      00425a60     asyncPost:asyncPost.obj
 0003:00000bb8       ?metaObj@restartAllBase@@0PAVQMetaObject@@A 00425bb8     moc_restartall.obj
 0003:00000bc4       ?metaObj@restartAll@@0PAVQMetaObject@@A 00425bc4     moc_restartallimpl.obj
 0003:00000bd0       ?metaObj@infodriverIf@@0PAVQMetaObject@@A 00425bd0     moc_infodriverIf.obj
 0003:00000bf4       ?metaObj@netComms@@0PAVQMetaObject@@A 00425bf4     moc_netComms.obj
 0003:00000c18       ?metaObj@workStation@@0PAVQMetaObject@@A 00425c18     moc_workStation.obj
 0003:00000c3c       ?metaObj@WSTrackerMainWindow@@0PAVQMetaObject@@A 00425c3c     moc_wstrackermainwindow.obj
 0003:00000c9c       ?metaObj@WSTrackerMainWindowBase@@0PAVQMetaObject@@A 00425c9c     moc_wstrackermainwindowbase.obj
 0003:00000cf4       ?metaObj@QtSingleApplication@@0PAVQMetaObject@@A 00425cf4     QTSingleApplication:moc_qtsingleapplication.obj
 0003:00001090       __commode                  00426090     MSVCRT:xncommod.obj
 0003:00001094       __dowildcard               00426094     MSVCRT:wildcard.obj
 0003:00001098       __newmode                  00426098     MSVCRT:_newmode.obj
 0003:0000109c       __fmode                    0042609c     MSVCRT:xtxtmode.obj
 0003:000010a0       ___native_startup_lock     004260a0     <common>
 0003:000010b0       ___native_startup_state    004260b0     <common>
 0003:000010b4       ___dyn_tls_init_callback   004260b4     <common>
 0003:000010c4       ___onexitend               004260c4     <common>
 0003:000010d4       ___onexitbegin             004260d4     <common>
 0004:00000000       __imp__BNCS32TxMessage     00427000     bncsif32:BNCSIF32.dll
 0004:00000004       __imp__BNCS32RxMessage     00427004     bncsif32:BNCSIF32.dll
 0004:00000008       \177BNCSIF32_NULL_THUNK_DATA 00427008     bncsif32:BNCSIF32.dll
 0004:00000034       __imp__GetStockObject@4    00427034     gdi32:GDI32.dll
 0004:00000038       \177GDI32_NULL_THUNK_DATA  00427038     gdi32:GDI32.dll
 0004:00000064       __imp__GetCurrentThreadId@0 00427064     kernel32:KERNEL32.dll
 0004:00000068       __imp__GetCurrentProcessId@0 00427068     kernel32:KERNEL32.dll
 0004:0000006c       __imp__QueryPerformanceCounter@4 0042706c     kernel32:KERNEL32.dll
 0004:00000070       __imp__IsProcessorFeaturePresent@4 00427070     kernel32:KERNEL32.dll
 0004:00000074       __imp__IsDebuggerPresent@0 00427074     kernel32:KERNEL32.dll
 0004:00000078       __imp__DecodePointer@4     00427078     kernel32:KERNEL32.dll
 0004:0000007c       __imp__EncodePointer@4     0042707c     kernel32:KERNEL32.dll
 0004:00000080       __imp__WritePrivateProfileStringA@16 00427080     kernel32:KERNEL32.dll
 0004:00000084       __imp__FreeLibrary@4       00427084     kernel32:KERNEL32.dll
 0004:00000088       __imp__GetProcAddress@8    00427088     kernel32:KERNEL32.dll
 0004:0000008c       __imp__LocalFree@4         0042708c     kernel32:KERNEL32.dll
 0004:00000090       __imp__GetLastError@0      00427090     kernel32:KERNEL32.dll
 0004:00000094       __imp__GetSystemTimeAsFileTime@4 00427094     kernel32:KERNEL32.dll
 0004:00000098       __imp__lstrcmpA@8          00427098     kernel32:KERNEL32.dll
 0004:0000009c       __imp__lstrcpynA@12        0042709c     kernel32:KERNEL32.dll
 0004:000000a0       __imp__lstrcpyA@8          004270a0     kernel32:KERNEL32.dll
 0004:000000a4       __imp__lstrcatA@8          004270a4     kernel32:KERNEL32.dll
 0004:000000a8       __imp__lstrlenA@4          004270a8     kernel32:KERNEL32.dll
 0004:000000ac       __imp__LoadLibraryA@4      004270ac     kernel32:KERNEL32.dll
 0004:000000b0       __imp__OutputDebugStringA@4 004270b0     kernel32:KERNEL32.dll
 0004:000000b4       __imp__WriteFile@20        004270b4     kernel32:KERNEL32.dll
 0004:000000b8       __imp__SetEndOfFile@4      004270b8     kernel32:KERNEL32.dll
 0004:000000bc       __imp__SetFilePointer@16   004270bc     kernel32:KERNEL32.dll
 0004:000000c0       __imp__CloseHandle@4       004270c0     kernel32:KERNEL32.dll
 0004:000000c4       __imp__GetSystemTime@4     004270c4     kernel32:KERNEL32.dll
 0004:000000c8       __imp__GetLocalTime@4      004270c8     kernel32:KERNEL32.dll
 0004:000000cc       __imp__CreateFileA@28      004270cc     kernel32:KERNEL32.dll
 0004:000000d0       __imp__GetPrivateProfileStringA@24 004270d0     kernel32:KERNEL32.dll
 0004:000000d4       __imp__FormatMessageA@28   004270d4     kernel32:KERNEL32.dll
 0004:000000d8       __imp__GetPrivateProfileIntA@16 004270d8     kernel32:KERNEL32.dll
 0004:000000dc       \177KERNEL32_NULL_THUNK_DATA 004270dc     kernel32:KERNEL32.dll
 0004:00000120       __imp___crt_debugger_hook  00427120     MSVCRT:MSVCR120.dll
 0004:00000124       __imp___onexit             00427124     MSVCRT:MSVCR120.dll
 0004:00000128       __imp____dllonexit         00427128     MSVCRT:MSVCR120.dll
 0004:0000012c       __imp___calloc_crt         0042712c     MSVCRT:MSVCR120.dll
 0004:00000130       __imp___unlock             00427130     MSVCRT:MSVCR120.dll
 0004:00000134       __imp___lock               00427134     MSVCRT:MSVCR120.dll
 0004:00000138       __imp_??1type_info@@UAE@XZ 00427138     MSVCRT:MSVCR120.dll
 0004:0000013c       __imp____crtUnhandledException 0042713c     MSVCRT:MSVCR120.dll
 0004:00000140       __imp__free                00427140     MSVCRT:MSVCR120.dll
 0004:00000144       __imp__strpbrk             00427144     MSVCRT:MSVCR120.dll
 0004:00000148       __imp___mkdir              00427148     MSVCRT:MSVCR120.dll
 0004:0000014c       __imp___time64             0042714c     MSVCRT:MSVCR120.dll
 0004:00000150       __imp___localtime64        00427150     MSVCRT:MSVCR120.dll
 0004:00000154       __imp__strtok              00427154     MSVCRT:MSVCR120.dll
 0004:00000158       __imp__strncpy             00427158     MSVCRT:MSVCR120.dll
 0004:0000015c       __imp__vsprintf            0042715c     MSVCRT:MSVCR120.dll
 0004:00000160       __imp__memset              00427160     MSVCRT:MSVCR120.dll
 0004:00000164       __imp__memcpy              00427164     MSVCRT:MSVCR120.dll
 0004:00000168       __imp___purecall           00427168     MSVCRT:MSVCR120.dll
 0004:0000016c       __imp__getenv              0042716c     MSVCRT:MSVCR120.dll
 0004:00000170       __imp__sprintf             00427170     MSVCRT:MSVCR120.dll
 0004:00000174       __imp__atoi                00427174     MSVCRT:MSVCR120.dll
 0004:00000178       __imp_??2@YAPAXI@Z         00427178     MSVCRT:MSVCR120.dll
 0004:0000017c       __imp____CxxFrameHandler3  0042717c     MSVCRT:MSVCR120.dll
 0004:00000180       __imp_??3@YAXPAX@Z         00427180     MSVCRT:MSVCR120.dll
 0004:00000184       __imp____crtTerminateProcess 00427184     MSVCRT:MSVCR120.dll
 0004:00000188       __imp_?terminate@@YAXXZ    00427188     MSVCRT:MSVCR120.dll
 0004:0000018c       __imp___XcptFilter         0042718c     MSVCRT:MSVCR120.dll
 0004:00000190       __imp____crtGetShowWindowMode 00427190     MSVCRT:MSVCR120.dll
 0004:00000194       __imp___amsg_exit          00427194     MSVCRT:MSVCR120.dll
 0004:00000198       __imp____getmainargs       00427198     MSVCRT:MSVCR120.dll
 0004:0000019c       __imp____set_app_type      0042719c     MSVCRT:MSVCR120.dll
 0004:000001a0       __imp__exit                004271a0     MSVCRT:MSVCR120.dll
 0004:000001a4       __imp___exit               004271a4     MSVCRT:MSVCR120.dll
 0004:000001a8       __imp___cexit              004271a8     MSVCRT:MSVCR120.dll
 0004:000001ac       __imp___ismbblead          004271ac     MSVCRT:MSVCR120.dll
 0004:000001b0       __imp___configthreadlocale 004271b0     MSVCRT:MSVCR120.dll
 0004:000001b4       __imp____setusermatherr    004271b4     MSVCRT:MSVCR120.dll
 0004:000001b8       __imp___initterm_e         004271b8     MSVCRT:MSVCR120.dll
 0004:000001bc       __imp___initterm           004271bc     MSVCRT:MSVCR120.dll
 0004:000001c0       __imp___acmdln             004271c0     MSVCRT:MSVCR120.dll
 0004:000001c4       __imp___fmode              004271c4     MSVCRT:MSVCR120.dll
 0004:000001c8       __imp___commode            004271c8     MSVCRT:MSVCR120.dll
 0004:000001cc       __imp___except_handler4_common 004271cc     MSVCRT:MSVCR120.dll
 0004:000001d0       __imp____crtSetUnhandledExceptionFilter 004271d0     MSVCRT:MSVCR120.dll
 0004:000001d4       __imp___invoke_watson      004271d4     MSVCRT:MSVCR120.dll
 0004:000001d8       __imp___controlfp_s        004271d8     MSVCRT:MSVCR120.dll
 0004:000001dc       __imp__strcpy              004271dc     MSVCRT:MSVCR120.dll
 0004:000001e0       __imp__malloc              004271e0     MSVCRT:MSVCR120.dll
 0004:000001e4       __imp__strlen              004271e4     MSVCRT:MSVCR120.dll
 0004:000001e8       \177MSVCR120_NULL_THUNK_DATA 004271e8     MSVCRT:MSVCR120.dll
 0004:0000023c       __imp__SetWindowLongA@12   0042723c     user32:USER32.dll
 0004:00000240       __imp__SendMessageA@16     00427240     user32:USER32.dll
 0004:00000244       __imp__PostMessageA@16     00427244     user32:USER32.dll
 0004:00000248       __imp__DefWindowProcA@16   00427248     user32:USER32.dll
 0004:0000024c       __imp__RegisterClassA@4    0042724c     user32:USER32.dll
 0004:00000250       __imp__SendMessageTimeoutA@28 00427250     user32:USER32.dll
 0004:00000254       __imp__MessageBoxA@16      00427254     user32:USER32.dll
 0004:00000258       __imp__UnregisterClassA@8  00427258     user32:USER32.dll
 0004:0000025c       __imp__FindWindowA@8       0042725c     user32:USER32.dll
 0004:00000260       __imp__wsprintfA           00427260     user32:USER32.dll
 0004:00000264       __imp__GetWindowLongA@8    00427264     user32:USER32.dll
 0004:00000268       __imp__DestroyWindow@4     00427268     user32:USER32.dll
 0004:0000026c       __imp__IsWindow@4          0042726c     user32:USER32.dll
 0004:00000270       __imp__CreateWindowExA@48  00427270     user32:USER32.dll
 0004:00000274       \177USER32_NULL_THUNK_DATA 00427274     user32:USER32.dll
 0004:000002a8       __imp__GetFileVersionInfoA@16 004272a8     version:VERSION.dll
 0004:000002ac       __imp__VerQueryValueA@16   004272ac     version:VERSION.dll
 0004:000002b0       __imp__GetFileVersionInfoSizeA@8 004272b0     version:VERSION.dll
 0004:000002b4       \177VERSION_NULL_THUNK_DATA 004272b4     version:VERSION.dll
 0004:000002e0       __imp__setsockopt@20       004272e0     wsock32:WSOCK32.dll
 0004:000002e4       \177WSOCK32_NULL_THUNK_DATA 004272e4     wsock32:WSOCK32.dll
 0004:00000310       __imp_?timerEvent@QObject@@MAEXPAVQTimerEvent@@@Z 00427310     qt-mt323:qt-mt323.dll
 0004:00000314       __imp_?ungetch@QSocketDevice@@UAEHH@Z 00427314     qt-mt323:qt-mt323.dll
 0004:00000318       __imp_?writeBlock@QSocketDevice@@UAEJPBDK@Z 00427318     qt-mt323:qt-mt323.dll
 0004:0000031c       __imp_?writeBlock@QSocketDevice@@UAEJPBDKABVQHostAddress@@G@Z 0042731c     qt-mt323:qt-mt323.dll
 0004:00000320       __imp_?setName@QWidget@@UAEXPBD@Z 00427320     qt-mt323:qt-mt323.dll
 0004:00000324       __imp_??0QDialog@@QAE@PAVQWidget@@PBD_NI@Z 00427324     qt-mt323:qt-mt323.dll
 0004:00000328       __imp_??1QDialog@@UAE@XZ   00427328     qt-mt323:qt-mt323.dll
 0004:0000032c       __imp_?resize@QDialog@@QAEXABVQSize@@@Z 0042732c     qt-mt323:qt-mt323.dll
 0004:00000330       __imp_?minimumSizeHint@QDialog@@UBE?AVQSize@@XZ 00427330     qt-mt323:qt-mt323.dll
 0004:00000334       __imp_?setSizeGripEnabled@QDialog@@QAEX_N@Z 00427334     qt-mt323:qt-mt323.dll
 0004:00000338       __imp_?setModal@QDialog@@QAEX_N@Z 00427338     qt-mt323:qt-mt323.dll
 0004:0000033c       __imp_??0QKeySequence@@QAE@ABVQString@@@Z 0042733c     qt-mt323:qt-mt323.dll
 0004:00000340       __imp_??1QKeySequence@@QAE@XZ 00427340     qt-mt323:qt-mt323.dll
 0004:00000344       __imp_??1QButton@@UAE@XZ   00427344     qt-mt323:qt-mt323.dll
 0004:00000348       __imp_??0QPushButton@@QAE@PAVQWidget@@PBD@Z 00427348     qt-mt323:qt-mt323.dll
 0004:0000034c       __imp_??1QPushButton@@UAE@XZ 0042734c     qt-mt323:qt-mt323.dll
 0004:00000350       __imp_??0QLabel@@QAE@PAVQWidget@@PBDI@Z 00427350     qt-mt323:qt-mt323.dll
 0004:00000354       __imp_??1QLabel@@UAE@XZ    00427354     qt-mt323:qt-mt323.dll
 0004:00000358       __imp_??0QSpinBox@@QAE@PAVQWidget@@PBD@Z 00427358     qt-mt323:qt-mt323.dll
 0004:0000035c       __imp_??1QSpinBox@@UAE@XZ  0042735c     qt-mt323:qt-mt323.dll
 0004:00000360       __imp_?setMinValue@QSpinBox@@QAEXH@Z 00427360     qt-mt323:qt-mt323.dll
 0004:00000364       __imp_?setMaxValue@QSpinBox@@QAEXH@Z 00427364     qt-mt323:qt-mt323.dll
 0004:00000368       __imp_??0QCheckBox@@QAE@PAVQWidget@@PBD@Z 00427368     qt-mt323:qt-mt323.dll
 0004:0000036c       __imp_??1QLayoutItem@@UAE@XZ 0042736c     qt-mt323:qt-mt323.dll
 0004:00000370       __imp_?setResizeMode@QLayout@@QAEXW4ResizeMode@1@@Z 00427370     qt-mt323:qt-mt323.dll
 0004:00000374       __imp_?addWidget@QBoxLayout@@QAEXPAVQWidget@@HH@Z 00427374     qt-mt323:qt-mt323.dll
 0004:00000378       __imp_?addLayout@QBoxLayout@@QAEXPAVQLayout@@H@Z 00427378     qt-mt323:qt-mt323.dll
 0004:0000037c       __imp_??0QHBoxLayout@@QAE@PAVQWidget@@HHPBD@Z 0042737c     qt-mt323:qt-mt323.dll
 0004:00000380       __imp_??1QHBoxLayout@@UAE@XZ 00427380     qt-mt323:qt-mt323.dll
 0004:00000384       __imp_??0QVBoxLayout@@QAE@PAVQWidget@@HHPBD@Z 00427384     qt-mt323:qt-mt323.dll
 0004:00000388       __imp_??1QVBoxLayout@@UAE@XZ 00427388     qt-mt323:qt-mt323.dll
 0004:0000038c       __imp_?add@QWhatsThis@@SAXPAVQWidget@@ABVQString@@@Z 0042738c     qt-mt323:qt-mt323.dll
 0004:00000390       __imp_?accept@QDialog@@MAEXXZ 00427390     qt-mt323:qt-mt323.dll
 0004:00000394       __imp_?addItem@QBoxLayout@@UAEXPAVQLayoutItem@@@Z 00427394     qt-mt323:qt-mt323.dll
 0004:00000398       __imp_?adjustSize@QWidget@@UAEXXZ 00427398     qt-mt323:qt-mt323.dll
 0004:0000039c       __imp_?childEvent@QLayout@@MAEXPAVQChildEvent@@@Z 0042739c     qt-mt323:qt-mt323.dll
 0004:000003a0       __imp_?className@QCheckBox@@UBEPBDXZ 004273a0     qt-mt323:qt-mt323.dll
 0004:000003a4       __imp_?className@QHBoxLayout@@UBEPBDXZ 004273a4     qt-mt323:qt-mt323.dll
 0004:000003a8       __imp_?className@QLabel@@UBEPBDXZ 004273a8     qt-mt323:qt-mt323.dll
 0004:000003ac       __imp_?className@QPushButton@@UBEPBDXZ 004273ac     qt-mt323:qt-mt323.dll
 0004:000003b0       __imp_?className@QSpinBox@@UBEPBDXZ 004273b0     qt-mt323:qt-mt323.dll
 0004:000003b4       __imp_?className@QVBoxLayout@@UBEPBDXZ 004273b4     qt-mt323:qt-mt323.dll
 0004:000003b8       __imp_?cleanText@QSpinBox@@UBE?AVQString@@XZ 004273b8     qt-mt323:qt-mt323.dll
 0004:000003bc       __imp_?close@QWidget@@UAE_N_N@Z 004273bc     qt-mt323:qt-mt323.dll
 0004:000003c0       __imp_?closeEvent@QDialog@@MAEXPAVQCloseEvent@@@Z 004273c0     qt-mt323:qt-mt323.dll
 0004:000003c4       __imp_?closeEvent@QWidget@@MAEXPAVQCloseEvent@@@Z 004273c4     qt-mt323:qt-mt323.dll
 0004:000003c8       __imp_?cmd@QPaintDevice@@MAE_NHPAVQPainter@@PATQPDevCmdParam@@@Z 004273c8     qt-mt323:qt-mt323.dll
 0004:000003cc       __imp_?contextMenuEvent@QDialog@@MAEXPAVQContextMenuEvent@@@Z 004273cc     qt-mt323:qt-mt323.dll
 0004:000003d0       __imp_?contextMenuEvent@QWidget@@MAEXPAVQContextMenuEvent@@@Z 004273d0     qt-mt323:qt-mt323.dll
 0004:000003d4       __imp_?create@QWidget@@MAEXPAUHWND__@@_N1@Z 004273d4     qt-mt323:qt-mt323.dll
 0004:000003d8       __imp_?customWhatsThis@QWidget@@UBE_NXZ 004273d8     qt-mt323:qt-mt323.dll
 0004:000003dc       __imp_?destroy@QWidget@@MAEX_N0@Z 004273dc     qt-mt323:qt-mt323.dll
 0004:000003e0       __imp_?done@QDialog@@MAEXH@Z 004273e0     qt-mt323:qt-mt323.dll
 0004:000003e4       __imp_?dragEnterEvent@QWidget@@MAEXPAVQDragEnterEvent@@@Z 004273e4     qt-mt323:qt-mt323.dll
 0004:000003e8       __imp_?dragLeaveEvent@QWidget@@MAEXPAVQDragLeaveEvent@@@Z 004273e8     qt-mt323:qt-mt323.dll
 0004:000003ec       __imp_?dragMoveEvent@QWidget@@MAEXPAVQDragMoveEvent@@@Z 004273ec     qt-mt323:qt-mt323.dll
 0004:000003f0       __imp_?drawButton@QCheckBox@@MAEXPAVQPainter@@@Z 004273f0     qt-mt323:qt-mt323.dll
 0004:000003f4       __imp_?drawButton@QPushButton@@MAEXPAVQPainter@@@Z 004273f4     qt-mt323:qt-mt323.dll
 0004:000003f8       __imp_?drawButtonLabel@QCheckBox@@MAEXPAVQPainter@@@Z 004273f8     qt-mt323:qt-mt323.dll
 0004:000003fc       __imp_?drawButtonLabel@QPushButton@@MAEXPAVQPainter@@@Z 004273fc     qt-mt323:qt-mt323.dll
 0004:00000400       __imp_?drawContents@QLabel@@MAEXPAVQPainter@@@Z 00427400     qt-mt323:qt-mt323.dll
 0004:00000404       __imp_?drawFrame@QFrame@@MAEXPAVQPainter@@@Z 00427404     qt-mt323:qt-mt323.dll
 0004:00000408       __imp_?dropEvent@QWidget@@MAEXPAVQDropEvent@@@Z 00427408     qt-mt323:qt-mt323.dll
 0004:0000040c       __imp_?enabledChange@QButton@@MAEX_N@Z 0042740c     qt-mt323:qt-mt323.dll
 0004:00000410       __imp_?enabledChange@QWidget@@MAEX_N@Z 00427410     qt-mt323:qt-mt323.dll
 0004:00000414       __imp_?enterEvent@QWidget@@MAEXPAVQEvent@@@Z 00427414     qt-mt323:qt-mt323.dll
 0004:00000418       __imp_?event@QWidget@@MAE_NPAVQEvent@@@Z 00427418     qt-mt323:qt-mt323.dll
 0004:0000041c       __imp_?eventFilter@QDialog@@MAE_NPAVQObject@@PAVQEvent@@@Z 0042741c     qt-mt323:qt-mt323.dll
 0004:00000420       __imp_?eventFilter@QLayout@@MAE_NPAVQObject@@PAVQEvent@@@Z 00427420     qt-mt323:qt-mt323.dll
 0004:00000424       __imp_?eventFilter@QSpinBox@@MAE_NPAVQObject@@PAVQEvent@@@Z 00427424     qt-mt323:qt-mt323.dll
 0004:00000428       __imp_?expanding@QBoxLayout@@UBE?AW4ExpandData@QSizePolicy@@XZ 00427428     qt-mt323:qt-mt323.dll
 0004:0000042c       __imp_?expanding@QSpacerItem@@UBE?AW4ExpandData@QSizePolicy@@XZ 0042742c     qt-mt323:qt-mt323.dll
 0004:00000430       __imp_?focusInEvent@QButton@@MAEXPAVQFocusEvent@@@Z 00427430     qt-mt323:qt-mt323.dll
 0004:00000434       __imp_?focusInEvent@QPushButton@@MAEXPAVQFocusEvent@@@Z 00427434     qt-mt323:qt-mt323.dll
 0004:00000438       __imp_?focusInEvent@QWidget@@MAEXPAVQFocusEvent@@@Z 00427438     qt-mt323:qt-mt323.dll
 0004:0000043c       __imp_?focusNextPrevChild@QWidget@@MAE_N_N@Z 0042743c     qt-mt323:qt-mt323.dll
 0004:00000440       __imp_?focusOutEvent@QButton@@MAEXPAVQFocusEvent@@@Z 00427440     qt-mt323:qt-mt323.dll
 0004:00000444       __imp_?focusOutEvent@QPushButton@@MAEXPAVQFocusEvent@@@Z 00427444     qt-mt323:qt-mt323.dll
 0004:00000448       __imp_?focusOutEvent@QWidget@@MAEXPAVQFocusEvent@@@Z 00427448     qt-mt323:qt-mt323.dll
 0004:0000044c       __imp_?fontChange@QLabel@@MAEXABVQFont@@@Z 0042744c     qt-mt323:qt-mt323.dll
 0004:00000450       __imp_?fontChange@QWidget@@MAEXABVQFont@@@Z 00427450     qt-mt323:qt-mt323.dll
 0004:00000454       __imp_?fontInf@QPaintDevice@@MBEHPAVQFont@@H@Z 00427454     qt-mt323:qt-mt323.dll
 0004:00000458       __imp_?fontMet@QPaintDevice@@MBEHPAVQFont@@HPBDH@Z 00427458     qt-mt323:qt-mt323.dll
 0004:0000045c       __imp_?frameChanged@QFrame@@MAEXXZ 0042745c     qt-mt323:qt-mt323.dll
 0004:00000460       __imp_?geometry@QLayout@@UBE?AVQRect@@XZ 00427460     qt-mt323:qt-mt323.dll
 0004:00000464       __imp_?geometry@QSpacerItem@@UBE?AVQRect@@XZ 00427464     qt-mt323:qt-mt323.dll
 0004:00000468       __imp_?handle@QPaintDevice@@UBEPAUHDC__@@XZ 00427468     qt-mt323:qt-mt323.dll
 0004:0000046c       __imp_?hasHeightForWidth@QBoxLayout@@UBE_NXZ 0042746c     qt-mt323:qt-mt323.dll
 0004:00000470       __imp_?hasHeightForWidth@QLayoutItem@@UBE_NXZ 00427470     qt-mt323:qt-mt323.dll
 0004:00000474       __imp_?heightForWidth@QBoxLayout@@UBEHH@Z 00427474     qt-mt323:qt-mt323.dll
 0004:00000478       __imp_?heightForWidth@QLabel@@UBEHH@Z 00427478     qt-mt323:qt-mt323.dll
 0004:0000047c       __imp_?heightForWidth@QLayoutItem@@UBEHH@Z 0042747c     qt-mt323:qt-mt323.dll
 0004:00000480       __imp_?heightForWidth@QWidget@@UBEHH@Z 00427480     qt-mt323:qt-mt323.dll
 0004:00000484       __imp_?hide@QDialog@@UAEXXZ 00427484     qt-mt323:qt-mt323.dll
 0004:00000488       __imp_?hide@QWidget@@UAEXXZ 00427488     qt-mt323:qt-mt323.dll
 0004:0000048c       __imp_?hideEvent@QWidget@@MAEXPAVQHideEvent@@@Z 0042748c     qt-mt323:qt-mt323.dll
 0004:00000490       __imp_?hitButton@QButton@@MBE_NABVQPoint@@@Z 00427490     qt-mt323:qt-mt323.dll
 0004:00000494       __imp_?hitButton@QCheckBox@@MBE_NABVQPoint@@@Z 00427494     qt-mt323:qt-mt323.dll
 0004:00000498       __imp_?imComposeEvent@QWidget@@MAEXPAVQIMEvent@@@Z 00427498     qt-mt323:qt-mt323.dll
 0004:0000049c       __imp_?imEndEvent@QWidget@@MAEXPAVQIMEvent@@@Z 0042749c     qt-mt323:qt-mt323.dll
 0004:000004a0       __imp_?imStartEvent@QWidget@@MAEXPAVQIMEvent@@@Z 004274a0     qt-mt323:qt-mt323.dll
 0004:000004a4       __imp_?interpretText@QSpinBox@@MAEXXZ 004274a4     qt-mt323:qt-mt323.dll
 0004:000004a8       __imp_?invalidate@QBoxLayout@@UAEXXZ 004274a8     qt-mt323:qt-mt323.dll
 0004:000004ac       __imp_?invalidate@QLayoutItem@@UAEXXZ 004274ac     qt-mt323:qt-mt323.dll
 0004:000004b0       __imp_?isEmpty@QLayout@@UBE_NXZ 004274b0     qt-mt323:qt-mt323.dll
 0004:000004b4       __imp_?isEmpty@QSpacerItem@@UBE_NXZ 004274b4     qt-mt323:qt-mt323.dll
 0004:000004b8       __imp_?iterator@QBoxLayout@@UAE?AVQLayoutIterator@@XZ 004274b8     qt-mt323:qt-mt323.dll
 0004:000004bc       __imp_?iterator@QLayoutItem@@UAE?AVQLayoutIterator@@XZ 004274bc     qt-mt323:qt-mt323.dll
 0004:000004c0       __imp_?keyPressEvent@QButton@@MAEXPAVQKeyEvent@@@Z 004274c0     qt-mt323:qt-mt323.dll
 0004:000004c4       __imp_?keyPressEvent@QDialog@@MAEXPAVQKeyEvent@@@Z 004274c4     qt-mt323:qt-mt323.dll
 0004:000004c8       __imp_?keyPressEvent@QWidget@@MAEXPAVQKeyEvent@@@Z 004274c8     qt-mt323:qt-mt323.dll
 0004:000004cc       __imp_?keyReleaseEvent@QButton@@MAEXPAVQKeyEvent@@@Z 004274cc     qt-mt323:qt-mt323.dll
 0004:000004d0       __imp_?keyReleaseEvent@QWidget@@MAEXPAVQKeyEvent@@@Z 004274d0     qt-mt323:qt-mt323.dll
 0004:000004d4       __imp_?layout@QLayout@@UAEPAV1@XZ 004274d4     qt-mt323:qt-mt323.dll
 0004:000004d8       __imp_?layout@QLayoutItem@@UAEPAVQLayout@@XZ 004274d8     qt-mt323:qt-mt323.dll
 0004:000004dc       __imp_?leaveEvent@QSpinBox@@MAEXPAVQEvent@@@Z 004274dc     qt-mt323:qt-mt323.dll
 0004:000004e0       __imp_?leaveEvent@QWidget@@MAEXPAVQEvent@@@Z 004274e0     qt-mt323:qt-mt323.dll
 0004:000004e4       __imp_?mapTextToValue@QSpinBox@@MAEHPA_N@Z 004274e4     qt-mt323:qt-mt323.dll
 0004:000004e8       __imp_?mapValueToText@QSpinBox@@MAE?AVQString@@H@Z 004274e8     qt-mt323:qt-mt323.dll
 0004:000004ec       __imp_?maximumSize@QBoxLayout@@UBE?AVQSize@@XZ 004274ec     qt-mt323:qt-mt323.dll
 0004:000004f0       __imp_?maximumSize@QSpacerItem@@UBE?AVQSize@@XZ 004274f0     qt-mt323:qt-mt323.dll
 0004:000004f4       __imp_?metaObject@QCheckBox@@UBEPAVQMetaObject@@XZ 004274f4     qt-mt323:qt-mt323.dll
 0004:000004f8       __imp_?metaObject@QHBoxLayout@@UBEPAVQMetaObject@@XZ 004274f8     qt-mt323:qt-mt323.dll
 0004:000004fc       __imp_?metaObject@QLabel@@UBEPAVQMetaObject@@XZ 004274fc     qt-mt323:qt-mt323.dll
 0004:00000500       __imp_?metaObject@QPushButton@@UBEPAVQMetaObject@@XZ 00427500     qt-mt323:qt-mt323.dll
 0004:00000504       __imp_?metaObject@QSpinBox@@UBEPAVQMetaObject@@XZ 00427504     qt-mt323:qt-mt323.dll
 0004:00000508       __imp_?metaObject@QVBoxLayout@@UBEPAVQMetaObject@@XZ 00427508     qt-mt323:qt-mt323.dll
 0004:0000050c       __imp_?metric@QWidget@@MBEHH@Z 0042750c     qt-mt323:qt-mt323.dll
 0004:00000510       __imp_?minimumSize@QBoxLayout@@UBE?AVQSize@@XZ 00427510     qt-mt323:qt-mt323.dll
 0004:00000514       __imp_?minimumSize@QSpacerItem@@UBE?AVQSize@@XZ 00427514     qt-mt323:qt-mt323.dll
 0004:00000518       __imp_?minimumSizeHint@QLabel@@UBE?AVQSize@@XZ 00427518     qt-mt323:qt-mt323.dll
 0004:0000051c       __imp_?minimumSizeHint@QSpinBox@@UBE?AVQSize@@XZ 0042751c     qt-mt323:qt-mt323.dll
 0004:00000520       __imp_?minimumSizeHint@QWidget@@UBE?AVQSize@@XZ 00427520     qt-mt323:qt-mt323.dll
 0004:00000524       __imp_?mouseDoubleClickEvent@QWidget@@MAEXPAVQMouseEvent@@@Z 00427524     qt-mt323:qt-mt323.dll
 0004:00000528       __imp_?mouseMoveEvent@QButton@@MAEXPAVQMouseEvent@@@Z 00427528     qt-mt323:qt-mt323.dll
 0004:0000052c       __imp_?mouseMoveEvent@QWidget@@MAEXPAVQMouseEvent@@@Z 0042752c     qt-mt323:qt-mt323.dll
 0004:00000530       __imp_?mousePressEvent@QButton@@MAEXPAVQMouseEvent@@@Z 00427530     qt-mt323:qt-mt323.dll
 0004:00000534       __imp_?mousePressEvent@QWidget@@MAEXPAVQMouseEvent@@@Z 00427534     qt-mt323:qt-mt323.dll
 0004:00000538       __imp_?mouseReleaseEvent@QButton@@MAEXPAVQMouseEvent@@@Z 00427538     qt-mt323:qt-mt323.dll
 0004:0000053c       __imp_?mouseReleaseEvent@QWidget@@MAEXPAVQMouseEvent@@@Z 0042753c     qt-mt323:qt-mt323.dll
 0004:00000540       __imp_?move@QDialog@@UAEXHH@Z 00427540     qt-mt323:qt-mt323.dll
 0004:00000544       __imp_?move@QPushButton@@UAEXHH@Z 00427544     qt-mt323:qt-mt323.dll
 0004:00000548       __imp_?move@QWidget@@UAEXHH@Z 00427548     qt-mt323:qt-mt323.dll
 0004:0000054c       __imp_?moveEvent@QWidget@@MAEXPAVQMoveEvent@@@Z 0042754c     qt-mt323:qt-mt323.dll
 0004:00000550       __imp_?paintEvent@QButton@@MAEXPAVQPaintEvent@@@Z 00427550     qt-mt323:qt-mt323.dll
 0004:00000554       __imp_?paintEvent@QFrame@@MAEXPAVQPaintEvent@@@Z 00427554     qt-mt323:qt-mt323.dll
 0004:00000558       __imp_?paintEvent@QWidget@@MAEXPAVQPaintEvent@@@Z 00427558     qt-mt323:qt-mt323.dll
 0004:0000055c       __imp_?paletteChange@QWidget@@MAEXABVQPalette@@@Z 0042755c     qt-mt323:qt-mt323.dll
 0004:00000560       __imp_?polish@QWidget@@UAEXXZ 00427560     qt-mt323:qt-mt323.dll
 0004:00000564       __imp_?prefix@QSpinBox@@UBE?AVQString@@XZ 00427564     qt-mt323:qt-mt323.dll
 0004:00000568       __imp_?qt_cast@QCheckBox@@UAEPAXPBD@Z 00427568     qt-mt323:qt-mt323.dll
 0004:0000056c       __imp_?qt_cast@QHBoxLayout@@UAEPAXPBD@Z 0042756c     qt-mt323:qt-mt323.dll
 0004:00000570       __imp_?qt_cast@QLabel@@UAEPAXPBD@Z 00427570     qt-mt323:qt-mt323.dll
 0004:00000574       __imp_?qt_cast@QPushButton@@UAEPAXPBD@Z 00427574     qt-mt323:qt-mt323.dll
 0004:00000578       __imp_?qt_cast@QSpinBox@@UAEPAXPBD@Z 00427578     qt-mt323:qt-mt323.dll
 0004:0000057c       __imp_?qt_cast@QVBoxLayout@@UAEPAXPBD@Z 0042757c     qt-mt323:qt-mt323.dll
 0004:00000580       __imp_?qt_emit@QCheckBox@@UAE_NHPAUQUObject@@@Z 00427580     qt-mt323:qt-mt323.dll
 0004:00000584       __imp_?qt_emit@QHBoxLayout@@UAE_NHPAUQUObject@@@Z 00427584     qt-mt323:qt-mt323.dll
 0004:00000588       __imp_?qt_emit@QLabel@@UAE_NHPAUQUObject@@@Z 00427588     qt-mt323:qt-mt323.dll
 0004:0000058c       __imp_?qt_emit@QPushButton@@UAE_NHPAUQUObject@@@Z 0042758c     qt-mt323:qt-mt323.dll
 0004:00000590       __imp_?qt_emit@QSpinBox@@UAE_NHPAUQUObject@@@Z 00427590     qt-mt323:qt-mt323.dll
 0004:00000594       __imp_?qt_emit@QVBoxLayout@@UAE_NHPAUQUObject@@@Z 00427594     qt-mt323:qt-mt323.dll
 0004:00000598       __imp_?qt_invoke@QCheckBox@@UAE_NHPAUQUObject@@@Z 00427598     qt-mt323:qt-mt323.dll
 0004:0000059c       __imp_?qt_invoke@QHBoxLayout@@UAE_NHPAUQUObject@@@Z 0042759c     qt-mt323:qt-mt323.dll
 0004:000005a0       __imp_?qt_invoke@QLabel@@UAE_NHPAUQUObject@@@Z 004275a0     qt-mt323:qt-mt323.dll
 0004:000005a4       __imp_?qt_invoke@QPushButton@@UAE_NHPAUQUObject@@@Z 004275a4     qt-mt323:qt-mt323.dll
 0004:000005a8       __imp_?qt_invoke@QSpinBox@@UAE_NHPAUQUObject@@@Z 004275a8     qt-mt323:qt-mt323.dll
 0004:000005ac       __imp_?qt_invoke@QVBoxLayout@@UAE_NHPAUQUObject@@@Z 004275ac     qt-mt323:qt-mt323.dll
 0004:000005b0       __imp_?qt_property@QCheckBox@@UAE_NHHPAVQVariant@@@Z 004275b0     qt-mt323:qt-mt323.dll
 0004:000005b4       __imp_?qt_property@QHBoxLayout@@UAE_NHHPAVQVariant@@@Z 004275b4     qt-mt323:qt-mt323.dll
 0004:000005b8       __imp_?qt_property@QLabel@@UAE_NHHPAVQVariant@@@Z 004275b8     qt-mt323:qt-mt323.dll
 0004:000005bc       __imp_?qt_property@QPushButton@@UAE_NHHPAVQVariant@@@Z 004275bc     qt-mt323:qt-mt323.dll
 0004:000005c0       __imp_?qt_property@QSpinBox@@UAE_NHHPAVQVariant@@@Z 004275c0     qt-mt323:qt-mt323.dll
 0004:000005c4       __imp_?qt_property@QVBoxLayout@@UAE_NHHPAVQVariant@@@Z 004275c4     qt-mt323:qt-mt323.dll
 0004:000005c8       __imp_?rangeChange@QSpinBox@@MAEXXZ 004275c8     qt-mt323:qt-mt323.dll
 0004:000005cc       __imp_?reject@QDialog@@MAEXXZ 004275cc     qt-mt323:qt-mt323.dll
 0004:000005d0       __imp_?reparent@QWidget@@UAEXPAV1@IABVQPoint@@_N@Z 004275d0     qt-mt323:qt-mt323.dll
 0004:000005d4       __imp_?resize@QDialog@@UAEXHH@Z 004275d4     qt-mt323:qt-mt323.dll
 0004:000005d8       __imp_?resize@QPushButton@@UAEXHH@Z 004275d8     qt-mt323:qt-mt323.dll
 0004:000005dc       __imp_?resize@QWidget@@UAEXHH@Z 004275dc     qt-mt323:qt-mt323.dll
 0004:000005e0       __imp_?resizeEvent@QCheckBox@@MAEXPAVQResizeEvent@@@Z 004275e0     qt-mt323:qt-mt323.dll
 0004:000005e4       __imp_?resizeEvent@QDialog@@MAEXPAVQResizeEvent@@@Z 004275e4     qt-mt323:qt-mt323.dll
 0004:000005e8       __imp_?resizeEvent@QLabel@@MAEXPAVQResizeEvent@@@Z 004275e8     qt-mt323:qt-mt323.dll
 0004:000005ec       __imp_?resizeEvent@QPushButton@@MAEXPAVQResizeEvent@@@Z 004275ec     qt-mt323:qt-mt323.dll
 0004:000005f0       __imp_?resizeEvent@QSpinBox@@MAEXPAVQResizeEvent@@@Z 004275f0     qt-mt323:qt-mt323.dll
 0004:000005f4       __imp_?resolution@QPaintDevice@@UBEHXZ 004275f4     qt-mt323:qt-mt323.dll
 0004:000005f8       __imp_?selectAll@QSpinBox@@UAEXXZ 004275f8     qt-mt323:qt-mt323.dll
 0004:000005fc       __imp_?setAccel@QButton@@UAEXABVQKeySequence@@@Z 004275fc     qt-mt323:qt-mt323.dll
 0004:00000600       __imp_?setAcceptDrops@QWidget@@UAEX_N@Z 00427600     qt-mt323:qt-mt323.dll
 0004:00000604       __imp_?setActiveWindow@QWidget@@UAEXXZ 00427604     qt-mt323:qt-mt323.dll
 0004:00000608       __imp_?setAlignment@QLabel@@UAEXH@Z 00427608     qt-mt323:qt-mt323.dll
 0004:0000060c       __imp_?setAlignment@QLayoutItem@@UAEXH@Z 0042760c     qt-mt323:qt-mt323.dll
 0004:00000610       __imp_?setAutoAdd@QLayout@@UAEX_N@Z 00427610     qt-mt323:qt-mt323.dll
 0004:00000614       __imp_?setAutoDefault@QPushButton@@UAEX_N@Z 00427614     qt-mt323:qt-mt323.dll
 0004:00000618       __imp_?setAutoMask@QWidget@@UAEX_N@Z 00427618     qt-mt323:qt-mt323.dll
 0004:0000061c       __imp_?setAutoRepeat@QButton@@UAEX_N@Z 0042761c     qt-mt323:qt-mt323.dll
 0004:00000620       __imp_?setAutoResize@QLabel@@UAEX_N@Z 00427620     qt-mt323:qt-mt323.dll
 0004:00000624       __imp_?setBackgroundColor@QWidget@@UAEXABVQColor@@@Z 00427624     qt-mt323:qt-mt323.dll
 0004:00000628       __imp_?setBackgroundMode@QWidget@@UAEXW4BackgroundMode@Qt@@@Z 00427628     qt-mt323:qt-mt323.dll
 0004:0000062c       __imp_?setBackgroundOrigin@QWidget@@UAEXW4BackgroundOrigin@1@@Z 0042762c     qt-mt323:qt-mt323.dll
 0004:00000630       __imp_?setBackgroundPixmap@QWidget@@UAEXABVQPixmap@@@Z 00427630     qt-mt323:qt-mt323.dll
 0004:00000634       __imp_?setBuddy@QLabel@@UAEXPAVQWidget@@@Z 00427634     qt-mt323:qt-mt323.dll
 0004:00000638       __imp_?setButtonSymbols@QSpinBox@@UAEXW4ButtonSymbols@1@@Z 00427638     qt-mt323:qt-mt323.dll
 0004:0000063c       __imp_?setCaption@QWidget@@UAEXABVQString@@@Z 0042763c     qt-mt323:qt-mt323.dll
 0004:00000640       __imp_?setCursor@QWidget@@UAEXABVQCursor@@@Z 00427640     qt-mt323:qt-mt323.dll
 0004:00000644       __imp_?setDefault@QPushButton@@UAEX_N@Z 00427644     qt-mt323:qt-mt323.dll
 0004:00000648       __imp_?setDown@QButton@@UAEX_N@Z 00427648     qt-mt323:qt-mt323.dll
 0004:0000064c       __imp_?setEnabled@QSpinBox@@UAEX_N@Z 0042764c     qt-mt323:qt-mt323.dll
 0004:00000650       __imp_?setEnabled@QWidget@@UAEX_N@Z 00427650     qt-mt323:qt-mt323.dll
 0004:00000654       __imp_?setEraseColor@QWidget@@UAEXABVQColor@@@Z 00427654     qt-mt323:qt-mt323.dll
 0004:00000658       __imp_?setErasePixmap@QWidget@@UAEXABVQPixmap@@@Z 00427658     qt-mt323:qt-mt323.dll
 0004:0000065c       __imp_?setFocus@QWidget@@UAEXXZ 0042765c     qt-mt323:qt-mt323.dll
 0004:00000660       __imp_?setFocusPolicy@QWidget@@UAEXW4FocusPolicy@1@@Z 00427660     qt-mt323:qt-mt323.dll
 0004:00000664       __imp_?setFocusProxy@QWidget@@UAEXPAV1@@Z 00427664     qt-mt323:qt-mt323.dll
 0004:00000668       __imp_?setFont@QLabel@@UAEXABVQFont@@@Z 00427668     qt-mt323:qt-mt323.dll
 0004:0000066c       __imp_?setFont@QWidget@@UAEXABVQFont@@@Z 0042766c     qt-mt323:qt-mt323.dll
 0004:00000670       __imp_?setFrameRect@QFrame@@UAEXABVQRect@@@Z 00427670     qt-mt323:qt-mt323.dll
 0004:00000674       __imp_?setFrameStyle@QFrame@@UAEXH@Z 00427674     qt-mt323:qt-mt323.dll
 0004:00000678       __imp_?setGeometry@QBoxLayout@@UAEXABVQRect@@@Z 00427678     qt-mt323:qt-mt323.dll
 0004:0000067c       __imp_?setGeometry@QDialog@@UAEXABVQRect@@@Z 0042767c     qt-mt323:qt-mt323.dll
 0004:00000680       __imp_?setGeometry@QDialog@@UAEXHHHH@Z 00427680     qt-mt323:qt-mt323.dll
 0004:00000684       __imp_?setGeometry@QPushButton@@UAEXABVQRect@@@Z 00427684     qt-mt323:qt-mt323.dll
 0004:00000688       __imp_?setGeometry@QPushButton@@UAEXHHHH@Z 00427688     qt-mt323:qt-mt323.dll
 0004:0000068c       __imp_?setGeometry@QSpacerItem@@UAEXABVQRect@@@Z 0042768c     qt-mt323:qt-mt323.dll
 0004:00000690       __imp_?setGeometry@QWidget@@UAEXABVQRect@@@Z 00427690     qt-mt323:qt-mt323.dll
 0004:00000694       __imp_?setGeometry@QWidget@@UAEXHHHH@Z 00427694     qt-mt323:qt-mt323.dll
 0004:00000698       __imp_?setGroup@QButton@@EAEXPAVQButtonGroup@@@Z 00427698     qt-mt323:qt-mt323.dll
 0004:0000069c       __imp_?setIcon@QWidget@@UAEXABVQPixmap@@@Z 0042769c     qt-mt323:qt-mt323.dll
 0004:000006a0       __imp_?setIconText@QWidget@@UAEXABVQString@@@Z 004276a0     qt-mt323:qt-mt323.dll
 0004:000006a4       __imp_?setIsMenuButton@QPushButton@@UAEX_N@Z 004276a4     qt-mt323:qt-mt323.dll
 0004:000006a8       __imp_?setKeyCompression@QWidget@@MAEX_N@Z 004276a8     qt-mt323:qt-mt323.dll
 0004:000006ac       __imp_?setLineWidth@QFrame@@UAEXH@Z 004276ac     qt-mt323:qt-mt323.dll
 0004:000006b0       __imp_?setMargin@QFrame@@UAEXH@Z 004276b0     qt-mt323:qt-mt323.dll
 0004:000006b4       __imp_?setMargin@QLayout@@UAEXH@Z 004276b4     qt-mt323:qt-mt323.dll
 0004:000006b8       __imp_?setMask@QWidget@@UAEXABVQBitmap@@@Z 004276b8     qt-mt323:qt-mt323.dll
 0004:000006bc       __imp_?setMask@QWidget@@UAEXABVQRegion@@@Z 004276bc     qt-mt323:qt-mt323.dll
 0004:000006c0       __imp_?setMaximumSize@QWidget@@UAEXHH@Z 004276c0     qt-mt323:qt-mt323.dll
 0004:000006c4       __imp_?setMenuBar@QLayout@@UAEXPAVQMenuBar@@@Z 004276c4     qt-mt323:qt-mt323.dll
 0004:000006c8       __imp_?setMicroFocusHint@QWidget@@MAEXHHHH_NPAVQFont@@@Z 004276c8     qt-mt323:qt-mt323.dll
 0004:000006cc       __imp_?setMidLineWidth@QFrame@@UAEXH@Z 004276cc     qt-mt323:qt-mt323.dll
 0004:000006d0       __imp_?setMinimumSize@QWidget@@UAEXHH@Z 004276d0     qt-mt323:qt-mt323.dll
 0004:000006d4       __imp_?setMouseTracking@QWidget@@UAEX_N@Z 004276d4     qt-mt323:qt-mt323.dll
 0004:000006d8       __imp_?setMovie@QLabel@@UAEXABVQMovie@@@Z 004276d8     qt-mt323:qt-mt323.dll
 0004:000006dc       __imp_?setNum@QLabel@@UAEXH@Z 004276dc     qt-mt323:qt-mt323.dll
 0004:000006e0       __imp_?setNum@QLabel@@UAEXN@Z 004276e0     qt-mt323:qt-mt323.dll
 0004:000006e4       __imp_?setOn@QPushButton@@UAEX_N@Z 004276e4     qt-mt323:qt-mt323.dll
 0004:000006e8       __imp_?setPalette@QWidget@@UAEXABVQPalette@@@Z 004276e8     qt-mt323:qt-mt323.dll
 0004:000006ec       __imp_?setPaletteBackgroundColor@QWidget@@UAEXABVQColor@@@Z 004276ec     qt-mt323:qt-mt323.dll
 0004:000006f0       __imp_?setPaletteBackgroundPixmap@QWidget@@UAEXABVQPixmap@@@Z 004276f0     qt-mt323:qt-mt323.dll
 0004:000006f4       __imp_?setPicture@QLabel@@UAEXABVQPicture@@@Z 004276f4     qt-mt323:qt-mt323.dll
 0004:000006f8       __imp_?setPixmap@QButton@@UAEXABVQPixmap@@@Z 004276f8     qt-mt323:qt-mt323.dll
 0004:000006fc       __imp_?setPixmap@QLabel@@UAEXABVQPixmap@@@Z 004276fc     qt-mt323:qt-mt323.dll
 0004:00000700       __imp_?setPrefix@QSpinBox@@UAEXABVQString@@@Z 00427700     qt-mt323:qt-mt323.dll
 0004:00000704       __imp_?setResolution@QPaintDevice@@UAEXH@Z 00427704     qt-mt323:qt-mt323.dll
 0004:00000708       __imp_?setSizeIncrement@QWidget@@UAEXHH@Z 00427708     qt-mt323:qt-mt323.dll
 0004:0000070c       __imp_?setSizePolicy@QWidget@@UAEXVQSizePolicy@@@Z 0042770c     qt-mt323:qt-mt323.dll
 0004:00000710       __imp_?setSpacing@QLayout@@UAEXH@Z 00427710     qt-mt323:qt-mt323.dll
 0004:00000714       __imp_?setSpecialValueText@QSpinBox@@UAEXABVQString@@@Z 00427714     qt-mt323:qt-mt323.dll
 0004:00000718       __imp_?setState@QButton@@MAEXW4ToggleState@1@@Z 00427718     qt-mt323:qt-mt323.dll
 0004:0000071c       __imp_?setSuffix@QSpinBox@@UAEXABVQString@@@Z 0042771c     qt-mt323:qt-mt323.dll
 0004:00000720       __imp_?setText@QButton@@UAEXABVQString@@@Z 00427720     qt-mt323:qt-mt323.dll
 0004:00000724       __imp_?setText@QLabel@@UAEXABVQString@@@Z 00427724     qt-mt323:qt-mt323.dll
 0004:00000728       __imp_?setToggleType@QButton@@MAEXW4ToggleType@1@@Z 00427728     qt-mt323:qt-mt323.dll
 0004:0000072c       __imp_?setUpdatesEnabled@QWidget@@UAEX_N@Z 0042772c     qt-mt323:qt-mt323.dll
 0004:00000730       __imp_?setValidator@QSpinBox@@UAEXPBVQValidator@@@Z 00427730     qt-mt323:qt-mt323.dll
 0004:00000734       __imp_?setValue@QSpinBox@@UAEXH@Z 00427734     qt-mt323:qt-mt323.dll
 0004:00000738       __imp_?setWFlags@QWidget@@MAEXI@Z 00427738     qt-mt323:qt-mt323.dll
 0004:0000073c       __imp_?setWState@QWidget@@MAEXI@Z 0042773c     qt-mt323:qt-mt323.dll
 0004:00000740       __imp_?setWrapping@QSpinBox@@UAEX_N@Z 00427740     qt-mt323:qt-mt323.dll
 0004:00000744       __imp_?show@QDialog@@UAEXXZ 00427744     qt-mt323:qt-mt323.dll
 0004:00000748       __imp_?show@QWidget@@UAEXXZ 00427748     qt-mt323:qt-mt323.dll
 0004:0000074c       __imp_?showEvent@QWidget@@MAEXPAVQShowEvent@@@Z 0042774c     qt-mt323:qt-mt323.dll
 0004:00000750       __imp_?showMaximized@QWidget@@UAEXXZ 00427750     qt-mt323:qt-mt323.dll
 0004:00000754       __imp_?showMinimized@QWidget@@UAEXXZ 00427754     qt-mt323:qt-mt323.dll
 0004:00000758       __imp_?showNormal@QWidget@@UAEXXZ 00427758     qt-mt323:qt-mt323.dll
 0004:0000075c       __imp_?sizeHint@QBoxLayout@@UBE?AVQSize@@XZ 0042775c     qt-mt323:qt-mt323.dll
 0004:00000760       __imp_?sizeHint@QCheckBox@@UBE?AVQSize@@XZ 00427760     qt-mt323:qt-mt323.dll
 0004:00000764       __imp_?sizeHint@QDialog@@UBE?AVQSize@@XZ 00427764     qt-mt323:qt-mt323.dll
 0004:00000768       __imp_?sizeHint@QLabel@@UBE?AVQSize@@XZ 00427768     qt-mt323:qt-mt323.dll
 0004:0000076c       __imp_?sizeHint@QPushButton@@UBE?AVQSize@@XZ 0042776c     qt-mt323:qt-mt323.dll
 0004:00000770       __imp_?sizeHint@QSpacerItem@@UBE?AVQSize@@XZ 00427770     qt-mt323:qt-mt323.dll
 0004:00000774       __imp_?sizeHint@QSpinBox@@UBE?AVQSize@@XZ 00427774     qt-mt323:qt-mt323.dll
 0004:00000778       __imp_?sizePolicy@QWidget@@UBE?AVQSizePolicy@@XZ 00427778     qt-mt323:qt-mt323.dll
 0004:0000077c       __imp_?spacerItem@QLayoutItem@@UAEPAVQSpacerItem@@XZ 0042777c     qt-mt323:qt-mt323.dll
 0004:00000780       __imp_?spacerItem@QSpacerItem@@UAEPAV1@XZ 00427780     qt-mt323:qt-mt323.dll
 0004:00000784       __imp_?stepChange@QRangeControl@@MAEXXZ 00427784     qt-mt323:qt-mt323.dll
 0004:00000788       __imp_?stepDown@QSpinBox@@UAEXXZ 00427788     qt-mt323:qt-mt323.dll
 0004:0000078c       __imp_?stepUp@QSpinBox@@UAEXXZ 0042778c     qt-mt323:qt-mt323.dll
 0004:00000790       __imp_?styleChange@QFrame@@MAEXAAVQStyle@@@Z 00427790     qt-mt323:qt-mt323.dll
 0004:00000794       __imp_?styleChange@QSpinBox@@MAEXAAVQStyle@@@Z 00427794     qt-mt323:qt-mt323.dll
 0004:00000798       __imp_?styleChange@QWidget@@MAEXAAVQStyle@@@Z 00427798     qt-mt323:qt-mt323.dll
 0004:0000079c       __imp_?suffix@QSpinBox@@UBE?AVQString@@XZ 0042779c     qt-mt323:qt-mt323.dll
 0004:000007a0       __imp_?tabletEvent@QWidget@@MAEXPAVQTabletEvent@@@Z 004277a0     qt-mt323:qt-mt323.dll
 0004:000007a4       __imp_?unsetCursor@QWidget@@UAEXXZ 004277a4     qt-mt323:qt-mt323.dll
 0004:000007a8       __imp_?updateDisplay@QSpinBox@@MAEXXZ 004277a8     qt-mt323:qt-mt323.dll
 0004:000007ac       __imp_?updateMask@QCheckBox@@MAEXXZ 004277ac     qt-mt323:qt-mt323.dll
 0004:000007b0       __imp_?updateMask@QPushButton@@MAEXXZ 004277b0     qt-mt323:qt-mt323.dll
 0004:000007b4       __imp_?updateMask@QWidget@@MAEXXZ 004277b4     qt-mt323:qt-mt323.dll
 0004:000007b8       __imp_?valueChange@QSpinBox@@MAEXXZ 004277b8     qt-mt323:qt-mt323.dll
 0004:000007bc       __imp_?wheelEvent@QSpinBox@@MAEXPAVQWheelEvent@@@Z 004277bc     qt-mt323:qt-mt323.dll
 0004:000007c0       __imp_?wheelEvent@QWidget@@MAEXPAVQWheelEvent@@@Z 004277c0     qt-mt323:qt-mt323.dll
 0004:000007c4       __imp_?widget@QLayoutItem@@UAEPAVQWidget@@XZ 004277c4     qt-mt323:qt-mt323.dll
 0004:000007c8       __imp_?winEvent@QWidget@@MAE_NPAUtagMSG@@@Z 004277c8     qt-mt323:qt-mt323.dll
 0004:000007cc       __imp_?windowActivationChange@QWidget@@MAEX_N@Z 004277cc     qt-mt323:qt-mt323.dll
 0004:000007d0       __imp_?null@QString@@2V1@A 004277d0     qt-mt323:qt-mt323.dll
 0004:000007d4       __imp_??4QString@@QAEAAV0@ABV0@@Z 004277d4     qt-mt323:qt-mt323.dll
 0004:000007d8       __imp_?upper@QChar@@QBE?AV1@XZ 004277d8     qt-mt323:qt-mt323.dll
 0004:000007dc       __imp_?remove@QString@@QAEAAV1@II@Z 004277dc     qt-mt323:qt-mt323.dll
 0004:000007e0       __imp_?at@QString@@QBE?AVQChar@@I@Z 004277e0     qt-mt323:qt-mt323.dll
 0004:000007e4       __imp_??0QColor@@QAE@PBD@Z 004277e4     qt-mt323:qt-mt323.dll
 0004:000007e8       __imp_??0QColorGroup@@QAE@ABV0@@Z 004277e8     qt-mt323:qt-mt323.dll
 0004:000007ec       __imp_??1QColorGroup@@QAE@XZ 004277ec     qt-mt323:qt-mt323.dll
 0004:000007f0       __imp_?setColor@QColorGroup@@QAEXW4ColorRole@1@ABVQColor@@@Z 004277f0     qt-mt323:qt-mt323.dll
 0004:000007f4       __imp_??0QListViewItem@@QAE@PAVQListView@@@Z 004277f4     qt-mt323:qt-mt323.dll
 0004:000007f8       __imp_??1QListViewItem@@UAE@XZ 004277f8     qt-mt323:qt-mt323.dll
 0004:000007fc       __imp_?setText@QListViewItem@@UAEXHABVQString@@@Z 004277fc     qt-mt323:qt-mt323.dll
 0004:00000800       __imp_?paintCell@QListViewItem@@UAEXPAVQPainter@@ABVQColorGroup@@HHH@Z 00427800     qt-mt323:qt-mt323.dll
 0004:00000804       __imp_?toString@QDateTime@@QBE?AVQString@@ABV2@@Z 00427804     qt-mt323:qt-mt323.dll
 0004:00000808       __imp_??MQDateTime@@QBE_NABV0@@Z 00427808     qt-mt323:qt-mt323.dll
 0004:0000080c       __imp_??OQDateTime@@QBE_NABV0@@Z 0042780c     qt-mt323:qt-mt323.dll
 0004:00000810       __imp_?currentDateTime@QDateTime@@SA?AV1@XZ 00427810     qt-mt323:qt-mt323.dll
 0004:00000814       __imp_?fromString@QDateTime@@SA?AV1@ABVQString@@W4DateFormat@Qt@@@Z 00427814     qt-mt323:qt-mt323.dll
 0004:00000818       __imp_?acceptDrop@QListViewItem@@UBE_NPBVQMimeSource@@@Z 00427818     qt-mt323:qt-mt323.dll
 0004:0000081c       __imp_?activate@QListViewItem@@MAEXXZ 0042781c     qt-mt323:qt-mt323.dll
 0004:00000820       __imp_?cancelRename@QListViewItem@@MAEXH@Z 00427820     qt-mt323:qt-mt323.dll
 0004:00000824       __imp_?dragEntered@QListViewItem@@MAEXXZ 00427824     qt-mt323:qt-mt323.dll
 0004:00000828       __imp_?dragLeft@QListViewItem@@MAEXXZ 00427828     qt-mt323:qt-mt323.dll
 0004:0000082c       __imp_?dropped@QListViewItem@@MAEXPAVQDropEvent@@@Z 0042782c     qt-mt323:qt-mt323.dll
 0004:00000830       __imp_?enforceSortOrder@QListViewItem@@MBEXXZ 00427830     qt-mt323:qt-mt323.dll
 0004:00000834       __imp_?insertItem@QListViewItem@@UAEXPAV1@@Z 00427834     qt-mt323:qt-mt323.dll
 0004:00000838       __imp_?invalidateHeight@QListViewItem@@UAEXXZ 00427838     qt-mt323:qt-mt323.dll
 0004:0000083c       __imp_?key@QListViewItem@@UBE?AVQString@@H_N@Z 0042783c     qt-mt323:qt-mt323.dll
 0004:00000840       __imp_?okRename@QListViewItem@@MAEXH@Z 00427840     qt-mt323:qt-mt323.dll
 0004:00000844       __imp_?paintBranches@QListViewItem@@UAEXPAVQPainter@@ABVQColorGroup@@HHH@Z 00427844     qt-mt323:qt-mt323.dll
 0004:00000848       __imp_?paintFocus@QListViewItem@@UAEXPAVQPainter@@ABVQColorGroup@@ABVQRect@@@Z 00427848     qt-mt323:qt-mt323.dll
 0004:0000084c       __imp_?pixmap@QListViewItem@@UBEPBVQPixmap@@H@Z 0042784c     qt-mt323:qt-mt323.dll
 0004:00000850       __imp_?removeItem@QListViewItem@@UAEXPAV1@@Z 00427850     qt-mt323:qt-mt323.dll
 0004:00000854       __imp_?setDragEnabled@QListViewItem@@UAEX_N@Z 00427854     qt-mt323:qt-mt323.dll
 0004:00000858       __imp_?setDropEnabled@QListViewItem@@UAEX_N@Z 00427858     qt-mt323:qt-mt323.dll
 0004:0000085c       __imp_?setEnabled@QListViewItem@@UAEX_N@Z 0042785c     qt-mt323:qt-mt323.dll
 0004:00000860       __imp_?setExpandable@QListViewItem@@UAEX_N@Z 00427860     qt-mt323:qt-mt323.dll
 0004:00000864       __imp_?setHeight@QListViewItem@@MAEXH@Z 00427864     qt-mt323:qt-mt323.dll
 0004:00000868       __imp_?setMultiLinesEnabled@QListViewItem@@UAEX_N@Z 00427868     qt-mt323:qt-mt323.dll
 0004:0000086c       __imp_?setOpen@QListViewItem@@UAEX_N@Z 0042786c     qt-mt323:qt-mt323.dll
 0004:00000870       __imp_?setPixmap@QListViewItem@@UAEXHABVQPixmap@@@Z 00427870     qt-mt323:qt-mt323.dll
 0004:00000874       __imp_?setRenameEnabled@QListViewItem@@UAEXH_N@Z 00427874     qt-mt323:qt-mt323.dll
 0004:00000878       __imp_?setSelectable@QListViewItem@@UAEX_N@Z 00427878     qt-mt323:qt-mt323.dll
 0004:0000087c       __imp_?setSelected@QListViewItem@@UAEX_N@Z 0042787c     qt-mt323:qt-mt323.dll
 0004:00000880       __imp_?setup@QListViewItem@@UAEXXZ 00427880     qt-mt323:qt-mt323.dll
 0004:00000884       __imp_?sort@QListViewItem@@UAEXXZ 00427884     qt-mt323:qt-mt323.dll
 0004:00000888       __imp_?sortChildItems@QListViewItem@@UAEXH_N@Z 00427888     qt-mt323:qt-mt323.dll
 0004:0000088c       __imp_?startRename@QListViewItem@@UAEXH@Z 0042788c     qt-mt323:qt-mt323.dll
 0004:00000890       __imp_?takeItem@QListViewItem@@UAEXPAV1@@Z 00427890     qt-mt323:qt-mt323.dll
 0004:00000894       __imp_?text@QListViewItem@@UBE?AVQString@@H@Z 00427894     qt-mt323:qt-mt323.dll
 0004:00000898       __imp_?width@QListViewItem@@UBEHABVQFontMetrics@@PBVQListView@@H@Z 00427898     qt-mt323:qt-mt323.dll
 0004:0000089c       __imp_?sprintf@QString@@QAAAAV1@PBDZZ 0042789c     qt-mt323:qt-mt323.dll
 0004:000008a0       __imp_?find@QString@@QBEHABV1@H_N@Z 004278a0     qt-mt323:qt-mt323.dll
 0004:000008a4       __imp_?contains@QString@@QBEHPBD_N@Z 004278a4     qt-mt323:qt-mt323.dll
 0004:000008a8       __imp_?right@QString@@QBE?AV1@I@Z 004278a8     qt-mt323:qt-mt323.dll
 0004:000008ac       __imp_?fromAscii@QString@@SA?AV1@PBDH@Z 004278ac     qt-mt323:qt-mt323.dll
 0004:000008b0       __imp_??9@YA_NABVQString@@PBD@Z 004278b0     qt-mt323:qt-mt323.dll
 0004:000008b4       __imp_??8@YA_NABVQString@@PBD@Z 004278b4     qt-mt323:qt-mt323.dll
 0004:000008b8       __imp_?rebalance@QMapPrivateBase@@QAEXPAUQMapNodeBase@@AAPAU2@@Z 004278b8     qt-mt323:qt-mt323.dll
 0004:000008bc       __imp_?repaint@QWidget@@QAEX_N@Z 004278bc     qt-mt323:qt-mt323.dll
 0004:000008c0       __imp_??4QDomNode@@QAEAAV0@ABV0@@Z 004278c0     qt-mt323:qt-mt323.dll
 0004:000008c4       __imp_??1QDomNode@@UAE@XZ  004278c4     qt-mt323:qt-mt323.dll
 0004:000008c8       __imp_?nextSibling@QDomNode@@UBE?AV1@XZ 004278c8     qt-mt323:qt-mt323.dll
 0004:000008cc       __imp_?isNull@QDomNode@@QBE_NXZ 004278cc     qt-mt323:qt-mt323.dll
 0004:000008d0       __imp_?toElement@QDomNode@@QAE?AVQDomElement@@XZ 004278d0     qt-mt323:qt-mt323.dll
 0004:000008d4       __imp_??0QDomDocument@@QAE@XZ 004278d4     qt-mt323:qt-mt323.dll
 0004:000008d8       __imp_??1QDomDocument@@UAE@XZ 004278d8     qt-mt323:qt-mt323.dll
 0004:000008dc       __imp_?documentElement@QDomDocument@@QBE?AVQDomElement@@XZ 004278dc     qt-mt323:qt-mt323.dll
 0004:000008e0       __imp_?setContent@QDomDocument@@QAE_NPAVQIODevice@@PAVQString@@PAH2@Z 004278e0     qt-mt323:qt-mt323.dll
 0004:000008e4       __imp_??1QDomElement@@UAE@XZ 004278e4     qt-mt323:qt-mt323.dll
 0004:000008e8       __imp_?attribute@QDomElement@@QBE?AVQString@@ABV2@0@Z 004278e8     qt-mt323:qt-mt323.dll
 0004:000008ec       __imp_?tagName@QDomElement@@QBE?AVQString@@XZ 004278ec     qt-mt323:qt-mt323.dll
 0004:000008f0       __imp_??0QFile@@QAE@ABVQString@@@Z 004278f0     qt-mt323:qt-mt323.dll
 0004:000008f4       __imp_??1QFile@@UAE@XZ     004278f4     qt-mt323:qt-mt323.dll
 0004:000008f8       __imp_?exists@QFile@@SA_NABVQString@@@Z 004278f8     qt-mt323:qt-mt323.dll
 0004:000008fc       __imp_?open@QFile@@UAE_NH@Z 004278fc     qt-mt323:qt-mt323.dll
 0004:00000900       __imp_?close@QFile@@UAEXXZ 00427900     qt-mt323:qt-mt323.dll
 0004:00000904       __imp_??0QKeySequence@@QAE@H@Z 00427904     qt-mt323:qt-mt323.dll
 0004:00000908       __imp_??0QPixmap@@QAE@QAPBD@Z 00427908     qt-mt323:qt-mt323.dll
 0004:0000090c       __imp_??1QPixmap@@UAE@XZ   0042790c     qt-mt323:qt-mt323.dll
 0004:00000910       __imp_?exec@QDialog@@QAEHXZ 00427910     qt-mt323:qt-mt323.dll
 0004:00000914       __imp_?warning@QMessageBox@@SAHPAVQWidget@@ABVQString@@1HHH@Z 00427914     qt-mt323:qt-mt323.dll
 0004:00000918       __imp_?warning@QMessageBox@@SAHPAVQWidget@@ABVQString@@1111HH@Z 00427918     qt-mt323:qt-mt323.dll
 0004:0000091c       __imp_?critical@QMessageBox@@SAHPAVQWidget@@ABVQString@@1111HH@Z 0042791c     qt-mt323:qt-mt323.dll
 0004:00000920       __imp_?event@QSocketNotifier@@MAE_NPAVQEvent@@@Z 00427920     qt-mt323:qt-mt323.dll
 0004:00000924       __imp_?clipboard@QApplication@@SAPAVQClipboard@@XZ 00427924     qt-mt323:qt-mt323.dll
 0004:00000928       __imp_?insertItem@QMenuData@@QAEHABVQString@@PBVQObject@@PBDABVQKeySequence@@HH@Z 00427928     qt-mt323:qt-mt323.dll
 0004:0000092c       __imp_?insertItem@QMenuData@@QAEHABVQString@@PAVQPopupMenu@@HH@Z 0042792c     qt-mt323:qt-mt323.dll
 0004:00000930       __imp_??0QPopupMenu@@QAE@PAVQWidget@@PBD@Z 00427930     qt-mt323:qt-mt323.dll
 0004:00000934       __imp_??1QPopupMenu@@UAE@XZ 00427934     qt-mt323:qt-mt323.dll
 0004:00000938       __imp_??0QMenuBar@@QAE@PAVQWidget@@PBD@Z 00427938     qt-mt323:qt-mt323.dll
 0004:0000093c       __imp_??1QMenuBar@@UAE@XZ  0042793c     qt-mt323:qt-mt323.dll
 0004:00000940       __imp_??0QProcess@@QAE@PAVQObject@@PBD@Z 00427940     qt-mt323:qt-mt323.dll
 0004:00000944       __imp_??1QProcess@@UAE@XZ  00427944     qt-mt323:qt-mt323.dll
 0004:00000948       __imp_?addArgument@QProcess@@UAEXABVQString@@@Z 00427948     qt-mt323:qt-mt323.dll
 0004:0000094c       __imp_?start@QProcess@@UAE_NPAVQStringList@@@Z 0042794c     qt-mt323:qt-mt323.dll
 0004:00000950       __imp_?value@QSpinBox@@QBEHXZ 00427950     qt-mt323:qt-mt323.dll
 0004:00000954       __imp_?setText@QClipboard@@QAEXABVQString@@@Z 00427954     qt-mt323:qt-mt323.dll
 0004:00000958       __imp_?getText@QInputDialog@@SA?AVQString@@ABV2@0W4EchoMode@QLineEdit@@0PA_NPAVQWidget@@PBD@Z 00427958     qt-mt323:qt-mt323.dll
 0004:0000095c       __imp_?activateItemAt@QMenuBar@@UAEXH@Z 0042795c     qt-mt323:qt-mt323.dll
 0004:00000960       __imp_?activateItemAt@QPopupMenu@@UAEXH@Z 00427960     qt-mt323:qt-mt323.dll
 0004:00000964       __imp_?addDockWindow@QMainWindow@@UAEXPAVQDockWindow@@ABVQString@@W4Dock@Qt@@_N@Z 00427964     qt-mt323:qt-mt323.dll
 0004:00000968       __imp_?addDockWindow@QMainWindow@@UAEXPAVQDockWindow@@W4Dock@Qt@@_N@Z 00427968     qt-mt323:qt-mt323.dll
 0004:0000096c       __imp_?appendChild@QDomNode@@UAE?AV1@ABV1@@Z 0042796c     qt-mt323:qt-mt323.dll
 0004:00000970       __imp_?attributes@QDomElement@@UBE?AVQDomNamedNodeMap@@XZ 00427970     qt-mt323:qt-mt323.dll
 0004:00000974       __imp_?childEvent@QMainWindow@@MAEXPAVQChildEvent@@@Z 00427974     qt-mt323:qt-mt323.dll
 0004:00000978       __imp_?childNodes@QDomNode@@UBE?AVQDomNodeList@@XZ 00427978     qt-mt323:qt-mt323.dll
 0004:0000097c       __imp_?className@QMenuBar@@UBEPBDXZ 0042797c     qt-mt323:qt-mt323.dll
 0004:00000980       __imp_?className@QPopupMenu@@UBEPBDXZ 00427980     qt-mt323:qt-mt323.dll
 0004:00000984       __imp_?cloneNode@QDomNode@@UBE?AV1@_N@Z 00427984     qt-mt323:qt-mt323.dll
 0004:00000988       __imp_?closeEvent@QPopupMenu@@MAEXPAVQCloseEvent@@@Z 00427988     qt-mt323:qt-mt323.dll
 0004:0000098c       __imp_?customWhatsThis@QMenuBar@@UBE_NXZ 0042798c     qt-mt323:qt-mt323.dll
 0004:00000990       __imp_?customWhatsThis@QPopupMenu@@UBE_NXZ 00427990     qt-mt323:qt-mt323.dll
 0004:00000994       __imp_?customize@QMainWindow@@UAEXXZ 00427994     qt-mt323:qt-mt323.dll
 0004:00000998       __imp_?dockingArea@QMainWindow@@UAEPAVQDockArea@@ABVQPoint@@@Z 00427998     qt-mt323:qt-mt323.dll
 0004:0000099c       __imp_?drawContents@QMenuBar@@MAEXPAVQPainter@@@Z 0042799c     qt-mt323:qt-mt323.dll
 0004:000009a0       __imp_?drawContents@QPopupMenu@@MAEXPAVQPainter@@@Z 004279a0     qt-mt323:qt-mt323.dll
 0004:000009a4       __imp_?elementsByTagName@QDomElement@@UBE?AVQDomNodeList@@ABVQString@@@Z 004279a4     qt-mt323:qt-mt323.dll
 0004:000009a8       __imp_?elementsByTagNameNS@QDomElement@@UBE?AVQDomNodeList@@ABVQString@@0@Z 004279a8     qt-mt323:qt-mt323.dll
 0004:000009ac       __imp_?enabledChange@QPopupMenu@@MAEX_N@Z 004279ac     qt-mt323:qt-mt323.dll
 0004:000009b0       __imp_?event@QMainWindow@@MAE_NPAVQEvent@@@Z 004279b0     qt-mt323:qt-mt323.dll
 0004:000009b4       __imp_?eventFilter@QMainWindow@@UAE_NPAVQObject@@PAVQEvent@@@Z 004279b4     qt-mt323:qt-mt323.dll
 0004:000009b8       __imp_?eventFilter@QMenuBar@@UAE_NPAVQObject@@PAVQEvent@@@Z 004279b8     qt-mt323:qt-mt323.dll
 0004:000009bc       __imp_?firstChild@QDomNode@@UBE?AV1@XZ 004279bc     qt-mt323:qt-mt323.dll
 0004:000009c0       __imp_?focusInEvent@QMenuBar@@MAEXPAVQFocusEvent@@@Z 004279c0     qt-mt323:qt-mt323.dll
 0004:000009c4       __imp_?focusInEvent@QPopupMenu@@MAEXPAVQFocusEvent@@@Z 004279c4     qt-mt323:qt-mt323.dll
 0004:000009c8       __imp_?focusNextPrevChild@QPopupMenu@@MAE_N_N@Z 004279c8     qt-mt323:qt-mt323.dll
 0004:000009cc       __imp_?size@QSocketDevice@@UBEKXZ 004279cc     qt-mt323:qt-mt323.dll
 0004:000009d0       __imp_?focusOutEvent@QPopupMenu@@MAEXPAVQFocusEvent@@@Z 004279d0     qt-mt323:qt-mt323.dll
 0004:000009d4       __imp_?fontChange@QMenuBar@@MAEXABVQFont@@@Z 004279d4     qt-mt323:qt-mt323.dll
 0004:000009d8       __imp_?frameChanged@QMenuBar@@EAEXXZ 004279d8     qt-mt323:qt-mt323.dll
 0004:000009dc       __imp_?frameChanged@QPopupMenu@@EAEXXZ 004279dc     qt-mt323:qt-mt323.dll
 0004:000009e0       __imp_?hasAttributes@QDomNode@@UBE_NXZ 004279e0     qt-mt323:qt-mt323.dll
 0004:000009e4       __imp_?hasChildNodes@QDomNode@@UBE_NXZ 004279e4     qt-mt323:qt-mt323.dll
 0004:000009e8       __imp_?heightForWidth@QMenuBar@@UBEHH@Z 004279e8     qt-mt323:qt-mt323.dll
 0004:000009ec       __imp_?hide@QMainWindow@@UAEXXZ 004279ec     qt-mt323:qt-mt323.dll
 0004:000009f0       __imp_?hide@QMenuBar@@UAEXXZ 004279f0     qt-mt323:qt-mt323.dll
 0004:000009f4       __imp_?hide@QPopupMenu@@UAEXXZ 004279f4     qt-mt323:qt-mt323.dll
 0004:000009f8       __imp_?insertAfter@QDomNode@@UAE?AV1@ABV1@0@Z 004279f8     qt-mt323:qt-mt323.dll
 0004:000009fc       __imp_?insertBefore@QDomNode@@UAE?AV1@ABV1@0@Z 004279fc     qt-mt323:qt-mt323.dll
 0004:00000a00       __imp_?isAttr@QDomNode@@UBE_NXZ 00427a00     qt-mt323:qt-mt323.dll
 0004:00000a04       __imp_?isCDATASection@QDomNode@@UBE_NXZ 00427a04     qt-mt323:qt-mt323.dll
 0004:00000a08       __imp_?isCharacterData@QDomNode@@UBE_NXZ 00427a08     qt-mt323:qt-mt323.dll
 0004:00000a0c       __imp_?isComment@QDomNode@@UBE_NXZ 00427a0c     qt-mt323:qt-mt323.dll
 0004:00000a10       __imp_?isCustomizable@QMainWindow@@UBE_NXZ 00427a10     qt-mt323:qt-mt323.dll
 0004:00000a14       __imp_?isDocument@QDomNode@@UBE_NXZ 00427a14     qt-mt323:qt-mt323.dll
 0004:00000a18       __imp_?isDocumentFragment@QDomNode@@UBE_NXZ 00427a18     qt-mt323:qt-mt323.dll
 0004:00000a1c       __imp_?isDocumentType@QDomNode@@UBE_NXZ 00427a1c     qt-mt323:qt-mt323.dll
 0004:00000a20       __imp_?isElement@QDomElement@@UBE_NXZ 00427a20     qt-mt323:qt-mt323.dll
 0004:00000a24       __imp_?isEntity@QDomNode@@UBE_NXZ 00427a24     qt-mt323:qt-mt323.dll
 0004:00000a28       __imp_?isEntityReference@QDomNode@@UBE_NXZ 00427a28     qt-mt323:qt-mt323.dll
 0004:00000a2c       __imp_?isNotation@QDomNode@@UBE_NXZ 00427a2c     qt-mt323:qt-mt323.dll
 0004:00000a30       __imp_?isProcessingInstruction@QDomNode@@UBE_NXZ 00427a30     qt-mt323:qt-mt323.dll
 0004:00000a34       __imp_?isSupported@QDomNode@@UBE_NABVQString@@0@Z 00427a34     qt-mt323:qt-mt323.dll
 0004:00000a38       __imp_?isText@QDomNode@@UBE_NXZ 00427a38     qt-mt323:qt-mt323.dll
 0004:00000a3c       __imp_?keyPressEvent@QMenuBar@@MAEXPAVQKeyEvent@@@Z 00427a3c     qt-mt323:qt-mt323.dll
 0004:00000a40       __imp_?keyPressEvent@QPopupMenu@@MAEXPAVQKeyEvent@@@Z 00427a40     qt-mt323:qt-mt323.dll
 0004:00000a44       __imp_?lastChild@QDomNode@@UBE?AV1@XZ 00427a44     qt-mt323:qt-mt323.dll
 0004:00000a48       __imp_?leaveEvent@QMenuBar@@MAEXPAVQEvent@@@Z 00427a48     qt-mt323:qt-mt323.dll
 0004:00000a4c       __imp_?leaveEvent@QPopupMenu@@MAEXPAVQEvent@@@Z 00427a4c     qt-mt323:qt-mt323.dll
 0004:00000a50       __imp_?localName@QDomNode@@UBE?AVQString@@XZ 00427a50     qt-mt323:qt-mt323.dll
 0004:00000a54       __imp_?menuContentsChanged@QMenuBar@@MAEXXZ 00427a54     qt-mt323:qt-mt323.dll
 0004:00000a58       __imp_?menuContentsChanged@QPopupMenu@@EAEXXZ 00427a58     qt-mt323:qt-mt323.dll
 0004:00000a5c       __imp_?menuDelPopup@QMenuBar@@EAEXPAVQPopupMenu@@@Z 00427a5c     qt-mt323:qt-mt323.dll
 0004:00000a60       __imp_?menuDelPopup@QPopupMenu@@EAEXPAV1@@Z 00427a60     qt-mt323:qt-mt323.dll
 0004:00000a64       __imp_?menuInsPopup@QMenuBar@@EAEXPAVQPopupMenu@@@Z 00427a64     qt-mt323:qt-mt323.dll
 0004:00000a68       __imp_?menuInsPopup@QPopupMenu@@EAEXPAV1@@Z 00427a68     qt-mt323:qt-mt323.dll
 0004:00000a6c       __imp_?menuStateChanged@QMenuBar@@MAEXXZ 00427a6c     qt-mt323:qt-mt323.dll
 0004:00000a70       __imp_?menuStateChanged@QPopupMenu@@EAEXXZ 00427a70     qt-mt323:qt-mt323.dll
 0004:00000a74       __imp_?metaObject@QMenuBar@@UBEPAVQMetaObject@@XZ 00427a74     qt-mt323:qt-mt323.dll
 0004:00000a78       __imp_?metaObject@QPopupMenu@@UBEPAVQMetaObject@@XZ 00427a78     qt-mt323:qt-mt323.dll
 0004:00000a7c       __imp_?minimumSizeHint@QMainWindow@@UBE?AVQSize@@XZ 00427a7c     qt-mt323:qt-mt323.dll
 0004:00000a80       __imp_?minimumSizeHint@QMenuBar@@UBE?AVQSize@@XZ 00427a80     qt-mt323:qt-mt323.dll
 0004:00000a84       __imp_?mouseMoveEvent@QMenuBar@@MAEXPAVQMouseEvent@@@Z 00427a84     qt-mt323:qt-mt323.dll
 0004:00000a88       __imp_?mouseMoveEvent@QPopupMenu@@MAEXPAVQMouseEvent@@@Z 00427a88     qt-mt323:qt-mt323.dll
 0004:00000a8c       __imp_?mousePressEvent@QMenuBar@@MAEXPAVQMouseEvent@@@Z 00427a8c     qt-mt323:qt-mt323.dll
 0004:00000a90       __imp_?mousePressEvent@QPopupMenu@@MAEXPAVQMouseEvent@@@Z 00427a90     qt-mt323:qt-mt323.dll
 0004:00000a94       __imp_?mouseReleaseEvent@QMenuBar@@MAEXPAVQMouseEvent@@@Z 00427a94     qt-mt323:qt-mt323.dll
 0004:00000a98       __imp_?mouseReleaseEvent@QPopupMenu@@MAEXPAVQMouseEvent@@@Z 00427a98     qt-mt323:qt-mt323.dll
 0004:00000a9c       __imp_?moveDockWindow@QMainWindow@@UAEXPAVQDockWindow@@W4Dock@Qt@@@Z 00427a9c     qt-mt323:qt-mt323.dll
 0004:00000aa0       __imp_?moveDockWindow@QMainWindow@@UAEXPAVQDockWindow@@W4Dock@Qt@@_NHH@Z 00427aa0     qt-mt323:qt-mt323.dll
 0004:00000aa4       __imp_?namespaceURI@QDomNode@@UBE?AVQString@@XZ 00427aa4     qt-mt323:qt-mt323.dll
 0004:00000aa8       __imp_?nodeName@QDomNode@@UBE?AVQString@@XZ 00427aa8     qt-mt323:qt-mt323.dll
 0004:00000aac       __imp_?nodeType@QDomElement@@UBE?AW4NodeType@QDomNode@@XZ 00427aac     qt-mt323:qt-mt323.dll
 0004:00000ab0       __imp_?nodeValue@QDomNode@@UBE?AVQString@@XZ 00427ab0     qt-mt323:qt-mt323.dll
 0004:00000ab4       __imp_?normalize@QDomNode@@UAEXXZ 00427ab4     qt-mt323:qt-mt323.dll
 0004:00000ab8       __imp_?ownerDocument@QDomNode@@UBE?AVQDomDocument@@XZ 00427ab8     qt-mt323:qt-mt323.dll
 0004:00000abc       __imp_?paintEvent@QMainWindow@@MAEXPAVQPaintEvent@@@Z 00427abc     qt-mt323:qt-mt323.dll
 0004:00000ac0       __imp_?paintEvent@QPopupMenu@@MAEXPAVQPaintEvent@@@Z 00427ac0     qt-mt323:qt-mt323.dll
 0004:00000ac4       __imp_?parentNode@QDomNode@@UBE?AV1@XZ 00427ac4     qt-mt323:qt-mt323.dll
 0004:00000ac8       __imp_?prefix@QDomNode@@UBE?AVQString@@XZ 00427ac8     qt-mt323:qt-mt323.dll
 0004:00000acc       __imp_?previousSibling@QDomNode@@UBE?AV1@XZ 00427acc     qt-mt323:qt-mt323.dll
 0004:00000ad0       __imp_?qt_cast@QMenuBar@@UAEPAXPBD@Z 00427ad0     qt-mt323:qt-mt323.dll
 0004:00000ad4       __imp_?qt_cast@QPopupMenu@@UAEPAXPBD@Z 00427ad4     qt-mt323:qt-mt323.dll
 0004:00000ad8       __imp_?qt_emit@QMenuBar@@UAE_NHPAUQUObject@@@Z 00427ad8     qt-mt323:qt-mt323.dll
 0004:00000adc       __imp_?qt_emit@QPopupMenu@@UAE_NHPAUQUObject@@@Z 00427adc     qt-mt323:qt-mt323.dll
 0004:00000ae0       __imp_?qt_invoke@QMenuBar@@UAE_NHPAUQUObject@@@Z 00427ae0     qt-mt323:qt-mt323.dll
 0004:00000ae4       __imp_?qt_invoke@QPopupMenu@@UAE_NHPAUQUObject@@@Z 00427ae4     qt-mt323:qt-mt323.dll
 0004:00000ae8       __imp_?qt_property@QMenuBar@@UAE_NHHPAVQVariant@@@Z 00427ae8     qt-mt323:qt-mt323.dll
 0004:00000aec       __imp_?qt_property@QPopupMenu@@UAE_NHHPAVQVariant@@@Z 00427aec     qt-mt323:qt-mt323.dll
 0004:00000af0       __imp_?removeChild@QDomNode@@UAE?AV1@ABV1@@Z 00427af0     qt-mt323:qt-mt323.dll
 0004:00000af4       __imp_?removeDockWindow@QMainWindow@@UAEXPAVQDockWindow@@@Z 00427af4     qt-mt323:qt-mt323.dll
 0004:00000af8       __imp_?replaceChild@QDomNode@@UAE?AV1@ABV1@0@Z 00427af8     qt-mt323:qt-mt323.dll
 0004:00000afc       __imp_?resizeEvent@QFrame@@MAEXPAVQResizeEvent@@@Z 00427afc     qt-mt323:qt-mt323.dll
 0004:00000b00       __imp_?resizeEvent@QMenuBar@@MAEXPAVQResizeEvent@@@Z 00427b00     qt-mt323:qt-mt323.dll
 0004:00000b04       __imp_?resizeEvent@QWidget@@MAEXPAVQResizeEvent@@@Z 00427b04     qt-mt323:qt-mt323.dll
 0004:00000b08       __imp_?setActiveItem@QPopupMenu@@UAEXH@Z 00427b08     qt-mt323:qt-mt323.dll
 0004:00000b0c       __imp_?setAppropriate@QMainWindow@@UAEXPAVQDockWindow@@_N@Z 00427b0c     qt-mt323:qt-mt323.dll
 0004:00000b10       __imp_?setCentralWidget@QMainWindow@@UAEXPAVQWidget@@@Z 00427b10     qt-mt323:qt-mt323.dll
 0004:00000b14       __imp_?setCheckable@QPopupMenu@@UAEX_N@Z 00427b14     qt-mt323:qt-mt323.dll
 0004:00000b18       __imp_?setDockEnabled@QMainWindow@@UAEXPAVQDockWindow@@W4Dock@Qt@@_N@Z 00427b18     qt-mt323:qt-mt323.dll
 0004:00000b1c       __imp_?setDockEnabled@QMainWindow@@UAEXW4Dock@Qt@@_N@Z 00427b1c     qt-mt323:qt-mt323.dll
 0004:00000b20       __imp_?setDockMenuEnabled@QMainWindow@@UAEX_N@Z 00427b20     qt-mt323:qt-mt323.dll
 0004:00000b24       __imp_?setDockWindowsMovable@QMainWindow@@UAEX_N@Z 00427b24     qt-mt323:qt-mt323.dll
 0004:00000b28       __imp_?setFirstItemActive@QPopupMenu@@EAEXXZ 00427b28     qt-mt323:qt-mt323.dll
 0004:00000b2c       __imp_?setFont@QPopupMenu@@UAEXABVQFont@@@Z 00427b2c     qt-mt323:qt-mt323.dll
 0004:00000b30       __imp_?setId@QMenuData@@UAEXHH@Z 00427b30     qt-mt323:qt-mt323.dll
 0004:00000b34       __imp_?setMenuBar@QMainWindow@@EAEXPAVQMenuBar@@@Z 00427b34     qt-mt323:qt-mt323.dll
 0004:00000b38       __imp_?setNodeValue@QDomNode@@UAEXABVQString@@@Z 00427b38     qt-mt323:qt-mt323.dll
 0004:00000b3c       __imp_?setOpaqueMoving@QMainWindow@@UAEX_N@Z 00427b3c     qt-mt323:qt-mt323.dll
 0004:00000b40       __imp_?setPrefix@QDomNode@@UAEXABVQString@@@Z 00427b40     qt-mt323:qt-mt323.dll
 0004:00000b44       __imp_?setRightJustification@QMainWindow@@UAEX_N@Z 00427b44     qt-mt323:qt-mt323.dll
 0004:00000b48       __imp_?setSeparator@QMenuBar@@UAEXW4Separator@1@@Z 00427b48     qt-mt323:qt-mt323.dll
 0004:00000b4c       __imp_?setStatusBar@QMainWindow@@EAEXPAVQStatusBar@@@Z 00427b4c     qt-mt323:qt-mt323.dll
 0004:00000b50       __imp_?setToolTipGroup@QMainWindow@@EAEXPAVQToolTipGroup@@@Z 00427b50     qt-mt323:qt-mt323.dll
 0004:00000b54       __imp_?setUpLayout@QMainWindow@@MAEXXZ 00427b54     qt-mt323:qt-mt323.dll
 0004:00000b58       __imp_?setUsesBigPixmaps@QMainWindow@@UAEX_N@Z 00427b58     qt-mt323:qt-mt323.dll
 0004:00000b5c       __imp_?setUsesTextLabel@QMainWindow@@UAEX_N@Z 00427b5c     qt-mt323:qt-mt323.dll
 0004:00000b60       __imp_?show@QMenuBar@@UAEXXZ 00427b60     qt-mt323:qt-mt323.dll
 0004:00000b64       __imp_?show@QPopupMenu@@UAEXXZ 00427b64     qt-mt323:qt-mt323.dll
 0004:00000b68       __imp_?showDockMenu@QMainWindow@@MAE_NABVQPoint@@@Z 00427b68     qt-mt323:qt-mt323.dll
 0004:00000b6c       __imp_?sizeHint@QMainWindow@@UBE?AVQSize@@XZ 00427b6c     qt-mt323:qt-mt323.dll
 0004:00000b70       __imp_?sizeHint@QMenuBar@@UBE?AVQSize@@XZ 00427b70     qt-mt323:qt-mt323.dll
 0004:00000b74       __imp_?sizeHint@QPopupMenu@@UBE?AVQSize@@XZ 00427b74     qt-mt323:qt-mt323.dll
 0004:00000b78       __imp_?styleChange@QMainWindow@@MAEXAAVQStyle@@@Z 00427b78     qt-mt323:qt-mt323.dll
 0004:00000b7c       __imp_?styleChange@QMenuBar@@MAEXAAVQStyle@@@Z 00427b7c     qt-mt323:qt-mt323.dll
 0004:00000b80       __imp_?styleChange@QPopupMenu@@MAEXAAVQStyle@@@Z 00427b80     qt-mt323:qt-mt323.dll
 0004:00000b84       __imp_?timerEvent@QPopupMenu@@MAEXPAVQTimerEvent@@@Z 00427b84     qt-mt323:qt-mt323.dll
 0004:00000b88       __imp_?updateItem@QMenuBar@@UAEXH@Z 00427b88     qt-mt323:qt-mt323.dll
 0004:00000b8c       __imp_?updateItem@QPopupMenu@@UAEXH@Z 00427b8c     qt-mt323:qt-mt323.dll
 0004:00000b90       __imp_?whatsThis@QMainWindow@@UAEXXZ 00427b90     qt-mt323:qt-mt323.dll
 0004:00000b94       __imp_?qt_cast@QObject@@UAEPAXPBD@Z 00427b94     qt-mt323:qt-mt323.dll
 0004:00000b98       __imp_?qt_invoke@QObject@@UAE_NHPAUQUObject@@@Z 00427b98     qt-mt323:qt-mt323.dll
 0004:00000b9c       __imp_?qt_emit@QObject@@UAE_NHPAUQUObject@@@Z 00427b9c     qt-mt323:qt-mt323.dll
 0004:00000ba0       __imp_?qt_property@QObject@@UAE_NHHPAVQVariant@@@Z 00427ba0     qt-mt323:qt-mt323.dll
 0004:00000ba4       __imp_?staticMetaObject@QObject@@SAPAVQMetaObject@@XZ 00427ba4     qt-mt323:qt-mt323.dll
 0004:00000ba8       __imp_?receivers@QObject@@IBEPAVQConnectionList@@H@Z 00427ba8     qt-mt323:qt-mt323.dll
 0004:00000bac       __imp_?activate_signal@QObject@@IAEXPAVQConnectionList@@PAUQUObject@@@Z 00427bac     qt-mt323:qt-mt323.dll
 0004:00000bb0       __imp_??0QUObject@@QAE@XZ  00427bb0     qt-mt323:qt-mt323.dll
 0004:00000bb4       __imp_??1QUObject@@QAE@XZ  00427bb4     qt-mt323:qt-mt323.dll
 0004:00000bb8       __imp_?set@QUType_varptr@@QAEXPAUQUObject@@PBX@Z 00427bb8     qt-mt323:qt-mt323.dll
 0004:00000bbc       __imp_?static_QUType_varptr@@3UQUType_varptr@@A 00427bbc     qt-mt323:qt-mt323.dll
 0004:00000bc0       __imp_?set@QUType_ptr@@QAEXPAUQUObject@@PBX@Z 00427bc0     qt-mt323:qt-mt323.dll
 0004:00000bc4       __imp_?static_QUType_ptr@@3UQUType_ptr@@A 00427bc4     qt-mt323:qt-mt323.dll
 0004:00000bc8       __imp_?static_QUType_int@@3UQUType_int@@A 00427bc8     qt-mt323:qt-mt323.dll
 0004:00000bcc       __imp_?qt_cast@QMainWindow@@UAEPAXPBD@Z 00427bcc     qt-mt323:qt-mt323.dll
 0004:00000bd0       __imp_?qt_invoke@QMainWindow@@UAE_NHPAUQUObject@@@Z 00427bd0     qt-mt323:qt-mt323.dll
 0004:00000bd4       __imp_?qt_emit@QMainWindow@@UAE_NHPAUQUObject@@@Z 00427bd4     qt-mt323:qt-mt323.dll
 0004:00000bd8       __imp_?qt_property@QMainWindow@@UAE_NHHPAVQVariant@@@Z 00427bd8     qt-mt323:qt-mt323.dll
 0004:00000bdc       __imp_?staticMetaObject@QMainWindow@@SAPAVQMetaObject@@XZ 00427bdc     qt-mt323:qt-mt323.dll
 0004:00000be0       __imp_??0QWidget@@QAE@PAV0@PBDI@Z 00427be0     qt-mt323:qt-mt323.dll
 0004:00000be4       __imp_??1QWidget@@UAE@XZ   00427be4     qt-mt323:qt-mt323.dll
 0004:00000be8       __imp_?setMinimumSize@QWidget@@QAEXABVQSize@@@Z 00427be8     qt-mt323:qt-mt323.dll
 0004:00000bec       __imp_?setMaximumSize@QWidget@@QAEXABVQSize@@@Z 00427bec     qt-mt323:qt-mt323.dll
 0004:00000bf0       __imp_?resize@QWidget@@QAEXABVQSize@@@Z 00427bf0     qt-mt323:qt-mt323.dll
 0004:00000bf4       __imp_?setFrameShape@QFrame@@QAEXW4Shape@1@@Z 00427bf4     qt-mt323:qt-mt323.dll
 0004:00000bf8       __imp_?setFrameShadow@QFrame@@QAEXW4Shadow@1@@Z 00427bf8     qt-mt323:qt-mt323.dll
 0004:00000bfc       __imp_??0QMainWindow@@QAE@PAVQWidget@@PBDI@Z 00427bfc     qt-mt323:qt-mt323.dll
 0004:00000c00       __imp_??1QMainWindow@@UAE@XZ 00427c00     qt-mt323:qt-mt323.dll
 0004:00000c04       __imp_?statusBar@QMainWindow@@QBEPAVQStatusBar@@XZ 00427c04     qt-mt323:qt-mt323.dll
 0004:00000c08       __imp_?centralWidget@QMainWindow@@QBEPAVQWidget@@XZ 00427c08     qt-mt323:qt-mt323.dll
 0004:00000c0c       __imp_??0QGroupBox@@QAE@PAVQWidget@@PBD@Z 00427c0c     qt-mt323:qt-mt323.dll
 0004:00000c10       __imp_??1QGroupBox@@UAE@XZ 00427c10     qt-mt323:qt-mt323.dll
 0004:00000c14       __imp_??0QListView@@QAE@PAVQWidget@@PBDI@Z 00427c14     qt-mt323:qt-mt323.dll
 0004:00000c18       __imp_??1QListView@@UAE@XZ 00427c18     qt-mt323:qt-mt323.dll
 0004:00000c1c       __imp_?header@QListView@@QBEPAVQHeader@@XZ 00427c1c     qt-mt323:qt-mt323.dll
 0004:00000c20       __imp_??0QLineEdit@@QAE@PAVQWidget@@PBD@Z 00427c20     qt-mt323:qt-mt323.dll
 0004:00000c24       __imp_??1QLineEdit@@UAE@XZ 00427c24     qt-mt323:qt-mt323.dll
 0004:00000c28       __imp_??0QHBoxLayout@@QAE@PAVQLayout@@HPBD@Z 00427c28     qt-mt323:qt-mt323.dll
 0004:00000c2c       __imp_?addChild@QScrollView@@UAEXPAVQWidget@@HH@Z 00427c2c     qt-mt323:qt-mt323.dll
 0004:00000c30       __imp_?addColumn@QListView@@UAEHABVQIconSet@@ABVQString@@H@Z 00427c30     qt-mt323:qt-mt323.dll
 0004:00000c34       __imp_?addColumn@QListView@@UAEHABVQString@@H@Z 00427c34     qt-mt323:qt-mt323.dll
 0004:00000c38       __imp_?childEvent@QGroupBox@@MAEXPAVQChildEvent@@@Z 00427c38     qt-mt323:qt-mt323.dll
 0004:00000c3c       __imp_?className@QGroupBox@@UBEPBDXZ 00427c3c     qt-mt323:qt-mt323.dll
 0004:00000c40       __imp_?className@QLineEdit@@UBEPBDXZ 00427c40     qt-mt323:qt-mt323.dll
 0004:00000c44       __imp_?className@QListView@@UBEPBDXZ 00427c44     qt-mt323:qt-mt323.dll
 0004:00000c48       __imp_?className@QWidget@@UBEPBDXZ 00427c48     qt-mt323:qt-mt323.dll
 0004:00000c4c       __imp_?clear@QLineEdit@@UAEXXZ 00427c4c     qt-mt323:qt-mt323.dll
 0004:00000c50       __imp_?clear@QListView@@UAEXXZ 00427c50     qt-mt323:qt-mt323.dll
 0004:00000c54       __imp_?clearSelection@QListView@@UAEXXZ 00427c54     qt-mt323:qt-mt323.dll
 0004:00000c58       __imp_?clearValidator@QLineEdit@@UAEXXZ 00427c58     qt-mt323:qt-mt323.dll
 0004:00000c5c       __imp_?contentsContextMenuEvent@QListView@@MAEXPAVQContextMenuEvent@@@Z 00427c5c     qt-mt323:qt-mt323.dll
 0004:00000c60       __imp_?contentsDragEnterEvent@QListView@@MAEXPAVQDragEnterEvent@@@Z 00427c60     qt-mt323:qt-mt323.dll
 0004:00000c64       __imp_?contentsDragLeaveEvent@QListView@@MAEXPAVQDragLeaveEvent@@@Z 00427c64     qt-mt323:qt-mt323.dll
 0004:00000c68       __imp_?contentsDragMoveEvent@QListView@@MAEXPAVQDragMoveEvent@@@Z 00427c68     qt-mt323:qt-mt323.dll
 0004:00000c6c       __imp_?contentsDropEvent@QListView@@MAEXPAVQDropEvent@@@Z 00427c6c     qt-mt323:qt-mt323.dll
 0004:00000c70       __imp_?contentsMouseDoubleClickEvent@QListView@@MAEXPAVQMouseEvent@@@Z 00427c70     qt-mt323:qt-mt323.dll
 0004:00000c74       __imp_?contentsMouseMoveEvent@QListView@@MAEXPAVQMouseEvent@@@Z 00427c74     qt-mt323:qt-mt323.dll
 0004:00000c78       __imp_?contentsMousePressEvent@QListView@@MAEXPAVQMouseEvent@@@Z 00427c78     qt-mt323:qt-mt323.dll
 0004:00000c7c       __imp_?contentsMouseReleaseEvent@QListView@@MAEXPAVQMouseEvent@@@Z 00427c7c     qt-mt323:qt-mt323.dll
 0004:00000c80       __imp_?contentsWheelEvent@QScrollView@@MAEXPAVQWheelEvent@@@Z 00427c80     qt-mt323:qt-mt323.dll
 0004:00000c84       __imp_?contextMenuEvent@QLineEdit@@MAEXPAVQContextMenuEvent@@@Z 00427c84     qt-mt323:qt-mt323.dll
 0004:00000c88       __imp_?contextMenuEvent@QScrollView@@MAEXPAVQContextMenuEvent@@@Z 00427c88     qt-mt323:qt-mt323.dll
 0004:00000c8c       __imp_?copy@QLineEdit@@UBEXXZ 00427c8c     qt-mt323:qt-mt323.dll
 0004:00000c90       __imp_?createPopupMenu@QLineEdit@@MAEPAVQPopupMenu@@XZ 00427c90     qt-mt323:qt-mt323.dll
 0004:00000c94       __imp_?cut@QLineEdit@@UAEXXZ 00427c94     qt-mt323:qt-mt323.dll
 0004:00000c98       __imp_?deselect@QLineEdit@@UAEXXZ 00427c98     qt-mt323:qt-mt323.dll
 0004:00000c9c       __imp_?dragEnterEvent@QLineEdit@@MAEXPAVQDragEnterEvent@@@Z 00427c9c     qt-mt323:qt-mt323.dll
 0004:00000ca0       __imp_?dragLeaveEvent@QLineEdit@@MAEXPAVQDragLeaveEvent@@@Z 00427ca0     qt-mt323:qt-mt323.dll
 0004:00000ca4       __imp_?dragMoveEvent@QLineEdit@@MAEXPAVQDragMoveEvent@@@Z 00427ca4     qt-mt323:qt-mt323.dll
 0004:00000ca8       __imp_?dragObject@QListView@@MAEPAVQDragObject@@XZ 00427ca8     qt-mt323:qt-mt323.dll
 0004:00000cac       __imp_?drawContents@QFrame@@MAEXPAVQPainter@@@Z 00427cac     qt-mt323:qt-mt323.dll
 0004:00000cb0       __imp_?drawContents@QLineEdit@@MAEXPAVQPainter@@@Z 00427cb0     qt-mt323:qt-mt323.dll
 0004:00000cb4       __imp_?drawContents@QScrollView@@EAEXPAVQPainter@@@Z 00427cb4     qt-mt323:qt-mt323.dll
 0004:00000cb8       __imp_?drawContents@QScrollView@@MAEXPAVQPainter@@HHHH@Z 00427cb8     qt-mt323:qt-mt323.dll
 0004:00000cbc       __imp_?drawContentsOffset@QListView@@MAEXPAVQPainter@@HHHHHH@Z 00427cbc     qt-mt323:qt-mt323.dll
 0004:00000cc0       __imp_?dropEvent@QLineEdit@@MAEXPAVQDropEvent@@@Z 00427cc0     qt-mt323:qt-mt323.dll
 0004:00000cc4       __imp_?event@QGroupBox@@MAE_NPAVQEvent@@@Z 00427cc4     qt-mt323:qt-mt323.dll
 0004:00000cc8       __imp_?event@QLineEdit@@MAE_NPAVQEvent@@@Z 00427cc8     qt-mt323:qt-mt323.dll
 0004:00000ccc       __imp_?eventFilter@QListView@@UAE_NPAVQObject@@PAVQEvent@@@Z 00427ccc     qt-mt323:qt-mt323.dll
 0004:00000cd0       __imp_?focusInEvent@QGroupBox@@MAEXPAVQFocusEvent@@@Z 00427cd0     qt-mt323:qt-mt323.dll
 0004:00000cd4       __imp_?focusInEvent@QLineEdit@@MAEXPAVQFocusEvent@@@Z 00427cd4     qt-mt323:qt-mt323.dll
 0004:00000cd8       __imp_?focusInEvent@QListView@@MAEXPAVQFocusEvent@@@Z 00427cd8     qt-mt323:qt-mt323.dll
 0004:00000cdc       __imp_?focusNextPrevChild@QScrollView@@MAE_N_N@Z 00427cdc     qt-mt323:qt-mt323.dll
 0004:00000ce0       __imp_?focusOutEvent@QLineEdit@@MAEXPAVQFocusEvent@@@Z 00427ce0     qt-mt323:qt-mt323.dll
 0004:00000ce4       __imp_?focusOutEvent@QListView@@MAEXPAVQFocusEvent@@@Z 00427ce4     qt-mt323:qt-mt323.dll
 0004:00000ce8       __imp_?fontChange@QGroupBox@@MAEXABVQFont@@@Z 00427ce8     qt-mt323:qt-mt323.dll
 0004:00000cec       __imp_?fontChange@QScrollView@@MAEXABVQFont@@@Z 00427cec     qt-mt323:qt-mt323.dll
 0004:00000cf0       __imp_?frameChanged@QScrollView@@MAEXXZ 00427cf0     qt-mt323:qt-mt323.dll
 0004:00000cf4       __imp_?imComposeEvent@QLineEdit@@MAEXPAVQIMEvent@@@Z 00427cf4     qt-mt323:qt-mt323.dll
 0004:00000cf8       __imp_?imEndEvent@QLineEdit@@MAEXPAVQIMEvent@@@Z 00427cf8     qt-mt323:qt-mt323.dll
 0004:00000cfc       __imp_?imStartEvent@QLineEdit@@MAEXPAVQIMEvent@@@Z 00427cfc     qt-mt323:qt-mt323.dll
 0004:00000d00       __imp_?insert@QLineEdit@@UAEXABVQString@@@Z 00427d00     qt-mt323:qt-mt323.dll
 0004:00000d04       __imp_?insertItem@QListView@@UAEXPAVQListViewItem@@@Z 00427d04     qt-mt323:qt-mt323.dll
 0004:00000d08       __imp_?invertSelection@QListView@@UAEXXZ 00427d08     qt-mt323:qt-mt323.dll
 0004:00000d0c       __imp_?keyPressEvent@QLineEdit@@MAEXPAVQKeyEvent@@@Z 00427d0c     qt-mt323:qt-mt323.dll
 0004:00000d10       __imp_?keyPressEvent@QListView@@MAEXPAVQKeyEvent@@@Z 00427d10     qt-mt323:qt-mt323.dll
 0004:00000d14       __imp_?metaObject@QGroupBox@@UBEPAVQMetaObject@@XZ 00427d14     qt-mt323:qt-mt323.dll
 0004:00000d18       __imp_?metaObject@QLineEdit@@UBEPAVQMetaObject@@XZ 00427d18     qt-mt323:qt-mt323.dll
 0004:00000d1c       __imp_?metaObject@QListView@@UBEPAVQMetaObject@@XZ 00427d1c     qt-mt323:qt-mt323.dll
 0004:00000d20       __imp_?metaObject@QWidget@@UBEPAVQMetaObject@@XZ 00427d20     qt-mt323:qt-mt323.dll
 0004:00000d24       __imp_?minimumSizeHint@QLineEdit@@UBE?AVQSize@@XZ 00427d24     qt-mt323:qt-mt323.dll
 0004:00000d28       __imp_?minimumSizeHint@QListView@@UBE?AVQSize@@XZ 00427d28     qt-mt323:qt-mt323.dll
 0004:00000d2c       __imp_?mouseDoubleClickEvent@QLineEdit@@MAEXPAVQMouseEvent@@@Z 00427d2c     qt-mt323:qt-mt323.dll
 0004:00000d30       __imp_?mouseDoubleClickEvent@QScrollView@@MAEXPAVQMouseEvent@@@Z 00427d30     qt-mt323:qt-mt323.dll
 0004:00000d34       __imp_?mouseMoveEvent@QLineEdit@@MAEXPAVQMouseEvent@@@Z 00427d34     qt-mt323:qt-mt323.dll
 0004:00000d38       __imp_?mouseMoveEvent@QScrollView@@MAEXPAVQMouseEvent@@@Z 00427d38     qt-mt323:qt-mt323.dll
 0004:00000d3c       __imp_?mousePressEvent@QLineEdit@@MAEXPAVQMouseEvent@@@Z 00427d3c     qt-mt323:qt-mt323.dll
 0004:00000d40       __imp_?mousePressEvent@QScrollView@@MAEXPAVQMouseEvent@@@Z 00427d40     qt-mt323:qt-mt323.dll
 0004:00000d44       __imp_?mouseReleaseEvent@QLineEdit@@MAEXPAVQMouseEvent@@@Z 00427d44     qt-mt323:qt-mt323.dll
 0004:00000d48       __imp_?mouseReleaseEvent@QScrollView@@MAEXPAVQMouseEvent@@@Z 00427d48     qt-mt323:qt-mt323.dll
 0004:00000d4c       __imp_?moveChild@QScrollView@@UAEXPAVQWidget@@HH@Z 00427d4c     qt-mt323:qt-mt323.dll
 0004:00000d50       __imp_?paintEmptyArea@QListView@@MAEXPAVQPainter@@ABVQRect@@@Z 00427d50     qt-mt323:qt-mt323.dll
 0004:00000d54       __imp_?paintEvent@QGroupBox@@MAEXPAVQPaintEvent@@@Z 00427d54     qt-mt323:qt-mt323.dll
 0004:00000d58       __imp_?paste@QLineEdit@@UAEXXZ 00427d58     qt-mt323:qt-mt323.dll
 0004:00000d5c       __imp_?qt_cast@QGroupBox@@UAEPAXPBD@Z 00427d5c     qt-mt323:qt-mt323.dll
 0004:00000d60       __imp_?qt_cast@QLineEdit@@UAEPAXPBD@Z 00427d60     qt-mt323:qt-mt323.dll
 0004:00000d64       __imp_?qt_cast@QListView@@UAEPAXPBD@Z 00427d64     qt-mt323:qt-mt323.dll
 0004:00000d68       __imp_?qt_cast@QWidget@@UAEPAXPBD@Z 00427d68     qt-mt323:qt-mt323.dll
 0004:00000d6c       __imp_?qt_emit@QGroupBox@@UAE_NHPAUQUObject@@@Z 00427d6c     qt-mt323:qt-mt323.dll
 0004:00000d70       __imp_?qt_emit@QLineEdit@@UAE_NHPAUQUObject@@@Z 00427d70     qt-mt323:qt-mt323.dll
 0004:00000d74       __imp_?qt_emit@QListView@@UAE_NHPAUQUObject@@@Z 00427d74     qt-mt323:qt-mt323.dll
 0004:00000d78       __imp_?qt_emit@QWidget@@UAE_NHPAUQUObject@@@Z 00427d78     qt-mt323:qt-mt323.dll
 0004:00000d7c       __imp_?qt_invoke@QGroupBox@@UAE_NHPAUQUObject@@@Z 00427d7c     qt-mt323:qt-mt323.dll
 0004:00000d80       __imp_?qt_invoke@QLineEdit@@UAE_NHPAUQUObject@@@Z 00427d80     qt-mt323:qt-mt323.dll
 0004:00000d84       __imp_?qt_invoke@QListView@@UAE_NHPAUQUObject@@@Z 00427d84     qt-mt323:qt-mt323.dll
 0004:00000d88       __imp_?qt_invoke@QWidget@@UAE_NHPAUQUObject@@@Z 00427d88     qt-mt323:qt-mt323.dll
 0004:00000d8c       __imp_?qt_property@QGroupBox@@UAE_NHHPAVQVariant@@@Z 00427d8c     qt-mt323:qt-mt323.dll
 0004:00000d90       __imp_?qt_property@QLineEdit@@UAE_NHHPAVQVariant@@@Z 00427d90     qt-mt323:qt-mt323.dll
 0004:00000d94       __imp_?qt_property@QListView@@UAE_NHHPAVQVariant@@@Z 00427d94     qt-mt323:qt-mt323.dll
 0004:00000d98       __imp_?qt_property@QWidget@@UAE_NHHPAVQVariant@@@Z 00427d98     qt-mt323:qt-mt323.dll
 0004:00000d9c       __imp_?redo@QLineEdit@@UAEXXZ 00427d9c     qt-mt323:qt-mt323.dll
 0004:00000da0       __imp_?removeChild@QScrollView@@UAEXPAVQObject@@@Z 00427da0     qt-mt323:qt-mt323.dll
 0004:00000da4       __imp_?removeColumn@QListView@@UAEXH@Z 00427da4     qt-mt323:qt-mt323.dll
 0004:00000da8       __imp_?removeItem@QListView@@UAEXPAVQListViewItem@@@Z 00427da8     qt-mt323:qt-mt323.dll
 0004:00000dac       __imp_?resize@QScrollView@@UAEXHH@Z 00427dac     qt-mt323:qt-mt323.dll
 0004:00000db0       __imp_?resizeContents@QScrollView@@UAEXHH@Z 00427db0     qt-mt323:qt-mt323.dll
 0004:00000db4       __imp_?resizeEvent@QGroupBox@@MAEXPAVQResizeEvent@@@Z 00427db4     qt-mt323:qt-mt323.dll
 0004:00000db8       __imp_?resizeEvent@QLineEdit@@MAEXPAVQResizeEvent@@@Z 00427db8     qt-mt323:qt-mt323.dll
 0004:00000dbc       __imp_?resizeEvent@QListView@@MAEXPAVQResizeEvent@@@Z 00427dbc     qt-mt323:qt-mt323.dll
 0004:00000dc0       __imp_?selectAll@QLineEdit@@UAEXXZ 00427dc0     qt-mt323:qt-mt323.dll
 0004:00000dc4       __imp_?selectAll@QListView@@UAEX_N@Z 00427dc4     qt-mt323:qt-mt323.dll
 0004:00000dc8       __imp_?setAlignment@QGroupBox@@UAEXH@Z 00427dc8     qt-mt323:qt-mt323.dll
 0004:00000dcc       __imp_?setAlignment@QLineEdit@@UAEXH@Z 00427dcc     qt-mt323:qt-mt323.dll
 0004:00000dd0       __imp_?setAllColumnsShowFocus@QListView@@UAEX_N@Z 00427dd0     qt-mt323:qt-mt323.dll
 0004:00000dd4       __imp_?setColumnAlignment@QListView@@UAEXHH@Z 00427dd4     qt-mt323:qt-mt323.dll
 0004:00000dd8       __imp_?setColumnLayout@QGroupBox@@UAEXHW4Orientation@Qt@@@Z 00427dd8     qt-mt323:qt-mt323.dll
 0004:00000ddc       __imp_?setColumnText@QListView@@UAEXHABVQIconSet@@ABVQString@@@Z 00427ddc     qt-mt323:qt-mt323.dll
 0004:00000de0       __imp_?setColumnText@QListView@@UAEXHABVQString@@@Z 00427de0     qt-mt323:qt-mt323.dll
 0004:00000de4       __imp_?setColumnWidth@QListView@@UAEXHH@Z 00427de4     qt-mt323:qt-mt323.dll
 0004:00000de8       __imp_?setColumnWidthMode@QListView@@UAEXHW4WidthMode@1@@Z 00427de8     qt-mt323:qt-mt323.dll
 0004:00000dec       __imp_?setContentsPos@QListView@@UAEXHH@Z 00427dec     qt-mt323:qt-mt323.dll
 0004:00000df0       __imp_?setCornerWidget@QScrollView@@UAEXPAVQWidget@@@Z 00427df0     qt-mt323:qt-mt323.dll
 0004:00000df4       __imp_?setCurrentItem@QListView@@UAEXPAVQListViewItem@@@Z 00427df4     qt-mt323:qt-mt323.dll
 0004:00000df8       __imp_?setCursorPosition@QLineEdit@@UAEXH@Z 00427df8     qt-mt323:qt-mt323.dll
 0004:00000dfc       __imp_?setDefaultRenameAction@QListView@@UAEXW4RenameAction@1@@Z 00427dfc     qt-mt323:qt-mt323.dll
 0004:00000e00       __imp_?setDragAutoScroll@QScrollView@@UAEX_N@Z 00427e00     qt-mt323:qt-mt323.dll
 0004:00000e04       __imp_?setDragEnabled@QLineEdit@@UAEX_N@Z 00427e04     qt-mt323:qt-mt323.dll
 0004:00000e08       __imp_?setEchoMode@QLineEdit@@UAEXW4EchoMode@1@@Z 00427e08     qt-mt323:qt-mt323.dll
 0004:00000e0c       __imp_?setEnabled@QGroupBox@@UAEX_N@Z 00427e0c     qt-mt323:qt-mt323.dll
 0004:00000e10       __imp_?setEnabled@QScrollView@@UAEX_N@Z 00427e10     qt-mt323:qt-mt323.dll
 0004:00000e14       __imp_?setFont@QLineEdit@@UAEXABVQFont@@@Z 00427e14     qt-mt323:qt-mt323.dll
 0004:00000e18       __imp_?setFont@QListView@@UAEXABVQFont@@@Z 00427e18     qt-mt323:qt-mt323.dll
 0004:00000e1c       __imp_?setFrame@QLineEdit@@UAEX_N@Z 00427e1c     qt-mt323:qt-mt323.dll
 0004:00000e20       __imp_?setHBarGeometry@QScrollView@@MAEXAAVQScrollBar@@HHHH@Z 00427e20     qt-mt323:qt-mt323.dll
 0004:00000e24       __imp_?setHScrollBarMode@QScrollView@@UAEXW4ScrollBarMode@1@@Z 00427e24     qt-mt323:qt-mt323.dll
 0004:00000e28       __imp_?setItemMargin@QListView@@UAEXH@Z 00427e28     qt-mt323:qt-mt323.dll
 0004:00000e2c       __imp_?setMargins@QScrollView@@MAEXHHHH@Z 00427e2c     qt-mt323:qt-mt323.dll
 0004:00000e30       __imp_?setMaxLength@QLineEdit@@UAEXH@Z 00427e30     qt-mt323:qt-mt323.dll
 0004:00000e34       __imp_?setMultiSelection@QListView@@UAEX_N@Z 00427e34     qt-mt323:qt-mt323.dll
 0004:00000e38       __imp_?setOpen@QListView@@UAEXPAVQListViewItem@@_N@Z 00427e38     qt-mt323:qt-mt323.dll
 0004:00000e3c       __imp_?setPalette@QLineEdit@@UAEXABVQPalette@@@Z 00427e3c     qt-mt323:qt-mt323.dll
 0004:00000e40       __imp_?setPalette@QListView@@UAEXABVQPalette@@@Z 00427e40     qt-mt323:qt-mt323.dll
 0004:00000e44       __imp_?setReadOnly@QLineEdit@@UAEX_N@Z 00427e44     qt-mt323:qt-mt323.dll
 0004:00000e48       __imp_?setResizeMode@QListView@@UAEXW4ResizeMode@1@@Z 00427e48     qt-mt323:qt-mt323.dll
 0004:00000e4c       __imp_?setResizePolicy@QScrollView@@UAEXW4ResizePolicy@1@@Z 00427e4c     qt-mt323:qt-mt323.dll
 0004:00000e50       __imp_?setRootIsDecorated@QListView@@UAEX_N@Z 00427e50     qt-mt323:qt-mt323.dll
 0004:00000e54       __imp_?setSelected@QListView@@UAEXPAVQListViewItem@@_N@Z 00427e54     qt-mt323:qt-mt323.dll
 0004:00000e58       __imp_?setSelection@QLineEdit@@UAEXHH@Z 00427e58     qt-mt323:qt-mt323.dll
 0004:00000e5c       __imp_?setShowSortIndicator@QListView@@UAEX_N@Z 00427e5c     qt-mt323:qt-mt323.dll
 0004:00000e60       __imp_?setShowToolTips@QListView@@UAEX_N@Z 00427e60     qt-mt323:qt-mt323.dll
 0004:00000e64       __imp_?setSorting@QListView@@UAEXH_N@Z 00427e64     qt-mt323:qt-mt323.dll
 0004:00000e68       __imp_?setText@QLineEdit@@UAEXABVQString@@@Z 00427e68     qt-mt323:qt-mt323.dll
 0004:00000e6c       __imp_?setTitle@QGroupBox@@UAEXABVQString@@@Z 00427e6c     qt-mt323:qt-mt323.dll
 0004:00000e70       __imp_?setTreeStepSize@QListView@@UAEXH@Z 00427e70     qt-mt323:qt-mt323.dll
 0004:00000e74       __imp_?setVBarGeometry@QScrollView@@MAEXAAVQScrollBar@@HHHH@Z 00427e74     qt-mt323:qt-mt323.dll
 0004:00000e78       __imp_?setVScrollBarMode@QScrollView@@UAEXW4ScrollBarMode@1@@Z 00427e78     qt-mt323:qt-mt323.dll
 0004:00000e7c       __imp_?setValidator@QLineEdit@@UAEXPBVQValidator@@@Z 00427e7c     qt-mt323:qt-mt323.dll
 0004:00000e80       __imp_?show@QListView@@UAEXXZ 00427e80     qt-mt323:qt-mt323.dll
 0004:00000e84       __imp_?showEvent@QListView@@MAEXPAVQShowEvent@@@Z 00427e84     qt-mt323:qt-mt323.dll
 0004:00000e88       __imp_?sizeHint@QGroupBox@@UBE?AVQSize@@XZ 00427e88     qt-mt323:qt-mt323.dll
 0004:00000e8c       __imp_?sizeHint@QLineEdit@@UBE?AVQSize@@XZ 00427e8c     qt-mt323:qt-mt323.dll
 0004:00000e90       __imp_?sizeHint@QListView@@UBE?AVQSize@@XZ 00427e90     qt-mt323:qt-mt323.dll
 0004:00000e94       __imp_?sizeHint@QWidget@@UBE?AVQSize@@XZ 00427e94     qt-mt323:qt-mt323.dll
 0004:00000e98       __imp_?sort@QListView@@UAEXXZ 00427e98     qt-mt323:qt-mt323.dll
 0004:00000e9c       __imp_?startDrag@QListView@@MAEXXZ 00427e9c     qt-mt323:qt-mt323.dll
 0004:00000ea0       __imp_?styleChange@QListView@@MAEXAAVQStyle@@@Z 00427ea0     qt-mt323:qt-mt323.dll
 0004:00000ea4       __imp_?takeItem@QListView@@UAEXPAVQListViewItem@@@Z 00427ea4     qt-mt323:qt-mt323.dll
 0004:00000ea8       __imp_?undo@QLineEdit@@UAEXXZ 00427ea8     qt-mt323:qt-mt323.dll
 0004:00000eac       __imp_?viewportContextMenuEvent@QScrollView@@MAEXPAVQContextMenuEvent@@@Z 00427eac     qt-mt323:qt-mt323.dll
 0004:00000eb0       __imp_?viewportDragEnterEvent@QScrollView@@MAEXPAVQDragEnterEvent@@@Z 00427eb0     qt-mt323:qt-mt323.dll
 0004:00000eb4       __imp_?viewportDragLeaveEvent@QScrollView@@MAEXPAVQDragLeaveEvent@@@Z 00427eb4     qt-mt323:qt-mt323.dll
 0004:00000eb8       __imp_?viewportDragMoveEvent@QScrollView@@MAEXPAVQDragMoveEvent@@@Z 00427eb8     qt-mt323:qt-mt323.dll
 0004:00000ebc       __imp_?viewportDropEvent@QScrollView@@MAEXPAVQDropEvent@@@Z 00427ebc     qt-mt323:qt-mt323.dll
 0004:00000ec0       __imp_?viewportMouseDoubleClickEvent@QScrollView@@MAEXPAVQMouseEvent@@@Z 00427ec0     qt-mt323:qt-mt323.dll
 0004:00000ec4       __imp_?viewportMouseMoveEvent@QScrollView@@MAEXPAVQMouseEvent@@@Z 00427ec4     qt-mt323:qt-mt323.dll
 0004:00000ec8       __imp_?viewportMousePressEvent@QScrollView@@MAEXPAVQMouseEvent@@@Z 00427ec8     qt-mt323:qt-mt323.dll
 0004:00000ecc       __imp_?viewportMouseReleaseEvent@QScrollView@@MAEXPAVQMouseEvent@@@Z 00427ecc     qt-mt323:qt-mt323.dll
 0004:00000ed0       __imp_?viewportPaintEvent@QScrollView@@MAEXPAVQPaintEvent@@@Z 00427ed0     qt-mt323:qt-mt323.dll
 0004:00000ed4       __imp_?viewportResizeEvent@QListView@@MAEXPAVQResizeEvent@@@Z 00427ed4     qt-mt323:qt-mt323.dll
 0004:00000ed8       __imp_?viewportWheelEvent@QScrollView@@MAEXPAVQWheelEvent@@@Z 00427ed8     qt-mt323:qt-mt323.dll
 0004:00000edc       __imp_?wheelEvent@QScrollView@@MAEXPAVQWheelEvent@@@Z 00427edc     qt-mt323:qt-mt323.dll
 0004:00000ee0       __imp_?windowActivationChange@QLineEdit@@MAEX_N@Z 00427ee0     qt-mt323:qt-mt323.dll
 0004:00000ee4       __imp_?windowActivationChange@QListView@@MAEX_N@Z 00427ee4     qt-mt323:qt-mt323.dll
 0004:00000ee8       __imp_?connect@QSocketDevice@@UAE_NABVQHostAddress@@G@Z 00427ee8     qt-mt323:qt-mt323.dll
 0004:00000eec       __imp_?close@QSocketDevice@@UAEXXZ 00427eec     qt-mt323:qt-mt323.dll
 0004:00000ef0       __imp_?className@QSocketNotifier@@UBEPBDXZ 00427ef0     qt-mt323:qt-mt323.dll
 0004:00000ef4       __imp_?bind@QSocketDevice@@UAE_NABVQHostAddress@@G@Z 00427ef4     qt-mt323:qt-mt323.dll
 0004:00000ef8       __imp_?atEnd@QSocketDevice@@UBE_NXZ 00427ef8     qt-mt323:qt-mt323.dll
 0004:00000efc       __imp_?at@QSocketDevice@@UBEKXZ 00427efc     qt-mt323:qt-mt323.dll
 0004:00000f00       __imp_?at@QSocketDevice@@UAE_NK@Z 00427f00     qt-mt323:qt-mt323.dll
 0004:00000f04       __imp_?accept@QSocketDevice@@UAEHXZ 00427f04     qt-mt323:qt-mt323.dll
 0004:00000f08       __imp_?setTime_t@QDateTime@@QAEXI@Z 00427f08     qt-mt323:qt-mt323.dll
 0004:00000f0c       __imp_??1QStringList@@QAE@XZ 00427f0c     qt-mt323:qt-mt323.dll
 0004:00000f10       __imp_?split@QStringList@@SA?AV1@ABVQString@@0_N@Z 00427f10     qt-mt323:qt-mt323.dll
 0004:00000f14       __imp_??1QSocketNotifier@@UAE@XZ 00427f14     qt-mt323:qt-mt323.dll
 0004:00000f18       __imp_??0QSocketNotifier@@QAE@HW4Type@0@PAVQObject@@PBD@Z 00427f18     qt-mt323:qt-mt323.dll
 0004:00000f1c       __imp_?error@QSocketDevice@@QBE?AW4Error@1@XZ 00427f1c     qt-mt323:qt-mt323.dll
 0004:00000f20       __imp_?peerAddress@QSocketDevice@@QBE?AVQHostAddress@@XZ 00427f20     qt-mt323:qt-mt323.dll
 0004:00000f24       __imp_?socket@QSocketDevice@@QBEHXZ 00427f24     qt-mt323:qt-mt323.dll
 0004:00000f28       __imp_?isValid@QSocketDevice@@QBE_NXZ 00427f28     qt-mt323:qt-mt323.dll
 0004:00000f2c       __imp_??1QSocketDevice@@UAE@XZ 00427f2c     qt-mt323:qt-mt323.dll
 0004:00000f30       __imp_??0QSocketDevice@@QAE@W4Type@0@@Z 00427f30     qt-mt323:qt-mt323.dll
 0004:00000f34       __imp_?toString@QHostAddress@@QBE?AVQString@@XZ 00427f34     qt-mt323:qt-mt323.dll
 0004:00000f38       __imp_?setAddress@QHostAddress@@QAE_NABVQString@@@Z 00427f38     qt-mt323:qt-mt323.dll
 0004:00000f3c       __imp_??1QHostAddress@@UAE@XZ 00427f3c     qt-mt323:qt-mt323.dll
 0004:00000f40       __imp_??0QHostAddress@@QAE@I@Z 00427f40     qt-mt323:qt-mt323.dll
 0004:00000f44       __imp_?setSocket@QSocketDevice@@UAEXHW4Type@1@@Z 00427f44     qt-mt323:qt-mt323.dll
 0004:00000f48       __imp_?setSendBufferSize@QSocketDevice@@UAEXI@Z 00427f48     qt-mt323:qt-mt323.dll
 0004:00000f4c       __imp_?setReceiveBufferSize@QSocketDevice@@UAEXI@Z 00427f4c     qt-mt323:qt-mt323.dll
 0004:00000f50       __imp_?setOption@QSocketDevice@@EAEXW4Option@1@H@Z 00427f50     qt-mt323:qt-mt323.dll
 0004:00000f54       __imp_?setEnabled@QSocketNotifier@@UAEX_N@Z 00427f54     qt-mt323:qt-mt323.dll
 0004:00000f58       __imp_?setBlocking@QSocketDevice@@UAEX_N@Z 00427f58     qt-mt323:qt-mt323.dll
 0004:00000f5c       __imp_?setAddressReusable@QSocketDevice@@UAEX_N@Z 00427f5c     qt-mt323:qt-mt323.dll
 0004:00000f60       __imp_?readLine@QIODevice@@UAEJPADK@Z 00427f60     qt-mt323:qt-mt323.dll
 0004:00000f64       __imp_?readBlock@QSocketDevice@@UAEJPADK@Z 00427f64     qt-mt323:qt-mt323.dll
 0004:00000f68       __imp_?readAll@QIODevice@@UAE?AV?$QMemArray@D@@XZ 00427f68     qt-mt323:qt-mt323.dll
 0004:00000f6c       __imp_?qt_property@QSocketNotifier@@UAE_NHHPAVQVariant@@@Z 00427f6c     qt-mt323:qt-mt323.dll
 0004:00000f70       __imp_?qt_invoke@QSocketNotifier@@UAE_NHPAUQUObject@@@Z 00427f70     qt-mt323:qt-mt323.dll
 0004:00000f74       __imp_?qt_emit@QSocketNotifier@@UAE_NHPAUQUObject@@@Z 00427f74     qt-mt323:qt-mt323.dll
 0004:00000f78       __imp_?qt_cast@QSocketNotifier@@UAEPAXPBD@Z 00427f78     qt-mt323:qt-mt323.dll
 0004:00000f7c       __imp_?putch@QSocketDevice@@UAEHH@Z 00427f7c     qt-mt323:qt-mt323.dll
 0004:00000f80       __imp_??0QHostAddress@@QAE@XZ 00427f80     qt-mt323:qt-mt323.dll
 0004:00000f84       __imp_?connect@QObject@@SA_NPBV1@PBD01@Z 00427f84     qt-mt323:qt-mt323.dll
 0004:00000f88       __imp_??A?$QValueList@VQString@@@@QAEAAVQString@@I@Z 00427f88     qt-mt323:qt-mt323.dll
 0004:00000f8c       __imp_?reset@QIODevice@@QAE_NXZ 00427f8c     qt-mt323:qt-mt323.dll
 0004:00000f90       __imp_?toUInt@QString@@QBEIPA_NH@Z 00427f90     qt-mt323:qt-mt323.dll
 0004:00000f94       __imp_?toInt@QString@@QBEHPA_NH@Z 00427f94     qt-mt323:qt-mt323.dll
 0004:00000f98       __imp_?qApp@@3PAVQApplication@@A 00427f98     qt-mt323:qt-mt323.dll
 0004:00000f9c       __imp_?translate@QApplication@@QBE?AVQString@@PBD00W4Encoding@1@@Z 00427f9c     qt-mt323:qt-mt323.dll
 0004:00000fa0       __imp_?setMetaObject@QMetaObjectCleanUp@@QAEXAAPAVQMetaObject@@@Z 00427fa0     qt-mt323:qt-mt323.dll
 0004:00000fa4       __imp_??1QMetaObjectCleanUp@@QAE@XZ 00427fa4     qt-mt323:qt-mt323.dll
 0004:00000fa8       __imp_??0QMetaObjectCleanUp@@QAE@PBDP6APAVQMetaObject@@XZ@Z 00427fa8     qt-mt323:qt-mt323.dll
 0004:00000fac       __imp_?new_metaobject@QMetaObject@@SAPAV1@PBDPAV1@QBUQMetaData@@H2HQBVQMetaProperty@@HQBUQMetaEnum@@HQBUQClassInfo@@H@Z 00427fac     qt-mt323:qt-mt323.dll
 0004:00000fb0       __imp_?staticMetaObject@QDialog@@SAPAVQMetaObject@@XZ 00427fb0     qt-mt323:qt-mt323.dll
 0004:00000fb4       __imp_?qt_property@QDialog@@UAE_NHHPAVQVariant@@@Z 00427fb4     qt-mt323:qt-mt323.dll
 0004:00000fb8       __imp_?qt_emit@QDialog@@UAE_NHPAUQUObject@@@Z 00427fb8     qt-mt323:qt-mt323.dll
 0004:00000fbc       __imp_?qt_invoke@QDialog@@UAE_NHPAUQUObject@@@Z 00427fbc     qt-mt323:qt-mt323.dll
 0004:00000fc0       __imp_?qt_cast@QDialog@@UAEPAXPBD@Z 00427fc0     qt-mt323:qt-mt323.dll
 0004:00000fc4       __imp_?fromUtf8@QString@@SA?AV1@PBDH@Z 00427fc4     qt-mt323:qt-mt323.dll
 0004:00000fc8       __imp_?fromLatin1@QString@@SA?AV1@PBDH@Z 00427fc8     qt-mt323:qt-mt323.dll
 0004:00000fcc       __imp_?show@QMainWindow@@UAEXXZ 00427fcc     qt-mt323:qt-mt323.dll
 0004:00000fd0       __imp_?information@QMessageBox@@SAHPAVQWidget@@ABVQString@@1HHH@Z 00427fd0     qt-mt323:qt-mt323.dll
 0004:00000fd4       __imp_?exec@QApplication@@QAEHXZ 00427fd4     qt-mt323:qt-mt323.dll
 0004:00000fd8       __imp_?setMainWidget@QApplication@@UAEXPAVQWidget@@@Z 00427fd8     qt-mt323:qt-mt323.dll
 0004:00000fdc       __imp_?setProperty@QObject@@UAE_NPBDABVQVariant@@@Z 00427fdc     qt-mt323:qt-mt323.dll
 0004:00000fe0       __imp_?setName@QObject@@UAEXPBD@Z 00427fe0     qt-mt323:qt-mt323.dll
 0004:00000fe4       __imp_?removeChild@QObject@@UAEXPAV1@@Z 00427fe4     qt-mt323:qt-mt323.dll
 0004:00000fe8       __imp_?property@QObject@@UBE?AVQVariant@@PBD@Z 00427fe8     qt-mt323:qt-mt323.dll
 0004:00000fec       __imp_?insertChild@QObject@@UAEXPAV1@@Z 00427fec     qt-mt323:qt-mt323.dll
 0004:00000ff0       __imp_?eventFilter@QObject@@UAE_NPAV1@PAVQEvent@@@Z 00427ff0     qt-mt323:qt-mt323.dll
 0004:00000ff4       __imp_?event@QObject@@UAE_NPAVQEvent@@@Z 00427ff4     qt-mt323:qt-mt323.dll
 0004:00000ff8       __imp_?disconnectNotify@QObject@@MAEXPBD@Z 00427ff8     qt-mt323:qt-mt323.dll
 0004:00000ffc       __imp_?customEvent@QObject@@MAEXPAVQCustomEvent@@@Z 00427ffc     qt-mt323:qt-mt323.dll
 0004:00001000       __imp_?connectNotify@QObject@@MAEXPBD@Z 00428000     qt-mt323:qt-mt323.dll
 0004:00001004       __imp_?childEvent@QObject@@MAEXPAVQChildEvent@@@Z 00428004     qt-mt323:qt-mt323.dll
 0004:00001008       __imp_?checkConnectArgs@QObject@@MAE_NPBDPBV1@0@Z 00428008     qt-mt323:qt-mt323.dll
 0004:0000100c       __imp_?toString@QDateTime@@QBE?AVQString@@W4DateFormat@Qt@@@Z 0042800c     qt-mt323:qt-mt323.dll
 0004:00001010       __imp_?killTimer@QObject@@QAEXH@Z 00428010     qt-mt323:qt-mt323.dll
 0004:00001014       __imp_?startTimer@QObject@@QAEHH@Z 00428014     qt-mt323:qt-mt323.dll
 0004:00001018       __imp_??1QObject@@UAE@XZ   00428018     qt-mt323:qt-mt323.dll
 0004:0000101c       __imp_??0QObject@@QAE@PAV0@PBD@Z 0042801c     qt-mt323:qt-mt323.dll
 0004:00001020       __imp_??H@YA?BVQString@@PBDABV0@@Z 00428020     qt-mt323:qt-mt323.dll
 0004:00001024       __imp_??H@YA?BVQString@@ABV0@PBD@Z 00428024     qt-mt323:qt-mt323.dll
 0004:00001028       __imp_??H@YA?BVQString@@ABV0@0@Z 00428028     qt-mt323:qt-mt323.dll
 0004:0000102c       __imp_?latin1@QString@@QBEPBDXZ 0042802c     qt-mt323:qt-mt323.dll
 0004:00001030       __imp_?ascii@QString@@QBEPBDXZ 00428030     qt-mt323:qt-mt323.dll
 0004:00001034       __imp_??YQString@@QAEAAV0@PBD@Z 00428034     qt-mt323:qt-mt323.dll
 0004:00001038       __imp_??YQString@@QAEAAV0@ABV0@@Z 00428038     qt-mt323:qt-mt323.dll
 0004:0000103c       __imp_?number@QString@@SA?AV1@IH@Z 0042803c     qt-mt323:qt-mt323.dll
 0004:00001040       __imp_?number@QString@@SA?AV1@HH@Z 00428040     qt-mt323:qt-mt323.dll
 0004:00001044       __imp_?replace@QString@@QAEAAV1@VQChar@@0@Z 00428044     qt-mt323:qt-mt323.dll
 0004:00001048       __imp_?arg@QString@@QBE?AV1@IHH@Z 00428048     qt-mt323:qt-mt323.dll
 0004:0000104c       __imp_?open@QSocketDevice@@UAE_NH@Z 0042804c     qt-mt323:qt-mt323.dll
 0004:00001050       __imp_?metaObject@QSocketNotifier@@UBEPAVQMetaObject@@XZ 00428050     qt-mt323:qt-mt323.dll
 0004:00001054       __imp_?listen@QSocketDevice@@UAE_NH@Z 00428054     qt-mt323:qt-mt323.dll
 0004:00001058       __imp_?getch@QSocketDevice@@UAEHXZ 00428058     qt-mt323:qt-mt323.dll
 0004:0000105c       __imp_?raise@QWidget@@QAEXXZ 0042805c     qt-mt323:qt-mt323.dll
 0004:00001060       __imp_??0QApplication@@QAE@AAHPAPADW4Type@0@@Z 00428060     qt-mt323:qt-mt323.dll
 0004:00001064       __imp_??1QApplication@@UAE@XZ 00428064     qt-mt323:qt-mt323.dll
 0004:00001068       __imp_?commitData@QApplication@@UAEXAAVQSessionManager@@@Z 00428068     qt-mt323:qt-mt323.dll
 0004:0000106c       __imp_?event@QApplication@@MAE_NPAVQEvent@@@Z 0042806c     qt-mt323:qt-mt323.dll
 0004:00001070       __imp_?notify@QApplication@@UAE_NPAVQObject@@PAVQEvent@@@Z 00428070     qt-mt323:qt-mt323.dll
 0004:00001074       __imp_?polish@QApplication@@UAEXPAVQWidget@@@Z 00428074     qt-mt323:qt-mt323.dll
 0004:00001078       __imp_?saveState@QApplication@@UAEXAAVQSessionManager@@@Z 00428078     qt-mt323:qt-mt323.dll
 0004:0000107c       __imp_?main_widget@QApplication@@0PAVQWidget@@A 0042807c     qt-mt323:qt-mt323.dll
 0004:00001080       __imp_??1QCString@@UAE@XZ  00428080     qt-mt323:qt-mt323.dll
 0004:00001084       __imp_?local8Bit@QString@@QBE?AVQCString@@XZ 00428084     qt-mt323:qt-mt323.dll
 0004:00001088       __imp_?fromUcs2@QString@@SA?AV1@PBG@Z 00428088     qt-mt323:qt-mt323.dll
 0004:0000108c       __imp_?ucs2@QString@@QBEPBGXZ 0042808c     qt-mt323:qt-mt323.dll
 0004:00001090       __imp_?winEventFilter@QApplication@@UAE_NPAUtagMSG@@@Z 00428090     qt-mt323:qt-mt323.dll
 0004:00001094       __imp_?activate_signal@QObject@@IAEXHVQString@@@Z 00428094     qt-mt323:qt-mt323.dll
 0004:00001098       __imp_?qt_cast@QApplication@@UAEPAXPBD@Z 00428098     qt-mt323:qt-mt323.dll
 0004:0000109c       __imp_?qt_invoke@QApplication@@UAE_NHPAUQUObject@@@Z 0042809c     qt-mt323:qt-mt323.dll
 0004:000010a0       __imp_?qt_emit@QApplication@@UAE_NHPAUQUObject@@@Z 004280a0     qt-mt323:qt-mt323.dll
 0004:000010a4       __imp_?qt_property@QApplication@@UAE_NHHPAVQVariant@@@Z 004280a4     qt-mt323:qt-mt323.dll
 0004:000010a8       __imp_?staticMetaObject@QApplication@@SAPAVQMetaObject@@XZ 004280a8     qt-mt323:qt-mt323.dll
 0004:000010ac       __imp_?set@QUType_bool@@QAEXPAUQUObject@@_N@Z 004280ac     qt-mt323:qt-mt323.dll
 0004:000010b0       __imp_?static_QUType_bool@@3UQUType_bool@@A 004280b0     qt-mt323:qt-mt323.dll
 0004:000010b4       __imp_?static_QUType_QString@@3UQUType_QString@@A 004280b4     qt-mt323:qt-mt323.dll
 0004:000010b8       __imp_?arg@QString@@QBE?AV1@HHH@Z 004280b8     qt-mt323:qt-mt323.dll
 0004:000010bc       __imp_??4QString@@QAEAAV0@PBD@Z 004280bc     qt-mt323:qt-mt323.dll
 0004:000010c0       __imp_??1QString@@QAE@XZ   004280c0     qt-mt323:qt-mt323.dll
 0004:000010c4       __imp_??0QString@@QAE@PBD@Z 004280c4     qt-mt323:qt-mt323.dll
 0004:000010c8       __imp_??0QString@@QAE@ABV0@@Z 004280c8     qt-mt323:qt-mt323.dll
 0004:000010cc       __imp_??0QString@@QAE@XZ   004280cc     qt-mt323:qt-mt323.dll
 0004:000010d0       __imp_?qDebug@@YAXPBDZZ    004280d0     qt-mt323:qt-mt323.dll
 0004:000010d4       __imp_?focusOutEvent@QMenuBar@@MAEXPAVQFocusEvent@@@Z 004280d4     qt-mt323:qt-mt323.dll
 0004:000010d8       __imp_?flush@QSocketDevice@@UAEXXZ 004280d8     qt-mt323:qt-mt323.dll
 0004:000010dc       __imp_?about@QMessageBox@@SAXPAVQWidget@@ABVQString@@1@Z 004280dc     qt-mt323:qt-mt323.dll
 0004:000010e0       __imp_?deleteData@QGArray@@MAEXPAUarray_data@1@@Z 004280e0     qt-mt323:qt-mt323.dll
 0004:000010e4       __imp_?newData@QGArray@@MAEPAUarray_data@1@XZ 004280e4     qt-mt323:qt-mt323.dll
 0004:000010e8       __imp_??1QGArray@@MAE@XZ   004280e8     qt-mt323:qt-mt323.dll
 0004:000010ec       __imp_?qWinMain@@YAXPAUHINSTANCE__@@0PADHAAHAAV?$QMemArray@PAD@@@Z 004280ec     qt-mt323:qt-mt323.dll
 0004:000010f0       __imp_??0QGArray@@IAE@H@Z  004280f0     qt-mt323:qt-mt323.dll
 0004:000010f4       __imp_?duplicate@QGArray@@IAEAAV1@ABV1@@Z 004280f4     qt-mt323:qt-mt323.dll
 0004:000010f8       __imp_??_7?$QMemArray@H@@6B@ 004280f8     qt-mt323:qt-mt323.dll
 0004:000010fc       __imp_??_7?$QMemArray@_N@@6B@ 004280fc     qt-mt323:qt-mt323.dll
 0004:00001100       __imp_??_7?$QMemArray@D@@6B@ 00428100     qt-mt323:qt-mt323.dll
 0004:00001104       __imp_??_7?$QMemArray@VQPoint@@@@6B@ 00428104     qt-mt323:qt-mt323.dll
 0004:00001108       __imp_??1QGList@@MAE@XZ    00428108     qt-mt323:qt-mt323.dll
 0004:0000110c       __imp_?clear@QGList@@MAEXXZ 0042810c     qt-mt323:qt-mt323.dll
 0004:00001110       __imp_??_7?$QPtrList@D@@6B@ 00428110     qt-mt323:qt-mt323.dll
 0004:00001114       __imp_??_7?$QPtrList@VQObject@@@@6B@ 00428114     qt-mt323:qt-mt323.dll
 0004:00001118       __imp_??_7?$QPtrList@VQWidget@@@@6B@ 00428118     qt-mt323:qt-mt323.dll
 0004:0000111c       \177qt-mt323_NULL_THUNK_DATA 0042811c     qt-mt323:qt-mt323.dll
 0004:00001414       __IMPORT_DESCRIPTOR_BNCSIF32 00428414     bncsif32:BNCSIF32.dll
 0004:00001428       __IMPORT_DESCRIPTOR_WSOCK32 00428428     wsock32:WSOCK32.dll
 0004:0000143c       __IMPORT_DESCRIPTOR_qt-mt323 0042843c     qt-mt323:qt-mt323.dll
 0004:00001450       __IMPORT_DESCRIPTOR_KERNEL32 00428450     kernel32:KERNEL32.dll
 0004:00001464       __IMPORT_DESCRIPTOR_USER32 00428464     user32:USER32.dll
 0004:00001478       __IMPORT_DESCRIPTOR_GDI32  00428478     gdi32:GDI32.dll
 0004:0000148c       __IMPORT_DESCRIPTOR_MSVCR120 0042848c     MSVCRT:MSVCR120.dll
 0004:000014a0       __IMPORT_DESCRIPTOR_VERSION 004284a0     version:VERSION.dll
 0004:000014b4       __NULL_IMPORT_DESCRIPTOR   004284b4     bncsif32:BNCSIF32.dll
