 WSTracker

 Timestamp is 56ddffb8 (Mon Mar 07 22:24:56 2016)

 Preferred load address is 00400000

 Start         Length     Name                   Class
 0001:00000000 0001620cH .text                   CODE
 0001:00016210 00002888H .text$x                 CODE
 0002:00000000 00002ec6H .rdata                  DATA
 0002:00002ec8 000018b0H .xdata$x                DATA
 0002:00004778 00000000H .edata                  DATA
 0003:00000000 00000104H .CRT$XCA                DATA
 0003:00000104 00000126H .CRT$XCU                DATA
 0003:0000022c 00000104H .CRT$XCZ                DATA
 0003:00000330 00000104H .CRT$XIA                DATA
 0003:00000434 00000104H .CRT$XIZ                DATA
 0003:00000540 00002ef6H .data                   DATA
 0003:00003438 000001e8H .bss                    DATA
 0004:00000000 000000a0H .idata$2                DATA
 0004:000000a0 00000014H .idata$3                DATA
 0004:000000b4 00001448H .idata$4                DATA
 0004:000014fc 00001448H .idata$5                DATA
 0004:00002944 0000adcbH .idata$6                DATA
 0005:00000000 00000289H .rsrc$01                DATA
 0005:00000290 00004d3cH .rsrc$02                DATA

  Address         Publics by Value              Rva+Base     Lib:Object

 0001:00000ab0       ??0infodriverIf@@QAE@II@Z  00401ab0 f   infodriverIf.obj
 0001:00000c20       ?metaObject@infodriverIf@@UBEPAVQMetaObject@@XZ 00401c20 f i infodriverIf.obj
 0001:00000c40       ??_EinfodriverIf@@UAEPAXI@Z 00401c40 f i infodriverIf.obj
 0001:00000c40       ??_GinfodriverIf@@UAEPAXI@Z 00401c40 f i infodriverIf.obj
 0001:00000c70       ??1infodriverIf@@UAE@XZ    00401c70 f   infodriverIf.obj
 0001:00000d40       ?notify@infodriverIf@@EAEHPAVcXInfo@@IPBD@Z 00401d40 f   infodriverIf.obj
 0001:00000f20       ?isConnected@infodriverIf@@QAE_NXZ 00401f20 f   infodriverIf.obj
 0001:00000f40       ?getTxMode@infodriverIf@@QAEHXZ 00401f40 f   infodriverIf.obj
 0001:00000f60       ?updateWorkstation@infodriverIf@@QAEXPAVworkStation@@@Z 00401f60 f   infodriverIf.obj
 0001:00001130       ?timerEvent@infodriverIf@@EAEXPAVQTimerEvent@@@Z 00402130 f   infodriverIf.obj
 0001:00001450       ?notify@infodriverIf@@EAEJPAVcPanel@@PBD@Z 00402450 f   infodriverIf.obj
 0001:00001470       ?logChange@infodriverIf@@AAEXPAVworkStation@@@Z 00402470 f   infodriverIf.obj
 0001:00001c10       ?getName@workStation@@QAE?AVQString@@XZ 00402c10 f i infodriverIf.obj
 0001:00001c50       ??_G?$QMemArray@H@@UAEPAXI@Z 00402c50 f i infodriverIf.obj
 0001:00001c80       ??_G?$QMemArray@_N@@UAEPAXI@Z 00402c80 f i infodriverIf.obj
 0001:00001cb0       ??_G?$QMemArray@D@@UAEPAXI@Z 00402cb0 f i infodriverIf.obj
 0001:00001ce0       ??_G?$QMemArray@VQPoint@@@@UAEPAXI@Z 00402ce0 f i infodriverIf.obj
 0001:00001d10       ??_G?$QPtrList@D@@UAEPAXI@Z 00402d10 f i infodriverIf.obj
 0001:00001d40       ??_G?$QPtrList@VQObject@@@@UAEPAXI@Z 00402d40 f i infodriverIf.obj
 0001:00001d70       ??_G?$QPtrList@VQWidget@@@@UAEPAXI@Z 00402d70 f i infodriverIf.obj
 0001:00001da0       ??_EinfodriverIf@@WGI@AEPAXI@Z 00402da0 f i infodriverIf.obj
 0001:00001db0       _main                      00402db0 f   main.obj
 0001:00002060       ??_G?$QPtrList@VQDockWindow@@@@UAEPAXI@Z 00403060 f i main.obj
 0001:00002090       ?className@restartAllBase@@UBEPBDXZ 00403090 f   moc_restartall.obj
 0001:00002140       ?tr@restartAllBase@@SA?AVQString@@PBD0@Z 00403140 f   moc_restartall.obj
 0001:000021b0       ?trUtf8@restartAllBase@@SA?AVQString@@PBD0@Z 004031b0 f   moc_restartall.obj
 0001:00002220       ?staticMetaObject@restartAllBase@@SAPAVQMetaObject@@XZ 00403220 f   moc_restartall.obj
 0001:00002290       ?qt_cast@restartAllBase@@UAEPAXPBD@Z 00403290 f   moc_restartall.obj
 0001:00002320       ?qt_invoke@restartAllBase@@UAE_NHPAUQUObject@@@Z 00403320 f   moc_restartall.obj
 0001:00002370       ?qt_emit@restartAllBase@@UAE_NHPAUQUObject@@@Z 00403370 f   moc_restartall.obj
 0001:000023a0       ?qt_property@restartAllBase@@UAE_NHHPAVQVariant@@@Z 004033a0 f   moc_restartall.obj
 0001:000023d0       ?qt_static_property@restartAllBase@@SA_NPAVQObject@@HHPAVQVariant@@@Z 004033d0 f   moc_restartall.obj
 0001:000023f0       ??_G?$QPtrList@VQConnection@@@@UAEPAXI@Z 004033f0 f i moc_restartall.obj
 0001:00002420       ?className@restartAll@@UBEPBDXZ 00403420 f   moc_restartallimpl.obj
 0001:000024d0       ?tr@restartAll@@SA?AVQString@@PBD0@Z 004034d0 f   moc_restartallimpl.obj
 0001:00002540       ?trUtf8@restartAll@@SA?AVQString@@PBD0@Z 00403540 f   moc_restartallimpl.obj
 0001:000025b0       ?staticMetaObject@restartAll@@SAPAVQMetaObject@@XZ 004035b0 f   moc_restartallimpl.obj
 0001:00002620       ?qt_cast@restartAll@@UAEPAXPBD@Z 00403620 f   moc_restartallimpl.obj
 0001:000026b0       ?qt_invoke@restartAll@@UAE_NHPAUQUObject@@@Z 004036b0 f   moc_restartallimpl.obj
 0001:000026e0       ?qt_emit@restartAll@@UAE_NHPAUQUObject@@@Z 004036e0 f   moc_restartallimpl.obj
 0001:00002710       ?qt_property@restartAll@@UAE_NHHPAVQVariant@@@Z 00403710 f   moc_restartallimpl.obj
 0001:00002740       ?qt_static_property@restartAll@@SA_NPAVQObject@@HHPAVQVariant@@@Z 00403740 f   moc_restartallimpl.obj
 0001:00002760       ??0netComms@@QAE@XZ        00403760 f   netComms.obj
 0001:000027a0       ?metaObject@netComms@@UBEPAVQMetaObject@@XZ 004037a0 f i netComms.obj
 0001:000027c0       ??_EnetComms@@UAEPAXI@Z    004037c0 f i netComms.obj
 0001:000027c0       ??_GnetComms@@UAEPAXI@Z    004037c0 f i netComms.obj
 0001:000027f0       ??1netComms@@UAE@XZ        004037f0 f   netComms.obj
 0001:00002880       ?connect@netComms@@AAE_NXZ 00403880 f   netComms.obj
 0001:00002cb0       ??_EQSocketDevice@@UAEPAXI@Z 00403cb0 f i netComms.obj
 0001:00002cb0       ??_GQSocketDevice@@UAEPAXI@Z 00403cb0 f i netComms.obj
 0001:00002ce0       ??_EQSocketNotifier@@UAEPAXI@Z 00403ce0 f i netComms.obj
 0001:00002ce0       ??_GQSocketNotifier@@UAEPAXI@Z 00403ce0 f i netComms.obj
 0001:00002d10       ?rxData@netComms@@QAEXH@Z  00403d10 f   netComms.obj
 0001:00003250       ??1statusUpdate@@QAE@XZ    00404250 f i netComms.obj
 0001:00003340       ?initComms@netComms@@QAE_NH@Z 00404340 f   netComms.obj
 0001:000033d0       ?sendMessage@netComms@@QAE_NVQString@@0@Z 004043d0 f   netComms.obj
 0001:000035a0       ?timerEvent@netComms@@MAEXPAVQTimerEvent@@@Z 004045a0 f   netComms.obj
 0001:000035c0       ?checkSocketValid@netComms@@AAE_NXZ 004045c0 f   netComms.obj
 0001:00003640       ?at@?$QValueListPrivate@VQString@@@@QBEPAV?$QValueListNode@VQString@@@@I@Z 00404640 f i netComms.obj
 0001:00003690       ??0restartAllBase@@QAE@PAVQWidget@@PBD_NI@Z 00404690 f   restartall.obj
 0001:00003c60       ?metaObject@restartAllBase@@UBEPAVQMetaObject@@XZ 00404c60 f i restartall.obj
 0001:00003c80       ??_GQSpacerItem@@UAEPAXI@Z 00404c80 f i restartall.obj
 0001:00003c80       ??_EQSpacerItem@@UAEPAXI@Z 00404c80 f i restartall.obj
 0001:00003cb0       ??_ErestartAllBase@@UAEPAXI@Z 00404cb0 f i restartall.obj
 0001:00003cb0       ??_GrestartAllBase@@UAEPAXI@Z 00404cb0 f i restartall.obj
 0001:00003ce0       ??_EQVBoxLayout@@UAEPAXI@Z 00404ce0 f i restartall.obj
 0001:00003ce0       ??_GQVBoxLayout@@UAEPAXI@Z 00404ce0 f i restartall.obj
 0001:00003d10       ??_EQHBoxLayout@@UAEPAXI@Z 00404d10 f i restartall.obj
 0001:00003d10       ??_GQHBoxLayout@@UAEPAXI@Z 00404d10 f i restartall.obj
 0001:00003d40       ??_GQLabel@@UAEPAXI@Z      00404d40 f i restartall.obj
 0001:00003d40       ??_EQLabel@@UAEPAXI@Z      00404d40 f i restartall.obj
 0001:00003d70       ??_GQSpinBox@@UAEPAXI@Z    00404d70 f i restartall.obj
 0001:00003d70       ??_EQSpinBox@@UAEPAXI@Z    00404d70 f i restartall.obj
 0001:00003da0       ??_EQCheckBox@@UAEPAXI@Z   00404da0 f i restartall.obj
 0001:00003da0       ??_GQCheckBox@@UAEPAXI@Z   00404da0 f i restartall.obj
 0001:00003dd0       ??_GQPushButton@@UAEPAXI@Z 00404dd0 f i restartall.obj
 0001:00003dd0       ??_EQPushButton@@UAEPAXI@Z 00404dd0 f i restartall.obj
 0001:00003e00       ??1restartAllBase@@UAE@XZ  00404e00 f   restartall.obj
 0001:00003e30       ?languageChange@restartAllBase@@MAEXXZ 00404e30 f   restartall.obj
 0001:00004260       ??_EQPushButton@@WCI@AEPAXI@Z 00405260 f i restartall.obj
 0001:00004270       ??_EQVBoxLayout@@WCI@AEPAXI@Z 00405270 f i restartall.obj
 0001:00004280       ??_EQHBoxLayout@@WCI@AEPAXI@Z 00405280 f i restartall.obj
 0001:00004290       ??_EQLabel@@WCI@AEPAXI@Z   00405290 f i restartall.obj
 0001:000042a0       ??_EQSpinBox@@WCI@AEPAXI@Z 004052a0 f i restartall.obj
 0001:000042b0       ??_EQSpinBox@@WGM@AEPAXI@Z 004052b0 f i restartall.obj
 0001:000042c0       ??_EQCheckBox@@WCI@AEPAXI@Z 004052c0 f i restartall.obj
 0001:000042d0       ??_ErestartAllBase@@WCI@AEPAXI@Z 004052d0 f i restartall.obj
 0001:000042e0       ??0restartAll@@QAE@PAVQWidget@@PBD_NI@Z 004052e0 f   restartallimpl.obj
 0001:00004330       ?metaObject@restartAll@@UBEPAVQMetaObject@@XZ 00405330 f i restartallimpl.obj
 0001:00004350       ??_GrestartAll@@UAEPAXI@Z  00405350 f i restartallimpl.obj
 0001:00004350       ??_ErestartAll@@UAEPAXI@Z  00405350 f i restartallimpl.obj
 0001:00004380       ??1restartAll@@UAE@XZ      00405380 f   restartallimpl.obj
 0001:000043b0       ??_ErestartAll@@WCI@AEPAXI@Z 004053b0 f i restartallimpl.obj
 0001:000043c0       ??0statusUpdate@@QAE@HHW4status@workstationStatus@@VQString@@VQDateTime@@111@Z 004053c0 f   statusUpdate.obj
 0001:000045e0       ??0workStation@@QAE@HVQString@@PAVQListView@@@Z 004055e0 f   workStation.obj
 0001:00004860       ?metaObject@workStation@@UBEPAVQMetaObject@@XZ 00405860 f i workStation.obj
 0001:00004880       ?rtti@workStation@@UBEHXZ  00405880 f i workStation.obj
 0001:000048a0       ??_GworkStation@@UAEPAXI@Z 004058a0 f i workStation.obj
 0001:000048a0       ??_EworkStation@@UAEPAXI@Z 004058a0 f i workStation.obj
 0001:000048d0       ??1workStation@@UAE@XZ     004058d0 f   workStation.obj
 0001:00004a30       ?setIpAddr@workStation@@AAEXVQString@@@Z 00405a30 f   workStation.obj
 0001:00004ad0       ?setOS@workStation@@AAEXVQString@@@Z 00405ad0 f   workStation.obj
 0001:00004b70       ?setUser@workStation@@AAEXVQString@@@Z 00405b70 f   workStation.obj
 0001:00004c10       ?setWsString@workStation@@AAEXVQString@@@Z 00405c10 f   workStation.obj
 0001:00004cb0       ?setStartTime@workStation@@AAEXVQDateTime@@@Z 00405cb0 f   workStation.obj
 0001:00004dc0       ?setLastTime@workStation@@AAEXVQDateTime@@@Z 00405dc0 f   workStation.obj
 0001:00004ed0       ?compare@workStation@@UBEHPAVQListViewItem@@H_N@Z 00405ed0 f   workStation.obj
 0001:000056d0       ??9@YA_NVQChar@@0@Z        004066d0 f i workStation.obj
 0001:000056f0       ??O@YA_NVQChar@@0@Z        004066f0 f i workStation.obj
 0001:00005730       ??P@YA_NVQChar@@0@Z        00406730 f i workStation.obj
 0001:00005770       ??N@YA_NVQChar@@0@Z        00406770 f i workStation.obj
 0001:00005790       ?getStatus@workStation@@QAE?AW4status@workstationStatus@@XZ 00406790 f   workStation.obj
 0001:000057b0       ?updateStatus@workStation@@AAEXW4status@workstationStatus@@@Z 004067b0 f   workStation.obj
 0001:00005920       ?paintCell@workStation@@UAEXPAVQPainter@@ABVQColorGroup@@HHH@Z 00406920 f   workStation.obj
 0001:00005a50       ?updateStatus@workStation@@QAEXPAVstatusUpdate@@@Z 00406a50 f   workStation.obj
 0001:00005b60       ?ipAddress@statusUpdate@@QAE?BVQString@@XZ 00406b60 f i workStation.obj
 0001:00005ba0       ?workstation_Text@statusUpdate@@QAE?BVQString@@XZ 00406ba0 f i workStation.obj
 0001:00005be0       ?user@statusUpdate@@QAE?BVQString@@XZ 00406be0 f i workStation.obj
 0001:00005c20       ?operatingSystem@statusUpdate@@QAE?BVQString@@XZ 00406c20 f i workStation.obj
 0001:00005c60       ?checkComms@workStation@@QAEXXZ 00406c60 f   workStation.obj
 0001:00005c90       ?wsUnknown@workStation@@QAE_NXZ 00406c90 f   workStation.obj
 0001:00005cd0       ?getStartTime@workStation@@QAE?AVQDateTime@@XZ 00406cd0 f   workStation.obj
 0001:00005d00       ?getSummary@workStation@@QAE?AVQString@@XZ 00406d00 f   workStation.obj
 0001:00006240       ??_EworkStation@@WCM@AEPAXI@Z 00407240 f i workStation.obj
 0001:00006250       ??0WSTrackerMainWindow@@QAE@PAVQWidget@@PBDI@Z 00407250 f   wstrackermainwindow.obj
 0001:00006b90       ?metaObject@WSTrackerMainWindow@@UBEPAVQMetaObject@@XZ 00407b90 f i wstrackermainwindow.obj
 0001:00006bb0       ??_EWSTrackerMainWindow@@UAEPAXI@Z 00407bb0 f i wstrackermainwindow.obj
 0001:00006bb0       ??_GWSTrackerMainWindow@@UAEPAXI@Z 00407bb0 f i wstrackermainwindow.obj
 0001:00006be0       ??_GQMenuBar@@UAEPAXI@Z    00407be0 f i wstrackermainwindow.obj
 0001:00006be0       ??_EQMenuBar@@UAEPAXI@Z    00407be0 f i wstrackermainwindow.obj
 0001:00006c10       ??_GQPopupMenu@@UAEPAXI@Z  00407c10 f i wstrackermainwindow.obj
 0001:00006c10       ??_EQPopupMenu@@UAEPAXI@Z  00407c10 f i wstrackermainwindow.obj
 0001:00006c40       ??1WSTrackerMainWindow@@UAE@XZ 00407c40 f   wstrackermainwindow.obj
 0001:00006d70       ?loadWorkstations@WSTrackerMainWindow@@AAE_NXZ 00407d70 f   wstrackermainwindow.obj
 0001:00007600       ??_GQDomElement@@UAEPAXI@Z 00408600 f i wstrackermainwindow.obj
 0001:00007600       ??_EQDomElement@@UAEPAXI@Z 00408600 f i wstrackermainwindow.obj
 0001:00007630       ?addWorkstation@WSTrackerMainWindow@@AAEPAVworkStation@@HVQString@@@Z 00408630 f   wstrackermainwindow.obj
 0001:000078d0       ?wsClicked@WSTrackerMainWindow@@QAEXPAVQListViewItem@@@Z 004088d0 f   wstrackermainwindow.obj
 0001:00007940       ?wsStatusChange@WSTrackerMainWindow@@QAEXQAVstatusUpdate@@@Z 00408940 f   wstrackermainwindow.obj
 0001:00007af0       ?workstation_number@statusUpdate@@QAE?BHXZ 00408af0 f i wstrackermainwindow.obj
 0001:00007b10       ?loadConfigInfo@WSTrackerMainWindow@@AAE_NXZ 00408b10 f   wstrackermainwindow.obj
 0001:00008c40       ?enableButtons@WSTrackerMainWindow@@AAEXXZ 00409c40 f   wstrackermainwindow.obj
 0001:00008dc0       ?getIpAddr@workStation@@QAE?AVQString@@XZ 00409dc0 f i wstrackermainwindow.obj
 0001:00008e00       ?wsStatusChanged@WSTrackerMainWindow@@QAEXPAVworkStation@@@Z 00409e00 f   wstrackermainwindow.obj
 0001:00008e30       ?goStart@WSTrackerMainWindow@@QAEXXZ 00409e30 f   wstrackermainwindow.obj
 0001:00008e70       ?goStop@WSTrackerMainWindow@@QAEXXZ 00409e70 f   wstrackermainwindow.obj
 0001:00008eb0       ?goRestart@WSTrackerMainWindow@@QAEXXZ 00409eb0 f   wstrackermainwindow.obj
 0001:00008ef0       ?goRestartAll@WSTrackerMainWindow@@QAEXXZ 00409ef0 f   wstrackermainwindow.obj
 0001:00009840       ?sendMessage@WSTrackerMainWindow@@AAEXVQString@@PAVworkStation@@@Z 0040a840 f   wstrackermainwindow.obj
 0001:00009e60       ?timerEvent@WSTrackerMainWindow@@EAEXPAVQTimerEvent@@@Z 0040ae60 f   wstrackermainwindow.obj
 0001:00009e90       ?checkWsComms@WSTrackerMainWindow@@AAEXXZ 0040ae90 f   wstrackermainwindow.obj
 0001:00009f60       ?about@WSTrackerMainWindow@@QAEXXZ 0040af60 f   wstrackermainwindow.obj
 0001:0000a300       ?updateCounters@WSTrackerMainWindow@@AAEXXZ 0040b300 f   wstrackermainwindow.obj
 0001:0000a7e0       ?restartWorkstation@WSTrackerMainWindow@@QAEXI@Z 0040b7e0 f   wstrackermainwindow.obj
 0001:0000a940       ?connectRemote@WSTrackerMainWindow@@QAEXXZ 0040b940 f   wstrackermainwindow.obj
 0001:0000ab50       ?copyStatus@WSTrackerMainWindow@@QAEXXZ 0040bb50 f   wstrackermainwindow.obj
 0001:0000ace0       ?setWsText@WSTrackerMainWindow@@QAEXXZ 0040bce0 f   wstrackermainwindow.obj
 0001:0000b620       ??1?$QMap@HPAVworkStation@@@@QAE@XZ 0040c620 f i wstrackermainwindow.obj
 0001:0000b6c0       ?detach@?$QMap@HPAVworkStation@@@@IAEXXZ 0040c6c0 f i wstrackermainwindow.obj
 0001:0000b6e0       ?begin@?$QMapPrivate@HPAVworkStation@@@@QAE?AV?$QMapIterator@HPAVworkStation@@@@XZ 0040c6e0 f i wstrackermainwindow.obj
 0001:0000b700       ?inc@?$QMapIterator@HPAVworkStation@@@@AAEHXZ 0040c700 f i wstrackermainwindow.obj
 0001:0000b750       ?detachInternal@?$QMap@HPAVworkStation@@@@AAEXXZ 0040c750 f i wstrackermainwindow.obj
 0001:0000b910       ??0?$QMapPrivate@HPAVworkStation@@@@QAE@PBV0@@Z 0040c910 f i wstrackermainwindow.obj
 0001:0000ba50       ?clear@?$QMapPrivate@HPAVworkStation@@@@QAEXPAU?$QMapNode@HPAVworkStation@@@@@Z 0040ca50 f i wstrackermainwindow.obj
 0001:0000ba90       ?insertSingle@?$QMapPrivate@HPAVworkStation@@@@QAE?AV?$QMapIterator@HPAVworkStation@@@@ABH@Z 0040ca90 f i wstrackermainwindow.obj
 0001:0000bb80       ?copy@?$QMapPrivate@HPAVworkStation@@@@QAEPAU?$QMapNode@HPAVworkStation@@@@PAU2@@Z 0040cb80 f i wstrackermainwindow.obj
 0001:0000bc40       ?insert@?$QMapPrivate@HPAVworkStation@@@@QAE?AV?$QMapIterator@HPAVworkStation@@@@PAUQMapNodeBase@@0ABH@Z 0040cc40 f i wstrackermainwindow.obj
 0001:0000bd10       ?dec@?$QMapIterator@HPAVworkStation@@@@AAEHXZ 0040cd10 f i wstrackermainwindow.obj
 0001:0000bd80       ??_EWSTrackerMainWindow@@WCI@AEPAXI@Z 0040cd80 f i wstrackermainwindow.obj
 0001:0000bd90       ??_EQMenuBar@@WCI@AEPAXI@Z 0040cd90 f i wstrackermainwindow.obj
 0001:0000bda0       ??_EQMenuBar@@WIM@AEPAXI@Z 0040cda0 f i wstrackermainwindow.obj
 0001:0000bdb0       ??_EQPopupMenu@@WCI@AEPAXI@Z 0040cdb0 f i wstrackermainwindow.obj
 0001:0000bdc0       ??_EQPopupMenu@@WIM@AEPAXI@Z 0040cdc0 f i wstrackermainwindow.obj
 0001:0000bdd0       ?className@infodriverIf@@UBEPBDXZ 0040cdd0 f   moc_infodriverIf.obj
 0001:0000be80       ?tr@infodriverIf@@SA?AVQString@@PBD0@Z 0040ce80 f   moc_infodriverIf.obj
 0001:0000bef0       ?trUtf8@infodriverIf@@SA?AVQString@@PBD0@Z 0040cef0 f   moc_infodriverIf.obj
 0001:0000bf60       ?staticMetaObject@infodriverIf@@SAPAVQMetaObject@@XZ 0040cf60 f   moc_infodriverIf.obj
 0001:0000c020       ?qt_cast@infodriverIf@@UAEPAXPBD@Z 0040d020 f   moc_infodriverIf.obj
 0001:0000c1a0       ?restartWorkstation@infodriverIf@@IAEXI@Z 0040d1a0 f   moc_infodriverIf.obj
 0001:0000c290       ?qt_invoke@infodriverIf@@UAE_NHPAUQUObject@@@Z 0040d290 f   moc_infodriverIf.obj
 0001:0000c2c0       ?qt_emit@infodriverIf@@UAE_NHPAUQUObject@@@Z 0040d2c0 f   moc_infodriverIf.obj
 0001:0000c330       ?qt_property@infodriverIf@@UAE_NHHPAVQVariant@@@Z 0040d330 f   moc_infodriverIf.obj
 0001:0000c360       ?qt_static_property@infodriverIf@@SA_NPAVQObject@@HHPAVQVariant@@@Z 0040d360 f   moc_infodriverIf.obj
 0001:0000c380       ??0?$QPtrVector@VQConnectionList@@@@QAE@XZ 0040d380 f i moc_infodriverIf.obj
 0001:0000c3b0       ??0?$QPtrVector@VQConnectionList@@@@QAE@I@Z 0040d3b0 f i moc_infodriverIf.obj
 0001:0000c3e0       ??0?$QPtrVector@VQConnectionList@@@@QAE@ABV0@@Z 0040d3e0 f i moc_infodriverIf.obj
 0001:0000c410       ??1?$QPtrVector@VQConnectionList@@@@UAE@XZ 0040d410 f i moc_infodriverIf.obj
 0001:0000c490       ??4?$QPtrVector@VQConnectionList@@@@QAEAAV0@ABV0@@Z 0040d490 f i moc_infodriverIf.obj
 0001:0000c4b0       ??8?$QPtrVector@VQConnectionList@@@@QBE_NABV0@@Z 0040d4b0 f i moc_infodriverIf.obj
 0001:0000c4d0       ?data@?$QPtrVector@VQConnectionList@@@@QBEPAPAVQConnectionList@@XZ 0040d4d0 f i moc_infodriverIf.obj
 0001:0000c4f0       ?size@?$QPtrVector@VQConnectionList@@@@QBEIXZ 0040d4f0 f i moc_infodriverIf.obj
 0001:0000c510       ?count@?$QPtrVector@VQConnectionList@@@@UBEIXZ 0040d510 f i moc_infodriverIf.obj
 0001:0000c530       ?isEmpty@?$QPtrVector@VQConnectionList@@@@QBE_NXZ 0040d530 f i moc_infodriverIf.obj
 0001:0000c550       ?isNull@?$QPtrVector@VQConnectionList@@@@QBE_NXZ 0040d550 f i moc_infodriverIf.obj
 0001:0000c570       ?resize@?$QPtrVector@VQConnectionList@@@@QAE_NI@Z 0040d570 f i moc_infodriverIf.obj
 0001:0000c590       ?insert@?$QPtrVector@VQConnectionList@@@@QAE_NIPBVQConnectionList@@@Z 0040d590 f i moc_infodriverIf.obj
 0001:0000c5c0       ?remove@?$QPtrVector@VQConnectionList@@@@QAE_NI@Z 0040d5c0 f i moc_infodriverIf.obj
 0001:0000c5e0       ?take@?$QPtrVector@VQConnectionList@@@@QAEPAVQConnectionList@@I@Z 0040d5e0 f i moc_infodriverIf.obj
 0001:0000c600       ?clear@?$QPtrVector@VQConnectionList@@@@UAEXXZ 0040d600 f i moc_infodriverIf.obj
 0001:0000c620       ?fill@?$QPtrVector@VQConnectionList@@@@QAE_NPBVQConnectionList@@H@Z 0040d620 f i moc_infodriverIf.obj
 0001:0000c650       ?sort@?$QPtrVector@VQConnectionList@@@@QAEXXZ 0040d650 f i moc_infodriverIf.obj
 0001:0000c670       ?bsearch@?$QPtrVector@VQConnectionList@@@@QBEHPBVQConnectionList@@@Z 0040d670 f i moc_infodriverIf.obj
 0001:0000c690       ?findRef@?$QPtrVector@VQConnectionList@@@@QBEHPBVQConnectionList@@I@Z 0040d690 f i moc_infodriverIf.obj
 0001:0000c6c0       ?find@?$QPtrVector@VQConnectionList@@@@QBEHPBVQConnectionList@@I@Z 0040d6c0 f i moc_infodriverIf.obj
 0001:0000c6f0       ?containsRef@?$QPtrVector@VQConnectionList@@@@QBEIPBVQConnectionList@@@Z 0040d6f0 f i moc_infodriverIf.obj
 0001:0000c710       ?contains@?$QPtrVector@VQConnectionList@@@@QBEIPBVQConnectionList@@@Z 0040d710 f i moc_infodriverIf.obj
 0001:0000c730       ??A?$QPtrVector@VQConnectionList@@@@QBEPAVQConnectionList@@H@Z 0040d730 f i moc_infodriverIf.obj
 0001:0000c770       ?at@?$QPtrVector@VQConnectionList@@@@QBEPAVQConnectionList@@I@Z 0040d770 f i moc_infodriverIf.obj
 0001:0000c7b0       ?toList@?$QPtrVector@VQConnectionList@@@@QBEXPAVQGList@@@Z 0040d7b0 f i moc_infodriverIf.obj
 0001:0000c7d0       ??_G?$QPtrVector@H@@UAEPAXI@Z 0040d7d0 f i moc_infodriverIf.obj
 0001:0000c800       ??_G?$QPtrVector@VQWidget@@@@UAEPAXI@Z 0040d800 f i moc_infodriverIf.obj
 0001:0000c830       ??_G?$QPtrVector@VQConnectionList@@@@UAEPAXI@Z 0040d830 f i moc_infodriverIf.obj
 0001:0000c830       ??_E?$QPtrVector@VQConnectionList@@@@UAEPAXI@Z 0040d830 f i moc_infodriverIf.obj
 0001:0000c860       ??_G?$QAsciiDict@VQConnectionList@@@@UAEPAXI@Z 0040d860 f i moc_infodriverIf.obj
 0001:0000c890       ?deleteItem@?$QPtrVector@VQConnectionList@@@@EAEXPAX@Z 0040d890 f i moc_infodriverIf.obj
 0001:0000c8c0       ?className@netComms@@UBEPBDXZ 0040d8c0 f   moc_netComms.obj
 0001:0000c970       ?tr@netComms@@SA?AVQString@@PBD0@Z 0040d970 f   moc_netComms.obj
 0001:0000c9e0       ?trUtf8@netComms@@SA?AVQString@@PBD0@Z 0040d9e0 f   moc_netComms.obj
 0001:0000ca50       ?staticMetaObject@netComms@@SAPAVQMetaObject@@XZ 0040da50 f   moc_netComms.obj
 0001:0000cb40       ?qt_cast@netComms@@UAEPAXPBD@Z 0040db40 f   moc_netComms.obj
 0001:0000cbd0       ?statusChange@netComms@@IAEXQAVstatusUpdate@@@Z 0040dbd0 f   moc_netComms.obj
 0001:0000ccc0       ?qt_invoke@netComms@@UAE_NHPAUQUObject@@@Z 0040dcc0 f   moc_netComms.obj
 0001:0000cd10       ?qt_emit@netComms@@UAE_NHPAUQUObject@@@Z 0040dd10 f   moc_netComms.obj
 0001:0000cd80       ?qt_property@netComms@@UAE_NHHPAVQVariant@@@Z 0040dd80 f   moc_netComms.obj
 0001:0000cdb0       ?qt_static_property@netComms@@SA_NPAVQObject@@HHPAVQVariant@@@Z 0040ddb0 f   moc_netComms.obj
 0001:0000cdd0       ?className@workStation@@UBEPBDXZ 0040ddd0 f   moc_workStation.obj
 0001:0000ce80       ?tr@workStation@@SA?AVQString@@PBD0@Z 0040de80 f   moc_workStation.obj
 0001:0000cef0       ?trUtf8@workStation@@SA?AVQString@@PBD0@Z 0040def0 f   moc_workStation.obj
 0001:0000cf60       ?staticMetaObject@workStation@@SAPAVQMetaObject@@XZ 0040df60 f   moc_workStation.obj
 0001:0000d020       ?qt_cast@workStation@@UAEPAXPBD@Z 0040e020 f   moc_workStation.obj
 0001:0000d140       ?wsStatusChanged@workStation@@IAEXPAV1@@Z 0040e140 f   moc_workStation.obj
 0001:0000d230       ?qt_invoke@workStation@@UAE_NHPAUQUObject@@@Z 0040e230 f   moc_workStation.obj
 0001:0000d260       ?qt_emit@workStation@@UAE_NHPAUQUObject@@@Z 0040e260 f   moc_workStation.obj
 0001:0000d2b0       ?qt_property@workStation@@UAE_NHHPAVQVariant@@@Z 0040e2b0 f   moc_workStation.obj
 0001:0000d2e0       ?qt_static_property@workStation@@SA_NPAVQObject@@HHPAVQVariant@@@Z 0040e2e0 f   moc_workStation.obj
 0001:0000d300       ?className@WSTrackerMainWindow@@UBEPBDXZ 0040e300 f   moc_wstrackermainwindow.obj
 0001:0000d3b0       ?tr@WSTrackerMainWindow@@SA?AVQString@@PBD0@Z 0040e3b0 f   moc_wstrackermainwindow.obj
 0001:0000d420       ?trUtf8@WSTrackerMainWindow@@SA?AVQString@@PBD0@Z 0040e420 f   moc_wstrackermainwindow.obj
 0001:0000d490       ?staticMetaObject@WSTrackerMainWindow@@SAPAVQMetaObject@@XZ 0040e490 f   moc_wstrackermainwindow.obj
 0001:0000d5d0       ?qt_cast@WSTrackerMainWindow@@UAEPAXPBD@Z 0040e5d0 f   moc_wstrackermainwindow.obj
 0001:0000d660       ?qt_invoke@WSTrackerMainWindow@@UAE_NHPAUQUObject@@@Z 0040e660 f   moc_wstrackermainwindow.obj
 0001:0000d7f0       ?qt_emit@WSTrackerMainWindow@@UAE_NHPAUQUObject@@@Z 0040e7f0 f   moc_wstrackermainwindow.obj
 0001:0000d820       ?qt_property@WSTrackerMainWindow@@UAE_NHHPAVQVariant@@@Z 0040e820 f   moc_wstrackermainwindow.obj
 0001:0000d850       ?qt_static_property@WSTrackerMainWindow@@SA_NPAVQObject@@HHPAVQVariant@@@Z 0040e850 f   moc_wstrackermainwindow.obj
 0001:0000d870       ?className@WSTrackerMainWindowBase@@UBEPBDXZ 0040e870 f   moc_wstrackermainwindowbase.obj
 0001:0000d920       ?tr@WSTrackerMainWindowBase@@SA?AVQString@@PBD0@Z 0040e920 f   moc_wstrackermainwindowbase.obj
 0001:0000d990       ?trUtf8@WSTrackerMainWindowBase@@SA?AVQString@@PBD0@Z 0040e990 f   moc_wstrackermainwindowbase.obj
 0001:0000da00       ?staticMetaObject@WSTrackerMainWindowBase@@SAPAVQMetaObject@@XZ 0040ea00 f   moc_wstrackermainwindowbase.obj
 0001:0000da70       ?qt_cast@WSTrackerMainWindowBase@@UAEPAXPBD@Z 0040ea70 f   moc_wstrackermainwindowbase.obj
 0001:0000db00       ?qt_invoke@WSTrackerMainWindowBase@@UAE_NHPAUQUObject@@@Z 0040eb00 f   moc_wstrackermainwindowbase.obj
 0001:0000db50       ?qt_emit@WSTrackerMainWindowBase@@UAE_NHPAUQUObject@@@Z 0040eb50 f   moc_wstrackermainwindowbase.obj
 0001:0000db80       ?qt_property@WSTrackerMainWindowBase@@UAE_NHHPAVQVariant@@@Z 0040eb80 f   moc_wstrackermainwindowbase.obj
 0001:0000dbb0       ?qt_static_property@WSTrackerMainWindowBase@@SA_NPAVQObject@@HHPAVQVariant@@@Z 0040ebb0 f   moc_wstrackermainwindowbase.obj
 0001:0000dbd0       ??0WSTrackerMainWindowBase@@QAE@PAVQWidget@@PBDI@Z 0040ebd0 f   wstrackermainwindowbase.obj
 0001:0000ed40       ?metaObject@WSTrackerMainWindowBase@@UBEPAVQMetaObject@@XZ 0040fd40 f i wstrackermainwindowbase.obj
 0001:0000ed60       ??_GWSTrackerMainWindowBase@@UAEPAXI@Z 0040fd60 f i wstrackermainwindowbase.obj
 0001:0000ed60       ??_EWSTrackerMainWindowBase@@UAEPAXI@Z 0040fd60 f i wstrackermainwindowbase.obj
 0001:0000ed90       ??_EQWidget@@UAEPAXI@Z     0040fd90 f i wstrackermainwindowbase.obj
 0001:0000ed90       ??_GQWidget@@UAEPAXI@Z     0040fd90 f i wstrackermainwindowbase.obj
 0001:0000edc0       ??_EQGroupBox@@UAEPAXI@Z   0040fdc0 f i wstrackermainwindowbase.obj
 0001:0000edc0       ??_GQGroupBox@@UAEPAXI@Z   0040fdc0 f i wstrackermainwindowbase.obj
 0001:0000edf0       ??_GQListView@@UAEPAXI@Z   0040fdf0 f i wstrackermainwindowbase.obj
 0001:0000edf0       ??_EQListView@@UAEPAXI@Z   0040fdf0 f i wstrackermainwindowbase.obj
 0001:0000ee20       ??_GQLineEdit@@UAEPAXI@Z   0040fe20 f i wstrackermainwindowbase.obj
 0001:0000ee20       ??_EQLineEdit@@UAEPAXI@Z   0040fe20 f i wstrackermainwindowbase.obj
 0001:0000ee50       ??1WSTrackerMainWindowBase@@UAE@XZ 0040fe50 f   wstrackermainwindowbase.obj
 0001:0000ee80       ?languageChange@WSTrackerMainWindowBase@@MAEXXZ 0040fe80 f   wstrackermainwindowbase.obj
 0001:0000f940       ??_EQWidget@@WCI@AEPAXI@Z  00410940 f i wstrackermainwindowbase.obj
 0001:0000f950       ??_EQGroupBox@@WCI@AEPAXI@Z 00410950 f i wstrackermainwindowbase.obj
 0001:0000f960       ??_EQListView@@WCI@AEPAXI@Z 00410960 f i wstrackermainwindowbase.obj
 0001:0000f970       ??_EQLineEdit@@WCI@AEPAXI@Z 00410970 f i wstrackermainwindowbase.obj
 0001:0000f980       ??_EWSTrackerMainWindowBase@@WCI@AEPAXI@Z 00410980 f i wstrackermainwindowbase.obj
 0001:0000f990       ??0cPanel@@QAE@XZ          00410990 f   panel:panelif.obj
 0001:0000f9f0       ??_GcPanel@@UAEPAXI@Z      004109f0 f i panel:panelif.obj
 0001:0000f9f0       ??_EcPanel@@UAEPAXI@Z      004109f0 f i panel:panelif.obj
 0001:0000fa10       ?connect@cPanel@@QAEIPBD@Z 00410a10 f   panel:panelif.obj
 0001:0000fb50       ??1cPanel@@UAE@XZ          00410b50 f   panel:panelif.obj
 0001:0000fba0       ?showError@cPanel@@AAEXKQBD@Z 00410ba0 f   panel:panelif.obj
 0001:0000fc20       ?getstate@cPanel@@QAEIXZ   00410c20 f   panel:panelif.obj
 0001:0000fc30       ?setstate@cPanel@@QAEII@Z  00410c30 f   panel:panelif.obj
 0001:0000fc40       ?incrx@cPanel@@AAEXXZ      00410c40 f   panel:panelif.obj
 0001:0000fc50       ?setcounters@cPanel@@QAEXPAK0@Z 00410c50 f   panel:panelif.obj
 0001:0000fc70       ?tokenize@cPanel@@AAEIXZ   00410c70 f   panel:panelif.obj
 0001:0000fd50       ?setcachestate@cPanel@@QAEXI@Z 00410d50 f   panel:panelif.obj
 0001:0000fd70       ?getcachestate@cPanel@@QAEIXZ 00410d70 f   panel:panelif.obj
 0001:0000fd90       ?cachetest@cPanel@@QAEHIII@Z 00410d90 f   panel:panelif.obj
 0001:0000fdd0       ?cacheflush@cPanel@@QAEXI@Z 00410dd0 f   panel:panelif.obj
 0001:0000fdf0       ?getdbname@cPanel@@QAEXGGGPADH@Z 00410df0 f   panel:panelif.obj
 0001:0000fe30       ?getdbindex@cPanel@@QAEHGGPBD@Z 00410e30 f   panel:panelif.obj
 0001:0000fe80       ?setdbname@cPanel@@QAEXGGGPBDH@Z 00410e80 f   panel:panelif.obj
 0001:0000ff20       ?regtallyrange@cPanel@@QAEJIIIH@Z 00410f20 f   panel:panelif.obj
 0001:0000ff80       ?unregtallyrange@cPanel@@QAEJIII@Z 00410f80 f   panel:panelif.obj
 0001:00010010       ?txrtrcmd@cPanel@@QAEJPBDH@Z 00411010 f   panel:panelif.obj
 0001:000100f0       ?txinfocmd@cPanel@@QAEJPBDH@Z 004110f0 f   panel:panelif.obj
 0001:000101b0       ?txgpicmd@cPanel@@QAEJPBDH@Z 004111b0 f   panel:panelif.obj
 0001:00010260       ?getparamcount@cPanel@@QAEIXZ 00411260 f   panel:panelif.obj
 0001:00010270       ?getparam@cPanel@@QAEPADI@Z 00411270 f   panel:panelif.obj
 0001:00010280       ?ClientWndProcInt@cPanel@@EAGJPAUHWND__@@IIJ@Z 00411280 f   panel:panelif.obj
 0001:000106d0       ?ClientWndProc@cPanel@@CGJPAUHWND__@@IIJ@Z 004116d0 f   panel:panelif.obj
 0001:00010730       ?getcachedata@cPanel@@QAEHIIPADI@Z 00411730 f   panel:panelif.obj
 0001:000107a0       ?getcacheindex@cPanel@@QAEHIIIPBD@Z 004117a0 f   panel:panelif.obj
 0001:00010810       ?txnetcmd@cPanel@@QAEJPBD@Z 00411810 f   panel:panelif.obj
 0001:00010880       _BNCS32TxMessage           00411880 f   bncsif32:BNCSIF32.dll
 0001:00010886       _BNCS32RxMessage           00411886 f   bncsif32:BNCSIF32.dll
 0001:00010890       ??0cXInfo@@QAE@I@Z         00411890 f   cxinfo:CXINFO.OBJ
 0001:000108f0       ?connect@cXInfo@@QAEHIIIII@Z 004118f0 f   cxinfo:CXINFO.OBJ
 0001:00010a00       ??1cXInfo@@QAE@XZ          00411a00 f   cxinfo:CXINFO.OBJ
 0001:00010a40       ?incrx@cXInfo@@QAEXXZ      00411a40 f   cxinfo:CXINFO.OBJ
 0001:00010a50       ?setcounters@cXInfo@@QAEXPAK0@Z 00411a50 f   cxinfo:CXINFO.OBJ
 0001:00010a70       ?updateslot@cXInfo@@QAA_NHPBDZZ 00411a70 f   cxinfo:CXINFO.OBJ
 0001:00010b30       ?setslot@cXInfo@@QAAXHPBDZZ 00411b30 f   cxinfo:CXINFO.OBJ
 0001:00010bb0       ?getslot@cXInfo@@QAEXHPAD@Z 00411bb0 f   cxinfo:CXINFO.OBJ
 0001:00010be0       ?sendslots@cXInfo@@QAEXHH@Z 00411be0 f   cxinfo:CXINFO.OBJ
 0001:00010c20       ?getmode@cXInfo@@QAEHXZ    00411c20 f   cxinfo:CXINFO.OBJ
 0001:00010c40       ?setmode@cXInfo@@QAEHH@Z   00411c40 f   cxinfo:CXINFO.OBJ
 0001:00010c60       ?InfoWndProc@cXInfo@@CGJPAUHWND__@@IIJ@Z 00411c60 f   cxinfo:CXINFO.OBJ
 0001:00010eb0       ?getdbname@cXInfo@@QAEXGGGPADH@Z 00411eb0 f   cxinfo:CXINFO.OBJ
 0001:00010ef0       ?getdbindex@cXInfo@@QAEHGGPBD@Z 00411ef0 f   cxinfo:CXINFO.OBJ
 0001:00010f50       ?setdbname@cXInfo@@QAEXGGGPBDH@Z 00411f50 f   cxinfo:CXINFO.OBJ
 0001:00010ff0       ??0bncs_disklog@@QAE@PBDW4filetype@0@000000@Z 00411ff0 f   bncs_disklog:bncs_disklog.obj
 0001:00011040       ??_Ebncs_disklog@@UAEPAXI@Z 00412040 f i bncs_disklog:bncs_disklog.obj
 0001:00011040       ??_Gbncs_disklog@@UAEPAXI@Z 00412040 f i bncs_disklog:bncs_disklog.obj
 0001:00011060       ??0bncs_disklog@@QAE@PBDW4filetype@0@@Z 00412060 f   bncs_disklog:bncs_disklog.obj
 0001:00011090       ?initVars@bncs_disklog@@AAEXXZ 00412090 f   bncs_disklog:bncs_disklog.obj
 0001:000110a0       ?openLogFile@bncs_disklog@@AAEXPBDW4filetype@1@@Z 004120a0 f   bncs_disklog:bncs_disklog.obj
 0001:000112b0       ?cleanup@bncs_disklog@@AAEXXZ 004122b0 f   bncs_disklog:bncs_disklog.obj
 0001:000112d0       ??1bncs_disklog@@UAE@XZ    004122d0 f   bncs_disklog:bncs_disklog.obj
 0001:000112e0       ?ref@bncs_disklog@@QAEPBDXZ 004122e0 f   bncs_disklog:bncs_disklog.obj
 0001:000112f0       ?write@bncs_disklog@@QAEXPBD00000@Z 004122f0 f   bncs_disklog:bncs_disklog.obj
 0001:00011520       ?createDirectory@bncs_disklog@@AAEXPBD@Z 00412520 f   bncs_disklog:bncs_disklog.obj
 0001:00011640       ?clear@bncs_disklog@@QAEXXZ 00412640 f   bncs_disklog:bncs_disklog.obj
 0001:00011670       ??0cBncsVersion@@QAE@PBD@Z 00412670 f   BncsVersionInfo:cBncsVersion.obj
 0001:00011b80       ??_EcBncsVersion@@UAEPAXI@Z 00412b80 f i BncsVersionInfo:cBncsVersion.obj
 0001:00011b80       ??_GcBncsVersion@@UAEPAXI@Z 00412b80 f i BncsVersionInfo:cBncsVersion.obj
 0001:00011ba0       ??1cBncsVersion@@UAE@XZ    00412ba0 f   BncsVersionInfo:cBncsVersion.obj
 0001:00011c80       _GetPrivateProfileStringA@24 00412c80 f   kernel32:KERNEL32.dll
 0001:00011c86       _WritePrivateProfileStringA@16 00412c86 f   kernel32:KERNEL32.dll
 0001:00011c8c       _GetPrivateProfileIntA@16  00412c8c f   kernel32:KERNEL32.dll
 0001:00011c92       _GetLastError@0            00412c92 f   kernel32:KERNEL32.dll
 0001:00011c98       _lstrcpynA@12              00412c98 f   kernel32:KERNEL32.dll
 0001:00011c9e       _LocalFree@4               00412c9e f   kernel32:KERNEL32.dll
 0001:00011ca4       _OutputDebugStringA@4      00412ca4 f   kernel32:KERNEL32.dll
 0001:00011caa       _FormatMessageA@28         00412caa f   kernel32:KERNEL32.dll
 0001:00011cb0       _lstrlenA@4                00412cb0 f   kernel32:KERNEL32.dll
 0001:00011cb6       _lstrcatA@8                00412cb6 f   kernel32:KERNEL32.dll
 0001:00011cbc       _lstrcpyA@8                00412cbc f   kernel32:KERNEL32.dll
 0001:00011cc2       _lstrcmpA@8                00412cc2 f   kernel32:KERNEL32.dll
 0001:00011cc8       _SetFilePointer@16         00412cc8 f   kernel32:KERNEL32.dll
 0001:00011cce       _CreateFileA@28            00412cce f   kernel32:KERNEL32.dll
 0001:00011cd4       _CloseHandle@4             00412cd4 f   kernel32:KERNEL32.dll
 0001:00011cda       _WriteFile@20              00412cda f   kernel32:KERNEL32.dll
 0001:00011ce0       _SetEndOfFile@4            00412ce0 f   kernel32:KERNEL32.dll
 0001:00011ce6       _CreateWindowExA@48        00412ce6 f   user32:USER32.dll
 0001:00011cec       _RegisterClassA@4          00412cec f   user32:USER32.dll
 0001:00011cf2       _DestroyWindow@4           00412cf2 f   user32:USER32.dll
 0001:00011cf8       _IsWindow@4                00412cf8 f   user32:USER32.dll
 0001:00011cfe       _SendMessageA@16           00412cfe f   user32:USER32.dll
 0001:00011d04       _wsprintfA                 00412d04 f   user32:USER32.dll
 0001:00011d0a       _DefWindowProcA@16         00412d0a f   user32:USER32.dll
 0001:00011d10       _PostMessageA@16           00412d10 f   user32:USER32.dll
 0001:00011d16       _FindWindowA@8             00412d16 f   user32:USER32.dll
 0001:00011d1c       _SetWindowLongA@12         00412d1c f   user32:USER32.dll
 0001:00011d22       _GetWindowLongA@8          00412d22 f   user32:USER32.dll
 0001:00011d28       _MessageBoxA@16            00412d28 f   user32:USER32.dll
 0001:00011d2e       _UnregisterClassA@8        00412d2e f   user32:USER32.dll
 0001:00011d34       _GetStockObject@4          00412d34 f   gdi32:GDI32.dll
 0001:00011d3a       _setsockopt@20             00412d3a f   wsock32:WSOCK32.dll
 0001:00011d40       ?checkConnectArgs@QObject@@MAE_NPBDPBV1@0@Z 00412d40 f   qt-mt323:qt-mt323.dll
 0001:00011d46       ?disconnectNotify@QObject@@MAEXPBD@Z 00412d46 f   qt-mt323:qt-mt323.dll
 0001:00011d4c       ?connectNotify@QObject@@MAEXPBD@Z 00412d4c f   qt-mt323:qt-mt323.dll
 0001:00011d52       ?customEvent@QObject@@MAEXPAVQCustomEvent@@@Z 00412d52 f   qt-mt323:qt-mt323.dll
 0001:00011d58       ?childEvent@QObject@@MAEXPAVQChildEvent@@@Z 00412d58 f   qt-mt323:qt-mt323.dll
 0001:00011d5e       ?property@QObject@@UBE?AVQVariant@@PBD@Z 00412d5e f   qt-mt323:qt-mt323.dll
 0001:00011d64       ?setProperty@QObject@@UAE_NPBDABVQVariant@@@Z 00412d64 f   qt-mt323:qt-mt323.dll
 0001:00011d6a       ?removeChild@QObject@@UAEXPAV1@@Z 00412d6a f   qt-mt323:qt-mt323.dll
 0001:00011d70       ?insertChild@QObject@@UAEXPAV1@@Z 00412d70 f   qt-mt323:qt-mt323.dll
 0001:00011d76       ?setName@QObject@@UAEXPBD@Z 00412d76 f   qt-mt323:qt-mt323.dll
 0001:00011d7c       ?eventFilter@QObject@@UAE_NPAV1@PAVQEvent@@@Z 00412d7c f   qt-mt323:qt-mt323.dll
 0001:00011d82       ?event@QObject@@UAE_NPAVQEvent@@@Z 00412d82 f   qt-mt323:qt-mt323.dll
 0001:00011d88       ??1QObject@@UAE@XZ         00412d88 f   qt-mt323:qt-mt323.dll
 0001:00011d8e       ?startTimer@QObject@@QAEHH@Z 00412d8e f   qt-mt323:qt-mt323.dll
 0001:00011d94       ??0QObject@@QAE@PAV0@PBD@Z 00412d94 f   qt-mt323:qt-mt323.dll
 0001:00011d9a       ?killTimer@QObject@@QAEXH@Z 00412d9a f   qt-mt323:qt-mt323.dll
 0001:00011da0       ??1QString@@QAE@XZ         00412da0 f   qt-mt323:qt-mt323.dll
 0001:00011da6       ?deleteSelf@QStringData@@QAEXXZ 00412da6 f   qt-mt323:qt-mt323.dll
 0001:00011dac       ?latin1@QString@@QBEPBDXZ  00412dac f   qt-mt323:qt-mt323.dll
 0001:00011db2       ?replace@QString@@QAEAAV1@VQChar@@0@Z 00412db2 f   qt-mt323:qt-mt323.dll
 0001:00011db8       ??0QChar@@QAE@D@Z          00412db8 f   qt-mt323:qt-mt323.dll
 0001:00011dbe       ?ascii@QString@@QBEPBDXZ   00412dbe f   qt-mt323:qt-mt323.dll
 0001:00011dc4       ?toString@QDateTime@@QBE?AVQString@@W4DateFormat@Qt@@@Z 00412dc4 f   qt-mt323:qt-mt323.dll
 0001:00011dca       ?arg@QString@@QBE?AV1@IHH@Z 00412dca f   qt-mt323:qt-mt323.dll
 0001:00011dd0       ?qDebug@@YAXPBDZZ          00412dd0 f   qt-mt323:qt-mt323.dll
 0001:00011dd6       ?arg@QString@@QBE?AV1@HHH@Z 00412dd6 f   qt-mt323:qt-mt323.dll
 0001:00011ddc       ??0QString@@QAE@PBD@Z      00412ddc f   qt-mt323:qt-mt323.dll
 0001:00011de2       ??H@YA?BVQString@@PBDABV0@@Z 00412de2 f   qt-mt323:qt-mt323.dll
 0001:00011de8       ??YQString@@QAEAAV0@PBD@Z  00412de8 f   qt-mt323:qt-mt323.dll
 0001:00011dee       ??YQString@@QAEAAV0@ABV0@@Z 00412dee f   qt-mt323:qt-mt323.dll
 0001:00011df4       ??H@YA?BVQString@@ABV0@0@Z 00412df4 f   qt-mt323:qt-mt323.dll
 0001:00011dfa       ??H@YA?BVQString@@ABV0@PBD@Z 00412dfa f   qt-mt323:qt-mt323.dll
 0001:00011e00       ?number@QString@@SA?AV1@IH@Z 00412e00 f   qt-mt323:qt-mt323.dll
 0001:00011e06       ?number@QString@@SA?AV1@HH@Z 00412e06 f   qt-mt323:qt-mt323.dll
 0001:00011e0c       ??4QString@@QAEAAV0@PBD@Z  00412e0c f   qt-mt323:qt-mt323.dll
 0001:00011e12       ?makeSharedNull@QString@@CAPAUQStringData@@XZ 00412e12 f   qt-mt323:qt-mt323.dll
 0001:00011e18       ??0QString@@QAE@ABV0@@Z    00412e18 f   qt-mt323:qt-mt323.dll
 0001:00011e1e       ??1?$QMemArray@H@@UAE@XZ   00412e1e f   qt-mt323:qt-mt323.dll
 0001:00011e24       ??1?$QMemArray@_N@@UAE@XZ  00412e24 f   qt-mt323:qt-mt323.dll
 0001:00011e2a       ??1?$QMemArray@D@@UAE@XZ   00412e2a f   qt-mt323:qt-mt323.dll
 0001:00011e30       ??1?$QMemArray@VQPoint@@@@UAE@XZ 00412e30 f   qt-mt323:qt-mt323.dll
 0001:00011e36       ??1?$QPtrList@D@@UAE@XZ    00412e36 f   qt-mt323:qt-mt323.dll
 0001:00011e3c       ??1?$QPtrList@VQObject@@@@UAE@XZ 00412e3c f   qt-mt323:qt-mt323.dll
 0001:00011e42       ??1?$QPtrList@VQWidget@@@@UAE@XZ 00412e42 f   qt-mt323:qt-mt323.dll
 0001:00011e48       ?exec@QApplication@@QAEHXZ 00412e48 f   qt-mt323:qt-mt323.dll
 0001:00011e4e       ?show@QMainWindow@@UAEXXZ  00412e4e f   qt-mt323:qt-mt323.dll
 0001:00011e54       ?setMainWidget@QApplication@@UAEXPAVQWidget@@@Z 00412e54 f   qt-mt323:qt-mt323.dll
 0001:00011e5a       ?information@QMessageBox@@SAHPAVQWidget@@ABVQString@@1HHH@Z 00412e5a f   qt-mt323:qt-mt323.dll
 0001:00011e60       ??1?$QPtrList@VQDockWindow@@@@UAE@XZ 00412e60 f   qt-mt323:qt-mt323.dll
 0001:00011e66       ??0QMetaObjectCleanUp@@QAE@PBDP6APAVQMetaObject@@XZ@Z 00412e66 f   qt-mt323:qt-mt323.dll
 0001:00011e6c       ??1QMetaObjectCleanUp@@QAE@XZ 00412e6c f   qt-mt323:qt-mt323.dll
 0001:00011e72       ?fromLatin1@QString@@SA?AV1@PBDH@Z 00412e72 f   qt-mt323:qt-mt323.dll
 0001:00011e78       ?translate@QApplication@@QBE?AVQString@@PBD00W4Encoding@1@@Z 00412e78 f   qt-mt323:qt-mt323.dll
 0001:00011e7e       ?fromUtf8@QString@@SA?AV1@PBDH@Z 00412e7e f   qt-mt323:qt-mt323.dll
 0001:00011e84       ?setMetaObject@QMetaObjectCleanUp@@QAEXAAPAVQMetaObject@@@Z 00412e84 f   qt-mt323:qt-mt323.dll
 0001:00011e8a       ?new_metaobject@QMetaObject@@SAPAV1@PBDPAV1@QBUQMetaData@@H2HQBVQMetaProperty@@HQBUQMetaEnum@@HQBUQClassInfo@@H@Z 00412e8a f   qt-mt323:qt-mt323.dll
 0001:00011e90       ?staticMetaObject@QDialog@@SAPAVQMetaObject@@XZ 00412e90 f   qt-mt323:qt-mt323.dll
 0001:00011e96       ?qt_cast@QDialog@@UAEPAXPBD@Z 00412e96 f   qt-mt323:qt-mt323.dll
 0001:00011e9c       ?qt_invoke@QDialog@@UAE_NHPAUQUObject@@@Z 00412e9c f   qt-mt323:qt-mt323.dll
 0001:00011ea2       ?qt_emit@QDialog@@UAE_NHPAUQUObject@@@Z 00412ea2 f   qt-mt323:qt-mt323.dll
 0001:00011ea8       ?qt_property@QDialog@@UAE_NHHPAVQVariant@@@Z 00412ea8 f   qt-mt323:qt-mt323.dll
 0001:00011eae       ??1?$QPtrList@VQConnection@@@@UAE@XZ 00412eae f   qt-mt323:qt-mt323.dll
 0001:00011eb4       ?setEnabled@QSocketNotifier@@UAEX_N@Z 00412eb4 f   qt-mt323:qt-mt323.dll
 0001:00011eba       ?timerEvent@QObject@@MAEXPAVQTimerEvent@@@Z 00412eba f   qt-mt323:qt-mt323.dll
 0001:00011ec0       ?event@QSocketNotifier@@MAE_NPAVQEvent@@@Z 00412ec0 f   qt-mt323:qt-mt323.dll
 0001:00011ec6       ?qt_property@QSocketNotifier@@UAE_NHHPAVQVariant@@@Z 00412ec6 f   qt-mt323:qt-mt323.dll
 0001:00011ecc       ?qt_emit@QSocketNotifier@@UAE_NHPAUQUObject@@@Z 00412ecc f   qt-mt323:qt-mt323.dll
 0001:00011ed2       ?qt_invoke@QSocketNotifier@@UAE_NHPAUQUObject@@@Z 00412ed2 f   qt-mt323:qt-mt323.dll
 0001:00011ed8       ?qt_cast@QSocketNotifier@@UAEPAXPBD@Z 00412ed8 f   qt-mt323:qt-mt323.dll
 0001:00011ede       ?className@QSocketNotifier@@UBEPBDXZ 00412ede f   qt-mt323:qt-mt323.dll
 0001:00011ee4       ?metaObject@QSocketNotifier@@UBEPAVQMetaObject@@XZ 00412ee4 f   qt-mt323:qt-mt323.dll
 0001:00011eea       ?setOption@QSocketDevice@@EAEXW4Option@1@H@Z 00412eea f   qt-mt323:qt-mt323.dll
 0001:00011ef0       ?writeBlock@QSocketDevice@@UAEJPBDKABVQHostAddress@@G@Z 00412ef0 f   qt-mt323:qt-mt323.dll
 0001:00011ef6       ?accept@QSocketDevice@@UAEHXZ 00412ef6 f   qt-mt323:qt-mt323.dll
 0001:00011efc       ?listen@QSocketDevice@@UAE_NH@Z 00412efc f   qt-mt323:qt-mt323.dll
 0001:00011f02       ?bind@QSocketDevice@@UAE_NABVQHostAddress@@G@Z 00412f02 f   qt-mt323:qt-mt323.dll
 0001:00011f08       ?connect@QSocketDevice@@UAE_NABVQHostAddress@@G@Z 00412f08 f   qt-mt323:qt-mt323.dll
 0001:00011f0e       ?setSendBufferSize@QSocketDevice@@UAEXI@Z 00412f0e f   qt-mt323:qt-mt323.dll
 0001:00011f14       ?setReceiveBufferSize@QSocketDevice@@UAEXI@Z 00412f14 f   qt-mt323:qt-mt323.dll
 0001:00011f1a       ?setAddressReusable@QSocketDevice@@UAEX_N@Z 00412f1a f   qt-mt323:qt-mt323.dll
 0001:00011f20       ?setBlocking@QSocketDevice@@UAEX_N@Z 00412f20 f   qt-mt323:qt-mt323.dll
 0001:00011f26       ?setSocket@QSocketDevice@@UAEXHW4Type@1@@Z 00412f26 f   qt-mt323:qt-mt323.dll
 0001:00011f2c       ?ungetch@QSocketDevice@@UAEHH@Z 00412f2c f   qt-mt323:qt-mt323.dll
 0001:00011f32       ?putch@QSocketDevice@@UAEHH@Z 00412f32 f   qt-mt323:qt-mt323.dll
 0001:00011f38       ?getch@QSocketDevice@@UAEHXZ 00412f38 f   qt-mt323:qt-mt323.dll
 0001:00011f3e       ?readAll@QIODevice@@UAE?AV?$QMemArray@D@@XZ 00412f3e f   qt-mt323:qt-mt323.dll
 0001:00011f44       ?readLine@QIODevice@@UAEJPADK@Z 00412f44 f   qt-mt323:qt-mt323.dll
 0001:00011f4a       ?writeBlock@QSocketDevice@@UAEJPBDK@Z 00412f4a f   qt-mt323:qt-mt323.dll
 0001:00011f50       ?readBlock@QSocketDevice@@UAEJPADK@Z 00412f50 f   qt-mt323:qt-mt323.dll
 0001:00011f56       ?atEnd@QSocketDevice@@UBE_NXZ 00412f56 f   qt-mt323:qt-mt323.dll
 0001:00011f5c       ?at@QSocketDevice@@UBEKXZ  00412f5c f   qt-mt323:qt-mt323.dll
 0001:00011f62       ?at@QSocketDevice@@UAE_NK@Z 00412f62 f   qt-mt323:qt-mt323.dll
 0001:00011f68       ?size@QSocketDevice@@UBEKXZ 00412f68 f   qt-mt323:qt-mt323.dll
 0001:00011f6e       ?flush@QSocketDevice@@UAEXXZ 00412f6e f   qt-mt323:qt-mt323.dll
 0001:00011f74       ?close@QSocketDevice@@UAEXXZ 00412f74 f   qt-mt323:qt-mt323.dll
 0001:00011f7a       ?open@QSocketDevice@@UAE_NH@Z 00412f7a f   qt-mt323:qt-mt323.dll
 0001:00011f80       ?connect@QObject@@SA_NPBV1@PBD01@Z 00412f80 f   qt-mt323:qt-mt323.dll
 0001:00011f86       ??0QSocketNotifier@@QAE@HW4Type@0@PAVQObject@@PBD@Z 00412f86 f   qt-mt323:qt-mt323.dll
 0001:00011f8c       ?socket@QSocketDevice@@QBEHXZ 00412f8c f   qt-mt323:qt-mt323.dll
 0001:00011f92       ??1QHostAddress@@UAE@XZ    00412f92 f   qt-mt323:qt-mt323.dll
 0001:00011f98       ??0QHostAddress@@QAE@I@Z   00412f98 f   qt-mt323:qt-mt323.dll
 0001:00011f9e       ?setAddress@QHostAddress@@QAE_NABVQString@@@Z 00412f9e f   qt-mt323:qt-mt323.dll
 0001:00011fa4       ??0QHostAddress@@QAE@XZ    00412fa4 f   qt-mt323:qt-mt323.dll
 0001:00011faa       ??0QSocketDevice@@QAE@W4Type@0@@Z 00412faa f   qt-mt323:qt-mt323.dll
 0001:00011fb0       ??1QSocketDevice@@UAE@XZ   00412fb0 f   qt-mt323:qt-mt323.dll
 0001:00011fb6       ??1QSocketNotifier@@UAE@XZ 00412fb6 f   qt-mt323:qt-mt323.dll
 0001:00011fbc       ??1QStringList@@QAE@XZ     00412fbc f   qt-mt323:qt-mt323.dll
 0001:00011fc2       ??A?$QValueList@VQString@@@@QAEAAVQString@@I@Z 00412fc2 f   qt-mt323:qt-mt323.dll
 0001:00011fc8       ?toString@QHostAddress@@QBE?AVQString@@XZ 00412fc8 f   qt-mt323:qt-mt323.dll
 0001:00011fce       ?peerAddress@QSocketDevice@@QBE?AVQHostAddress@@XZ 00412fce f   qt-mt323:qt-mt323.dll
 0001:00011fd4       ?setTime_t@QDateTime@@QAEXI@Z 00412fd4 f   qt-mt323:qt-mt323.dll
 0001:00011fda       ?toUInt@QString@@QBEIPA_NH@Z 00412fda f   qt-mt323:qt-mt323.dll
 0001:00011fe0       ?toInt@QString@@QBEHPA_NH@Z 00412fe0 f   qt-mt323:qt-mt323.dll
 0001:00011fe6       ?detachInternal@?$QValueList@VQString@@@@AAEXXZ 00412fe6 f   qt-mt323:qt-mt323.dll
 0001:00011fec       ?split@QStringList@@SA?AV1@ABVQString@@0_N@Z 00412fec f   qt-mt323:qt-mt323.dll
 0001:00011ff2       ?error@QSocketDevice@@QBE?AW4Error@1@XZ 00412ff2 f   qt-mt323:qt-mt323.dll
 0001:00011ff8       ?isValid@QSocketDevice@@QBE_NXZ 00412ff8 f   qt-mt323:qt-mt323.dll
 0001:00011ffe       ?qWarning@@YAXPBDZZ        00412ffe f   qt-mt323:qt-mt323.dll
 0001:00012004       ?reject@QDialog@@MAEXXZ    00413004 f   qt-mt323:qt-mt323.dll
 0001:0001200a       ?accept@QDialog@@MAEXXZ    0041300a f   qt-mt323:qt-mt323.dll
 0001:00012010       ?done@QDialog@@MAEXH@Z     00413010 f   qt-mt323:qt-mt323.dll
 0001:00012016       ?contextMenuEvent@QDialog@@MAEXPAVQContextMenuEvent@@@Z 00413016 f   qt-mt323:qt-mt323.dll
 0001:0001201c       ?closeEvent@QDialog@@MAEXPAVQCloseEvent@@@Z 0041301c f   qt-mt323:qt-mt323.dll
 0001:00012022       ?resizeEvent@QDialog@@MAEXPAVQResizeEvent@@@Z 00413022 f   qt-mt323:qt-mt323.dll
 0001:00012028       ?keyPressEvent@QDialog@@MAEXPAVQKeyEvent@@@Z 00413028 f   qt-mt323:qt-mt323.dll
 0001:0001202e       ?minimumSizeHint@QDialog@@UBE?AVQSize@@XZ 0041302e f   qt-mt323:qt-mt323.dll
 0001:00012034       ?sizeHint@QDialog@@UBE?AVQSize@@XZ 00413034 f   qt-mt323:qt-mt323.dll
 0001:0001203a       ?setGeometry@QDialog@@UAEXHHHH@Z 0041303a f   qt-mt323:qt-mt323.dll
 0001:00012040       ?setGeometry@QDialog@@UAEXABVQRect@@@Z 00413040 f   qt-mt323:qt-mt323.dll
 0001:00012046       ?resize@QDialog@@UAEXHH@Z  00413046 f   qt-mt323:qt-mt323.dll
 0001:0001204c       ?move@QDialog@@UAEXHH@Z    0041304c f   qt-mt323:qt-mt323.dll
 0001:00012052       ?hide@QDialog@@UAEXXZ      00413052 f   qt-mt323:qt-mt323.dll
 0001:00012058       ?show@QDialog@@UAEXXZ      00413058 f   qt-mt323:qt-mt323.dll
 0001:0001205e       ?eventFilter@QDialog@@MAE_NPAVQObject@@PAVQEvent@@@Z 0041305e f   qt-mt323:qt-mt323.dll
 0001:00012064       ?drawButtonLabel@QCheckBox@@MAEXPAVQPainter@@@Z 00413064 f   qt-mt323:qt-mt323.dll
 0001:0001206a       ?drawButton@QCheckBox@@MAEXPAVQPainter@@@Z 0041306a f   qt-mt323:qt-mt323.dll
 0001:00012070       ?hitButton@QCheckBox@@MBE_NABVQPoint@@@Z 00413070 f   qt-mt323:qt-mt323.dll
 0001:00012076       ?updateMask@QCheckBox@@MAEXXZ 00413076 f   qt-mt323:qt-mt323.dll
 0001:0001207c       ?resizeEvent@QCheckBox@@MAEXPAVQResizeEvent@@@Z 0041307c f   qt-mt323:qt-mt323.dll
 0001:00012082       ?focusOutEvent@QButton@@MAEXPAVQFocusEvent@@@Z 00413082 f   qt-mt323:qt-mt323.dll
 0001:00012088       ?focusInEvent@QButton@@MAEXPAVQFocusEvent@@@Z 00413088 f   qt-mt323:qt-mt323.dll
 0001:0001208e       ?sizeHint@QCheckBox@@UBE?AVQSize@@XZ 0041308e f   qt-mt323:qt-mt323.dll
 0001:00012094       ?qt_property@QCheckBox@@UAE_NHHPAVQVariant@@@Z 00413094 f   qt-mt323:qt-mt323.dll
 0001:0001209a       ?qt_emit@QCheckBox@@UAE_NHPAUQUObject@@@Z 0041309a f   qt-mt323:qt-mt323.dll
 0001:000120a0       ?qt_invoke@QCheckBox@@UAE_NHPAUQUObject@@@Z 004130a0 f   qt-mt323:qt-mt323.dll
 0001:000120a6       ?qt_cast@QCheckBox@@UAEPAXPBD@Z 004130a6 f   qt-mt323:qt-mt323.dll
 0001:000120ac       ?className@QCheckBox@@UBEPBDXZ 004130ac f   qt-mt323:qt-mt323.dll
 0001:000120b2       ?metaObject@QCheckBox@@UBEPAVQMetaObject@@XZ 004130b2 f   qt-mt323:qt-mt323.dll
 0001:000120b8       ?stepChange@QRangeControl@@MAEXXZ 004130b8 f   qt-mt323:qt-mt323.dll
 0001:000120be       ?rangeChange@QSpinBox@@MAEXXZ 004130be f   qt-mt323:qt-mt323.dll
 0001:000120c4       ?valueChange@QSpinBox@@MAEXXZ 004130c4 f   qt-mt323:qt-mt323.dll
 0001:000120ca       ?interpretText@QSpinBox@@MAEXXZ 004130ca f   qt-mt323:qt-mt323.dll
 0001:000120d0       ?updateDisplay@QSpinBox@@MAEXXZ 004130d0 f   qt-mt323:qt-mt323.dll
 0001:000120d6       ?mapTextToValue@QSpinBox@@MAEHPA_N@Z 004130d6 f   qt-mt323:qt-mt323.dll
 0001:000120dc       ?mapValueToText@QSpinBox@@MAE?AVQString@@H@Z 004130dc f   qt-mt323:qt-mt323.dll
 0001:000120e2       ?selectAll@QSpinBox@@UAEXXZ 004130e2 f   qt-mt323:qt-mt323.dll
 0001:000120e8       ?stepDown@QSpinBox@@UAEXXZ 004130e8 f   qt-mt323:qt-mt323.dll
 0001:000120ee       ?stepUp@QSpinBox@@UAEXXZ   004130ee f   qt-mt323:qt-mt323.dll
 0001:000120f4       ?setSuffix@QSpinBox@@UAEXABVQString@@@Z 004130f4 f   qt-mt323:qt-mt323.dll
 0001:000120fa       ?setPrefix@QSpinBox@@UAEXABVQString@@@Z 004130fa f   qt-mt323:qt-mt323.dll
 0001:00012100       ?setValue@QSpinBox@@UAEXH@Z 00413100 f   qt-mt323:qt-mt323.dll
 0001:00012106       ?setValidator@QSpinBox@@UAEXPBVQValidator@@@Z 00413106 f   qt-mt323:qt-mt323.dll
 0001:0001210c       ?setButtonSymbols@QSpinBox@@UAEXW4ButtonSymbols@1@@Z 0041310c f   qt-mt323:qt-mt323.dll
 0001:00012112       ?setWrapping@QSpinBox@@UAEX_N@Z 00413112 f   qt-mt323:qt-mt323.dll
 0001:00012118       ?setSpecialValueText@QSpinBox@@UAEXABVQString@@@Z 00413118 f   qt-mt323:qt-mt323.dll
 0001:0001211e       ?cleanText@QSpinBox@@UBE?AVQString@@XZ 0041311e f   qt-mt323:qt-mt323.dll
 0001:00012124       ?suffix@QSpinBox@@UBE?AVQString@@XZ 00413124 f   qt-mt323:qt-mt323.dll
 0001:0001212a       ?prefix@QSpinBox@@UBE?AVQString@@XZ 0041312a f   qt-mt323:qt-mt323.dll
 0001:00012130       ?styleChange@QSpinBox@@MAEXAAVQStyle@@@Z 00413130 f   qt-mt323:qt-mt323.dll
 0001:00012136       ?resizeEvent@QSpinBox@@MAEXPAVQResizeEvent@@@Z 00413136 f   qt-mt323:qt-mt323.dll
 0001:0001213c       ?paintEvent@QWidget@@MAEXPAVQPaintEvent@@@Z 0041313c f   qt-mt323:qt-mt323.dll
 0001:00012142       ?leaveEvent@QSpinBox@@MAEXPAVQEvent@@@Z 00413142 f   qt-mt323:qt-mt323.dll
 0001:00012148       ?wheelEvent@QSpinBox@@MAEXPAVQWheelEvent@@@Z 00413148 f   qt-mt323:qt-mt323.dll
 0001:0001214e       ?minimumSizeHint@QSpinBox@@UBE?AVQSize@@XZ 0041314e f   qt-mt323:qt-mt323.dll
 0001:00012154       ?sizeHint@QSpinBox@@UBE?AVQSize@@XZ 00413154 f   qt-mt323:qt-mt323.dll
 0001:0001215a       ?setEnabled@QSpinBox@@UAEX_N@Z 0041315a f   qt-mt323:qt-mt323.dll
 0001:00012160       ?eventFilter@QSpinBox@@MAE_NPAVQObject@@PAVQEvent@@@Z 00413160 f   qt-mt323:qt-mt323.dll
 0001:00012166       ?qt_property@QSpinBox@@UAE_NHHPAVQVariant@@@Z 00413166 f   qt-mt323:qt-mt323.dll
 0001:0001216c       ?qt_emit@QSpinBox@@UAE_NHPAUQUObject@@@Z 0041316c f   qt-mt323:qt-mt323.dll
 0001:00012172       ?qt_invoke@QSpinBox@@UAE_NHPAUQUObject@@@Z 00413172 f   qt-mt323:qt-mt323.dll
 0001:00012178       ?qt_cast@QSpinBox@@UAEPAXPBD@Z 00413178 f   qt-mt323:qt-mt323.dll
 0001:0001217e       ?className@QSpinBox@@UBEPBDXZ 0041317e f   qt-mt323:qt-mt323.dll
 0001:00012184       ?metaObject@QSpinBox@@UBEPAVQMetaObject@@XZ 00413184 f   qt-mt323:qt-mt323.dll
 0001:0001218a       ?setNum@QLabel@@UAEXH@Z    0041318a f   qt-mt323:qt-mt323.dll
 0001:00012190       ?setNum@QLabel@@UAEXN@Z    00413190 f   qt-mt323:qt-mt323.dll
 0001:00012196       ?setMovie@QLabel@@UAEXABVQMovie@@@Z 00413196 f   qt-mt323:qt-mt323.dll
 0001:0001219c       ?setPicture@QLabel@@UAEXABVQPicture@@@Z 0041319c f   qt-mt323:qt-mt323.dll
 0001:000121a2       ?setPixmap@QLabel@@UAEXABVQPixmap@@@Z 004131a2 f   qt-mt323:qt-mt323.dll
 0001:000121a8       ?setText@QLabel@@UAEXABVQString@@@Z 004131a8 f   qt-mt323:qt-mt323.dll
 0001:000121ae       ?setBuddy@QLabel@@UAEXPAVQWidget@@@Z 004131ae f   qt-mt323:qt-mt323.dll
 0001:000121b4       ?setAutoResize@QLabel@@UAEX_N@Z 004131b4 f   qt-mt323:qt-mt323.dll
 0001:000121ba       ?setAlignment@QLabel@@UAEXH@Z 004131ba f   qt-mt323:qt-mt323.dll
 0001:000121c0       ?frameChanged@QFrame@@MAEXXZ 004131c0 f   qt-mt323:qt-mt323.dll
 0001:000121c6       ?drawContents@QLabel@@MAEXPAVQPainter@@@Z 004131c6 f   qt-mt323:qt-mt323.dll
 0001:000121cc       ?drawFrame@QFrame@@MAEXPAVQPainter@@@Z 004131cc f   qt-mt323:qt-mt323.dll
 0001:000121d2       ?setFrameRect@QFrame@@UAEXABVQRect@@@Z 004131d2 f   qt-mt323:qt-mt323.dll
 0001:000121d8       ?setMidLineWidth@QFrame@@UAEXH@Z 004131d8 f   qt-mt323:qt-mt323.dll
 0001:000121de       ?setMargin@QFrame@@UAEXH@Z 004131de f   qt-mt323:qt-mt323.dll
 0001:000121e4       ?setLineWidth@QFrame@@UAEXH@Z 004131e4 f   qt-mt323:qt-mt323.dll
 0001:000121ea       ?setFrameStyle@QFrame@@UAEXH@Z 004131ea f   qt-mt323:qt-mt323.dll
 0001:000121f0       ?fontChange@QLabel@@MAEXABVQFont@@@Z 004131f0 f   qt-mt323:qt-mt323.dll
 0001:000121f6       ?enabledChange@QWidget@@MAEX_N@Z 004131f6 f   qt-mt323:qt-mt323.dll
 0001:000121fc       ?styleChange@QFrame@@MAEXAAVQStyle@@@Z 004131fc f   qt-mt323:qt-mt323.dll
 0001:00012202       ?updateMask@QWidget@@MAEXXZ 00413202 f   qt-mt323:qt-mt323.dll
 0001:00012208       ?resizeEvent@QLabel@@MAEXPAVQResizeEvent@@@Z 00413208 f   qt-mt323:qt-mt323.dll
 0001:0001220e       ?paintEvent@QFrame@@MAEXPAVQPaintEvent@@@Z 0041320e f   qt-mt323:qt-mt323.dll
 0001:00012214       ?focusOutEvent@QWidget@@MAEXPAVQFocusEvent@@@Z 00413214 f   qt-mt323:qt-mt323.dll
 0001:0001221a       ?focusInEvent@QWidget@@MAEXPAVQFocusEvent@@@Z 0041321a f   qt-mt323:qt-mt323.dll
 0001:00012220       ?keyReleaseEvent@QWidget@@MAEXPAVQKeyEvent@@@Z 00413220 f   qt-mt323:qt-mt323.dll
 0001:00012226       ?keyPressEvent@QWidget@@MAEXPAVQKeyEvent@@@Z 00413226 f   qt-mt323:qt-mt323.dll
 0001:0001222c       ?mouseMoveEvent@QWidget@@MAEXPAVQMouseEvent@@@Z 0041322c f   qt-mt323:qt-mt323.dll
 0001:00012232       ?mouseReleaseEvent@QWidget@@MAEXPAVQMouseEvent@@@Z 00413232 f   qt-mt323:qt-mt323.dll
 0001:00012238       ?mousePressEvent@QWidget@@MAEXPAVQMouseEvent@@@Z 00413238 f   qt-mt323:qt-mt323.dll
 0001:0001223e       ?heightForWidth@QLabel@@UBEHH@Z 0041323e f   qt-mt323:qt-mt323.dll
 0001:00012244       ?minimumSizeHint@QLabel@@UBE?AVQSize@@XZ 00413244 f   qt-mt323:qt-mt323.dll
 0001:0001224a       ?sizeHint@QLabel@@UBE?AVQSize@@XZ 0041324a f   qt-mt323:qt-mt323.dll
 0001:00012250       ?setGeometry@QWidget@@UAEXHHHH@Z 00413250 f   qt-mt323:qt-mt323.dll
 0001:00012256       ?setGeometry@QWidget@@UAEXABVQRect@@@Z 00413256 f   qt-mt323:qt-mt323.dll
 0001:0001225c       ?resize@QWidget@@UAEXHH@Z  0041325c f   qt-mt323:qt-mt323.dll
 0001:00012262       ?move@QWidget@@UAEXHH@Z    00413262 f   qt-mt323:qt-mt323.dll
 0001:00012268       ?setFont@QLabel@@UAEXABVQFont@@@Z 00413268 f   qt-mt323:qt-mt323.dll
 0001:0001226e       ?qt_property@QLabel@@UAE_NHHPAVQVariant@@@Z 0041326e f   qt-mt323:qt-mt323.dll
 0001:00012274       ?qt_emit@QLabel@@UAE_NHPAUQUObject@@@Z 00413274 f   qt-mt323:qt-mt323.dll
 0001:0001227a       ?qt_invoke@QLabel@@UAE_NHPAUQUObject@@@Z 0041327a f   qt-mt323:qt-mt323.dll
 0001:00012280       ?qt_cast@QLabel@@UAEPAXPBD@Z 00413280 f   qt-mt323:qt-mt323.dll
 0001:00012286       ?className@QLabel@@UBEPBDXZ 00413286 f   qt-mt323:qt-mt323.dll
 0001:0001228c       ?metaObject@QLabel@@UBEPAVQMetaObject@@XZ 0041328c f   qt-mt323:qt-mt323.dll
 0001:00012292       ?qt_property@QHBoxLayout@@UAE_NHHPAVQVariant@@@Z 00413292 f   qt-mt323:qt-mt323.dll
 0001:00012298       ?qt_emit@QHBoxLayout@@UAE_NHPAUQUObject@@@Z 00413298 f   qt-mt323:qt-mt323.dll
 0001:0001229e       ?qt_invoke@QHBoxLayout@@UAE_NHPAUQUObject@@@Z 0041329e f   qt-mt323:qt-mt323.dll
 0001:000122a4       ?qt_cast@QHBoxLayout@@UAEPAXPBD@Z 004132a4 f   qt-mt323:qt-mt323.dll
 0001:000122aa       ?className@QHBoxLayout@@UBEPBDXZ 004132aa f   qt-mt323:qt-mt323.dll
 0001:000122b0       ?metaObject@QHBoxLayout@@UBEPAVQMetaObject@@XZ 004132b0 f   qt-mt323:qt-mt323.dll
 0001:000122b6       ?spacerItem@QLayoutItem@@UAEPAVQSpacerItem@@XZ 004132b6 f   qt-mt323:qt-mt323.dll
 0001:000122bc       ?layout@QLayout@@UAEPAV1@XZ 004132bc f   qt-mt323:qt-mt323.dll
 0001:000122c2       ?iterator@QBoxLayout@@UAE?AVQLayoutIterator@@XZ 004132c2 f   qt-mt323:qt-mt323.dll
 0001:000122c8       ?invalidate@QBoxLayout@@UAEXXZ 004132c8 f   qt-mt323:qt-mt323.dll
 0001:000122ce       ?heightForWidth@QBoxLayout@@UBEHH@Z 004132ce f   qt-mt323:qt-mt323.dll
 0001:000122d4       ?hasHeightForWidth@QBoxLayout@@UBE_NXZ 004132d4 f   qt-mt323:qt-mt323.dll
 0001:000122da       ?isEmpty@QLayout@@UBE_NXZ  004132da f   qt-mt323:qt-mt323.dll
 0001:000122e0       ?geometry@QLayout@@UBE?AVQRect@@XZ 004132e0 f   qt-mt323:qt-mt323.dll
 0001:000122e6       ?setGeometry@QBoxLayout@@UAEXABVQRect@@@Z 004132e6 f   qt-mt323:qt-mt323.dll
 0001:000122ec       ?expanding@QBoxLayout@@UBE?AW4ExpandData@QSizePolicy@@XZ 004132ec f   qt-mt323:qt-mt323.dll
 0001:000122f2       ?maximumSize@QBoxLayout@@UBE?AVQSize@@XZ 004132f2 f   qt-mt323:qt-mt323.dll
 0001:000122f8       ?minimumSize@QBoxLayout@@UBE?AVQSize@@XZ 004132f8 f   qt-mt323:qt-mt323.dll
 0001:000122fe       ?sizeHint@QBoxLayout@@UBE?AVQSize@@XZ 004132fe f   qt-mt323:qt-mt323.dll
 0001:00012304       ?addItem@QBoxLayout@@UAEXPAVQLayoutItem@@@Z 00413304 f   qt-mt323:qt-mt323.dll
 0001:0001230a       ?setAutoAdd@QLayout@@UAEX_N@Z 0041330a f   qt-mt323:qt-mt323.dll
 0001:00012310       ?setMenuBar@QLayout@@UAEXPAVQMenuBar@@@Z 00413310 f   qt-mt323:qt-mt323.dll
 0001:00012316       ?setSpacing@QLayout@@UAEXH@Z 00413316 f   qt-mt323:qt-mt323.dll
 0001:0001231c       ?setMargin@QLayout@@UAEXH@Z 0041331c f   qt-mt323:qt-mt323.dll
 0001:00012322       ?childEvent@QLayout@@MAEXPAVQChildEvent@@@Z 00413322 f   qt-mt323:qt-mt323.dll
 0001:00012328       ?eventFilter@QLayout@@MAE_NPAVQObject@@PAVQEvent@@@Z 00413328 f   qt-mt323:qt-mt323.dll
 0001:0001232e       ?qt_property@QVBoxLayout@@UAE_NHHPAVQVariant@@@Z 0041332e f   qt-mt323:qt-mt323.dll
 0001:00012334       ?qt_emit@QVBoxLayout@@UAE_NHPAUQUObject@@@Z 00413334 f   qt-mt323:qt-mt323.dll
 0001:0001233a       ?qt_invoke@QVBoxLayout@@UAE_NHPAUQUObject@@@Z 0041333a f   qt-mt323:qt-mt323.dll
 0001:00012340       ?qt_cast@QVBoxLayout@@UAEPAXPBD@Z 00413340 f   qt-mt323:qt-mt323.dll
 0001:00012346       ?className@QVBoxLayout@@UBEPBDXZ 00413346 f   qt-mt323:qt-mt323.dll
 0001:0001234c       ?metaObject@QVBoxLayout@@UBEPAVQMetaObject@@XZ 0041334c f   qt-mt323:qt-mt323.dll
 0001:00012352       ?setAlignment@QLayoutItem@@UAEXH@Z 00413352 f   qt-mt323:qt-mt323.dll
 0001:00012358       ?spacerItem@QSpacerItem@@UAEPAV1@XZ 00413358 f   qt-mt323:qt-mt323.dll
 0001:0001235e       ?layout@QLayoutItem@@UAEPAVQLayout@@XZ 0041335e f   qt-mt323:qt-mt323.dll
 0001:00012364       ?iterator@QLayoutItem@@UAE?AVQLayoutIterator@@XZ 00413364 f   qt-mt323:qt-mt323.dll
 0001:0001236a       ?widget@QLayoutItem@@UAEPAVQWidget@@XZ 0041336a f   qt-mt323:qt-mt323.dll
 0001:00012370       ?invalidate@QLayoutItem@@UAEXXZ 00413370 f   qt-mt323:qt-mt323.dll
 0001:00012376       ?heightForWidth@QLayoutItem@@UBEHH@Z 00413376 f   qt-mt323:qt-mt323.dll
 0001:0001237c       ?hasHeightForWidth@QLayoutItem@@UBE_NXZ 0041337c f   qt-mt323:qt-mt323.dll
 0001:00012382       ?isEmpty@QSpacerItem@@UBE_NXZ 00413382 f   qt-mt323:qt-mt323.dll
 0001:00012388       ?geometry@QSpacerItem@@UBE?AVQRect@@XZ 00413388 f   qt-mt323:qt-mt323.dll
 0001:0001238e       ?setGeometry@QSpacerItem@@UAEXABVQRect@@@Z 0041338e f   qt-mt323:qt-mt323.dll
 0001:00012394       ?expanding@QSpacerItem@@UBE?AW4ExpandData@QSizePolicy@@XZ 00413394 f   qt-mt323:qt-mt323.dll
 0001:0001239a       ?maximumSize@QSpacerItem@@UBE?AVQSize@@XZ 0041339a f   qt-mt323:qt-mt323.dll
 0001:000123a0       ?minimumSize@QSpacerItem@@UBE?AVQSize@@XZ 004133a0 f   qt-mt323:qt-mt323.dll
 0001:000123a6       ?sizeHint@QSpacerItem@@UBE?AVQSize@@XZ 004133a6 f   qt-mt323:qt-mt323.dll
 0001:000123ac       ?fontInf@QPaintDevice@@MBEHPAVQFont@@H@Z 004133ac f   qt-mt323:qt-mt323.dll
 0001:000123b2       ?fontMet@QPaintDevice@@MBEHPAVQFont@@HPBDH@Z 004133b2 f   qt-mt323:qt-mt323.dll
 0001:000123b8       ?metric@QWidget@@MBEHH@Z   004133b8 f   qt-mt323:qt-mt323.dll
 0001:000123be       ?cmd@QPaintDevice@@MAE_NHPAVQPainter@@PATQPDevCmdParam@@@Z 004133be f   qt-mt323:qt-mt323.dll
 0001:000123c4       ?handle@QPaintDevice@@UBEPAUHDC__@@XZ 004133c4 f   qt-mt323:qt-mt323.dll
 0001:000123ca       ?resolution@QPaintDevice@@UBEHXZ 004133ca f   qt-mt323:qt-mt323.dll
 0001:000123d0       ?setResolution@QPaintDevice@@UAEXH@Z 004133d0 f   qt-mt323:qt-mt323.dll
 0001:000123d6       ?setOn@QPushButton@@UAEX_N@Z 004133d6 f   qt-mt323:qt-mt323.dll
 0001:000123dc       ?setIsMenuButton@QPushButton@@UAEX_N@Z 004133dc f   qt-mt323:qt-mt323.dll
 0001:000123e2       ?setDefault@QPushButton@@UAEX_N@Z 004133e2 f   qt-mt323:qt-mt323.dll
 0001:000123e8       ?setAutoDefault@QPushButton@@UAEX_N@Z 004133e8 f   qt-mt323:qt-mt323.dll
 0001:000123ee       ?setGroup@QButton@@EAEXPAVQButtonGroup@@@Z 004133ee f   qt-mt323:qt-mt323.dll
 0001:000123f4       ?drawButtonLabel@QPushButton@@MAEXPAVQPainter@@@Z 004133f4 f   qt-mt323:qt-mt323.dll
 0001:000123fa       ?drawButton@QPushButton@@MAEXPAVQPainter@@@Z 004133fa f   qt-mt323:qt-mt323.dll
 0001:00012400       ?hitButton@QButton@@MBE_NABVQPoint@@@Z 00413400 f   qt-mt323:qt-mt323.dll
 0001:00012406       ?setState@QButton@@MAEXW4ToggleState@1@@Z 00413406 f   qt-mt323:qt-mt323.dll
 0001:0001240c       ?setToggleType@QButton@@MAEXW4ToggleType@1@@Z 0041340c f   qt-mt323:qt-mt323.dll
 0001:00012412       ?setAutoRepeat@QButton@@UAEX_N@Z 00413412 f   qt-mt323:qt-mt323.dll
 0001:00012418       ?setDown@QButton@@UAEX_N@Z 00413418 f   qt-mt323:qt-mt323.dll
 0001:0001241e       ?setAccel@QButton@@UAEXABVQKeySequence@@@Z 0041341e f   qt-mt323:qt-mt323.dll
 0001:00012424       ?setPixmap@QButton@@UAEXABVQPixmap@@@Z 00413424 f   qt-mt323:qt-mt323.dll
 0001:0001242a       ?setText@QButton@@UAEXABVQString@@@Z 0041342a f   qt-mt323:qt-mt323.dll
 0001:00012430       ?setMicroFocusHint@QWidget@@MAEXHHHH_NPAVQFont@@@Z 00413430 f   qt-mt323:qt-mt323.dll
 0001:00012436       ?setKeyCompression@QWidget@@MAEX_N@Z 00413436 f   qt-mt323:qt-mt323.dll
 0001:0001243c       ?focusNextPrevChild@QWidget@@MAE_N_N@Z 0041343c f   qt-mt323:qt-mt323.dll
 0001:00012442       ?setWFlags@QWidget@@MAEXI@Z 00413442 f   qt-mt323:qt-mt323.dll
 0001:00012448       ?setWState@QWidget@@MAEXI@Z 00413448 f   qt-mt323:qt-mt323.dll
 0001:0001244e       ?destroy@QWidget@@MAEX_N0@Z 0041344e f   qt-mt323:qt-mt323.dll
 0001:00012454       ?create@QWidget@@MAEXPAUHWND__@@_N1@Z 00413454 f   qt-mt323:qt-mt323.dll
 0001:0001245a       ?windowActivationChange@QWidget@@MAEX_N@Z 0041345a f   qt-mt323:qt-mt323.dll
 0001:00012460       ?fontChange@QWidget@@MAEXABVQFont@@@Z 00413460 f   qt-mt323:qt-mt323.dll
 0001:00012466       ?paletteChange@QWidget@@MAEXABVQPalette@@@Z 00413466 f   qt-mt323:qt-mt323.dll
 0001:0001246c       ?enabledChange@QButton@@MAEX_N@Z 0041346c f   qt-mt323:qt-mt323.dll
 0001:00012472       ?styleChange@QWidget@@MAEXAAVQStyle@@@Z 00413472 f   qt-mt323:qt-mt323.dll
 0001:00012478       ?updateMask@QPushButton@@MAEXXZ 00413478 f   qt-mt323:qt-mt323.dll
 0001:0001247e       ?winEvent@QWidget@@MAE_NPAUtagMSG@@@Z 0041347e f   qt-mt323:qt-mt323.dll
 0001:00012484       ?hideEvent@QWidget@@MAEXPAVQHideEvent@@@Z 00413484 f   qt-mt323:qt-mt323.dll
 0001:0001248a       ?showEvent@QWidget@@MAEXPAVQShowEvent@@@Z 0041348a f   qt-mt323:qt-mt323.dll
 0001:00012490       ?dropEvent@QWidget@@MAEXPAVQDropEvent@@@Z 00413490 f   qt-mt323:qt-mt323.dll
 0001:00012496       ?dragLeaveEvent@QWidget@@MAEXPAVQDragLeaveEvent@@@Z 00413496 f   qt-mt323:qt-mt323.dll
 0001:0001249c       ?dragMoveEvent@QWidget@@MAEXPAVQDragMoveEvent@@@Z 0041349c f   qt-mt323:qt-mt323.dll
 0001:000124a2       ?dragEnterEvent@QWidget@@MAEXPAVQDragEnterEvent@@@Z 004134a2 f   qt-mt323:qt-mt323.dll
 0001:000124a8       ?tabletEvent@QWidget@@MAEXPAVQTabletEvent@@@Z 004134a8 f   qt-mt323:qt-mt323.dll
 0001:000124ae       ?imEndEvent@QWidget@@MAEXPAVQIMEvent@@@Z 004134ae f   qt-mt323:qt-mt323.dll
 0001:000124b4       ?imComposeEvent@QWidget@@MAEXPAVQIMEvent@@@Z 004134b4 f   qt-mt323:qt-mt323.dll
 0001:000124ba       ?imStartEvent@QWidget@@MAEXPAVQIMEvent@@@Z 004134ba f   qt-mt323:qt-mt323.dll
 0001:000124c0       ?contextMenuEvent@QWidget@@MAEXPAVQContextMenuEvent@@@Z 004134c0 f   qt-mt323:qt-mt323.dll
 0001:000124c6       ?closeEvent@QWidget@@MAEXPAVQCloseEvent@@@Z 004134c6 f   qt-mt323:qt-mt323.dll
 0001:000124cc       ?resizeEvent@QPushButton@@MAEXPAVQResizeEvent@@@Z 004134cc f   qt-mt323:qt-mt323.dll
 0001:000124d2       ?moveEvent@QWidget@@MAEXPAVQMoveEvent@@@Z 004134d2 f   qt-mt323:qt-mt323.dll
 0001:000124d8       ?paintEvent@QButton@@MAEXPAVQPaintEvent@@@Z 004134d8 f   qt-mt323:qt-mt323.dll
 0001:000124de       ?leaveEvent@QWidget@@MAEXPAVQEvent@@@Z 004134de f   qt-mt323:qt-mt323.dll
 0001:000124e4       ?enterEvent@QWidget@@MAEXPAVQEvent@@@Z 004134e4 f   qt-mt323:qt-mt323.dll
 0001:000124ea       ?focusOutEvent@QPushButton@@MAEXPAVQFocusEvent@@@Z 004134ea f   qt-mt323:qt-mt323.dll
 0001:000124f0       ?focusInEvent@QPushButton@@MAEXPAVQFocusEvent@@@Z 004134f0 f   qt-mt323:qt-mt323.dll
 0001:000124f6       ?keyReleaseEvent@QButton@@MAEXPAVQKeyEvent@@@Z 004134f6 f   qt-mt323:qt-mt323.dll
 0001:000124fc       ?keyPressEvent@QButton@@MAEXPAVQKeyEvent@@@Z 004134fc f   qt-mt323:qt-mt323.dll
 0001:00012502       ?wheelEvent@QWidget@@MAEXPAVQWheelEvent@@@Z 00413502 f   qt-mt323:qt-mt323.dll
 0001:00012508       ?mouseMoveEvent@QButton@@MAEXPAVQMouseEvent@@@Z 00413508 f   qt-mt323:qt-mt323.dll
 0001:0001250e       ?mouseDoubleClickEvent@QWidget@@MAEXPAVQMouseEvent@@@Z 0041350e f   qt-mt323:qt-mt323.dll
 0001:00012514       ?mouseReleaseEvent@QButton@@MAEXPAVQMouseEvent@@@Z 00413514 f   qt-mt323:qt-mt323.dll
 0001:0001251a       ?mousePressEvent@QButton@@MAEXPAVQMouseEvent@@@Z 0041351a f   qt-mt323:qt-mt323.dll
 0001:00012520       ?customWhatsThis@QWidget@@UBE_NXZ 00413520 f   qt-mt323:qt-mt323.dll
 0001:00012526       ?setBackgroundOrigin@QWidget@@UAEXW4BackgroundOrigin@1@@Z 00413526 f   qt-mt323:qt-mt323.dll
 0001:0001252c       ?setAutoMask@QWidget@@UAEX_N@Z 0041352c f   qt-mt323:qt-mt323.dll
 0001:00012532       ?setAcceptDrops@QWidget@@UAEX_N@Z 00413532 f   qt-mt323:qt-mt323.dll
 0001:00012538       ?reparent@QWidget@@UAEXPAV1@IABVQPoint@@_N@Z 00413538 f   qt-mt323:qt-mt323.dll
 0001:0001253e       ?adjustSize@QWidget@@UAEXXZ 0041353e f   qt-mt323:qt-mt323.dll
 0001:00012544       ?heightForWidth@QWidget@@UBEHH@Z 00413544 f   qt-mt323:qt-mt323.dll
 0001:0001254a       ?setSizePolicy@QWidget@@UAEXVQSizePolicy@@@Z 0041354a f   qt-mt323:qt-mt323.dll
 0001:00012550       ?sizePolicy@QWidget@@UBE?AVQSizePolicy@@XZ 00413550 f   qt-mt323:qt-mt323.dll
 0001:00012556       ?minimumSizeHint@QWidget@@UBE?AVQSize@@XZ 00413556 f   qt-mt323:qt-mt323.dll
 0001:0001255c       ?sizeHint@QPushButton@@UBE?AVQSize@@XZ 0041355c f   qt-mt323:qt-mt323.dll
 0001:00012562       ?setGeometry@QPushButton@@UAEXHHHH@Z 00413562 f   qt-mt323:qt-mt323.dll
 0001:00012568       ?setGeometry@QPushButton@@UAEXABVQRect@@@Z 00413568 f   qt-mt323:qt-mt323.dll
 0001:0001256e       ?resize@QPushButton@@UAEXHH@Z 0041356e f   qt-mt323:qt-mt323.dll
 0001:00012574       ?move@QPushButton@@UAEXHH@Z 00413574 f   qt-mt323:qt-mt323.dll
 0001:0001257a       ?close@QWidget@@UAE_N_N@Z  0041357a f   qt-mt323:qt-mt323.dll
 0001:00012580       ?polish@QWidget@@UAEXXZ    00413580 f   qt-mt323:qt-mt323.dll
 0001:00012586       ?showNormal@QWidget@@UAEXXZ 00413586 f   qt-mt323:qt-mt323.dll
 0001:0001258c       ?showMaximized@QWidget@@UAEXXZ 0041358c f   qt-mt323:qt-mt323.dll
 0001:00012592       ?showMinimized@QWidget@@UAEXXZ 00413592 f   qt-mt323:qt-mt323.dll
 0001:00012598       ?hide@QWidget@@UAEXXZ      00413598 f   qt-mt323:qt-mt323.dll
 0001:0001259e       ?show@QWidget@@UAEXXZ      0041359e f   qt-mt323:qt-mt323.dll
 0001:000125a4       ?setUpdatesEnabled@QWidget@@UAEX_N@Z 004135a4 f   qt-mt323:qt-mt323.dll
 0001:000125aa       ?setFocusProxy@QWidget@@UAEXPAV1@@Z 004135aa f   qt-mt323:qt-mt323.dll
 0001:000125b0       ?setFocusPolicy@QWidget@@UAEXW4FocusPolicy@1@@Z 004135b0 f   qt-mt323:qt-mt323.dll
 0001:000125b6       ?setActiveWindow@QWidget@@UAEXXZ 004135b6 f   qt-mt323:qt-mt323.dll
 0001:000125bc       ?setFocus@QWidget@@UAEXXZ  004135bc f   qt-mt323:qt-mt323.dll
 0001:000125c2       ?setMouseTracking@QWidget@@UAEX_N@Z 004135c2 f   qt-mt323:qt-mt323.dll
 0001:000125c8       ?setIconText@QWidget@@UAEXABVQString@@@Z 004135c8 f   qt-mt323:qt-mt323.dll
 0001:000125ce       ?setIcon@QWidget@@UAEXABVQPixmap@@@Z 004135ce f   qt-mt323:qt-mt323.dll
 0001:000125d4       ?setCaption@QWidget@@UAEXABVQString@@@Z 004135d4 f   qt-mt323:qt-mt323.dll
 0001:000125da       ?setBackgroundPixmap@QWidget@@UAEXABVQPixmap@@@Z 004135da f   qt-mt323:qt-mt323.dll
 0001:000125e0       ?setBackgroundColor@QWidget@@UAEXABVQColor@@@Z 004135e0 f   qt-mt323:qt-mt323.dll
 0001:000125e6       ?setMask@QWidget@@UAEXABVQBitmap@@@Z 004135e6 f   qt-mt323:qt-mt323.dll
 0001:000125ec       ?setMask@QWidget@@UAEXABVQRegion@@@Z 004135ec f   qt-mt323:qt-mt323.dll
 0001:000125f2       ?unsetCursor@QWidget@@UAEXXZ 004135f2 f   qt-mt323:qt-mt323.dll
 0001:000125f8       ?setCursor@QWidget@@UAEXABVQCursor@@@Z 004135f8 f   qt-mt323:qt-mt323.dll
 0001:000125fe       ?setFont@QWidget@@UAEXABVQFont@@@Z 004135fe f   qt-mt323:qt-mt323.dll
 0001:00012604       ?setPaletteBackgroundPixmap@QWidget@@UAEXABVQPixmap@@@Z 00413604 f   qt-mt323:qt-mt323.dll
 0001:0001260a       ?setPaletteBackgroundColor@QWidget@@UAEXABVQColor@@@Z 0041360a f   qt-mt323:qt-mt323.dll
 0001:00012610       ?setPalette@QWidget@@UAEXABVQPalette@@@Z 00413610 f   qt-mt323:qt-mt323.dll
 0001:00012616       ?setErasePixmap@QWidget@@UAEXABVQPixmap@@@Z 00413616 f   qt-mt323:qt-mt323.dll
 0001:0001261c       ?setEraseColor@QWidget@@UAEXABVQColor@@@Z 0041361c f   qt-mt323:qt-mt323.dll
 0001:00012622       ?setBackgroundMode@QWidget@@UAEXW4BackgroundMode@Qt@@@Z 00413622 f   qt-mt323:qt-mt323.dll
 0001:00012628       ?setSizeIncrement@QWidget@@UAEXHH@Z 00413628 f   qt-mt323:qt-mt323.dll
 0001:0001262e       ?setMaximumSize@QWidget@@UAEXHH@Z 0041362e f   qt-mt323:qt-mt323.dll
 0001:00012634       ?setMinimumSize@QWidget@@UAEXHH@Z 00413634 f   qt-mt323:qt-mt323.dll
 0001:0001263a       ?setEnabled@QWidget@@UAEX_N@Z 0041363a f   qt-mt323:qt-mt323.dll
 0001:00012640       ?setName@QWidget@@UAEXPBD@Z 00413640 f   qt-mt323:qt-mt323.dll
 0001:00012646       ?event@QWidget@@MAE_NPAVQEvent@@@Z 00413646 f   qt-mt323:qt-mt323.dll
 0001:0001264c       ?qt_property@QPushButton@@UAE_NHHPAVQVariant@@@Z 0041364c f   qt-mt323:qt-mt323.dll
 0001:00012652       ?qt_emit@QPushButton@@UAE_NHPAUQUObject@@@Z 00413652 f   qt-mt323:qt-mt323.dll
 0001:00012658       ?qt_invoke@QPushButton@@UAE_NHPAUQUObject@@@Z 00413658 f   qt-mt323:qt-mt323.dll
 0001:0001265e       ?qt_cast@QPushButton@@UAEPAXPBD@Z 0041365e f   qt-mt323:qt-mt323.dll
 0001:00012664       ?className@QPushButton@@UBEPBDXZ 00413664 f   qt-mt323:qt-mt323.dll
 0001:0001266a       ?metaObject@QPushButton@@UBEPAVQMetaObject@@XZ 0041366a f   qt-mt323:qt-mt323.dll
 0001:00012670       ??1QDialog@@UAE@XZ         00413670 f   qt-mt323:qt-mt323.dll
 0001:00012676       ?resize@QDialog@@QAEXABVQSize@@@Z 00413676 f   qt-mt323:qt-mt323.dll
 0001:0001267c       ??0QPushButton@@QAE@PAVQWidget@@PBD@Z 0041367c f   qt-mt323:qt-mt323.dll
 0001:00012682       ??0QCheckBox@@QAE@PAVQWidget@@PBD@Z 00413682 f   qt-mt323:qt-mt323.dll
 0001:00012688       ?addLayout@QBoxLayout@@QAEXPAVQLayout@@H@Z 00413688 f   qt-mt323:qt-mt323.dll
 0001:0001268e       ?setMinValue@QSpinBox@@QAEXH@Z 0041368e f   qt-mt323:qt-mt323.dll
 0001:00012694       ?setMaxValue@QSpinBox@@QAEXH@Z 00413694 f   qt-mt323:qt-mt323.dll
 0001:0001269a       ??0QSpinBox@@QAE@PAVQWidget@@PBD@Z 0041369a f   qt-mt323:qt-mt323.dll
 0001:000126a0       ?addWidget@QBoxLayout@@QAEXPAVQWidget@@HH@Z 004136a0 f   qt-mt323:qt-mt323.dll
 0001:000126a6       ??0QLabel@@QAE@PAVQWidget@@PBDI@Z 004136a6 f   qt-mt323:qt-mt323.dll
 0001:000126ac       ??0QHBoxLayout@@QAE@PAVQWidget@@HHPBD@Z 004136ac f   qt-mt323:qt-mt323.dll
 0001:000126b2       ?setResizeMode@QLayout@@QAEXW4ResizeMode@1@@Z 004136b2 f   qt-mt323:qt-mt323.dll
 0001:000126b8       ??0QVBoxLayout@@QAE@PAVQWidget@@HHPBD@Z 004136b8 f   qt-mt323:qt-mt323.dll
 0001:000126be       ?setModal@QDialog@@QAEX_N@Z 004136be f   qt-mt323:qt-mt323.dll
 0001:000126c4       ?setSizeGripEnabled@QDialog@@QAEX_N@Z 004136c4 f   qt-mt323:qt-mt323.dll
 0001:000126ca       ??0QDialog@@QAE@PAVQWidget@@PBD_NI@Z 004136ca f   qt-mt323:qt-mt323.dll
 0001:000126d0       ??1QSpacerItem@@UAE@XZ     004136d0 f   qt-mt323:qt-mt323.dll
 0001:000126d6       ??1QVBoxLayout@@UAE@XZ     004136d6 f   qt-mt323:qt-mt323.dll
 0001:000126dc       ??1QHBoxLayout@@UAE@XZ     004136dc f   qt-mt323:qt-mt323.dll
 0001:000126e2       ??1QLabel@@UAE@XZ          004136e2 f   qt-mt323:qt-mt323.dll
 0001:000126e8       ??1QSpinBox@@UAE@XZ        004136e8 f   qt-mt323:qt-mt323.dll
 0001:000126ee       ??1QCheckBox@@UAE@XZ       004136ee f   qt-mt323:qt-mt323.dll
 0001:000126f4       ??1QPushButton@@UAE@XZ     004136f4 f   qt-mt323:qt-mt323.dll
 0001:000126fa       ??1QKeySequence@@QAE@XZ    004136fa f   qt-mt323:qt-mt323.dll
 0001:00012700       ??0QKeySequence@@QAE@ABVQString@@@Z 00413700 f   qt-mt323:qt-mt323.dll
 0001:00012706       ?add@QWhatsThis@@SAXPAVQWidget@@ABVQString@@@Z 00413706 f   qt-mt323:qt-mt323.dll
 0001:0001270c       ??4QString@@QAEAAV0@ABV0@@Z 0041370c f   qt-mt323:qt-mt323.dll
 0001:00012712       ?cancelRename@QListViewItem@@MAEXH@Z 00413712 f   qt-mt323:qt-mt323.dll
 0001:00012718       ?okRename@QListViewItem@@MAEXH@Z 00413718 f   qt-mt323:qt-mt323.dll
 0001:0001271e       ?dragLeft@QListViewItem@@MAEXXZ 0041371e f   qt-mt323:qt-mt323.dll
 0001:00012724       ?dragEntered@QListViewItem@@MAEXXZ 00413724 f   qt-mt323:qt-mt323.dll
 0001:0001272a       ?dropped@QListViewItem@@MAEXPAVQDropEvent@@@Z 0041372a f   qt-mt323:qt-mt323.dll
 0001:00012730       ?activate@QListViewItem@@MAEXXZ 00413730 f   qt-mt323:qt-mt323.dll
 0001:00012736       ?setHeight@QListViewItem@@MAEXH@Z 00413736 f   qt-mt323:qt-mt323.dll
 0001:0001273c       ?enforceSortOrder@QListViewItem@@MBEXXZ 0041373c f   qt-mt323:qt-mt323.dll
 0001:00012742       ?setMultiLinesEnabled@QListViewItem@@UAEX_N@Z 00413742 f   qt-mt323:qt-mt323.dll
 0001:00012748       ?setEnabled@QListViewItem@@UAEX_N@Z 00413748 f   qt-mt323:qt-mt323.dll
 0001:0001274e       ?startRename@QListViewItem@@UAEXH@Z 0041374e f   qt-mt323:qt-mt323.dll
 0001:00012754       ?setRenameEnabled@QListViewItem@@UAEXH_N@Z 00413754 f   qt-mt323:qt-mt323.dll
 0001:0001275a       ?acceptDrop@QListViewItem@@UBE_NPBVQMimeSource@@@Z 0041375a f   qt-mt323:qt-mt323.dll
 0001:00012760       ?setDropEnabled@QListViewItem@@UAEX_N@Z 00413760 f   qt-mt323:qt-mt323.dll
 0001:00012766       ?setDragEnabled@QListViewItem@@UAEX_N@Z 00413766 f   qt-mt323:qt-mt323.dll
 0001:0001276c       ?sort@QListViewItem@@UAEXXZ 0041376c f   qt-mt323:qt-mt323.dll
 0001:00012772       ?setExpandable@QListViewItem@@UAEX_N@Z 00413772 f   qt-mt323:qt-mt323.dll
 0001:00012778       ?setSelectable@QListViewItem@@UAEX_N@Z 00413778 f   qt-mt323:qt-mt323.dll
 0001:0001277e       ?paintFocus@QListViewItem@@UAEXPAVQPainter@@ABVQColorGroup@@ABVQRect@@@Z 0041377e f   qt-mt323:qt-mt323.dll
 0001:00012784       ?paintBranches@QListViewItem@@UAEXPAVQPainter@@ABVQColorGroup@@HHH@Z 00413784 f   qt-mt323:qt-mt323.dll
 0001:0001278a       ?setSelected@QListViewItem@@UAEX_N@Z 0041378a f   qt-mt323:qt-mt323.dll
 0001:00012790       ?setup@QListViewItem@@UAEXXZ 00413790 f   qt-mt323:qt-mt323.dll
 0001:00012796       ?setOpen@QListViewItem@@UAEX_N@Z 00413796 f   qt-mt323:qt-mt323.dll
 0001:0001279c       ?sortChildItems@QListViewItem@@UAEXH_N@Z 0041379c f   qt-mt323:qt-mt323.dll
 0001:000127a2       ?key@QListViewItem@@UBE?AVQString@@H_N@Z 004137a2 f   qt-mt323:qt-mt323.dll
 0001:000127a8       ?pixmap@QListViewItem@@UBEPBVQPixmap@@H@Z 004137a8 f   qt-mt323:qt-mt323.dll
 0001:000127ae       ?setPixmap@QListViewItem@@UAEXHABVQPixmap@@@Z 004137ae f   qt-mt323:qt-mt323.dll
 0001:000127b4       ?text@QListViewItem@@UBE?AVQString@@H@Z 004137b4 f   qt-mt323:qt-mt323.dll
 0001:000127ba       ?setText@QListViewItem@@UAEXHABVQString@@@Z 004137ba f   qt-mt323:qt-mt323.dll
 0001:000127c0       ?width@QListViewItem@@UBEHABVQFontMetrics@@PBVQListView@@H@Z 004137c0 f   qt-mt323:qt-mt323.dll
 0001:000127c6       ?invalidateHeight@QListViewItem@@UAEXXZ 004137c6 f   qt-mt323:qt-mt323.dll
 0001:000127cc       ?removeItem@QListViewItem@@UAEXPAV1@@Z 004137cc f   qt-mt323:qt-mt323.dll
 0001:000127d2       ?takeItem@QListViewItem@@UAEXPAV1@@Z 004137d2 f   qt-mt323:qt-mt323.dll
 0001:000127d8       ?insertItem@QListViewItem@@UAEXPAV1@@Z 004137d8 f   qt-mt323:qt-mt323.dll
 0001:000127de       ??1QListViewItem@@UAE@XZ   004137de f   qt-mt323:qt-mt323.dll
 0001:000127e4       ??0QListViewItem@@QAE@PAVQListView@@@Z 004137e4 f   qt-mt323:qt-mt323.dll
 0001:000127ea       ?toString@QDateTime@@QBE?AVQString@@ABV2@@Z 004137ea f   qt-mt323:qt-mt323.dll
 0001:000127f0       ??OQDateTime@@QBE_NABV0@@Z 004137f0 f   qt-mt323:qt-mt323.dll
 0001:000127f6       ??MQDateTime@@QBE_NABV0@@Z 004137f6 f   qt-mt323:qt-mt323.dll
 0001:000127fc       ?fromString@QDateTime@@SA?AV1@ABVQString@@W4DateFormat@Qt@@@Z 004137fc f   qt-mt323:qt-mt323.dll
 0001:00012802       ?remove@QString@@QAEAAV1@II@Z 00413802 f   qt-mt323:qt-mt323.dll
 0001:00012808       ??0QChar@@QAE@ABV0@@Z      00413808 f   qt-mt323:qt-mt323.dll
 0001:0001280e       ?upper@QChar@@QBE?AV1@XZ   0041380e f   qt-mt323:qt-mt323.dll
 0001:00012814       ?at@QString@@QBE?AVQChar@@I@Z 00413814 f   qt-mt323:qt-mt323.dll
 0001:0001281a       ??1QColorGroup@@QAE@XZ     0041381a f   qt-mt323:qt-mt323.dll
 0001:00012820       ?paintCell@QListViewItem@@UAEXPAVQPainter@@ABVQColorGroup@@HHH@Z 00413820 f   qt-mt323:qt-mt323.dll
 0001:00012826       ?setColor@QColorGroup@@QAEXW4ColorRole@1@ABVQColor@@@Z 00413826 f   qt-mt323:qt-mt323.dll
 0001:0001282c       ??0QColor@@QAE@PBD@Z       0041382c f   qt-mt323:qt-mt323.dll
 0001:00012832       ??0QColorGroup@@QAE@ABV0@@Z 00413832 f   qt-mt323:qt-mt323.dll
 0001:00012838       ?currentDateTime@QDateTime@@SA?AV1@XZ 00413838 f   qt-mt323:qt-mt323.dll
 0001:0001283e       ?menuDelPopup@QPopupMenu@@EAEXPAV1@@Z 0041383e f   qt-mt323:qt-mt323.dll
 0001:00012844       ?menuInsPopup@QPopupMenu@@EAEXPAV1@@Z 00413844 f   qt-mt323:qt-mt323.dll
 0001:0001284a       ?menuStateChanged@QPopupMenu@@EAEXXZ 0041384a f   qt-mt323:qt-mt323.dll
 0001:00012850       ?menuContentsChanged@QPopupMenu@@EAEXXZ 00413850 f   qt-mt323:qt-mt323.dll
 0001:00012856       ?activateItemAt@QPopupMenu@@UAEXH@Z 00413856 f   qt-mt323:qt-mt323.dll
 0001:0001285c       ?updateItem@QPopupMenu@@UAEXH@Z 0041385c f   qt-mt323:qt-mt323.dll
 0001:00012862       ?setFirstItemActive@QPopupMenu@@EAEXXZ 00413862 f   qt-mt323:qt-mt323.dll
 0001:00012868       ?setActiveItem@QPopupMenu@@UAEXH@Z 00413868 f   qt-mt323:qt-mt323.dll
 0001:0001286e       ?setCheckable@QPopupMenu@@UAEX_N@Z 0041386e f   qt-mt323:qt-mt323.dll
 0001:00012874       ?frameChanged@QPopupMenu@@EAEXXZ 00413874 f   qt-mt323:qt-mt323.dll
 0001:0001287a       ?drawContents@QPopupMenu@@MAEXPAVQPainter@@@Z 0041387a f   qt-mt323:qt-mt323.dll
 0001:00012880       ?focusNextPrevChild@QPopupMenu@@MAE_N_N@Z 00413880 f   qt-mt323:qt-mt323.dll
 0001:00012886       ?enabledChange@QPopupMenu@@MAEX_N@Z 00413886 f   qt-mt323:qt-mt323.dll
 0001:0001288c       ?styleChange@QPopupMenu@@MAEXAAVQStyle@@@Z 0041388c f   qt-mt323:qt-mt323.dll
 0001:00012892       ?closeEvent@QPopupMenu@@MAEXPAVQCloseEvent@@@Z 00413892 f   qt-mt323:qt-mt323.dll
 0001:00012898       ?resizeEvent@QFrame@@MAEXPAVQResizeEvent@@@Z 00413898 f   qt-mt323:qt-mt323.dll
 0001:0001289e       ?paintEvent@QPopupMenu@@MAEXPAVQPaintEvent@@@Z 0041389e f   qt-mt323:qt-mt323.dll
 0001:000128a4       ?leaveEvent@QPopupMenu@@MAEXPAVQEvent@@@Z 004138a4 f   qt-mt323:qt-mt323.dll
 0001:000128aa       ?focusOutEvent@QPopupMenu@@MAEXPAVQFocusEvent@@@Z 004138aa f   qt-mt323:qt-mt323.dll
 0001:000128b0       ?focusInEvent@QPopupMenu@@MAEXPAVQFocusEvent@@@Z 004138b0 f   qt-mt323:qt-mt323.dll
 0001:000128b6       ?keyPressEvent@QPopupMenu@@MAEXPAVQKeyEvent@@@Z 004138b6 f   qt-mt323:qt-mt323.dll
 0001:000128bc       ?mouseMoveEvent@QPopupMenu@@MAEXPAVQMouseEvent@@@Z 004138bc f   qt-mt323:qt-mt323.dll
 0001:000128c2       ?mouseReleaseEvent@QPopupMenu@@MAEXPAVQMouseEvent@@@Z 004138c2 f   qt-mt323:qt-mt323.dll
 0001:000128c8       ?mousePressEvent@QPopupMenu@@MAEXPAVQMouseEvent@@@Z 004138c8 f   qt-mt323:qt-mt323.dll
 0001:000128ce       ?customWhatsThis@QPopupMenu@@UBE_NXZ 004138ce f   qt-mt323:qt-mt323.dll
 0001:000128d4       ?sizeHint@QPopupMenu@@UBE?AVQSize@@XZ 004138d4 f   qt-mt323:qt-mt323.dll
 0001:000128da       ?hide@QPopupMenu@@UAEXXZ   004138da f   qt-mt323:qt-mt323.dll
 0001:000128e0       ?show@QPopupMenu@@UAEXXZ   004138e0 f   qt-mt323:qt-mt323.dll
 0001:000128e6       ?setFont@QPopupMenu@@UAEXABVQFont@@@Z 004138e6 f   qt-mt323:qt-mt323.dll
 0001:000128ec       ?timerEvent@QPopupMenu@@MAEXPAVQTimerEvent@@@Z 004138ec f   qt-mt323:qt-mt323.dll
 0001:000128f2       ?qt_property@QPopupMenu@@UAE_NHHPAVQVariant@@@Z 004138f2 f   qt-mt323:qt-mt323.dll
 0001:000128f8       ?qt_emit@QPopupMenu@@UAE_NHPAUQUObject@@@Z 004138f8 f   qt-mt323:qt-mt323.dll
 0001:000128fe       ?qt_invoke@QPopupMenu@@UAE_NHPAUQUObject@@@Z 004138fe f   qt-mt323:qt-mt323.dll
 0001:00012904       ?qt_cast@QPopupMenu@@UAEPAXPBD@Z 00413904 f   qt-mt323:qt-mt323.dll
 0001:0001290a       ?className@QPopupMenu@@UBEPBDXZ 0041390a f   qt-mt323:qt-mt323.dll
 0001:00012910       ?metaObject@QPopupMenu@@UBEPAVQMetaObject@@XZ 00413910 f   qt-mt323:qt-mt323.dll
 0001:00012916       ?menuDelPopup@QMenuBar@@EAEXPAVQPopupMenu@@@Z 00413916 f   qt-mt323:qt-mt323.dll
 0001:0001291c       ?menuInsPopup@QMenuBar@@EAEXPAVQPopupMenu@@@Z 0041391c f   qt-mt323:qt-mt323.dll
 0001:00012922       ?menuStateChanged@QMenuBar@@MAEXXZ 00413922 f   qt-mt323:qt-mt323.dll
 0001:00012928       ?menuContentsChanged@QMenuBar@@MAEXXZ 00413928 f   qt-mt323:qt-mt323.dll
 0001:0001292e       ?activateItemAt@QMenuBar@@UAEXH@Z 0041392e f   qt-mt323:qt-mt323.dll
 0001:00012934       ?setId@QMenuData@@UAEXHH@Z 00413934 f   qt-mt323:qt-mt323.dll
 0001:0001293a       ?updateItem@QMenuBar@@UAEXH@Z 0041393a f   qt-mt323:qt-mt323.dll
 0001:00012940       ?setSeparator@QMenuBar@@UAEXW4Separator@1@@Z 00413940 f   qt-mt323:qt-mt323.dll
 0001:00012946       ?frameChanged@QMenuBar@@EAEXXZ 00413946 f   qt-mt323:qt-mt323.dll
 0001:0001294c       ?drawContents@QMenuBar@@MAEXPAVQPainter@@@Z 0041394c f   qt-mt323:qt-mt323.dll
 0001:00012952       ?fontChange@QMenuBar@@MAEXABVQFont@@@Z 00413952 f   qt-mt323:qt-mt323.dll
 0001:00012958       ?styleChange@QMenuBar@@MAEXAAVQStyle@@@Z 00413958 f   qt-mt323:qt-mt323.dll
 0001:0001295e       ?resizeEvent@QMenuBar@@MAEXPAVQResizeEvent@@@Z 0041395e f   qt-mt323:qt-mt323.dll
 0001:00012964       ?leaveEvent@QMenuBar@@MAEXPAVQEvent@@@Z 00413964 f   qt-mt323:qt-mt323.dll
 0001:0001296a       ?focusOutEvent@QMenuBar@@MAEXPAVQFocusEvent@@@Z 0041396a f   qt-mt323:qt-mt323.dll
 0001:00012970       ?focusInEvent@QMenuBar@@MAEXPAVQFocusEvent@@@Z 00413970 f   qt-mt323:qt-mt323.dll
 0001:00012976       ?keyPressEvent@QMenuBar@@MAEXPAVQKeyEvent@@@Z 00413976 f   qt-mt323:qt-mt323.dll
 0001:0001297c       ?mouseMoveEvent@QMenuBar@@MAEXPAVQMouseEvent@@@Z 0041397c f   qt-mt323:qt-mt323.dll
 0001:00012982       ?mouseReleaseEvent@QMenuBar@@MAEXPAVQMouseEvent@@@Z 00413982 f   qt-mt323:qt-mt323.dll
 0001:00012988       ?mousePressEvent@QMenuBar@@MAEXPAVQMouseEvent@@@Z 00413988 f   qt-mt323:qt-mt323.dll
 0001:0001298e       ?customWhatsThis@QMenuBar@@UBE_NXZ 0041398e f   qt-mt323:qt-mt323.dll
 0001:00012994       ?heightForWidth@QMenuBar@@UBEHH@Z 00413994 f   qt-mt323:qt-mt323.dll
 0001:0001299a       ?minimumSizeHint@QMenuBar@@UBE?AVQSize@@XZ 0041399a f   qt-mt323:qt-mt323.dll
 0001:000129a0       ?sizeHint@QMenuBar@@UBE?AVQSize@@XZ 004139a0 f   qt-mt323:qt-mt323.dll
 0001:000129a6       ?hide@QMenuBar@@UAEXXZ     004139a6 f   qt-mt323:qt-mt323.dll
 0001:000129ac       ?show@QMenuBar@@UAEXXZ     004139ac f   qt-mt323:qt-mt323.dll
 0001:000129b2       ?eventFilter@QMenuBar@@UAE_NPAVQObject@@PAVQEvent@@@Z 004139b2 f   qt-mt323:qt-mt323.dll
 0001:000129b8       ?qt_property@QMenuBar@@UAE_NHHPAVQVariant@@@Z 004139b8 f   qt-mt323:qt-mt323.dll
 0001:000129be       ?qt_emit@QMenuBar@@UAE_NHPAUQUObject@@@Z 004139be f   qt-mt323:qt-mt323.dll
 0001:000129c4       ?qt_invoke@QMenuBar@@UAE_NHPAUQUObject@@@Z 004139c4 f   qt-mt323:qt-mt323.dll
 0001:000129ca       ?qt_cast@QMenuBar@@UAEPAXPBD@Z 004139ca f   qt-mt323:qt-mt323.dll
 0001:000129d0       ?className@QMenuBar@@UBEPBDXZ 004139d0 f   qt-mt323:qt-mt323.dll
 0001:000129d6       ?metaObject@QMenuBar@@UBEPAVQMetaObject@@XZ 004139d6 f   qt-mt323:qt-mt323.dll
 0001:000129dc       ?setToolTipGroup@QMainWindow@@EAEXPAVQToolTipGroup@@@Z 004139dc f   qt-mt323:qt-mt323.dll
 0001:000129e2       ?setStatusBar@QMainWindow@@EAEXPAVQStatusBar@@@Z 004139e2 f   qt-mt323:qt-mt323.dll
 0001:000129e8       ?setMenuBar@QMainWindow@@EAEXPAVQMenuBar@@@Z 004139e8 f   qt-mt323:qt-mt323.dll
 0001:000129ee       ?showDockMenu@QMainWindow@@MAE_NABVQPoint@@@Z 004139ee f   qt-mt323:qt-mt323.dll
 0001:000129f4       ?setUpLayout@QMainWindow@@MAEXXZ 004139f4 f   qt-mt323:qt-mt323.dll
 0001:000129fa       ?customize@QMainWindow@@UAEXXZ 004139fa f   qt-mt323:qt-mt323.dll
 0001:00012a00       ?setAppropriate@QMainWindow@@UAEXPAVQDockWindow@@_N@Z 00413a00 f   qt-mt323:qt-mt323.dll
 0001:00012a06       ?whatsThis@QMainWindow@@UAEXXZ 00413a06 f   qt-mt323:qt-mt323.dll
 0001:00012a0c       ?setDockMenuEnabled@QMainWindow@@UAEX_N@Z 00413a0c f   qt-mt323:qt-mt323.dll
 0001:00012a12       ?setOpaqueMoving@QMainWindow@@UAEX_N@Z 00413a12 f   qt-mt323:qt-mt323.dll
 0001:00012a18       ?setDockWindowsMovable@QMainWindow@@UAEX_N@Z 00413a18 f   qt-mt323:qt-mt323.dll
 0001:00012a1e       ?setUsesTextLabel@QMainWindow@@UAEX_N@Z 00413a1e f   qt-mt323:qt-mt323.dll
 0001:00012a24       ?setUsesBigPixmaps@QMainWindow@@UAEX_N@Z 00413a24 f   qt-mt323:qt-mt323.dll
 0001:00012a2a       ?setRightJustification@QMainWindow@@UAEX_N@Z 00413a2a f   qt-mt323:qt-mt323.dll
 0001:00012a30       ?isCustomizable@QMainWindow@@UBE_NXZ 00413a30 f   qt-mt323:qt-mt323.dll
 0001:00012a36       ?dockingArea@QMainWindow@@UAEPAVQDockArea@@ABVQPoint@@@Z 00413a36 f   qt-mt323:qt-mt323.dll
 0001:00012a3c       ?removeDockWindow@QMainWindow@@UAEXPAVQDockWindow@@@Z 00413a3c f   qt-mt323:qt-mt323.dll
 0001:00012a42       ?moveDockWindow@QMainWindow@@UAEXPAVQDockWindow@@W4Dock@Qt@@@Z 00413a42 f   qt-mt323:qt-mt323.dll
 0001:00012a48       ?moveDockWindow@QMainWindow@@UAEXPAVQDockWindow@@W4Dock@Qt@@_NHH@Z 00413a48 f   qt-mt323:qt-mt323.dll
 0001:00012a4e       ?addDockWindow@QMainWindow@@UAEXPAVQDockWindow@@W4Dock@Qt@@_N@Z 00413a4e f   qt-mt323:qt-mt323.dll
 0001:00012a54       ?addDockWindow@QMainWindow@@UAEXPAVQDockWindow@@ABVQString@@W4Dock@Qt@@_N@Z 00413a54 f   qt-mt323:qt-mt323.dll
 0001:00012a5a       ?setDockEnabled@QMainWindow@@UAEXW4Dock@Qt@@_N@Z 00413a5a f   qt-mt323:qt-mt323.dll
 0001:00012a60       ?setDockEnabled@QMainWindow@@UAEXPAVQDockWindow@@W4Dock@Qt@@_N@Z 00413a60 f   qt-mt323:qt-mt323.dll
 0001:00012a66       ?setCentralWidget@QMainWindow@@UAEXPAVQWidget@@@Z 00413a66 f   qt-mt323:qt-mt323.dll
 0001:00012a6c       ?styleChange@QMainWindow@@MAEXAAVQStyle@@@Z 00413a6c f   qt-mt323:qt-mt323.dll
 0001:00012a72       ?resizeEvent@QWidget@@MAEXPAVQResizeEvent@@@Z 00413a72 f   qt-mt323:qt-mt323.dll
 0001:00012a78       ?paintEvent@QMainWindow@@MAEXPAVQPaintEvent@@@Z 00413a78 f   qt-mt323:qt-mt323.dll
 0001:00012a7e       ?minimumSizeHint@QMainWindow@@UBE?AVQSize@@XZ 00413a7e f   qt-mt323:qt-mt323.dll
 0001:00012a84       ?sizeHint@QMainWindow@@UBE?AVQSize@@XZ 00413a84 f   qt-mt323:qt-mt323.dll
 0001:00012a8a       ?hide@QMainWindow@@UAEXXZ  00413a8a f   qt-mt323:qt-mt323.dll
 0001:00012a90       ?childEvent@QMainWindow@@MAEXPAVQChildEvent@@@Z 00413a90 f   qt-mt323:qt-mt323.dll
 0001:00012a96       ?eventFilter@QMainWindow@@UAE_NPAVQObject@@PAVQEvent@@@Z 00413a96 f   qt-mt323:qt-mt323.dll
 0001:00012a9c       ?event@QMainWindow@@MAE_NPAVQEvent@@@Z 00413a9c f   qt-mt323:qt-mt323.dll
 0001:00012aa2       ?critical@QMessageBox@@SAHPAVQWidget@@ABVQString@@1111HH@Z 00413aa2 f   qt-mt323:qt-mt323.dll
 0001:00012aa8       ?insertItem@QMenuData@@QAEHABVQString@@PAVQPopupMenu@@HH@Z 00413aa8 f   qt-mt323:qt-mt323.dll
 0001:00012aae       ?insertItem@QMenuData@@QAEHABVQString@@PBVQObject@@PBDABVQKeySequence@@HH@Z 00413aae f   qt-mt323:qt-mt323.dll
 0001:00012ab4       ??0QKeySequence@@QAE@H@Z   00413ab4 f   qt-mt323:qt-mt323.dll
 0001:00012aba       ??0QPopupMenu@@QAE@PAVQWidget@@PBD@Z 00413aba f   qt-mt323:qt-mt323.dll
 0001:00012ac0       ??0QMenuBar@@QAE@PAVQWidget@@PBD@Z 00413ac0 f   qt-mt323:qt-mt323.dll
 0001:00012ac6       ??1QPixmap@@UAE@XZ         00413ac6 f   qt-mt323:qt-mt323.dll
 0001:00012acc       ??0QPixmap@@QAE@QAPBD@Z    00413acc f   qt-mt323:qt-mt323.dll
 0001:00012ad2       ??1QMenuBar@@UAE@XZ        00413ad2 f   qt-mt323:qt-mt323.dll
 0001:00012ad8       ??1QPopupMenu@@UAE@XZ      00413ad8 f   qt-mt323:qt-mt323.dll
 0001:00012ade       ?elementsByTagNameNS@QDomElement@@UBE?AVQDomNodeList@@ABVQString@@0@Z 00413ade f   qt-mt323:qt-mt323.dll
 0001:00012ae4       ?elementsByTagName@QDomElement@@UBE?AVQDomNodeList@@ABVQString@@@Z 00413ae4 f   qt-mt323:qt-mt323.dll
 0001:00012aea       ?isComment@QDomNode@@UBE_NXZ 00413aea f   qt-mt323:qt-mt323.dll
 0001:00012af0       ?isCharacterData@QDomNode@@UBE_NXZ 00413af0 f   qt-mt323:qt-mt323.dll
 0001:00012af6       ?isProcessingInstruction@QDomNode@@UBE_NXZ 00413af6 f   qt-mt323:qt-mt323.dll
 0001:00012afc       ?isNotation@QDomNode@@UBE_NXZ 00413afc f   qt-mt323:qt-mt323.dll
 0001:00012b02       ?isEntity@QDomNode@@UBE_NXZ 00413b02 f   qt-mt323:qt-mt323.dll
 0001:00012b08       ?isText@QDomNode@@UBE_NXZ  00413b08 f   qt-mt323:qt-mt323.dll
 0001:00012b0e       ?isEntityReference@QDomNode@@UBE_NXZ 00413b0e f   qt-mt323:qt-mt323.dll
 0001:00012b14       ?isElement@QDomElement@@UBE_NXZ 00413b14 f   qt-mt323:qt-mt323.dll
 0001:00012b1a       ?isDocumentType@QDomNode@@UBE_NXZ 00413b1a f   qt-mt323:qt-mt323.dll
 0001:00012b20       ?isDocument@QDomNode@@UBE_NXZ 00413b20 f   qt-mt323:qt-mt323.dll
 0001:00012b26       ?isDocumentFragment@QDomNode@@UBE_NXZ 00413b26 f   qt-mt323:qt-mt323.dll
 0001:00012b2c       ?isCDATASection@QDomNode@@UBE_NXZ 00413b2c f   qt-mt323:qt-mt323.dll
 0001:00012b32       ?isAttr@QDomNode@@UBE_NXZ  00413b32 f   qt-mt323:qt-mt323.dll
 0001:00012b38       ?setPrefix@QDomNode@@UAEXABVQString@@@Z 00413b38 f   qt-mt323:qt-mt323.dll
 0001:00012b3e       ?prefix@QDomNode@@UBE?AVQString@@XZ 00413b3e f   qt-mt323:qt-mt323.dll
 0001:00012b44       ?setNodeValue@QDomNode@@UAEXABVQString@@@Z 00413b44 f   qt-mt323:qt-mt323.dll
 0001:00012b4a       ?nodeValue@QDomNode@@UBE?AVQString@@XZ 00413b4a f   qt-mt323:qt-mt323.dll
 0001:00012b50       ?hasAttributes@QDomNode@@UBE_NXZ 00413b50 f   qt-mt323:qt-mt323.dll
 0001:00012b56       ?localName@QDomNode@@UBE?AVQString@@XZ 00413b56 f   qt-mt323:qt-mt323.dll
 0001:00012b5c       ?namespaceURI@QDomNode@@UBE?AVQString@@XZ 00413b5c f   qt-mt323:qt-mt323.dll
 0001:00012b62       ?ownerDocument@QDomNode@@UBE?AVQDomDocument@@XZ 00413b62 f   qt-mt323:qt-mt323.dll
 0001:00012b68       ?attributes@QDomElement@@UBE?AVQDomNamedNodeMap@@XZ 00413b68 f   qt-mt323:qt-mt323.dll
 0001:00012b6e       ?nextSibling@QDomNode@@UBE?AV1@XZ 00413b6e f   qt-mt323:qt-mt323.dll
 0001:00012b74       ?previousSibling@QDomNode@@UBE?AV1@XZ 00413b74 f   qt-mt323:qt-mt323.dll
 0001:00012b7a       ?lastChild@QDomNode@@UBE?AV1@XZ 00413b7a f   qt-mt323:qt-mt323.dll
 0001:00012b80       ?firstChild@QDomNode@@UBE?AV1@XZ 00413b80 f   qt-mt323:qt-mt323.dll
 0001:00012b86       ?childNodes@QDomNode@@UBE?AVQDomNodeList@@XZ 00413b86 f   qt-mt323:qt-mt323.dll
 0001:00012b8c       ?parentNode@QDomNode@@UBE?AV1@XZ 00413b8c f   qt-mt323:qt-mt323.dll
 0001:00012b92       ?nodeType@QDomElement@@UBE?AW4NodeType@QDomNode@@XZ 00413b92 f   qt-mt323:qt-mt323.dll
 0001:00012b98       ?nodeName@QDomNode@@UBE?AVQString@@XZ 00413b98 f   qt-mt323:qt-mt323.dll
 0001:00012b9e       ?isSupported@QDomNode@@UBE_NABVQString@@0@Z 00413b9e f   qt-mt323:qt-mt323.dll
 0001:00012ba4       ?normalize@QDomNode@@UAEXXZ 00413ba4 f   qt-mt323:qt-mt323.dll
 0001:00012baa       ?cloneNode@QDomNode@@UBE?AV1@_N@Z 00413baa f   qt-mt323:qt-mt323.dll
 0001:00012bb0       ?hasChildNodes@QDomNode@@UBE_NXZ 00413bb0 f   qt-mt323:qt-mt323.dll
 0001:00012bb6       ?appendChild@QDomNode@@UAE?AV1@ABV1@@Z 00413bb6 f   qt-mt323:qt-mt323.dll
 0001:00012bbc       ?removeChild@QDomNode@@UAE?AV1@ABV1@@Z 00413bbc f   qt-mt323:qt-mt323.dll
 0001:00012bc2       ?replaceChild@QDomNode@@UAE?AV1@ABV1@0@Z 00413bc2 f   qt-mt323:qt-mt323.dll
 0001:00012bc8       ?insertAfter@QDomNode@@UAE?AV1@ABV1@0@Z 00413bc8 f   qt-mt323:qt-mt323.dll
 0001:00012bce       ?insertBefore@QDomNode@@UAE?AV1@ABV1@0@Z 00413bce f   qt-mt323:qt-mt323.dll
 0001:00012bd4       ?repaint@QWidget@@QAEX_N@Z 00413bd4 f   qt-mt323:qt-mt323.dll
 0001:00012bda       ??1QDomElement@@UAE@XZ     00413bda f   qt-mt323:qt-mt323.dll
 0001:00012be0       ??1QDomNode@@UAE@XZ        00413be0 f   qt-mt323:qt-mt323.dll
 0001:00012be6       ??4QDomNode@@QAEAAV0@ABV0@@Z 00413be6 f   qt-mt323:qt-mt323.dll
 0001:00012bec       ??8@YA_NABVQString@@PBD@Z  00413bec f   qt-mt323:qt-mt323.dll
 0001:00012bf2       ?toElement@QDomNode@@QAE?AVQDomElement@@XZ 00413bf2 f   qt-mt323:qt-mt323.dll
 0001:00012bf8       ?attribute@QDomElement@@QBE?AVQString@@ABV2@0@Z 00413bf8 f   qt-mt323:qt-mt323.dll
 0001:00012bfe       ?isNull@QDomNode@@QBE_NXZ  00413bfe f   qt-mt323:qt-mt323.dll
 0001:00012c04       ??1QDomDocument@@UAE@XZ    00413c04 f   qt-mt323:qt-mt323.dll
 0001:00012c0a       ??9@YA_NABVQString@@PBD@Z  00413c0a f   qt-mt323:qt-mt323.dll
 0001:00012c10       ?tagName@QDomElement@@QBE?AVQString@@XZ 00413c10 f   qt-mt323:qt-mt323.dll
 0001:00012c16       ?documentElement@QDomDocument@@QBE?AVQDomElement@@XZ 00413c16 f   qt-mt323:qt-mt323.dll
 0001:00012c1c       ?close@QFile@@UAEXXZ       00413c1c f   qt-mt323:qt-mt323.dll
 0001:00012c22       ?setContent@QDomDocument@@QAE_NPAVQIODevice@@PAVQString@@PAH2@Z 00413c22 f   qt-mt323:qt-mt323.dll
 0001:00012c28       ??1QFile@@UAE@XZ           00413c28 f   qt-mt323:qt-mt323.dll
 0001:00012c2e       ?open@QFile@@UAE_NH@Z      00413c2e f   qt-mt323:qt-mt323.dll
 0001:00012c34       ??0QFile@@QAE@ABVQString@@@Z 00413c34 f   qt-mt323:qt-mt323.dll
 0001:00012c3a       ??0QDomDocument@@QAE@XZ    00413c3a f   qt-mt323:qt-mt323.dll
 0001:00012c40       ?right@QString@@QBE?AV1@I@Z 00413c40 f   qt-mt323:qt-mt323.dll
 0001:00012c46       ?find@QString@@QBEHABV1@H_N@Z 00413c46 f   qt-mt323:qt-mt323.dll
 0001:00012c4c       ?fromAscii@QString@@SA?AV1@PBDH@Z 00413c4c f   qt-mt323:qt-mt323.dll
 0001:00012c52       ?contains@QString@@QBEHPBD_N@Z 00413c52 f   qt-mt323:qt-mt323.dll
 0001:00012c58       ?value@QSpinBox@@QBEHXZ    00413c58 f   qt-mt323:qt-mt323.dll
 0001:00012c5e       ?warning@QMessageBox@@SAHPAVQWidget@@ABVQString@@1HHH@Z 00413c5e f   qt-mt323:qt-mt323.dll
 0001:00012c64       ?exec@QDialog@@QAEHXZ      00413c64 f   qt-mt323:qt-mt323.dll
 0001:00012c6a       ?about@QMessageBox@@SAXPAVQWidget@@ABVQString@@1@Z 00413c6a f   qt-mt323:qt-mt323.dll
 0001:00012c70       ?sprintf@QString@@QAAAAV1@PBDZZ 00413c70 f   qt-mt323:qt-mt323.dll
 0001:00012c76       ??1QProcess@@UAE@XZ        00413c76 f   qt-mt323:qt-mt323.dll
 0001:00012c7c       ?start@QProcess@@UAE_NPAVQStringList@@@Z 00413c7c f   qt-mt323:qt-mt323.dll
 0001:00012c82       ?addArgument@QProcess@@UAEXABVQString@@@Z 00413c82 f   qt-mt323:qt-mt323.dll
 0001:00012c88       ??0QProcess@@QAE@PAVQObject@@PBD@Z 00413c88 f   qt-mt323:qt-mt323.dll
 0001:00012c8e       ?setText@QClipboard@@QAEXABVQString@@@Z 00413c8e f   qt-mt323:qt-mt323.dll
 0001:00012c94       ?clipboard@QApplication@@SAPAVQClipboard@@XZ 00413c94 f   qt-mt323:qt-mt323.dll
 0001:00012c9a       ?getText@QInputDialog@@SA?AVQString@@ABV2@0W4EchoMode@QLineEdit@@0PA_NPAVQWidget@@PBD@Z 00413c9a f   qt-mt323:qt-mt323.dll
 0001:00012ca0       ?exists@QFile@@SA_NABVQString@@@Z 00413ca0 f   qt-mt323:qt-mt323.dll
 0001:00012ca6       ?warning@QMessageBox@@SAHPAVQWidget@@ABVQString@@1111HH@Z 00413ca6 f   qt-mt323:qt-mt323.dll
 0001:00012cac       ?rebalance@QMapPrivateBase@@QAEXPAUQMapNodeBase@@AAPAU2@@Z 00413cac f   qt-mt323:qt-mt323.dll
 0001:00012cb2       ?staticMetaObject@QObject@@SAPAVQMetaObject@@XZ 00413cb2 f   qt-mt323:qt-mt323.dll
 0001:00012cb8       ?qt_cast@QObject@@UAEPAXPBD@Z 00413cb8 f   qt-mt323:qt-mt323.dll
 0001:00012cbe       ?activate_signal@QObject@@IAEXPAVQConnectionList@@PAUQUObject@@@Z 00413cbe f   qt-mt323:qt-mt323.dll
 0001:00012cc4       ?set@QUType_varptr@@QAEXPAUQUObject@@PBX@Z 00413cc4 f   qt-mt323:qt-mt323.dll
 0001:00012cca       ??0QUObject@@QAE@XZ        00413cca f   qt-mt323:qt-mt323.dll
 0001:00012cd0       ??1QUObject@@QAE@XZ        00413cd0 f   qt-mt323:qt-mt323.dll
 0001:00012cd6       ?receivers@QObject@@IBEPAVQConnectionList@@H@Z 00413cd6 f   qt-mt323:qt-mt323.dll
 0001:00012cdc       ?qt_invoke@QObject@@UAE_NHPAUQUObject@@@Z 00413cdc f   qt-mt323:qt-mt323.dll
 0001:00012ce2       ?qt_emit@QObject@@UAE_NHPAUQUObject@@@Z 00413ce2 f   qt-mt323:qt-mt323.dll
 0001:00012ce8       ?qt_property@QObject@@UAE_NHHPAVQVariant@@@Z 00413ce8 f   qt-mt323:qt-mt323.dll
 0001:00012cee       ?compareItems@QGVector@@UAEHPAX0@Z 00413cee f   qt-mt323:qt-mt323.dll
 0001:00012cf4       ?write@QGVector@@MBEAAVQDataStream@@AAV2@PAX@Z 00413cf4 f   qt-mt323:qt-mt323.dll
 0001:00012cfa       ?read@QGVector@@MAEAAVQDataStream@@AAV2@AAPAX@Z 00413cfa f   qt-mt323:qt-mt323.dll
 0001:00012d00       ?newItem@QPtrCollection@@MAEPAXPAX@Z 00413d00 f   qt-mt323:qt-mt323.dll
 0001:00012d06       ??0QGVector@@IAE@XZ        00413d06 f   qt-mt323:qt-mt323.dll
 0001:00012d0c       ??0QGVector@@IAE@I@Z       00413d0c f   qt-mt323:qt-mt323.dll
 0001:00012d12       ??0QGVector@@IAE@ABV0@@Z   00413d12 f   qt-mt323:qt-mt323.dll
 0001:00012d18       ??1QGVector@@MAE@XZ        00413d18 f   qt-mt323:qt-mt323.dll
 0001:00012d1e       ?clear@QGVector@@MAEXXZ    00413d1e f   qt-mt323:qt-mt323.dll
 0001:00012d24       ??4QGVector@@IAEAAV0@ABV0@@Z 00413d24 f   qt-mt323:qt-mt323.dll
 0001:00012d2a       ??8QGVector@@IBE_NABV0@@Z  00413d2a f   qt-mt323:qt-mt323.dll
 0001:00012d30       ?resize@QGVector@@IAE_NI@Z 00413d30 f   qt-mt323:qt-mt323.dll
 0001:00012d36       ?insert@QGVector@@IAE_NIPAX@Z 00413d36 f   qt-mt323:qt-mt323.dll
 0001:00012d3c       ?remove@QGVector@@IAE_NI@Z 00413d3c f   qt-mt323:qt-mt323.dll
 0001:00012d42       ?take@QGVector@@IAEPAXI@Z  00413d42 f   qt-mt323:qt-mt323.dll
 0001:00012d48       ?fill@QGVector@@IAE_NPAXH@Z 00413d48 f   qt-mt323:qt-mt323.dll
 0001:00012d4e       ?sort@QGVector@@IAEXXZ     00413d4e f   qt-mt323:qt-mt323.dll
 0001:00012d54       ?bsearch@QGVector@@IBEHPAX@Z 00413d54 f   qt-mt323:qt-mt323.dll
 0001:00012d5a       ?findRef@QGVector@@IBEHPAXI@Z 00413d5a f   qt-mt323:qt-mt323.dll
 0001:00012d60       ?find@QGVector@@IBEHPAXI@Z 00413d60 f   qt-mt323:qt-mt323.dll
 0001:00012d66       ?containsRef@QGVector@@IBEIPAX@Z 00413d66 f   qt-mt323:qt-mt323.dll
 0001:00012d6c       ?contains@QGVector@@IBEIPAX@Z 00413d6c f   qt-mt323:qt-mt323.dll
 0001:00012d72       ?warningIndexRange@QGVector@@CAXI@Z 00413d72 f   qt-mt323:qt-mt323.dll
 0001:00012d78       ?toList@QGVector@@IBEXPAVQGList@@@Z 00413d78 f   qt-mt323:qt-mt323.dll
 0001:00012d7e       ??1?$QPtrVector@H@@UAE@XZ  00413d7e f   qt-mt323:qt-mt323.dll
 0001:00012d84       ??1?$QPtrVector@VQWidget@@@@UAE@XZ 00413d84 f   qt-mt323:qt-mt323.dll
 0001:00012d8a       ??1?$QAsciiDict@VQConnectionList@@@@UAE@XZ 00413d8a f   qt-mt323:qt-mt323.dll
 0001:00012d90       ?set@QUType_ptr@@QAEXPAUQUObject@@PBX@Z 00413d90 f   qt-mt323:qt-mt323.dll
 0001:00012d96       ?staticMetaObject@QMainWindow@@SAPAVQMetaObject@@XZ 00413d96 f   qt-mt323:qt-mt323.dll
 0001:00012d9c       ?qt_cast@QMainWindow@@UAEPAXPBD@Z 00413d9c f   qt-mt323:qt-mt323.dll
 0001:00012da2       ?qt_invoke@QMainWindow@@UAE_NHPAUQUObject@@@Z 00413da2 f   qt-mt323:qt-mt323.dll
 0001:00012da8       ?qt_emit@QMainWindow@@UAE_NHPAUQUObject@@@Z 00413da8 f   qt-mt323:qt-mt323.dll
 0001:00012dae       ?qt_property@QMainWindow@@UAE_NHHPAVQVariant@@@Z 00413dae f   qt-mt323:qt-mt323.dll
 0001:00012db4       ?createPopupMenu@QLineEdit@@MAEPAVQPopupMenu@@XZ 00413db4 f   qt-mt323:qt-mt323.dll
 0001:00012dba       ?setDragEnabled@QLineEdit@@UAEX_N@Z 00413dba f   qt-mt323:qt-mt323.dll
 0001:00012dc0       ?paste@QLineEdit@@UAEXXZ   00413dc0 f   qt-mt323:qt-mt323.dll
 0001:00012dc6       ?copy@QLineEdit@@UBEXXZ    00413dc6 f   qt-mt323:qt-mt323.dll
 0001:00012dcc       ?cut@QLineEdit@@UAEXXZ     00413dcc f   qt-mt323:qt-mt323.dll
 0001:00012dd2       ?setAlignment@QLineEdit@@UAEXH@Z 00413dd2 f   qt-mt323:qt-mt323.dll
 0001:00012dd8       ?setCursorPosition@QLineEdit@@UAEXH@Z 00413dd8 f   qt-mt323:qt-mt323.dll
 0001:00012dde       ?setSelection@QLineEdit@@UAEXHH@Z 00413dde f   qt-mt323:qt-mt323.dll
 0001:00012de4       ?setValidator@QLineEdit@@UAEXPBVQValidator@@@Z 00413de4 f   qt-mt323:qt-mt323.dll
 0001:00012dea       ?setReadOnly@QLineEdit@@UAEX_N@Z 00413dea f   qt-mt323:qt-mt323.dll
 0001:00012df0       ?setEchoMode@QLineEdit@@UAEXW4EchoMode@1@@Z 00413df0 f   qt-mt323:qt-mt323.dll
 0001:00012df6       ?setFrame@QLineEdit@@UAEX_N@Z 00413df6 f   qt-mt323:qt-mt323.dll
 0001:00012dfc       ?setMaxLength@QLineEdit@@UAEXH@Z 00413dfc f   qt-mt323:qt-mt323.dll
 0001:00012e02       ?redo@QLineEdit@@UAEXXZ    00413e02 f   qt-mt323:qt-mt323.dll
 0001:00012e08       ?undo@QLineEdit@@UAEXXZ    00413e08 f   qt-mt323:qt-mt323.dll
 0001:00012e0e       ?clear@QLineEdit@@UAEXXZ   00413e0e f   qt-mt323:qt-mt323.dll
 0001:00012e14       ?insert@QLineEdit@@UAEXABVQString@@@Z 00413e14 f   qt-mt323:qt-mt323.dll
 0001:00012e1a       ?clearValidator@QLineEdit@@UAEXXZ 00413e1a f   qt-mt323:qt-mt323.dll
 0001:00012e20       ?deselect@QLineEdit@@UAEXXZ 00413e20 f   qt-mt323:qt-mt323.dll
 0001:00012e26       ?selectAll@QLineEdit@@UAEXXZ 00413e26 f   qt-mt323:qt-mt323.dll
 0001:00012e2c       ?setText@QLineEdit@@UAEXABVQString@@@Z 00413e2c f   qt-mt323:qt-mt323.dll
 0001:00012e32       ?drawContents@QLineEdit@@MAEXPAVQPainter@@@Z 00413e32 f   qt-mt323:qt-mt323.dll
 0001:00012e38       ?windowActivationChange@QLineEdit@@MAEX_N@Z 00413e38 f   qt-mt323:qt-mt323.dll
 0001:00012e3e       ?dropEvent@QLineEdit@@MAEXPAVQDropEvent@@@Z 00413e3e f   qt-mt323:qt-mt323.dll
 0001:00012e44       ?dragLeaveEvent@QLineEdit@@MAEXPAVQDragLeaveEvent@@@Z 00413e44 f   qt-mt323:qt-mt323.dll
 0001:00012e4a       ?dragMoveEvent@QLineEdit@@MAEXPAVQDragMoveEvent@@@Z 00413e4a f   qt-mt323:qt-mt323.dll
 0001:00012e50       ?dragEnterEvent@QLineEdit@@MAEXPAVQDragEnterEvent@@@Z 00413e50 f   qt-mt323:qt-mt323.dll
 0001:00012e56       ?imEndEvent@QLineEdit@@MAEXPAVQIMEvent@@@Z 00413e56 f   qt-mt323:qt-mt323.dll
 0001:00012e5c       ?imComposeEvent@QLineEdit@@MAEXPAVQIMEvent@@@Z 00413e5c f   qt-mt323:qt-mt323.dll
 0001:00012e62       ?imStartEvent@QLineEdit@@MAEXPAVQIMEvent@@@Z 00413e62 f   qt-mt323:qt-mt323.dll
 0001:00012e68       ?contextMenuEvent@QLineEdit@@MAEXPAVQContextMenuEvent@@@Z 00413e68 f   qt-mt323:qt-mt323.dll
 0001:00012e6e       ?resizeEvent@QLineEdit@@MAEXPAVQResizeEvent@@@Z 00413e6e f   qt-mt323:qt-mt323.dll
 0001:00012e74       ?focusOutEvent@QLineEdit@@MAEXPAVQFocusEvent@@@Z 00413e74 f   qt-mt323:qt-mt323.dll
 0001:00012e7a       ?focusInEvent@QLineEdit@@MAEXPAVQFocusEvent@@@Z 00413e7a f   qt-mt323:qt-mt323.dll
 0001:00012e80       ?keyPressEvent@QLineEdit@@MAEXPAVQKeyEvent@@@Z 00413e80 f   qt-mt323:qt-mt323.dll
 0001:00012e86       ?mouseMoveEvent@QLineEdit@@MAEXPAVQMouseEvent@@@Z 00413e86 f   qt-mt323:qt-mt323.dll
 0001:00012e8c       ?mouseDoubleClickEvent@QLineEdit@@MAEXPAVQMouseEvent@@@Z 00413e8c f   qt-mt323:qt-mt323.dll
 0001:00012e92       ?mouseReleaseEvent@QLineEdit@@MAEXPAVQMouseEvent@@@Z 00413e92 f   qt-mt323:qt-mt323.dll
 0001:00012e98       ?mousePressEvent@QLineEdit@@MAEXPAVQMouseEvent@@@Z 00413e98 f   qt-mt323:qt-mt323.dll
 0001:00012e9e       ?minimumSizeHint@QLineEdit@@UBE?AVQSize@@XZ 00413e9e f   qt-mt323:qt-mt323.dll
 0001:00012ea4       ?sizeHint@QLineEdit@@UBE?AVQSize@@XZ 00413ea4 f   qt-mt323:qt-mt323.dll
 0001:00012eaa       ?setFont@QLineEdit@@UAEXABVQFont@@@Z 00413eaa f   qt-mt323:qt-mt323.dll
 0001:00012eb0       ?setPalette@QLineEdit@@UAEXABVQPalette@@@Z 00413eb0 f   qt-mt323:qt-mt323.dll
 0001:00012eb6       ?event@QLineEdit@@MAE_NPAVQEvent@@@Z 00413eb6 f   qt-mt323:qt-mt323.dll
 0001:00012ebc       ?qt_property@QLineEdit@@UAE_NHHPAVQVariant@@@Z 00413ebc f   qt-mt323:qt-mt323.dll
 0001:00012ec2       ?qt_emit@QLineEdit@@UAE_NHPAUQUObject@@@Z 00413ec2 f   qt-mt323:qt-mt323.dll
 0001:00012ec8       ?qt_invoke@QLineEdit@@UAE_NHPAUQUObject@@@Z 00413ec8 f   qt-mt323:qt-mt323.dll
 0001:00012ece       ?qt_cast@QLineEdit@@UAEPAXPBD@Z 00413ece f   qt-mt323:qt-mt323.dll
 0001:00012ed4       ?className@QLineEdit@@UBEPBDXZ 00413ed4 f   qt-mt323:qt-mt323.dll
 0001:00012eda       ?metaObject@QLineEdit@@UBEPAVQMetaObject@@XZ 00413eda f   qt-mt323:qt-mt323.dll
 0001:00012ee0       ?paintEmptyArea@QListView@@MAEXPAVQPainter@@ABVQRect@@@Z 00413ee0 f   qt-mt323:qt-mt323.dll
 0001:00012ee6       ?startDrag@QListView@@MAEXXZ 00413ee6 f   qt-mt323:qt-mt323.dll
 0001:00012eec       ?dragObject@QListView@@MAEPAVQDragObject@@XZ 00413eec f   qt-mt323:qt-mt323.dll
 0001:00012ef2       ?selectAll@QListView@@UAEX_N@Z 00413ef2 f   qt-mt323:qt-mt323.dll
 0001:00012ef8       ?invertSelection@QListView@@UAEXXZ 00413ef8 f   qt-mt323:qt-mt323.dll
 0001:00012efe       ?clear@QListView@@UAEXXZ   00413efe f   qt-mt323:qt-mt323.dll
 0001:00012f04       ?setDefaultRenameAction@QListView@@UAEXW4RenameAction@1@@Z 00413f04 f   qt-mt323:qt-mt323.dll
 0001:00012f0a       ?setResizeMode@QListView@@UAEXW4ResizeMode@1@@Z 00413f0a f   qt-mt323:qt-mt323.dll
 0001:00012f10       ?setShowToolTips@QListView@@UAEX_N@Z 00413f10 f   qt-mt323:qt-mt323.dll
 0001:00012f16       ?setShowSortIndicator@QListView@@UAEX_N@Z 00413f16 f   qt-mt323:qt-mt323.dll
 0001:00012f1c       ?sort@QListView@@UAEXXZ    00413f1c f   qt-mt323:qt-mt323.dll
 0001:00012f22       ?setSorting@QListView@@UAEXH_N@Z 00413f22 f   qt-mt323:qt-mt323.dll
 0001:00012f28       ?setRootIsDecorated@QListView@@UAEX_N@Z 00413f28 f   qt-mt323:qt-mt323.dll
 0001:00012f2e       ?setItemMargin@QListView@@UAEXH@Z 00413f2e f   qt-mt323:qt-mt323.dll
 0001:00012f34       ?setAllColumnsShowFocus@QListView@@UAEX_N@Z 00413f34 f   qt-mt323:qt-mt323.dll
 0001:00012f3a       ?setCurrentItem@QListView@@UAEXPAVQListViewItem@@@Z 00413f3a f   qt-mt323:qt-mt323.dll
 0001:00012f40       ?setOpen@QListView@@UAEXPAVQListViewItem@@_N@Z 00413f40 f   qt-mt323:qt-mt323.dll
 0001:00012f46       ?setSelected@QListView@@UAEXPAVQListViewItem@@_N@Z 00413f46 f   qt-mt323:qt-mt323.dll
 0001:00012f4c       ?clearSelection@QListView@@UAEXXZ 00413f4c f   qt-mt323:qt-mt323.dll
 0001:00012f52       ?setMultiSelection@QListView@@UAEX_N@Z 00413f52 f   qt-mt323:qt-mt323.dll
 0001:00012f58       ?setColumnAlignment@QListView@@UAEXHH@Z 00413f58 f   qt-mt323:qt-mt323.dll
 0001:00012f5e       ?setColumnWidthMode@QListView@@UAEXHW4WidthMode@1@@Z 00413f5e f   qt-mt323:qt-mt323.dll
 0001:00012f64       ?setColumnWidth@QListView@@UAEXHH@Z 00413f64 f   qt-mt323:qt-mt323.dll
 0001:00012f6a       ?setColumnText@QListView@@UAEXHABVQString@@@Z 00413f6a f   qt-mt323:qt-mt323.dll
 0001:00012f70       ?setColumnText@QListView@@UAEXHABVQIconSet@@ABVQString@@@Z 00413f70 f   qt-mt323:qt-mt323.dll
 0001:00012f76       ?removeColumn@QListView@@UAEXH@Z 00413f76 f   qt-mt323:qt-mt323.dll
 0001:00012f7c       ?addColumn@QListView@@UAEHABVQString@@H@Z 00413f7c f   qt-mt323:qt-mt323.dll
 0001:00012f82       ?addColumn@QListView@@UAEHABVQIconSet@@ABVQString@@H@Z 00413f82 f   qt-mt323:qt-mt323.dll
 0001:00012f88       ?removeItem@QListView@@UAEXPAVQListViewItem@@@Z 00413f88 f   qt-mt323:qt-mt323.dll
 0001:00012f8e       ?takeItem@QListView@@UAEXPAVQListViewItem@@@Z 00413f8e f   qt-mt323:qt-mt323.dll
 0001:00012f94       ?insertItem@QListView@@UAEXPAVQListViewItem@@@Z 00413f94 f   qt-mt323:qt-mt323.dll
 0001:00012f9a       ?setTreeStepSize@QListView@@UAEXH@Z 00413f9a f   qt-mt323:qt-mt323.dll
 0001:00012fa0       ?setVBarGeometry@QScrollView@@MAEXAAVQScrollBar@@HHHH@Z 00413fa0 f   qt-mt323:qt-mt323.dll
 0001:00012fa6       ?setHBarGeometry@QScrollView@@MAEXAAVQScrollBar@@HHHH@Z 00413fa6 f   qt-mt323:qt-mt323.dll
 0001:00012fac       ?setMargins@QScrollView@@MAEXHHHH@Z 00413fac f   qt-mt323:qt-mt323.dll
 0001:00012fb2       ?viewportContextMenuEvent@QScrollView@@MAEXPAVQContextMenuEvent@@@Z 00413fb2 f   qt-mt323:qt-mt323.dll
 0001:00012fb8       ?viewportWheelEvent@QScrollView@@MAEXPAVQWheelEvent@@@Z 00413fb8 f   qt-mt323:qt-mt323.dll
 0001:00012fbe       ?viewportDropEvent@QScrollView@@MAEXPAVQDropEvent@@@Z 00413fbe f   qt-mt323:qt-mt323.dll
 0001:00012fc4       ?viewportDragLeaveEvent@QScrollView@@MAEXPAVQDragLeaveEvent@@@Z 00413fc4 f   qt-mt323:qt-mt323.dll
 0001:00012fca       ?viewportDragMoveEvent@QScrollView@@MAEXPAVQDragMoveEvent@@@Z 00413fca f   qt-mt323:qt-mt323.dll
 0001:00012fd0       ?viewportDragEnterEvent@QScrollView@@MAEXPAVQDragEnterEvent@@@Z 00413fd0 f   qt-mt323:qt-mt323.dll
 0001:00012fd6       ?viewportMouseMoveEvent@QScrollView@@MAEXPAVQMouseEvent@@@Z 00413fd6 f   qt-mt323:qt-mt323.dll
 0001:00012fdc       ?viewportMouseDoubleClickEvent@QScrollView@@MAEXPAVQMouseEvent@@@Z 00413fdc f   qt-mt323:qt-mt323.dll
 0001:00012fe2       ?viewportMouseReleaseEvent@QScrollView@@MAEXPAVQMouseEvent@@@Z 00413fe2 f   qt-mt323:qt-mt323.dll
 0001:00012fe8       ?viewportMousePressEvent@QScrollView@@MAEXPAVQMouseEvent@@@Z 00413fe8 f   qt-mt323:qt-mt323.dll
 0001:00012fee       ?viewportResizeEvent@QListView@@MAEXPAVQResizeEvent@@@Z 00413fee f   qt-mt323:qt-mt323.dll
 0001:00012ff4       ?viewportPaintEvent@QScrollView@@MAEXPAVQPaintEvent@@@Z 00413ff4 f   qt-mt323:qt-mt323.dll
 0001:00012ffa       ?contentsContextMenuEvent@QListView@@MAEXPAVQContextMenuEvent@@@Z 00413ffa f   qt-mt323:qt-mt323.dll
 0001:00013000       ?contentsWheelEvent@QScrollView@@MAEXPAVQWheelEvent@@@Z 00414000 f   qt-mt323:qt-mt323.dll
 0001:00013006       ?contentsDropEvent@QListView@@MAEXPAVQDropEvent@@@Z 00414006 f   qt-mt323:qt-mt323.dll
 0001:0001300c       ?contentsDragLeaveEvent@QListView@@MAEXPAVQDragLeaveEvent@@@Z 0041400c f   qt-mt323:qt-mt323.dll
 0001:00013012       ?contentsDragMoveEvent@QListView@@MAEXPAVQDragMoveEvent@@@Z 00414012 f   qt-mt323:qt-mt323.dll
 0001:00013018       ?contentsDragEnterEvent@QListView@@MAEXPAVQDragEnterEvent@@@Z 00414018 f   qt-mt323:qt-mt323.dll
 0001:0001301e       ?contentsMouseMoveEvent@QListView@@MAEXPAVQMouseEvent@@@Z 0041401e f   qt-mt323:qt-mt323.dll
 0001:00013024       ?contentsMouseDoubleClickEvent@QListView@@MAEXPAVQMouseEvent@@@Z 00414024 f   qt-mt323:qt-mt323.dll
 0001:0001302a       ?contentsMouseReleaseEvent@QListView@@MAEXPAVQMouseEvent@@@Z 0041402a f   qt-mt323:qt-mt323.dll
 0001:00013030       ?contentsMousePressEvent@QListView@@MAEXPAVQMouseEvent@@@Z 00414030 f   qt-mt323:qt-mt323.dll
 0001:00013036       ?drawContentsOffset@QListView@@MAEXPAVQPainter@@HHHHHH@Z 00414036 f   qt-mt323:qt-mt323.dll
 0001:0001303c       ?drawContents@QScrollView@@MAEXPAVQPainter@@HHHH@Z 0041403c f   qt-mt323:qt-mt323.dll
 0001:00013042       ?setContentsPos@QListView@@UAEXHH@Z 00414042 f   qt-mt323:qt-mt323.dll
 0001:00013048       ?resizeContents@QScrollView@@UAEXHH@Z 00414048 f   qt-mt323:qt-mt323.dll
 0001:0001304e       ?setDragAutoScroll@QScrollView@@UAEX_N@Z 0041404e f   qt-mt323:qt-mt323.dll
 0001:00013054       ?setCornerWidget@QScrollView@@UAEXPAVQWidget@@@Z 00414054 f   qt-mt323:qt-mt323.dll
 0001:0001305a       ?setHScrollBarMode@QScrollView@@UAEXW4ScrollBarMode@1@@Z 0041405a f   qt-mt323:qt-mt323.dll
 0001:00013060       ?setVScrollBarMode@QScrollView@@UAEXW4ScrollBarMode@1@@Z 00414060 f   qt-mt323:qt-mt323.dll
 0001:00013066       ?moveChild@QScrollView@@UAEXPAVQWidget@@HH@Z 00414066 f   qt-mt323:qt-mt323.dll
 0001:0001306c       ?addChild@QScrollView@@UAEXPAVQWidget@@HH@Z 0041406c f   qt-mt323:qt-mt323.dll
 0001:00013072       ?setResizePolicy@QScrollView@@UAEXW4ResizePolicy@1@@Z 00414072 f   qt-mt323:qt-mt323.dll
 0001:00013078       ?frameChanged@QScrollView@@MAEXXZ 00414078 f   qt-mt323:qt-mt323.dll
 0001:0001307e       ?drawContents@QScrollView@@EAEXPAVQPainter@@@Z 0041407e f   qt-mt323:qt-mt323.dll
 0001:00013084       ?focusNextPrevChild@QScrollView@@MAE_N_N@Z 00414084 f   qt-mt323:qt-mt323.dll
 0001:0001308a       ?windowActivationChange@QListView@@MAEX_N@Z 0041408a f   qt-mt323:qt-mt323.dll
 0001:00013090       ?fontChange@QScrollView@@MAEXABVQFont@@@Z 00414090 f   qt-mt323:qt-mt323.dll
 0001:00013096       ?styleChange@QListView@@MAEXAAVQStyle@@@Z 00414096 f   qt-mt323:qt-mt323.dll
 0001:0001309c       ?showEvent@QListView@@MAEXPAVQShowEvent@@@Z 0041409c f   qt-mt323:qt-mt323.dll
 0001:000130a2       ?contextMenuEvent@QScrollView@@MAEXPAVQContextMenuEvent@@@Z 004140a2 f   qt-mt323:qt-mt323.dll
 0001:000130a8       ?resizeEvent@QListView@@MAEXPAVQResizeEvent@@@Z 004140a8 f   qt-mt323:qt-mt323.dll
 0001:000130ae       ?focusOutEvent@QListView@@MAEXPAVQFocusEvent@@@Z 004140ae f   qt-mt323:qt-mt323.dll
 0001:000130b4       ?focusInEvent@QListView@@MAEXPAVQFocusEvent@@@Z 004140b4 f   qt-mt323:qt-mt323.dll
 0001:000130ba       ?keyPressEvent@QListView@@MAEXPAVQKeyEvent@@@Z 004140ba f   qt-mt323:qt-mt323.dll
 0001:000130c0       ?wheelEvent@QScrollView@@MAEXPAVQWheelEvent@@@Z 004140c0 f   qt-mt323:qt-mt323.dll
 0001:000130c6       ?mouseMoveEvent@QScrollView@@MAEXPAVQMouseEvent@@@Z 004140c6 f   qt-mt323:qt-mt323.dll
 0001:000130cc       ?mouseDoubleClickEvent@QScrollView@@MAEXPAVQMouseEvent@@@Z 004140cc f   qt-mt323:qt-mt323.dll
 0001:000130d2       ?mouseReleaseEvent@QScrollView@@MAEXPAVQMouseEvent@@@Z 004140d2 f   qt-mt323:qt-mt323.dll
 0001:000130d8       ?mousePressEvent@QScrollView@@MAEXPAVQMouseEvent@@@Z 004140d8 f   qt-mt323:qt-mt323.dll
 0001:000130de       ?minimumSizeHint@QListView@@UBE?AVQSize@@XZ 004140de f   qt-mt323:qt-mt323.dll
 0001:000130e4       ?sizeHint@QListView@@UBE?AVQSize@@XZ 004140e4 f   qt-mt323:qt-mt323.dll
 0001:000130ea       ?resize@QScrollView@@UAEXHH@Z 004140ea f   qt-mt323:qt-mt323.dll
 0001:000130f0       ?show@QListView@@UAEXXZ    004140f0 f   qt-mt323:qt-mt323.dll
 0001:000130f6       ?setFont@QListView@@UAEXABVQFont@@@Z 004140f6 f   qt-mt323:qt-mt323.dll
 0001:000130fc       ?setPalette@QListView@@UAEXABVQPalette@@@Z 004140fc f   qt-mt323:qt-mt323.dll
 0001:00013102       ?setEnabled@QScrollView@@UAEX_N@Z 00414102 f   qt-mt323:qt-mt323.dll
 0001:00013108       ?removeChild@QScrollView@@UAEXPAVQObject@@@Z 00414108 f   qt-mt323:qt-mt323.dll
 0001:0001310e       ?eventFilter@QListView@@UAE_NPAVQObject@@PAVQEvent@@@Z 0041410e f   qt-mt323:qt-mt323.dll
 0001:00013114       ?qt_property@QListView@@UAE_NHHPAVQVariant@@@Z 00414114 f   qt-mt323:qt-mt323.dll
 0001:0001311a       ?qt_emit@QListView@@UAE_NHPAUQUObject@@@Z 0041411a f   qt-mt323:qt-mt323.dll
 0001:00013120       ?qt_invoke@QListView@@UAE_NHPAUQUObject@@@Z 00414120 f   qt-mt323:qt-mt323.dll
 0001:00013126       ?qt_cast@QListView@@UAEPAXPBD@Z 00414126 f   qt-mt323:qt-mt323.dll
 0001:0001312c       ?className@QListView@@UBEPBDXZ 0041412c f   qt-mt323:qt-mt323.dll
 0001:00013132       ?metaObject@QListView@@UBEPAVQMetaObject@@XZ 00414132 f   qt-mt323:qt-mt323.dll
 0001:00013138       ?setAlignment@QGroupBox@@UAEXH@Z 00414138 f   qt-mt323:qt-mt323.dll
 0001:0001313e       ?setTitle@QGroupBox@@UAEXABVQString@@@Z 0041413e f   qt-mt323:qt-mt323.dll
 0001:00013144       ?setColumnLayout@QGroupBox@@UAEXHW4Orientation@Qt@@@Z 00414144 f   qt-mt323:qt-mt323.dll
 0001:0001314a       ?drawContents@QFrame@@MAEXPAVQPainter@@@Z 0041414a f   qt-mt323:qt-mt323.dll
 0001:00013150       ?fontChange@QGroupBox@@MAEXABVQFont@@@Z 00414150 f   qt-mt323:qt-mt323.dll
 0001:00013156       ?resizeEvent@QGroupBox@@MAEXPAVQResizeEvent@@@Z 00414156 f   qt-mt323:qt-mt323.dll
 0001:0001315c       ?paintEvent@QGroupBox@@MAEXPAVQPaintEvent@@@Z 0041415c f   qt-mt323:qt-mt323.dll
 0001:00013162       ?focusInEvent@QGroupBox@@MAEXPAVQFocusEvent@@@Z 00414162 f   qt-mt323:qt-mt323.dll
 0001:00013168       ?sizeHint@QGroupBox@@UBE?AVQSize@@XZ 00414168 f   qt-mt323:qt-mt323.dll
 0001:0001316e       ?setEnabled@QGroupBox@@UAEX_N@Z 0041416e f   qt-mt323:qt-mt323.dll
 0001:00013174       ?childEvent@QGroupBox@@MAEXPAVQChildEvent@@@Z 00414174 f   qt-mt323:qt-mt323.dll
 0001:0001317a       ?event@QGroupBox@@MAE_NPAVQEvent@@@Z 0041417a f   qt-mt323:qt-mt323.dll
 0001:00013180       ?qt_property@QGroupBox@@UAE_NHHPAVQVariant@@@Z 00414180 f   qt-mt323:qt-mt323.dll
 0001:00013186       ?qt_emit@QGroupBox@@UAE_NHPAUQUObject@@@Z 00414186 f   qt-mt323:qt-mt323.dll
 0001:0001318c       ?qt_invoke@QGroupBox@@UAE_NHPAUQUObject@@@Z 0041418c f   qt-mt323:qt-mt323.dll
 0001:00013192       ?qt_cast@QGroupBox@@UAEPAXPBD@Z 00414192 f   qt-mt323:qt-mt323.dll
 0001:00013198       ?className@QGroupBox@@UBEPBDXZ 00414198 f   qt-mt323:qt-mt323.dll
 0001:0001319e       ?metaObject@QGroupBox@@UBEPAVQMetaObject@@XZ 0041419e f   qt-mt323:qt-mt323.dll
 0001:000131a4       ?sizeHint@QWidget@@UBE?AVQSize@@XZ 004141a4 f   qt-mt323:qt-mt323.dll
 0001:000131aa       ?qt_property@QWidget@@UAE_NHHPAVQVariant@@@Z 004141aa f   qt-mt323:qt-mt323.dll
 0001:000131b0       ?qt_emit@QWidget@@UAE_NHPAUQUObject@@@Z 004141b0 f   qt-mt323:qt-mt323.dll
 0001:000131b6       ?qt_invoke@QWidget@@UAE_NHPAUQUObject@@@Z 004141b6 f   qt-mt323:qt-mt323.dll
 0001:000131bc       ?qt_cast@QWidget@@UAEPAXPBD@Z 004141bc f   qt-mt323:qt-mt323.dll
 0001:000131c2       ?className@QWidget@@UBEPBDXZ 004141c2 f   qt-mt323:qt-mt323.dll
 0001:000131c8       ?metaObject@QWidget@@UBEPAVQMetaObject@@XZ 004141c8 f   qt-mt323:qt-mt323.dll
 0001:000131ce       ??1QMainWindow@@UAE@XZ     004141ce f   qt-mt323:qt-mt323.dll
 0001:000131d4       ??0QLineEdit@@QAE@PAVQWidget@@PBD@Z 004141d4 f   qt-mt323:qt-mt323.dll
 0001:000131da       ??0QListView@@QAE@PAVQWidget@@PBDI@Z 004141da f   qt-mt323:qt-mt323.dll
 0001:000131e0       ??0QHBoxLayout@@QAE@PAVQLayout@@HPBD@Z 004141e0 f   qt-mt323:qt-mt323.dll
 0001:000131e6       ??0QGroupBox@@QAE@PAVQWidget@@PBD@Z 004141e6 f   qt-mt323:qt-mt323.dll
 0001:000131ec       ?centralWidget@QMainWindow@@QBEPAVQWidget@@XZ 004141ec f   qt-mt323:qt-mt323.dll
 0001:000131f2       ??0QWidget@@QAE@PAV0@PBDI@Z 004141f2 f   qt-mt323:qt-mt323.dll
 0001:000131f8       ?statusBar@QMainWindow@@QBEPAVQStatusBar@@XZ 004141f8 f   qt-mt323:qt-mt323.dll
 0001:000131fe       ??0QMainWindow@@QAE@PAVQWidget@@PBDI@Z 004141fe f   qt-mt323:qt-mt323.dll
 0001:00013204       ??1QWidget@@UAE@XZ         00414204 f   qt-mt323:qt-mt323.dll
 0001:0001320a       ??1QGroupBox@@UAE@XZ       0041420a f   qt-mt323:qt-mt323.dll
 0001:00013210       ??1QListView@@UAE@XZ       00414210 f   qt-mt323:qt-mt323.dll
 0001:00013216       ??1QLineEdit@@UAE@XZ       00414216 f   qt-mt323:qt-mt323.dll
 0001:0001321c       ?header@QListView@@QBEPAVQHeader@@XZ 0041421c f   qt-mt323:qt-mt323.dll
 0001:00013230       ?sysInit@QtSingleApplication@@AAEXXZ 00414230 f   QTSingleApplication:qtsingleapplication_win.obj
 0001:00013250       ?sysCleanup@QtSingleApplication@@AAEXXZ 00414250 f   QTSingleApplication:qtsingleapplication_win.obj
 0001:00013260       ?initialize@QtSingleApplication@@QAEX_N@Z 00414260 f   QTSingleApplication:qtsingleapplication_win.obj
 0001:00013360       ?isRunning@QtSingleApplication@@QBE_NXZ 00414360 f   QTSingleApplication:qtsingleapplication_win.obj
 0001:00013400       ?sendMessage@QtSingleApplication@@QAE_NABVQString@@H@Z 00414400 f   QTSingleApplication:qtsingleapplication_win.obj
 0001:00013500       ?winEventFilter@QtSingleApplication@@MAE_NPAUtagMSG@@@Z 00414500 f   QTSingleApplication:qtsingleapplication_win.obj
 0001:000135c0       ??0QtSingleApplication@@QAE@ABVQString@@AAHPAPADW4Type@QApplication@@@Z 004145c0 f   QTSingleApplication:qtsingleapplication.obj
 0001:00013670       ?metaObject@QtSingleApplication@@UBEPAVQMetaObject@@XZ 00414670 f i QTSingleApplication:qtsingleapplication.obj
 0001:00013680       ??_GQtSingleApplication@@UAEPAXI@Z 00414680 f i QTSingleApplication:qtsingleapplication.obj
 0001:00013680       ??_EQtSingleApplication@@UAEPAXI@Z 00414680 f i QTSingleApplication:qtsingleapplication.obj
 0001:000136a0       ??1QtSingleApplication@@UAE@XZ 004146a0 f   QTSingleApplication:qtsingleapplication.obj
 0001:00013720       ?id@QtSingleApplication@@QBE?AVQString@@XZ 00414720 f   QTSingleApplication:qtsingleapplication.obj
 0001:00013750       ?activateMainWidget@QtSingleApplication@@UAEXXZ 00414750 f   QTSingleApplication:qtsingleapplication.obj
 0001:00013770       ?className@QtSingleApplication@@UBEPBDXZ 00414770 f   QTSingleApplication:moc_qtsingleapplication.obj
 0001:000137d0       ?tr@QtSingleApplication@@SA?AVQString@@PBD0@Z 004147d0 f   QTSingleApplication:moc_qtsingleapplication.obj
 0001:00013820       ?trUtf8@QtSingleApplication@@SA?AVQString@@PBD0@Z 00414820 f   QTSingleApplication:moc_qtsingleapplication.obj
 0001:00013870       ?staticMetaObject@QtSingleApplication@@SAPAVQMetaObject@@XZ 00414870 f   QTSingleApplication:moc_qtsingleapplication.obj
 0001:000139a0       ?qt_cast@QtSingleApplication@@UAEPAXPBD@Z 004149a0 f   QTSingleApplication:moc_qtsingleapplication.obj
 0001:00013a10       ?messageReceived@QtSingleApplication@@IAEXABVQString@@@Z 00414a10 f   QTSingleApplication:moc_qtsingleapplication.obj
 0001:00013a70       ?qt_invoke@QtSingleApplication@@UAE_NHPAUQUObject@@@Z 00414a70 f   QTSingleApplication:moc_qtsingleapplication.obj
 0001:00013af0       ?qt_emit@QtSingleApplication@@UAE_NHPAUQUObject@@@Z 00414af0 f   QTSingleApplication:moc_qtsingleapplication.obj
 0001:00013b30       ?qt_property@QtSingleApplication@@UAE_NHHPAVQVariant@@@Z 00414b30 f   QTSingleApplication:moc_qtsingleapplication.obj
 0001:00013b50       ?qt_static_property@QtSingleApplication@@SA_NPAVQObject@@HHPAVQVariant@@@Z 00414b50 f   QTSingleApplication:moc_qtsingleapplication.obj
 0001:00013b60       ___CxxFrameHandler         00414b60 f   MSVCRT:MSVCRT.dll
 0001:00013b70       ??3@YAXPAX@Z               00414b70 f   MSVCRT:MSVCRT.dll
 0001:00013b76       __onexit                   00414b76 f   MSVCRT:atonexit.obj
 0001:00013ba2       _atexit                    00414ba2 f   MSVCRT:atonexit.obj
 0001:00013bb4       ??2@YAPAXI@Z               00414bb4 f   MSVCRT:MSVCRT.dll
 0001:00013bba       _atoi                      00414bba f   MSVCRT:MSVCRT.dll
 0001:00013bc0       _getenv                    00414bc0 f   MSVCRT:MSVCRT.dll
 0001:00013bc6       _sprintf                   00414bc6 f   MSVCRT:MSVCRT.dll
 0001:00013bcc       __ftol                     00414bcc f   MSVCRT:MSVCRT.dll
 0001:00013bd2       ??_M@YGXPAXIHP6EX0@Z@Z     00414bd2 f   MSVCRT:ehvecdtr.obj
 0001:00013c52       ?__ArrayUnwind@@YGXPAXIHP6EX0@Z@Z 00414c52 f   MSVCRT:ehvecdtr.obj
 0001:00013cc6       ??_L@YGXPAXIHP6EX0@Z1@Z    00414cc6 f   MSVCRT:ehvecctr.obj
 0001:00013d48       _WinMainCRTStartup         00414d48 f   MSVCRT:crtexew.obj
 0001:00013ea6       __purecall                 00414ea6 f   MSVCRT:MSVCRT.dll
 0001:00013eb0       __alloca_probe             00414eb0 f   MSVCRT:chkstk.obj
 0001:00013eb0       __chkstk                   00414eb0 f   MSVCRT:chkstk.obj
 0001:00013ee0       _vsprintf                  00414ee0 f   MSVCRT:MSVCRT.dll
 0001:00013ee6       _localtime                 00414ee6 f   MSVCRT:MSVCRT.dll
 0001:00013eec       _time                      00414eec f   MSVCRT:MSVCRT.dll
 0001:00013ef2       _strncpy                   00414ef2 f   MSVCRT:MSVCRT.dll
 0001:00013ef8       __mkdir                    00414ef8 f   MSVCRT:MSVCRT.dll
 0001:00013efe       _strtok                    00414efe f   MSVCRT:MSVCRT.dll
 0001:00013f04       _free                      00414f04 f   MSVCRT:MSVCRT.dll
 0001:00013f0a       _strpbrk                   00414f0a f   MSVCRT:MSVCRT.dll
 0001:00013f10       _malloc                    00414f10 f   MSVCRT:MSVCRT.dll
 0001:00013f16       ___dllonexit               00414f16 f   MSVCRT:MSVCRT.dll
 0001:00013f1c       __except_handler3          00414f1c f   MSVCRT:MSVCRT.dll
 0001:00013f22       ?terminate@@YAXXZ          00414f22 f   MSVCRT:MSVCRT.dll
 0001:00013f28       __exit                     00414f28 f   MSVCRT:MSVCRT.dll
 0001:00013f2e       __XcptFilter               00414f2e f   MSVCRT:MSVCRT.dll
 0001:00013f34       _exit                      00414f34 f   MSVCRT:MSVCRT.dll
 0001:00013f3a       ___getmainargs             00414f3a f   MSVCRT:MSVCRT.dll
 0001:00013f40       __initterm                 00414f40 f   MSVCRT:MSVCRT.dll
 0001:00013f46       __setdefaultprecision      00414f46 f   MSVCRT:fp8.obj
 0001:00013f58       ___setusermatherr          00414f58 f   MSVCRT:MSVCRT.dll
 0001:00013f5e       __matherr                  00414f5e f   MSVCRT:merr.obj
 0001:00013f61       __setargv                  00414f61 f   MSVCRT:dllargv.obj
 0001:00013f62       ___p__commode              00414f62 f   MSVCRT:MSVCRT.dll
 0001:00013f68       ___p__fmode                00414f68 f   MSVCRT:MSVCRT.dll
 0001:00013f6e       ___set_app_type            00414f6e f   MSVCRT:MSVCRT.dll
 0001:00013f74       __controlfp                00414f74 f   MSVCRT:MSVCRT.dll
 0001:00013f80       ??0asyncPost@@QAE@IJH@Z    00414f80 f   asyncPost:asyncPost.obj
 0001:00013fd0       ??_EasyncPost@@UAEPAXI@Z   00414fd0 f i asyncPost:asyncPost.obj
 0001:00013fd0       ??_GasyncPost@@UAEPAXI@Z   00414fd0 f i asyncPost:asyncPost.obj
 0001:00013ff0       ??1asyncPost@@UAE@XZ       00414ff0 f   asyncPost:asyncPost.obj
 0001:00014010       ?lParam@asyncPost@@QAEJXZ  00415010 f   asyncPost:asyncPost.obj
 0001:00014020       ?wParam@asyncPost@@QAEIXZ  00415020 f   asyncPost:asyncPost.obj
 0001:00014030       _VerQueryValueA@16         00415030 f   version:VERSION.dll
 0001:00014036       _GetFileVersionInfoA@16    00415036 f   version:VERSION.dll
 0001:0001403c       _GetFileVersionInfoSizeA@8 0041503c f   version:VERSION.dll
 0001:00014042       _GetModuleHandleA@4        00415042 f   kernel32:KERNEL32.dll
 0001:00014048       _GetStartupInfoA@4         00415048 f   kernel32:KERNEL32.dll
 0001:0001404e       _SendMessageTimeoutA@28    0041504e f   user32:USER32.dll
 0001:00014054       ??1QCString@@UAE@XZ        00415054 f   qt-mt323:qt-mt323.dll
 0001:0001405a       ?local8Bit@QString@@QBE?AVQCString@@XZ 0041505a f   qt-mt323:qt-mt323.dll
 0001:00014060       ?ucs2@QString@@QBEPBGXZ    00415060 f   qt-mt323:qt-mt323.dll
 0001:00014066       ?winEventFilter@QApplication@@UAE_NPAUtagMSG@@@Z 00415066 f   qt-mt323:qt-mt323.dll
 0001:0001406c       ?fromUcs2@QString@@SA?AV1@PBG@Z 0041506c f   qt-mt323:qt-mt323.dll
 0001:00014072       ?saveState@QApplication@@UAEXAAVQSessionManager@@@Z 00415072 f   qt-mt323:qt-mt323.dll
 0001:00014078       ?commitData@QApplication@@UAEXAAVQSessionManager@@@Z 00415078 f   qt-mt323:qt-mt323.dll
 0001:0001407e       ?notify@QApplication@@UAE_NPAVQObject@@PAVQEvent@@@Z 0041507e f   qt-mt323:qt-mt323.dll
 0001:00014084       ?polish@QApplication@@UAEXPAVQWidget@@@Z 00415084 f   qt-mt323:qt-mt323.dll
 0001:0001408a       ?event@QApplication@@MAE_NPAVQEvent@@@Z 0041508a f   qt-mt323:qt-mt323.dll
 0001:00014090       ??1QApplication@@UAE@XZ    00415090 f   qt-mt323:qt-mt323.dll
 0001:00014096       ??0QApplication@@QAE@AAHPAPADW4Type@0@@Z 00415096 f   qt-mt323:qt-mt323.dll
 0001:0001409c       ?raise@QWidget@@QAEXXZ     0041509c f   qt-mt323:qt-mt323.dll
 0001:000140a2       ?staticMetaObject@QApplication@@SAPAVQMetaObject@@XZ 004150a2 f   qt-mt323:qt-mt323.dll
 0001:000140a8       ?qt_cast@QApplication@@UAEPAXPBD@Z 004150a8 f   qt-mt323:qt-mt323.dll
 0001:000140ae       ?activate_signal@QObject@@IAEXHVQString@@@Z 004150ae f   qt-mt323:qt-mt323.dll
 0001:000140b4       ?signalOffset@QMetaObject@@QBEHXZ 004150b4 f   qt-mt323:qt-mt323.dll
 0001:000140ba       ?set@QUType_bool@@QAEXPAUQUObject@@_N@Z 004150ba f   qt-mt323:qt-mt323.dll
 0001:000140c0       ?qt_invoke@QApplication@@UAE_NHPAUQUObject@@@Z 004150c0 f   qt-mt323:qt-mt323.dll
 0001:000140c6       ?qt_emit@QApplication@@UAE_NHPAUQUObject@@@Z 004150c6 f   qt-mt323:qt-mt323.dll
 0001:000140cc       ?qt_property@QApplication@@UAE_NHHPAVQVariant@@@Z 004150cc f   qt-mt323:qt-mt323.dll
 0001:000140d2       _WinMain@16                004150d2 f   qtmain:qtmain_win.obj
 0001:0001415f       ?detach@?$QMemArray@PAD@@UAEXXZ 0041515f f i qtmain:qtmain_win.obj
 0001:00014167       ??_G?$QMemArray@PAD@@UAEPAXI@Z 00415167 f i qtmain:qtmain_win.obj
 0001:00014167       ??_E?$QMemArray@PAD@@UAEPAXI@Z 00415167 f i qtmain:qtmain_win.obj
 0001:0001418a       _strcpy                    0041518a f   MSVCRT:MSVCRT.dll
 0001:00014190       _strlen                    00415190 f   MSVCRT:MSVCRT.dll
 0001:00014196       ?deleteData@QGArray@@MAEXPAUarray_data@1@@Z 00415196 f   qt-mt323:qt-mt323.dll
 0001:0001419c       ?newData@QGArray@@MAEPAUarray_data@1@XZ 0041519c f   qt-mt323:qt-mt323.dll
 0001:000141a2       ??1QGArray@@MAE@XZ         004151a2 f   qt-mt323:qt-mt323.dll
 0001:000141a8       ?qWinMain@@YAXPAUHINSTANCE__@@0PADHAAHAAV?$QMemArray@PAD@@@Z 004151a8 f   qt-mt323:qt-mt323.dll
 0001:000141ae       ??0QGArray@@IAE@H@Z        004151ae f   qt-mt323:qt-mt323.dll
 0001:000141b4       ?duplicate@QGArray@@IAEAAV1@ABV1@@Z 004151b4 f   qt-mt323:qt-mt323.dll
 0001:000141ba       ??1QGList@@MAE@XZ          004151ba f   qt-mt323:qt-mt323.dll
 0001:000141c0       ?clear@QGList@@MAEXXZ      004151c0 f   qt-mt323:qt-mt323.dll
 0002:00000000       ??_7infodriverIf@@6BcXInfo@@@ 0041a000     infodriverIf.obj
 0002:00000004       ??_7infodriverIf@@6BQObject@@@ 0041a004     infodriverIf.obj
 0002:00000064       ??_7infodriverIf@@6BcPanel@@@ 0041a064     infodriverIf.obj
 0002:0000009c       ??_7netComms@@6B@          0041a09c     netComms.obj
 0002:000000fc       ??_SQSocketNotifier@@6B@   0041a0fc     netComms.obj
 0002:00000160       ??_SQSocketDevice@@6B@     0041a160     netComms.obj
 0002:000001dc       ??_SQPushButton@@6BQPaintDevice@@@ 0041a1dc     restartall.obj
 0002:00000204       ??_SQPushButton@@6BQObject@@@ 0041a204     restartall.obj
 0002:00000454       ??_SQSpacerItem@@6B@       0041a454     restartall.obj
 0002:000004a0       ??_SQCheckBox@@6BQPaintDevice@@@ 0041a4a0     restartall.obj
 0002:000004c8       ??_SQCheckBox@@6BQObject@@@ 0041a4c8     restartall.obj
 0002:00000704       ??_SQSpinBox@@6B@          0041a704     restartall.obj
 0002:00000718       ??_SQSpinBox@@6BQPaintDevice@@@ 0041a718     restartall.obj
 0002:00000740       ??_SQSpinBox@@6BQObject@@@ 0041a740     restartall.obj
 0002:00000998       ??_SQLabel@@6BQPaintDevice@@@ 0041a998     restartall.obj
 0002:000009c0       ??_SQLabel@@6BQObject@@@   0041a9c0     restartall.obj
 0002:00000c18       ??_SQHBoxLayout@@6BQLayoutItem@@@ 0041ac18     restartall.obj
 0002:00000c64       ??_SQHBoxLayout@@6BQObject@@@ 0041ac64     restartall.obj
 0002:00000cdc       ??_SQVBoxLayout@@6BQLayoutItem@@@ 0041acdc     restartall.obj
 0002:00000d28       ??_SQVBoxLayout@@6BQObject@@@ 0041ad28     restartall.obj
 0002:00000da0       ??_7restartAllBase@@6BQPaintDevice@@@ 0041ada0     restartall.obj
 0002:00000dc8       ??_7restartAllBase@@6BQObject@@@ 0041adc8     restartall.obj
 0002:00000fe4       ??_7restartAll@@6BQPaintDevice@@@ 0041afe4     restartallimpl.obj
 0002:0000100c       ??_7restartAll@@6BQObject@@@ 0041b00c     restartallimpl.obj
 0002:00001228       ??_7workStation@@6BQListViewItem@@@ 0041b228     workStation.obj
 0002:000012e0       ??_7workStation@@6BQObject@@@ 0041b2e0     workStation.obj
 0002:00001340       ??_SQPopupMenu@@6B@        0041b340     wstrackermainwindow.obj
 0002:00001368       ??_SQPopupMenu@@6BQPaintDevice@@@ 0041b368     wstrackermainwindow.obj
 0002:00001390       ??_SQPopupMenu@@6BQObject@@@ 0041b390     wstrackermainwindow.obj
 0002:000015cc       ??_SQMenuBar@@6B@          0041b5cc     wstrackermainwindow.obj
 0002:000015f4       ??_SQMenuBar@@6BQPaintDevice@@@ 0041b5f4     wstrackermainwindow.obj
 0002:0000161c       ??_SQMenuBar@@6BQObject@@@ 0041b61c     wstrackermainwindow.obj
 0002:00001850       ??_7WSTrackerMainWindow@@6BQPaintDevice@@@ 0041b850     wstrackermainwindow.obj
 0002:00001878       ??_7WSTrackerMainWindow@@6BQObject@@@ 0041b878     wstrackermainwindow.obj
 0002:00001af8       ??_SQDomElement@@6B@       0041baf8     wstrackermainwindow.obj
 0002:00001bc8       __real@8@40008666666666666800 0041bbc8     wstrackermainwindow.obj
 0002:00001bfc       ??_7?$QPtrVector@VQConnectionList@@@@6B@ 0041bbfc     moc_infodriverIf.obj
 0002:00001e74       ??_SQLineEdit@@6BQPaintDevice@@@ 0041be74     wstrackermainwindowbase.obj
 0002:00001e9c       ??_SQLineEdit@@6BQObject@@@ 0041be9c     wstrackermainwindowbase.obj
 0002:00002130       ??_SQListView@@6BQPaintDevice@@@ 0041c130     wstrackermainwindowbase.obj
 0002:00002158       ??_SQListView@@6BQObject@@@ 0041c158     wstrackermainwindowbase.obj
 0002:000024cc       ??_SQGroupBox@@6BQPaintDevice@@@ 0041c4cc     wstrackermainwindowbase.obj
 0002:000024f4       ??_SQGroupBox@@6BQObject@@@ 0041c4f4     wstrackermainwindowbase.obj
 0002:00002730       ??_SQWidget@@6BQPaintDevice@@@ 0041c730     wstrackermainwindowbase.obj
 0002:00002758       ??_SQWidget@@6BQObject@@@  0041c758     wstrackermainwindowbase.obj
 0002:00002960       ??_7WSTrackerMainWindowBase@@6BQPaintDevice@@@ 0041c960     wstrackermainwindowbase.obj
 0002:00002988       ??_7WSTrackerMainWindowBase@@6BQObject@@@ 0041c988     wstrackermainwindowbase.obj
 0002:00002c08       ??_7cPanel@@6B@            0041cc08     panel:panelif.obj
 0002:00002c14       ??_7cXInfo@@6B@            0041cc14     cxinfo:CXINFO.OBJ
 0002:00002c18       ??_7bncs_disklog@@6B@      0041cc18     bncs_disklog:bncs_disklog.obj
 0002:00002c1c       ??_7cBncsVersion@@6B@      0041cc1c     BncsVersionInfo:cBncsVersion.obj
 0002:00002c20       ??_7QtSingleApplication@@6B@ 0041cc20     QTSingleApplication:qtsingleapplication.obj
 0002:00002d44       ??_7asyncPost@@6B@         0041cd44     asyncPost:asyncPost.obj
 0002:00002d48       ??_7?$QMemArray@PAD@@6B@   0041cd48     qtmain:qtmain_win.obj
 0003:00000000       ___xc_a                    0041f000     MSVCRT:cinitexe.obj
 0003:0000022c       ___xc_z                    0041f22c     MSVCRT:cinitexe.obj
 0003:00000330       ___xi_a                    0041f330     MSVCRT:cinitexe.obj
 0003:00000434       ___xi_z                    0041f434     MSVCRT:cinitexe.obj
 0003:00000540       ?timeoutPeriod@infodriverIf@@2HA 0041f540     infodriverIf.obj
 0003:00000544       ??_C@_01FBAH@1?$AA@        0041f544     infodriverIf.obj
 0003:00000548       ??_C@_0M@KGLD@workstation?$AA@ 0041f548     infodriverIf.obj
 0003:00000558       ??_C@_07FEIE@restart?$AA@  0041f558     infodriverIf.obj
 0003:00000564       ??_C@_02MECO@?$CFd?$AA@    0041f564     infodriverIf.obj
 0003:00000568       ??_C@_01PLJA@0?$AA@        0041f568     infodriverIf.obj
 0003:0000056c       ??_C@_0BJ@NDAL@Timer?4?5Restart?5?$CF1?0?5Ws?5?$CF2?$AA@ 0041f56c     infodriverIf.obj
 0003:0000058c       ??_C@_0BN@FELM@Timer?4?5Main?5?$CF1?0?5Connected?5?$CF2?$AA@ 0041f58c     infodriverIf.obj
 0003:000005b0       ??_C@_03HIOB@?8?51?$AA@    0041f5b0     infodriverIf.obj
 0003:000005b4       ??_C@_0L@JPMA@?5?9?5Unknown?$AA@ 0041f5b4     infodriverIf.obj
 0003:000005c4       ??_C@_0M@FCIO@?5?9?5Updating?$AA@ 0041f5c4     infodriverIf.obj
 0003:000005d4       ??_C@_0L@MNOC@?5?9?5Stopped?$AA@ 0041f5d4     infodriverIf.obj
 0003:000005e4       ??_C@_0M@HJCF@?5?9?5Starting?$AA@ 0041f5e4     infodriverIf.obj
 0003:000005f4       ??_C@_0L@OEHE@?5?9?5Running?$AA@ 0041f5f4     infodriverIf.obj
 0003:00000604       ??_C@_02BDPP@0?0?$AA@      0041f604     infodriverIf.obj
 0003:00000608       ??_C@_0N@KPIK@?5?9?5Rebooting?$AA@ 0041f608     infodriverIf.obj
 0003:00000618       ??_C@_08KJBK@?5?9?5Error?$AA@ 0041f618     infodriverIf.obj
 0003:00000624       ??_C@_02FFF@1?0?$AA@       0041f624     infodriverIf.obj
 0003:00000628       ??_C@_0BB@LDCN@?0workstations?01?0?$AA@ 0041f628     infodriverIf.obj
 0003:0000063c       ??_C@_0P@JPNH@?5?8workstation?5?$AA@ 0041f63c     infodriverIf.obj
 0003:00000650       ??_C@_03LELA@IW?5?$AA@     0041f650     infodriverIf.obj
 0003:00000654       ??_C@_0BE@DBHM@Workstation?5Tracker?$AA@ 0041f654     main.obj
 0003:0000066c       ??_C@_0CD@HPJF@Copy?5of?5WSTracker?5Already?5runnin@ 0041f66c     main.obj
 0003:00000698       ??_C@_0M@MLJ@Do?5I?5exist?$DP?$AA@ 0041f698     main.obj
 0003:000006a8       ??_C@_09FGPH@WSTracker?$AA@ 0041f6a8     main.obj
 0003:000006b4       ??_C@_0BB@MOGM@languageChange?$CI?$CJ?$AA@ 0041f6b4     moc_restartall.obj
 0003:000006c8       ??_C@_0P@COD@languageChange?$AA@ 0041f6c8     moc_restartall.obj
 0003:000006dc       ??_C@_0P@EEGC@restartAllBase?$AA@ 0041f6dc     moc_restartall.obj
 0003:000006f0       ??_C@_0L@PNLD@restartAll?$AA@ 0041f6f0     moc_restartallimpl.obj
 0003:00000700       ??_C@_0BM@PMMK@Notifier?5not?5created?$CB?$CB?$CB?$CB?$CB?$CB?$CB?$AA@ 0041f700     netComms.obj
 0003:00000724       ??_C@_0CA@MCKH@netComms?3?3connect?$CI?$CJ?5?9?5Connected?$AA@ 0041f724     netComms.obj
 0003:0000074c       ??_C@_0BI@JGNB@Connected?5to?5network?5OK?$AA@ 0041f74c     netComms.obj
 0003:00000768       ??_C@_0BH@GIEA@can?8t?5set?5UDP?5sockport?$AA@ 0041f768     netComms.obj
 0003:00000784       ??_C@_0BA@IGJB@2activated?$CIint?$CJ?$AA@ 0041f784     netComms.obj
 0003:00000798       ??_C@_0N@BHBJ@1rxData?$CIint?$CJ?$AA@ 0041f798     netComms.obj
 0003:000007a8       ??_C@_0BP@PDBI@Can?8t?5create?5UDP?5listen?5socket?$AA@ 0041f7a8     netComms.obj
 0003:000007d0       ??_C@_07IJDM@0?40?40?40?$AA@ 0041f7d0     netComms.obj
 0003:000007dc       ??_C@_01KALE@?$HM?$AA@     0041f7dc     netComms.obj
 0003:000007e0       ??_C@_0N@BO@Port?5not?5set?$AA@ 0041f7e0     netComms.obj
 0003:000007f0       ??_C@_0BO@JML@?$CK?$CK?$CK?$CK?$CK?$CK?$CK?$CK?$CK?5Socket?5not?5valid?5?$CFd?$AA@ 0041f7f0     netComms.obj
 0003:00000814       ??_C@_0BI@PHJO@ASSERT?3?5?$CC?$CFs?$CC?5in?5?$CFs?5?$CI?$CFd?$CJ?$AA@ 0041f814     netComms.obj
 0003:00000830       ??_C@_0L@MGKG@i?5?$DM?$DN?5nodes?$AA@ 0041f830     netComms.obj
 0003:00000840       ??_C@_0CB@GILJ@C?3?2Qt?23?42?43?2include?2qvaluelist?4h@ 0041f840     netComms.obj
 0003:00000868       ??_C@_09NEKG@1reject?$CI?$CJ?$AA@ 0041f868     restartall.obj
 0003:00000874       ??_C@_0L@EHAF@2clicked?$CI?$CJ?$AA@ 0041f874     restartall.obj
 0003:00000884       ??_C@_09GLDH@1accept?$CI?$CJ?$AA@ 0041f884     restartall.obj
 0003:00000890       ??_C@_0N@BDAB@buttonCancel?$AA@ 0041f890     restartall.obj
 0003:000008a0       ??_C@_08HMAP@buttonOk?$AA@ 0041f8a0     restartall.obj
 0003:000008ac       ??_C@_07EANJ@Layout1?$AA@  0041f8ac     restartall.obj
 0003:000008b8       ??_C@_07EPA@cbLocal?$AA@   0041f8b8     restartall.obj
 0003:000008c4       ??_C@_09FEM@spinDelay?$AA@ 0041f8c4     restartall.obj
 0003:000008d0       ??_C@_0L@KEKH@textLabel1?$AA@ 0041f8d0     restartall.obj
 0003:000008e0       ??_C@_07GNNE@layout2?$AA@  0041f8e0     restartall.obj
 0003:000008ec       ??_C@_0BF@ODOE@restartAllBaseLayout?$AA@ 0041f8ec     restartall.obj
 0003:00000908       ??_C@_05EHKB@Alt?$CLC?$AA@ 0041f908     restartall.obj
 0003:00000910       ??_C@_07EODH@?$CGCancel?$AA@ 0041f910     restartall.obj
 0003:0000091c       ??_C@_05LJEF@Alt?$CLO?$AA@ 0041f91c     restartall.obj
 0003:00000924       ??_C@_03NOMH@?$CGOK?$AA@   0041f924     restartall.obj
 0003:00000928       ??_C@_0FH@CNLP@Tick?5if?5you?5want?5the?5local?5works@ 0041f928     restartall.obj
 0003:00000990       ??_C@_0BK@MEKI@Restart?5local?5workstation?$AA@ 0041f990     restartall.obj
 0003:000009b0       ??_C@_0CF@HCFH@Delay?5bewtween?5workstations?5star@ 0041f9b0     restartall.obj
 0003:000009dc       ??_C@_0CP@OKDH@Enter?5the?5delay?5between?5workstat@ 0041f9dc     restartall.obj
 0003:00000a14       ??_C@_0BG@JKJJ@WSTracker?5Restart?5All?$AA@ 0041fa14     restartall.obj
 0003:00000a30       ?timeoutPeriod@workStation@@2HA 0041fa30     workStation.obj
 0003:00000a34       ??_C@_07PCHH@Unknown?$AA@  0041fa34     workStation.obj
 0003:00000a40       ??_C@_0BI@OKMH@ddd?5MMM?5d?5hh?3mm?3ss?5yyyy?$AA@ 0041fa40     workStation.obj
 0003:00000a5c       ??_C@_08FCIL@Stopping?$AA@ 0041fa5c     workStation.obj
 0003:00000a68       ??_C@_07KAFF@Stopped?$AA@  0041fa68     workStation.obj
 0003:00000a74       ??_C@_08FHEI@Starting?$AA@ 0041fa74     workStation.obj
 0003:00000a80       ??_C@_02HAGF@OK?$AA@       0041fa80     workStation.obj
 0003:00000a84       ??_C@_06HFMD@Errors?$AA@   0041fa84     workStation.obj
 0003:00000a8c       ??_C@_09KPKE@Rebooting?$AA@ 0041fa8c     workStation.obj
 0003:00000a98       ??_C@_08HMOD@Updating?$AA@ 0041fa98     workStation.obj
 0003:00000aa4       ??_C@_03CMLD@red?$AA@      0041faa4     workStation.obj
 0003:00000aa8       ??_C@_05GMF@white?$AA@     0041faa8     workStation.obj
 0003:00000ab0       ??_C@_08LAIB@dark?5red?$AA@ 0041fab0     workStation.obj
 0003:00000abc       ??_C@_05DOGI@green?$AA@    0041fabc     workStation.obj
 0003:00000ac4       ??_C@_01POCP@?7?$AA@       0041fac4     workStation.obj
 0003:00000d7c       ??_C@_0EB@CMGN@a?5r?5e?5e?5e?58?58?59?56?56?5?9?5?9?5?$DN?5?$CK?5?$CG?5?$CG?5@ 0041fd7c     wstrackermainwindow.obj
 0003:00000dcc       ??_C@_0EB@KHEF@t?53?55?55?55?55?55?55?55?55?55?5j?55?55?5j?55?5@ 0041fdcc     wstrackermainwindow.obj
 0003:00000e1c       ??_C@_0EB@NHDO@n?55?5E?5?$GA?5?8?5?8?5?$FL?5?$FL?5?$FL?5?$HL?5?$HL?5?$HL?5X?4X?4o?4o?4@ 0041fe1c     wstrackermainwindow.obj
 0003:00000e6c       ??_C@_0EB@NHME@n?55?5?$GA?5X?4o?4o?4o?4o?4?$EA?4?$EA?4?$EA?4?$EA?4$?4$?4$?4?$CK?4@ 0041fe6c     wstrackermainwindow.obj
 0003:00000ebc       ??_C@_0EB@HBND@n?55?5Y?5E?5E?5W?5W?5_?5_?5?$GA?5?$GA?5?8?5?$EA?4?$EA?4?$FL?5?$FL?5@ 0041febc     wstrackermainwindow.obj
 0003:00000f0c       ??_C@_0EB@GFAA@m?53?5?$CL?5?$EA?5?$CD?5?$DL?5?$DL?5?3?5?$DO?59?50?5s?5X?4?$EA?4Y?5A?5@ 0041ff0c     wstrackermainwindow.obj
 0003:00000f5c       ??_C@_0EB@JAEL@N?53?5?4?5o?5?$EA?5?$EA?5?$CD?5?$CK?5?$DL?5?3?5?$DO?5y?5W?5_?5f?5a?5@ 0041ff5c     wstrackermainwindow.obj
 0003:00000fac       ??_C@_0EB@GPFM@B?53?5?4?5?4?5o?5?4?5?$EA?5?$EA?5?$EA?5?$CK?5?$DL?5?3?5?$DO?59?59?50?5@ 0041ffac     wstrackermainwindow.obj
 0003:00000ffc       ??_C@_0EB@OCG@B?53?5?4?5?4?5?5?5?4?5?4?5o?5o?5?$CL?5?$EA?5?$CK?5?$CK?5?3?5?3?59?5@ 0041fffc     wstrackermainwindow.obj
 0003:0000104c       ??_C@_0EB@PLDP@V?53?5?4?5?4?5?$DO?5L?5K?5A?5?4?5X?5o?5p?5T?5T?5S?5?$CD?5@ 0042004c     wstrackermainwindow.obj
 0003:0000109c       ??_C@_0EB@HOEE@C?53?5?4?5?4?5S?5?0?4?0?4?$DO?4?$CL?5?4?5?4?5?$CL?4?0?4?0?4O?4?$EA?5@ 0042009c     wstrackermainwindow.obj
 0003:000010ec       ??_C@_0EB@IGIF@Z?53?5?4?5?4?5J?5?0?4?0?4?0?4d?5?4?5?$CK?5?0?4?0?4?0?4?$CD?4?4?5@ 004200ec     wstrackermainwindow.obj
 0003:0000113c       ??_C@_0EB@OLHJ@P?53?5?4?5?5?5T?5?0?4?$CK?4?0?4?$FN?5?5?5G?5?0?4?$DN?4?0?4?$CK?4?4?5@ 0042013c     wstrackermainwindow.obj
 0003:0000118c       ??_C@_0EB@MJEA@P?53?5?4?5?4?5?$HO?5?0?4?$FN?5?$DL?4?3?4X?5O?4?0?4?$CI?5?0?4?3?4?4?5@ 0042018c     wstrackermainwindow.obj
 0003:000011dc       ??_C@_0EB@KEBO@P?53?5?4?5?4?5?$FN?5?0?4?$FO?5?$FN?5?0?4d?5?0?4?0?4p?5?0?4?$DO?4?4?5@ 004201dc     wstrackermainwindow.obj
 0003:0000122c       ??_C@_0EB@DKDG@U?53?5?4?5?4?5?$FN?5?0?4?$HO?5d?5?0?4?$CG?4?0?4?$CF?4?$CK?5?0?4?0?4?$CL?5@ 0042022c     wstrackermainwindow.obj
 0003:0000127c       ??_C@_0EB@OEGJ@U?53?5?4?5?4?5?4?4?0?4Q?5?$CL?5?$DO?4?0?4?0?4?$HO?5?$EA?5?0?4?0?4?$CK?5@ 0042027c     wstrackermainwindow.obj
 0003:000012cc       ??_C@_0EB@FCFD@U?53?5X?5?4?5?$CL?4?0?4L?5?5?5?4?4?0?4?0?4q?5X?5?0?4?0?4?3?5@ 004202cc     wstrackermainwindow.obj
 0003:0000131c       ??_C@_0EB@KHJC@U?53?5?4?5?4?5?$CF?4?0?4J?5?4?5D?5?0?4?$DL?4?4?5?4?5?$DO?4?0?40?5@ 0042031c     wstrackermainwindow.obj
 0003:0000136c       ??_C@_0EB@HOI@U?53?5?4?5?4?5?9?4?0?4S?5?4?5?$CD?5Q?5M?5?4?5?4?5?3?4?0?4i?5@ 0042036c     wstrackermainwindow.obj
 0003:000013bc       ??_C@_0EB@JEF@U?53?5?4?5?4?5?3?4?0?4M?5?4?5?4?5?4?5?4?5?4?5?4?5?9?4?0?4d?5@ 004203bc     wstrackermainwindow.obj
 0003:0000140c       ??_C@_0EB@KEKK@U?53?5?4?5?4?5?0?4?0?4d?5?4?5?4?5?4?5?4?5?4?5?4?5?$CG?4?0?4M?5@ 0042040c     wstrackermainwindow.obj
 0003:0000145c       ??_C@_0EB@GHNE@U?53?5?4?5?$EA?5?0?4?0?4p?5?4?5?4?5?4?5?4?5?4?5?4?5?$CD?4?0?4J?5@ 0042045c     wstrackermainwindow.obj
 0003:000014ac       ??_C@_0EB@KOJD@U?53?5X?5?$CK?5?$CG?4?$CK?4p?5?$EA?5?$CL?5o?5?4?5?$EA?5?$CL?5?$HM?5?$CG?4J?5@ 004204ac     wstrackermainwindow.obj
 0003:000014fc       ??_C@_0EB@LNMG@U?53?5X?5?5?5?$CL?5?$EA?5?$CL?5o?5?$CL?5?$EA?5o?5?$EA?5?$EA?5?4?5?4?5?$CL?5@ 004204fc     wstrackermainwindow.obj
 0003:0000154c       ??_C@_0EB@FFMA@?1?5k?53?5X?5X?5?$EA?5o?5?4?5?4?5?$EA?5?$EA?5?$CL?5?$EA?5?4?5?4?5?$CD?5@ 0042054c     wstrackermainwindow.obj
 0003:0000159c       ??_C@_0EB@PNID@?$DM?4?1?5k?53?5O?5?$EA?5?$EA?5o?5?$CL?5?$CD?5?$EA?5o?5?$EA?5o?5o?5?$EA?5@ 0042059c     wstrackermainwindow.obj
 0003:000015ec       ??_C@_0EB@DLIG@?$DM?4?$DM?4?1?5l?53?5?$CG?5?$EA?5?$EA?5?$EA?5?$EA?5?4?5?4?5?$EA?5?$CL?5?$CL?5?$EA?5@ 004205ec     wstrackermainwindow.obj
 0003:0000163c       ??_C@_0EB@PGKL@?$DM?4?$DM?4?$DM?4?1?5l?5h?5?$DN?5o?5?4?5?$EA?5?$EA?5?4?5?$EA?5?$EA?5?$EA?5?$EA?5@ 0042063c     wstrackermainwindow.obj
 0003:0000168c       ??_C@_0EB@FODG@?$DM?4?$DM?4?$DM?4?$DM?4?1?5v?5k?5?$CG?5?$CL?5?$EA?5?$EA?5X?5?$CL?5?$EA?5?$EA?5o?5@ 0042068c     wstrackermainwindow.obj
 0003:000016dc       ??_C@_0EB@BLFC@?$DM?4?$DM?4?$DM?4?$DM?4?$DM?4?1?5b?5h?55?55?54?52?53?5j?55?52?5@ 004206dc     wstrackermainwindow.obj
 0003:0000172c       ??_C@_0EB@JBID@?$DM?4?$DM?4?$DM?4?$DM?4?$DM?4?$DM?4?1?5U?5U?5U?5P?5U?5U?5P?5U?5P?5@ 0042072c     wstrackermainwindow.obj
 0003:0000177c       ??_C@_09DELB@?$DM?4?5c?5None?$AA@ 0042077c     wstrackermainwindow.obj
 0003:00001788       ??_C@_0N@GHFA@?0?4?5c?5?$CDFFFFFF?$AA@ 00420788     wstrackermainwindow.obj
 0003:00001798       ??_C@_0N@LPPM@?$DO?4?5c?5?$CDF8F6F8?$AA@ 00420798     wstrackermainwindow.obj
 0003:000017a8       ??_C@_0N@GHPD@?3?4?5c?5?$CDF5F3F5?$AA@ 004207a8     wstrackermainwindow.obj
 0003:000017b8       ??_C@_0N@BHFC@?$DL?4?5c?5?$CDF1EDF1?$AA@ 004207b8     wstrackermainwindow.obj
 0003:000017c8       ??_C@_0N@LNGN@?9?4?5c?5?$CDEDEBED?$AA@ 004207c8     wstrackermainwindow.obj
 0003:000017d8       ??_C@_0N@EJNM@?$DN?4?5c?5?$CDEAE4EA?$AA@ 004207d8     wstrackermainwindow.obj
 0003:000017e8       ??_C@_0N@OIEJ@?$CK?4?5c?5?$CDE6E1E6?$AA@ 004207e8     wstrackermainwindow.obj
 0003:000017f8       ??_C@_0N@LLKK@?$CG?4?5c?5?$CDE6DEE6?$AA@ 004207f8     wstrackermainwindow.obj
 0003:00001808       ??_C@_0N@HKLC@?$CF?4?5c?5?$CDE1D7E1?$AA@ 00420808     wstrackermainwindow.obj
 0003:00001818       ??_C@_0N@CGCG@$?4?5c?5?$CDDBDBDB?$AA@ 00420818     wstrackermainwindow.obj
 0003:00001828       ??_C@_0N@KMBN@?$CD?4?5c?5?$CDDDD3DD?$AA@ 00420828     wstrackermainwindow.obj
 0003:00001838       ??_C@_0N@DCEK@?$EA?4?5c?5?$CDD4D4D4?$AA@ 00420838     wstrackermainwindow.obj
 0003:00001848       ??_C@_0N@EDA@?$CL?4?5c?5?$CDD5C8D5?$AA@ 00420848     wstrackermainwindow.obj
 0003:00001858       ??_C@_0N@CHPJ@O?4?5c?5?$CDD2C3D2?$AA@ 00420858     wstrackermainwindow.obj
 0003:00001868       ??_C@_0N@PMNH@o?4?5c?5?$CDCCCBCC?$AA@ 00420868     wstrackermainwindow.obj
 0003:00001878       ??_C@_0N@PADN@X?4?5c?5?$CDC4C4C4?$AA@ 00420878     wstrackermainwindow.obj
 0003:00001888       ??_C@_0N@FLDD@?4?4?5c?5?$CDCAB9CA?$AA@ 00420888     wstrackermainwindow.obj
 0003:00001898       ??_C@_0N@NOCE@?5?4?5c?5?$CDC3B0C3?$AA@ 00420898     wstrackermainwindow.obj
 0003:000018a8       ??_C@_0N@OJIB@?$HM?5?5c?5?$CDC0ACC0?$AA@ 004208a8     wstrackermainwindow.obj
 0003:000018b8       ??_C@_0N@HIDC@?$HN?5?5c?5?$CDC0A6C0?$AA@ 004208b8     wstrackermainwindow.obj
 0003:000018c8       ??_C@_0N@BCGB@?$HL?5?5c?5?$CDBBBBBB?$AA@ 004208c8     wstrackermainwindow.obj
 0003:000018d8       ??_C@_0N@JDKA@?$FL?5?5c?5?$CDB5B5B5?$AA@ 004208d8     wstrackermainwindow.obj
 0003:000018e8       ??_C@_0N@KGNL@?$FN?5?5c?5?$CDBBA4BB?$AA@ 004208e8     wstrackermainwindow.obj
 0003:000018f8       ??_C@_0N@IEHN@?8?5?5c?5?$CDABABAB?$AA@ 004208f8     wstrackermainwindow.obj
 0003:00001908       ??_C@_0N@BCBP@?$GA?5?5c?5?$CDA8A7A8?$AA@ 00420908     wstrackermainwindow.obj
 0003:00001918       ??_C@_0N@CICG@_?5?5c?5?$CDA4A3A4?$AA@ 00420918     wstrackermainwindow.obj
 0003:00001928       ??_C@_0N@COEN@?$CJ?5?5c?5?$CDB39AB3?$AA@ 00420928     wstrackermainwindow.obj
 0003:00001938       ??_C@_0N@KACI@?$CI?5?5c?5?$CDB094B0?$AA@ 00420938     wstrackermainwindow.obj
 0003:00001948       ??_C@_0N@GBMH@?1?5?5c?5?$CDBA83BA?$AA@ 00420948     wstrackermainwindow.obj
 0003:00001958       ??_C@_0N@JFEB@?$FO?5?5c?5?$CDAD93AD?$AA@ 00420958     wstrackermainwindow.obj
 0003:00001968       ??_C@_0N@HFEN@?$HO?5?5c?5?$CDAA8DAA?$AA@ 00420968     wstrackermainwindow.obj
 0003:00001978       ??_C@_0N@KIFJ@?$CB?5?5c?5?$CDA589A5?$AA@ 00420978     wstrackermainwindow.obj
 0003:00001988       ??_C@_0N@OOF@Q?5?5c?5?$CDA284A2?$AA@ 00420988     wstrackermainwindow.obj
 0003:00001998       ??_C@_0N@JNOH@W?5?5c?5?$CD9C9B9C?$AA@ 00420998     wstrackermainwindow.obj
 0003:000019a8       ??_C@_0M@CEFH@E?5?5c?5gray59?$AA@ 004209a8     wstrackermainwindow.obj
 0003:000019b8       ??_C@_0N@MCBF@R?5?5c?5?$CD9F899F?$AA@ 004209b8     wstrackermainwindow.obj
 0003:000019c8       ??_C@_0N@CBAJ@T?5?5c?5?$CD9E819E?$AA@ 004209c8     wstrackermainwindow.obj
 0003:000019d8       ??_C@_0N@NPHC@Y?5?5c?5?$CD888788?$AA@ 004209d8     wstrackermainwindow.obj
 0003:000019e8       ??_C@_0N@BHHK@U?5?5c?5?$CDAC64AC?$AA@ 004209e8     wstrackermainwindow.obj
 0003:000019f8       ??_C@_0N@JJLP@I?5?5c?5?$CDA462A4?$AA@ 004209f8     wstrackermainwindow.obj
 0003:00001a08       ??_C@_0N@MMEK@P?5?5c?5?$CDA45BA4?$AA@ 00420a08     wstrackermainwindow.obj
 0003:00001a18       ??_C@_0N@DNEO@L?5?5c?5?$CD9C7C9C?$AA@ 00420a18     wstrackermainwindow.obj
 0003:00001a28       ??_C@_0N@IJCL@K?5?5c?5?$CD987798?$AA@ 00420a28     wstrackermainwindow.obj
 0003:00001a38       ??_C@_0N@HIMF@J?5?5c?5?$CD967496?$AA@ 00420a38     wstrackermainwindow.obj
 0003:00001a48       ??_C@_0N@KFNE@H?5?5c?5?$CD9C659C?$AA@ 00420a48     wstrackermainwindow.obj
 0003:00001a58       ??_C@_0N@JPKE@G?5?5c?5?$CD916F91?$AA@ 00420a58     wstrackermainwindow.obj
 0003:00001a68       ??_C@_0N@BPKB@F?5?5c?5?$CD8A7C8A?$AA@ 00420a68     wstrackermainwindow.obj
 0003:00001a78       ??_C@_0N@GFHA@D?5?5c?5?$CD8D6A8D?$AA@ 00420a78     wstrackermainwindow.obj
 0003:00001a88       ??_C@_0N@DEHJ@S?5?5c?5?$CD8A658A?$AA@ 00420a88     wstrackermainwindow.obj
 0003:00001a98       ??_C@_0N@BNLK@A?5?5c?5?$CD866186?$AA@ 00420a98     wstrackermainwindow.obj
 0003:00001aa8       ??_C@_0N@GFNN@Z?5?5c?5?$CD9F589F?$AA@ 00420aa8     wstrackermainwindow.obj
 0003:00001ab8       ??_C@_0N@PPDO@C?5?5c?5?$CD9C539C?$AA@ 00420ab8     wstrackermainwindow.obj
 0003:00001ac8       ??_C@_0N@DDNA@V?5?5c?5?$CD994F99?$AA@ 00420ac8     wstrackermainwindow.obj
 0003:00001ad8       ??_C@_0N@DFHH@B?5?5c?5?$CD944C94?$AA@ 00420ad8     wstrackermainwindow.obj
 0003:00001ae8       ??_C@_0N@GDLN@N?5?5c?5?$CD914791?$AA@ 00420ae8     wstrackermainwindow.obj
 0003:00001af8       ??_C@_0N@HGJA@M?5?5c?5?$CD835D83?$AA@ 00420af8     wstrackermainwindow.obj
 0003:00001b08       ??_C@_0N@GMGC@m?5?5c?5?$CD8D448D?$AA@ 00420b08     wstrackermainwindow.obj
 0003:00001b18       ??_C@_0N@NMCK@n?5?5c?5?$CD874087?$AA@ 00420b18     wstrackermainwindow.obj
 0003:00001b28       ??_C@_0N@NBD@b?5?5c?5?$CD993599?$AA@ 00420b28     wstrackermainwindow.obj
 0003:00001b38       ??_C@_0N@IBPO@v?5?5c?5?$CD922892?$AA@ 00420b38     wstrackermainwindow.obj
 0003:00001b48       ??_C@_0N@PDNN@c?5?5c?5?$CD893F89?$AA@ 00420b48     wstrackermainwindow.obj
 0003:00001b58       ??_C@_0N@MJKN@x?5?5c?5?$CD843B84?$AA@ 00420b58     wstrackermainwindow.obj
 0003:00001b68       ??_C@_0N@MOFK@z?5?5c?5?$CD813781?$AA@ 00420b68     wstrackermainwindow.obj
 0003:00001b78       ??_C@_0N@NMPJ@l?5?5c?5?$CD8C1C8C?$AA@ 00420b78     wstrackermainwindow.obj
 0003:00001b88       ??_C@_0N@JEBF@k?5?5c?5?$CD891489?$AA@ 00420b88     wstrackermainwindow.obj
 0003:00001b98       ??_C@_0N@LDLL@j?5?5c?5?$CD821482?$AA@ 00420b98     wstrackermainwindow.obj
 0003:00001ba8       ??_C@_0N@BFEI@h?5?5c?5?$CD820C82?$AA@ 00420ba8     wstrackermainwindow.obj
 0003:00001bb8       ??_C@_0N@CMNF@g?5?5c?5?$CD800180?$AA@ 00420bb8     wstrackermainwindow.obj
 0003:00001bc8       ??_C@_0N@FBLA@f?5?5c?5?$CD7C6B7C?$AA@ 00420bc8     wstrackermainwindow.obj
 0003:00001bd8       ??_C@_0N@NKOO@d?5?5c?5?$CD7D547D?$AA@ 00420bd8     wstrackermainwindow.obj
 0003:00001be8       ??_C@_0N@HOOB@s?5?5c?5?$CD705470?$AA@ 00420be8     wstrackermainwindow.obj
 0003:00001bf8       ??_C@_0N@LFON@a?5?5c?5?$CD794E79?$AA@ 00420bf8     wstrackermainwindow.obj
 0003:00001c08       ??_C@_0N@MHJF@p?5?5c?5?$CD754B75?$AA@ 00420c08     wstrackermainwindow.obj
 0003:00001c18       ??_C@_0N@JPAF@i?5?5c?5?$CD714671?$AA@ 00420c18     wstrackermainwindow.obj
 0003:00001c28       ??_C@_0N@CDID@u?5?5c?5?$CD6D426D?$AA@ 00420c28     wstrackermainwindow.obj
 0003:00001c38       ??_C@_0N@IBMI@y?5?5c?5?$CD674867?$AA@ 00420c38     wstrackermainwindow.obj
 0003:00001c48       ??_C@_0N@NLHK@t?5?5c?5?$CD7E3B7E?$AA@ 00420c48     wstrackermainwindow.obj
 0003:00001c58       ??_C@_0N@DDID@r?5?5c?5?$CD7A367A?$AA@ 00420c58     wstrackermainwindow.obj
 0003:00001c68       ??_C@_0N@DGDL@e?5?5c?5?$CD763176?$AA@ 00420c68     wstrackermainwindow.obj
 0003:00001c78       ??_C@_0N@MAIE@w?5?5c?5?$CD722D72?$AA@ 00420c78     wstrackermainwindow.obj
 0003:00001c88       ??_C@_0N@EEIO@q?5?5c?5?$CD6A3D6A?$AA@ 00420c88     wstrackermainwindow.obj
 0003:00001c98       ??_C@_0N@CNGP@0?5?5c?5?$CD663A66?$AA@ 00420c98     wstrackermainwindow.obj
 0003:00001ca8       ??_C@_0N@PJEB@9?5?5c?5?$CD623462?$AA@ 00420ca8     wstrackermainwindow.obj
 0003:00001cb8       ??_C@_0N@CJEE@8?5?5c?5?$CD6E2A6E?$AA@ 00420cb8     wstrackermainwindow.obj
 0003:00001cc8       ??_C@_0N@JFHM@7?5?5c?5?$CD692469?$AA@ 00420cc8     wstrackermainwindow.obj
 0003:00001cd8       ??_C@_0N@ICFH@6?5?5c?5?$CD662166?$AA@ 00420cd8     wstrackermainwindow.obj
 0003:00001ce8       ??_C@_0N@JGLJ@5?5?5c?5?$CD7E117E?$AA@ 00420ce8     wstrackermainwindow.obj
 0003:00001cf8       ??_C@_0N@KDJE@4?5?5c?5?$CD7C0C7C?$AA@ 00420cf8     wstrackermainwindow.obj
 0003:00001d08       ??_C@_0N@OKIL@3?5?5c?5?$CD7B017B?$AA@ 00420d08     wstrackermainwindow.obj
 0003:00001d18       ??_C@_0N@PMFD@2?5?5c?5?$CD760176?$AA@ 00420d18     wstrackermainwindow.obj
 0003:00001d28       ??_C@_0N@IEMF@1?5?5c?5?$CD621C62?$AA@ 00420d28     wstrackermainwindow.obj
 0003:00001d38       ??_C@_0N@GKPL@?$DM?5?5c?5?$CD6D006D?$AA@ 00420d38     wstrackermainwindow.obj
 0003:00001d48       ??_C@_0N@OPBK@?0?5?5c?5?$CD650065?$AA@ 00420d48     wstrackermainwindow.obj
 0003:00001d58       ??_C@_0N@DAA@?$DO?5?5c?5?$CD5B2B5B?$AA@ 00420d58     wstrackermainwindow.obj
 0003:00001d68       ??_C@_0N@FJPO@?3?5?5c?5?$CD582758?$AA@ 00420d68     wstrackermainwindow.obj
 0003:00001d78       ??_C@_0N@JKH@?$DL?5?5c?5?$CD552355?$AA@ 00420d78     wstrackermainwindow.obj
 0003:00001d88       ??_C@_0N@MHEF@?9?5?5c?5?$CD5E1A5E?$AA@ 00420d88     wstrackermainwindow.obj
 0003:00001d98       ??_C@_0N@MPHN@?$DN?5?5c?5?$CD5A145A?$AA@ 00420d98     wstrackermainwindow.obj
 0003:00001da8       ??_C@_0N@KHKO@?$CK?5?5c?5?$CD511D51?$AA@ 00420da8     wstrackermainwindow.obj
 0003:00001db8       ??_C@_0N@LGBG@?$CG?5?5c?5?$CD561156?$AA@ 00420db8     wstrackermainwindow.obj
 0003:00001dc8       ??_C@_0N@DDPC@?$CF?5?5c?5?$CD5D005D?$AA@ 00420dc8     wstrackermainwindow.obj
 0003:00001dd8       ??_C@_0N@JELD@$?5?5c?5?$CD530D53?$AA@ 00420dd8     wstrackermainwindow.obj
 0003:00001de8       ??_C@_0N@FILC@?$CD?5?5c?5?$CD4F1A4F?$AA@ 00420de8     wstrackermainwindow.obj
 0003:00001df8       ??_C@_0N@EBIO@?$EA?5?5c?5?$CD4B134B?$AA@ 00420df8     wstrackermainwindow.obj
 0003:00001e08       ??_C@_0N@DJIO@?$CL?5?5c?5?$CD490D49?$AA@ 00420e08     wstrackermainwindow.obj
 0003:00001e18       ??_C@_0N@KLKK@O?5?5c?5?$CD4A044A?$AA@ 00420e18     wstrackermainwindow.obj
 0003:00001e28       ??_C@_0N@GHKL@o?5?5c?5?$CD450B45?$AA@ 00420e28     wstrackermainwindow.obj
 0003:00001e38       ??_C@_0N@IOGJ@X?5?5c?5?$CD430343?$AA@ 00420e38     wstrackermainwindow.obj
 0003:00001e48       ??_C@_0N@OAKG@?4?5?5c?5?$CD3D003D?$AA@ 00420e48     wstrackermainwindow.obj
 0003:00001e58       ??_C@_0N@KHBC@?5?5?5c?5?$CD360036?$AA@ 00420e58     wstrackermainwindow.obj
 0003:00001e68       ??_C@_0N@GKMP@32?532?5111?52?5?$AA@ 00420e68     wstrackermainwindow.obj
 0003:00001e78       ??_C@_0CD@IMKP@2statusChange?$CIstatusUpdate?$CK?5cons@ 00420e78     wstrackermainwindow.obj
 0003:00001ea4       ??_C@_0CF@OHD@1wsStatusChange?$CIstatusUpdate?$CK?5co@ 00420ea4     wstrackermainwindow.obj
 0003:00001ed0       ??_C@_0BG@EJIM@Cant?5open?5the?5network?$AA@ 00420ed0     wstrackermainwindow.obj
 0003:00001eec       ??_C@_0BK@BEGA@2restartWorkstation?$CIuint?$CJ?$AA@ 00420eec     wstrackermainwindow.obj
 0003:00001f0c       ??_C@_0BK@PHNH@1restartWorkstation?$CIuint?$CJ?$AA@ 00420f0c     wstrackermainwindow.obj
 0003:00001f2c       ??_C@_0FD@MDBK@No?5device?5number?5set?0?5Using?5defa@ 00420f2c     wstrackermainwindow.obj
 0003:00001f90       ??_C@_0N@BDED@1setWsText?$CI?$CJ?$AA@ 00420f90     wstrackermainwindow.obj
 0003:00001fa0       ??_C@_0BB@MKMF@1connectRemote?$CI?$CJ?$AA@ 00420fa0     wstrackermainwindow.obj
 0003:00001fb4       ??_C@_0BA@LJPJ@1goRestartAll?$CI?$CJ?$AA@ 00420fb4     wstrackermainwindow.obj
 0003:00001fc8       ??_C@_0N@PHGA@1goRestart?$CI?$CJ?$AA@ 00420fc8     wstrackermainwindow.obj
 0003:00001fd8       ??_C@_09JEAI@1goStop?$CI?$CJ?$AA@ 00420fd8     wstrackermainwindow.obj
 0003:00001fe4       ??_C@_0M@PAPI@2released?$CI?$CJ?$AA@ 00420fe4     wstrackermainwindow.obj
 0003:00001ff4       ??_C@_0L@GJIP@1goStart?$CI?$CJ?$AA@ 00420ff4     wstrackermainwindow.obj
 0003:00002004       ??_C@_0CA@NHAM@2currentChanged?$CIQListViewItem?$CK?$CJ?$AA@ 00421004     wstrackermainwindow.obj
 0003:0000202c       ??_C@_0BL@DNJF@1wsClicked?$CIQListViewItem?$CK?$CJ?$AA@ 0042102c     wstrackermainwindow.obj
 0003:0000204c       ??_C@_05KJAK@?$CGHelp?$AA@ 0042104c     wstrackermainwindow.obj
 0003:00002054       ??_C@_08HEEF@1about?$CI?$CJ?$AA@ 00421054     wstrackermainwindow.obj
 0003:00002060       ??_C@_06JACP@?$CGAbout?$AA@ 00421060     wstrackermainwindow.obj
 0003:00002068       ??_C@_05IHMK@?$CGEdit?$AA@ 00421068     wstrackermainwindow.obj
 0003:00002070       ??_C@_0O@IHAH@1copyStatus?$CI?$CJ?$AA@ 00421070     wstrackermainwindow.obj
 0003:00002080       ??_C@_0N@LCIM@?$CGCopy?5Status?$AA@ 00421080     wstrackermainwindow.obj
 0003:00002090       ??_C@_05CNCC@?$CGFile?$AA@ 00421090     wstrackermainwindow.obj
 0003:00002098       ??_C@_08FFDP@1close?$CI?$CJ?$AA@ 00421098     wstrackermainwindow.obj
 0003:000020a4       ??_C@_05COP@E?$CGxit?$AA@  004210a4     wstrackermainwindow.obj
 0003:000020ac       ??_C@_04OPJK@name?$AA@     004210ac     wstrackermainwindow.obj
 0003:000020b4       ??_C@_02IBHF@id?$AA@       004210b4     wstrackermainwindow.obj
 0003:000020b8       ??_C@_0N@PNEP@workstations?$AA@ 004210b8     wstrackermainwindow.obj
 0003:000020c8       ??_C@_0BJ@KGOG@?1config?1workstations?4xml?$AA@ 004210c8     wstrackermainwindow.obj
 0003:000020e8       ??_C@_09EFEJ@CC_SYSTEM?$AA@ 004210e8     wstrackermainwindow.obj
 0003:000020f4       ??_C@_01FDLN@?1?$AA@       004210f4     wstrackermainwindow.obj
 0003:000020f8       ??_C@_07FCNI@CC_ROOT?$AA@  004210f8     wstrackermainwindow.obj
 0003:00002104       ??_C@_0BP@KEDG@2wsStatusChanged?$CIworkStation?$CK?$CJ?$AA@ 00421104     wstrackermainwindow.obj
 0003:0000212c       ??_C@_0CA@MOAD@1wsStatusChanged?$CIworkStation?5?$CK?$CJ?$AA@ 0042112c     wstrackermainwindow.obj
 0003:00002154       ??_C@_01PKMN@?$DP?$AA@     00421154     wstrackermainwindow.obj
 0003:00002158       ??_C@_0O@BKGP@Config?5Loaded?$AA@ 00421158     wstrackermainwindow.obj
 0003:00002168       ??_C@_0BH@KCOG@EnableRestartAllButton?$AA@ 00421168     wstrackermainwindow.obj
 0003:00002184       ??_C@_0BG@PJGC@TimeoutLimitSecs?5?$DN?5?$CF1?$AA@ 00421184     wstrackermainwindow.obj
 0003:000021a0       ??_C@_02DDJE@60?$AA@       004211a0     wstrackermainwindow.obj
 0003:000021a4       ??_C@_0BB@MDKG@TimeoutLimitSecs?$AA@ 004211a4     wstrackermainwindow.obj
 0003:000021b8       ??_C@_0M@OJKL@WS_Man_Text?$AA@ 004211b8     wstrackermainwindow.obj
 0003:000021c8       ??_C@_02FCAK@15?$AA@       004211c8     wstrackermainwindow.obj
 0003:000021cc       ??_C@_0N@EBBE@updateperiod?$AA@ 004211cc     wstrackermainwindow.obj
 0003:000021dc       ??_C@_0P@FID@databaseDriver?$AA@ 004211dc     wstrackermainwindow.obj
 0003:000021f0       ??_C@_05OAHJ@65508?$AA@    004211f0     wstrackermainwindow.obj
 0003:000021f8       ??_C@_04IOEK@port?$AA@     004211f8     wstrackermainwindow.obj
 0003:00002200       ??_C@_0CB@FKJM@?$CFs?1?$CFs?1config?1system?1dev_?$CF03d?4ini@ 00421200     wstrackermainwindow.obj
 0003:00002228       ??_C@_0P@MMDP@Device?5not?5set?$AA@ 00421228     wstrackermainwindow.obj
 0003:0000223c       ??_C@_07EBIG@device?$DN?$AA@ 0042123c     wstrackermainwindow.obj
 0003:00002248       ??_C@_0BP@KENI@No?5entry?5in?5instances?4xml?5for?5?$AA@ 00421248     wstrackermainwindow.obj
 0003:00002270       ??_C@_03HJJN@ref?$AA@      00421270     wstrackermainwindow.obj
 0003:00002274       ??_C@_0BE@BEFF@workstation_tracker?$AA@ 00421274     wstrackermainwindow.obj
 0003:0000228c       ??_C@_08IHDL@instance?$AA@ 0042128c     wstrackermainwindow.obj
 0003:00002298       ??_C@_0BE@JFJH@Instances?5not?5valid?$AA@ 00421298     wstrackermainwindow.obj
 0003:000022b0       ??_C@_09MMGO@instances?$AA@ 004212b0     wstrackermainwindow.obj
 0003:000022bc       ??_C@_0BB@MHLN@Can?8t?5open?5file?5?$AA@ 004212bc     wstrackermainwindow.obj
 0003:000022d0       ??_C@_07HKHC@Network?$AA@  004212d0     wstrackermainwindow.obj
 0003:000022dc       ??_C@_07IADE@Channel?$AA@  004212dc     wstrackermainwindow.obj
 0003:000022e8       ??_C@_0CE@HFCL@?$CFs?1?$CFs?1config?1system?1bncs_system?4@ 004212e8     wstrackermainwindow.obj
 0003:00002314       ??_C@_0BG@BLGI@?1config?1instances?4xml?$AA@ 00421314     wstrackermainwindow.obj
 0003:00002330       ??_C@_05IIAE@start?$AA@    00421330     wstrackermainwindow.obj
 0003:00002338       ??_C@_04JPPJ@stop?$AA@     00421338     wstrackermainwindow.obj
 0003:00002340       ??_C@_0CM@JCJH@No?5local?5machine?5not?5found?5so?5no@ 00421340     wstrackermainwindow.obj
 0003:00002374       ??_C@_0BO@LMEN@Restart?5sent?5to?5local?5machine?$AA@ 00421374     wstrackermainwindow.obj
 0003:00002398       ??_C@_0CI@OBPK@Failed?5to?5send?5restart?5to?5local?5@ 00421398     wstrackermainwindow.obj
 0003:000023c8       ??_C@_0P@DDHM@WS?$CF1?9restart?91?$AA@ 004213c8     wstrackermainwindow.obj
 0003:000023dc       ??_C@_0CC@HKEF@Failed?5to?5send?5Stop?5?$CG?5Start?5to?5?$CF@ 004213dc     wstrackermainwindow.obj
 0003:00002404       ??_C@_0BI@BEEE@Stop?5?$CG?5Start?5sent?5to?5?$CF2?$AA@ 00421404     wstrackermainwindow.obj
 0003:00002420       ??_C@_0BA@IO@WS?$CF1?9restart?9?$CF2?$AA@ 00421420     wstrackermainwindow.obj
 0003:00002434       ??_C@_0P@NIEE@CC_WORKSTATION?$AA@ 00421434     wstrackermainwindow.obj
 0003:00002448       ??_C@_0BM@JHIA@Restarting?5all?5workstations?$AA@ 00421448     wstrackermainwindow.obj
 0003:0000246c       ??_C@_0CC@KHCN@Workstation?5Tracker?5?9?5Restart?5Al@ 0042146c     wstrackermainwindow.obj
 0003:00002494       ??_C@_0DA@GMFC@Do?5you?5really?5want?5to?5restart?5al@ 00421494     wstrackermainwindow.obj
 0003:000024d0       ??_C@_0DI@DBHH@WSTrackerMainWindow?3?3sendMessage@ 004214d0     wstrackermainwindow.obj
 0003:00002514       ??_C@_02NHJG@?90?$AA@      00421514     wstrackermainwindow.obj
 0003:00002518       ??_C@_05PCPC@WS?$CF1?9?$AA@ 00421518     wstrackermainwindow.obj
 0003:00002520       ??_C@_0CG@JLBD@http?3?1?1www?4siemens?4co?4uk?1it?9solu@ 00421520     wstrackermainwindow.obj
 0003:00002550       ??_C@_0BH@FGGE@Author?5?9?5Mark?5Baldry?6?6?$AA@ 00421550     wstrackermainwindow.obj
 0003:0000256c       ??_C@_0L@HCKM@Version?5?9?5?$AA@ 0042156c     wstrackermainwindow.obj
 0003:0000257c       ??_C@_02JJJH@?6?6?$AA@     0042157c     wstrackermainwindow.obj
 0003:00002580       ??_C@_01BJG@?6?$AA@        00421580     wstrackermainwindow.obj
 0003:00002584       ??_C@_04CODE@?$CF08d?$AA@  00421584     wstrackermainwindow.obj
 0003:0000258c       ??_C@_04HPIL@Grey?$AA@     0042158c     wstrackermainwindow.obj
 0003:00002594       ??_C@_05JEJP@?9?5?9?5?9?$AA@ 00421594     wstrackermainwindow.obj
 0003:0000259c       ??_C@_0N@FLCO@Disconnected?$AA@ 0042159c     wstrackermainwindow.obj
 0003:000025ac       ??_C@_03GOGG@Red?$AA@      004215ac     wstrackermainwindow.obj
 0003:000025b0       ??_C@_07DBNN@Rx?5Only?$AA@ 004215b0     wstrackermainwindow.obj
 0003:000025bc       ??_C@_04FPN@TxRx?$AA@      004215bc     wstrackermainwindow.obj
 0003:000025c4       ??_C@_05DKMC@Green?$AA@    004215c4     wstrackermainwindow.obj
 0003:000025cc       ??_C@_09PHGC@Connected?$AA@ 004215cc     wstrackermainwindow.obj
 0003:000025d8       ??_C@_0P@KMBO@Not?5configured?$AA@ 004215d8     wstrackermainwindow.obj
 0003:000025ec       ??_C@_03PEKG@?1v?3?$AA@    004215ec     wstrackermainwindow.obj
 0003:000025f0       ??_C@_05GAAD@mstsc?$AA@    004215f0     wstrackermainwindow.obj
 0003:000025f8       ??_C@_0ED@CKMF@ID?7Name?7Status?7Start?5time?7Last?5?5@ 004215f8     wstrackermainwindow.obj
 0003:00002648       ??_C@_0BN@NHEJ@Failed?5to?5write?5to?5the?5file?6?$AA@ 00421648     wstrackermainwindow.obj
 0003:0000266c       ??_C@_0DN@GBLN@Enter?5the?5new?5text?4?6Note?5that?5th@ 0042166c     wstrackermainwindow.obj
 0003:000026b8       ??_C@_0DM@KAIM@The?5configuration?5file?5does?5not?5@ 004216b8     wstrackermainwindow.obj
 0003:00002700       ??_C@_0BM@DDBH@?2config?2system?2dev_?$CF03d?4ini?$AA@ 00421700     wstrackermainwindow.obj
 0003:00002724       ??_C@_01PCFE@?2?$AA@       00421724     wstrackermainwindow.obj
 0003:00002728       ??_C@_0CC@CJPK@No?5system?5set?5so?5can?5not?5set?5tex@ 00421728     wstrackermainwindow.obj
 0003:00002750       ??_C@_0CC@EDPH@No?5server?5set?5so?5can?5not?5set?5tex@ 00421750     wstrackermainwindow.obj
 0003:00002778       ??_C@_0P@JDNO@CC_SERVER_ROOT?$AA@ 00421778     wstrackermainwindow.obj
 0003:0000278c       ??_C@_0L@KIMD@WS?5Tracker?$AA@ 0042178c     wstrackermainwindow.obj
 0003:0000279c       ??_C@_0CC@BEFN@No?5device?5set?5so?5can?5not?5set?5tex@ 0042179c     wstrackermainwindow.obj
 0003:000027c4       ??_C@_0BJ@JCDH@restartWorkstation?$CIuint?$CJ?$AA@ 004217c4     moc_infodriverIf.obj
 0003:000027e4       ??_C@_0BD@NAJN@restartWorkstation?$AA@ 004217e4     moc_infodriverIf.obj
 0003:000027fc       ??_C@_0N@HJKP@infodriverIf?$AA@ 004217fc     moc_infodriverIf.obj
 0003:0000280c       ??_C@_01DOH@?$BB?$AA@      0042180c     moc_infodriverIf.obj
 0003:00002810       ??_C@_06DDPH@cPanel?$AA@   00421810     moc_infodriverIf.obj
 0003:00002818       ??_C@_06HGEJ@cXInfo?$AA@   00421818     moc_infodriverIf.obj
 0003:00002820       ??_C@_0CB@JGNO@statusChange?$CIstatusUpdate?$CKconst?$CJ@ 00421820     moc_netComms.obj
 0003:00002848       ??_C@_0N@HEHF@statusChange?$AA@ 00421848     moc_netComms.obj
 0003:00002858       ??_C@_0M@BJAK@rxData?$CIint?$CJ?$AA@ 00421858     moc_netComms.obj
 0003:00002868       ??_C@_06OFCJ@rxData?$AA@   00421868     moc_netComms.obj
 0003:00002884       ??_C@_01KBOJ@s?$AA@        00421884     moc_netComms.obj
 0003:00002888       ??_C@_08GBGK@netComms?$AA@ 00421888     moc_netComms.obj
 0003:00002894       ??_C@_0BD@HFED@statusUpdate?$CKconst?$AA@ 00421894     moc_netComms.obj
 0003:000028ac       ??_C@_0BO@KAFI@wsStatusChanged?$CIworkStation?$CK?$CJ?$AA@ 004218ac     moc_workStation.obj
 0003:000028d0       ??_C@_0BA@NFFM@wsStatusChanged?$AA@ 004218d0     moc_workStation.obj
 0003:000028e4       ??_C@_0M@HEAH@workStation?$AA@ 004218e4     moc_workStation.obj
 0003:000028f4       ??_C@_0O@GBOH@QListViewItem?$AA@ 004218f4     moc_workStation.obj
 0003:00002904       ??_C@_0M@BNFA@setWsText?$CI?$CJ?$AA@ 00421904     moc_wstrackermainwindow.obj
 0003:00002914       ??_C@_0N@ONAJ@copyStatus?$CI?$CJ?$AA@ 00421914     moc_wstrackermainwindow.obj
 0003:00002924       ??_C@_0BK@POPA@wsClicked?$CIQListViewItem?$CK?$CJ?$AA@ 00421924     moc_wstrackermainwindow.obj
 0003:00002944       ??_C@_0CD@GLOJ@wsStatusChange?$CIstatusUpdate?$CKcons@ 00421944     moc_wstrackermainwindow.obj
 0003:00002970       ??_C@_09OCCA@goStart?$CI?$CJ?$AA@ 00421970     moc_wstrackermainwindow.obj
 0003:0000297c       ??_C@_08DLMH@goStop?$CI?$CJ?$AA@ 0042197c     moc_wstrackermainwindow.obj
 0003:00002988       ??_C@_0M@PJHD@goRestart?$CI?$CJ?$AA@ 00421988     moc_wstrackermainwindow.obj
 0003:00002998       ??_C@_0P@FFG@goRestartAll?$CI?$CJ?$AA@ 00421998     moc_wstrackermainwindow.obj
 0003:000029ac       ??_C@_07LLFA@about?$CI?$CJ?$AA@ 004219ac     moc_wstrackermainwindow.obj
 0003:000029b8       ??_C@_0BA@MPHJ@connectRemote?$CI?$CJ?$AA@ 004219b8     moc_wstrackermainwindow.obj
 0003:000029cc       ??_C@_07CIPD@dummy?$CI?$CJ?$AA@ 004219cc     moc_wstrackermainwindow.obj
 0003:000029d8       ??_C@_09NDBB@setWsText?$AA@ 004219d8     moc_wstrackermainwindow.obj
 0003:000029e4       ??_C@_0L@NILC@copyStatus?$AA@ 004219e4     moc_wstrackermainwindow.obj
 0003:000029f4       ??_C@_09OHHJ@wsClicked?$AA@ 004219f4     moc_wstrackermainwindow.obj
 0003:00002a00       ??_C@_0P@CAFN@wsStatusChange?$AA@ 00421a00     moc_wstrackermainwindow.obj
 0003:00002a14       ??_C@_07KLPG@goStart?$AA@  00421a14     moc_wstrackermainwindow.obj
 0003:00002a20       ??_C@_06GNPI@goStop?$AA@   00421a20     moc_wstrackermainwindow.obj
 0003:00002a28       ??_C@_09KFAM@goRestart?$AA@ 00421a28     moc_wstrackermainwindow.obj
 0003:00002a34       ??_C@_0N@PAEE@goRestartAll?$AA@ 00421a34     moc_wstrackermainwindow.obj
 0003:00002a44       ??_C@_05FNEB@about?$AA@    00421a44     moc_wstrackermainwindow.obj
 0003:00002a4c       ??_C@_0O@EABO@connectRemote?$AA@ 00421a4c     moc_wstrackermainwindow.obj
 0003:00002a5c       ??_C@_05PNMN@dummy?$AA@    00421a5c     moc_wstrackermainwindow.obj
 0003:00002a64       ??_C@_0BE@MFLC@WSTrackerMainWindow?$AA@ 00421a64     moc_wstrackermainwindow.obj
 0003:00002a7c       ??_C@_0BI@JFOP@WSTrackerMainWindowBase?$AA@ 00421a7c     moc_wstrackermainwindowbase.obj
 0003:00002a98       ??_C@_09NDOA@pbSetText?$AA@ 00421a98     wstrackermainwindowbase.obj
 0003:00002aa4       ??_C@_08KENA@leWsText?$AA@ 00421aa4     wstrackermainwindowbase.obj
 0003:00002ab0       ??_C@_0N@LMFP@textLabel1_4?$AA@ 00421ab0     wstrackermainwindowbase.obj
 0003:00002ac0       ??_C@_09LHHA@layout2_2?$AA@ 00421ac0     wstrackermainwindowbase.obj
 0003:00002acc       ??_C@_0N@DLLH@pbRestartAll?$AA@ 00421acc     wstrackermainwindowbase.obj
 0003:00002adc       ??_C@_09IEJL@pbConnect?$AA@ 00421adc     wstrackermainwindowbase.obj
 0003:00002ae8       ??_C@_09OHJG@pbRestart?$AA@ 00421ae8     wstrackermainwindowbase.obj
 0003:00002af4       ??_C@_07OFGF@pbStart?$AA@  00421af4     wstrackermainwindowbase.obj
 0003:00002b00       ??_C@_06POAA@pbStop?$AA@   00421b00     wstrackermainwindowbase.obj
 0003:00002b08       ??_C@_09CGCO@User?5Name?$AA@ 00421b08     wstrackermainwindowbase.obj
 0003:00002b14       ??_C@_02INKN@OS?$AA@       00421b14     wstrackermainwindowbase.obj
 0003:00002b18       ??_C@_02FOL@IP?$AA@        00421b18     wstrackermainwindowbase.obj
 0003:00002b1c       ??_C@_07FGDA@Last?5Rx?$AA@ 00421b1c     wstrackermainwindowbase.obj
 0003:00002b28       ??_C@_0L@HBLH@Start?5time?$AA@ 00421b28     wstrackermainwindowbase.obj
 0003:00002b38       ??_C@_06IOLI@Status?$AA@   00421b38     wstrackermainwindowbase.obj
 0003:00002b40       ??_C@_04EFNI@Name?$AA@     00421b40     wstrackermainwindowbase.obj
 0003:00002b48       ??_C@_02FCFA@WS?$AA@       00421b48     wstrackermainwindowbase.obj
 0003:00002b4c       ??_C@_0P@FKND@lvWorkstations?$AA@ 00421b4c     wstrackermainwindowbase.obj
 0003:00002b60       ??_C@_09GJNK@lblStatus?$AA@ 00421b60     wstrackermainwindowbase.obj
 0003:00002b6c       ??_C@_0N@OJLK@textLabel1_3?$AA@ 00421b6c     wstrackermainwindowbase.obj
 0003:00002b7c       ??_C@_09HIHK@lblTxMode?$AA@ 00421b7c     wstrackermainwindowbase.obj
 0003:00002b88       ??_C@_0P@NEOM@textLabel1_3_2?$AA@ 00421b88     wstrackermainwindowbase.obj
 0003:00002b9c       ??_C@_05MAAD@lblRx?$AA@    00421b9c     wstrackermainwindowbase.obj
 0003:00002ba4       ??_C@_0N@EDCN@textLabel1_2?$AA@ 00421ba4     wstrackermainwindowbase.obj
 0003:00002bb4       ??_C@_05LHPM@lblTx?$AA@    00421bb4     wstrackermainwindowbase.obj
 0003:00002bbc       ??_C@_09OKP@groupBox1?$AA@ 00421bbc     wstrackermainwindowbase.obj
 0003:00002bc8       ??_C@_0BO@LOJK@WSTrackerMainWindowBaseLayout?$AA@ 00421bc8     wstrackermainwindowbase.obj
 0003:00002bec       ??_C@_0BC@OAFG@qt_central_widget?$AA@ 00421bec     wstrackermainwindowbase.obj
 0003:00002c04       ??_C@_03JFAA@Set?$AA@      00421c04     wstrackermainwindowbase.obj
 0003:00002c08       ??_C@_0P@KCGE@Server?5WS?5Text?$AA@ 00421c08     wstrackermainwindowbase.obj
 0003:00002c1c       ??_C@_0N@DIII@Re?9Start?5All?$AA@ 00421c1c     wstrackermainwindowbase.obj
 0003:00002c2c       ??_C@_06BPM@Remote?$AA@    00421c2c     wstrackermainwindowbase.obj
 0003:00002c34       ??_C@_08KMIF@Re?9Start?$AA@ 00421c34     wstrackermainwindowbase.obj
 0003:00002c40       ??_C@_05IMKO@Start?$AA@    00421c40     wstrackermainwindowbase.obj
 0003:00002c48       ??_C@_04DFLL@Stop?$AA@     00421c48     wstrackermainwindowbase.obj
 0003:00002c50       ??_C@_04PFBC@Mode?$AA@     00421c50     wstrackermainwindowbase.obj
 0003:00002c58       ??_C@_02OHLB@Rx?$AA@       00421c58     wstrackermainwindowbase.obj
 0003:00002c5c       ??_C@_08IMJL@00000000?$AA@ 00421c5c     wstrackermainwindowbase.obj
 0003:00002c68       ??_C@_02JAEO@Tx?$AA@       00421c68     wstrackermainwindowbase.obj
 0003:00002c6c       ??_C@_09DICE@Inforiver?$AA@ 00421c6c     wstrackermainwindowbase.obj
 0003:00002c78       ??_C@_0M@PHEL@Workstation?$AA@ 00421c78     panel:panelif.obj
 0003:00002c84       ??_C@_07NJLA@CSI?4INI?$AA@ 00421c84     panel:panelif.obj
 0003:00002c8c       ??_C@_0BD@DGL@Registering?5class?3?$AA@ 00421c8c     panel:panelif.obj
 0003:00002ca0       ??_C@_07JODG@panelif?$AA@  00421ca0     panel:panelif.obj
 0003:00002ca8       ??_C@_04DCMN@?$CFs?$CFs?$AA@ 00421ca8     panel:panelif.obj
 0003:00002cb0       ??_C@_0BH@MNJL@RM?5?$CFd?5?$CFd?5?$CFd?5?8?$CFs?8?5?$CFd?5?$CFd?$AA@ 00421cb0     panel:panelif.obj
 0003:00002cc8       ??_C@_07NICC@?5?8?0?9?9?9?8?$AA@ 00421cc8     panel:panelif.obj
 0003:00002cd0       ??_C@_03IGPL@?5?$CFd?$AA@  00421cd0     panel:panelif.obj
 0003:00002cd4       ??_C@_0BF@PBKI@_?$CL_?$CL_?$CL_?$CL_?$CL_?$CL_?$CL?5NO?5P?6?$AA@ 00421cd4     panel:panelif.obj
 0003:00002cec       ??_C@_0M@HEPL@RM?5?$CFd?5?$CFd?5?$CFd?$AA@ 00421cec     panel:panelif.obj
 0003:00002cf8       ??_C@_0M@NGNF@CSI?5closing?$AA@ 00421cf8     panel:panelif.obj
 0003:00002d04       ??_C@_0N@GAKB@DG?5?$CF03d?5?$CF03d?$AA@ 00421d04     panel:panelif.obj
 0003:00002d14       ??_C@_0BF@EIHN@DI?5?$CF03d?5?$CF03d?5?$CF03d?5?$CFs?$AA@ 00421d14     panel:panelif.obj
 0003:00002d2c       ??_C@_0BN@OOPG@Header?5doesn?8t?5match?5library?$AA@ 00421d2c     cxinfo:CXINFO.OBJ
 0003:00002d4c       ??_C@_05CKBG@Error?$AA@    00421d4c     cxinfo:CXINFO.OBJ
 0003:00002d54       ??_C@_0O@BJKA@cxextinfospwn?$AA@ 00421d54     cxinfo:CXINFO.OBJ
 0003:00002d64       ??_C@_0BB@JCLM@Device?5ID?5in?5use?$AA@ 00421d64     cxinfo:CXINFO.OBJ
 0003:00002d78       ??_C@_08KLDB@OOB?5Data?$AA@ 00421d78     cxinfo:CXINFO.OBJ
 0003:00002d84       ??_C@_0BM@PALA@Infodriver?5has?5disconnected?$AA@ 00421d84     cxinfo:CXINFO.OBJ
 0003:00002da0       ??_C@_0CE@MPPH@bncs_disklog?3?5Can?8t?5open?5log?5fil@ 00421da0     bncs_disklog:bncs_disklog.obj
 0003:00002dc4       ??_C@_0N@MKOM@?$CFs?2?$CFs?2?$CFs?4log?$AA@ 00421dc4     bncs_disklog:bncs_disklog.obj
 0003:00002dd4       ??_C@_0BH@JOFC@?$CFs?2?$CFs?2?$CF04d?$CF02d?$CF02d?4log?$AA@ 00421dd4     bncs_disklog:bncs_disklog.obj
 0003:00002dec       ??_C@_0BM@GACA@?$CFs?2?$CFs?2?$CF04d?$CF02d?$CF02d?9?$CF02d?4log?$AA@ 00421dec     bncs_disklog:bncs_disklog.obj
 0003:00002e08       ??_C@_0BG@KLKP@localtime?5has?5failed?6?$AA@ 00421e08     bncs_disklog:bncs_disklog.obj
 0003:00002e20       ??_C@_0M@OFHL@c?3?2bncslogs?$AA@ 00421e20     bncs_disklog:bncs_disklog.obj
 0003:00002e2c       ??_C@_0L@PKIN@?$CFs?2?$CFs?2logs?$AA@ 00421e2c     bncs_disklog:bncs_disklog.obj
 0003:00002e38       ??_C@_02PIMC@?$AN?6?$AA@   00421e38     bncs_disklog:bncs_disklog.obj
 0003:00002e3c       ??_C@_02GIEM@?0?5?$AA@     00421e3c     bncs_disklog:bncs_disklog.obj
 0003:00002e40       ??_C@_0BP@LJGD@?$CF02d?1?$CF02d?1?$CF04d?5?$CF02d?3?$CF02d?3?$CF02d?5?$AA@ 00421e40     bncs_disklog:bncs_disklog.obj
 0003:00002e60       ??_C@_0CA@NIKF@?2StringFileInfo?2?$CFs?2SpecialBuild?$AA@ 00421e60     BncsVersionInfo:cBncsVersion.obj
 0003:00002e80       ??_C@_0CE@CKA@?2StringFileInfo?2?$CFs?2OriginalFileN@ 00421e80     BncsVersionInfo:cBncsVersion.obj
 0003:00002ea4       ??_C@_0CA@BBDI@?2StringFileInfo?2?$CFs?2PrivateBuild?$AA@ 00421ea4     BncsVersionInfo:cBncsVersion.obj
 0003:00002ec4       ??_C@_0CD@GCNL@?2StringFileInfo?2?$CFs?2LegalTradeMar@ 00421ec4     BncsVersionInfo:cBncsVersion.obj
 0003:00002ee8       ??_C@_0CC@KILK@?2StringFileInfo?2?$CFs?2ProductVersio@ 00421ee8     BncsVersionInfo:cBncsVersion.obj
 0003:00002f0c       ??_C@_0CC@OKGI@?2StringFileInfo?2?$CFs?2LegalCopyrigh@ 00421f0c     BncsVersionInfo:cBncsVersion.obj
 0003:00002f30       ??_C@_0BP@HFNO@?2StringFileInfo?2?$CFs?2CompanyName?$AA@ 00421f30     BncsVersionInfo:cBncsVersion.obj
 0003:00002f50       ??_C@_0BP@OKDL@?2StringFileInfo?2?$CFs?2ProductName?$AA@ 00421f50     BncsVersionInfo:cBncsVersion.obj
 0003:00002f70       ??_C@_0CA@FECA@?2StringFileInfo?2?$CFs?2InternalName?$AA@ 00421f70     BncsVersionInfo:cBncsVersion.obj
 0003:00002f90       ??_C@_0BM@IIGK@?2StringFileInfo?2?$CFs?2Comments?$AA@ 00421f90     BncsVersionInfo:cBncsVersion.obj
 0003:00002fac       ??_C@_0CD@LFKN@?2StringFileInfo?2?$CFs?2FileDescripti@ 00421fac     BncsVersionInfo:cBncsVersion.obj
 0003:00002fd0       ??_C@_01KMAE@?0?$AA@       00421fd0     BncsVersionInfo:cBncsVersion.obj
 0003:00002fd4       ??_C@_0BP@EOHM@?2StringFileInfo?2?$CFs?2FileVersion?$AA@ 00421fd4     BncsVersionInfo:cBncsVersion.obj
 0003:00002ff4       ??_C@_08CALL@?$CF04X?$CF04X?$AA@ 00421ff4     BncsVersionInfo:cBncsVersion.obj
 0003:00003000       ??_C@_0BJ@KCFH@?2VarFileInfo?2Translation?$AA@ 00422000     BncsVersionInfo:cBncsVersion.obj
 0003:0000301c       ??_C@_0CB@PACC@2messageReceived?$CIconst?5QString?$CG?$CJ@ 0042201c     QTSingleApplication:qtsingleapplication_win.obj
 0003:00003040       ??_C@_0BG@KDJG@1activateMainWidget?$CI?$CJ?$AA@ 00422040     QTSingleApplication:qtsingleapplication_win.obj
 0003:00003058       ??_C@_0CA@MGPF@messageReceived?$CIconst?5QString?$CG?$CJ?$AA@ 00422058     QTSingleApplication:moc_qtsingleapplication.obj
 0003:00003078       ??_C@_0BA@KNKB@messageReceived?$AA@ 00422078     QTSingleApplication:moc_qtsingleapplication.obj
 0003:00003098       ??_C@_07NPGL@message?$AA@  00422098     QTSingleApplication:moc_qtsingleapplication.obj
 0003:000030a0       ??_C@_0BF@DPJF@activateMainWidget?$CI?$CJ?$AA@ 004220a0     QTSingleApplication:moc_qtsingleapplication.obj
 0003:000030b8       ??_C@_0CA@LAIH@sendMessage?$CIconst?5QString?$CG?0int?$CJ?$AA@ 004220b8     QTSingleApplication:moc_qtsingleapplication.obj
 0003:000030d8       ??_C@_0BM@BFIN@sendMessage?$CIconst?5QString?$CG?$CJ?$AA@ 004220d8     QTSingleApplication:moc_qtsingleapplication.obj
 0003:000030f4       ??_C@_0BD@DIIL@activateMainWidget?$AA@ 004220f4     QTSingleApplication:moc_qtsingleapplication.obj
 0003:00003108       ??_C@_0M@LKJJ@sendMessage?$AA@ 00422108     QTSingleApplication:moc_qtsingleapplication.obj
 0003:00003114       ??_C@_0BE@NPLF@QtSingleApplication?$AA@ 00422114     QTSingleApplication:moc_qtsingleapplication.obj
 0003:00003128       ??_C@_07OGDM@timeout?$AA@  00422128     QTSingleApplication:moc_qtsingleapplication.obj
 0003:00003130       ___defaultmatherr          00422130     MSVCRT:merr.obj
 0003:00003438       ??_C@_00A@?$AA@            00422438     infodriverIf.obj
 0003:00003440       ?metaObj@restartAllBase@@0PAVQMetaObject@@A 00422440     moc_restartall.obj
 0003:0000344c       ?metaObj@restartAll@@0PAVQMetaObject@@A 0042244c     moc_restartallimpl.obj
 0003:00003460       ?metaObj@infodriverIf@@0PAVQMetaObject@@A 00422460     moc_infodriverIf.obj
 0003:00003488       ?metaObj@netComms@@0PAVQMetaObject@@A 00422488     moc_netComms.obj
 0003:000034b0       ?metaObj@workStation@@0PAVQMetaObject@@A 004224b0     moc_workStation.obj
 0003:000034d8       ?metaObj@WSTrackerMainWindow@@0PAVQMetaObject@@A 004224d8     moc_wstrackermainwindow.obj
 0003:00003534       ?metaObj@WSTrackerMainWindowBase@@0PAVQMetaObject@@A 00422534     moc_wstrackermainwindowbase.obj
 0003:00003598       ?metaObj@QtSingleApplication@@0PAVQMetaObject@@A 00422598     QTSingleApplication:moc_qtsingleapplication.obj
 0003:000035f0       __dowildcard               004225f0     MSVCRT:wildcard.obj
 0003:000035f4       __newmode                  004225f4     MSVCRT:_newmode.obj
 0003:000035f8       __commode                  004225f8     MSVCRT:xncommod.obj
 0003:000035fc       __fmode                    004225fc     MSVCRT:xtxtmode.obj
 0003:00003600       __adjust_fdiv              00422600     <common>
 0003:0000360c       ___onexitend               0042260c     <common>
 0003:0000361c       ___onexitbegin             0042261c     <common>
 0004:00000000       __IMPORT_DESCRIPTOR_BNCSIF32 00423000     bncsif32:BNCSIF32.dll
 0004:00000014       __IMPORT_DESCRIPTOR_KERNEL32 00423014     kernel32:KERNEL32.dll
 0004:00000028       __IMPORT_DESCRIPTOR_USER32 00423028     user32:USER32.dll
 0004:0000003c       __IMPORT_DESCRIPTOR_GDI32  0042303c     gdi32:GDI32.dll
 0004:00000050       __IMPORT_DESCRIPTOR_WSOCK32 00423050     wsock32:WSOCK32.dll
 0004:00000064       __IMPORT_DESCRIPTOR_qt-mt323 00423064     qt-mt323:qt-mt323.dll
 0004:00000078       __IMPORT_DESCRIPTOR_MSVCRT 00423078     MSVCRT:MSVCRT.dll
 0004:0000008c       __IMPORT_DESCRIPTOR_VERSION 0042308c     version:VERSION.dll
 0004:000000a0       __NULL_IMPORT_DESCRIPTOR   004230a0     bncsif32:BNCSIF32.dll
 0004:000014fc       __imp__BNCS32RxMessage     004244fc     bncsif32:BNCSIF32.dll
 0004:00001500       __imp__BNCS32TxMessage     00424500     bncsif32:BNCSIF32.dll
 0004:00001504       \177BNCSIF32_NULL_THUNK_DATA 00424504     bncsif32:BNCSIF32.dll
 0004:00001530       __imp__GetStockObject@4    00424530     gdi32:GDI32.dll
 0004:00001534       \177GDI32_NULL_THUNK_DATA  00424534     gdi32:GDI32.dll
 0004:00001560       __imp__GetPrivateProfileIntA@16 00424560     kernel32:KERNEL32.dll
 0004:00001564       __imp__GetLastError@0      00424564     kernel32:KERNEL32.dll
 0004:00001568       __imp__lstrcpynA@12        00424568     kernel32:KERNEL32.dll
 0004:0000156c       __imp__LocalFree@4         0042456c     kernel32:KERNEL32.dll
 0004:00001570       __imp__OutputDebugStringA@4 00424570     kernel32:KERNEL32.dll
 0004:00001574       __imp__FormatMessageA@28   00424574     kernel32:KERNEL32.dll
 0004:00001578       __imp__lstrlenA@4          00424578     kernel32:KERNEL32.dll
 0004:0000157c       __imp__lstrcatA@8          0042457c     kernel32:KERNEL32.dll
 0004:00001580       __imp__lstrcpyA@8          00424580     kernel32:KERNEL32.dll
 0004:00001584       __imp__lstrcmpA@8          00424584     kernel32:KERNEL32.dll
 0004:00001588       __imp__SetFilePointer@16   00424588     kernel32:KERNEL32.dll
 0004:0000158c       __imp__CreateFileA@28      0042458c     kernel32:KERNEL32.dll
 0004:00001590       __imp__CloseHandle@4       00424590     kernel32:KERNEL32.dll
 0004:00001594       __imp__WritePrivateProfileStringA@16 00424594     kernel32:KERNEL32.dll
 0004:00001598       __imp__SetEndOfFile@4      00424598     kernel32:KERNEL32.dll
 0004:0000159c       __imp__WriteFile@20        0042459c     kernel32:KERNEL32.dll
 0004:000015a0       __imp__GetStartupInfoA@4   004245a0     kernel32:KERNEL32.dll
 0004:000015a4       __imp__GetModuleHandleA@4  004245a4     kernel32:KERNEL32.dll
 0004:000015a8       __imp__GetPrivateProfileStringA@24 004245a8     kernel32:KERNEL32.dll
 0004:000015ac       \177KERNEL32_NULL_THUNK_DATA 004245ac     kernel32:KERNEL32.dll
 0004:000015e4       __imp____set_app_type      004245e4     MSVCRT:MSVCRT.dll
 0004:000015e8       __imp____p__fmode          004245e8     MSVCRT:MSVCRT.dll
 0004:000015ec       __imp____p__commode        004245ec     MSVCRT:MSVCRT.dll
 0004:000015f0       __imp___adjust_fdiv        004245f0     MSVCRT:MSVCRT.dll
 0004:000015f4       __imp____setusermatherr    004245f4     MSVCRT:MSVCRT.dll
 0004:000015f8       __imp___initterm           004245f8     MSVCRT:MSVCRT.dll
 0004:000015fc       __imp____getmainargs       004245fc     MSVCRT:MSVCRT.dll
 0004:00001600       __imp___acmdln             00424600     MSVCRT:MSVCRT.dll
 0004:00001604       __imp__exit                00424604     MSVCRT:MSVCRT.dll
 0004:00001608       __imp___controlfp          00424608     MSVCRT:MSVCRT.dll
 0004:0000160c       __imp__strcpy              0042460c     MSVCRT:MSVCRT.dll
 0004:00001610       __imp___XcptFilter         00424610     MSVCRT:MSVCRT.dll
 0004:00001614       __imp___exit               00424614     MSVCRT:MSVCRT.dll
 0004:00001618       __imp_?terminate@@YAXXZ    00424618     MSVCRT:MSVCRT.dll
 0004:0000161c       __imp___except_handler3    0042461c     MSVCRT:MSVCRT.dll
 0004:00001620       __imp___onexit             00424620     MSVCRT:MSVCRT.dll
 0004:00001624       __imp____dllonexit         00424624     MSVCRT:MSVCRT.dll
 0004:00001628       __imp__malloc              00424628     MSVCRT:MSVCRT.dll
 0004:0000162c       __imp__strpbrk             0042462c     MSVCRT:MSVCRT.dll
 0004:00001630       __imp__free                00424630     MSVCRT:MSVCRT.dll
 0004:00001634       __imp__strtok              00424634     MSVCRT:MSVCRT.dll
 0004:00001638       __imp___mkdir              00424638     MSVCRT:MSVCRT.dll
 0004:0000163c       __imp__strncpy             0042463c     MSVCRT:MSVCRT.dll
 0004:00001640       __imp__time                00424640     MSVCRT:MSVCRT.dll
 0004:00001644       __imp__localtime           00424644     MSVCRT:MSVCRT.dll
 0004:00001648       __imp__vsprintf            00424648     MSVCRT:MSVCRT.dll
 0004:0000164c       __imp___purecall           0042464c     MSVCRT:MSVCRT.dll
 0004:00001650       __imp___ftol               00424650     MSVCRT:MSVCRT.dll
 0004:00001654       __imp__sprintf             00424654     MSVCRT:MSVCRT.dll
 0004:00001658       __imp__getenv              00424658     MSVCRT:MSVCRT.dll
 0004:0000165c       __imp__atoi                0042465c     MSVCRT:MSVCRT.dll
 0004:00001660       __imp_??2@YAPAXI@Z         00424660     MSVCRT:MSVCRT.dll
 0004:00001664       __imp_??3@YAXPAX@Z         00424664     MSVCRT:MSVCRT.dll
 0004:00001668       __imp____CxxFrameHandler   00424668     MSVCRT:MSVCRT.dll
 0004:0000166c       __imp__strlen              0042466c     MSVCRT:MSVCRT.dll
 0004:00001670       \177MSVCRT_NULL_THUNK_DATA 00424670     MSVCRT:MSVCRT.dll
 0004:000016b8       __imp__CreateWindowExA@48  004246b8     user32:USER32.dll
 0004:000016bc       __imp__RegisterClassA@4    004246bc     user32:USER32.dll
 0004:000016c0       __imp__DestroyWindow@4     004246c0     user32:USER32.dll
 0004:000016c4       __imp__IsWindow@4          004246c4     user32:USER32.dll
 0004:000016c8       __imp__SendMessageA@16     004246c8     user32:USER32.dll
 0004:000016cc       __imp__wsprintfA           004246cc     user32:USER32.dll
 0004:000016d0       __imp__DefWindowProcA@16   004246d0     user32:USER32.dll
 0004:000016d4       __imp__PostMessageA@16     004246d4     user32:USER32.dll
 0004:000016d8       __imp__FindWindowA@8       004246d8     user32:USER32.dll
 0004:000016dc       __imp__SetWindowLongA@12   004246dc     user32:USER32.dll
 0004:000016e0       __imp__GetWindowLongA@8    004246e0     user32:USER32.dll
 0004:000016e4       __imp__MessageBoxA@16      004246e4     user32:USER32.dll
 0004:000016e8       __imp__UnregisterClassA@8  004246e8     user32:USER32.dll
 0004:000016ec       __imp__SendMessageTimeoutA@28 004246ec     user32:USER32.dll
 0004:000016f0       \177USER32_NULL_THUNK_DATA 004246f0     user32:USER32.dll
 0004:00001724       __imp__GetFileVersionInfoA@16 00424724     version:VERSION.dll
 0004:00001728       __imp__VerQueryValueA@16   00424728     version:VERSION.dll
 0004:0000172c       __imp__GetFileVersionInfoSizeA@8 0042472c     version:VERSION.dll
 0004:00001730       \177VERSION_NULL_THUNK_DATA 00424730     version:VERSION.dll
 0004:0000175c       __imp__setsockopt@20       0042475c     wsock32:WSOCK32.dll
 0004:00001760       \177WSOCK32_NULL_THUNK_DATA 00424760     wsock32:WSOCK32.dll
 0004:0000178c       __imp_??1?$QPtrList@VQObject@@@@UAE@XZ 0042478c     qt-mt323:qt-mt323.dll
 0004:00001790       __imp_??1?$QPtrList@VQWidget@@@@UAE@XZ 00424790     qt-mt323:qt-mt323.dll
 0004:00001794       __imp_?exec@QApplication@@QAEHXZ 00424794     qt-mt323:qt-mt323.dll
 0004:00001798       __imp_?show@QMainWindow@@UAEXXZ 00424798     qt-mt323:qt-mt323.dll
 0004:0000179c       __imp_?setMainWidget@QApplication@@UAEXPAVQWidget@@@Z 0042479c     qt-mt323:qt-mt323.dll
 0004:000017a0       __imp_?information@QMessageBox@@SAHPAVQWidget@@ABVQString@@1HHH@Z 004247a0     qt-mt323:qt-mt323.dll
 0004:000017a4       __imp_??1?$QPtrList@VQDockWindow@@@@UAE@XZ 004247a4     qt-mt323:qt-mt323.dll
 0004:000017a8       __imp_??0QMetaObjectCleanUp@@QAE@PBDP6APAVQMetaObject@@XZ@Z 004247a8     qt-mt323:qt-mt323.dll
 0004:000017ac       __imp_??1QMetaObjectCleanUp@@QAE@XZ 004247ac     qt-mt323:qt-mt323.dll
 0004:000017b0       __imp_?fromLatin1@QString@@SA?AV1@PBDH@Z 004247b0     qt-mt323:qt-mt323.dll
 0004:000017b4       __imp_?translate@QApplication@@QBE?AVQString@@PBD00W4Encoding@1@@Z 004247b4     qt-mt323:qt-mt323.dll
 0004:000017b8       __imp_?qApp@@3PAVQApplication@@A 004247b8     qt-mt323:qt-mt323.dll
 0004:000017bc       __imp_?fromUtf8@QString@@SA?AV1@PBDH@Z 004247bc     qt-mt323:qt-mt323.dll
 0004:000017c0       __imp_?setMetaObject@QMetaObjectCleanUp@@QAEXAAPAVQMetaObject@@@Z 004247c0     qt-mt323:qt-mt323.dll
 0004:000017c4       __imp_?new_metaobject@QMetaObject@@SAPAV1@PBDPAV1@QBUQMetaData@@H2HQBVQMetaProperty@@HQBUQMetaEnum@@HQBUQClassInfo@@H@Z 004247c4     qt-mt323:qt-mt323.dll
 0004:000017c8       __imp_?staticMetaObject@QDialog@@SAPAVQMetaObject@@XZ 004247c8     qt-mt323:qt-mt323.dll
 0004:000017cc       __imp_?qt_cast@QDialog@@UAEPAXPBD@Z 004247cc     qt-mt323:qt-mt323.dll
 0004:000017d0       __imp_?qt_invoke@QDialog@@UAE_NHPAUQUObject@@@Z 004247d0     qt-mt323:qt-mt323.dll
 0004:000017d4       __imp_?qt_emit@QDialog@@UAE_NHPAUQUObject@@@Z 004247d4     qt-mt323:qt-mt323.dll
 0004:000017d8       __imp_?qt_property@QDialog@@UAE_NHHPAVQVariant@@@Z 004247d8     qt-mt323:qt-mt323.dll
 0004:000017dc       __imp_??1?$QPtrList@VQConnection@@@@UAE@XZ 004247dc     qt-mt323:qt-mt323.dll
 0004:000017e0       __imp_?setEnabled@QSocketNotifier@@UAEX_N@Z 004247e0     qt-mt323:qt-mt323.dll
 0004:000017e4       __imp_?timerEvent@QObject@@MAEXPAVQTimerEvent@@@Z 004247e4     qt-mt323:qt-mt323.dll
 0004:000017e8       __imp_?event@QSocketNotifier@@MAE_NPAVQEvent@@@Z 004247e8     qt-mt323:qt-mt323.dll
 0004:000017ec       __imp_?qt_property@QSocketNotifier@@UAE_NHHPAVQVariant@@@Z 004247ec     qt-mt323:qt-mt323.dll
 0004:000017f0       __imp_?qt_emit@QSocketNotifier@@UAE_NHPAUQUObject@@@Z 004247f0     qt-mt323:qt-mt323.dll
 0004:000017f4       __imp_?qt_invoke@QSocketNotifier@@UAE_NHPAUQUObject@@@Z 004247f4     qt-mt323:qt-mt323.dll
 0004:000017f8       __imp_?qt_cast@QSocketNotifier@@UAEPAXPBD@Z 004247f8     qt-mt323:qt-mt323.dll
 0004:000017fc       __imp_?className@QSocketNotifier@@UBEPBDXZ 004247fc     qt-mt323:qt-mt323.dll
 0004:00001800       __imp_?metaObject@QSocketNotifier@@UBEPAVQMetaObject@@XZ 00424800     qt-mt323:qt-mt323.dll
 0004:00001804       __imp_?setOption@QSocketDevice@@EAEXW4Option@1@H@Z 00424804     qt-mt323:qt-mt323.dll
 0004:00001808       __imp_?writeBlock@QSocketDevice@@UAEJPBDKABVQHostAddress@@G@Z 00424808     qt-mt323:qt-mt323.dll
 0004:0000180c       __imp_?accept@QSocketDevice@@UAEHXZ 0042480c     qt-mt323:qt-mt323.dll
 0004:00001810       __imp_?listen@QSocketDevice@@UAE_NH@Z 00424810     qt-mt323:qt-mt323.dll
 0004:00001814       __imp_?bind@QSocketDevice@@UAE_NABVQHostAddress@@G@Z 00424814     qt-mt323:qt-mt323.dll
 0004:00001818       __imp_?connect@QSocketDevice@@UAE_NABVQHostAddress@@G@Z 00424818     qt-mt323:qt-mt323.dll
 0004:0000181c       __imp_?setSendBufferSize@QSocketDevice@@UAEXI@Z 0042481c     qt-mt323:qt-mt323.dll
 0004:00001820       __imp_?setReceiveBufferSize@QSocketDevice@@UAEXI@Z 00424820     qt-mt323:qt-mt323.dll
 0004:00001824       __imp_?setAddressReusable@QSocketDevice@@UAEX_N@Z 00424824     qt-mt323:qt-mt323.dll
 0004:00001828       __imp_?setBlocking@QSocketDevice@@UAEX_N@Z 00424828     qt-mt323:qt-mt323.dll
 0004:0000182c       __imp_?setSocket@QSocketDevice@@UAEXHW4Type@1@@Z 0042482c     qt-mt323:qt-mt323.dll
 0004:00001830       __imp_?ungetch@QSocketDevice@@UAEHH@Z 00424830     qt-mt323:qt-mt323.dll
 0004:00001834       __imp_?putch@QSocketDevice@@UAEHH@Z 00424834     qt-mt323:qt-mt323.dll
 0004:00001838       __imp_?getch@QSocketDevice@@UAEHXZ 00424838     qt-mt323:qt-mt323.dll
 0004:0000183c       __imp_?readAll@QIODevice@@UAE?AV?$QMemArray@D@@XZ 0042483c     qt-mt323:qt-mt323.dll
 0004:00001840       __imp_?readLine@QIODevice@@UAEJPADK@Z 00424840     qt-mt323:qt-mt323.dll
 0004:00001844       __imp_?writeBlock@QSocketDevice@@UAEJPBDK@Z 00424844     qt-mt323:qt-mt323.dll
 0004:00001848       __imp_?readBlock@QSocketDevice@@UAEJPADK@Z 00424848     qt-mt323:qt-mt323.dll
 0004:0000184c       __imp_?atEnd@QSocketDevice@@UBE_NXZ 0042484c     qt-mt323:qt-mt323.dll
 0004:00001850       __imp_?at@QSocketDevice@@UBEKXZ 00424850     qt-mt323:qt-mt323.dll
 0004:00001854       __imp_?at@QSocketDevice@@UAE_NK@Z 00424854     qt-mt323:qt-mt323.dll
 0004:00001858       __imp_?size@QSocketDevice@@UBEKXZ 00424858     qt-mt323:qt-mt323.dll
 0004:0000185c       __imp_?flush@QSocketDevice@@UAEXXZ 0042485c     qt-mt323:qt-mt323.dll
 0004:00001860       __imp_?close@QSocketDevice@@UAEXXZ 00424860     qt-mt323:qt-mt323.dll
 0004:00001864       __imp_?open@QSocketDevice@@UAE_NH@Z 00424864     qt-mt323:qt-mt323.dll
 0004:00001868       __imp_?connect@QObject@@SA_NPBV1@PBD01@Z 00424868     qt-mt323:qt-mt323.dll
 0004:0000186c       __imp_??0QSocketNotifier@@QAE@HW4Type@0@PAVQObject@@PBD@Z 0042486c     qt-mt323:qt-mt323.dll
 0004:00001870       __imp_?socket@QSocketDevice@@QBEHXZ 00424870     qt-mt323:qt-mt323.dll
 0004:00001874       __imp_??1QHostAddress@@UAE@XZ 00424874     qt-mt323:qt-mt323.dll
 0004:00001878       __imp_??0QHostAddress@@QAE@I@Z 00424878     qt-mt323:qt-mt323.dll
 0004:0000187c       __imp_?setAddress@QHostAddress@@QAE_NABVQString@@@Z 0042487c     qt-mt323:qt-mt323.dll
 0004:00001880       __imp_??0QHostAddress@@QAE@XZ 00424880     qt-mt323:qt-mt323.dll
 0004:00001884       __imp_??0QSocketDevice@@QAE@W4Type@0@@Z 00424884     qt-mt323:qt-mt323.dll
 0004:00001888       __imp_??1QSocketDevice@@UAE@XZ 00424888     qt-mt323:qt-mt323.dll
 0004:0000188c       __imp_??1QSocketNotifier@@UAE@XZ 0042488c     qt-mt323:qt-mt323.dll
 0004:00001890       __imp_??1QStringList@@QAE@XZ 00424890     qt-mt323:qt-mt323.dll
 0004:00001894       __imp_??A?$QValueList@VQString@@@@QAEAAVQString@@I@Z 00424894     qt-mt323:qt-mt323.dll
 0004:00001898       __imp_?toString@QHostAddress@@QBE?AVQString@@XZ 00424898     qt-mt323:qt-mt323.dll
 0004:0000189c       __imp_?peerAddress@QSocketDevice@@QBE?AVQHostAddress@@XZ 0042489c     qt-mt323:qt-mt323.dll
 0004:000018a0       __imp_?setTime_t@QDateTime@@QAEXI@Z 004248a0     qt-mt323:qt-mt323.dll
 0004:000018a4       __imp_?toUInt@QString@@QBEIPA_NH@Z 004248a4     qt-mt323:qt-mt323.dll
 0004:000018a8       __imp_?toInt@QString@@QBEHPA_NH@Z 004248a8     qt-mt323:qt-mt323.dll
 0004:000018ac       __imp_?detachInternal@?$QValueList@VQString@@@@AAEXXZ 004248ac     qt-mt323:qt-mt323.dll
 0004:000018b0       __imp_?split@QStringList@@SA?AV1@ABVQString@@0_N@Z 004248b0     qt-mt323:qt-mt323.dll
 0004:000018b4       __imp_?error@QSocketDevice@@QBE?AW4Error@1@XZ 004248b4     qt-mt323:qt-mt323.dll
 0004:000018b8       __imp_?isValid@QSocketDevice@@QBE_NXZ 004248b8     qt-mt323:qt-mt323.dll
 0004:000018bc       __imp_?qWarning@@YAXPBDZZ  004248bc     qt-mt323:qt-mt323.dll
 0004:000018c0       __imp_?reject@QDialog@@MAEXXZ 004248c0     qt-mt323:qt-mt323.dll
 0004:000018c4       __imp_?accept@QDialog@@MAEXXZ 004248c4     qt-mt323:qt-mt323.dll
 0004:000018c8       __imp_?done@QDialog@@MAEXH@Z 004248c8     qt-mt323:qt-mt323.dll
 0004:000018cc       __imp_?contextMenuEvent@QDialog@@MAEXPAVQContextMenuEvent@@@Z 004248cc     qt-mt323:qt-mt323.dll
 0004:000018d0       __imp_?closeEvent@QDialog@@MAEXPAVQCloseEvent@@@Z 004248d0     qt-mt323:qt-mt323.dll
 0004:000018d4       __imp_?resizeEvent@QDialog@@MAEXPAVQResizeEvent@@@Z 004248d4     qt-mt323:qt-mt323.dll
 0004:000018d8       __imp_?keyPressEvent@QDialog@@MAEXPAVQKeyEvent@@@Z 004248d8     qt-mt323:qt-mt323.dll
 0004:000018dc       __imp_?minimumSizeHint@QDialog@@UBE?AVQSize@@XZ 004248dc     qt-mt323:qt-mt323.dll
 0004:000018e0       __imp_?sizeHint@QDialog@@UBE?AVQSize@@XZ 004248e0     qt-mt323:qt-mt323.dll
 0004:000018e4       __imp_?setGeometry@QDialog@@UAEXHHHH@Z 004248e4     qt-mt323:qt-mt323.dll
 0004:000018e8       __imp_?setGeometry@QDialog@@UAEXABVQRect@@@Z 004248e8     qt-mt323:qt-mt323.dll
 0004:000018ec       __imp_?resize@QDialog@@UAEXHH@Z 004248ec     qt-mt323:qt-mt323.dll
 0004:000018f0       __imp_?move@QDialog@@UAEXHH@Z 004248f0     qt-mt323:qt-mt323.dll
 0004:000018f4       __imp_?hide@QDialog@@UAEXXZ 004248f4     qt-mt323:qt-mt323.dll
 0004:000018f8       __imp_?show@QDialog@@UAEXXZ 004248f8     qt-mt323:qt-mt323.dll
 0004:000018fc       __imp_?eventFilter@QDialog@@MAE_NPAVQObject@@PAVQEvent@@@Z 004248fc     qt-mt323:qt-mt323.dll
 0004:00001900       __imp_?drawButtonLabel@QCheckBox@@MAEXPAVQPainter@@@Z 00424900     qt-mt323:qt-mt323.dll
 0004:00001904       __imp_?drawButton@QCheckBox@@MAEXPAVQPainter@@@Z 00424904     qt-mt323:qt-mt323.dll
 0004:00001908       __imp_?hitButton@QCheckBox@@MBE_NABVQPoint@@@Z 00424908     qt-mt323:qt-mt323.dll
 0004:0000190c       __imp_?updateMask@QCheckBox@@MAEXXZ 0042490c     qt-mt323:qt-mt323.dll
 0004:00001910       __imp_?resizeEvent@QCheckBox@@MAEXPAVQResizeEvent@@@Z 00424910     qt-mt323:qt-mt323.dll
 0004:00001914       __imp_?focusOutEvent@QButton@@MAEXPAVQFocusEvent@@@Z 00424914     qt-mt323:qt-mt323.dll
 0004:00001918       __imp_?focusInEvent@QButton@@MAEXPAVQFocusEvent@@@Z 00424918     qt-mt323:qt-mt323.dll
 0004:0000191c       __imp_?sizeHint@QCheckBox@@UBE?AVQSize@@XZ 0042491c     qt-mt323:qt-mt323.dll
 0004:00001920       __imp_?qt_property@QCheckBox@@UAE_NHHPAVQVariant@@@Z 00424920     qt-mt323:qt-mt323.dll
 0004:00001924       __imp_?qt_emit@QCheckBox@@UAE_NHPAUQUObject@@@Z 00424924     qt-mt323:qt-mt323.dll
 0004:00001928       __imp_?qt_invoke@QCheckBox@@UAE_NHPAUQUObject@@@Z 00424928     qt-mt323:qt-mt323.dll
 0004:0000192c       __imp_?qt_cast@QCheckBox@@UAEPAXPBD@Z 0042492c     qt-mt323:qt-mt323.dll
 0004:00001930       __imp_?className@QCheckBox@@UBEPBDXZ 00424930     qt-mt323:qt-mt323.dll
 0004:00001934       __imp_?metaObject@QCheckBox@@UBEPAVQMetaObject@@XZ 00424934     qt-mt323:qt-mt323.dll
 0004:00001938       __imp_?stepChange@QRangeControl@@MAEXXZ 00424938     qt-mt323:qt-mt323.dll
 0004:0000193c       __imp_?rangeChange@QSpinBox@@MAEXXZ 0042493c     qt-mt323:qt-mt323.dll
 0004:00001940       __imp_?valueChange@QSpinBox@@MAEXXZ 00424940     qt-mt323:qt-mt323.dll
 0004:00001944       __imp_?interpretText@QSpinBox@@MAEXXZ 00424944     qt-mt323:qt-mt323.dll
 0004:00001948       __imp_?updateDisplay@QSpinBox@@MAEXXZ 00424948     qt-mt323:qt-mt323.dll
 0004:0000194c       __imp_?mapTextToValue@QSpinBox@@MAEHPA_N@Z 0042494c     qt-mt323:qt-mt323.dll
 0004:00001950       __imp_?mapValueToText@QSpinBox@@MAE?AVQString@@H@Z 00424950     qt-mt323:qt-mt323.dll
 0004:00001954       __imp_?selectAll@QSpinBox@@UAEXXZ 00424954     qt-mt323:qt-mt323.dll
 0004:00001958       __imp_?stepDown@QSpinBox@@UAEXXZ 00424958     qt-mt323:qt-mt323.dll
 0004:0000195c       __imp_?stepUp@QSpinBox@@UAEXXZ 0042495c     qt-mt323:qt-mt323.dll
 0004:00001960       __imp_?setSuffix@QSpinBox@@UAEXABVQString@@@Z 00424960     qt-mt323:qt-mt323.dll
 0004:00001964       __imp_?setPrefix@QSpinBox@@UAEXABVQString@@@Z 00424964     qt-mt323:qt-mt323.dll
 0004:00001968       __imp_?setValue@QSpinBox@@UAEXH@Z 00424968     qt-mt323:qt-mt323.dll
 0004:0000196c       __imp_?setValidator@QSpinBox@@UAEXPBVQValidator@@@Z 0042496c     qt-mt323:qt-mt323.dll
 0004:00001970       __imp_?setButtonSymbols@QSpinBox@@UAEXW4ButtonSymbols@1@@Z 00424970     qt-mt323:qt-mt323.dll
 0004:00001974       __imp_?setWrapping@QSpinBox@@UAEX_N@Z 00424974     qt-mt323:qt-mt323.dll
 0004:00001978       __imp_?setSpecialValueText@QSpinBox@@UAEXABVQString@@@Z 00424978     qt-mt323:qt-mt323.dll
 0004:0000197c       __imp_?cleanText@QSpinBox@@UBE?AVQString@@XZ 0042497c     qt-mt323:qt-mt323.dll
 0004:00001980       __imp_?suffix@QSpinBox@@UBE?AVQString@@XZ 00424980     qt-mt323:qt-mt323.dll
 0004:00001984       __imp_?prefix@QSpinBox@@UBE?AVQString@@XZ 00424984     qt-mt323:qt-mt323.dll
 0004:00001988       __imp_?styleChange@QSpinBox@@MAEXAAVQStyle@@@Z 00424988     qt-mt323:qt-mt323.dll
 0004:0000198c       __imp_?resizeEvent@QSpinBox@@MAEXPAVQResizeEvent@@@Z 0042498c     qt-mt323:qt-mt323.dll
 0004:00001990       __imp_?paintEvent@QWidget@@MAEXPAVQPaintEvent@@@Z 00424990     qt-mt323:qt-mt323.dll
 0004:00001994       __imp_?leaveEvent@QSpinBox@@MAEXPAVQEvent@@@Z 00424994     qt-mt323:qt-mt323.dll
 0004:00001998       __imp_?wheelEvent@QSpinBox@@MAEXPAVQWheelEvent@@@Z 00424998     qt-mt323:qt-mt323.dll
 0004:0000199c       __imp_?minimumSizeHint@QSpinBox@@UBE?AVQSize@@XZ 0042499c     qt-mt323:qt-mt323.dll
 0004:000019a0       __imp_?sizeHint@QSpinBox@@UBE?AVQSize@@XZ 004249a0     qt-mt323:qt-mt323.dll
 0004:000019a4       __imp_?setEnabled@QSpinBox@@UAEX_N@Z 004249a4     qt-mt323:qt-mt323.dll
 0004:000019a8       __imp_?eventFilter@QSpinBox@@MAE_NPAVQObject@@PAVQEvent@@@Z 004249a8     qt-mt323:qt-mt323.dll
 0004:000019ac       __imp_?qt_property@QSpinBox@@UAE_NHHPAVQVariant@@@Z 004249ac     qt-mt323:qt-mt323.dll
 0004:000019b0       __imp_?qt_emit@QSpinBox@@UAE_NHPAUQUObject@@@Z 004249b0     qt-mt323:qt-mt323.dll
 0004:000019b4       __imp_?qt_invoke@QSpinBox@@UAE_NHPAUQUObject@@@Z 004249b4     qt-mt323:qt-mt323.dll
 0004:000019b8       __imp_?qt_cast@QSpinBox@@UAEPAXPBD@Z 004249b8     qt-mt323:qt-mt323.dll
 0004:000019bc       __imp_?className@QSpinBox@@UBEPBDXZ 004249bc     qt-mt323:qt-mt323.dll
 0004:000019c0       __imp_?metaObject@QSpinBox@@UBEPAVQMetaObject@@XZ 004249c0     qt-mt323:qt-mt323.dll
 0004:000019c4       __imp_?setNum@QLabel@@UAEXH@Z 004249c4     qt-mt323:qt-mt323.dll
 0004:000019c8       __imp_?setNum@QLabel@@UAEXN@Z 004249c8     qt-mt323:qt-mt323.dll
 0004:000019cc       __imp_?setMovie@QLabel@@UAEXABVQMovie@@@Z 004249cc     qt-mt323:qt-mt323.dll
 0004:000019d0       __imp_?setPicture@QLabel@@UAEXABVQPicture@@@Z 004249d0     qt-mt323:qt-mt323.dll
 0004:000019d4       __imp_?setPixmap@QLabel@@UAEXABVQPixmap@@@Z 004249d4     qt-mt323:qt-mt323.dll
 0004:000019d8       __imp_?setText@QLabel@@UAEXABVQString@@@Z 004249d8     qt-mt323:qt-mt323.dll
 0004:000019dc       __imp_?setBuddy@QLabel@@UAEXPAVQWidget@@@Z 004249dc     qt-mt323:qt-mt323.dll
 0004:000019e0       __imp_?setAutoResize@QLabel@@UAEX_N@Z 004249e0     qt-mt323:qt-mt323.dll
 0004:000019e4       __imp_?setAlignment@QLabel@@UAEXH@Z 004249e4     qt-mt323:qt-mt323.dll
 0004:000019e8       __imp_?frameChanged@QFrame@@MAEXXZ 004249e8     qt-mt323:qt-mt323.dll
 0004:000019ec       __imp_?drawContents@QLabel@@MAEXPAVQPainter@@@Z 004249ec     qt-mt323:qt-mt323.dll
 0004:000019f0       __imp_?drawFrame@QFrame@@MAEXPAVQPainter@@@Z 004249f0     qt-mt323:qt-mt323.dll
 0004:000019f4       __imp_?setFrameRect@QFrame@@UAEXABVQRect@@@Z 004249f4     qt-mt323:qt-mt323.dll
 0004:000019f8       __imp_?setMidLineWidth@QFrame@@UAEXH@Z 004249f8     qt-mt323:qt-mt323.dll
 0004:000019fc       __imp_?setMargin@QFrame@@UAEXH@Z 004249fc     qt-mt323:qt-mt323.dll
 0004:00001a00       __imp_?setLineWidth@QFrame@@UAEXH@Z 00424a00     qt-mt323:qt-mt323.dll
 0004:00001a04       __imp_?setFrameStyle@QFrame@@UAEXH@Z 00424a04     qt-mt323:qt-mt323.dll
 0004:00001a08       __imp_?fontChange@QLabel@@MAEXABVQFont@@@Z 00424a08     qt-mt323:qt-mt323.dll
 0004:00001a0c       __imp_?enabledChange@QWidget@@MAEX_N@Z 00424a0c     qt-mt323:qt-mt323.dll
 0004:00001a10       __imp_?styleChange@QFrame@@MAEXAAVQStyle@@@Z 00424a10     qt-mt323:qt-mt323.dll
 0004:00001a14       __imp_?updateMask@QWidget@@MAEXXZ 00424a14     qt-mt323:qt-mt323.dll
 0004:00001a18       __imp_?resizeEvent@QLabel@@MAEXPAVQResizeEvent@@@Z 00424a18     qt-mt323:qt-mt323.dll
 0004:00001a1c       __imp_?paintEvent@QFrame@@MAEXPAVQPaintEvent@@@Z 00424a1c     qt-mt323:qt-mt323.dll
 0004:00001a20       __imp_?focusOutEvent@QWidget@@MAEXPAVQFocusEvent@@@Z 00424a20     qt-mt323:qt-mt323.dll
 0004:00001a24       __imp_?focusInEvent@QWidget@@MAEXPAVQFocusEvent@@@Z 00424a24     qt-mt323:qt-mt323.dll
 0004:00001a28       __imp_?keyReleaseEvent@QWidget@@MAEXPAVQKeyEvent@@@Z 00424a28     qt-mt323:qt-mt323.dll
 0004:00001a2c       __imp_?keyPressEvent@QWidget@@MAEXPAVQKeyEvent@@@Z 00424a2c     qt-mt323:qt-mt323.dll
 0004:00001a30       __imp_?mouseMoveEvent@QWidget@@MAEXPAVQMouseEvent@@@Z 00424a30     qt-mt323:qt-mt323.dll
 0004:00001a34       __imp_?mouseReleaseEvent@QWidget@@MAEXPAVQMouseEvent@@@Z 00424a34     qt-mt323:qt-mt323.dll
 0004:00001a38       __imp_?mousePressEvent@QWidget@@MAEXPAVQMouseEvent@@@Z 00424a38     qt-mt323:qt-mt323.dll
 0004:00001a3c       __imp_?heightForWidth@QLabel@@UBEHH@Z 00424a3c     qt-mt323:qt-mt323.dll
 0004:00001a40       __imp_?minimumSizeHint@QLabel@@UBE?AVQSize@@XZ 00424a40     qt-mt323:qt-mt323.dll
 0004:00001a44       __imp_?sizeHint@QLabel@@UBE?AVQSize@@XZ 00424a44     qt-mt323:qt-mt323.dll
 0004:00001a48       __imp_?setGeometry@QWidget@@UAEXHHHH@Z 00424a48     qt-mt323:qt-mt323.dll
 0004:00001a4c       __imp_?setGeometry@QWidget@@UAEXABVQRect@@@Z 00424a4c     qt-mt323:qt-mt323.dll
 0004:00001a50       __imp_?resize@QWidget@@UAEXHH@Z 00424a50     qt-mt323:qt-mt323.dll
 0004:00001a54       __imp_?move@QWidget@@UAEXHH@Z 00424a54     qt-mt323:qt-mt323.dll
 0004:00001a58       __imp_?setFont@QLabel@@UAEXABVQFont@@@Z 00424a58     qt-mt323:qt-mt323.dll
 0004:00001a5c       __imp_?qt_property@QLabel@@UAE_NHHPAVQVariant@@@Z 00424a5c     qt-mt323:qt-mt323.dll
 0004:00001a60       __imp_?qt_emit@QLabel@@UAE_NHPAUQUObject@@@Z 00424a60     qt-mt323:qt-mt323.dll
 0004:00001a64       __imp_?qt_invoke@QLabel@@UAE_NHPAUQUObject@@@Z 00424a64     qt-mt323:qt-mt323.dll
 0004:00001a68       __imp_?qt_cast@QLabel@@UAEPAXPBD@Z 00424a68     qt-mt323:qt-mt323.dll
 0004:00001a6c       __imp_?className@QLabel@@UBEPBDXZ 00424a6c     qt-mt323:qt-mt323.dll
 0004:00001a70       __imp_?metaObject@QLabel@@UBEPAVQMetaObject@@XZ 00424a70     qt-mt323:qt-mt323.dll
 0004:00001a74       __imp_?qt_property@QHBoxLayout@@UAE_NHHPAVQVariant@@@Z 00424a74     qt-mt323:qt-mt323.dll
 0004:00001a78       __imp_?qt_emit@QHBoxLayout@@UAE_NHPAUQUObject@@@Z 00424a78     qt-mt323:qt-mt323.dll
 0004:00001a7c       __imp_?qt_invoke@QHBoxLayout@@UAE_NHPAUQUObject@@@Z 00424a7c     qt-mt323:qt-mt323.dll
 0004:00001a80       __imp_?qt_cast@QHBoxLayout@@UAEPAXPBD@Z 00424a80     qt-mt323:qt-mt323.dll
 0004:00001a84       __imp_?className@QHBoxLayout@@UBEPBDXZ 00424a84     qt-mt323:qt-mt323.dll
 0004:00001a88       __imp_?metaObject@QHBoxLayout@@UBEPAVQMetaObject@@XZ 00424a88     qt-mt323:qt-mt323.dll
 0004:00001a8c       __imp_?spacerItem@QLayoutItem@@UAEPAVQSpacerItem@@XZ 00424a8c     qt-mt323:qt-mt323.dll
 0004:00001a90       __imp_?layout@QLayout@@UAEPAV1@XZ 00424a90     qt-mt323:qt-mt323.dll
 0004:00001a94       __imp_?iterator@QBoxLayout@@UAE?AVQLayoutIterator@@XZ 00424a94     qt-mt323:qt-mt323.dll
 0004:00001a98       __imp_?invalidate@QBoxLayout@@UAEXXZ 00424a98     qt-mt323:qt-mt323.dll
 0004:00001a9c       __imp_?heightForWidth@QBoxLayout@@UBEHH@Z 00424a9c     qt-mt323:qt-mt323.dll
 0004:00001aa0       __imp_?hasHeightForWidth@QBoxLayout@@UBE_NXZ 00424aa0     qt-mt323:qt-mt323.dll
 0004:00001aa4       __imp_?isEmpty@QLayout@@UBE_NXZ 00424aa4     qt-mt323:qt-mt323.dll
 0004:00001aa8       __imp_?geometry@QLayout@@UBE?AVQRect@@XZ 00424aa8     qt-mt323:qt-mt323.dll
 0004:00001aac       __imp_?setGeometry@QBoxLayout@@UAEXABVQRect@@@Z 00424aac     qt-mt323:qt-mt323.dll
 0004:00001ab0       __imp_?expanding@QBoxLayout@@UBE?AW4ExpandData@QSizePolicy@@XZ 00424ab0     qt-mt323:qt-mt323.dll
 0004:00001ab4       __imp_?maximumSize@QBoxLayout@@UBE?AVQSize@@XZ 00424ab4     qt-mt323:qt-mt323.dll
 0004:00001ab8       __imp_?minimumSize@QBoxLayout@@UBE?AVQSize@@XZ 00424ab8     qt-mt323:qt-mt323.dll
 0004:00001abc       __imp_?sizeHint@QBoxLayout@@UBE?AVQSize@@XZ 00424abc     qt-mt323:qt-mt323.dll
 0004:00001ac0       __imp_?addItem@QBoxLayout@@UAEXPAVQLayoutItem@@@Z 00424ac0     qt-mt323:qt-mt323.dll
 0004:00001ac4       __imp_?setAutoAdd@QLayout@@UAEX_N@Z 00424ac4     qt-mt323:qt-mt323.dll
 0004:00001ac8       __imp_?setMenuBar@QLayout@@UAEXPAVQMenuBar@@@Z 00424ac8     qt-mt323:qt-mt323.dll
 0004:00001acc       __imp_?setSpacing@QLayout@@UAEXH@Z 00424acc     qt-mt323:qt-mt323.dll
 0004:00001ad0       __imp_?setMargin@QLayout@@UAEXH@Z 00424ad0     qt-mt323:qt-mt323.dll
 0004:00001ad4       __imp_?childEvent@QLayout@@MAEXPAVQChildEvent@@@Z 00424ad4     qt-mt323:qt-mt323.dll
 0004:00001ad8       __imp_?eventFilter@QLayout@@MAE_NPAVQObject@@PAVQEvent@@@Z 00424ad8     qt-mt323:qt-mt323.dll
 0004:00001adc       __imp_?qt_property@QVBoxLayout@@UAE_NHHPAVQVariant@@@Z 00424adc     qt-mt323:qt-mt323.dll
 0004:00001ae0       __imp_?qt_emit@QVBoxLayout@@UAE_NHPAUQUObject@@@Z 00424ae0     qt-mt323:qt-mt323.dll
 0004:00001ae4       __imp_?qt_invoke@QVBoxLayout@@UAE_NHPAUQUObject@@@Z 00424ae4     qt-mt323:qt-mt323.dll
 0004:00001ae8       __imp_?qt_cast@QVBoxLayout@@UAEPAXPBD@Z 00424ae8     qt-mt323:qt-mt323.dll
 0004:00001aec       __imp_?className@QVBoxLayout@@UBEPBDXZ 00424aec     qt-mt323:qt-mt323.dll
 0004:00001af0       __imp_?metaObject@QVBoxLayout@@UBEPAVQMetaObject@@XZ 00424af0     qt-mt323:qt-mt323.dll
 0004:00001af4       __imp_?setAlignment@QLayoutItem@@UAEXH@Z 00424af4     qt-mt323:qt-mt323.dll
 0004:00001af8       __imp_?spacerItem@QSpacerItem@@UAEPAV1@XZ 00424af8     qt-mt323:qt-mt323.dll
 0004:00001afc       __imp_?layout@QLayoutItem@@UAEPAVQLayout@@XZ 00424afc     qt-mt323:qt-mt323.dll
 0004:00001b00       __imp_?iterator@QLayoutItem@@UAE?AVQLayoutIterator@@XZ 00424b00     qt-mt323:qt-mt323.dll
 0004:00001b04       __imp_?widget@QLayoutItem@@UAEPAVQWidget@@XZ 00424b04     qt-mt323:qt-mt323.dll
 0004:00001b08       __imp_?invalidate@QLayoutItem@@UAEXXZ 00424b08     qt-mt323:qt-mt323.dll
 0004:00001b0c       __imp_?heightForWidth@QLayoutItem@@UBEHH@Z 00424b0c     qt-mt323:qt-mt323.dll
 0004:00001b10       __imp_?hasHeightForWidth@QLayoutItem@@UBE_NXZ 00424b10     qt-mt323:qt-mt323.dll
 0004:00001b14       __imp_?isEmpty@QSpacerItem@@UBE_NXZ 00424b14     qt-mt323:qt-mt323.dll
 0004:00001b18       __imp_?geometry@QSpacerItem@@UBE?AVQRect@@XZ 00424b18     qt-mt323:qt-mt323.dll
 0004:00001b1c       __imp_?setGeometry@QSpacerItem@@UAEXABVQRect@@@Z 00424b1c     qt-mt323:qt-mt323.dll
 0004:00001b20       __imp_?expanding@QSpacerItem@@UBE?AW4ExpandData@QSizePolicy@@XZ 00424b20     qt-mt323:qt-mt323.dll
 0004:00001b24       __imp_?maximumSize@QSpacerItem@@UBE?AVQSize@@XZ 00424b24     qt-mt323:qt-mt323.dll
 0004:00001b28       __imp_?minimumSize@QSpacerItem@@UBE?AVQSize@@XZ 00424b28     qt-mt323:qt-mt323.dll
 0004:00001b2c       __imp_?sizeHint@QSpacerItem@@UBE?AVQSize@@XZ 00424b2c     qt-mt323:qt-mt323.dll
 0004:00001b30       __imp_?fontInf@QPaintDevice@@MBEHPAVQFont@@H@Z 00424b30     qt-mt323:qt-mt323.dll
 0004:00001b34       __imp_?fontMet@QPaintDevice@@MBEHPAVQFont@@HPBDH@Z 00424b34     qt-mt323:qt-mt323.dll
 0004:00001b38       __imp_?metric@QWidget@@MBEHH@Z 00424b38     qt-mt323:qt-mt323.dll
 0004:00001b3c       __imp_?cmd@QPaintDevice@@MAE_NHPAVQPainter@@PATQPDevCmdParam@@@Z 00424b3c     qt-mt323:qt-mt323.dll
 0004:00001b40       __imp_?handle@QPaintDevice@@UBEPAUHDC__@@XZ 00424b40     qt-mt323:qt-mt323.dll
 0004:00001b44       __imp_?resolution@QPaintDevice@@UBEHXZ 00424b44     qt-mt323:qt-mt323.dll
 0004:00001b48       __imp_?setResolution@QPaintDevice@@UAEXH@Z 00424b48     qt-mt323:qt-mt323.dll
 0004:00001b4c       __imp_?setOn@QPushButton@@UAEX_N@Z 00424b4c     qt-mt323:qt-mt323.dll
 0004:00001b50       __imp_?setIsMenuButton@QPushButton@@UAEX_N@Z 00424b50     qt-mt323:qt-mt323.dll
 0004:00001b54       __imp_?setDefault@QPushButton@@UAEX_N@Z 00424b54     qt-mt323:qt-mt323.dll
 0004:00001b58       __imp_?setAutoDefault@QPushButton@@UAEX_N@Z 00424b58     qt-mt323:qt-mt323.dll
 0004:00001b5c       __imp_?setGroup@QButton@@EAEXPAVQButtonGroup@@@Z 00424b5c     qt-mt323:qt-mt323.dll
 0004:00001b60       __imp_?drawButtonLabel@QPushButton@@MAEXPAVQPainter@@@Z 00424b60     qt-mt323:qt-mt323.dll
 0004:00001b64       __imp_?drawButton@QPushButton@@MAEXPAVQPainter@@@Z 00424b64     qt-mt323:qt-mt323.dll
 0004:00001b68       __imp_?hitButton@QButton@@MBE_NABVQPoint@@@Z 00424b68     qt-mt323:qt-mt323.dll
 0004:00001b6c       __imp_?setState@QButton@@MAEXW4ToggleState@1@@Z 00424b6c     qt-mt323:qt-mt323.dll
 0004:00001b70       __imp_?setToggleType@QButton@@MAEXW4ToggleType@1@@Z 00424b70     qt-mt323:qt-mt323.dll
 0004:00001b74       __imp_?setAutoRepeat@QButton@@UAEX_N@Z 00424b74     qt-mt323:qt-mt323.dll
 0004:00001b78       __imp_?setDown@QButton@@UAEX_N@Z 00424b78     qt-mt323:qt-mt323.dll
 0004:00001b7c       __imp_?setAccel@QButton@@UAEXABVQKeySequence@@@Z 00424b7c     qt-mt323:qt-mt323.dll
 0004:00001b80       __imp_?setPixmap@QButton@@UAEXABVQPixmap@@@Z 00424b80     qt-mt323:qt-mt323.dll
 0004:00001b84       __imp_?setText@QButton@@UAEXABVQString@@@Z 00424b84     qt-mt323:qt-mt323.dll
 0004:00001b88       __imp_?setMicroFocusHint@QWidget@@MAEXHHHH_NPAVQFont@@@Z 00424b88     qt-mt323:qt-mt323.dll
 0004:00001b8c       __imp_?setKeyCompression@QWidget@@MAEX_N@Z 00424b8c     qt-mt323:qt-mt323.dll
 0004:00001b90       __imp_?focusNextPrevChild@QWidget@@MAE_N_N@Z 00424b90     qt-mt323:qt-mt323.dll
 0004:00001b94       __imp_?setWFlags@QWidget@@MAEXI@Z 00424b94     qt-mt323:qt-mt323.dll
 0004:00001b98       __imp_?setWState@QWidget@@MAEXI@Z 00424b98     qt-mt323:qt-mt323.dll
 0004:00001b9c       __imp_?destroy@QWidget@@MAEX_N0@Z 00424b9c     qt-mt323:qt-mt323.dll
 0004:00001ba0       __imp_?create@QWidget@@MAEXPAUHWND__@@_N1@Z 00424ba0     qt-mt323:qt-mt323.dll
 0004:00001ba4       __imp_?windowActivationChange@QWidget@@MAEX_N@Z 00424ba4     qt-mt323:qt-mt323.dll
 0004:00001ba8       __imp_?fontChange@QWidget@@MAEXABVQFont@@@Z 00424ba8     qt-mt323:qt-mt323.dll
 0004:00001bac       __imp_?paletteChange@QWidget@@MAEXABVQPalette@@@Z 00424bac     qt-mt323:qt-mt323.dll
 0004:00001bb0       __imp_?enabledChange@QButton@@MAEX_N@Z 00424bb0     qt-mt323:qt-mt323.dll
 0004:00001bb4       __imp_?styleChange@QWidget@@MAEXAAVQStyle@@@Z 00424bb4     qt-mt323:qt-mt323.dll
 0004:00001bb8       __imp_?updateMask@QPushButton@@MAEXXZ 00424bb8     qt-mt323:qt-mt323.dll
 0004:00001bbc       __imp_?winEvent@QWidget@@MAE_NPAUtagMSG@@@Z 00424bbc     qt-mt323:qt-mt323.dll
 0004:00001bc0       __imp_?hideEvent@QWidget@@MAEXPAVQHideEvent@@@Z 00424bc0     qt-mt323:qt-mt323.dll
 0004:00001bc4       __imp_?showEvent@QWidget@@MAEXPAVQShowEvent@@@Z 00424bc4     qt-mt323:qt-mt323.dll
 0004:00001bc8       __imp_?dropEvent@QWidget@@MAEXPAVQDropEvent@@@Z 00424bc8     qt-mt323:qt-mt323.dll
 0004:00001bcc       __imp_?dragLeaveEvent@QWidget@@MAEXPAVQDragLeaveEvent@@@Z 00424bcc     qt-mt323:qt-mt323.dll
 0004:00001bd0       __imp_?dragMoveEvent@QWidget@@MAEXPAVQDragMoveEvent@@@Z 00424bd0     qt-mt323:qt-mt323.dll
 0004:00001bd4       __imp_?dragEnterEvent@QWidget@@MAEXPAVQDragEnterEvent@@@Z 00424bd4     qt-mt323:qt-mt323.dll
 0004:00001bd8       __imp_?tabletEvent@QWidget@@MAEXPAVQTabletEvent@@@Z 00424bd8     qt-mt323:qt-mt323.dll
 0004:00001bdc       __imp_?imEndEvent@QWidget@@MAEXPAVQIMEvent@@@Z 00424bdc     qt-mt323:qt-mt323.dll
 0004:00001be0       __imp_?imComposeEvent@QWidget@@MAEXPAVQIMEvent@@@Z 00424be0     qt-mt323:qt-mt323.dll
 0004:00001be4       __imp_?imStartEvent@QWidget@@MAEXPAVQIMEvent@@@Z 00424be4     qt-mt323:qt-mt323.dll
 0004:00001be8       __imp_?contextMenuEvent@QWidget@@MAEXPAVQContextMenuEvent@@@Z 00424be8     qt-mt323:qt-mt323.dll
 0004:00001bec       __imp_?closeEvent@QWidget@@MAEXPAVQCloseEvent@@@Z 00424bec     qt-mt323:qt-mt323.dll
 0004:00001bf0       __imp_?resizeEvent@QPushButton@@MAEXPAVQResizeEvent@@@Z 00424bf0     qt-mt323:qt-mt323.dll
 0004:00001bf4       __imp_?moveEvent@QWidget@@MAEXPAVQMoveEvent@@@Z 00424bf4     qt-mt323:qt-mt323.dll
 0004:00001bf8       __imp_?paintEvent@QButton@@MAEXPAVQPaintEvent@@@Z 00424bf8     qt-mt323:qt-mt323.dll
 0004:00001bfc       __imp_?leaveEvent@QWidget@@MAEXPAVQEvent@@@Z 00424bfc     qt-mt323:qt-mt323.dll
 0004:00001c00       __imp_?enterEvent@QWidget@@MAEXPAVQEvent@@@Z 00424c00     qt-mt323:qt-mt323.dll
 0004:00001c04       __imp_?focusOutEvent@QPushButton@@MAEXPAVQFocusEvent@@@Z 00424c04     qt-mt323:qt-mt323.dll
 0004:00001c08       __imp_?focusInEvent@QPushButton@@MAEXPAVQFocusEvent@@@Z 00424c08     qt-mt323:qt-mt323.dll
 0004:00001c0c       __imp_?keyReleaseEvent@QButton@@MAEXPAVQKeyEvent@@@Z 00424c0c     qt-mt323:qt-mt323.dll
 0004:00001c10       __imp_?keyPressEvent@QButton@@MAEXPAVQKeyEvent@@@Z 00424c10     qt-mt323:qt-mt323.dll
 0004:00001c14       __imp_?wheelEvent@QWidget@@MAEXPAVQWheelEvent@@@Z 00424c14     qt-mt323:qt-mt323.dll
 0004:00001c18       __imp_?mouseMoveEvent@QButton@@MAEXPAVQMouseEvent@@@Z 00424c18     qt-mt323:qt-mt323.dll
 0004:00001c1c       __imp_?mouseDoubleClickEvent@QWidget@@MAEXPAVQMouseEvent@@@Z 00424c1c     qt-mt323:qt-mt323.dll
 0004:00001c20       __imp_?mouseReleaseEvent@QButton@@MAEXPAVQMouseEvent@@@Z 00424c20     qt-mt323:qt-mt323.dll
 0004:00001c24       __imp_?mousePressEvent@QButton@@MAEXPAVQMouseEvent@@@Z 00424c24     qt-mt323:qt-mt323.dll
 0004:00001c28       __imp_?customWhatsThis@QWidget@@UBE_NXZ 00424c28     qt-mt323:qt-mt323.dll
 0004:00001c2c       __imp_?setBackgroundOrigin@QWidget@@UAEXW4BackgroundOrigin@1@@Z 00424c2c     qt-mt323:qt-mt323.dll
 0004:00001c30       __imp_?setAutoMask@QWidget@@UAEX_N@Z 00424c30     qt-mt323:qt-mt323.dll
 0004:00001c34       __imp_?setAcceptDrops@QWidget@@UAEX_N@Z 00424c34     qt-mt323:qt-mt323.dll
 0004:00001c38       __imp_?reparent@QWidget@@UAEXPAV1@IABVQPoint@@_N@Z 00424c38     qt-mt323:qt-mt323.dll
 0004:00001c3c       __imp_?adjustSize@QWidget@@UAEXXZ 00424c3c     qt-mt323:qt-mt323.dll
 0004:00001c40       __imp_?heightForWidth@QWidget@@UBEHH@Z 00424c40     qt-mt323:qt-mt323.dll
 0004:00001c44       __imp_?setSizePolicy@QWidget@@UAEXVQSizePolicy@@@Z 00424c44     qt-mt323:qt-mt323.dll
 0004:00001c48       __imp_?sizePolicy@QWidget@@UBE?AVQSizePolicy@@XZ 00424c48     qt-mt323:qt-mt323.dll
 0004:00001c4c       __imp_?minimumSizeHint@QWidget@@UBE?AVQSize@@XZ 00424c4c     qt-mt323:qt-mt323.dll
 0004:00001c50       __imp_?sizeHint@QPushButton@@UBE?AVQSize@@XZ 00424c50     qt-mt323:qt-mt323.dll
 0004:00001c54       __imp_?setGeometry@QPushButton@@UAEXHHHH@Z 00424c54     qt-mt323:qt-mt323.dll
 0004:00001c58       __imp_?setGeometry@QPushButton@@UAEXABVQRect@@@Z 00424c58     qt-mt323:qt-mt323.dll
 0004:00001c5c       __imp_?resize@QPushButton@@UAEXHH@Z 00424c5c     qt-mt323:qt-mt323.dll
 0004:00001c60       __imp_?move@QPushButton@@UAEXHH@Z 00424c60     qt-mt323:qt-mt323.dll
 0004:00001c64       __imp_?close@QWidget@@UAE_N_N@Z 00424c64     qt-mt323:qt-mt323.dll
 0004:00001c68       __imp_?polish@QWidget@@UAEXXZ 00424c68     qt-mt323:qt-mt323.dll
 0004:00001c6c       __imp_?showNormal@QWidget@@UAEXXZ 00424c6c     qt-mt323:qt-mt323.dll
 0004:00001c70       __imp_?showMaximized@QWidget@@UAEXXZ 00424c70     qt-mt323:qt-mt323.dll
 0004:00001c74       __imp_?showMinimized@QWidget@@UAEXXZ 00424c74     qt-mt323:qt-mt323.dll
 0004:00001c78       __imp_?hide@QWidget@@UAEXXZ 00424c78     qt-mt323:qt-mt323.dll
 0004:00001c7c       __imp_?show@QWidget@@UAEXXZ 00424c7c     qt-mt323:qt-mt323.dll
 0004:00001c80       __imp_?setUpdatesEnabled@QWidget@@UAEX_N@Z 00424c80     qt-mt323:qt-mt323.dll
 0004:00001c84       __imp_?setFocusProxy@QWidget@@UAEXPAV1@@Z 00424c84     qt-mt323:qt-mt323.dll
 0004:00001c88       __imp_?setFocusPolicy@QWidget@@UAEXW4FocusPolicy@1@@Z 00424c88     qt-mt323:qt-mt323.dll
 0004:00001c8c       __imp_?setActiveWindow@QWidget@@UAEXXZ 00424c8c     qt-mt323:qt-mt323.dll
 0004:00001c90       __imp_?setFocus@QWidget@@UAEXXZ 00424c90     qt-mt323:qt-mt323.dll
 0004:00001c94       __imp_?setMouseTracking@QWidget@@UAEX_N@Z 00424c94     qt-mt323:qt-mt323.dll
 0004:00001c98       __imp_?setIconText@QWidget@@UAEXABVQString@@@Z 00424c98     qt-mt323:qt-mt323.dll
 0004:00001c9c       __imp_?setIcon@QWidget@@UAEXABVQPixmap@@@Z 00424c9c     qt-mt323:qt-mt323.dll
 0004:00001ca0       __imp_?setCaption@QWidget@@UAEXABVQString@@@Z 00424ca0     qt-mt323:qt-mt323.dll
 0004:00001ca4       __imp_?setBackgroundPixmap@QWidget@@UAEXABVQPixmap@@@Z 00424ca4     qt-mt323:qt-mt323.dll
 0004:00001ca8       __imp_?setBackgroundColor@QWidget@@UAEXABVQColor@@@Z 00424ca8     qt-mt323:qt-mt323.dll
 0004:00001cac       __imp_?setMask@QWidget@@UAEXABVQBitmap@@@Z 00424cac     qt-mt323:qt-mt323.dll
 0004:00001cb0       __imp_?setMask@QWidget@@UAEXABVQRegion@@@Z 00424cb0     qt-mt323:qt-mt323.dll
 0004:00001cb4       __imp_?unsetCursor@QWidget@@UAEXXZ 00424cb4     qt-mt323:qt-mt323.dll
 0004:00001cb8       __imp_?setCursor@QWidget@@UAEXABVQCursor@@@Z 00424cb8     qt-mt323:qt-mt323.dll
 0004:00001cbc       __imp_?setFont@QWidget@@UAEXABVQFont@@@Z 00424cbc     qt-mt323:qt-mt323.dll
 0004:00001cc0       __imp_?setPaletteBackgroundPixmap@QWidget@@UAEXABVQPixmap@@@Z 00424cc0     qt-mt323:qt-mt323.dll
 0004:00001cc4       __imp_?setPaletteBackgroundColor@QWidget@@UAEXABVQColor@@@Z 00424cc4     qt-mt323:qt-mt323.dll
 0004:00001cc8       __imp_?setPalette@QWidget@@UAEXABVQPalette@@@Z 00424cc8     qt-mt323:qt-mt323.dll
 0004:00001ccc       __imp_?setErasePixmap@QWidget@@UAEXABVQPixmap@@@Z 00424ccc     qt-mt323:qt-mt323.dll
 0004:00001cd0       __imp_?setEraseColor@QWidget@@UAEXABVQColor@@@Z 00424cd0     qt-mt323:qt-mt323.dll
 0004:00001cd4       __imp_?setBackgroundMode@QWidget@@UAEXW4BackgroundMode@Qt@@@Z 00424cd4     qt-mt323:qt-mt323.dll
 0004:00001cd8       __imp_?setSizeIncrement@QWidget@@UAEXHH@Z 00424cd8     qt-mt323:qt-mt323.dll
 0004:00001cdc       __imp_?setMaximumSize@QWidget@@UAEXHH@Z 00424cdc     qt-mt323:qt-mt323.dll
 0004:00001ce0       __imp_?setMinimumSize@QWidget@@UAEXHH@Z 00424ce0     qt-mt323:qt-mt323.dll
 0004:00001ce4       __imp_?setEnabled@QWidget@@UAEX_N@Z 00424ce4     qt-mt323:qt-mt323.dll
 0004:00001ce8       __imp_?setName@QWidget@@UAEXPBD@Z 00424ce8     qt-mt323:qt-mt323.dll
 0004:00001cec       __imp_?event@QWidget@@MAE_NPAVQEvent@@@Z 00424cec     qt-mt323:qt-mt323.dll
 0004:00001cf0       __imp_?qt_property@QPushButton@@UAE_NHHPAVQVariant@@@Z 00424cf0     qt-mt323:qt-mt323.dll
 0004:00001cf4       __imp_?qt_emit@QPushButton@@UAE_NHPAUQUObject@@@Z 00424cf4     qt-mt323:qt-mt323.dll
 0004:00001cf8       __imp_?qt_invoke@QPushButton@@UAE_NHPAUQUObject@@@Z 00424cf8     qt-mt323:qt-mt323.dll
 0004:00001cfc       __imp_?qt_cast@QPushButton@@UAEPAXPBD@Z 00424cfc     qt-mt323:qt-mt323.dll
 0004:00001d00       __imp_?className@QPushButton@@UBEPBDXZ 00424d00     qt-mt323:qt-mt323.dll
 0004:00001d04       __imp_?metaObject@QPushButton@@UBEPAVQMetaObject@@XZ 00424d04     qt-mt323:qt-mt323.dll
 0004:00001d08       __imp_??1QDialog@@UAE@XZ   00424d08     qt-mt323:qt-mt323.dll
 0004:00001d0c       __imp_?resize@QDialog@@QAEXABVQSize@@@Z 00424d0c     qt-mt323:qt-mt323.dll
 0004:00001d10       __imp_??0QPushButton@@QAE@PAVQWidget@@PBD@Z 00424d10     qt-mt323:qt-mt323.dll
 0004:00001d14       __imp_??0QCheckBox@@QAE@PAVQWidget@@PBD@Z 00424d14     qt-mt323:qt-mt323.dll
 0004:00001d18       __imp_?addLayout@QBoxLayout@@QAEXPAVQLayout@@H@Z 00424d18     qt-mt323:qt-mt323.dll
 0004:00001d1c       __imp_?setMinValue@QSpinBox@@QAEXH@Z 00424d1c     qt-mt323:qt-mt323.dll
 0004:00001d20       __imp_?setMaxValue@QSpinBox@@QAEXH@Z 00424d20     qt-mt323:qt-mt323.dll
 0004:00001d24       __imp_??0QSpinBox@@QAE@PAVQWidget@@PBD@Z 00424d24     qt-mt323:qt-mt323.dll
 0004:00001d28       __imp_?addWidget@QBoxLayout@@QAEXPAVQWidget@@HH@Z 00424d28     qt-mt323:qt-mt323.dll
 0004:00001d2c       __imp_??0QLabel@@QAE@PAVQWidget@@PBDI@Z 00424d2c     qt-mt323:qt-mt323.dll
 0004:00001d30       __imp_??0QHBoxLayout@@QAE@PAVQWidget@@HHPBD@Z 00424d30     qt-mt323:qt-mt323.dll
 0004:00001d34       __imp_?setResizeMode@QLayout@@QAEXW4ResizeMode@1@@Z 00424d34     qt-mt323:qt-mt323.dll
 0004:00001d38       __imp_??0QVBoxLayout@@QAE@PAVQWidget@@HHPBD@Z 00424d38     qt-mt323:qt-mt323.dll
 0004:00001d3c       __imp_?setModal@QDialog@@QAEX_N@Z 00424d3c     qt-mt323:qt-mt323.dll
 0004:00001d40       __imp_?setSizeGripEnabled@QDialog@@QAEX_N@Z 00424d40     qt-mt323:qt-mt323.dll
 0004:00001d44       __imp_??0QDialog@@QAE@PAVQWidget@@PBD_NI@Z 00424d44     qt-mt323:qt-mt323.dll
 0004:00001d48       __imp_??1QSpacerItem@@UAE@XZ 00424d48     qt-mt323:qt-mt323.dll
 0004:00001d4c       __imp_??1QVBoxLayout@@UAE@XZ 00424d4c     qt-mt323:qt-mt323.dll
 0004:00001d50       __imp_??1QHBoxLayout@@UAE@XZ 00424d50     qt-mt323:qt-mt323.dll
 0004:00001d54       __imp_??1QLabel@@UAE@XZ    00424d54     qt-mt323:qt-mt323.dll
 0004:00001d58       __imp_??1QSpinBox@@UAE@XZ  00424d58     qt-mt323:qt-mt323.dll
 0004:00001d5c       __imp_??1QCheckBox@@UAE@XZ 00424d5c     qt-mt323:qt-mt323.dll
 0004:00001d60       __imp_??1QPushButton@@UAE@XZ 00424d60     qt-mt323:qt-mt323.dll
 0004:00001d64       __imp_??1QKeySequence@@QAE@XZ 00424d64     qt-mt323:qt-mt323.dll
 0004:00001d68       __imp_??0QKeySequence@@QAE@ABVQString@@@Z 00424d68     qt-mt323:qt-mt323.dll
 0004:00001d6c       __imp_?null@QString@@2V1@A 00424d6c     qt-mt323:qt-mt323.dll
 0004:00001d70       __imp_?add@QWhatsThis@@SAXPAVQWidget@@ABVQString@@@Z 00424d70     qt-mt323:qt-mt323.dll
 0004:00001d74       __imp_??4QString@@QAEAAV0@ABV0@@Z 00424d74     qt-mt323:qt-mt323.dll
 0004:00001d78       __imp_?cancelRename@QListViewItem@@MAEXH@Z 00424d78     qt-mt323:qt-mt323.dll
 0004:00001d7c       __imp_?okRename@QListViewItem@@MAEXH@Z 00424d7c     qt-mt323:qt-mt323.dll
 0004:00001d80       __imp_?dragLeft@QListViewItem@@MAEXXZ 00424d80     qt-mt323:qt-mt323.dll
 0004:00001d84       __imp_?dragEntered@QListViewItem@@MAEXXZ 00424d84     qt-mt323:qt-mt323.dll
 0004:00001d88       __imp_?dropped@QListViewItem@@MAEXPAVQDropEvent@@@Z 00424d88     qt-mt323:qt-mt323.dll
 0004:00001d8c       __imp_?activate@QListViewItem@@MAEXXZ 00424d8c     qt-mt323:qt-mt323.dll
 0004:00001d90       __imp_?setHeight@QListViewItem@@MAEXH@Z 00424d90     qt-mt323:qt-mt323.dll
 0004:00001d94       __imp_?enforceSortOrder@QListViewItem@@MBEXXZ 00424d94     qt-mt323:qt-mt323.dll
 0004:00001d98       __imp_?setMultiLinesEnabled@QListViewItem@@UAEX_N@Z 00424d98     qt-mt323:qt-mt323.dll
 0004:00001d9c       __imp_?setEnabled@QListViewItem@@UAEX_N@Z 00424d9c     qt-mt323:qt-mt323.dll
 0004:00001da0       __imp_?startRename@QListViewItem@@UAEXH@Z 00424da0     qt-mt323:qt-mt323.dll
 0004:00001da4       __imp_?setRenameEnabled@QListViewItem@@UAEXH_N@Z 00424da4     qt-mt323:qt-mt323.dll
 0004:00001da8       __imp_?acceptDrop@QListViewItem@@UBE_NPBVQMimeSource@@@Z 00424da8     qt-mt323:qt-mt323.dll
 0004:00001dac       __imp_?setDropEnabled@QListViewItem@@UAEX_N@Z 00424dac     qt-mt323:qt-mt323.dll
 0004:00001db0       __imp_?setDragEnabled@QListViewItem@@UAEX_N@Z 00424db0     qt-mt323:qt-mt323.dll
 0004:00001db4       __imp_?sort@QListViewItem@@UAEXXZ 00424db4     qt-mt323:qt-mt323.dll
 0004:00001db8       __imp_?setExpandable@QListViewItem@@UAEX_N@Z 00424db8     qt-mt323:qt-mt323.dll
 0004:00001dbc       __imp_?setSelectable@QListViewItem@@UAEX_N@Z 00424dbc     qt-mt323:qt-mt323.dll
 0004:00001dc0       __imp_?paintFocus@QListViewItem@@UAEXPAVQPainter@@ABVQColorGroup@@ABVQRect@@@Z 00424dc0     qt-mt323:qt-mt323.dll
 0004:00001dc4       __imp_?paintBranches@QListViewItem@@UAEXPAVQPainter@@ABVQColorGroup@@HHH@Z 00424dc4     qt-mt323:qt-mt323.dll
 0004:00001dc8       __imp_?setSelected@QListViewItem@@UAEX_N@Z 00424dc8     qt-mt323:qt-mt323.dll
 0004:00001dcc       __imp_?setup@QListViewItem@@UAEXXZ 00424dcc     qt-mt323:qt-mt323.dll
 0004:00001dd0       __imp_?setOpen@QListViewItem@@UAEX_N@Z 00424dd0     qt-mt323:qt-mt323.dll
 0004:00001dd4       __imp_?sortChildItems@QListViewItem@@UAEXH_N@Z 00424dd4     qt-mt323:qt-mt323.dll
 0004:00001dd8       __imp_?key@QListViewItem@@UBE?AVQString@@H_N@Z 00424dd8     qt-mt323:qt-mt323.dll
 0004:00001ddc       __imp_?pixmap@QListViewItem@@UBEPBVQPixmap@@H@Z 00424ddc     qt-mt323:qt-mt323.dll
 0004:00001de0       __imp_?setPixmap@QListViewItem@@UAEXHABVQPixmap@@@Z 00424de0     qt-mt323:qt-mt323.dll
 0004:00001de4       __imp_?text@QListViewItem@@UBE?AVQString@@H@Z 00424de4     qt-mt323:qt-mt323.dll
 0004:00001de8       __imp_?setText@QListViewItem@@UAEXHABVQString@@@Z 00424de8     qt-mt323:qt-mt323.dll
 0004:00001dec       __imp_?width@QListViewItem@@UBEHABVQFontMetrics@@PBVQListView@@H@Z 00424dec     qt-mt323:qt-mt323.dll
 0004:00001df0       __imp_?invalidateHeight@QListViewItem@@UAEXXZ 00424df0     qt-mt323:qt-mt323.dll
 0004:00001df4       __imp_?removeItem@QListViewItem@@UAEXPAV1@@Z 00424df4     qt-mt323:qt-mt323.dll
 0004:00001df8       __imp_?takeItem@QListViewItem@@UAEXPAV1@@Z 00424df8     qt-mt323:qt-mt323.dll
 0004:00001dfc       __imp_?insertItem@QListViewItem@@UAEXPAV1@@Z 00424dfc     qt-mt323:qt-mt323.dll
 0004:00001e00       __imp_??1QListViewItem@@UAE@XZ 00424e00     qt-mt323:qt-mt323.dll
 0004:00001e04       __imp_??0QListViewItem@@QAE@PAVQListView@@@Z 00424e04     qt-mt323:qt-mt323.dll
 0004:00001e08       __imp_?toString@QDateTime@@QBE?AVQString@@ABV2@@Z 00424e08     qt-mt323:qt-mt323.dll
 0004:00001e0c       __imp_??OQDateTime@@QBE_NABV0@@Z 00424e0c     qt-mt323:qt-mt323.dll
 0004:00001e10       __imp_??MQDateTime@@QBE_NABV0@@Z 00424e10     qt-mt323:qt-mt323.dll
 0004:00001e14       __imp_?fromString@QDateTime@@SA?AV1@ABVQString@@W4DateFormat@Qt@@@Z 00424e14     qt-mt323:qt-mt323.dll
 0004:00001e18       __imp_?remove@QString@@QAEAAV1@II@Z 00424e18     qt-mt323:qt-mt323.dll
 0004:00001e1c       __imp_??0QChar@@QAE@D@Z    00424e1c     qt-mt323:qt-mt323.dll
 0004:00001e20       __imp_?upper@QChar@@QBE?AV1@XZ 00424e20     qt-mt323:qt-mt323.dll
 0004:00001e24       __imp_?at@QString@@QBE?AVQChar@@I@Z 00424e24     qt-mt323:qt-mt323.dll
 0004:00001e28       __imp_??1QColorGroup@@QAE@XZ 00424e28     qt-mt323:qt-mt323.dll
 0004:00001e2c       __imp_?paintCell@QListViewItem@@UAEXPAVQPainter@@ABVQColorGroup@@HHH@Z 00424e2c     qt-mt323:qt-mt323.dll
 0004:00001e30       __imp_?setColor@QColorGroup@@QAEXW4ColorRole@1@ABVQColor@@@Z 00424e30     qt-mt323:qt-mt323.dll
 0004:00001e34       __imp_??0QColor@@QAE@PBD@Z 00424e34     qt-mt323:qt-mt323.dll
 0004:00001e38       __imp_??0QColorGroup@@QAE@ABV0@@Z 00424e38     qt-mt323:qt-mt323.dll
 0004:00001e3c       __imp_?currentDateTime@QDateTime@@SA?AV1@XZ 00424e3c     qt-mt323:qt-mt323.dll
 0004:00001e40       __imp_?menuDelPopup@QPopupMenu@@EAEXPAV1@@Z 00424e40     qt-mt323:qt-mt323.dll
 0004:00001e44       __imp_?menuInsPopup@QPopupMenu@@EAEXPAV1@@Z 00424e44     qt-mt323:qt-mt323.dll
 0004:00001e48       __imp_?menuStateChanged@QPopupMenu@@EAEXXZ 00424e48     qt-mt323:qt-mt323.dll
 0004:00001e4c       __imp_?menuContentsChanged@QPopupMenu@@EAEXXZ 00424e4c     qt-mt323:qt-mt323.dll
 0004:00001e50       __imp_?activateItemAt@QPopupMenu@@UAEXH@Z 00424e50     qt-mt323:qt-mt323.dll
 0004:00001e54       __imp_?updateItem@QPopupMenu@@UAEXH@Z 00424e54     qt-mt323:qt-mt323.dll
 0004:00001e58       __imp_?setFirstItemActive@QPopupMenu@@EAEXXZ 00424e58     qt-mt323:qt-mt323.dll
 0004:00001e5c       __imp_?setActiveItem@QPopupMenu@@UAEXH@Z 00424e5c     qt-mt323:qt-mt323.dll
 0004:00001e60       __imp_??1?$QPtrList@D@@UAE@XZ 00424e60     qt-mt323:qt-mt323.dll
 0004:00001e64       __imp_?frameChanged@QPopupMenu@@EAEXXZ 00424e64     qt-mt323:qt-mt323.dll
 0004:00001e68       __imp_?drawContents@QPopupMenu@@MAEXPAVQPainter@@@Z 00424e68     qt-mt323:qt-mt323.dll
 0004:00001e6c       __imp_?focusNextPrevChild@QPopupMenu@@MAE_N_N@Z 00424e6c     qt-mt323:qt-mt323.dll
 0004:00001e70       __imp_?enabledChange@QPopupMenu@@MAEX_N@Z 00424e70     qt-mt323:qt-mt323.dll
 0004:00001e74       __imp_?styleChange@QPopupMenu@@MAEXAAVQStyle@@@Z 00424e74     qt-mt323:qt-mt323.dll
 0004:00001e78       __imp_??1?$QMemArray@D@@UAE@XZ 00424e78     qt-mt323:qt-mt323.dll
 0004:00001e7c       __imp_?resizeEvent@QFrame@@MAEXPAVQResizeEvent@@@Z 00424e7c     qt-mt323:qt-mt323.dll
 0004:00001e80       __imp_?paintEvent@QPopupMenu@@MAEXPAVQPaintEvent@@@Z 00424e80     qt-mt323:qt-mt323.dll
 0004:00001e84       __imp_?leaveEvent@QPopupMenu@@MAEXPAVQEvent@@@Z 00424e84     qt-mt323:qt-mt323.dll
 0004:00001e88       __imp_?focusOutEvent@QPopupMenu@@MAEXPAVQFocusEvent@@@Z 00424e88     qt-mt323:qt-mt323.dll
 0004:00001e8c       __imp_?focusInEvent@QPopupMenu@@MAEXPAVQFocusEvent@@@Z 00424e8c     qt-mt323:qt-mt323.dll
 0004:00001e90       __imp_?keyPressEvent@QPopupMenu@@MAEXPAVQKeyEvent@@@Z 00424e90     qt-mt323:qt-mt323.dll
 0004:00001e94       __imp_?mouseMoveEvent@QPopupMenu@@MAEXPAVQMouseEvent@@@Z 00424e94     qt-mt323:qt-mt323.dll
 0004:00001e98       __imp_?mouseReleaseEvent@QPopupMenu@@MAEXPAVQMouseEvent@@@Z 00424e98     qt-mt323:qt-mt323.dll
 0004:00001e9c       __imp_?mousePressEvent@QPopupMenu@@MAEXPAVQMouseEvent@@@Z 00424e9c     qt-mt323:qt-mt323.dll
 0004:00001ea0       __imp_?customWhatsThis@QPopupMenu@@UBE_NXZ 00424ea0     qt-mt323:qt-mt323.dll
 0004:00001ea4       __imp_?sizeHint@QPopupMenu@@UBE?AVQSize@@XZ 00424ea4     qt-mt323:qt-mt323.dll
 0004:00001ea8       __imp_?hide@QPopupMenu@@UAEXXZ 00424ea8     qt-mt323:qt-mt323.dll
 0004:00001eac       __imp_?show@QPopupMenu@@UAEXXZ 00424eac     qt-mt323:qt-mt323.dll
 0004:00001eb0       __imp_?setFont@QPopupMenu@@UAEXABVQFont@@@Z 00424eb0     qt-mt323:qt-mt323.dll
 0004:00001eb4       __imp_?timerEvent@QPopupMenu@@MAEXPAVQTimerEvent@@@Z 00424eb4     qt-mt323:qt-mt323.dll
 0004:00001eb8       __imp_?qt_property@QPopupMenu@@UAE_NHHPAVQVariant@@@Z 00424eb8     qt-mt323:qt-mt323.dll
 0004:00001ebc       __imp_?qt_emit@QPopupMenu@@UAE_NHPAUQUObject@@@Z 00424ebc     qt-mt323:qt-mt323.dll
 0004:00001ec0       __imp_?qt_invoke@QPopupMenu@@UAE_NHPAUQUObject@@@Z 00424ec0     qt-mt323:qt-mt323.dll
 0004:00001ec4       __imp_?qt_cast@QPopupMenu@@UAEPAXPBD@Z 00424ec4     qt-mt323:qt-mt323.dll
 0004:00001ec8       __imp_?className@QPopupMenu@@UBEPBDXZ 00424ec8     qt-mt323:qt-mt323.dll
 0004:00001ecc       __imp_?metaObject@QPopupMenu@@UBEPAVQMetaObject@@XZ 00424ecc     qt-mt323:qt-mt323.dll
 0004:00001ed0       __imp_?menuDelPopup@QMenuBar@@EAEXPAVQPopupMenu@@@Z 00424ed0     qt-mt323:qt-mt323.dll
 0004:00001ed4       __imp_?menuInsPopup@QMenuBar@@EAEXPAVQPopupMenu@@@Z 00424ed4     qt-mt323:qt-mt323.dll
 0004:00001ed8       __imp_?menuStateChanged@QMenuBar@@MAEXXZ 00424ed8     qt-mt323:qt-mt323.dll
 0004:00001edc       __imp_?menuContentsChanged@QMenuBar@@MAEXXZ 00424edc     qt-mt323:qt-mt323.dll
 0004:00001ee0       __imp_?activateItemAt@QMenuBar@@UAEXH@Z 00424ee0     qt-mt323:qt-mt323.dll
 0004:00001ee4       __imp_?setId@QMenuData@@UAEXHH@Z 00424ee4     qt-mt323:qt-mt323.dll
 0004:00001ee8       __imp_?updateItem@QMenuBar@@UAEXH@Z 00424ee8     qt-mt323:qt-mt323.dll
 0004:00001eec       __imp_?setSeparator@QMenuBar@@UAEXW4Separator@1@@Z 00424eec     qt-mt323:qt-mt323.dll
 0004:00001ef0       __imp_?frameChanged@QMenuBar@@EAEXXZ 00424ef0     qt-mt323:qt-mt323.dll
 0004:00001ef4       __imp_?drawContents@QMenuBar@@MAEXPAVQPainter@@@Z 00424ef4     qt-mt323:qt-mt323.dll
 0004:00001ef8       __imp_?fontChange@QMenuBar@@MAEXABVQFont@@@Z 00424ef8     qt-mt323:qt-mt323.dll
 0004:00001efc       __imp_?styleChange@QMenuBar@@MAEXAAVQStyle@@@Z 00424efc     qt-mt323:qt-mt323.dll
 0004:00001f00       __imp_?resizeEvent@QMenuBar@@MAEXPAVQResizeEvent@@@Z 00424f00     qt-mt323:qt-mt323.dll
 0004:00001f04       __imp_?leaveEvent@QMenuBar@@MAEXPAVQEvent@@@Z 00424f04     qt-mt323:qt-mt323.dll
 0004:00001f08       __imp_?focusOutEvent@QMenuBar@@MAEXPAVQFocusEvent@@@Z 00424f08     qt-mt323:qt-mt323.dll
 0004:00001f0c       __imp_?focusInEvent@QMenuBar@@MAEXPAVQFocusEvent@@@Z 00424f0c     qt-mt323:qt-mt323.dll
 0004:00001f10       __imp_?keyPressEvent@QMenuBar@@MAEXPAVQKeyEvent@@@Z 00424f10     qt-mt323:qt-mt323.dll
 0004:00001f14       __imp_?mouseMoveEvent@QMenuBar@@MAEXPAVQMouseEvent@@@Z 00424f14     qt-mt323:qt-mt323.dll
 0004:00001f18       __imp_?mouseReleaseEvent@QMenuBar@@MAEXPAVQMouseEvent@@@Z 00424f18     qt-mt323:qt-mt323.dll
 0004:00001f1c       __imp_?mousePressEvent@QMenuBar@@MAEXPAVQMouseEvent@@@Z 00424f1c     qt-mt323:qt-mt323.dll
 0004:00001f20       __imp_?customWhatsThis@QMenuBar@@UBE_NXZ 00424f20     qt-mt323:qt-mt323.dll
 0004:00001f24       __imp_?heightForWidth@QMenuBar@@UBEHH@Z 00424f24     qt-mt323:qt-mt323.dll
 0004:00001f28       __imp_?minimumSizeHint@QMenuBar@@UBE?AVQSize@@XZ 00424f28     qt-mt323:qt-mt323.dll
 0004:00001f2c       __imp_?sizeHint@QMenuBar@@UBE?AVQSize@@XZ 00424f2c     qt-mt323:qt-mt323.dll
 0004:00001f30       __imp_?hide@QMenuBar@@UAEXXZ 00424f30     qt-mt323:qt-mt323.dll
 0004:00001f34       __imp_?show@QMenuBar@@UAEXXZ 00424f34     qt-mt323:qt-mt323.dll
 0004:00001f38       __imp_?eventFilter@QMenuBar@@UAE_NPAVQObject@@PAVQEvent@@@Z 00424f38     qt-mt323:qt-mt323.dll
 0004:00001f3c       __imp_?qt_property@QMenuBar@@UAE_NHHPAVQVariant@@@Z 00424f3c     qt-mt323:qt-mt323.dll
 0004:00001f40       __imp_?qt_emit@QMenuBar@@UAE_NHPAUQUObject@@@Z 00424f40     qt-mt323:qt-mt323.dll
 0004:00001f44       __imp_?qt_invoke@QMenuBar@@UAE_NHPAUQUObject@@@Z 00424f44     qt-mt323:qt-mt323.dll
 0004:00001f48       __imp_?qt_cast@QMenuBar@@UAEPAXPBD@Z 00424f48     qt-mt323:qt-mt323.dll
 0004:00001f4c       __imp_?className@QMenuBar@@UBEPBDXZ 00424f4c     qt-mt323:qt-mt323.dll
 0004:00001f50       __imp_?metaObject@QMenuBar@@UBEPAVQMetaObject@@XZ 00424f50     qt-mt323:qt-mt323.dll
 0004:00001f54       __imp_?setToolTipGroup@QMainWindow@@EAEXPAVQToolTipGroup@@@Z 00424f54     qt-mt323:qt-mt323.dll
 0004:00001f58       __imp_?setStatusBar@QMainWindow@@EAEXPAVQStatusBar@@@Z 00424f58     qt-mt323:qt-mt323.dll
 0004:00001f5c       __imp_?setMenuBar@QMainWindow@@EAEXPAVQMenuBar@@@Z 00424f5c     qt-mt323:qt-mt323.dll
 0004:00001f60       __imp_?showDockMenu@QMainWindow@@MAE_NABVQPoint@@@Z 00424f60     qt-mt323:qt-mt323.dll
 0004:00001f64       __imp_?setUpLayout@QMainWindow@@MAEXXZ 00424f64     qt-mt323:qt-mt323.dll
 0004:00001f68       __imp_?customize@QMainWindow@@UAEXXZ 00424f68     qt-mt323:qt-mt323.dll
 0004:00001f6c       __imp_?setAppropriate@QMainWindow@@UAEXPAVQDockWindow@@_N@Z 00424f6c     qt-mt323:qt-mt323.dll
 0004:00001f70       __imp_?whatsThis@QMainWindow@@UAEXXZ 00424f70     qt-mt323:qt-mt323.dll
 0004:00001f74       __imp_?setDockMenuEnabled@QMainWindow@@UAEX_N@Z 00424f74     qt-mt323:qt-mt323.dll
 0004:00001f78       __imp_?setOpaqueMoving@QMainWindow@@UAEX_N@Z 00424f78     qt-mt323:qt-mt323.dll
 0004:00001f7c       __imp_?setDockWindowsMovable@QMainWindow@@UAEX_N@Z 00424f7c     qt-mt323:qt-mt323.dll
 0004:00001f80       __imp_?setUsesTextLabel@QMainWindow@@UAEX_N@Z 00424f80     qt-mt323:qt-mt323.dll
 0004:00001f84       __imp_?setUsesBigPixmaps@QMainWindow@@UAEX_N@Z 00424f84     qt-mt323:qt-mt323.dll
 0004:00001f88       __imp_?setRightJustification@QMainWindow@@UAEX_N@Z 00424f88     qt-mt323:qt-mt323.dll
 0004:00001f8c       __imp_?isCustomizable@QMainWindow@@UBE_NXZ 00424f8c     qt-mt323:qt-mt323.dll
 0004:00001f90       __imp_?dockingArea@QMainWindow@@UAEPAVQDockArea@@ABVQPoint@@@Z 00424f90     qt-mt323:qt-mt323.dll
 0004:00001f94       __imp_?removeDockWindow@QMainWindow@@UAEXPAVQDockWindow@@@Z 00424f94     qt-mt323:qt-mt323.dll
 0004:00001f98       __imp_?moveDockWindow@QMainWindow@@UAEXPAVQDockWindow@@W4Dock@Qt@@@Z 00424f98     qt-mt323:qt-mt323.dll
 0004:00001f9c       __imp_?moveDockWindow@QMainWindow@@UAEXPAVQDockWindow@@W4Dock@Qt@@_NHH@Z 00424f9c     qt-mt323:qt-mt323.dll
 0004:00001fa0       __imp_?addDockWindow@QMainWindow@@UAEXPAVQDockWindow@@W4Dock@Qt@@_N@Z 00424fa0     qt-mt323:qt-mt323.dll
 0004:00001fa4       __imp_?addDockWindow@QMainWindow@@UAEXPAVQDockWindow@@ABVQString@@W4Dock@Qt@@_N@Z 00424fa4     qt-mt323:qt-mt323.dll
 0004:00001fa8       __imp_?setDockEnabled@QMainWindow@@UAEXW4Dock@Qt@@_N@Z 00424fa8     qt-mt323:qt-mt323.dll
 0004:00001fac       __imp_?setDockEnabled@QMainWindow@@UAEXPAVQDockWindow@@W4Dock@Qt@@_N@Z 00424fac     qt-mt323:qt-mt323.dll
 0004:00001fb0       __imp_?setCentralWidget@QMainWindow@@UAEXPAVQWidget@@@Z 00424fb0     qt-mt323:qt-mt323.dll
 0004:00001fb4       __imp_?styleChange@QMainWindow@@MAEXAAVQStyle@@@Z 00424fb4     qt-mt323:qt-mt323.dll
 0004:00001fb8       __imp_?resizeEvent@QWidget@@MAEXPAVQResizeEvent@@@Z 00424fb8     qt-mt323:qt-mt323.dll
 0004:00001fbc       __imp_?paintEvent@QMainWindow@@MAEXPAVQPaintEvent@@@Z 00424fbc     qt-mt323:qt-mt323.dll
 0004:00001fc0       __imp_?minimumSizeHint@QMainWindow@@UBE?AVQSize@@XZ 00424fc0     qt-mt323:qt-mt323.dll
 0004:00001fc4       __imp_?sizeHint@QMainWindow@@UBE?AVQSize@@XZ 00424fc4     qt-mt323:qt-mt323.dll
 0004:00001fc8       __imp_?hide@QMainWindow@@UAEXXZ 00424fc8     qt-mt323:qt-mt323.dll
 0004:00001fcc       __imp_?childEvent@QMainWindow@@MAEXPAVQChildEvent@@@Z 00424fcc     qt-mt323:qt-mt323.dll
 0004:00001fd0       __imp_?eventFilter@QMainWindow@@UAE_NPAVQObject@@PAVQEvent@@@Z 00424fd0     qt-mt323:qt-mt323.dll
 0004:00001fd4       __imp_?event@QMainWindow@@MAE_NPAVQEvent@@@Z 00424fd4     qt-mt323:qt-mt323.dll
 0004:00001fd8       __imp_?critical@QMessageBox@@SAHPAVQWidget@@ABVQString@@1111HH@Z 00424fd8     qt-mt323:qt-mt323.dll
 0004:00001fdc       __imp_?insertItem@QMenuData@@QAEHABVQString@@PAVQPopupMenu@@HH@Z 00424fdc     qt-mt323:qt-mt323.dll
 0004:00001fe0       __imp_?insertItem@QMenuData@@QAEHABVQString@@PBVQObject@@PBDABVQKeySequence@@HH@Z 00424fe0     qt-mt323:qt-mt323.dll
 0004:00001fe4       __imp_??0QKeySequence@@QAE@H@Z 00424fe4     qt-mt323:qt-mt323.dll
 0004:00001fe8       __imp_??0QPopupMenu@@QAE@PAVQWidget@@PBD@Z 00424fe8     qt-mt323:qt-mt323.dll
 0004:00001fec       __imp_??0QMenuBar@@QAE@PAVQWidget@@PBD@Z 00424fec     qt-mt323:qt-mt323.dll
 0004:00001ff0       __imp_??1QPixmap@@UAE@XZ   00424ff0     qt-mt323:qt-mt323.dll
 0004:00001ff4       __imp_??0QPixmap@@QAE@QAPBD@Z 00424ff4     qt-mt323:qt-mt323.dll
 0004:00001ff8       __imp_??1QMenuBar@@UAE@XZ  00424ff8     qt-mt323:qt-mt323.dll
 0004:00001ffc       __imp_??1QPopupMenu@@UAE@XZ 00424ffc     qt-mt323:qt-mt323.dll
 0004:00002000       __imp_?elementsByTagNameNS@QDomElement@@UBE?AVQDomNodeList@@ABVQString@@0@Z 00425000     qt-mt323:qt-mt323.dll
 0004:00002004       __imp_?elementsByTagName@QDomElement@@UBE?AVQDomNodeList@@ABVQString@@@Z 00425004     qt-mt323:qt-mt323.dll
 0004:00002008       __imp_?isComment@QDomNode@@UBE_NXZ 00425008     qt-mt323:qt-mt323.dll
 0004:0000200c       __imp_?isCharacterData@QDomNode@@UBE_NXZ 0042500c     qt-mt323:qt-mt323.dll
 0004:00002010       __imp_?isProcessingInstruction@QDomNode@@UBE_NXZ 00425010     qt-mt323:qt-mt323.dll
 0004:00002014       __imp_?isNotation@QDomNode@@UBE_NXZ 00425014     qt-mt323:qt-mt323.dll
 0004:00002018       __imp_?isEntity@QDomNode@@UBE_NXZ 00425018     qt-mt323:qt-mt323.dll
 0004:0000201c       __imp_?isText@QDomNode@@UBE_NXZ 0042501c     qt-mt323:qt-mt323.dll
 0004:00002020       __imp_?isEntityReference@QDomNode@@UBE_NXZ 00425020     qt-mt323:qt-mt323.dll
 0004:00002024       __imp_?isElement@QDomElement@@UBE_NXZ 00425024     qt-mt323:qt-mt323.dll
 0004:00002028       __imp_?isDocumentType@QDomNode@@UBE_NXZ 00425028     qt-mt323:qt-mt323.dll
 0004:0000202c       __imp_?isDocument@QDomNode@@UBE_NXZ 0042502c     qt-mt323:qt-mt323.dll
 0004:00002030       __imp_?isDocumentFragment@QDomNode@@UBE_NXZ 00425030     qt-mt323:qt-mt323.dll
 0004:00002034       __imp_?isCDATASection@QDomNode@@UBE_NXZ 00425034     qt-mt323:qt-mt323.dll
 0004:00002038       __imp_?isAttr@QDomNode@@UBE_NXZ 00425038     qt-mt323:qt-mt323.dll
 0004:0000203c       __imp_?setPrefix@QDomNode@@UAEXABVQString@@@Z 0042503c     qt-mt323:qt-mt323.dll
 0004:00002040       __imp_?prefix@QDomNode@@UBE?AVQString@@XZ 00425040     qt-mt323:qt-mt323.dll
 0004:00002044       __imp_?setNodeValue@QDomNode@@UAEXABVQString@@@Z 00425044     qt-mt323:qt-mt323.dll
 0004:00002048       __imp_?nodeValue@QDomNode@@UBE?AVQString@@XZ 00425048     qt-mt323:qt-mt323.dll
 0004:0000204c       __imp_?hasAttributes@QDomNode@@UBE_NXZ 0042504c     qt-mt323:qt-mt323.dll
 0004:00002050       __imp_?localName@QDomNode@@UBE?AVQString@@XZ 00425050     qt-mt323:qt-mt323.dll
 0004:00002054       __imp_?namespaceURI@QDomNode@@UBE?AVQString@@XZ 00425054     qt-mt323:qt-mt323.dll
 0004:00002058       __imp_?ownerDocument@QDomNode@@UBE?AVQDomDocument@@XZ 00425058     qt-mt323:qt-mt323.dll
 0004:0000205c       __imp_?attributes@QDomElement@@UBE?AVQDomNamedNodeMap@@XZ 0042505c     qt-mt323:qt-mt323.dll
 0004:00002060       __imp_?nextSibling@QDomNode@@UBE?AV1@XZ 00425060     qt-mt323:qt-mt323.dll
 0004:00002064       __imp_?previousSibling@QDomNode@@UBE?AV1@XZ 00425064     qt-mt323:qt-mt323.dll
 0004:00002068       __imp_?lastChild@QDomNode@@UBE?AV1@XZ 00425068     qt-mt323:qt-mt323.dll
 0004:0000206c       __imp_?firstChild@QDomNode@@UBE?AV1@XZ 0042506c     qt-mt323:qt-mt323.dll
 0004:00002070       __imp_?childNodes@QDomNode@@UBE?AVQDomNodeList@@XZ 00425070     qt-mt323:qt-mt323.dll
 0004:00002074       __imp_?parentNode@QDomNode@@UBE?AV1@XZ 00425074     qt-mt323:qt-mt323.dll
 0004:00002078       __imp_?nodeType@QDomElement@@UBE?AW4NodeType@QDomNode@@XZ 00425078     qt-mt323:qt-mt323.dll
 0004:0000207c       __imp_?nodeName@QDomNode@@UBE?AVQString@@XZ 0042507c     qt-mt323:qt-mt323.dll
 0004:00002080       __imp_?isSupported@QDomNode@@UBE_NABVQString@@0@Z 00425080     qt-mt323:qt-mt323.dll
 0004:00002084       __imp_?normalize@QDomNode@@UAEXXZ 00425084     qt-mt323:qt-mt323.dll
 0004:00002088       __imp_?cloneNode@QDomNode@@UBE?AV1@_N@Z 00425088     qt-mt323:qt-mt323.dll
 0004:0000208c       __imp_?hasChildNodes@QDomNode@@UBE_NXZ 0042508c     qt-mt323:qt-mt323.dll
 0004:00002090       __imp_?appendChild@QDomNode@@UAE?AV1@ABV1@@Z 00425090     qt-mt323:qt-mt323.dll
 0004:00002094       __imp_?removeChild@QDomNode@@UAE?AV1@ABV1@@Z 00425094     qt-mt323:qt-mt323.dll
 0004:00002098       __imp_?replaceChild@QDomNode@@UAE?AV1@ABV1@0@Z 00425098     qt-mt323:qt-mt323.dll
 0004:0000209c       __imp_?insertAfter@QDomNode@@UAE?AV1@ABV1@0@Z 0042509c     qt-mt323:qt-mt323.dll
 0004:000020a0       __imp_?insertBefore@QDomNode@@UAE?AV1@ABV1@0@Z 004250a0     qt-mt323:qt-mt323.dll
 0004:000020a4       __imp_?repaint@QWidget@@QAEX_N@Z 004250a4     qt-mt323:qt-mt323.dll
 0004:000020a8       __imp_??1QDomElement@@UAE@XZ 004250a8     qt-mt323:qt-mt323.dll
 0004:000020ac       __imp_??1QDomNode@@UAE@XZ  004250ac     qt-mt323:qt-mt323.dll
 0004:000020b0       __imp_??4QDomNode@@QAEAAV0@ABV0@@Z 004250b0     qt-mt323:qt-mt323.dll
 0004:000020b4       __imp_??8@YA_NABVQString@@PBD@Z 004250b4     qt-mt323:qt-mt323.dll
 0004:000020b8       __imp_?toElement@QDomNode@@QAE?AVQDomElement@@XZ 004250b8     qt-mt323:qt-mt323.dll
 0004:000020bc       __imp_?attribute@QDomElement@@QBE?AVQString@@ABV2@0@Z 004250bc     qt-mt323:qt-mt323.dll
 0004:000020c0       __imp_?isNull@QDomNode@@QBE_NXZ 004250c0     qt-mt323:qt-mt323.dll
 0004:000020c4       __imp_??1QDomDocument@@UAE@XZ 004250c4     qt-mt323:qt-mt323.dll
 0004:000020c8       __imp_??9@YA_NABVQString@@PBD@Z 004250c8     qt-mt323:qt-mt323.dll
 0004:000020cc       __imp_?tagName@QDomElement@@QBE?AVQString@@XZ 004250cc     qt-mt323:qt-mt323.dll
 0004:000020d0       __imp_?documentElement@QDomDocument@@QBE?AVQDomElement@@XZ 004250d0     qt-mt323:qt-mt323.dll
 0004:000020d4       __imp_?close@QFile@@UAEXXZ 004250d4     qt-mt323:qt-mt323.dll
 0004:000020d8       __imp_?setContent@QDomDocument@@QAE_NPAVQIODevice@@PAVQString@@PAH2@Z 004250d8     qt-mt323:qt-mt323.dll
 0004:000020dc       __imp_??1QFile@@UAE@XZ     004250dc     qt-mt323:qt-mt323.dll
 0004:000020e0       __imp_?open@QFile@@UAE_NH@Z 004250e0     qt-mt323:qt-mt323.dll
 0004:000020e4       __imp_??0QFile@@QAE@ABVQString@@@Z 004250e4     qt-mt323:qt-mt323.dll
 0004:000020e8       __imp_??0QDomDocument@@QAE@XZ 004250e8     qt-mt323:qt-mt323.dll
 0004:000020ec       __imp_?right@QString@@QBE?AV1@I@Z 004250ec     qt-mt323:qt-mt323.dll
 0004:000020f0       __imp_?find@QString@@QBEHABV1@H_N@Z 004250f0     qt-mt323:qt-mt323.dll
 0004:000020f4       __imp_?fromAscii@QString@@SA?AV1@PBDH@Z 004250f4     qt-mt323:qt-mt323.dll
 0004:000020f8       __imp_?contains@QString@@QBEHPBD_N@Z 004250f8     qt-mt323:qt-mt323.dll
 0004:000020fc       __imp_?value@QSpinBox@@QBEHXZ 004250fc     qt-mt323:qt-mt323.dll
 0004:00002100       __imp_?warning@QMessageBox@@SAHPAVQWidget@@ABVQString@@1HHH@Z 00425100     qt-mt323:qt-mt323.dll
 0004:00002104       __imp_?exec@QDialog@@QAEHXZ 00425104     qt-mt323:qt-mt323.dll
 0004:00002108       __imp_?about@QMessageBox@@SAXPAVQWidget@@ABVQString@@1@Z 00425108     qt-mt323:qt-mt323.dll
 0004:0000210c       __imp_?sprintf@QString@@QAAAAV1@PBDZZ 0042510c     qt-mt323:qt-mt323.dll
 0004:00002110       __imp_??1QProcess@@UAE@XZ  00425110     qt-mt323:qt-mt323.dll
 0004:00002114       __imp_?start@QProcess@@UAE_NPAVQStringList@@@Z 00425114     qt-mt323:qt-mt323.dll
 0004:00002118       __imp_?addArgument@QProcess@@UAEXABVQString@@@Z 00425118     qt-mt323:qt-mt323.dll
 0004:0000211c       __imp_??0QProcess@@QAE@PAVQObject@@PBD@Z 0042511c     qt-mt323:qt-mt323.dll
 0004:00002120       __imp_?setText@QClipboard@@QAEXABVQString@@@Z 00425120     qt-mt323:qt-mt323.dll
 0004:00002124       __imp_?clipboard@QApplication@@SAPAVQClipboard@@XZ 00425124     qt-mt323:qt-mt323.dll
 0004:00002128       __imp_?getText@QInputDialog@@SA?AVQString@@ABV2@0W4EchoMode@QLineEdit@@0PA_NPAVQWidget@@PBD@Z 00425128     qt-mt323:qt-mt323.dll
 0004:0000212c       __imp_?exists@QFile@@SA_NABVQString@@@Z 0042512c     qt-mt323:qt-mt323.dll
 0004:00002130       __imp_?warning@QMessageBox@@SAHPAVQWidget@@ABVQString@@1111HH@Z 00425130     qt-mt323:qt-mt323.dll
 0004:00002134       __imp_?rebalance@QMapPrivateBase@@QAEXPAUQMapNodeBase@@AAPAU2@@Z 00425134     qt-mt323:qt-mt323.dll
 0004:00002138       __imp_?static_QUType_varptr@@3UQUType_varptr@@A 00425138     qt-mt323:qt-mt323.dll
 0004:0000213c       __imp_?staticMetaObject@QObject@@SAPAVQMetaObject@@XZ 0042513c     qt-mt323:qt-mt323.dll
 0004:00002140       __imp_?qt_cast@QObject@@UAEPAXPBD@Z 00425140     qt-mt323:qt-mt323.dll
 0004:00002144       __imp_?activate_signal@QObject@@IAEXPAVQConnectionList@@PAUQUObject@@@Z 00425144     qt-mt323:qt-mt323.dll
 0004:00002148       __imp_?set@QUType_varptr@@QAEXPAUQUObject@@PBX@Z 00425148     qt-mt323:qt-mt323.dll
 0004:0000214c       __imp_??0QUObject@@QAE@XZ  0042514c     qt-mt323:qt-mt323.dll
 0004:00002150       __imp_??1QUObject@@QAE@XZ  00425150     qt-mt323:qt-mt323.dll
 0004:00002154       __imp_?receivers@QObject@@IBEPAVQConnectionList@@H@Z 00425154     qt-mt323:qt-mt323.dll
 0004:00002158       __imp_?qt_invoke@QObject@@UAE_NHPAUQUObject@@@Z 00425158     qt-mt323:qt-mt323.dll
 0004:0000215c       __imp_?qt_emit@QObject@@UAE_NHPAUQUObject@@@Z 0042515c     qt-mt323:qt-mt323.dll
 0004:00002160       __imp_?qt_property@QObject@@UAE_NHHPAVQVariant@@@Z 00425160     qt-mt323:qt-mt323.dll
 0004:00002164       __imp_?compareItems@QGVector@@UAEHPAX0@Z 00425164     qt-mt323:qt-mt323.dll
 0004:00002168       __imp_?write@QGVector@@MBEAAVQDataStream@@AAV2@PAX@Z 00425168     qt-mt323:qt-mt323.dll
 0004:0000216c       __imp_?read@QGVector@@MAEAAVQDataStream@@AAV2@AAPAX@Z 0042516c     qt-mt323:qt-mt323.dll
 0004:00002170       __imp_?newItem@QPtrCollection@@MAEPAXPAX@Z 00425170     qt-mt323:qt-mt323.dll
 0004:00002174       __imp_??0QGVector@@IAE@XZ  00425174     qt-mt323:qt-mt323.dll
 0004:00002178       __imp_??0QGVector@@IAE@I@Z 00425178     qt-mt323:qt-mt323.dll
 0004:0000217c       __imp_??0QGVector@@IAE@ABV0@@Z 0042517c     qt-mt323:qt-mt323.dll
 0004:00002180       __imp_??1QGVector@@MAE@XZ  00425180     qt-mt323:qt-mt323.dll
 0004:00002184       __imp_?clear@QGVector@@MAEXXZ 00425184     qt-mt323:qt-mt323.dll
 0004:00002188       __imp_??4QGVector@@IAEAAV0@ABV0@@Z 00425188     qt-mt323:qt-mt323.dll
 0004:0000218c       __imp_??8QGVector@@IBE_NABV0@@Z 0042518c     qt-mt323:qt-mt323.dll
 0004:00002190       __imp_?resize@QGVector@@IAE_NI@Z 00425190     qt-mt323:qt-mt323.dll
 0004:00002194       __imp_?insert@QGVector@@IAE_NIPAX@Z 00425194     qt-mt323:qt-mt323.dll
 0004:00002198       __imp_?remove@QGVector@@IAE_NI@Z 00425198     qt-mt323:qt-mt323.dll
 0004:0000219c       __imp_?take@QGVector@@IAEPAXI@Z 0042519c     qt-mt323:qt-mt323.dll
 0004:000021a0       __imp_?fill@QGVector@@IAE_NPAXH@Z 004251a0     qt-mt323:qt-mt323.dll
 0004:000021a4       __imp_?sort@QGVector@@IAEXXZ 004251a4     qt-mt323:qt-mt323.dll
 0004:000021a8       __imp_?bsearch@QGVector@@IBEHPAX@Z 004251a8     qt-mt323:qt-mt323.dll
 0004:000021ac       __imp_?findRef@QGVector@@IBEHPAXI@Z 004251ac     qt-mt323:qt-mt323.dll
 0004:000021b0       __imp_?find@QGVector@@IBEHPAXI@Z 004251b0     qt-mt323:qt-mt323.dll
 0004:000021b4       __imp_?containsRef@QGVector@@IBEIPAX@Z 004251b4     qt-mt323:qt-mt323.dll
 0004:000021b8       __imp_?contains@QGVector@@IBEIPAX@Z 004251b8     qt-mt323:qt-mt323.dll
 0004:000021bc       __imp_?warningIndexRange@QGVector@@CAXI@Z 004251bc     qt-mt323:qt-mt323.dll
 0004:000021c0       __imp_?toList@QGVector@@IBEXPAVQGList@@@Z 004251c0     qt-mt323:qt-mt323.dll
 0004:000021c4       __imp_??1?$QPtrVector@H@@UAE@XZ 004251c4     qt-mt323:qt-mt323.dll
 0004:000021c8       __imp_??1?$QPtrVector@VQWidget@@@@UAE@XZ 004251c8     qt-mt323:qt-mt323.dll
 0004:000021cc       __imp_??1?$QAsciiDict@VQConnectionList@@@@UAE@XZ 004251cc     qt-mt323:qt-mt323.dll
 0004:000021d0       __imp_?static_QUType_ptr@@3UQUType_ptr@@A 004251d0     qt-mt323:qt-mt323.dll
 0004:000021d4       __imp_?static_QUType_int@@3UQUType_int@@A 004251d4     qt-mt323:qt-mt323.dll
 0004:000021d8       __imp_?set@QUType_ptr@@QAEXPAUQUObject@@PBX@Z 004251d8     qt-mt323:qt-mt323.dll
 0004:000021dc       __imp_?staticMetaObject@QMainWindow@@SAPAVQMetaObject@@XZ 004251dc     qt-mt323:qt-mt323.dll
 0004:000021e0       __imp_?qt_cast@QMainWindow@@UAEPAXPBD@Z 004251e0     qt-mt323:qt-mt323.dll
 0004:000021e4       __imp_?qt_invoke@QMainWindow@@UAE_NHPAUQUObject@@@Z 004251e4     qt-mt323:qt-mt323.dll
 0004:000021e8       __imp_?qt_emit@QMainWindow@@UAE_NHPAUQUObject@@@Z 004251e8     qt-mt323:qt-mt323.dll
 0004:000021ec       __imp_?qt_property@QMainWindow@@UAE_NHHPAVQVariant@@@Z 004251ec     qt-mt323:qt-mt323.dll
 0004:000021f0       __imp_?createPopupMenu@QLineEdit@@MAEPAVQPopupMenu@@XZ 004251f0     qt-mt323:qt-mt323.dll
 0004:000021f4       __imp_?setDragEnabled@QLineEdit@@UAEX_N@Z 004251f4     qt-mt323:qt-mt323.dll
 0004:000021f8       __imp_?paste@QLineEdit@@UAEXXZ 004251f8     qt-mt323:qt-mt323.dll
 0004:000021fc       __imp_?copy@QLineEdit@@UBEXXZ 004251fc     qt-mt323:qt-mt323.dll
 0004:00002200       __imp_?cut@QLineEdit@@UAEXXZ 00425200     qt-mt323:qt-mt323.dll
 0004:00002204       __imp_?setAlignment@QLineEdit@@UAEXH@Z 00425204     qt-mt323:qt-mt323.dll
 0004:00002208       __imp_?setCursorPosition@QLineEdit@@UAEXH@Z 00425208     qt-mt323:qt-mt323.dll
 0004:0000220c       __imp_?setSelection@QLineEdit@@UAEXHH@Z 0042520c     qt-mt323:qt-mt323.dll
 0004:00002210       __imp_?setValidator@QLineEdit@@UAEXPBVQValidator@@@Z 00425210     qt-mt323:qt-mt323.dll
 0004:00002214       __imp_?setReadOnly@QLineEdit@@UAEX_N@Z 00425214     qt-mt323:qt-mt323.dll
 0004:00002218       __imp_?setEchoMode@QLineEdit@@UAEXW4EchoMode@1@@Z 00425218     qt-mt323:qt-mt323.dll
 0004:0000221c       __imp_?setFrame@QLineEdit@@UAEX_N@Z 0042521c     qt-mt323:qt-mt323.dll
 0004:00002220       __imp_?setMaxLength@QLineEdit@@UAEXH@Z 00425220     qt-mt323:qt-mt323.dll
 0004:00002224       __imp_?redo@QLineEdit@@UAEXXZ 00425224     qt-mt323:qt-mt323.dll
 0004:00002228       __imp_?undo@QLineEdit@@UAEXXZ 00425228     qt-mt323:qt-mt323.dll
 0004:0000222c       __imp_?clear@QLineEdit@@UAEXXZ 0042522c     qt-mt323:qt-mt323.dll
 0004:00002230       __imp_?insert@QLineEdit@@UAEXABVQString@@@Z 00425230     qt-mt323:qt-mt323.dll
 0004:00002234       __imp_?clearValidator@QLineEdit@@UAEXXZ 00425234     qt-mt323:qt-mt323.dll
 0004:00002238       __imp_?deselect@QLineEdit@@UAEXXZ 00425238     qt-mt323:qt-mt323.dll
 0004:0000223c       __imp_?selectAll@QLineEdit@@UAEXXZ 0042523c     qt-mt323:qt-mt323.dll
 0004:00002240       __imp_?setText@QLineEdit@@UAEXABVQString@@@Z 00425240     qt-mt323:qt-mt323.dll
 0004:00002244       __imp_?drawContents@QLineEdit@@MAEXPAVQPainter@@@Z 00425244     qt-mt323:qt-mt323.dll
 0004:00002248       __imp_?windowActivationChange@QLineEdit@@MAEX_N@Z 00425248     qt-mt323:qt-mt323.dll
 0004:0000224c       __imp_?dropEvent@QLineEdit@@MAEXPAVQDropEvent@@@Z 0042524c     qt-mt323:qt-mt323.dll
 0004:00002250       __imp_?dragLeaveEvent@QLineEdit@@MAEXPAVQDragLeaveEvent@@@Z 00425250     qt-mt323:qt-mt323.dll
 0004:00002254       __imp_?dragMoveEvent@QLineEdit@@MAEXPAVQDragMoveEvent@@@Z 00425254     qt-mt323:qt-mt323.dll
 0004:00002258       __imp_?dragEnterEvent@QLineEdit@@MAEXPAVQDragEnterEvent@@@Z 00425258     qt-mt323:qt-mt323.dll
 0004:0000225c       __imp_?imEndEvent@QLineEdit@@MAEXPAVQIMEvent@@@Z 0042525c     qt-mt323:qt-mt323.dll
 0004:00002260       __imp_?imComposeEvent@QLineEdit@@MAEXPAVQIMEvent@@@Z 00425260     qt-mt323:qt-mt323.dll
 0004:00002264       __imp_?imStartEvent@QLineEdit@@MAEXPAVQIMEvent@@@Z 00425264     qt-mt323:qt-mt323.dll
 0004:00002268       __imp_?contextMenuEvent@QLineEdit@@MAEXPAVQContextMenuEvent@@@Z 00425268     qt-mt323:qt-mt323.dll
 0004:0000226c       __imp_?resizeEvent@QLineEdit@@MAEXPAVQResizeEvent@@@Z 0042526c     qt-mt323:qt-mt323.dll
 0004:00002270       __imp_?focusOutEvent@QLineEdit@@MAEXPAVQFocusEvent@@@Z 00425270     qt-mt323:qt-mt323.dll
 0004:00002274       __imp_?focusInEvent@QLineEdit@@MAEXPAVQFocusEvent@@@Z 00425274     qt-mt323:qt-mt323.dll
 0004:00002278       __imp_?keyPressEvent@QLineEdit@@MAEXPAVQKeyEvent@@@Z 00425278     qt-mt323:qt-mt323.dll
 0004:0000227c       __imp_?mouseMoveEvent@QLineEdit@@MAEXPAVQMouseEvent@@@Z 0042527c     qt-mt323:qt-mt323.dll
 0004:00002280       __imp_?mouseDoubleClickEvent@QLineEdit@@MAEXPAVQMouseEvent@@@Z 00425280     qt-mt323:qt-mt323.dll
 0004:00002284       __imp_?mouseReleaseEvent@QLineEdit@@MAEXPAVQMouseEvent@@@Z 00425284     qt-mt323:qt-mt323.dll
 0004:00002288       __imp_?mousePressEvent@QLineEdit@@MAEXPAVQMouseEvent@@@Z 00425288     qt-mt323:qt-mt323.dll
 0004:0000228c       __imp_?minimumSizeHint@QLineEdit@@UBE?AVQSize@@XZ 0042528c     qt-mt323:qt-mt323.dll
 0004:00002290       __imp_?sizeHint@QLineEdit@@UBE?AVQSize@@XZ 00425290     qt-mt323:qt-mt323.dll
 0004:00002294       __imp_?setFont@QLineEdit@@UAEXABVQFont@@@Z 00425294     qt-mt323:qt-mt323.dll
 0004:00002298       __imp_?setPalette@QLineEdit@@UAEXABVQPalette@@@Z 00425298     qt-mt323:qt-mt323.dll
 0004:0000229c       __imp_?event@QLineEdit@@MAE_NPAVQEvent@@@Z 0042529c     qt-mt323:qt-mt323.dll
 0004:000022a0       __imp_?qt_property@QLineEdit@@UAE_NHHPAVQVariant@@@Z 004252a0     qt-mt323:qt-mt323.dll
 0004:000022a4       __imp_?qt_emit@QLineEdit@@UAE_NHPAUQUObject@@@Z 004252a4     qt-mt323:qt-mt323.dll
 0004:000022a8       __imp_?qt_invoke@QLineEdit@@UAE_NHPAUQUObject@@@Z 004252a8     qt-mt323:qt-mt323.dll
 0004:000022ac       __imp_?qt_cast@QLineEdit@@UAEPAXPBD@Z 004252ac     qt-mt323:qt-mt323.dll
 0004:000022b0       __imp_?className@QLineEdit@@UBEPBDXZ 004252b0     qt-mt323:qt-mt323.dll
 0004:000022b4       __imp_?metaObject@QLineEdit@@UBEPAVQMetaObject@@XZ 004252b4     qt-mt323:qt-mt323.dll
 0004:000022b8       __imp_?paintEmptyArea@QListView@@MAEXPAVQPainter@@ABVQRect@@@Z 004252b8     qt-mt323:qt-mt323.dll
 0004:000022bc       __imp_?startDrag@QListView@@MAEXXZ 004252bc     qt-mt323:qt-mt323.dll
 0004:000022c0       __imp_?dragObject@QListView@@MAEPAVQDragObject@@XZ 004252c0     qt-mt323:qt-mt323.dll
 0004:000022c4       __imp_?selectAll@QListView@@UAEX_N@Z 004252c4     qt-mt323:qt-mt323.dll
 0004:000022c8       __imp_?invertSelection@QListView@@UAEXXZ 004252c8     qt-mt323:qt-mt323.dll
 0004:000022cc       __imp_?clear@QListView@@UAEXXZ 004252cc     qt-mt323:qt-mt323.dll
 0004:000022d0       __imp_?setDefaultRenameAction@QListView@@UAEXW4RenameAction@1@@Z 004252d0     qt-mt323:qt-mt323.dll
 0004:000022d4       __imp_?setResizeMode@QListView@@UAEXW4ResizeMode@1@@Z 004252d4     qt-mt323:qt-mt323.dll
 0004:000022d8       __imp_?setShowToolTips@QListView@@UAEX_N@Z 004252d8     qt-mt323:qt-mt323.dll
 0004:000022dc       __imp_?setShowSortIndicator@QListView@@UAEX_N@Z 004252dc     qt-mt323:qt-mt323.dll
 0004:000022e0       __imp_?sort@QListView@@UAEXXZ 004252e0     qt-mt323:qt-mt323.dll
 0004:000022e4       __imp_?setSorting@QListView@@UAEXH_N@Z 004252e4     qt-mt323:qt-mt323.dll
 0004:000022e8       __imp_?setRootIsDecorated@QListView@@UAEX_N@Z 004252e8     qt-mt323:qt-mt323.dll
 0004:000022ec       __imp_?setItemMargin@QListView@@UAEXH@Z 004252ec     qt-mt323:qt-mt323.dll
 0004:000022f0       __imp_?setAllColumnsShowFocus@QListView@@UAEX_N@Z 004252f0     qt-mt323:qt-mt323.dll
 0004:000022f4       __imp_?setCurrentItem@QListView@@UAEXPAVQListViewItem@@@Z 004252f4     qt-mt323:qt-mt323.dll
 0004:000022f8       __imp_?setOpen@QListView@@UAEXPAVQListViewItem@@_N@Z 004252f8     qt-mt323:qt-mt323.dll
 0004:000022fc       __imp_?setSelected@QListView@@UAEXPAVQListViewItem@@_N@Z 004252fc     qt-mt323:qt-mt323.dll
 0004:00002300       __imp_?clearSelection@QListView@@UAEXXZ 00425300     qt-mt323:qt-mt323.dll
 0004:00002304       __imp_?setMultiSelection@QListView@@UAEX_N@Z 00425304     qt-mt323:qt-mt323.dll
 0004:00002308       __imp_?setColumnAlignment@QListView@@UAEXHH@Z 00425308     qt-mt323:qt-mt323.dll
 0004:0000230c       __imp_?setColumnWidthMode@QListView@@UAEXHW4WidthMode@1@@Z 0042530c     qt-mt323:qt-mt323.dll
 0004:00002310       __imp_?setColumnWidth@QListView@@UAEXHH@Z 00425310     qt-mt323:qt-mt323.dll
 0004:00002314       __imp_?setColumnText@QListView@@UAEXHABVQString@@@Z 00425314     qt-mt323:qt-mt323.dll
 0004:00002318       __imp_?setColumnText@QListView@@UAEXHABVQIconSet@@ABVQString@@@Z 00425318     qt-mt323:qt-mt323.dll
 0004:0000231c       __imp_?removeColumn@QListView@@UAEXH@Z 0042531c     qt-mt323:qt-mt323.dll
 0004:00002320       __imp_?addColumn@QListView@@UAEHABVQString@@H@Z 00425320     qt-mt323:qt-mt323.dll
 0004:00002324       __imp_?addColumn@QListView@@UAEHABVQIconSet@@ABVQString@@H@Z 00425324     qt-mt323:qt-mt323.dll
 0004:00002328       __imp_?removeItem@QListView@@UAEXPAVQListViewItem@@@Z 00425328     qt-mt323:qt-mt323.dll
 0004:0000232c       __imp_?takeItem@QListView@@UAEXPAVQListViewItem@@@Z 0042532c     qt-mt323:qt-mt323.dll
 0004:00002330       __imp_?insertItem@QListView@@UAEXPAVQListViewItem@@@Z 00425330     qt-mt323:qt-mt323.dll
 0004:00002334       __imp_?setTreeStepSize@QListView@@UAEXH@Z 00425334     qt-mt323:qt-mt323.dll
 0004:00002338       __imp_?setVBarGeometry@QScrollView@@MAEXAAVQScrollBar@@HHHH@Z 00425338     qt-mt323:qt-mt323.dll
 0004:0000233c       __imp_?setHBarGeometry@QScrollView@@MAEXAAVQScrollBar@@HHHH@Z 0042533c     qt-mt323:qt-mt323.dll
 0004:00002340       __imp_?setMargins@QScrollView@@MAEXHHHH@Z 00425340     qt-mt323:qt-mt323.dll
 0004:00002344       __imp_?viewportContextMenuEvent@QScrollView@@MAEXPAVQContextMenuEvent@@@Z 00425344     qt-mt323:qt-mt323.dll
 0004:00002348       __imp_?viewportWheelEvent@QScrollView@@MAEXPAVQWheelEvent@@@Z 00425348     qt-mt323:qt-mt323.dll
 0004:0000234c       __imp_?viewportDropEvent@QScrollView@@MAEXPAVQDropEvent@@@Z 0042534c     qt-mt323:qt-mt323.dll
 0004:00002350       __imp_?viewportDragLeaveEvent@QScrollView@@MAEXPAVQDragLeaveEvent@@@Z 00425350     qt-mt323:qt-mt323.dll
 0004:00002354       __imp_?viewportDragMoveEvent@QScrollView@@MAEXPAVQDragMoveEvent@@@Z 00425354     qt-mt323:qt-mt323.dll
 0004:00002358       __imp_?viewportDragEnterEvent@QScrollView@@MAEXPAVQDragEnterEvent@@@Z 00425358     qt-mt323:qt-mt323.dll
 0004:0000235c       __imp_?viewportMouseMoveEvent@QScrollView@@MAEXPAVQMouseEvent@@@Z 0042535c     qt-mt323:qt-mt323.dll
 0004:00002360       __imp_?viewportMouseDoubleClickEvent@QScrollView@@MAEXPAVQMouseEvent@@@Z 00425360     qt-mt323:qt-mt323.dll
 0004:00002364       __imp_?viewportMouseReleaseEvent@QScrollView@@MAEXPAVQMouseEvent@@@Z 00425364     qt-mt323:qt-mt323.dll
 0004:00002368       __imp_?viewportMousePressEvent@QScrollView@@MAEXPAVQMouseEvent@@@Z 00425368     qt-mt323:qt-mt323.dll
 0004:0000236c       __imp_?viewportResizeEvent@QListView@@MAEXPAVQResizeEvent@@@Z 0042536c     qt-mt323:qt-mt323.dll
 0004:00002370       __imp_?viewportPaintEvent@QScrollView@@MAEXPAVQPaintEvent@@@Z 00425370     qt-mt323:qt-mt323.dll
 0004:00002374       __imp_?contentsContextMenuEvent@QListView@@MAEXPAVQContextMenuEvent@@@Z 00425374     qt-mt323:qt-mt323.dll
 0004:00002378       __imp_?contentsWheelEvent@QScrollView@@MAEXPAVQWheelEvent@@@Z 00425378     qt-mt323:qt-mt323.dll
 0004:0000237c       __imp_?contentsDropEvent@QListView@@MAEXPAVQDropEvent@@@Z 0042537c     qt-mt323:qt-mt323.dll
 0004:00002380       __imp_?contentsDragLeaveEvent@QListView@@MAEXPAVQDragLeaveEvent@@@Z 00425380     qt-mt323:qt-mt323.dll
 0004:00002384       __imp_?contentsDragMoveEvent@QListView@@MAEXPAVQDragMoveEvent@@@Z 00425384     qt-mt323:qt-mt323.dll
 0004:00002388       __imp_?contentsDragEnterEvent@QListView@@MAEXPAVQDragEnterEvent@@@Z 00425388     qt-mt323:qt-mt323.dll
 0004:0000238c       __imp_?contentsMouseMoveEvent@QListView@@MAEXPAVQMouseEvent@@@Z 0042538c     qt-mt323:qt-mt323.dll
 0004:00002390       __imp_?contentsMouseDoubleClickEvent@QListView@@MAEXPAVQMouseEvent@@@Z 00425390     qt-mt323:qt-mt323.dll
 0004:00002394       __imp_?contentsMouseReleaseEvent@QListView@@MAEXPAVQMouseEvent@@@Z 00425394     qt-mt323:qt-mt323.dll
 0004:00002398       __imp_?contentsMousePressEvent@QListView@@MAEXPAVQMouseEvent@@@Z 00425398     qt-mt323:qt-mt323.dll
 0004:0000239c       __imp_?drawContentsOffset@QListView@@MAEXPAVQPainter@@HHHHHH@Z 0042539c     qt-mt323:qt-mt323.dll
 0004:000023a0       __imp_?drawContents@QScrollView@@MAEXPAVQPainter@@HHHH@Z 004253a0     qt-mt323:qt-mt323.dll
 0004:000023a4       __imp_?setContentsPos@QListView@@UAEXHH@Z 004253a4     qt-mt323:qt-mt323.dll
 0004:000023a8       __imp_?resizeContents@QScrollView@@UAEXHH@Z 004253a8     qt-mt323:qt-mt323.dll
 0004:000023ac       __imp_?setDragAutoScroll@QScrollView@@UAEX_N@Z 004253ac     qt-mt323:qt-mt323.dll
 0004:000023b0       __imp_?setCornerWidget@QScrollView@@UAEXPAVQWidget@@@Z 004253b0     qt-mt323:qt-mt323.dll
 0004:000023b4       __imp_?setHScrollBarMode@QScrollView@@UAEXW4ScrollBarMode@1@@Z 004253b4     qt-mt323:qt-mt323.dll
 0004:000023b8       __imp_?setVScrollBarMode@QScrollView@@UAEXW4ScrollBarMode@1@@Z 004253b8     qt-mt323:qt-mt323.dll
 0004:000023bc       __imp_?moveChild@QScrollView@@UAEXPAVQWidget@@HH@Z 004253bc     qt-mt323:qt-mt323.dll
 0004:000023c0       __imp_?addChild@QScrollView@@UAEXPAVQWidget@@HH@Z 004253c0     qt-mt323:qt-mt323.dll
 0004:000023c4       __imp_?setResizePolicy@QScrollView@@UAEXW4ResizePolicy@1@@Z 004253c4     qt-mt323:qt-mt323.dll
 0004:000023c8       __imp_?frameChanged@QScrollView@@MAEXXZ 004253c8     qt-mt323:qt-mt323.dll
 0004:000023cc       __imp_?drawContents@QScrollView@@EAEXPAVQPainter@@@Z 004253cc     qt-mt323:qt-mt323.dll
 0004:000023d0       __imp_?focusNextPrevChild@QScrollView@@MAE_N_N@Z 004253d0     qt-mt323:qt-mt323.dll
 0004:000023d4       __imp_?windowActivationChange@QListView@@MAEX_N@Z 004253d4     qt-mt323:qt-mt323.dll
 0004:000023d8       __imp_?fontChange@QScrollView@@MAEXABVQFont@@@Z 004253d8     qt-mt323:qt-mt323.dll
 0004:000023dc       __imp_?styleChange@QListView@@MAEXAAVQStyle@@@Z 004253dc     qt-mt323:qt-mt323.dll
 0004:000023e0       __imp_?showEvent@QListView@@MAEXPAVQShowEvent@@@Z 004253e0     qt-mt323:qt-mt323.dll
 0004:000023e4       __imp_?contextMenuEvent@QScrollView@@MAEXPAVQContextMenuEvent@@@Z 004253e4     qt-mt323:qt-mt323.dll
 0004:000023e8       __imp_?resizeEvent@QListView@@MAEXPAVQResizeEvent@@@Z 004253e8     qt-mt323:qt-mt323.dll
 0004:000023ec       __imp_?focusOutEvent@QListView@@MAEXPAVQFocusEvent@@@Z 004253ec     qt-mt323:qt-mt323.dll
 0004:000023f0       __imp_?focusInEvent@QListView@@MAEXPAVQFocusEvent@@@Z 004253f0     qt-mt323:qt-mt323.dll
 0004:000023f4       __imp_?keyPressEvent@QListView@@MAEXPAVQKeyEvent@@@Z 004253f4     qt-mt323:qt-mt323.dll
 0004:000023f8       __imp_?wheelEvent@QScrollView@@MAEXPAVQWheelEvent@@@Z 004253f8     qt-mt323:qt-mt323.dll
 0004:000023fc       __imp_?mouseMoveEvent@QScrollView@@MAEXPAVQMouseEvent@@@Z 004253fc     qt-mt323:qt-mt323.dll
 0004:00002400       __imp_?mouseDoubleClickEvent@QScrollView@@MAEXPAVQMouseEvent@@@Z 00425400     qt-mt323:qt-mt323.dll
 0004:00002404       __imp_?mouseReleaseEvent@QScrollView@@MAEXPAVQMouseEvent@@@Z 00425404     qt-mt323:qt-mt323.dll
 0004:00002408       __imp_?mousePressEvent@QScrollView@@MAEXPAVQMouseEvent@@@Z 00425408     qt-mt323:qt-mt323.dll
 0004:0000240c       __imp_?minimumSizeHint@QListView@@UBE?AVQSize@@XZ 0042540c     qt-mt323:qt-mt323.dll
 0004:00002410       __imp_?sizeHint@QListView@@UBE?AVQSize@@XZ 00425410     qt-mt323:qt-mt323.dll
 0004:00002414       __imp_?resize@QScrollView@@UAEXHH@Z 00425414     qt-mt323:qt-mt323.dll
 0004:00002418       __imp_?show@QListView@@UAEXXZ 00425418     qt-mt323:qt-mt323.dll
 0004:0000241c       __imp_?setFont@QListView@@UAEXABVQFont@@@Z 0042541c     qt-mt323:qt-mt323.dll
 0004:00002420       __imp_?setPalette@QListView@@UAEXABVQPalette@@@Z 00425420     qt-mt323:qt-mt323.dll
 0004:00002424       __imp_?setEnabled@QScrollView@@UAEX_N@Z 00425424     qt-mt323:qt-mt323.dll
 0004:00002428       __imp_?removeChild@QScrollView@@UAEXPAVQObject@@@Z 00425428     qt-mt323:qt-mt323.dll
 0004:0000242c       __imp_?eventFilter@QListView@@UAE_NPAVQObject@@PAVQEvent@@@Z 0042542c     qt-mt323:qt-mt323.dll
 0004:00002430       __imp_?qt_property@QListView@@UAE_NHHPAVQVariant@@@Z 00425430     qt-mt323:qt-mt323.dll
 0004:00002434       __imp_?qt_emit@QListView@@UAE_NHPAUQUObject@@@Z 00425434     qt-mt323:qt-mt323.dll
 0004:00002438       __imp_?qt_invoke@QListView@@UAE_NHPAUQUObject@@@Z 00425438     qt-mt323:qt-mt323.dll
 0004:0000243c       __imp_?qt_cast@QListView@@UAEPAXPBD@Z 0042543c     qt-mt323:qt-mt323.dll
 0004:00002440       __imp_?className@QListView@@UBEPBDXZ 00425440     qt-mt323:qt-mt323.dll
 0004:00002444       __imp_?metaObject@QListView@@UBEPAVQMetaObject@@XZ 00425444     qt-mt323:qt-mt323.dll
 0004:00002448       __imp_?setAlignment@QGroupBox@@UAEXH@Z 00425448     qt-mt323:qt-mt323.dll
 0004:0000244c       __imp_?setTitle@QGroupBox@@UAEXABVQString@@@Z 0042544c     qt-mt323:qt-mt323.dll
 0004:00002450       __imp_?setColumnLayout@QGroupBox@@UAEXHW4Orientation@Qt@@@Z 00425450     qt-mt323:qt-mt323.dll
 0004:00002454       __imp_?drawContents@QFrame@@MAEXPAVQPainter@@@Z 00425454     qt-mt323:qt-mt323.dll
 0004:00002458       __imp_?fontChange@QGroupBox@@MAEXABVQFont@@@Z 00425458     qt-mt323:qt-mt323.dll
 0004:0000245c       __imp_?resizeEvent@QGroupBox@@MAEXPAVQResizeEvent@@@Z 0042545c     qt-mt323:qt-mt323.dll
 0004:00002460       __imp_?paintEvent@QGroupBox@@MAEXPAVQPaintEvent@@@Z 00425460     qt-mt323:qt-mt323.dll
 0004:00002464       __imp_?focusInEvent@QGroupBox@@MAEXPAVQFocusEvent@@@Z 00425464     qt-mt323:qt-mt323.dll
 0004:00002468       __imp_?sizeHint@QGroupBox@@UBE?AVQSize@@XZ 00425468     qt-mt323:qt-mt323.dll
 0004:0000246c       __imp_?setEnabled@QGroupBox@@UAEX_N@Z 0042546c     qt-mt323:qt-mt323.dll
 0004:00002470       __imp_?childEvent@QGroupBox@@MAEXPAVQChildEvent@@@Z 00425470     qt-mt323:qt-mt323.dll
 0004:00002474       __imp_?event@QGroupBox@@MAE_NPAVQEvent@@@Z 00425474     qt-mt323:qt-mt323.dll
 0004:00002478       __imp_?qt_property@QGroupBox@@UAE_NHHPAVQVariant@@@Z 00425478     qt-mt323:qt-mt323.dll
 0004:0000247c       __imp_?qt_emit@QGroupBox@@UAE_NHPAUQUObject@@@Z 0042547c     qt-mt323:qt-mt323.dll
 0004:00002480       __imp_?qt_invoke@QGroupBox@@UAE_NHPAUQUObject@@@Z 00425480     qt-mt323:qt-mt323.dll
 0004:00002484       __imp_?qt_cast@QGroupBox@@UAEPAXPBD@Z 00425484     qt-mt323:qt-mt323.dll
 0004:00002488       __imp_?className@QGroupBox@@UBEPBDXZ 00425488     qt-mt323:qt-mt323.dll
 0004:0000248c       __imp_?metaObject@QGroupBox@@UBEPAVQMetaObject@@XZ 0042548c     qt-mt323:qt-mt323.dll
 0004:00002490       __imp_?sizeHint@QWidget@@UBE?AVQSize@@XZ 00425490     qt-mt323:qt-mt323.dll
 0004:00002494       __imp_?qt_property@QWidget@@UAE_NHHPAVQVariant@@@Z 00425494     qt-mt323:qt-mt323.dll
 0004:00002498       __imp_?qt_emit@QWidget@@UAE_NHPAUQUObject@@@Z 00425498     qt-mt323:qt-mt323.dll
 0004:0000249c       __imp_?qt_invoke@QWidget@@UAE_NHPAUQUObject@@@Z 0042549c     qt-mt323:qt-mt323.dll
 0004:000024a0       __imp_?qt_cast@QWidget@@UAEPAXPBD@Z 004254a0     qt-mt323:qt-mt323.dll
 0004:000024a4       __imp_?className@QWidget@@UBEPBDXZ 004254a4     qt-mt323:qt-mt323.dll
 0004:000024a8       __imp_?metaObject@QWidget@@UBEPAVQMetaObject@@XZ 004254a8     qt-mt323:qt-mt323.dll
 0004:000024ac       __imp_??1QMainWindow@@UAE@XZ 004254ac     qt-mt323:qt-mt323.dll
 0004:000024b0       __imp_??0QLineEdit@@QAE@PAVQWidget@@PBD@Z 004254b0     qt-mt323:qt-mt323.dll
 0004:000024b4       __imp_??0QListView@@QAE@PAVQWidget@@PBDI@Z 004254b4     qt-mt323:qt-mt323.dll
 0004:000024b8       __imp_??0QHBoxLayout@@QAE@PAVQLayout@@HPBD@Z 004254b8     qt-mt323:qt-mt323.dll
 0004:000024bc       __imp_??0QGroupBox@@QAE@PAVQWidget@@PBD@Z 004254bc     qt-mt323:qt-mt323.dll
 0004:000024c0       __imp_?centralWidget@QMainWindow@@QBEPAVQWidget@@XZ 004254c0     qt-mt323:qt-mt323.dll
 0004:000024c4       __imp_??0QWidget@@QAE@PAV0@PBDI@Z 004254c4     qt-mt323:qt-mt323.dll
 0004:000024c8       __imp_?statusBar@QMainWindow@@QBEPAVQStatusBar@@XZ 004254c8     qt-mt323:qt-mt323.dll
 0004:000024cc       __imp_??0QMainWindow@@QAE@PAVQWidget@@PBDI@Z 004254cc     qt-mt323:qt-mt323.dll
 0004:000024d0       __imp_??1QWidget@@UAE@XZ   004254d0     qt-mt323:qt-mt323.dll
 0004:000024d4       __imp_??1QGroupBox@@UAE@XZ 004254d4     qt-mt323:qt-mt323.dll
 0004:000024d8       __imp_??1QListView@@UAE@XZ 004254d8     qt-mt323:qt-mt323.dll
 0004:000024dc       __imp_??1QLineEdit@@UAE@XZ 004254dc     qt-mt323:qt-mt323.dll
 0004:000024e0       __imp_?header@QListView@@QBEPAVQHeader@@XZ 004254e0     qt-mt323:qt-mt323.dll
 0004:000024e4       __imp_?replace@QString@@QAEAAV1@VQChar@@0@Z 004254e4     qt-mt323:qt-mt323.dll
 0004:000024e8       __imp_?latin1@QString@@QBEPBDXZ 004254e8     qt-mt323:qt-mt323.dll
 0004:000024ec       __imp_?shared_null@QString@@0PAUQStringData@@A 004254ec     qt-mt323:qt-mt323.dll
 0004:000024f0       __imp_?deleteSelf@QStringData@@QAEXXZ 004254f0     qt-mt323:qt-mt323.dll
 0004:000024f4       __imp_??1QString@@QAE@XZ   004254f4     qt-mt323:qt-mt323.dll
 0004:000024f8       __imp_?killTimer@QObject@@QAEXH@Z 004254f8     qt-mt323:qt-mt323.dll
 0004:000024fc       __imp_??0QObject@@QAE@PAV0@PBD@Z 004254fc     qt-mt323:qt-mt323.dll
 0004:00002500       __imp_?startTimer@QObject@@QAEHH@Z 00425500     qt-mt323:qt-mt323.dll
 0004:00002504       __imp_??1QObject@@UAE@XZ   00425504     qt-mt323:qt-mt323.dll
 0004:00002508       __imp_?event@QObject@@UAE_NPAVQEvent@@@Z 00425508     qt-mt323:qt-mt323.dll
 0004:0000250c       __imp_?eventFilter@QObject@@UAE_NPAV1@PAVQEvent@@@Z 0042550c     qt-mt323:qt-mt323.dll
 0004:00002510       __imp_?setName@QObject@@UAEXPBD@Z 00425510     qt-mt323:qt-mt323.dll
 0004:00002514       __imp_?insertChild@QObject@@UAEXPAV1@@Z 00425514     qt-mt323:qt-mt323.dll
 0004:00002518       __imp_?removeChild@QObject@@UAEXPAV1@@Z 00425518     qt-mt323:qt-mt323.dll
 0004:0000251c       __imp_?setProperty@QObject@@UAE_NPBDABVQVariant@@@Z 0042551c     qt-mt323:qt-mt323.dll
 0004:00002520       __imp_?property@QObject@@UBE?AVQVariant@@PBD@Z 00425520     qt-mt323:qt-mt323.dll
 0004:00002524       __imp_?childEvent@QObject@@MAEXPAVQChildEvent@@@Z 00425524     qt-mt323:qt-mt323.dll
 0004:00002528       __imp_?customEvent@QObject@@MAEXPAVQCustomEvent@@@Z 00425528     qt-mt323:qt-mt323.dll
 0004:0000252c       __imp_?connectNotify@QObject@@MAEXPBD@Z 0042552c     qt-mt323:qt-mt323.dll
 0004:00002530       __imp_?disconnectNotify@QObject@@MAEXPBD@Z 00425530     qt-mt323:qt-mt323.dll
 0004:00002534       __imp_?checkConnectArgs@QObject@@MAE_NPBDPBV1@0@Z 00425534     qt-mt323:qt-mt323.dll
 0004:00002538       __imp_?makeSharedNull@QString@@CAPAUQStringData@@XZ 00425538     qt-mt323:qt-mt323.dll
 0004:0000253c       __imp_??1?$QMemArray@VQPoint@@@@UAE@XZ 0042553c     qt-mt323:qt-mt323.dll
 0004:00002540       __imp_??4QString@@QAEAAV0@PBD@Z 00425540     qt-mt323:qt-mt323.dll
 0004:00002544       __imp_?number@QString@@SA?AV1@HH@Z 00425544     qt-mt323:qt-mt323.dll
 0004:00002548       __imp_?number@QString@@SA?AV1@IH@Z 00425548     qt-mt323:qt-mt323.dll
 0004:0000254c       __imp_??H@YA?BVQString@@ABV0@PBD@Z 0042554c     qt-mt323:qt-mt323.dll
 0004:00002550       __imp_??H@YA?BVQString@@ABV0@0@Z 00425550     qt-mt323:qt-mt323.dll
 0004:00002554       __imp_??YQString@@QAEAAV0@ABV0@@Z 00425554     qt-mt323:qt-mt323.dll
 0004:00002558       __imp_??YQString@@QAEAAV0@PBD@Z 00425558     qt-mt323:qt-mt323.dll
 0004:0000255c       __imp_??H@YA?BVQString@@PBDABV0@@Z 0042555c     qt-mt323:qt-mt323.dll
 0004:00002560       __imp_??0QString@@QAE@PBD@Z 00425560     qt-mt323:qt-mt323.dll
 0004:00002564       __imp_?arg@QString@@QBE?AV1@HHH@Z 00425564     qt-mt323:qt-mt323.dll
 0004:00002568       __imp_?qDebug@@YAXPBDZZ    00425568     qt-mt323:qt-mt323.dll
 0004:0000256c       __imp_??1?$QMemArray@_N@@UAE@XZ 0042556c     qt-mt323:qt-mt323.dll
 0004:00002570       __imp_??1?$QMemArray@H@@UAE@XZ 00425570     qt-mt323:qt-mt323.dll
 0004:00002574       __imp_?closeEvent@QPopupMenu@@MAEXPAVQCloseEvent@@@Z 00425574     qt-mt323:qt-mt323.dll
 0004:00002578       __imp_??0QString@@QAE@ABV0@@Z 00425578     qt-mt323:qt-mt323.dll
 0004:0000257c       __imp_?arg@QString@@QBE?AV1@IHH@Z 0042557c     qt-mt323:qt-mt323.dll
 0004:00002580       __imp_?toString@QDateTime@@QBE?AVQString@@W4DateFormat@Qt@@@Z 00425580     qt-mt323:qt-mt323.dll
 0004:00002584       __imp_?setCheckable@QPopupMenu@@UAEX_N@Z 00425584     qt-mt323:qt-mt323.dll
 0004:00002588       __imp_??1QCString@@UAE@XZ  00425588     qt-mt323:qt-mt323.dll
 0004:0000258c       __imp_?local8Bit@QString@@QBE?AVQCString@@XZ 0042558c     qt-mt323:qt-mt323.dll
 0004:00002590       __imp_?ucs2@QString@@QBEPBGXZ 00425590     qt-mt323:qt-mt323.dll
 0004:00002594       __imp_?winEventFilter@QApplication@@UAE_NPAUtagMSG@@@Z 00425594     qt-mt323:qt-mt323.dll
 0004:00002598       __imp_?fromUcs2@QString@@SA?AV1@PBG@Z 00425598     qt-mt323:qt-mt323.dll
 0004:0000259c       __imp_?saveState@QApplication@@UAEXAAVQSessionManager@@@Z 0042559c     qt-mt323:qt-mt323.dll
 0004:000025a0       __imp_?commitData@QApplication@@UAEXAAVQSessionManager@@@Z 004255a0     qt-mt323:qt-mt323.dll
 0004:000025a4       __imp_?notify@QApplication@@UAE_NPAVQObject@@PAVQEvent@@@Z 004255a4     qt-mt323:qt-mt323.dll
 0004:000025a8       __imp_?polish@QApplication@@UAEXPAVQWidget@@@Z 004255a8     qt-mt323:qt-mt323.dll
 0004:000025ac       __imp_?event@QApplication@@MAE_NPAVQEvent@@@Z 004255ac     qt-mt323:qt-mt323.dll
 0004:000025b0       __imp_??1QApplication@@UAE@XZ 004255b0     qt-mt323:qt-mt323.dll
 0004:000025b4       __imp_??0QApplication@@QAE@AAHPAPADW4Type@0@@Z 004255b4     qt-mt323:qt-mt323.dll
 0004:000025b8       __imp_?raise@QWidget@@QAEXXZ 004255b8     qt-mt323:qt-mt323.dll
 0004:000025bc       __imp_?main_widget@QApplication@@0PAVQWidget@@A 004255bc     qt-mt323:qt-mt323.dll
 0004:000025c0       __imp_?static_QUType_QString@@3UQUType_QString@@A 004255c0     qt-mt323:qt-mt323.dll
 0004:000025c4       __imp_?static_QUType_bool@@3UQUType_bool@@A 004255c4     qt-mt323:qt-mt323.dll
 0004:000025c8       __imp_?staticMetaObject@QApplication@@SAPAVQMetaObject@@XZ 004255c8     qt-mt323:qt-mt323.dll
 0004:000025cc       __imp_?qt_cast@QApplication@@UAEPAXPBD@Z 004255cc     qt-mt323:qt-mt323.dll
 0004:000025d0       __imp_?activate_signal@QObject@@IAEXHVQString@@@Z 004255d0     qt-mt323:qt-mt323.dll
 0004:000025d4       __imp_?signalOffset@QMetaObject@@QBEHXZ 004255d4     qt-mt323:qt-mt323.dll
 0004:000025d8       __imp_?set@QUType_bool@@QAEXPAUQUObject@@_N@Z 004255d8     qt-mt323:qt-mt323.dll
 0004:000025dc       __imp_?qt_invoke@QApplication@@UAE_NHPAUQUObject@@@Z 004255dc     qt-mt323:qt-mt323.dll
 0004:000025e0       __imp_?qt_emit@QApplication@@UAE_NHPAUQUObject@@@Z 004255e0     qt-mt323:qt-mt323.dll
 0004:000025e4       __imp_?qt_property@QApplication@@UAE_NHHPAVQVariant@@@Z 004255e4     qt-mt323:qt-mt323.dll
 0004:000025e8       __imp_?ascii@QString@@QBEPBDXZ 004255e8     qt-mt323:qt-mt323.dll
 0004:000025ec       __imp_??0QChar@@QAE@ABV0@@Z 004255ec     qt-mt323:qt-mt323.dll
 0004:000025f0       __imp_?deleteData@QGArray@@MAEXPAUarray_data@1@@Z 004255f0     qt-mt323:qt-mt323.dll
 0004:000025f4       __imp_?newData@QGArray@@MAEPAUarray_data@1@XZ 004255f4     qt-mt323:qt-mt323.dll
 0004:000025f8       __imp_??1QGArray@@MAE@XZ   004255f8     qt-mt323:qt-mt323.dll
 0004:000025fc       __imp_?qWinMain@@YAXPAUHINSTANCE__@@0PADHAAHAAV?$QMemArray@PAD@@@Z 004255fc     qt-mt323:qt-mt323.dll
 0004:00002600       __imp_??0QGArray@@IAE@H@Z  00425600     qt-mt323:qt-mt323.dll
 0004:00002604       __imp_?duplicate@QGArray@@IAEAAV1@ABV1@@Z 00425604     qt-mt323:qt-mt323.dll
 0004:00002608       __imp_??_7?$QMemArray@H@@6B@ 00425608     qt-mt323:qt-mt323.dll
 0004:0000260c       __imp_??_7?$QMemArray@_N@@6B@ 0042560c     qt-mt323:qt-mt323.dll
 0004:00002610       __imp_??_7?$QMemArray@D@@6B@ 00425610     qt-mt323:qt-mt323.dll
 0004:00002614       __imp_??_7?$QMemArray@VQPoint@@@@6B@ 00425614     qt-mt323:qt-mt323.dll
 0004:00002618       __imp_??1QGList@@MAE@XZ    00425618     qt-mt323:qt-mt323.dll
 0004:0000261c       __imp_?clear@QGList@@MAEXXZ 0042561c     qt-mt323:qt-mt323.dll
 0004:00002620       __imp_??_7?$QPtrList@D@@6B@ 00425620     qt-mt323:qt-mt323.dll
 0004:00002624       __imp_??_7?$QPtrList@VQObject@@@@6B@ 00425624     qt-mt323:qt-mt323.dll
 0004:00002628       __imp_??_7?$QPtrList@VQWidget@@@@6B@ 00425628     qt-mt323:qt-mt323.dll
 0004:0000262c       \177qt-mt323_NULL_THUNK_DATA 0042562c     qt-mt323:qt-mt323.dll

 entry point at        0001:00013d48

